	.file	"D_2_Predator_or_Prey_Hard_Version.cpp"
	.intel_syntax noprefix
	.text
	.section	.text._ZN9__gnu_cxx5__ops16__iter_less_iterEv,"axG",@progbits,_ZN9__gnu_cxx5__ops16__iter_less_iterEv,comdat
	.weak	_ZN9__gnu_cxx5__ops16__iter_less_iterEv
	.type	_ZN9__gnu_cxx5__ops16__iter_less_iterEv, @function
_ZN9__gnu_cxx5__ops16__iter_less_iterEv:
.LFB447:
	.cfi_startproc
	endbr64
	push	rbp
	.cfi_def_cfa_offset 16
	.cfi_offset 6, -16
	mov	rbp, rsp
	.cfi_def_cfa_register 6
	nop
	pop	rbp
	.cfi_def_cfa 7, 8
	ret
	.cfi_endproc
.LFE447:
	.size	_ZN9__gnu_cxx5__ops16__iter_less_iterEv, .-_ZN9__gnu_cxx5__ops16__iter_less_iterEv
	.section	.text._ZN9__gnu_cxx5__ops14_Iter_less_valC2ENS0_15_Iter_less_iterE,"axG",@progbits,_ZN9__gnu_cxx5__ops14_Iter_less_valC5ENS0_15_Iter_less_iterE,comdat
	.align 2
	.weak	_ZN9__gnu_cxx5__ops14_Iter_less_valC2ENS0_15_Iter_less_iterE
	.type	_ZN9__gnu_cxx5__ops14_Iter_less_valC2ENS0_15_Iter_less_iterE, @function
_ZN9__gnu_cxx5__ops14_Iter_less_valC2ENS0_15_Iter_less_iterE:
.LFB449:
	.cfi_startproc
	endbr64
	push	rbp
	.cfi_def_cfa_offset 16
	.cfi_offset 6, -16
	mov	rbp, rsp
	.cfi_def_cfa_register 6
	mov	QWORD PTR -8[rbp], rdi
	nop
	pop	rbp
	.cfi_def_cfa 7, 8
	ret
	.cfi_endproc
.LFE449:
	.size	_ZN9__gnu_cxx5__ops14_Iter_less_valC2ENS0_15_Iter_less_iterE, .-_ZN9__gnu_cxx5__ops14_Iter_less_valC2ENS0_15_Iter_less_iterE
	.weak	_ZN9__gnu_cxx5__ops14_Iter_less_valC1ENS0_15_Iter_less_iterE
	.set	_ZN9__gnu_cxx5__ops14_Iter_less_valC1ENS0_15_Iter_less_iterE,_ZN9__gnu_cxx5__ops14_Iter_less_valC2ENS0_15_Iter_less_iterE
	.section	.text._ZN9__gnu_cxx5__ops15__iter_less_valEv,"axG",@progbits,_ZN9__gnu_cxx5__ops15__iter_less_valEv,comdat
	.weak	_ZN9__gnu_cxx5__ops15__iter_less_valEv
	.type	_ZN9__gnu_cxx5__ops15__iter_less_valEv, @function
_ZN9__gnu_cxx5__ops15__iter_less_valEv:
.LFB452:
	.cfi_startproc
	endbr64
	push	rbp
	.cfi_def_cfa_offset 16
	.cfi_offset 6, -16
	mov	rbp, rsp
	.cfi_def_cfa_register 6
	nop
	pop	rbp
	.cfi_def_cfa 7, 8
	ret
	.cfi_endproc
.LFE452:
	.size	_ZN9__gnu_cxx5__ops15__iter_less_valEv, .-_ZN9__gnu_cxx5__ops15__iter_less_valEv
	.section	.text._ZN9__gnu_cxx5__ops15__val_less_iterEv,"axG",@progbits,_ZN9__gnu_cxx5__ops15__val_less_iterEv,comdat
	.weak	_ZN9__gnu_cxx5__ops15__val_less_iterEv
	.type	_ZN9__gnu_cxx5__ops15__val_less_iterEv, @function
_ZN9__gnu_cxx5__ops15__val_less_iterEv:
.LFB458:
	.cfi_startproc
	endbr64
	push	rbp
	.cfi_def_cfa_offset 16
	.cfi_offset 6, -16
	mov	rbp, rsp
	.cfi_def_cfa_register 6
	nop
	pop	rbp
	.cfi_def_cfa 7, 8
	ret
	.cfi_endproc
.LFE458:
	.size	_ZN9__gnu_cxx5__ops15__val_less_iterEv, .-_ZN9__gnu_cxx5__ops15__val_less_iterEv
	.section	.text._ZN9__gnu_cxx5__ops15__val_comp_iterENS0_15_Iter_less_iterE,"axG",@progbits,_ZN9__gnu_cxx5__ops15__val_comp_iterENS0_15_Iter_less_iterE,comdat
	.weak	_ZN9__gnu_cxx5__ops15__val_comp_iterENS0_15_Iter_less_iterE
	.type	_ZN9__gnu_cxx5__ops15__val_comp_iterENS0_15_Iter_less_iterE, @function
_ZN9__gnu_cxx5__ops15__val_comp_iterENS0_15_Iter_less_iterE:
.LFB459:
	.cfi_startproc
	endbr64
	push	rbp
	.cfi_def_cfa_offset 16
	.cfi_offset 6, -16
	mov	rbp, rsp
	.cfi_def_cfa_register 6
	nop
	pop	rbp
	.cfi_def_cfa 7, 8
	ret
	.cfi_endproc
.LFE459:
	.size	_ZN9__gnu_cxx5__ops15__val_comp_iterENS0_15_Iter_less_iterE, .-_ZN9__gnu_cxx5__ops15__val_comp_iterENS0_15_Iter_less_iterE
	.section	.text._ZSt17__size_to_integerm,"axG",@progbits,_ZSt17__size_to_integerm,comdat
	.weak	_ZSt17__size_to_integerm
	.type	_ZSt17__size_to_integerm, @function
_ZSt17__size_to_integerm:
.LFB538:
	.cfi_startproc
	endbr64
	push	rbp
	.cfi_def_cfa_offset 16
	.cfi_offset 6, -16
	mov	rbp, rsp
	.cfi_def_cfa_register 6
	mov	QWORD PTR -8[rbp], rdi
	mov	rax, QWORD PTR -8[rbp]
	pop	rbp
	.cfi_def_cfa 7, 8
	ret
	.cfi_endproc
.LFE538:
	.size	_ZSt17__size_to_integerm, .-_ZSt17__size_to_integerm
	.section	.text._ZSt4__lgl,"axG",@progbits,_ZSt4__lgl,comdat
	.weak	_ZSt4__lgl
	.type	_ZSt4__lgl, @function
_ZSt4__lgl:
.LFB572:
	.cfi_startproc
	endbr64
	push	rbp
	.cfi_def_cfa_offset 16
	.cfi_offset 6, -16
	mov	rbp, rsp
	.cfi_def_cfa_register 6
	mov	QWORD PTR -8[rbp], rdi
	mov	rax, QWORD PTR -8[rbp]
	bsr	rax, rax
	xor	rax, 63
	mov	edx, eax
	mov	eax, 63
	sub	eax, edx
	cdqe
	pop	rbp
	.cfi_def_cfa 7, 8
	ret
	.cfi_endproc
.LFE572:
	.size	_ZSt4__lgl, .-_ZSt4__lgl
	.section	.text._ZnwmPv,"axG",@progbits,_ZnwmPv,comdat
	.weak	_ZnwmPv
	.type	_ZnwmPv, @function
_ZnwmPv:
.LFB1007:
	.cfi_startproc
	endbr64
	push	rbp
	.cfi_def_cfa_offset 16
	.cfi_offset 6, -16
	mov	rbp, rsp
	.cfi_def_cfa_register 6
	mov	QWORD PTR -8[rbp], rdi
	mov	QWORD PTR -16[rbp], rsi
	mov	rax, QWORD PTR -16[rbp]
	pop	rbp
	.cfi_def_cfa 7, 8
	ret
	.cfi_endproc
.LFE1007:
	.size	_ZnwmPv, .-_ZnwmPv
	.section	.text._ZSt3minImERKT_S2_S2_,"axG",@progbits,_ZSt3minImERKT_S2_S2_,comdat
	.weak	_ZSt3minImERKT_S2_S2_
	.type	_ZSt3minImERKT_S2_S2_, @function
_ZSt3minImERKT_S2_S2_:
.LFB3255:
	.cfi_startproc
	endbr64
	push	rbp
	.cfi_def_cfa_offset 16
	.cfi_offset 6, -16
	mov	rbp, rsp
	.cfi_def_cfa_register 6
	mov	QWORD PTR -8[rbp], rdi
	mov	QWORD PTR -16[rbp], rsi
	mov	rax, QWORD PTR -16[rbp]
	mov	rdx, QWORD PTR [rax]
	mov	rax, QWORD PTR -8[rbp]
	mov	rax, QWORD PTR [rax]
	cmp	rdx, rax
	jnb	.L17
	mov	rax, QWORD PTR -16[rbp]
	jmp	.L18
.L17:
	mov	rax, QWORD PTR -8[rbp]
.L18:
	pop	rbp
	.cfi_def_cfa 7, 8
	ret
	.cfi_endproc
.LFE3255:
	.size	_ZSt3minImERKT_S2_S2_, .-_ZSt3minImERKT_S2_S2_
	.section	.rodata
	.type	_ZN6__pstl9execution2v1L3seqE, @object
	.size	_ZN6__pstl9execution2v1L3seqE, 1
_ZN6__pstl9execution2v1L3seqE:
	.zero	1
	.type	_ZN6__pstl9execution2v1L3parE, @object
	.size	_ZN6__pstl9execution2v1L3parE, 1
_ZN6__pstl9execution2v1L3parE:
	.zero	1
	.type	_ZN6__pstl9execution2v1L9par_unseqE, @object
	.size	_ZN6__pstl9execution2v1L9par_unseqE, 1
_ZN6__pstl9execution2v1L9par_unseqE:
	.zero	1
	.type	_ZN6__pstl9execution2v1L5unseqE, @object
	.size	_ZN6__pstl9execution2v1L5unseqE, 1
_ZN6__pstl9execution2v1L5unseqE:
	.zero	1
	.local	_ZStL8__ioinit
	.comm	_ZStL8__ioinit,1,1
	.align 4
	.type	_ZN9__gnu_cxxL21__default_lock_policyE, @object
	.size	_ZN9__gnu_cxxL21__default_lock_policyE, 4
_ZN9__gnu_cxxL21__default_lock_policyE:
	.long	2
	.align 4
	.type	_ZNSt15regex_constantsL13error_collateE, @object
	.size	_ZNSt15regex_constantsL13error_collateE, 4
_ZNSt15regex_constantsL13error_collateE:
	.zero	4
	.align 4
	.type	_ZNSt15regex_constantsL11error_ctypeE, @object
	.size	_ZNSt15regex_constantsL11error_ctypeE, 4
_ZNSt15regex_constantsL11error_ctypeE:
	.long	1
	.align 4
	.type	_ZNSt15regex_constantsL12error_escapeE, @object
	.size	_ZNSt15regex_constantsL12error_escapeE, 4
_ZNSt15regex_constantsL12error_escapeE:
	.long	2
	.align 4
	.type	_ZNSt15regex_constantsL13error_backrefE, @object
	.size	_ZNSt15regex_constantsL13error_backrefE, 4
_ZNSt15regex_constantsL13error_backrefE:
	.long	3
	.align 4
	.type	_ZNSt15regex_constantsL11error_brackE, @object
	.size	_ZNSt15regex_constantsL11error_brackE, 4
_ZNSt15regex_constantsL11error_brackE:
	.long	4
	.align 4
	.type	_ZNSt15regex_constantsL11error_parenE, @object
	.size	_ZNSt15regex_constantsL11error_parenE, 4
_ZNSt15regex_constantsL11error_parenE:
	.long	5
	.align 4
	.type	_ZNSt15regex_constantsL11error_braceE, @object
	.size	_ZNSt15regex_constantsL11error_braceE, 4
_ZNSt15regex_constantsL11error_braceE:
	.long	6
	.align 4
	.type	_ZNSt15regex_constantsL14error_badbraceE, @object
	.size	_ZNSt15regex_constantsL14error_badbraceE, 4
_ZNSt15regex_constantsL14error_badbraceE:
	.long	7
	.align 4
	.type	_ZNSt15regex_constantsL11error_rangeE, @object
	.size	_ZNSt15regex_constantsL11error_rangeE, 4
_ZNSt15regex_constantsL11error_rangeE:
	.long	8
	.align 4
	.type	_ZNSt15regex_constantsL11error_spaceE, @object
	.size	_ZNSt15regex_constantsL11error_spaceE, 4
_ZNSt15regex_constantsL11error_spaceE:
	.long	9
	.align 4
	.type	_ZNSt15regex_constantsL15error_badrepeatE, @object
	.size	_ZNSt15regex_constantsL15error_badrepeatE, 4
_ZNSt15regex_constantsL15error_badrepeatE:
	.long	10
	.align 4
	.type	_ZNSt15regex_constantsL16error_complexityE, @object
	.size	_ZNSt15regex_constantsL16error_complexityE, 4
_ZNSt15regex_constantsL16error_complexityE:
	.long	11
	.align 4
	.type	_ZNSt15regex_constantsL11error_stackE, @object
	.size	_ZNSt15regex_constantsL11error_stackE, 4
_ZNSt15regex_constantsL11error_stackE:
	.long	12
	.align 8
	.type	_ZNSt8__detailL19_S_invalid_state_idE, @object
	.size	_ZNSt8__detailL19_S_invalid_state_idE, 8
_ZNSt8__detailL19_S_invalid_state_idE:
	.quad	-1
.LC0:
	.string	"r"
.LC1:
	.string	"input.txt"
.LC2:
	.string	"w"
.LC3:
	.string	"output.txt"
	.text
	.globl	_Z5setupv
	.type	_Z5setupv, @function
_Z5setupv:
.LFB9704:
	.cfi_startproc
	endbr64
	push	rbp
	.cfi_def_cfa_offset 16
	.cfi_offset 6, -16
	mov	rbp, rsp
	.cfi_def_cfa_register 6
	mov	edi, 0
	call	_ZNSt8ios_base15sync_with_stdioEb@PLT
	mov	esi, 0
	lea	rax, _ZSt3cin[rip+16]
	mov	rdi, rax
	call	_ZNSt9basic_iosIcSt11char_traitsIcEE3tieEPSo@PLT
	mov	esi, 0
	lea	rax, _ZSt4cout[rip+8]
	mov	rdi, rax
	call	_ZNSt9basic_iosIcSt11char_traitsIcEE3tieEPSo@PLT
	mov	rax, QWORD PTR stdin[rip]
	mov	rdx, rax
	lea	rax, .LC0[rip]
	mov	rsi, rax
	lea	rax, .LC1[rip]
	mov	rdi, rax
	call	freopen@PLT
	mov	rax, QWORD PTR stdout[rip]
	mov	rdx, rax
	lea	rax, .LC2[rip]
	mov	rsi, rax
	lea	rax, .LC3[rip]
	mov	rdi, rax
	call	freopen@PLT
	nop
	pop	rbp
	.cfi_def_cfa 7, 8
	ret
	.cfi_endproc
.LFE9704:
	.size	_Z5setupv, .-_Z5setupv
	.section	.text._ZNSt12_Vector_baseIiSaIiEE12_Vector_implD2Ev,"axG",@progbits,_ZNSt12_Vector_baseIiSaIiEE12_Vector_implD5Ev,comdat
	.align 2
	.weak	_ZNSt12_Vector_baseIiSaIiEE12_Vector_implD2Ev
	.type	_ZNSt12_Vector_baseIiSaIiEE12_Vector_implD2Ev, @function
_ZNSt12_Vector_baseIiSaIiEE12_Vector_implD2Ev:
.LFB9709:
	.cfi_startproc
	endbr64
	push	rbp
	.cfi_def_cfa_offset 16
	.cfi_offset 6, -16
	mov	rbp, rsp
	.cfi_def_cfa_register 6
	sub	rsp, 16
	mov	QWORD PTR -8[rbp], rdi
	mov	rax, QWORD PTR -8[rbp]
	mov	rdi, rax
	call	_ZNSaIiED2Ev
	nop
	leave
	.cfi_def_cfa 7, 8
	ret
	.cfi_endproc
.LFE9709:
	.size	_ZNSt12_Vector_baseIiSaIiEE12_Vector_implD2Ev, .-_ZNSt12_Vector_baseIiSaIiEE12_Vector_implD2Ev
	.weak	_ZNSt12_Vector_baseIiSaIiEE12_Vector_implD1Ev
	.set	_ZNSt12_Vector_baseIiSaIiEE12_Vector_implD1Ev,_ZNSt12_Vector_baseIiSaIiEE12_Vector_implD2Ev
	.section	.text._ZNSt12_Vector_baseIiSaIiEEC2Ev,"axG",@progbits,_ZNSt12_Vector_baseIiSaIiEEC5Ev,comdat
	.align 2
	.weak	_ZNSt12_Vector_baseIiSaIiEEC2Ev
	.type	_ZNSt12_Vector_baseIiSaIiEEC2Ev, @function
_ZNSt12_Vector_baseIiSaIiEEC2Ev:
.LFB9711:
	.cfi_startproc
	endbr64
	push	rbp
	.cfi_def_cfa_offset 16
	.cfi_offset 6, -16
	mov	rbp, rsp
	.cfi_def_cfa_register 6
	sub	rsp, 16
	mov	QWORD PTR -8[rbp], rdi
	mov	rax, QWORD PTR -8[rbp]
	mov	rdi, rax
	call	_ZNSt12_Vector_baseIiSaIiEE12_Vector_implC1Ev
	nop
	leave
	.cfi_def_cfa 7, 8
	ret
	.cfi_endproc
.LFE9711:
	.size	_ZNSt12_Vector_baseIiSaIiEEC2Ev, .-_ZNSt12_Vector_baseIiSaIiEEC2Ev
	.weak	_ZNSt12_Vector_baseIiSaIiEEC1Ev
	.set	_ZNSt12_Vector_baseIiSaIiEEC1Ev,_ZNSt12_Vector_baseIiSaIiEEC2Ev
	.section	.text._ZNSt6vectorIiSaIiEEC2Ev,"axG",@progbits,_ZNSt6vectorIiSaIiEEC5Ev,comdat
	.align 2
	.weak	_ZNSt6vectorIiSaIiEEC2Ev
	.type	_ZNSt6vectorIiSaIiEEC2Ev, @function
_ZNSt6vectorIiSaIiEEC2Ev:
.LFB9713:
	.cfi_startproc
	endbr64
	push	rbp
	.cfi_def_cfa_offset 16
	.cfi_offset 6, -16
	mov	rbp, rsp
	.cfi_def_cfa_register 6
	sub	rsp, 16
	mov	QWORD PTR -8[rbp], rdi
	mov	rax, QWORD PTR -8[rbp]
	mov	rdi, rax
	call	_ZNSt12_Vector_baseIiSaIiEEC2Ev
	nop
	leave
	.cfi_def_cfa 7, 8
	ret
	.cfi_endproc
.LFE9713:
	.size	_ZNSt6vectorIiSaIiEEC2Ev, .-_ZNSt6vectorIiSaIiEEC2Ev
	.weak	_ZNSt6vectorIiSaIiEEC1Ev
	.set	_ZNSt6vectorIiSaIiEEC1Ev,_ZNSt6vectorIiSaIiEEC2Ev
	.section	.rodata
.LC4:
	.string	" "
	.text
	.globl	main
	.type	main, @function
main:
.LFB9705:
	.cfi_startproc
	.cfi_personality 0x9b,DW.ref.__gxx_personality_v0
	.cfi_lsda 0x1b,.LLSDA9705
	endbr64
	push	rbp
	.cfi_def_cfa_offset 16
	.cfi_offset 6, -16
	mov	rbp, rsp
	.cfi_def_cfa_register 6
	push	rbx
	sub	rsp, 152
	.cfi_offset 3, -24
	mov	rax, QWORD PTR fs:40
	mov	QWORD PTR -24[rbp], rax
	xor	eax, eax
.LEHB0:
	call	_Z5setupv
	lea	rax, -148[rbp]
	mov	rsi, rax
	lea	rax, _ZSt3cin[rip]
	mov	rdi, rax
	call	_ZNSirsERi@PLT
	mov	rdx, rax
	lea	rax, -144[rbp]
	mov	rsi, rax
	mov	rdi, rdx
	call	_ZNSirsERi@PLT
	mov	rdx, rax
	lea	rax, -140[rbp]
	mov	rsi, rax
	mov	rdi, rdx
	call	_ZNSirsERi@PLT
.LEHE0:
	lea	rax, -48[rbp]
	mov	rdi, rax
	call	_ZNSaIiEC1Ev
	mov	eax, DWORD PTR -148[rbp]
	movsx	rcx, eax
	lea	rdx, -48[rbp]
	lea	rax, -80[rbp]
	mov	rsi, rcx
	mov	rdi, rax
.LEHB1:
	call	_ZNSt6vectorIiSaIiEEC1EmRKS0_
.LEHE1:
	lea	rax, -48[rbp]
	mov	rdi, rax
	call	_ZNSaIiED1Ev
	lea	rax, -48[rbp]
	mov	rdi, rax
	call	_ZNSt6vectorIiSaIiEEC1Ev
	mov	DWORD PTR -136[rbp], 0
	jmp	.L24
.L25:
	mov	eax, DWORD PTR -136[rbp]
	movsx	rdx, eax
	lea	rax, -80[rbp]
	mov	rsi, rdx
	mov	rdi, rax
	call	_ZNSt6vectorIiSaIiEEixEm
	mov	rsi, rax
	lea	rax, _ZSt3cin[rip]
	mov	rdi, rax
.LEHB2:
	call	_ZNSirsERi@PLT
	add	DWORD PTR -136[rbp], 1
.L24:
	mov	eax, DWORD PTR -148[rbp]
	cmp	DWORD PTR -136[rbp], eax
	jl	.L25
	lea	rdx, -80[rbp]
	lea	rax, -48[rbp]
	mov	rsi, rdx
	mov	rdi, rax
	call	_ZNSt6vectorIiSaIiEEaSERKS1_
	lea	rax, -48[rbp]
	mov	rdi, rax
	call	_ZNSt6vectorIiSaIiEE3endEv
	mov	rbx, rax
	lea	rax, -48[rbp]
	mov	rdi, rax
	call	_ZNSt6vectorIiSaIiEE5beginEv
	mov	rsi, rbx
	mov	rdi, rax
	call	_ZSt4sortIN9__gnu_cxx17__normal_iteratorIPiSt6vectorIiSaIiEEEEEvT_S7_
	mov	DWORD PTR -132[rbp], 0
	jmp	.L26
.L27:
	lea	rax, -48[rbp]
	mov	rdi, rax
	call	_ZNSt6vectorIiSaIiEE5beginEv
	mov	QWORD PTR -88[rbp], rax
	mov	eax, DWORD PTR -132[rbp]
	movsx	rdx, eax
	lea	rax, -80[rbp]
	mov	rsi, rdx
	mov	rdi, rax
	call	_ZNSt6vectorIiSaIiEEixEm
	mov	edx, DWORD PTR [rax]
	mov	eax, DWORD PTR -140[rbp]
	add	eax, edx
	mov	DWORD PTR -96[rbp], eax
	lea	rax, -48[rbp]
	mov	rdi, rax
	call	_ZNSt6vectorIiSaIiEE3endEv
	mov	rbx, rax
	lea	rax, -48[rbp]
	mov	rdi, rax
	call	_ZNSt6vectorIiSaIiEE5beginEv
	mov	rcx, rax
	lea	rax, -96[rbp]
	mov	rdx, rax
	mov	rsi, rbx
	mov	rdi, rcx
	call	_ZSt11lower_boundIN9__gnu_cxx17__normal_iteratorIPiSt6vectorIiSaIiEEEEiET_S7_S7_RKT0_
	mov	QWORD PTR -120[rbp], rax
	lea	rdx, -88[rbp]
	lea	rax, -120[rbp]
	mov	rsi, rdx
	mov	rdi, rax
	call	_ZN9__gnu_cxxmiIPiSt6vectorIiSaIiEEEENS_17__normal_iteratorIT_T0_E15difference_typeERKS8_SB_
	mov	DWORD PTR -128[rbp], eax
	lea	rax, -48[rbp]
	mov	rdi, rax
	call	_ZNSt6vectorIiSaIiEE5beginEv
	mov	QWORD PTR -88[rbp], rax
	mov	eax, DWORD PTR -132[rbp]
	movsx	rdx, eax
	lea	rax, -80[rbp]
	mov	rsi, rdx
	mov	rdi, rax
	call	_ZNSt6vectorIiSaIiEEixEm
	mov	edx, DWORD PTR [rax]
	mov	eax, DWORD PTR -144[rbp]
	add	eax, edx
	mov	DWORD PTR -96[rbp], eax
	lea	rax, -48[rbp]
	mov	rdi, rax
	call	_ZNSt6vectorIiSaIiEE3endEv
	mov	rbx, rax
	lea	rax, -48[rbp]
	mov	rdi, rax
	call	_ZNSt6vectorIiSaIiEE5beginEv
	mov	rcx, rax
	lea	rax, -96[rbp]
	mov	rdx, rax
	mov	rsi, rbx
	mov	rdi, rcx
	call	_ZSt11lower_boundIN9__gnu_cxx17__normal_iteratorIPiSt6vectorIiSaIiEEEEiET_S7_S7_RKT0_
	mov	QWORD PTR -112[rbp], rax
	lea	rdx, -88[rbp]
	lea	rax, -112[rbp]
	mov	rsi, rdx
	mov	rdi, rax
	call	_ZN9__gnu_cxxmiIPiSt6vectorIiSaIiEEEENS_17__normal_iteratorIT_T0_E15difference_typeERKS8_SB_
	mov	DWORD PTR -124[rbp], eax
	mov	eax, DWORD PTR -128[rbp]
	sub	eax, DWORD PTR -124[rbp]
	mov	esi, eax
	lea	rax, _ZSt4cout[rip]
	mov	rdi, rax
	call	_ZNSolsEi@PLT
	mov	rdx, rax
	lea	rax, .LC4[rip]
	mov	rsi, rax
	mov	rdi, rdx
	call	_ZStlsISt11char_traitsIcEERSt13basic_ostreamIcT_ES5_PKc@PLT
	lea	rax, -48[rbp]
	mov	rdi, rax
	call	_ZNSt6vectorIiSaIiEE5beginEv
	mov	QWORD PTR -88[rbp], rax
	mov	eax, DWORD PTR -132[rbp]
	movsx	rdx, eax
	lea	rax, -80[rbp]
	mov	rsi, rdx
	mov	rdi, rax
	call	_ZNSt6vectorIiSaIiEEixEm
	mov	eax, DWORD PTR [rax]
	mov	edx, DWORD PTR -144[rbp]
	sub	eax, edx
	mov	DWORD PTR -96[rbp], eax
	lea	rax, -48[rbp]
	mov	rdi, rax
	call	_ZNSt6vectorIiSaIiEE3endEv
	mov	rbx, rax
	lea	rax, -48[rbp]
	mov	rdi, rax
	call	_ZNSt6vectorIiSaIiEE5beginEv
	mov	rcx, rax
	lea	rax, -96[rbp]
	mov	rdx, rax
	mov	rsi, rbx
	mov	rdi, rcx
	call	_ZSt11upper_boundIN9__gnu_cxx17__normal_iteratorIPiSt6vectorIiSaIiEEEEiET_S7_S7_RKT0_
	mov	QWORD PTR -104[rbp], rax
	lea	rdx, -88[rbp]
	lea	rax, -104[rbp]
	mov	rsi, rdx
	mov	rdi, rax
	call	_ZN9__gnu_cxxmiIPiSt6vectorIiSaIiEEEENS_17__normal_iteratorIT_T0_E15difference_typeERKS8_SB_
	mov	DWORD PTR -128[rbp], eax
	lea	rax, -48[rbp]
	mov	rdi, rax
	call	_ZNSt6vectorIiSaIiEE5beginEv
	mov	QWORD PTR -88[rbp], rax
	mov	eax, DWORD PTR -132[rbp]
	movsx	rdx, eax
	lea	rax, -80[rbp]
	mov	rsi, rdx
	mov	rdi, rax
	call	_ZNSt6vectorIiSaIiEEixEm
	mov	eax, DWORD PTR [rax]
	mov	edx, DWORD PTR -140[rbp]
	sub	eax, edx
	mov	DWORD PTR -104[rbp], eax
	lea	rax, -48[rbp]
	mov	rdi, rax
	call	_ZNSt6vectorIiSaIiEE3endEv
	mov	rbx, rax
	lea	rax, -48[rbp]
	mov	rdi, rax
	call	_ZNSt6vectorIiSaIiEE5beginEv
	mov	rcx, rax
	lea	rax, -104[rbp]
	mov	rdx, rax
	mov	rsi, rbx
	mov	rdi, rcx
	call	_ZSt11upper_boundIN9__gnu_cxx17__normal_iteratorIPiSt6vectorIiSaIiEEEEiET_S7_S7_RKT0_
	mov	QWORD PTR -96[rbp], rax
	lea	rdx, -88[rbp]
	lea	rax, -96[rbp]
	mov	rsi, rdx
	mov	rdi, rax
	call	_ZN9__gnu_cxxmiIPiSt6vectorIiSaIiEEEENS_17__normal_iteratorIT_T0_E15difference_typeERKS8_SB_
	mov	DWORD PTR -124[rbp], eax
	mov	eax, DWORD PTR -128[rbp]
	sub	eax, DWORD PTR -124[rbp]
	mov	esi, eax
	lea	rax, _ZSt4cout[rip]
	mov	rdi, rax
	call	_ZNSolsEi@PLT
	mov	esi, 10
	mov	rdi, rax
	call	_ZStlsISt11char_traitsIcEERSt13basic_ostreamIcT_ES5_c@PLT
.LEHE2:
	add	DWORD PTR -132[rbp], 1
.L26:
	mov	eax, DWORD PTR -148[rbp]
	cmp	DWORD PTR -132[rbp], eax
	jl	.L27
	mov	ebx, 0
	lea	rax, -48[rbp]
	mov	rdi, rax
	call	_ZNSt6vectorIiSaIiEED1Ev
	lea	rax, -80[rbp]
	mov	rdi, rax
	call	_ZNSt6vectorIiSaIiEED1Ev
	mov	eax, ebx
	mov	rdx, QWORD PTR -24[rbp]
	sub	rdx, QWORD PTR fs:40
	je	.L31
	jmp	.L34
.L32:
	endbr64
	mov	rbx, rax
	lea	rax, -48[rbp]
	mov	rdi, rax
	call	_ZNSaIiED1Ev
	mov	rax, rbx
	mov	rdi, rax
.LEHB3:
	call	_Unwind_Resume@PLT
.L33:
	endbr64
	mov	rbx, rax
	lea	rax, -48[rbp]
	mov	rdi, rax
	call	_ZNSt6vectorIiSaIiEED1Ev
	lea	rax, -80[rbp]
	mov	rdi, rax
	call	_ZNSt6vectorIiSaIiEED1Ev
	mov	rax, rbx
	mov	rdi, rax
	call	_Unwind_Resume@PLT
.LEHE3:
.L34:
	call	__stack_chk_fail@PLT
.L31:
	mov	rbx, QWORD PTR -8[rbp]
	leave
	.cfi_def_cfa 7, 8
	ret
	.cfi_endproc
.LFE9705:
	.globl	__gxx_personality_v0
	.section	.gcc_except_table,"a",@progbits
.LLSDA9705:
	.byte	0xff
	.byte	0xff
	.byte	0x1
	.uleb128 .LLSDACSE9705-.LLSDACSB9705
.LLSDACSB9705:
	.uleb128 .LEHB0-.LFB9705
	.uleb128 .LEHE0-.LEHB0
	.uleb128 0
	.uleb128 0
	.uleb128 .LEHB1-.LFB9705
	.uleb128 .LEHE1-.LEHB1
	.uleb128 .L32-.LFB9705
	.uleb128 0
	.uleb128 .LEHB2-.LFB9705
	.uleb128 .LEHE2-.LEHB2
	.uleb128 .L33-.LFB9705
	.uleb128 0
	.uleb128 .LEHB3-.LFB9705
	.uleb128 .LEHE3-.LEHB3
	.uleb128 0
	.uleb128 0
.LLSDACSE9705:
	.text
	.size	main, .-main
	.section	.text._ZNSaIiEC2Ev,"axG",@progbits,_ZNSaIiEC5Ev,comdat
	.align 2
	.weak	_ZNSaIiEC2Ev
	.type	_ZNSaIiEC2Ev, @function
_ZNSaIiEC2Ev:
.LFB10404:
	.cfi_startproc
	endbr64
	push	rbp
	.cfi_def_cfa_offset 16
	.cfi_offset 6, -16
	mov	rbp, rsp
	.cfi_def_cfa_register 6
	sub	rsp, 16
	mov	QWORD PTR -8[rbp], rdi
	mov	rax, QWORD PTR -8[rbp]
	mov	rdi, rax
	call	_ZN9__gnu_cxx13new_allocatorIiEC2Ev
	nop
	leave
	.cfi_def_cfa 7, 8
	ret
	.cfi_endproc
.LFE10404:
	.size	_ZNSaIiEC2Ev, .-_ZNSaIiEC2Ev
	.weak	_ZNSaIiEC1Ev
	.set	_ZNSaIiEC1Ev,_ZNSaIiEC2Ev
	.section	.text._ZNSaIiED2Ev,"axG",@progbits,_ZNSaIiED5Ev,comdat
	.align 2
	.weak	_ZNSaIiED2Ev
	.type	_ZNSaIiED2Ev, @function
_ZNSaIiED2Ev:
.LFB10407:
	.cfi_startproc
	endbr64
	push	rbp
	.cfi_def_cfa_offset 16
	.cfi_offset 6, -16
	mov	rbp, rsp
	.cfi_def_cfa_register 6
	sub	rsp, 16
	mov	QWORD PTR -8[rbp], rdi
	mov	rax, QWORD PTR -8[rbp]
	mov	rdi, rax
	call	_ZN9__gnu_cxx13new_allocatorIiED2Ev
	nop
	leave
	.cfi_def_cfa 7, 8
	ret
	.cfi_endproc
.LFE10407:
	.size	_ZNSaIiED2Ev, .-_ZNSaIiED2Ev
	.weak	_ZNSaIiED1Ev
	.set	_ZNSaIiED1Ev,_ZNSaIiED2Ev
	.section	.text._ZNSt6vectorIiSaIiEEC2EmRKS0_,"axG",@progbits,_ZNSt6vectorIiSaIiEEC5EmRKS0_,comdat
	.align 2
	.weak	_ZNSt6vectorIiSaIiEEC2EmRKS0_
	.type	_ZNSt6vectorIiSaIiEEC2EmRKS0_, @function
_ZNSt6vectorIiSaIiEEC2EmRKS0_:
.LFB10410:
	.cfi_startproc
	.cfi_personality 0x9b,DW.ref.__gxx_personality_v0
	.cfi_lsda 0x1b,.LLSDA10410
	endbr64
	push	rbp
	.cfi_def_cfa_offset 16
	.cfi_offset 6, -16
	mov	rbp, rsp
	.cfi_def_cfa_register 6
	push	rbx
	sub	rsp, 40
	.cfi_offset 3, -24
	mov	QWORD PTR -24[rbp], rdi
	mov	QWORD PTR -32[rbp], rsi
	mov	QWORD PTR -40[rbp], rdx
	mov	rbx, QWORD PTR -24[rbp]
	mov	rdx, QWORD PTR -40[rbp]
	mov	rax, QWORD PTR -32[rbp]
	mov	rsi, rdx
	mov	rdi, rax
.LEHB4:
	call	_ZNSt6vectorIiSaIiEE17_S_check_init_lenEmRKS0_
	mov	rcx, rax
	mov	rax, QWORD PTR -40[rbp]
	mov	rdx, rax
	mov	rsi, rcx
	mov	rdi, rbx
	call	_ZNSt12_Vector_baseIiSaIiEEC2EmRKS0_
.LEHE4:
	mov	rdx, QWORD PTR -32[rbp]
	mov	rax, QWORD PTR -24[rbp]
	mov	rsi, rdx
	mov	rdi, rax
.LEHB5:
	call	_ZNSt6vectorIiSaIiEE21_M_default_initializeEm
.LEHE5:
	jmp	.L40
.L39:
	endbr64
	mov	rbx, rax
	mov	rax, QWORD PTR -24[rbp]
	mov	rdi, rax
	call	_ZNSt12_Vector_baseIiSaIiEED2Ev
	mov	rax, rbx
	mov	rdi, rax
.LEHB6:
	call	_Unwind_Resume@PLT
.LEHE6:
.L40:
	mov	rbx, QWORD PTR -8[rbp]
	leave
	.cfi_def_cfa 7, 8
	ret
	.cfi_endproc
.LFE10410:
	.section	.gcc_except_table
.LLSDA10410:
	.byte	0xff
	.byte	0xff
	.byte	0x1
	.uleb128 .LLSDACSE10410-.LLSDACSB10410
.LLSDACSB10410:
	.uleb128 .LEHB4-.LFB10410
	.uleb128 .LEHE4-.LEHB4
	.uleb128 0
	.uleb128 0
	.uleb128 .LEHB5-.LFB10410
	.uleb128 .LEHE5-.LEHB5
	.uleb128 .L39-.LFB10410
	.uleb128 0
	.uleb128 .LEHB6-.LFB10410
	.uleb128 .LEHE6-.LEHB6
	.uleb128 0
	.uleb128 0
.LLSDACSE10410:
	.section	.text._ZNSt6vectorIiSaIiEEC2EmRKS0_,"axG",@progbits,_ZNSt6vectorIiSaIiEEC5EmRKS0_,comdat
	.size	_ZNSt6vectorIiSaIiEEC2EmRKS0_, .-_ZNSt6vectorIiSaIiEEC2EmRKS0_
	.weak	_ZNSt6vectorIiSaIiEEC1EmRKS0_
	.set	_ZNSt6vectorIiSaIiEEC1EmRKS0_,_ZNSt6vectorIiSaIiEEC2EmRKS0_
	.section	.text._ZNSt6vectorIiSaIiEED2Ev,"axG",@progbits,_ZNSt6vectorIiSaIiEED5Ev,comdat
	.align 2
	.weak	_ZNSt6vectorIiSaIiEED2Ev
	.type	_ZNSt6vectorIiSaIiEED2Ev, @function
_ZNSt6vectorIiSaIiEED2Ev:
.LFB10413:
	.cfi_startproc
	.cfi_personality 0x9b,DW.ref.__gxx_personality_v0
	.cfi_lsda 0x1b,.LLSDA10413
	endbr64
	push	rbp
	.cfi_def_cfa_offset 16
	.cfi_offset 6, -16
	mov	rbp, rsp
	.cfi_def_cfa_register 6
	sub	rsp, 16
	mov	QWORD PTR -8[rbp], rdi
	mov	rax, QWORD PTR -8[rbp]
	mov	rdi, rax
	call	_ZNSt12_Vector_baseIiSaIiEE19_M_get_Tp_allocatorEv
	mov	rdx, rax
	mov	rax, QWORD PTR -8[rbp]
	mov	rcx, QWORD PTR 8[rax]
	mov	rax, QWORD PTR -8[rbp]
	mov	rax, QWORD PTR [rax]
	mov	rsi, rcx
	mov	rdi, rax
	call	_ZSt8_DestroyIPiiEvT_S1_RSaIT0_E
	mov	rax, QWORD PTR -8[rbp]
	mov	rdi, rax
	call	_ZNSt12_Vector_baseIiSaIiEED2Ev
	nop
	leave
	.cfi_def_cfa 7, 8
	ret
	.cfi_endproc
.LFE10413:
	.section	.gcc_except_table
.LLSDA10413:
	.byte	0xff
	.byte	0xff
	.byte	0x1
	.uleb128 .LLSDACSE10413-.LLSDACSB10413
.LLSDACSB10413:
.LLSDACSE10413:
	.section	.text._ZNSt6vectorIiSaIiEED2Ev,"axG",@progbits,_ZNSt6vectorIiSaIiEED5Ev,comdat
	.size	_ZNSt6vectorIiSaIiEED2Ev, .-_ZNSt6vectorIiSaIiEED2Ev
	.weak	_ZNSt6vectorIiSaIiEED1Ev
	.set	_ZNSt6vectorIiSaIiEED1Ev,_ZNSt6vectorIiSaIiEED2Ev
	.section	.text._ZNSt12_Vector_baseIiSaIiEE12_Vector_implC2Ev,"axG",@progbits,_ZNSt12_Vector_baseIiSaIiEE12_Vector_implC5Ev,comdat
	.align 2
	.weak	_ZNSt12_Vector_baseIiSaIiEE12_Vector_implC2Ev
	.type	_ZNSt12_Vector_baseIiSaIiEE12_Vector_implC2Ev, @function
_ZNSt12_Vector_baseIiSaIiEE12_Vector_implC2Ev:
.LFB10416:
	.cfi_startproc
	endbr64
	push	rbp
	.cfi_def_cfa_offset 16
	.cfi_offset 6, -16
	mov	rbp, rsp
	.cfi_def_cfa_register 6
	sub	rsp, 16
	mov	QWORD PTR -8[rbp], rdi
	mov	rax, QWORD PTR -8[rbp]
	mov	rdi, rax
	call	_ZNSaIiEC2Ev
	mov	rax, QWORD PTR -8[rbp]
	mov	rdi, rax
	call	_ZNSt12_Vector_baseIiSaIiEE17_Vector_impl_dataC2Ev
	nop
	leave
	.cfi_def_cfa 7, 8
	ret
	.cfi_endproc
.LFE10416:
	.size	_ZNSt12_Vector_baseIiSaIiEE12_Vector_implC2Ev, .-_ZNSt12_Vector_baseIiSaIiEE12_Vector_implC2Ev
	.weak	_ZNSt12_Vector_baseIiSaIiEE12_Vector_implC1Ev
	.set	_ZNSt12_Vector_baseIiSaIiEE12_Vector_implC1Ev,_ZNSt12_Vector_baseIiSaIiEE12_Vector_implC2Ev
	.section	.text._ZNSt12_Vector_baseIiSaIiEED2Ev,"axG",@progbits,_ZNSt12_Vector_baseIiSaIiEED5Ev,comdat
	.align 2
	.weak	_ZNSt12_Vector_baseIiSaIiEED2Ev
	.type	_ZNSt12_Vector_baseIiSaIiEED2Ev, @function
_ZNSt12_Vector_baseIiSaIiEED2Ev:
.LFB10419:
	.cfi_startproc
	.cfi_personality 0x9b,DW.ref.__gxx_personality_v0
	.cfi_lsda 0x1b,.LLSDA10419
	endbr64
	push	rbp
	.cfi_def_cfa_offset 16
	.cfi_offset 6, -16
	mov	rbp, rsp
	.cfi_def_cfa_register 6
	sub	rsp, 16
	mov	QWORD PTR -8[rbp], rdi
	mov	rax, QWORD PTR -8[rbp]
	mov	rdx, QWORD PTR 16[rax]
	mov	rax, QWORD PTR -8[rbp]
	mov	rcx, QWORD PTR [rax]
	mov	rax, rdx
	sub	rax, rcx
	sar	rax, 2
	mov	rdx, rax
	mov	rax, QWORD PTR -8[rbp]
	mov	rcx, QWORD PTR [rax]
	mov	rax, QWORD PTR -8[rbp]
	mov	rsi, rcx
	mov	rdi, rax
	call	_ZNSt12_Vector_baseIiSaIiEE13_M_deallocateEPim
	mov	rax, QWORD PTR -8[rbp]
	mov	rdi, rax
	call	_ZNSt12_Vector_baseIiSaIiEE12_Vector_implD1Ev
	nop
	leave
	.cfi_def_cfa 7, 8
	ret
	.cfi_endproc
.LFE10419:
	.section	.gcc_except_table
.LLSDA10419:
	.byte	0xff
	.byte	0xff
	.byte	0x1
	.uleb128 .LLSDACSE10419-.LLSDACSB10419
.LLSDACSB10419:
.LLSDACSE10419:
	.section	.text._ZNSt12_Vector_baseIiSaIiEED2Ev,"axG",@progbits,_ZNSt12_Vector_baseIiSaIiEED5Ev,comdat
	.size	_ZNSt12_Vector_baseIiSaIiEED2Ev, .-_ZNSt12_Vector_baseIiSaIiEED2Ev
	.weak	_ZNSt12_Vector_baseIiSaIiEED1Ev
	.set	_ZNSt12_Vector_baseIiSaIiEED1Ev,_ZNSt12_Vector_baseIiSaIiEED2Ev
	.section	.text._ZNSt6vectorIiSaIiEEixEm,"axG",@progbits,_ZNSt6vectorIiSaIiEEixEm,comdat
	.align 2
	.weak	_ZNSt6vectorIiSaIiEEixEm
	.type	_ZNSt6vectorIiSaIiEEixEm, @function
_ZNSt6vectorIiSaIiEEixEm:
.LFB10421:
	.cfi_startproc
	endbr64
	push	rbp
	.cfi_def_cfa_offset 16
	.cfi_offset 6, -16
	mov	rbp, rsp
	.cfi_def_cfa_register 6
	mov	QWORD PTR -8[rbp], rdi
	mov	QWORD PTR -16[rbp], rsi
	mov	rax, QWORD PTR -8[rbp]
	mov	rdx, QWORD PTR [rax]
	mov	rax, QWORD PTR -16[rbp]
	sal	rax, 2
	add	rax, rdx
	pop	rbp
	.cfi_def_cfa 7, 8
	ret
	.cfi_endproc
.LFE10421:
	.size	_ZNSt6vectorIiSaIiEEixEm, .-_ZNSt6vectorIiSaIiEEixEm
	.section	.text._ZN9__gnu_cxx14__alloc_traitsISaIiEiE27_S_propagate_on_copy_assignEv,"axG",@progbits,_ZN9__gnu_cxx14__alloc_traitsISaIiEiE27_S_propagate_on_copy_assignEv,comdat
	.weak	_ZN9__gnu_cxx14__alloc_traitsISaIiEiE27_S_propagate_on_copy_assignEv
	.type	_ZN9__gnu_cxx14__alloc_traitsISaIiEiE27_S_propagate_on_copy_assignEv, @function
_ZN9__gnu_cxx14__alloc_traitsISaIiEiE27_S_propagate_on_copy_assignEv:
.LFB10423:
	.cfi_startproc
	endbr64
	push	rbp
	.cfi_def_cfa_offset 16
	.cfi_offset 6, -16
	mov	rbp, rsp
	.cfi_def_cfa_register 6
	mov	eax, 0
	pop	rbp
	.cfi_def_cfa 7, 8
	ret
	.cfi_endproc
.LFE10423:
	.size	_ZN9__gnu_cxx14__alloc_traitsISaIiEiE27_S_propagate_on_copy_assignEv, .-_ZN9__gnu_cxx14__alloc_traitsISaIiEiE27_S_propagate_on_copy_assignEv
	.section	.text._ZN9__gnu_cxx14__alloc_traitsISaIiEiE15_S_always_equalEv,"axG",@progbits,_ZN9__gnu_cxx14__alloc_traitsISaIiEiE15_S_always_equalEv,comdat
	.weak	_ZN9__gnu_cxx14__alloc_traitsISaIiEiE15_S_always_equalEv
	.type	_ZN9__gnu_cxx14__alloc_traitsISaIiEiE15_S_always_equalEv, @function
_ZN9__gnu_cxx14__alloc_traitsISaIiEiE15_S_always_equalEv:
.LFB10424:
	.cfi_startproc
	endbr64
	push	rbp
	.cfi_def_cfa_offset 16
	.cfi_offset 6, -16
	mov	rbp, rsp
	.cfi_def_cfa_register 6
	mov	eax, 1
	pop	rbp
	.cfi_def_cfa 7, 8
	ret
	.cfi_endproc
.LFE10424:
	.size	_ZN9__gnu_cxx14__alloc_traitsISaIiEiE15_S_always_equalEv, .-_ZN9__gnu_cxx14__alloc_traitsISaIiEiE15_S_always_equalEv
	.section	.text._ZNSt6vectorIiSaIiEEaSERKS1_,"axG",@progbits,_ZNSt6vectorIiSaIiEEaSERKS1_,comdat
	.align 2
	.weak	_ZNSt6vectorIiSaIiEEaSERKS1_
	.type	_ZNSt6vectorIiSaIiEEaSERKS1_, @function
_ZNSt6vectorIiSaIiEEaSERKS1_:
.LFB10422:
	.cfi_startproc
	endbr64
	push	rbp
	.cfi_def_cfa_offset 16
	.cfi_offset 6, -16
	mov	rbp, rsp
	.cfi_def_cfa_register 6
	push	r14
	push	r13
	push	r12
	push	rbx
	sub	rsp, 32
	.cfi_offset 14, -24
	.cfi_offset 13, -32
	.cfi_offset 12, -40
	.cfi_offset 3, -48
	mov	QWORD PTR -56[rbp], rdi
	mov	QWORD PTR -64[rbp], rsi
	mov	rax, QWORD PTR -64[rbp]
	cmp	rax, QWORD PTR -56[rbp]
	je	.L51
	call	_ZN9__gnu_cxx14__alloc_traitsISaIiEiE27_S_propagate_on_copy_assignEv
	test	al, al
	je	.L52
	call	_ZN9__gnu_cxx14__alloc_traitsISaIiEiE15_S_always_equalEv
	xor	eax, 1
	test	al, al
	je	.L53
	mov	rax, QWORD PTR -64[rbp]
	mov	rdi, rax
	call	_ZNKSt12_Vector_baseIiSaIiEE19_M_get_Tp_allocatorEv
	mov	rbx, rax
	mov	rax, QWORD PTR -56[rbp]
	mov	rdi, rax
	call	_ZNSt12_Vector_baseIiSaIiEE19_M_get_Tp_allocatorEv
	mov	rsi, rbx
	mov	rdi, rax
	call	_ZStneRKSaIiES1_
	test	al, al
	je	.L53
	mov	eax, 1
	jmp	.L54
.L53:
	mov	eax, 0
.L54:
	test	al, al
	je	.L55
	mov	rax, QWORD PTR -56[rbp]
	mov	rdi, rax
	call	_ZNSt6vectorIiSaIiEE5clearEv
	mov	rax, QWORD PTR -56[rbp]
	mov	rdx, QWORD PTR -56[rbp]
	mov	rcx, QWORD PTR 16[rdx]
	mov	rdx, QWORD PTR -56[rbp]
	mov	rsi, QWORD PTR [rdx]
	sub	rcx, rsi
	mov	rdx, rcx
	sar	rdx, 2
	mov	rsi, rdx
	mov	rdx, QWORD PTR -56[rbp]
	mov	rcx, QWORD PTR [rdx]
	mov	rdx, rsi
	mov	rsi, rcx
	mov	rdi, rax
	call	_ZNSt12_Vector_baseIiSaIiEE13_M_deallocateEPim
	mov	rax, QWORD PTR -56[rbp]
	mov	QWORD PTR [rax], 0
	mov	rax, QWORD PTR -56[rbp]
	mov	QWORD PTR 8[rax], 0
	mov	rax, QWORD PTR -56[rbp]
	mov	QWORD PTR 16[rax], 0
.L55:
	mov	rax, QWORD PTR -64[rbp]
	mov	rdi, rax
	call	_ZNKSt12_Vector_baseIiSaIiEE19_M_get_Tp_allocatorEv
	mov	rbx, rax
	mov	rax, QWORD PTR -56[rbp]
	mov	rdi, rax
	call	_ZNSt12_Vector_baseIiSaIiEE19_M_get_Tp_allocatorEv
	mov	rsi, rbx
	mov	rdi, rax
	call	_ZSt15__alloc_on_copyISaIiEEvRT_RKS1_
.L52:
	mov	rax, QWORD PTR -64[rbp]
	mov	rdi, rax
	call	_ZNKSt6vectorIiSaIiEE4sizeEv
	mov	QWORD PTR -48[rbp], rax
	mov	rax, QWORD PTR -56[rbp]
	mov	rdi, rax
	call	_ZNKSt6vectorIiSaIiEE8capacityEv
	cmp	QWORD PTR -48[rbp], rax
	seta	al
	test	al, al
	je	.L56
	mov	rax, QWORD PTR -64[rbp]
	mov	rdi, rax
	call	_ZNKSt6vectorIiSaIiEE3endEv
	mov	rbx, rax
	mov	rax, QWORD PTR -64[rbp]
	mov	rdi, rax
	call	_ZNKSt6vectorIiSaIiEE5beginEv
	mov	rdx, rax
	mov	rsi, QWORD PTR -48[rbp]
	mov	rax, QWORD PTR -56[rbp]
	mov	rcx, rbx
	mov	rdi, rax
	call	_ZNSt6vectorIiSaIiEE20_M_allocate_and_copyIN9__gnu_cxx17__normal_iteratorIPKiS1_EEEEPimT_S9_
	mov	QWORD PTR -40[rbp], rax
	mov	rax, QWORD PTR -56[rbp]
	mov	rdi, rax
	call	_ZNSt12_Vector_baseIiSaIiEE19_M_get_Tp_allocatorEv
	mov	rdx, rax
	mov	rax, QWORD PTR -56[rbp]
	mov	rcx, QWORD PTR 8[rax]
	mov	rax, QWORD PTR -56[rbp]
	mov	rax, QWORD PTR [rax]
	mov	rsi, rcx
	mov	rdi, rax
	call	_ZSt8_DestroyIPiiEvT_S1_RSaIT0_E
	mov	rax, QWORD PTR -56[rbp]
	mov	rdx, QWORD PTR -56[rbp]
	mov	rcx, QWORD PTR 16[rdx]
	mov	rdx, QWORD PTR -56[rbp]
	mov	rsi, QWORD PTR [rdx]
	sub	rcx, rsi
	mov	rdx, rcx
	sar	rdx, 2
	mov	rsi, rdx
	mov	rdx, QWORD PTR -56[rbp]
	mov	rcx, QWORD PTR [rdx]
	mov	rdx, rsi
	mov	rsi, rcx
	mov	rdi, rax
	call	_ZNSt12_Vector_baseIiSaIiEE13_M_deallocateEPim
	mov	rax, QWORD PTR -56[rbp]
	mov	rdx, QWORD PTR -40[rbp]
	mov	QWORD PTR [rax], rdx
	mov	rax, QWORD PTR -56[rbp]
	mov	rdx, QWORD PTR [rax]
	mov	rax, QWORD PTR -48[rbp]
	sal	rax, 2
	add	rdx, rax
	mov	rax, QWORD PTR -56[rbp]
	mov	QWORD PTR 16[rax], rdx
	jmp	.L57
.L56:
	mov	rax, QWORD PTR -56[rbp]
	mov	rdi, rax
	call	_ZNKSt6vectorIiSaIiEE4sizeEv
	cmp	QWORD PTR -48[rbp], rax
	setbe	al
	test	al, al
	je	.L58
	mov	rax, QWORD PTR -56[rbp]
	mov	rdi, rax
	call	_ZNSt12_Vector_baseIiSaIiEE19_M_get_Tp_allocatorEv
	mov	r12, rax
	mov	rax, QWORD PTR -56[rbp]
	mov	rdi, rax
	call	_ZNSt6vectorIiSaIiEE3endEv
	mov	rbx, rax
	mov	rax, QWORD PTR -56[rbp]
	mov	rdi, rax
	call	_ZNSt6vectorIiSaIiEE5beginEv
	mov	r14, rax
	mov	rax, QWORD PTR -64[rbp]
	mov	rdi, rax
	call	_ZNKSt6vectorIiSaIiEE3endEv
	mov	r13, rax
	mov	rax, QWORD PTR -64[rbp]
	mov	rdi, rax
	call	_ZNKSt6vectorIiSaIiEE5beginEv
	mov	rdx, r14
	mov	rsi, r13
	mov	rdi, rax
	call	_ZSt4copyIN9__gnu_cxx17__normal_iteratorIPKiSt6vectorIiSaIiEEEENS1_IPiS6_EEET0_T_SB_SA_
	mov	rdx, r12
	mov	rsi, rbx
	mov	rdi, rax
	call	_ZSt8_DestroyIN9__gnu_cxx17__normal_iteratorIPiSt6vectorIiSaIiEEEEiEvT_S7_RSaIT0_E
	jmp	.L57
.L58:
	mov	rax, QWORD PTR -56[rbp]
	mov	rbx, QWORD PTR [rax]
	mov	rax, QWORD PTR -64[rbp]
	mov	r12, QWORD PTR [rax]
	mov	rax, QWORD PTR -56[rbp]
	mov	rdi, rax
	call	_ZNKSt6vectorIiSaIiEE4sizeEv
	sal	rax, 2
	lea	rcx, [r12+rax]
	mov	rax, QWORD PTR -64[rbp]
	mov	rax, QWORD PTR [rax]
	mov	rdx, rbx
	mov	rsi, rcx
	mov	rdi, rax
	call	_ZSt4copyIPiS0_ET0_T_S2_S1_
	mov	rax, QWORD PTR -56[rbp]
	mov	rdi, rax
	call	_ZNSt12_Vector_baseIiSaIiEE19_M_get_Tp_allocatorEv
	mov	r13, rax
	mov	rax, QWORD PTR -56[rbp]
	mov	r12, QWORD PTR 8[rax]
	mov	rax, QWORD PTR -64[rbp]
	mov	rbx, QWORD PTR 8[rax]
	mov	rax, QWORD PTR -64[rbp]
	mov	r14, QWORD PTR [rax]
	mov	rax, QWORD PTR -56[rbp]
	mov	rdi, rax
	call	_ZNKSt6vectorIiSaIiEE4sizeEv
	sal	rax, 2
	add	rax, r14
	mov	rcx, r13
	mov	rdx, r12
	mov	rsi, rbx
	mov	rdi, rax
	call	_ZSt22__uninitialized_copy_aIPiS0_iET0_T_S2_S1_RSaIT1_E
.L57:
	mov	rax, QWORD PTR -56[rbp]
	mov	rdx, QWORD PTR [rax]
	mov	rax, QWORD PTR -48[rbp]
	sal	rax, 2
	add	rdx, rax
	mov	rax, QWORD PTR -56[rbp]
	mov	QWORD PTR 8[rax], rdx
.L51:
	mov	rax, QWORD PTR -56[rbp]
	add	rsp, 32
	pop	rbx
	pop	r12
	pop	r13
	pop	r14
	pop	rbp
	.cfi_def_cfa 7, 8
	ret
	.cfi_endproc
.LFE10422:
	.size	_ZNSt6vectorIiSaIiEEaSERKS1_, .-_ZNSt6vectorIiSaIiEEaSERKS1_
	.section	.text._ZNSt6vectorIiSaIiEE5beginEv,"axG",@progbits,_ZNSt6vectorIiSaIiEE5beginEv,comdat
	.align 2
	.weak	_ZNSt6vectorIiSaIiEE5beginEv
	.type	_ZNSt6vectorIiSaIiEE5beginEv, @function
_ZNSt6vectorIiSaIiEE5beginEv:
.LFB10425:
	.cfi_startproc
	endbr64
	push	rbp
	.cfi_def_cfa_offset 16
	.cfi_offset 6, -16
	mov	rbp, rsp
	.cfi_def_cfa_register 6
	sub	rsp, 32
	mov	QWORD PTR -24[rbp], rdi
	mov	rax, QWORD PTR fs:40
	mov	QWORD PTR -8[rbp], rax
	xor	eax, eax
	mov	rdx, QWORD PTR -24[rbp]
	lea	rax, -16[rbp]
	mov	rsi, rdx
	mov	rdi, rax
	call	_ZN9__gnu_cxx17__normal_iteratorIPiSt6vectorIiSaIiEEEC1ERKS1_
	mov	rax, QWORD PTR -16[rbp]
	mov	rdx, QWORD PTR -8[rbp]
	sub	rdx, QWORD PTR fs:40
	je	.L62
	call	__stack_chk_fail@PLT
.L62:
	leave
	.cfi_def_cfa 7, 8
	ret
	.cfi_endproc
.LFE10425:
	.size	_ZNSt6vectorIiSaIiEE5beginEv, .-_ZNSt6vectorIiSaIiEE5beginEv
	.section	.text._ZNSt6vectorIiSaIiEE3endEv,"axG",@progbits,_ZNSt6vectorIiSaIiEE3endEv,comdat
	.align 2
	.weak	_ZNSt6vectorIiSaIiEE3endEv
	.type	_ZNSt6vectorIiSaIiEE3endEv, @function
_ZNSt6vectorIiSaIiEE3endEv:
.LFB10426:
	.cfi_startproc
	endbr64
	push	rbp
	.cfi_def_cfa_offset 16
	.cfi_offset 6, -16
	mov	rbp, rsp
	.cfi_def_cfa_register 6
	sub	rsp, 32
	mov	QWORD PTR -24[rbp], rdi
	mov	rax, QWORD PTR fs:40
	mov	QWORD PTR -8[rbp], rax
	xor	eax, eax
	mov	rax, QWORD PTR -24[rbp]
	lea	rdx, 8[rax]
	lea	rax, -16[rbp]
	mov	rsi, rdx
	mov	rdi, rax
	call	_ZN9__gnu_cxx17__normal_iteratorIPiSt6vectorIiSaIiEEEC1ERKS1_
	mov	rax, QWORD PTR -16[rbp]
	mov	rdx, QWORD PTR -8[rbp]
	sub	rdx, QWORD PTR fs:40
	je	.L65
	call	__stack_chk_fail@PLT
.L65:
	leave
	.cfi_def_cfa 7, 8
	ret
	.cfi_endproc
.LFE10426:
	.size	_ZNSt6vectorIiSaIiEE3endEv, .-_ZNSt6vectorIiSaIiEE3endEv
	.section	.text._ZSt4sortIN9__gnu_cxx17__normal_iteratorIPiSt6vectorIiSaIiEEEEEvT_S7_,"axG",@progbits,_ZSt4sortIN9__gnu_cxx17__normal_iteratorIPiSt6vectorIiSaIiEEEEEvT_S7_,comdat
	.weak	_ZSt4sortIN9__gnu_cxx17__normal_iteratorIPiSt6vectorIiSaIiEEEEEvT_S7_
	.type	_ZSt4sortIN9__gnu_cxx17__normal_iteratorIPiSt6vectorIiSaIiEEEEEvT_S7_, @function
_ZSt4sortIN9__gnu_cxx17__normal_iteratorIPiSt6vectorIiSaIiEEEEEvT_S7_:
.LFB10427:
	.cfi_startproc
	endbr64
	push	rbp
	.cfi_def_cfa_offset 16
	.cfi_offset 6, -16
	mov	rbp, rsp
	.cfi_def_cfa_register 6
	sub	rsp, 16
	mov	QWORD PTR -8[rbp], rdi
	mov	QWORD PTR -16[rbp], rsi
	call	_ZN9__gnu_cxx5__ops16__iter_less_iterEv
	mov	rdx, QWORD PTR -16[rbp]
	mov	rax, QWORD PTR -8[rbp]
	mov	rsi, rdx
	mov	rdi, rax
	call	_ZSt6__sortIN9__gnu_cxx17__normal_iteratorIPiSt6vectorIiSaIiEEEENS0_5__ops15_Iter_less_iterEEvT_S9_T0_
	nop
	leave
	.cfi_def_cfa 7, 8
	ret
	.cfi_endproc
.LFE10427:
	.size	_ZSt4sortIN9__gnu_cxx17__normal_iteratorIPiSt6vectorIiSaIiEEEEEvT_S7_, .-_ZSt4sortIN9__gnu_cxx17__normal_iteratorIPiSt6vectorIiSaIiEEEEEvT_S7_
	.section	.text._ZSt11lower_boundIN9__gnu_cxx17__normal_iteratorIPiSt6vectorIiSaIiEEEEiET_S7_S7_RKT0_,"axG",@progbits,_ZSt11lower_boundIN9__gnu_cxx17__normal_iteratorIPiSt6vectorIiSaIiEEEEiET_S7_S7_RKT0_,comdat
	.weak	_ZSt11lower_boundIN9__gnu_cxx17__normal_iteratorIPiSt6vectorIiSaIiEEEEiET_S7_S7_RKT0_
	.type	_ZSt11lower_boundIN9__gnu_cxx17__normal_iteratorIPiSt6vectorIiSaIiEEEEiET_S7_S7_RKT0_, @function
_ZSt11lower_boundIN9__gnu_cxx17__normal_iteratorIPiSt6vectorIiSaIiEEEEiET_S7_S7_RKT0_:
.LFB10428:
	.cfi_startproc
	endbr64
	push	rbp
	.cfi_def_cfa_offset 16
	.cfi_offset 6, -16
	mov	rbp, rsp
	.cfi_def_cfa_register 6
	sub	rsp, 32
	mov	QWORD PTR -8[rbp], rdi
	mov	QWORD PTR -16[rbp], rsi
	mov	QWORD PTR -24[rbp], rdx
	call	_ZN9__gnu_cxx5__ops15__iter_less_valEv
	mov	rdx, QWORD PTR -24[rbp]
	mov	rcx, QWORD PTR -16[rbp]
	mov	rax, QWORD PTR -8[rbp]
	mov	rsi, rcx
	mov	rdi, rax
	call	_ZSt13__lower_boundIN9__gnu_cxx17__normal_iteratorIPiSt6vectorIiSaIiEEEEiNS0_5__ops14_Iter_less_valEET_S9_S9_RKT0_T1_
	leave
	.cfi_def_cfa 7, 8
	ret
	.cfi_endproc
.LFE10428:
	.size	_ZSt11lower_boundIN9__gnu_cxx17__normal_iteratorIPiSt6vectorIiSaIiEEEEiET_S7_S7_RKT0_, .-_ZSt11lower_boundIN9__gnu_cxx17__normal_iteratorIPiSt6vectorIiSaIiEEEEiET_S7_S7_RKT0_
	.section	.text._ZN9__gnu_cxxmiIPiSt6vectorIiSaIiEEEENS_17__normal_iteratorIT_T0_E15difference_typeERKS8_SB_,"axG",@progbits,_ZN9__gnu_cxxmiIPiSt6vectorIiSaIiEEEENS_17__normal_iteratorIT_T0_E15difference_typeERKS8_SB_,comdat
	.weak	_ZN9__gnu_cxxmiIPiSt6vectorIiSaIiEEEENS_17__normal_iteratorIT_T0_E15difference_typeERKS8_SB_
	.type	_ZN9__gnu_cxxmiIPiSt6vectorIiSaIiEEEENS_17__normal_iteratorIT_T0_E15difference_typeERKS8_SB_, @function
_ZN9__gnu_cxxmiIPiSt6vectorIiSaIiEEEENS_17__normal_iteratorIT_T0_E15difference_typeERKS8_SB_:
.LFB10429:
	.cfi_startproc
	endbr64
	push	rbp
	.cfi_def_cfa_offset 16
	.cfi_offset 6, -16
	mov	rbp, rsp
	.cfi_def_cfa_register 6
	push	rbx
	sub	rsp, 24
	.cfi_offset 3, -24
	mov	QWORD PTR -24[rbp], rdi
	mov	QWORD PTR -32[rbp], rsi
	mov	rax, QWORD PTR -24[rbp]
	mov	rdi, rax
	call	_ZNK9__gnu_cxx17__normal_iteratorIPiSt6vectorIiSaIiEEE4baseEv
	mov	rbx, QWORD PTR [rax]
	mov	rax, QWORD PTR -32[rbp]
	mov	rdi, rax
	call	_ZNK9__gnu_cxx17__normal_iteratorIPiSt6vectorIiSaIiEEE4baseEv
	mov	rdx, QWORD PTR [rax]
	mov	rax, rbx
	sub	rax, rdx
	sar	rax, 2
	mov	rbx, QWORD PTR -8[rbp]
	leave
	.cfi_def_cfa 7, 8
	ret
	.cfi_endproc
.LFE10429:
	.size	_ZN9__gnu_cxxmiIPiSt6vectorIiSaIiEEEENS_17__normal_iteratorIT_T0_E15difference_typeERKS8_SB_, .-_ZN9__gnu_cxxmiIPiSt6vectorIiSaIiEEEENS_17__normal_iteratorIT_T0_E15difference_typeERKS8_SB_
	.section	.text._ZSt11upper_boundIN9__gnu_cxx17__normal_iteratorIPiSt6vectorIiSaIiEEEEiET_S7_S7_RKT0_,"axG",@progbits,_ZSt11upper_boundIN9__gnu_cxx17__normal_iteratorIPiSt6vectorIiSaIiEEEEiET_S7_S7_RKT0_,comdat
	.weak	_ZSt11upper_boundIN9__gnu_cxx17__normal_iteratorIPiSt6vectorIiSaIiEEEEiET_S7_S7_RKT0_
	.type	_ZSt11upper_boundIN9__gnu_cxx17__normal_iteratorIPiSt6vectorIiSaIiEEEEiET_S7_S7_RKT0_, @function
_ZSt11upper_boundIN9__gnu_cxx17__normal_iteratorIPiSt6vectorIiSaIiEEEEiET_S7_S7_RKT0_:
.LFB10431:
	.cfi_startproc
	endbr64
	push	rbp
	.cfi_def_cfa_offset 16
	.cfi_offset 6, -16
	mov	rbp, rsp
	.cfi_def_cfa_register 6
	sub	rsp, 32
	mov	QWORD PTR -8[rbp], rdi
	mov	QWORD PTR -16[rbp], rsi
	mov	QWORD PTR -24[rbp], rdx
	call	_ZN9__gnu_cxx5__ops15__val_less_iterEv
	mov	rdx, QWORD PTR -24[rbp]
	mov	rcx, QWORD PTR -16[rbp]
	mov	rax, QWORD PTR -8[rbp]
	mov	rsi, rcx
	mov	rdi, rax
	call	_ZSt13__upper_boundIN9__gnu_cxx17__normal_iteratorIPiSt6vectorIiSaIiEEEEiNS0_5__ops14_Val_less_iterEET_S9_S9_RKT0_T1_
	leave
	.cfi_def_cfa 7, 8
	ret
	.cfi_endproc
.LFE10431:
	.size	_ZSt11upper_boundIN9__gnu_cxx17__normal_iteratorIPiSt6vectorIiSaIiEEEEiET_S7_S7_RKT0_, .-_ZSt11upper_boundIN9__gnu_cxx17__normal_iteratorIPiSt6vectorIiSaIiEEEEiET_S7_S7_RKT0_
	.section	.text._ZN9__gnu_cxx13new_allocatorIiEC2Ev,"axG",@progbits,_ZN9__gnu_cxx13new_allocatorIiEC5Ev,comdat
	.align 2
	.weak	_ZN9__gnu_cxx13new_allocatorIiEC2Ev
	.type	_ZN9__gnu_cxx13new_allocatorIiEC2Ev, @function
_ZN9__gnu_cxx13new_allocatorIiEC2Ev:
.LFB10825:
	.cfi_startproc
	endbr64
	push	rbp
	.cfi_def_cfa_offset 16
	.cfi_offset 6, -16
	mov	rbp, rsp
	.cfi_def_cfa_register 6
	mov	QWORD PTR -8[rbp], rdi
	nop
	pop	rbp
	.cfi_def_cfa 7, 8
	ret
	.cfi_endproc
.LFE10825:
	.size	_ZN9__gnu_cxx13new_allocatorIiEC2Ev, .-_ZN9__gnu_cxx13new_allocatorIiEC2Ev
	.weak	_ZN9__gnu_cxx13new_allocatorIiEC1Ev
	.set	_ZN9__gnu_cxx13new_allocatorIiEC1Ev,_ZN9__gnu_cxx13new_allocatorIiEC2Ev
	.section	.text._ZN9__gnu_cxx13new_allocatorIiED2Ev,"axG",@progbits,_ZN9__gnu_cxx13new_allocatorIiED5Ev,comdat
	.align 2
	.weak	_ZN9__gnu_cxx13new_allocatorIiED2Ev
	.type	_ZN9__gnu_cxx13new_allocatorIiED2Ev, @function
_ZN9__gnu_cxx13new_allocatorIiED2Ev:
.LFB10828:
	.cfi_startproc
	endbr64
	push	rbp
	.cfi_def_cfa_offset 16
	.cfi_offset 6, -16
	mov	rbp, rsp
	.cfi_def_cfa_register 6
	mov	QWORD PTR -8[rbp], rdi
	nop
	pop	rbp
	.cfi_def_cfa 7, 8
	ret
	.cfi_endproc
.LFE10828:
	.size	_ZN9__gnu_cxx13new_allocatorIiED2Ev, .-_ZN9__gnu_cxx13new_allocatorIiED2Ev
	.weak	_ZN9__gnu_cxx13new_allocatorIiED1Ev
	.set	_ZN9__gnu_cxx13new_allocatorIiED1Ev,_ZN9__gnu_cxx13new_allocatorIiED2Ev
	.section	.rodata
	.align 8
.LC5:
	.string	"cannot create std::vector larger than max_size()"
	.section	.text._ZNSt6vectorIiSaIiEE17_S_check_init_lenEmRKS0_,"axG",@progbits,_ZNSt6vectorIiSaIiEE17_S_check_init_lenEmRKS0_,comdat
	.weak	_ZNSt6vectorIiSaIiEE17_S_check_init_lenEmRKS0_
	.type	_ZNSt6vectorIiSaIiEE17_S_check_init_lenEmRKS0_, @function
_ZNSt6vectorIiSaIiEE17_S_check_init_lenEmRKS0_:
.LFB10830:
	.cfi_startproc
	endbr64
	push	rbp
	.cfi_def_cfa_offset 16
	.cfi_offset 6, -16
	mov	rbp, rsp
	.cfi_def_cfa_register 6
	push	rbx
	sub	rsp, 40
	.cfi_offset 3, -24
	mov	QWORD PTR -40[rbp], rdi
	mov	QWORD PTR -48[rbp], rsi
	mov	rax, QWORD PTR fs:40
	mov	QWORD PTR -24[rbp], rax
	xor	eax, eax
	mov	rdx, QWORD PTR -48[rbp]
	lea	rax, -25[rbp]
	mov	rsi, rdx
	mov	rdi, rax
	call	_ZNSaIiEC1ERKS_
	lea	rax, -25[rbp]
	mov	rdi, rax
	call	_ZNSt6vectorIiSaIiEE11_S_max_sizeERKS0_
	cmp	QWORD PTR -40[rbp], rax
	seta	bl
	lea	rax, -25[rbp]
	mov	rdi, rax
	call	_ZNSaIiED1Ev
	test	bl, bl
	je	.L76
	lea	rax, .LC5[rip]
	mov	rdi, rax
	call	_ZSt20__throw_length_errorPKc@PLT
.L76:
	mov	rax, QWORD PTR -40[rbp]
	mov	rdx, QWORD PTR -24[rbp]
	sub	rdx, QWORD PTR fs:40
	je	.L78
	call	__stack_chk_fail@PLT
.L78:
	mov	rbx, QWORD PTR -8[rbp]
	leave
	.cfi_def_cfa 7, 8
	ret
	.cfi_endproc
.LFE10830:
	.size	_ZNSt6vectorIiSaIiEE17_S_check_init_lenEmRKS0_, .-_ZNSt6vectorIiSaIiEE17_S_check_init_lenEmRKS0_
	.section	.text._ZNSt12_Vector_baseIiSaIiEEC2EmRKS0_,"axG",@progbits,_ZNSt12_Vector_baseIiSaIiEEC5EmRKS0_,comdat
	.align 2
	.weak	_ZNSt12_Vector_baseIiSaIiEEC2EmRKS0_
	.type	_ZNSt12_Vector_baseIiSaIiEEC2EmRKS0_, @function
_ZNSt12_Vector_baseIiSaIiEEC2EmRKS0_:
.LFB10832:
	.cfi_startproc
	.cfi_personality 0x9b,DW.ref.__gxx_personality_v0
	.cfi_lsda 0x1b,.LLSDA10832
	endbr64
	push	rbp
	.cfi_def_cfa_offset 16
	.cfi_offset 6, -16
	mov	rbp, rsp
	.cfi_def_cfa_register 6
	push	rbx
	sub	rsp, 40
	.cfi_offset 3, -24
	mov	QWORD PTR -24[rbp], rdi
	mov	QWORD PTR -32[rbp], rsi
	mov	QWORD PTR -40[rbp], rdx
	mov	rax, QWORD PTR -24[rbp]
	mov	rdx, QWORD PTR -40[rbp]
	mov	rsi, rdx
	mov	rdi, rax
	call	_ZNSt12_Vector_baseIiSaIiEE12_Vector_implC1ERKS0_
	mov	rdx, QWORD PTR -32[rbp]
	mov	rax, QWORD PTR -24[rbp]
	mov	rsi, rdx
	mov	rdi, rax
.LEHB7:
	call	_ZNSt12_Vector_baseIiSaIiEE17_M_create_storageEm
.LEHE7:
	jmp	.L82
.L81:
	endbr64
	mov	rbx, rax
	mov	rax, QWORD PTR -24[rbp]
	mov	rdi, rax
	call	_ZNSt12_Vector_baseIiSaIiEE12_Vector_implD1Ev
	mov	rax, rbx
	mov	rdi, rax
.LEHB8:
	call	_Unwind_Resume@PLT
.LEHE8:
.L82:
	mov	rbx, QWORD PTR -8[rbp]
	leave
	.cfi_def_cfa 7, 8
	ret
	.cfi_endproc
.LFE10832:
	.section	.gcc_except_table
.LLSDA10832:
	.byte	0xff
	.byte	0xff
	.byte	0x1
	.uleb128 .LLSDACSE10832-.LLSDACSB10832
.LLSDACSB10832:
	.uleb128 .LEHB7-.LFB10832
	.uleb128 .LEHE7-.LEHB7
	.uleb128 .L81-.LFB10832
	.uleb128 0
	.uleb128 .LEHB8-.LFB10832
	.uleb128 .LEHE8-.LEHB8
	.uleb128 0
	.uleb128 0
.LLSDACSE10832:
	.section	.text._ZNSt12_Vector_baseIiSaIiEEC2EmRKS0_,"axG",@progbits,_ZNSt12_Vector_baseIiSaIiEEC5EmRKS0_,comdat
	.size	_ZNSt12_Vector_baseIiSaIiEEC2EmRKS0_, .-_ZNSt12_Vector_baseIiSaIiEEC2EmRKS0_
	.weak	_ZNSt12_Vector_baseIiSaIiEEC1EmRKS0_
	.set	_ZNSt12_Vector_baseIiSaIiEEC1EmRKS0_,_ZNSt12_Vector_baseIiSaIiEEC2EmRKS0_
	.section	.text._ZNSt6vectorIiSaIiEE21_M_default_initializeEm,"axG",@progbits,_ZNSt6vectorIiSaIiEE21_M_default_initializeEm,comdat
	.align 2
	.weak	_ZNSt6vectorIiSaIiEE21_M_default_initializeEm
	.type	_ZNSt6vectorIiSaIiEE21_M_default_initializeEm, @function
_ZNSt6vectorIiSaIiEE21_M_default_initializeEm:
.LFB10834:
	.cfi_startproc
	endbr64
	push	rbp
	.cfi_def_cfa_offset 16
	.cfi_offset 6, -16
	mov	rbp, rsp
	.cfi_def_cfa_register 6
	sub	rsp, 16
	mov	QWORD PTR -8[rbp], rdi
	mov	QWORD PTR -16[rbp], rsi
	mov	rax, QWORD PTR -8[rbp]
	mov	rdi, rax
	call	_ZNSt12_Vector_baseIiSaIiEE19_M_get_Tp_allocatorEv
	mov	rdx, rax
	mov	rax, QWORD PTR -8[rbp]
	mov	rax, QWORD PTR [rax]
	mov	rcx, QWORD PTR -16[rbp]
	mov	rsi, rcx
	mov	rdi, rax
	call	_ZSt27__uninitialized_default_n_aIPimiET_S1_T0_RSaIT1_E
	mov	rdx, QWORD PTR -8[rbp]
	mov	QWORD PTR 8[rdx], rax
	nop
	leave
	.cfi_def_cfa 7, 8
	ret
	.cfi_endproc
.LFE10834:
	.size	_ZNSt6vectorIiSaIiEE21_M_default_initializeEm, .-_ZNSt6vectorIiSaIiEE21_M_default_initializeEm
	.section	.text._ZNSt12_Vector_baseIiSaIiEE19_M_get_Tp_allocatorEv,"axG",@progbits,_ZNSt12_Vector_baseIiSaIiEE19_M_get_Tp_allocatorEv,comdat
	.align 2
	.weak	_ZNSt12_Vector_baseIiSaIiEE19_M_get_Tp_allocatorEv
	.type	_ZNSt12_Vector_baseIiSaIiEE19_M_get_Tp_allocatorEv, @function
_ZNSt12_Vector_baseIiSaIiEE19_M_get_Tp_allocatorEv:
.LFB10835:
	.cfi_startproc
	endbr64
	push	rbp
	.cfi_def_cfa_offset 16
	.cfi_offset 6, -16
	mov	rbp, rsp
	.cfi_def_cfa_register 6
	mov	QWORD PTR -8[rbp], rdi
	mov	rax, QWORD PTR -8[rbp]
	pop	rbp
	.cfi_def_cfa 7, 8
	ret
	.cfi_endproc
.LFE10835:
	.size	_ZNSt12_Vector_baseIiSaIiEE19_M_get_Tp_allocatorEv, .-_ZNSt12_Vector_baseIiSaIiEE19_M_get_Tp_allocatorEv
	.section	.text._ZSt8_DestroyIPiiEvT_S1_RSaIT0_E,"axG",@progbits,_ZSt8_DestroyIPiiEvT_S1_RSaIT0_E,comdat
	.weak	_ZSt8_DestroyIPiiEvT_S1_RSaIT0_E
	.type	_ZSt8_DestroyIPiiEvT_S1_RSaIT0_E, @function
_ZSt8_DestroyIPiiEvT_S1_RSaIT0_E:
.LFB10836:
	.cfi_startproc
	endbr64
	push	rbp
	.cfi_def_cfa_offset 16
	.cfi_offset 6, -16
	mov	rbp, rsp
	.cfi_def_cfa_register 6
	sub	rsp, 32
	mov	QWORD PTR -8[rbp], rdi
	mov	QWORD PTR -16[rbp], rsi
	mov	QWORD PTR -24[rbp], rdx
	mov	rdx, QWORD PTR -16[rbp]
	mov	rax, QWORD PTR -8[rbp]
	mov	rsi, rdx
	mov	rdi, rax
	call	_ZSt8_DestroyIPiEvT_S1_
	nop
	leave
	.cfi_def_cfa 7, 8
	ret
	.cfi_endproc
.LFE10836:
	.size	_ZSt8_DestroyIPiiEvT_S1_RSaIT0_E, .-_ZSt8_DestroyIPiiEvT_S1_RSaIT0_E
	.section	.text._ZNSt12_Vector_baseIiSaIiEE17_Vector_impl_dataC2Ev,"axG",@progbits,_ZNSt12_Vector_baseIiSaIiEE17_Vector_impl_dataC5Ev,comdat
	.align 2
	.weak	_ZNSt12_Vector_baseIiSaIiEE17_Vector_impl_dataC2Ev
	.type	_ZNSt12_Vector_baseIiSaIiEE17_Vector_impl_dataC2Ev, @function
_ZNSt12_Vector_baseIiSaIiEE17_Vector_impl_dataC2Ev:
.LFB10838:
	.cfi_startproc
	endbr64
	push	rbp
	.cfi_def_cfa_offset 16
	.cfi_offset 6, -16
	mov	rbp, rsp
	.cfi_def_cfa_register 6
	mov	QWORD PTR -8[rbp], rdi
	mov	rax, QWORD PTR -8[rbp]
	mov	QWORD PTR [rax], 0
	mov	rax, QWORD PTR -8[rbp]
	mov	QWORD PTR 8[rax], 0
	mov	rax, QWORD PTR -8[rbp]
	mov	QWORD PTR 16[rax], 0
	nop
	pop	rbp
	.cfi_def_cfa 7, 8
	ret
	.cfi_endproc
.LFE10838:
	.size	_ZNSt12_Vector_baseIiSaIiEE17_Vector_impl_dataC2Ev, .-_ZNSt12_Vector_baseIiSaIiEE17_Vector_impl_dataC2Ev
	.weak	_ZNSt12_Vector_baseIiSaIiEE17_Vector_impl_dataC1Ev
	.set	_ZNSt12_Vector_baseIiSaIiEE17_Vector_impl_dataC1Ev,_ZNSt12_Vector_baseIiSaIiEE17_Vector_impl_dataC2Ev
	.section	.text._ZNSt12_Vector_baseIiSaIiEE13_M_deallocateEPim,"axG",@progbits,_ZNSt12_Vector_baseIiSaIiEE13_M_deallocateEPim,comdat
	.align 2
	.weak	_ZNSt12_Vector_baseIiSaIiEE13_M_deallocateEPim
	.type	_ZNSt12_Vector_baseIiSaIiEE13_M_deallocateEPim, @function
_ZNSt12_Vector_baseIiSaIiEE13_M_deallocateEPim:
.LFB10840:
	.cfi_startproc
	endbr64
	push	rbp
	.cfi_def_cfa_offset 16
	.cfi_offset 6, -16
	mov	rbp, rsp
	.cfi_def_cfa_register 6
	sub	rsp, 32
	mov	QWORD PTR -8[rbp], rdi
	mov	QWORD PTR -16[rbp], rsi
	mov	QWORD PTR -24[rbp], rdx
	cmp	QWORD PTR -16[rbp], 0
	je	.L90
	mov	rax, QWORD PTR -8[rbp]
	mov	rdx, QWORD PTR -24[rbp]
	mov	rcx, QWORD PTR -16[rbp]
	mov	rsi, rcx
	mov	rdi, rax
	call	_ZNSt16allocator_traitsISaIiEE10deallocateERS0_Pim
.L90:
	nop
	leave
	.cfi_def_cfa 7, 8
	ret
	.cfi_endproc
.LFE10840:
	.size	_ZNSt12_Vector_baseIiSaIiEE13_M_deallocateEPim, .-_ZNSt12_Vector_baseIiSaIiEE13_M_deallocateEPim
	.section	.text._ZNKSt12_Vector_baseIiSaIiEE19_M_get_Tp_allocatorEv,"axG",@progbits,_ZNKSt12_Vector_baseIiSaIiEE19_M_get_Tp_allocatorEv,comdat
	.align 2
	.weak	_ZNKSt12_Vector_baseIiSaIiEE19_M_get_Tp_allocatorEv
	.type	_ZNKSt12_Vector_baseIiSaIiEE19_M_get_Tp_allocatorEv, @function
_ZNKSt12_Vector_baseIiSaIiEE19_M_get_Tp_allocatorEv:
.LFB10841:
	.cfi_startproc
	endbr64
	push	rbp
	.cfi_def_cfa_offset 16
	.cfi_offset 6, -16
	mov	rbp, rsp
	.cfi_def_cfa_register 6
	mov	QWORD PTR -8[rbp], rdi
	mov	rax, QWORD PTR -8[rbp]
	pop	rbp
	.cfi_def_cfa 7, 8
	ret
	.cfi_endproc
.LFE10841:
	.size	_ZNKSt12_Vector_baseIiSaIiEE19_M_get_Tp_allocatorEv, .-_ZNKSt12_Vector_baseIiSaIiEE19_M_get_Tp_allocatorEv
	.section	.text._ZStneRKSaIiES1_,"axG",@progbits,_ZStneRKSaIiES1_,comdat
	.weak	_ZStneRKSaIiES1_
	.type	_ZStneRKSaIiES1_, @function
_ZStneRKSaIiES1_:
.LFB10842:
	.cfi_startproc
	endbr64
	push	rbp
	.cfi_def_cfa_offset 16
	.cfi_offset 6, -16
	mov	rbp, rsp
	.cfi_def_cfa_register 6
	mov	QWORD PTR -8[rbp], rdi
	mov	QWORD PTR -16[rbp], rsi
	mov	eax, 0
	pop	rbp
	.cfi_def_cfa 7, 8
	ret
	.cfi_endproc
.LFE10842:
	.size	_ZStneRKSaIiES1_, .-_ZStneRKSaIiES1_
	.section	.text._ZNSt6vectorIiSaIiEE5clearEv,"axG",@progbits,_ZNSt6vectorIiSaIiEE5clearEv,comdat
	.align 2
	.weak	_ZNSt6vectorIiSaIiEE5clearEv
	.type	_ZNSt6vectorIiSaIiEE5clearEv, @function
_ZNSt6vectorIiSaIiEE5clearEv:
.LFB10843:
	.cfi_startproc
	endbr64
	push	rbp
	.cfi_def_cfa_offset 16
	.cfi_offset 6, -16
	mov	rbp, rsp
	.cfi_def_cfa_register 6
	sub	rsp, 16
	mov	QWORD PTR -8[rbp], rdi
	mov	rax, QWORD PTR -8[rbp]
	mov	rdx, QWORD PTR [rax]
	mov	rax, QWORD PTR -8[rbp]
	mov	rsi, rdx
	mov	rdi, rax
	call	_ZNSt6vectorIiSaIiEE15_M_erase_at_endEPi
	nop
	leave
	.cfi_def_cfa 7, 8
	ret
	.cfi_endproc
.LFE10843:
	.size	_ZNSt6vectorIiSaIiEE5clearEv, .-_ZNSt6vectorIiSaIiEE5clearEv
	.section	.text._ZSt15__alloc_on_copyISaIiEEvRT_RKS1_,"axG",@progbits,_ZSt15__alloc_on_copyISaIiEEvRT_RKS1_,comdat
	.weak	_ZSt15__alloc_on_copyISaIiEEvRT_RKS1_
	.type	_ZSt15__alloc_on_copyISaIiEEvRT_RKS1_, @function
_ZSt15__alloc_on_copyISaIiEEvRT_RKS1_:
.LFB10844:
	.cfi_startproc
	endbr64
	push	rbp
	.cfi_def_cfa_offset 16
	.cfi_offset 6, -16
	mov	rbp, rsp
	.cfi_def_cfa_register 6
	mov	QWORD PTR -8[rbp], rdi
	mov	QWORD PTR -16[rbp], rsi
	nop
	pop	rbp
	.cfi_def_cfa 7, 8
	ret
	.cfi_endproc
.LFE10844:
	.size	_ZSt15__alloc_on_copyISaIiEEvRT_RKS1_, .-_ZSt15__alloc_on_copyISaIiEEvRT_RKS1_
	.section	.text._ZNKSt6vectorIiSaIiEE4sizeEv,"axG",@progbits,_ZNKSt6vectorIiSaIiEE4sizeEv,comdat
	.align 2
	.weak	_ZNKSt6vectorIiSaIiEE4sizeEv
	.type	_ZNKSt6vectorIiSaIiEE4sizeEv, @function
_ZNKSt6vectorIiSaIiEE4sizeEv:
.LFB10845:
	.cfi_startproc
	endbr64
	push	rbp
	.cfi_def_cfa_offset 16
	.cfi_offset 6, -16
	mov	rbp, rsp
	.cfi_def_cfa_register 6
	mov	QWORD PTR -8[rbp], rdi
	mov	rax, QWORD PTR -8[rbp]
	mov	rdx, QWORD PTR 8[rax]
	mov	rax, QWORD PTR -8[rbp]
	mov	rcx, QWORD PTR [rax]
	mov	rax, rdx
	sub	rax, rcx
	sar	rax, 2
	pop	rbp
	.cfi_def_cfa 7, 8
	ret
	.cfi_endproc
.LFE10845:
	.size	_ZNKSt6vectorIiSaIiEE4sizeEv, .-_ZNKSt6vectorIiSaIiEE4sizeEv
	.section	.text._ZNKSt6vectorIiSaIiEE8capacityEv,"axG",@progbits,_ZNKSt6vectorIiSaIiEE8capacityEv,comdat
	.align 2
	.weak	_ZNKSt6vectorIiSaIiEE8capacityEv
	.type	_ZNKSt6vectorIiSaIiEE8capacityEv, @function
_ZNKSt6vectorIiSaIiEE8capacityEv:
.LFB10846:
	.cfi_startproc
	endbr64
	push	rbp
	.cfi_def_cfa_offset 16
	.cfi_offset 6, -16
	mov	rbp, rsp
	.cfi_def_cfa_register 6
	mov	QWORD PTR -8[rbp], rdi
	mov	rax, QWORD PTR -8[rbp]
	mov	rdx, QWORD PTR 16[rax]
	mov	rax, QWORD PTR -8[rbp]
	mov	rcx, QWORD PTR [rax]
	mov	rax, rdx
	sub	rax, rcx
	sar	rax, 2
	pop	rbp
	.cfi_def_cfa 7, 8
	ret
	.cfi_endproc
.LFE10846:
	.size	_ZNKSt6vectorIiSaIiEE8capacityEv, .-_ZNKSt6vectorIiSaIiEE8capacityEv
	.section	.text._ZNKSt6vectorIiSaIiEE5beginEv,"axG",@progbits,_ZNKSt6vectorIiSaIiEE5beginEv,comdat
	.align 2
	.weak	_ZNKSt6vectorIiSaIiEE5beginEv
	.type	_ZNKSt6vectorIiSaIiEE5beginEv, @function
_ZNKSt6vectorIiSaIiEE5beginEv:
.LFB10847:
	.cfi_startproc
	endbr64
	push	rbp
	.cfi_def_cfa_offset 16
	.cfi_offset 6, -16
	mov	rbp, rsp
	.cfi_def_cfa_register 6
	sub	rsp, 32
	mov	QWORD PTR -24[rbp], rdi
	mov	rax, QWORD PTR fs:40
	mov	QWORD PTR -8[rbp], rax
	xor	eax, eax
	mov	rdx, QWORD PTR -24[rbp]
	lea	rax, -16[rbp]
	mov	rsi, rdx
	mov	rdi, rax
	call	_ZN9__gnu_cxx17__normal_iteratorIPKiSt6vectorIiSaIiEEEC1ERKS2_
	mov	rax, QWORD PTR -16[rbp]
	mov	rdx, QWORD PTR -8[rbp]
	sub	rdx, QWORD PTR fs:40
	je	.L103
	call	__stack_chk_fail@PLT
.L103:
	leave
	.cfi_def_cfa 7, 8
	ret
	.cfi_endproc
.LFE10847:
	.size	_ZNKSt6vectorIiSaIiEE5beginEv, .-_ZNKSt6vectorIiSaIiEE5beginEv
	.section	.text._ZNKSt6vectorIiSaIiEE3endEv,"axG",@progbits,_ZNKSt6vectorIiSaIiEE3endEv,comdat
	.align 2
	.weak	_ZNKSt6vectorIiSaIiEE3endEv
	.type	_ZNKSt6vectorIiSaIiEE3endEv, @function
_ZNKSt6vectorIiSaIiEE3endEv:
.LFB10848:
	.cfi_startproc
	endbr64
	push	rbp
	.cfi_def_cfa_offset 16
	.cfi_offset 6, -16
	mov	rbp, rsp
	.cfi_def_cfa_register 6
	sub	rsp, 32
	mov	QWORD PTR -24[rbp], rdi
	mov	rax, QWORD PTR fs:40
	mov	QWORD PTR -8[rbp], rax
	xor	eax, eax
	mov	rax, QWORD PTR -24[rbp]
	lea	rdx, 8[rax]
	lea	rax, -16[rbp]
	mov	rsi, rdx
	mov	rdi, rax
	call	_ZN9__gnu_cxx17__normal_iteratorIPKiSt6vectorIiSaIiEEEC1ERKS2_
	mov	rax, QWORD PTR -16[rbp]
	mov	rdx, QWORD PTR -8[rbp]
	sub	rdx, QWORD PTR fs:40
	je	.L106
	call	__stack_chk_fail@PLT
.L106:
	leave
	.cfi_def_cfa 7, 8
	ret
	.cfi_endproc
.LFE10848:
	.size	_ZNKSt6vectorIiSaIiEE3endEv, .-_ZNKSt6vectorIiSaIiEE3endEv
	.section	.text._ZNSt6vectorIiSaIiEE20_M_allocate_and_copyIN9__gnu_cxx17__normal_iteratorIPKiS1_EEEEPimT_S9_,"axG",@progbits,_ZNSt6vectorIiSaIiEE20_M_allocate_and_copyIN9__gnu_cxx17__normal_iteratorIPKiS1_EEEEPimT_S9_,comdat
	.align 2
	.weak	_ZNSt6vectorIiSaIiEE20_M_allocate_and_copyIN9__gnu_cxx17__normal_iteratorIPKiS1_EEEEPimT_S9_
	.type	_ZNSt6vectorIiSaIiEE20_M_allocate_and_copyIN9__gnu_cxx17__normal_iteratorIPKiS1_EEEEPimT_S9_, @function
_ZNSt6vectorIiSaIiEE20_M_allocate_and_copyIN9__gnu_cxx17__normal_iteratorIPKiS1_EEEEPimT_S9_:
.LFB10849:
	.cfi_startproc
	.cfi_personality 0x9b,DW.ref.__gxx_personality_v0
	.cfi_lsda 0x1b,.LLSDA10849
	endbr64
	push	rbp
	.cfi_def_cfa_offset 16
	.cfi_offset 6, -16
	mov	rbp, rsp
	.cfi_def_cfa_register 6
	push	rbx
	sub	rsp, 56
	.cfi_offset 3, -24
	mov	QWORD PTR -40[rbp], rdi
	mov	QWORD PTR -48[rbp], rsi
	mov	QWORD PTR -56[rbp], rdx
	mov	QWORD PTR -64[rbp], rcx
	mov	rax, QWORD PTR -40[rbp]
	mov	rdx, QWORD PTR -48[rbp]
	mov	rsi, rdx
	mov	rdi, rax
.LEHB9:
	call	_ZNSt12_Vector_baseIiSaIiEE11_M_allocateEm
.LEHE9:
	mov	QWORD PTR -24[rbp], rax
	mov	rax, QWORD PTR -40[rbp]
	mov	rdi, rax
	call	_ZNSt12_Vector_baseIiSaIiEE19_M_get_Tp_allocatorEv
	mov	rcx, rax
	mov	rdx, QWORD PTR -24[rbp]
	mov	rsi, QWORD PTR -64[rbp]
	mov	rax, QWORD PTR -56[rbp]
	mov	rdi, rax
.LEHB10:
	call	_ZSt22__uninitialized_copy_aIN9__gnu_cxx17__normal_iteratorIPKiSt6vectorIiSaIiEEEEPiiET0_T_SA_S9_RSaIT1_E
.LEHE10:
	mov	rax, QWORD PTR -24[rbp]
	jmp	.L113
.L111:
	endbr64
	mov	rdi, rax
	call	__cxa_begin_catch@PLT
	mov	rax, QWORD PTR -40[rbp]
	mov	rdx, QWORD PTR -48[rbp]
	mov	rcx, QWORD PTR -24[rbp]
	mov	rsi, rcx
	mov	rdi, rax
.LEHB11:
	call	_ZNSt12_Vector_baseIiSaIiEE13_M_deallocateEPim
	call	__cxa_rethrow@PLT
.LEHE11:
.L112:
	endbr64
	mov	rbx, rax
	call	__cxa_end_catch@PLT
	mov	rax, rbx
	mov	rdi, rax
.LEHB12:
	call	_Unwind_Resume@PLT
.LEHE12:
.L113:
	mov	rbx, QWORD PTR -8[rbp]
	leave
	.cfi_def_cfa 7, 8
	ret
	.cfi_endproc
.LFE10849:
	.section	.gcc_except_table
	.align 4
.LLSDA10849:
	.byte	0xff
	.byte	0x9b
	.uleb128 .LLSDATT10849-.LLSDATTD10849
.LLSDATTD10849:
	.byte	0x1
	.uleb128 .LLSDACSE10849-.LLSDACSB10849
.LLSDACSB10849:
	.uleb128 .LEHB9-.LFB10849
	.uleb128 .LEHE9-.LEHB9
	.uleb128 0
	.uleb128 0
	.uleb128 .LEHB10-.LFB10849
	.uleb128 .LEHE10-.LEHB10
	.uleb128 .L111-.LFB10849
	.uleb128 0x1
	.uleb128 .LEHB11-.LFB10849
	.uleb128 .LEHE11-.LEHB11
	.uleb128 .L112-.LFB10849
	.uleb128 0
	.uleb128 .LEHB12-.LFB10849
	.uleb128 .LEHE12-.LEHB12
	.uleb128 0
	.uleb128 0
.LLSDACSE10849:
	.byte	0x1
	.byte	0
	.align 4
	.long	0

.LLSDATT10849:
	.section	.text._ZNSt6vectorIiSaIiEE20_M_allocate_and_copyIN9__gnu_cxx17__normal_iteratorIPKiS1_EEEEPimT_S9_,"axG",@progbits,_ZNSt6vectorIiSaIiEE20_M_allocate_and_copyIN9__gnu_cxx17__normal_iteratorIPKiS1_EEEEPimT_S9_,comdat
	.size	_ZNSt6vectorIiSaIiEE20_M_allocate_and_copyIN9__gnu_cxx17__normal_iteratorIPKiS1_EEEEPimT_S9_, .-_ZNSt6vectorIiSaIiEE20_M_allocate_and_copyIN9__gnu_cxx17__normal_iteratorIPKiS1_EEEEPimT_S9_
	.section	.text._ZSt4copyIN9__gnu_cxx17__normal_iteratorIPKiSt6vectorIiSaIiEEEENS1_IPiS6_EEET0_T_SB_SA_,"axG",@progbits,_ZSt4copyIN9__gnu_cxx17__normal_iteratorIPKiSt6vectorIiSaIiEEEENS1_IPiS6_EEET0_T_SB_SA_,comdat
	.weak	_ZSt4copyIN9__gnu_cxx17__normal_iteratorIPKiSt6vectorIiSaIiEEEENS1_IPiS6_EEET0_T_SB_SA_
	.type	_ZSt4copyIN9__gnu_cxx17__normal_iteratorIPKiSt6vectorIiSaIiEEEENS1_IPiS6_EEET0_T_SB_SA_, @function
_ZSt4copyIN9__gnu_cxx17__normal_iteratorIPKiSt6vectorIiSaIiEEEENS1_IPiS6_EEET0_T_SB_SA_:
.LFB10850:
	.cfi_startproc
	endbr64
	push	rbp
	.cfi_def_cfa_offset 16
	.cfi_offset 6, -16
	mov	rbp, rsp
	.cfi_def_cfa_register 6
	push	rbx
	sub	rsp, 40
	.cfi_offset 3, -24
	mov	QWORD PTR -24[rbp], rdi
	mov	QWORD PTR -32[rbp], rsi
	mov	QWORD PTR -40[rbp], rdx
	mov	rax, QWORD PTR -32[rbp]
	mov	rdi, rax
	call	_ZSt12__miter_baseIN9__gnu_cxx17__normal_iteratorIPKiSt6vectorIiSaIiEEEEET_S8_
	mov	rbx, rax
	mov	rax, QWORD PTR -24[rbp]
	mov	rdi, rax
	call	_ZSt12__miter_baseIN9__gnu_cxx17__normal_iteratorIPKiSt6vectorIiSaIiEEEEET_S8_
	mov	rcx, rax
	mov	rax, QWORD PTR -40[rbp]
	mov	rdx, rax
	mov	rsi, rbx
	mov	rdi, rcx
	call	_ZSt13__copy_move_aILb0EN9__gnu_cxx17__normal_iteratorIPKiSt6vectorIiSaIiEEEENS1_IPiS6_EEET1_T0_SB_SA_
	mov	rbx, QWORD PTR -8[rbp]
	leave
	.cfi_def_cfa 7, 8
	ret
	.cfi_endproc
.LFE10850:
	.size	_ZSt4copyIN9__gnu_cxx17__normal_iteratorIPKiSt6vectorIiSaIiEEEENS1_IPiS6_EEET0_T_SB_SA_, .-_ZSt4copyIN9__gnu_cxx17__normal_iteratorIPKiSt6vectorIiSaIiEEEENS1_IPiS6_EEET0_T_SB_SA_
	.section	.text._ZSt8_DestroyIN9__gnu_cxx17__normal_iteratorIPiSt6vectorIiSaIiEEEEiEvT_S7_RSaIT0_E,"axG",@progbits,_ZSt8_DestroyIN9__gnu_cxx17__normal_iteratorIPiSt6vectorIiSaIiEEEEiEvT_S7_RSaIT0_E,comdat
	.weak	_ZSt8_DestroyIN9__gnu_cxx17__normal_iteratorIPiSt6vectorIiSaIiEEEEiEvT_S7_RSaIT0_E
	.type	_ZSt8_DestroyIN9__gnu_cxx17__normal_iteratorIPiSt6vectorIiSaIiEEEEiEvT_S7_RSaIT0_E, @function
_ZSt8_DestroyIN9__gnu_cxx17__normal_iteratorIPiSt6vectorIiSaIiEEEEiEvT_S7_RSaIT0_E:
.LFB10851:
	.cfi_startproc
	endbr64
	push	rbp
	.cfi_def_cfa_offset 16
	.cfi_offset 6, -16
	mov	rbp, rsp
	.cfi_def_cfa_register 6
	sub	rsp, 32
	mov	QWORD PTR -8[rbp], rdi
	mov	QWORD PTR -16[rbp], rsi
	mov	QWORD PTR -24[rbp], rdx
	mov	rdx, QWORD PTR -16[rbp]
	mov	rax, QWORD PTR -8[rbp]
	mov	rsi, rdx
	mov	rdi, rax
	call	_ZSt8_DestroyIN9__gnu_cxx17__normal_iteratorIPiSt6vectorIiSaIiEEEEEvT_S7_
	nop
	leave
	.cfi_def_cfa 7, 8
	ret
	.cfi_endproc
.LFE10851:
	.size	_ZSt8_DestroyIN9__gnu_cxx17__normal_iteratorIPiSt6vectorIiSaIiEEEEiEvT_S7_RSaIT0_E, .-_ZSt8_DestroyIN9__gnu_cxx17__normal_iteratorIPiSt6vectorIiSaIiEEEEiEvT_S7_RSaIT0_E
	.section	.text._ZSt4copyIPiS0_ET0_T_S2_S1_,"axG",@progbits,_ZSt4copyIPiS0_ET0_T_S2_S1_,comdat
	.weak	_ZSt4copyIPiS0_ET0_T_S2_S1_
	.type	_ZSt4copyIPiS0_ET0_T_S2_S1_, @function
_ZSt4copyIPiS0_ET0_T_S2_S1_:
.LFB10852:
	.cfi_startproc
	endbr64
	push	rbp
	.cfi_def_cfa_offset 16
	.cfi_offset 6, -16
	mov	rbp, rsp
	.cfi_def_cfa_register 6
	push	rbx
	sub	rsp, 40
	.cfi_offset 3, -24
	mov	QWORD PTR -24[rbp], rdi
	mov	QWORD PTR -32[rbp], rsi
	mov	QWORD PTR -40[rbp], rdx
	mov	rax, QWORD PTR -32[rbp]
	mov	rdi, rax
	call	_ZSt12__miter_baseIPiET_S1_
	mov	rbx, rax
	mov	rax, QWORD PTR -24[rbp]
	mov	rdi, rax
	call	_ZSt12__miter_baseIPiET_S1_
	mov	rcx, rax
	mov	rax, QWORD PTR -40[rbp]
	mov	rdx, rax
	mov	rsi, rbx
	mov	rdi, rcx
	call	_ZSt13__copy_move_aILb0EPiS0_ET1_T0_S2_S1_
	mov	rbx, QWORD PTR -8[rbp]
	leave
	.cfi_def_cfa 7, 8
	ret
	.cfi_endproc
.LFE10852:
	.size	_ZSt4copyIPiS0_ET0_T_S2_S1_, .-_ZSt4copyIPiS0_ET0_T_S2_S1_
	.section	.text._ZSt22__uninitialized_copy_aIPiS0_iET0_T_S2_S1_RSaIT1_E,"axG",@progbits,_ZSt22__uninitialized_copy_aIPiS0_iET0_T_S2_S1_RSaIT1_E,comdat
	.weak	_ZSt22__uninitialized_copy_aIPiS0_iET0_T_S2_S1_RSaIT1_E
	.type	_ZSt22__uninitialized_copy_aIPiS0_iET0_T_S2_S1_RSaIT1_E, @function
_ZSt22__uninitialized_copy_aIPiS0_iET0_T_S2_S1_RSaIT1_E:
.LFB10853:
	.cfi_startproc
	endbr64
	push	rbp
	.cfi_def_cfa_offset 16
	.cfi_offset 6, -16
	mov	rbp, rsp
	.cfi_def_cfa_register 6
	sub	rsp, 32
	mov	QWORD PTR -8[rbp], rdi
	mov	QWORD PTR -16[rbp], rsi
	mov	QWORD PTR -24[rbp], rdx
	mov	QWORD PTR -32[rbp], rcx
	mov	rdx, QWORD PTR -24[rbp]
	mov	rcx, QWORD PTR -16[rbp]
	mov	rax, QWORD PTR -8[rbp]
	mov	rsi, rcx
	mov	rdi, rax
	call	_ZSt18uninitialized_copyIPiS0_ET0_T_S2_S1_
	leave
	.cfi_def_cfa 7, 8
	ret
	.cfi_endproc
.LFE10853:
	.size	_ZSt22__uninitialized_copy_aIPiS0_iET0_T_S2_S1_RSaIT1_E, .-_ZSt22__uninitialized_copy_aIPiS0_iET0_T_S2_S1_RSaIT1_E
	.section	.text._ZN9__gnu_cxx17__normal_iteratorIPiSt6vectorIiSaIiEEEC2ERKS1_,"axG",@progbits,_ZN9__gnu_cxx17__normal_iteratorIPiSt6vectorIiSaIiEEEC5ERKS1_,comdat
	.align 2
	.weak	_ZN9__gnu_cxx17__normal_iteratorIPiSt6vectorIiSaIiEEEC2ERKS1_
	.type	_ZN9__gnu_cxx17__normal_iteratorIPiSt6vectorIiSaIiEEEC2ERKS1_, @function
_ZN9__gnu_cxx17__normal_iteratorIPiSt6vectorIiSaIiEEEC2ERKS1_:
.LFB10855:
	.cfi_startproc
	endbr64
	push	rbp
	.cfi_def_cfa_offset 16
	.cfi_offset 6, -16
	mov	rbp, rsp
	.cfi_def_cfa_register 6
	mov	QWORD PTR -8[rbp], rdi
	mov	QWORD PTR -16[rbp], rsi
	mov	rax, QWORD PTR -16[rbp]
	mov	rdx, QWORD PTR [rax]
	mov	rax, QWORD PTR -8[rbp]
	mov	QWORD PTR [rax], rdx
	nop
	pop	rbp
	.cfi_def_cfa 7, 8
	ret
	.cfi_endproc
.LFE10855:
	.size	_ZN9__gnu_cxx17__normal_iteratorIPiSt6vectorIiSaIiEEEC2ERKS1_, .-_ZN9__gnu_cxx17__normal_iteratorIPiSt6vectorIiSaIiEEEC2ERKS1_
	.weak	_ZN9__gnu_cxx17__normal_iteratorIPiSt6vectorIiSaIiEEEC1ERKS1_
	.set	_ZN9__gnu_cxx17__normal_iteratorIPiSt6vectorIiSaIiEEEC1ERKS1_,_ZN9__gnu_cxx17__normal_iteratorIPiSt6vectorIiSaIiEEEC2ERKS1_
	.section	.text._ZSt6__sortIN9__gnu_cxx17__normal_iteratorIPiSt6vectorIiSaIiEEEENS0_5__ops15_Iter_less_iterEEvT_S9_T0_,"axG",@progbits,_ZSt6__sortIN9__gnu_cxx17__normal_iteratorIPiSt6vectorIiSaIiEEEENS0_5__ops15_Iter_less_iterEEvT_S9_T0_,comdat
	.weak	_ZSt6__sortIN9__gnu_cxx17__normal_iteratorIPiSt6vectorIiSaIiEEEENS0_5__ops15_Iter_less_iterEEvT_S9_T0_
	.type	_ZSt6__sortIN9__gnu_cxx17__normal_iteratorIPiSt6vectorIiSaIiEEEENS0_5__ops15_Iter_less_iterEEvT_S9_T0_, @function
_ZSt6__sortIN9__gnu_cxx17__normal_iteratorIPiSt6vectorIiSaIiEEEENS0_5__ops15_Iter_less_iterEEvT_S9_T0_:
.LFB10857:
	.cfi_startproc
	endbr64
	push	rbp
	.cfi_def_cfa_offset 16
	.cfi_offset 6, -16
	mov	rbp, rsp
	.cfi_def_cfa_register 6
	sub	rsp, 32
	mov	QWORD PTR -8[rbp], rdi
	mov	QWORD PTR -16[rbp], rsi
	lea	rdx, -16[rbp]
	lea	rax, -8[rbp]
	mov	rsi, rdx
	mov	rdi, rax
	call	_ZN9__gnu_cxxneIPiSt6vectorIiSaIiEEEEbRKNS_17__normal_iteratorIT_T0_EESA_
	test	al, al
	je	.L124
	lea	rdx, -8[rbp]
	lea	rax, -16[rbp]
	mov	rsi, rdx
	mov	rdi, rax
	call	_ZN9__gnu_cxxmiIPiSt6vectorIiSaIiEEEENS_17__normal_iteratorIT_T0_E15difference_typeERKS8_SB_
	mov	rdi, rax
	call	_ZSt4__lgl
	lea	rdx, [rax+rax]
	mov	rcx, QWORD PTR -16[rbp]
	mov	rax, QWORD PTR -8[rbp]
	mov	rsi, rcx
	mov	rdi, rax
	call	_ZSt16__introsort_loopIN9__gnu_cxx17__normal_iteratorIPiSt6vectorIiSaIiEEEElNS0_5__ops15_Iter_less_iterEEvT_S9_T0_T1_
	mov	rdx, QWORD PTR -16[rbp]
	mov	rax, QWORD PTR -8[rbp]
	mov	rsi, rdx
	mov	rdi, rax
	call	_ZSt22__final_insertion_sortIN9__gnu_cxx17__normal_iteratorIPiSt6vectorIiSaIiEEEENS0_5__ops15_Iter_less_iterEEvT_S9_T0_
.L124:
	nop
	leave
	.cfi_def_cfa 7, 8
	ret
	.cfi_endproc
.LFE10857:
	.size	_ZSt6__sortIN9__gnu_cxx17__normal_iteratorIPiSt6vectorIiSaIiEEEENS0_5__ops15_Iter_less_iterEEvT_S9_T0_, .-_ZSt6__sortIN9__gnu_cxx17__normal_iteratorIPiSt6vectorIiSaIiEEEENS0_5__ops15_Iter_less_iterEEvT_S9_T0_
	.section	.text._ZSt8distanceIN9__gnu_cxx17__normal_iteratorIPiSt6vectorIiSaIiEEEEENSt15iterator_traitsIT_E15difference_typeES8_S8_,"axG",@progbits,_ZSt8distanceIN9__gnu_cxx17__normal_iteratorIPiSt6vectorIiSaIiEEEEENSt15iterator_traitsIT_E15difference_typeES8_S8_,comdat
	.weak	_ZSt8distanceIN9__gnu_cxx17__normal_iteratorIPiSt6vectorIiSaIiEEEEENSt15iterator_traitsIT_E15difference_typeES8_S8_
	.type	_ZSt8distanceIN9__gnu_cxx17__normal_iteratorIPiSt6vectorIiSaIiEEEEENSt15iterator_traitsIT_E15difference_typeES8_S8_, @function
_ZSt8distanceIN9__gnu_cxx17__normal_iteratorIPiSt6vectorIiSaIiEEEEENSt15iterator_traitsIT_E15difference_typeES8_S8_:
.LFB10859:
	.cfi_startproc
	endbr64
	push	rbp
	.cfi_def_cfa_offset 16
	.cfi_offset 6, -16
	mov	rbp, rsp
	.cfi_def_cfa_register 6
	sub	rsp, 16
	mov	QWORD PTR -8[rbp], rdi
	mov	QWORD PTR -16[rbp], rsi
	lea	rax, -8[rbp]
	mov	rdi, rax
	call	_ZSt19__iterator_categoryIN9__gnu_cxx17__normal_iteratorIPiSt6vectorIiSaIiEEEEENSt15iterator_traitsIT_E17iterator_categoryERKS8_
	mov	rdx, QWORD PTR -16[rbp]
	mov	rax, QWORD PTR -8[rbp]
	mov	rsi, rdx
	mov	rdi, rax
	call	_ZSt10__distanceIN9__gnu_cxx17__normal_iteratorIPiSt6vectorIiSaIiEEEEENSt15iterator_traitsIT_E15difference_typeES8_S8_St26random_access_iterator_tag
	leave
	.cfi_def_cfa 7, 8
	ret
	.cfi_endproc
.LFE10859:
	.size	_ZSt8distanceIN9__gnu_cxx17__normal_iteratorIPiSt6vectorIiSaIiEEEEENSt15iterator_traitsIT_E15difference_typeES8_S8_, .-_ZSt8distanceIN9__gnu_cxx17__normal_iteratorIPiSt6vectorIiSaIiEEEEENSt15iterator_traitsIT_E15difference_typeES8_S8_
	.section	.text._ZSt13__lower_boundIN9__gnu_cxx17__normal_iteratorIPiSt6vectorIiSaIiEEEEiNS0_5__ops14_Iter_less_valEET_S9_S9_RKT0_T1_,"axG",@progbits,_ZSt13__lower_boundIN9__gnu_cxx17__normal_iteratorIPiSt6vectorIiSaIiEEEEiNS0_5__ops14_Iter_less_valEET_S9_S9_RKT0_T1_,comdat
	.weak	_ZSt13__lower_boundIN9__gnu_cxx17__normal_iteratorIPiSt6vectorIiSaIiEEEEiNS0_5__ops14_Iter_less_valEET_S9_S9_RKT0_T1_
	.type	_ZSt13__lower_boundIN9__gnu_cxx17__normal_iteratorIPiSt6vectorIiSaIiEEEEiNS0_5__ops14_Iter_less_valEET_S9_S9_RKT0_T1_, @function
_ZSt13__lower_boundIN9__gnu_cxx17__normal_iteratorIPiSt6vectorIiSaIiEEEEiNS0_5__ops14_Iter_less_valEET_S9_S9_RKT0_T1_:
.LFB10858:
	.cfi_startproc
	endbr64
	push	rbp
	.cfi_def_cfa_offset 16
	.cfi_offset 6, -16
	mov	rbp, rsp
	.cfi_def_cfa_register 6
	sub	rsp, 64
	mov	QWORD PTR -40[rbp], rdi
	mov	QWORD PTR -48[rbp], rsi
	mov	QWORD PTR -56[rbp], rdx
	mov	rax, QWORD PTR fs:40
	mov	QWORD PTR -8[rbp], rax
	xor	eax, eax
	mov	rdx, QWORD PTR -48[rbp]
	mov	rax, QWORD PTR -40[rbp]
	mov	rsi, rdx
	mov	rdi, rax
	call	_ZSt8distanceIN9__gnu_cxx17__normal_iteratorIPiSt6vectorIiSaIiEEEEENSt15iterator_traitsIT_E15difference_typeES8_S8_
	mov	QWORD PTR -24[rbp], rax
	jmp	.L128
.L131:
	mov	rax, QWORD PTR -24[rbp]
	sar	rax
	mov	QWORD PTR -16[rbp], rax
	mov	rax, QWORD PTR -40[rbp]
	mov	QWORD PTR -32[rbp], rax
	mov	rdx, QWORD PTR -16[rbp]
	lea	rax, -32[rbp]
	mov	rsi, rdx
	mov	rdi, rax
	call	_ZSt7advanceIN9__gnu_cxx17__normal_iteratorIPiSt6vectorIiSaIiEEEElEvRT_T0_
	mov	rdx, QWORD PTR -56[rbp]
	mov	rcx, QWORD PTR -32[rbp]
	lea	rax, -57[rbp]
	mov	rsi, rcx
	mov	rdi, rax
	call	_ZNK9__gnu_cxx5__ops14_Iter_less_valclINS_17__normal_iteratorIPiSt6vectorIiSaIiEEEEKiEEbT_RT0_
	test	al, al
	je	.L129
	mov	rax, QWORD PTR -32[rbp]
	mov	QWORD PTR -40[rbp], rax
	lea	rax, -40[rbp]
	mov	rdi, rax
	call	_ZN9__gnu_cxx17__normal_iteratorIPiSt6vectorIiSaIiEEEppEv
	mov	rax, QWORD PTR -24[rbp]
	sub	rax, QWORD PTR -16[rbp]
	sub	rax, 1
	mov	QWORD PTR -24[rbp], rax
	jmp	.L128
.L129:
	mov	rax, QWORD PTR -16[rbp]
	mov	QWORD PTR -24[rbp], rax
.L128:
	cmp	QWORD PTR -24[rbp], 0
	jg	.L131
	mov	rax, QWORD PTR -40[rbp]
	mov	rdx, QWORD PTR -8[rbp]
	sub	rdx, QWORD PTR fs:40
	je	.L133
	call	__stack_chk_fail@PLT
.L133:
	leave
	.cfi_def_cfa 7, 8
	ret
	.cfi_endproc
.LFE10858:
	.size	_ZSt13__lower_boundIN9__gnu_cxx17__normal_iteratorIPiSt6vectorIiSaIiEEEEiNS0_5__ops14_Iter_less_valEET_S9_S9_RKT0_T1_, .-_ZSt13__lower_boundIN9__gnu_cxx17__normal_iteratorIPiSt6vectorIiSaIiEEEEiNS0_5__ops14_Iter_less_valEET_S9_S9_RKT0_T1_
	.section	.text._ZNK9__gnu_cxx17__normal_iteratorIPiSt6vectorIiSaIiEEE4baseEv,"axG",@progbits,_ZNK9__gnu_cxx17__normal_iteratorIPiSt6vectorIiSaIiEEE4baseEv,comdat
	.align 2
	.weak	_ZNK9__gnu_cxx17__normal_iteratorIPiSt6vectorIiSaIiEEE4baseEv
	.type	_ZNK9__gnu_cxx17__normal_iteratorIPiSt6vectorIiSaIiEEE4baseEv, @function
_ZNK9__gnu_cxx17__normal_iteratorIPiSt6vectorIiSaIiEEE4baseEv:
.LFB10860:
	.cfi_startproc
	endbr64
	push	rbp
	.cfi_def_cfa_offset 16
	.cfi_offset 6, -16
	mov	rbp, rsp
	.cfi_def_cfa_register 6
	mov	QWORD PTR -8[rbp], rdi
	mov	rax, QWORD PTR -8[rbp]
	pop	rbp
	.cfi_def_cfa 7, 8
	ret
	.cfi_endproc
.LFE10860:
	.size	_ZNK9__gnu_cxx17__normal_iteratorIPiSt6vectorIiSaIiEEE4baseEv, .-_ZNK9__gnu_cxx17__normal_iteratorIPiSt6vectorIiSaIiEEE4baseEv
	.section	.text._ZSt13__upper_boundIN9__gnu_cxx17__normal_iteratorIPiSt6vectorIiSaIiEEEEiNS0_5__ops14_Val_less_iterEET_S9_S9_RKT0_T1_,"axG",@progbits,_ZSt13__upper_boundIN9__gnu_cxx17__normal_iteratorIPiSt6vectorIiSaIiEEEEiNS0_5__ops14_Val_less_iterEET_S9_S9_RKT0_T1_,comdat
	.weak	_ZSt13__upper_boundIN9__gnu_cxx17__normal_iteratorIPiSt6vectorIiSaIiEEEEiNS0_5__ops14_Val_less_iterEET_S9_S9_RKT0_T1_
	.type	_ZSt13__upper_boundIN9__gnu_cxx17__normal_iteratorIPiSt6vectorIiSaIiEEEEiNS0_5__ops14_Val_less_iterEET_S9_S9_RKT0_T1_, @function
_ZSt13__upper_boundIN9__gnu_cxx17__normal_iteratorIPiSt6vectorIiSaIiEEEEiNS0_5__ops14_Val_less_iterEET_S9_S9_RKT0_T1_:
.LFB10862:
	.cfi_startproc
	endbr64
	push	rbp
	.cfi_def_cfa_offset 16
	.cfi_offset 6, -16
	mov	rbp, rsp
	.cfi_def_cfa_register 6
	sub	rsp, 64
	mov	QWORD PTR -40[rbp], rdi
	mov	QWORD PTR -48[rbp], rsi
	mov	QWORD PTR -56[rbp], rdx
	mov	rax, QWORD PTR fs:40
	mov	QWORD PTR -8[rbp], rax
	xor	eax, eax
	mov	rdx, QWORD PTR -48[rbp]
	mov	rax, QWORD PTR -40[rbp]
	mov	rsi, rdx
	mov	rdi, rax
	call	_ZSt8distanceIN9__gnu_cxx17__normal_iteratorIPiSt6vectorIiSaIiEEEEENSt15iterator_traitsIT_E15difference_typeES8_S8_
	mov	QWORD PTR -24[rbp], rax
	jmp	.L137
.L140:
	mov	rax, QWORD PTR -24[rbp]
	sar	rax
	mov	QWORD PTR -16[rbp], rax
	mov	rax, QWORD PTR -40[rbp]
	mov	QWORD PTR -32[rbp], rax
	mov	rdx, QWORD PTR -16[rbp]
	lea	rax, -32[rbp]
	mov	rsi, rdx
	mov	rdi, rax
	call	_ZSt7advanceIN9__gnu_cxx17__normal_iteratorIPiSt6vectorIiSaIiEEEElEvRT_T0_
	mov	rdx, QWORD PTR -32[rbp]
	mov	rcx, QWORD PTR -56[rbp]
	lea	rax, -57[rbp]
	mov	rsi, rcx
	mov	rdi, rax
	call	_ZNK9__gnu_cxx5__ops14_Val_less_iterclIKiNS_17__normal_iteratorIPiSt6vectorIiSaIiEEEEEEbRT_T0_
	test	al, al
	je	.L138
	mov	rax, QWORD PTR -16[rbp]
	mov	QWORD PTR -24[rbp], rax
	jmp	.L137
.L138:
	mov	rax, QWORD PTR -32[rbp]
	mov	QWORD PTR -40[rbp], rax
	lea	rax, -40[rbp]
	mov	rdi, rax
	call	_ZN9__gnu_cxx17__normal_iteratorIPiSt6vectorIiSaIiEEEppEv
	mov	rax, QWORD PTR -24[rbp]
	sub	rax, QWORD PTR -16[rbp]
	sub	rax, 1
	mov	QWORD PTR -24[rbp], rax
.L137:
	cmp	QWORD PTR -24[rbp], 0
	jg	.L140
	mov	rax, QWORD PTR -40[rbp]
	mov	rdx, QWORD PTR -8[rbp]
	sub	rdx, QWORD PTR fs:40
	je	.L142
	call	__stack_chk_fail@PLT
.L142:
	leave
	.cfi_def_cfa 7, 8
	ret
	.cfi_endproc
.LFE10862:
	.size	_ZSt13__upper_boundIN9__gnu_cxx17__normal_iteratorIPiSt6vectorIiSaIiEEEEiNS0_5__ops14_Val_less_iterEET_S9_S9_RKT0_T1_, .-_ZSt13__upper_boundIN9__gnu_cxx17__normal_iteratorIPiSt6vectorIiSaIiEEEEiNS0_5__ops14_Val_less_iterEET_S9_S9_RKT0_T1_
	.section	.text._ZNSt6vectorIiSaIiEE11_S_max_sizeERKS0_,"axG",@progbits,_ZNSt6vectorIiSaIiEE11_S_max_sizeERKS0_,comdat
	.weak	_ZNSt6vectorIiSaIiEE11_S_max_sizeERKS0_
	.type	_ZNSt6vectorIiSaIiEE11_S_max_sizeERKS0_, @function
_ZNSt6vectorIiSaIiEE11_S_max_sizeERKS0_:
.LFB11059:
	.cfi_startproc
	endbr64
	push	rbp
	.cfi_def_cfa_offset 16
	.cfi_offset 6, -16
	mov	rbp, rsp
	.cfi_def_cfa_register 6
	sub	rsp, 48
	mov	QWORD PTR -40[rbp], rdi
	mov	rax, QWORD PTR fs:40
	mov	QWORD PTR -8[rbp], rax
	xor	eax, eax
	movabs	rax, 2305843009213693951
	mov	QWORD PTR -24[rbp], rax
	mov	rax, QWORD PTR -40[rbp]
	mov	rdi, rax
	call	_ZNSt16allocator_traitsISaIiEE8max_sizeERKS0_
	mov	QWORD PTR -16[rbp], rax
	lea	rdx, -16[rbp]
	lea	rax, -24[rbp]
	mov	rsi, rdx
	mov	rdi, rax
	call	_ZSt3minImERKT_S2_S2_
	mov	rax, QWORD PTR [rax]
	mov	rdx, QWORD PTR -8[rbp]
	sub	rdx, QWORD PTR fs:40
	je	.L145
	call	__stack_chk_fail@PLT
.L145:
	leave
	.cfi_def_cfa 7, 8
	ret
	.cfi_endproc
.LFE11059:
	.size	_ZNSt6vectorIiSaIiEE11_S_max_sizeERKS0_, .-_ZNSt6vectorIiSaIiEE11_S_max_sizeERKS0_
	.section	.text._ZNSaIiEC2ERKS_,"axG",@progbits,_ZNSaIiEC5ERKS_,comdat
	.align 2
	.weak	_ZNSaIiEC2ERKS_
	.type	_ZNSaIiEC2ERKS_, @function
_ZNSaIiEC2ERKS_:
.LFB11061:
	.cfi_startproc
	endbr64
	push	rbp
	.cfi_def_cfa_offset 16
	.cfi_offset 6, -16
	mov	rbp, rsp
	.cfi_def_cfa_register 6
	sub	rsp, 16
	mov	QWORD PTR -8[rbp], rdi
	mov	QWORD PTR -16[rbp], rsi
	mov	rdx, QWORD PTR -16[rbp]
	mov	rax, QWORD PTR -8[rbp]
	mov	rsi, rdx
	mov	rdi, rax
	call	_ZN9__gnu_cxx13new_allocatorIiEC2ERKS1_
	nop
	leave
	.cfi_def_cfa 7, 8
	ret
	.cfi_endproc
.LFE11061:
	.size	_ZNSaIiEC2ERKS_, .-_ZNSaIiEC2ERKS_
	.weak	_ZNSaIiEC1ERKS_
	.set	_ZNSaIiEC1ERKS_,_ZNSaIiEC2ERKS_
	.section	.text._ZNSt12_Vector_baseIiSaIiEE12_Vector_implC2ERKS0_,"axG",@progbits,_ZNSt12_Vector_baseIiSaIiEE12_Vector_implC5ERKS0_,comdat
	.align 2
	.weak	_ZNSt12_Vector_baseIiSaIiEE12_Vector_implC2ERKS0_
	.type	_ZNSt12_Vector_baseIiSaIiEE12_Vector_implC2ERKS0_, @function
_ZNSt12_Vector_baseIiSaIiEE12_Vector_implC2ERKS0_:
.LFB11064:
	.cfi_startproc
	endbr64
	push	rbp
	.cfi_def_cfa_offset 16
	.cfi_offset 6, -16
	mov	rbp, rsp
	.cfi_def_cfa_register 6
	sub	rsp, 16
	mov	QWORD PTR -8[rbp], rdi
	mov	QWORD PTR -16[rbp], rsi
	mov	rdx, QWORD PTR -16[rbp]
	mov	rax, QWORD PTR -8[rbp]
	mov	rsi, rdx
	mov	rdi, rax
	call	_ZNSaIiEC2ERKS_
	mov	rax, QWORD PTR -8[rbp]
	mov	rdi, rax
	call	_ZNSt12_Vector_baseIiSaIiEE17_Vector_impl_dataC2Ev
	nop
	leave
	.cfi_def_cfa 7, 8
	ret
	.cfi_endproc
.LFE11064:
	.size	_ZNSt12_Vector_baseIiSaIiEE12_Vector_implC2ERKS0_, .-_ZNSt12_Vector_baseIiSaIiEE12_Vector_implC2ERKS0_
	.weak	_ZNSt12_Vector_baseIiSaIiEE12_Vector_implC1ERKS0_
	.set	_ZNSt12_Vector_baseIiSaIiEE12_Vector_implC1ERKS0_,_ZNSt12_Vector_baseIiSaIiEE12_Vector_implC2ERKS0_
	.section	.text._ZNSt12_Vector_baseIiSaIiEE17_M_create_storageEm,"axG",@progbits,_ZNSt12_Vector_baseIiSaIiEE17_M_create_storageEm,comdat
	.align 2
	.weak	_ZNSt12_Vector_baseIiSaIiEE17_M_create_storageEm
	.type	_ZNSt12_Vector_baseIiSaIiEE17_M_create_storageEm, @function
_ZNSt12_Vector_baseIiSaIiEE17_M_create_storageEm:
.LFB11066:
	.cfi_startproc
	endbr64
	push	rbp
	.cfi_def_cfa_offset 16
	.cfi_offset 6, -16
	mov	rbp, rsp
	.cfi_def_cfa_register 6
	sub	rsp, 16
	mov	QWORD PTR -8[rbp], rdi
	mov	QWORD PTR -16[rbp], rsi
	mov	rdx, QWORD PTR -16[rbp]
	mov	rax, QWORD PTR -8[rbp]
	mov	rsi, rdx
	mov	rdi, rax
	call	_ZNSt12_Vector_baseIiSaIiEE11_M_allocateEm
	mov	rdx, QWORD PTR -8[rbp]
	mov	QWORD PTR [rdx], rax
	mov	rax, QWORD PTR -8[rbp]
	mov	rdx, QWORD PTR [rax]
	mov	rax, QWORD PTR -8[rbp]
	mov	QWORD PTR 8[rax], rdx
	mov	rax, QWORD PTR -8[rbp]
	mov	rdx, QWORD PTR [rax]
	mov	rax, QWORD PTR -16[rbp]
	sal	rax, 2
	add	rdx, rax
	mov	rax, QWORD PTR -8[rbp]
	mov	QWORD PTR 16[rax], rdx
	nop
	leave
	.cfi_def_cfa 7, 8
	ret
	.cfi_endproc
.LFE11066:
	.size	_ZNSt12_Vector_baseIiSaIiEE17_M_create_storageEm, .-_ZNSt12_Vector_baseIiSaIiEE17_M_create_storageEm
	.section	.text._ZSt27__uninitialized_default_n_aIPimiET_S1_T0_RSaIT1_E,"axG",@progbits,_ZSt27__uninitialized_default_n_aIPimiET_S1_T0_RSaIT1_E,comdat
	.weak	_ZSt27__uninitialized_default_n_aIPimiET_S1_T0_RSaIT1_E
	.type	_ZSt27__uninitialized_default_n_aIPimiET_S1_T0_RSaIT1_E, @function
_ZSt27__uninitialized_default_n_aIPimiET_S1_T0_RSaIT1_E:
.LFB11067:
	.cfi_startproc
	endbr64
	push	rbp
	.cfi_def_cfa_offset 16
	.cfi_offset 6, -16
	mov	rbp, rsp
	.cfi_def_cfa_register 6
	sub	rsp, 32
	mov	QWORD PTR -8[rbp], rdi
	mov	QWORD PTR -16[rbp], rsi
	mov	QWORD PTR -24[rbp], rdx
	mov	rdx, QWORD PTR -16[rbp]
	mov	rax, QWORD PTR -8[rbp]
	mov	rsi, rdx
	mov	rdi, rax
	call	_ZSt25__uninitialized_default_nIPimET_S1_T0_
	leave
	.cfi_def_cfa 7, 8
	ret
	.cfi_endproc
.LFE11067:
	.size	_ZSt27__uninitialized_default_n_aIPimiET_S1_T0_RSaIT1_E, .-_ZSt27__uninitialized_default_n_aIPimiET_S1_T0_RSaIT1_E
	.section	.text._ZSt8_DestroyIPiEvT_S1_,"axG",@progbits,_ZSt8_DestroyIPiEvT_S1_,comdat
	.weak	_ZSt8_DestroyIPiEvT_S1_
	.type	_ZSt8_DestroyIPiEvT_S1_, @function
_ZSt8_DestroyIPiEvT_S1_:
.LFB11068:
	.cfi_startproc
	endbr64
	push	rbp
	.cfi_def_cfa_offset 16
	.cfi_offset 6, -16
	mov	rbp, rsp
	.cfi_def_cfa_register 6
	sub	rsp, 16
	mov	QWORD PTR -8[rbp], rdi
	mov	QWORD PTR -16[rbp], rsi
	mov	rdx, QWORD PTR -16[rbp]
	mov	rax, QWORD PTR -8[rbp]
	mov	rsi, rdx
	mov	rdi, rax
	call	_ZNSt12_Destroy_auxILb1EE9__destroyIPiEEvT_S3_
	nop
	leave
	.cfi_def_cfa 7, 8
	ret
	.cfi_endproc
.LFE11068:
	.size	_ZSt8_DestroyIPiEvT_S1_, .-_ZSt8_DestroyIPiEvT_S1_
	.section	.text._ZNSt16allocator_traitsISaIiEE10deallocateERS0_Pim,"axG",@progbits,_ZNSt16allocator_traitsISaIiEE10deallocateERS0_Pim,comdat
	.weak	_ZNSt16allocator_traitsISaIiEE10deallocateERS0_Pim
	.type	_ZNSt16allocator_traitsISaIiEE10deallocateERS0_Pim, @function
_ZNSt16allocator_traitsISaIiEE10deallocateERS0_Pim:
.LFB11070:
	.cfi_startproc
	endbr64
	push	rbp
	.cfi_def_cfa_offset 16
	.cfi_offset 6, -16
	mov	rbp, rsp
	.cfi_def_cfa_register 6
	sub	rsp, 32
	mov	QWORD PTR -8[rbp], rdi
	mov	QWORD PTR -16[rbp], rsi
	mov	QWORD PTR -24[rbp], rdx
	mov	rdx, QWORD PTR -24[rbp]
	mov	rcx, QWORD PTR -16[rbp]
	mov	rax, QWORD PTR -8[rbp]
	mov	rsi, rcx
	mov	rdi, rax
	call	_ZN9__gnu_cxx13new_allocatorIiE10deallocateEPim
	nop
	leave
	.cfi_def_cfa 7, 8
	ret
	.cfi_endproc
.LFE11070:
	.size	_ZNSt16allocator_traitsISaIiEE10deallocateERS0_Pim, .-_ZNSt16allocator_traitsISaIiEE10deallocateERS0_Pim
	.section	.text._ZNSt6vectorIiSaIiEE15_M_erase_at_endEPi,"axG",@progbits,_ZNSt6vectorIiSaIiEE15_M_erase_at_endEPi,comdat
	.align 2
	.weak	_ZNSt6vectorIiSaIiEE15_M_erase_at_endEPi
	.type	_ZNSt6vectorIiSaIiEE15_M_erase_at_endEPi, @function
_ZNSt6vectorIiSaIiEE15_M_erase_at_endEPi:
.LFB11071:
	.cfi_startproc
	.cfi_personality 0x9b,DW.ref.__gxx_personality_v0
	.cfi_lsda 0x1b,.LLSDA11071
	endbr64
	push	rbp
	.cfi_def_cfa_offset 16
	.cfi_offset 6, -16
	mov	rbp, rsp
	.cfi_def_cfa_register 6
	sub	rsp, 32
	mov	QWORD PTR -24[rbp], rdi
	mov	QWORD PTR -32[rbp], rsi
	mov	rax, QWORD PTR -24[rbp]
	mov	rax, QWORD PTR 8[rax]
	sub	rax, QWORD PTR -32[rbp]
	sar	rax, 2
	mov	QWORD PTR -8[rbp], rax
	cmp	QWORD PTR -8[rbp], 0
	je	.L155
	mov	rax, QWORD PTR -24[rbp]
	mov	rdi, rax
	call	_ZNSt12_Vector_baseIiSaIiEE19_M_get_Tp_allocatorEv
	mov	rdx, rax
	mov	rax, QWORD PTR -24[rbp]
	mov	rcx, QWORD PTR 8[rax]
	mov	rax, QWORD PTR -32[rbp]
	mov	rsi, rcx
	mov	rdi, rax
	call	_ZSt8_DestroyIPiiEvT_S1_RSaIT0_E
	mov	rax, QWORD PTR -24[rbp]
	mov	rdx, QWORD PTR -32[rbp]
	mov	QWORD PTR 8[rax], rdx
.L155:
	nop
	leave
	.cfi_def_cfa 7, 8
	ret
	.cfi_endproc
.LFE11071:
	.section	.gcc_except_table
.LLSDA11071:
	.byte	0xff
	.byte	0xff
	.byte	0x1
	.uleb128 .LLSDACSE11071-.LLSDACSB11071
.LLSDACSB11071:
.LLSDACSE11071:
	.section	.text._ZNSt6vectorIiSaIiEE15_M_erase_at_endEPi,"axG",@progbits,_ZNSt6vectorIiSaIiEE15_M_erase_at_endEPi,comdat
	.size	_ZNSt6vectorIiSaIiEE15_M_erase_at_endEPi, .-_ZNSt6vectorIiSaIiEE15_M_erase_at_endEPi
	.section	.text._ZN9__gnu_cxx17__normal_iteratorIPKiSt6vectorIiSaIiEEEC2ERKS2_,"axG",@progbits,_ZN9__gnu_cxx17__normal_iteratorIPKiSt6vectorIiSaIiEEEC5ERKS2_,comdat
	.align 2
	.weak	_ZN9__gnu_cxx17__normal_iteratorIPKiSt6vectorIiSaIiEEEC2ERKS2_
	.type	_ZN9__gnu_cxx17__normal_iteratorIPKiSt6vectorIiSaIiEEEC2ERKS2_, @function
_ZN9__gnu_cxx17__normal_iteratorIPKiSt6vectorIiSaIiEEEC2ERKS2_:
.LFB11073:
	.cfi_startproc
	endbr64
	push	rbp
	.cfi_def_cfa_offset 16
	.cfi_offset 6, -16
	mov	rbp, rsp
	.cfi_def_cfa_register 6
	mov	QWORD PTR -8[rbp], rdi
	mov	QWORD PTR -16[rbp], rsi
	mov	rax, QWORD PTR -16[rbp]
	mov	rdx, QWORD PTR [rax]
	mov	rax, QWORD PTR -8[rbp]
	mov	QWORD PTR [rax], rdx
	nop
	pop	rbp
	.cfi_def_cfa 7, 8
	ret
	.cfi_endproc
.LFE11073:
	.size	_ZN9__gnu_cxx17__normal_iteratorIPKiSt6vectorIiSaIiEEEC2ERKS2_, .-_ZN9__gnu_cxx17__normal_iteratorIPKiSt6vectorIiSaIiEEEC2ERKS2_
	.weak	_ZN9__gnu_cxx17__normal_iteratorIPKiSt6vectorIiSaIiEEEC1ERKS2_
	.set	_ZN9__gnu_cxx17__normal_iteratorIPKiSt6vectorIiSaIiEEEC1ERKS2_,_ZN9__gnu_cxx17__normal_iteratorIPKiSt6vectorIiSaIiEEEC2ERKS2_
	.section	.text._ZNSt12_Vector_baseIiSaIiEE11_M_allocateEm,"axG",@progbits,_ZNSt12_Vector_baseIiSaIiEE11_M_allocateEm,comdat
	.align 2
	.weak	_ZNSt12_Vector_baseIiSaIiEE11_M_allocateEm
	.type	_ZNSt12_Vector_baseIiSaIiEE11_M_allocateEm, @function
_ZNSt12_Vector_baseIiSaIiEE11_M_allocateEm:
.LFB11075:
	.cfi_startproc
	endbr64
	push	rbp
	.cfi_def_cfa_offset 16
	.cfi_offset 6, -16
	mov	rbp, rsp
	.cfi_def_cfa_register 6
	sub	rsp, 16
	mov	QWORD PTR -8[rbp], rdi
	mov	QWORD PTR -16[rbp], rsi
	cmp	QWORD PTR -16[rbp], 0
	je	.L158
	mov	rax, QWORD PTR -8[rbp]
	mov	rdx, QWORD PTR -16[rbp]
	mov	rsi, rdx
	mov	rdi, rax
	call	_ZNSt16allocator_traitsISaIiEE8allocateERS0_m
	jmp	.L160
.L158:
	mov	eax, 0
.L160:
	leave
	.cfi_def_cfa 7, 8
	ret
	.cfi_endproc
.LFE11075:
	.size	_ZNSt12_Vector_baseIiSaIiEE11_M_allocateEm, .-_ZNSt12_Vector_baseIiSaIiEE11_M_allocateEm
	.section	.text._ZSt22__uninitialized_copy_aIN9__gnu_cxx17__normal_iteratorIPKiSt6vectorIiSaIiEEEEPiiET0_T_SA_S9_RSaIT1_E,"axG",@progbits,_ZSt22__uninitialized_copy_aIN9__gnu_cxx17__normal_iteratorIPKiSt6vectorIiSaIiEEEEPiiET0_T_SA_S9_RSaIT1_E,comdat
	.weak	_ZSt22__uninitialized_copy_aIN9__gnu_cxx17__normal_iteratorIPKiSt6vectorIiSaIiEEEEPiiET0_T_SA_S9_RSaIT1_E
	.type	_ZSt22__uninitialized_copy_aIN9__gnu_cxx17__normal_iteratorIPKiSt6vectorIiSaIiEEEEPiiET0_T_SA_S9_RSaIT1_E, @function
_ZSt22__uninitialized_copy_aIN9__gnu_cxx17__normal_iteratorIPKiSt6vectorIiSaIiEEEEPiiET0_T_SA_S9_RSaIT1_E:
.LFB11076:
	.cfi_startproc
	endbr64
	push	rbp
	.cfi_def_cfa_offset 16
	.cfi_offset 6, -16
	mov	rbp, rsp
	.cfi_def_cfa_register 6
	sub	rsp, 32
	mov	QWORD PTR -8[rbp], rdi
	mov	QWORD PTR -16[rbp], rsi
	mov	QWORD PTR -24[rbp], rdx
	mov	QWORD PTR -32[rbp], rcx
	mov	rdx, QWORD PTR -24[rbp]
	mov	rcx, QWORD PTR -16[rbp]
	mov	rax, QWORD PTR -8[rbp]
	mov	rsi, rcx
	mov	rdi, rax
	call	_ZSt18uninitialized_copyIN9__gnu_cxx17__normal_iteratorIPKiSt6vectorIiSaIiEEEEPiET0_T_SA_S9_
	leave
	.cfi_def_cfa 7, 8
	ret
	.cfi_endproc
.LFE11076:
	.size	_ZSt22__uninitialized_copy_aIN9__gnu_cxx17__normal_iteratorIPKiSt6vectorIiSaIiEEEEPiiET0_T_SA_S9_RSaIT1_E, .-_ZSt22__uninitialized_copy_aIN9__gnu_cxx17__normal_iteratorIPKiSt6vectorIiSaIiEEEEPiiET0_T_SA_S9_RSaIT1_E
	.section	.text._ZSt12__miter_baseIN9__gnu_cxx17__normal_iteratorIPKiSt6vectorIiSaIiEEEEET_S8_,"axG",@progbits,_ZSt12__miter_baseIN9__gnu_cxx17__normal_iteratorIPKiSt6vectorIiSaIiEEEEET_S8_,comdat
	.weak	_ZSt12__miter_baseIN9__gnu_cxx17__normal_iteratorIPKiSt6vectorIiSaIiEEEEET_S8_
	.type	_ZSt12__miter_baseIN9__gnu_cxx17__normal_iteratorIPKiSt6vectorIiSaIiEEEEET_S8_, @function
_ZSt12__miter_baseIN9__gnu_cxx17__normal_iteratorIPKiSt6vectorIiSaIiEEEEET_S8_:
.LFB11077:
	.cfi_startproc
	endbr64
	push	rbp
	.cfi_def_cfa_offset 16
	.cfi_offset 6, -16
	mov	rbp, rsp
	.cfi_def_cfa_register 6
	mov	QWORD PTR -8[rbp], rdi
	mov	rax, QWORD PTR -8[rbp]
	pop	rbp
	.cfi_def_cfa 7, 8
	ret
	.cfi_endproc
.LFE11077:
	.size	_ZSt12__miter_baseIN9__gnu_cxx17__normal_iteratorIPKiSt6vectorIiSaIiEEEEET_S8_, .-_ZSt12__miter_baseIN9__gnu_cxx17__normal_iteratorIPKiSt6vectorIiSaIiEEEEET_S8_
	.section	.text._ZSt13__copy_move_aILb0EN9__gnu_cxx17__normal_iteratorIPKiSt6vectorIiSaIiEEEENS1_IPiS6_EEET1_T0_SB_SA_,"axG",@progbits,_ZSt13__copy_move_aILb0EN9__gnu_cxx17__normal_iteratorIPKiSt6vectorIiSaIiEEEENS1_IPiS6_EEET1_T0_SB_SA_,comdat
	.weak	_ZSt13__copy_move_aILb0EN9__gnu_cxx17__normal_iteratorIPKiSt6vectorIiSaIiEEEENS1_IPiS6_EEET1_T0_SB_SA_
	.type	_ZSt13__copy_move_aILb0EN9__gnu_cxx17__normal_iteratorIPKiSt6vectorIiSaIiEEEENS1_IPiS6_EEET1_T0_SB_SA_, @function
_ZSt13__copy_move_aILb0EN9__gnu_cxx17__normal_iteratorIPKiSt6vectorIiSaIiEEEENS1_IPiS6_EEET1_T0_SB_SA_:
.LFB11078:
	.cfi_startproc
	endbr64
	push	rbp
	.cfi_def_cfa_offset 16
	.cfi_offset 6, -16
	mov	rbp, rsp
	.cfi_def_cfa_register 6
	push	r12
	push	rbx
	sub	rsp, 32
	.cfi_offset 12, -24
	.cfi_offset 3, -32
	mov	QWORD PTR -24[rbp], rdi
	mov	QWORD PTR -32[rbp], rsi
	mov	QWORD PTR -40[rbp], rdx
	mov	rax, QWORD PTR -40[rbp]
	mov	rdi, rax
	call	_ZSt12__niter_baseIPiSt6vectorIiSaIiEEET_N9__gnu_cxx17__normal_iteratorIS4_T0_EE
	mov	r12, rax
	mov	rax, QWORD PTR -32[rbp]
	mov	rdi, rax
	call	_ZSt12__niter_baseIPKiSt6vectorIiSaIiEEET_N9__gnu_cxx17__normal_iteratorIS5_T0_EE
	mov	rbx, rax
	mov	rax, QWORD PTR -24[rbp]
	mov	rdi, rax
	call	_ZSt12__niter_baseIPKiSt6vectorIiSaIiEEET_N9__gnu_cxx17__normal_iteratorIS5_T0_EE
	mov	rdx, r12
	mov	rsi, rbx
	mov	rdi, rax
	call	_ZSt14__copy_move_a1ILb0EPKiPiET1_T0_S4_S3_
	mov	rdx, rax
	mov	rax, QWORD PTR -40[rbp]
	mov	rsi, rdx
	mov	rdi, rax
	call	_ZSt12__niter_wrapIN9__gnu_cxx17__normal_iteratorIPiSt6vectorIiSaIiEEEES2_ET_S7_T0_
	add	rsp, 32
	pop	rbx
	pop	r12
	pop	rbp
	.cfi_def_cfa 7, 8
	ret
	.cfi_endproc
.LFE11078:
	.size	_ZSt13__copy_move_aILb0EN9__gnu_cxx17__normal_iteratorIPKiSt6vectorIiSaIiEEEENS1_IPiS6_EEET1_T0_SB_SA_, .-_ZSt13__copy_move_aILb0EN9__gnu_cxx17__normal_iteratorIPKiSt6vectorIiSaIiEEEENS1_IPiS6_EEET1_T0_SB_SA_
	.section	.text._ZSt8_DestroyIN9__gnu_cxx17__normal_iteratorIPiSt6vectorIiSaIiEEEEEvT_S7_,"axG",@progbits,_ZSt8_DestroyIN9__gnu_cxx17__normal_iteratorIPiSt6vectorIiSaIiEEEEEvT_S7_,comdat
	.weak	_ZSt8_DestroyIN9__gnu_cxx17__normal_iteratorIPiSt6vectorIiSaIiEEEEEvT_S7_
	.type	_ZSt8_DestroyIN9__gnu_cxx17__normal_iteratorIPiSt6vectorIiSaIiEEEEEvT_S7_, @function
_ZSt8_DestroyIN9__gnu_cxx17__normal_iteratorIPiSt6vectorIiSaIiEEEEEvT_S7_:
.LFB11081:
	.cfi_startproc
	endbr64
	push	rbp
	.cfi_def_cfa_offset 16
	.cfi_offset 6, -16
	mov	rbp, rsp
	.cfi_def_cfa_register 6
	sub	rsp, 16
	mov	QWORD PTR -8[rbp], rdi
	mov	QWORD PTR -16[rbp], rsi
	mov	rdx, QWORD PTR -16[rbp]
	mov	rax, QWORD PTR -8[rbp]
	mov	rsi, rdx
	mov	rdi, rax
	call	_ZNSt12_Destroy_auxILb1EE9__destroyIN9__gnu_cxx17__normal_iteratorIPiSt6vectorIiSaIiEEEEEEvT_S9_
	nop
	leave
	.cfi_def_cfa 7, 8
	ret
	.cfi_endproc
.LFE11081:
	.size	_ZSt8_DestroyIN9__gnu_cxx17__normal_iteratorIPiSt6vectorIiSaIiEEEEEvT_S7_, .-_ZSt8_DestroyIN9__gnu_cxx17__normal_iteratorIPiSt6vectorIiSaIiEEEEEvT_S7_
	.section	.text._ZSt12__miter_baseIPiET_S1_,"axG",@progbits,_ZSt12__miter_baseIPiET_S1_,comdat
	.weak	_ZSt12__miter_baseIPiET_S1_
	.type	_ZSt12__miter_baseIPiET_S1_, @function
_ZSt12__miter_baseIPiET_S1_:
.LFB11082:
	.cfi_startproc
	endbr64
	push	rbp
	.cfi_def_cfa_offset 16
	.cfi_offset 6, -16
	mov	rbp, rsp
	.cfi_def_cfa_register 6
	mov	QWORD PTR -8[rbp], rdi
	mov	rax, QWORD PTR -8[rbp]
	pop	rbp
	.cfi_def_cfa 7, 8
	ret
	.cfi_endproc
.LFE11082:
	.size	_ZSt12__miter_baseIPiET_S1_, .-_ZSt12__miter_baseIPiET_S1_
	.section	.text._ZSt13__copy_move_aILb0EPiS0_ET1_T0_S2_S1_,"axG",@progbits,_ZSt13__copy_move_aILb0EPiS0_ET1_T0_S2_S1_,comdat
	.weak	_ZSt13__copy_move_aILb0EPiS0_ET1_T0_S2_S1_
	.type	_ZSt13__copy_move_aILb0EPiS0_ET1_T0_S2_S1_, @function
_ZSt13__copy_move_aILb0EPiS0_ET1_T0_S2_S1_:
.LFB11083:
	.cfi_startproc
	endbr64
	push	rbp
	.cfi_def_cfa_offset 16
	.cfi_offset 6, -16
	mov	rbp, rsp
	.cfi_def_cfa_register 6
	push	r12
	push	rbx
	sub	rsp, 32
	.cfi_offset 12, -24
	.cfi_offset 3, -32
	mov	QWORD PTR -24[rbp], rdi
	mov	QWORD PTR -32[rbp], rsi
	mov	QWORD PTR -40[rbp], rdx
	mov	rax, QWORD PTR -40[rbp]
	mov	rdi, rax
	call	_ZSt12__niter_baseIPiET_S1_
	mov	r12, rax
	mov	rax, QWORD PTR -32[rbp]
	mov	rdi, rax
	call	_ZSt12__niter_baseIPiET_S1_
	mov	rbx, rax
	mov	rax, QWORD PTR -24[rbp]
	mov	rdi, rax
	call	_ZSt12__niter_baseIPiET_S1_
	mov	rdx, r12
	mov	rsi, rbx
	mov	rdi, rax
	call	_ZSt14__copy_move_a1ILb0EPiS0_ET1_T0_S2_S1_
	mov	rdx, rax
	lea	rax, -40[rbp]
	mov	rsi, rdx
	mov	rdi, rax
	call	_ZSt12__niter_wrapIPiET_RKS1_S1_
	add	rsp, 32
	pop	rbx
	pop	r12
	pop	rbp
	.cfi_def_cfa 7, 8
	ret
	.cfi_endproc
.LFE11083:
	.size	_ZSt13__copy_move_aILb0EPiS0_ET1_T0_S2_S1_, .-_ZSt13__copy_move_aILb0EPiS0_ET1_T0_S2_S1_
	.section	.text._ZSt18uninitialized_copyIPiS0_ET0_T_S2_S1_,"axG",@progbits,_ZSt18uninitialized_copyIPiS0_ET0_T_S2_S1_,comdat
	.weak	_ZSt18uninitialized_copyIPiS0_ET0_T_S2_S1_
	.type	_ZSt18uninitialized_copyIPiS0_ET0_T_S2_S1_, @function
_ZSt18uninitialized_copyIPiS0_ET0_T_S2_S1_:
.LFB11084:
	.cfi_startproc
	endbr64
	push	rbp
	.cfi_def_cfa_offset 16
	.cfi_offset 6, -16
	mov	rbp, rsp
	.cfi_def_cfa_register 6
	sub	rsp, 48
	mov	QWORD PTR -24[rbp], rdi
	mov	QWORD PTR -32[rbp], rsi
	mov	QWORD PTR -40[rbp], rdx
	mov	BYTE PTR -1[rbp], 1
	mov	rdx, QWORD PTR -40[rbp]
	mov	rcx, QWORD PTR -32[rbp]
	mov	rax, QWORD PTR -24[rbp]
	mov	rsi, rcx
	mov	rdi, rax
	call	_ZNSt20__uninitialized_copyILb1EE13__uninit_copyIPiS2_EET0_T_S4_S3_
	leave
	.cfi_def_cfa 7, 8
	ret
	.cfi_endproc
.LFE11084:
	.size	_ZSt18uninitialized_copyIPiS0_ET0_T_S2_S1_, .-_ZSt18uninitialized_copyIPiS0_ET0_T_S2_S1_
	.section	.text._ZN9__gnu_cxxneIPiSt6vectorIiSaIiEEEEbRKNS_17__normal_iteratorIT_T0_EESA_,"axG",@progbits,_ZN9__gnu_cxxneIPiSt6vectorIiSaIiEEEEbRKNS_17__normal_iteratorIT_T0_EESA_,comdat
	.weak	_ZN9__gnu_cxxneIPiSt6vectorIiSaIiEEEEbRKNS_17__normal_iteratorIT_T0_EESA_
	.type	_ZN9__gnu_cxxneIPiSt6vectorIiSaIiEEEEbRKNS_17__normal_iteratorIT_T0_EESA_, @function
_ZN9__gnu_cxxneIPiSt6vectorIiSaIiEEEEbRKNS_17__normal_iteratorIT_T0_EESA_:
.LFB11086:
	.cfi_startproc
	endbr64
	push	rbp
	.cfi_def_cfa_offset 16
	.cfi_offset 6, -16
	mov	rbp, rsp
	.cfi_def_cfa_register 6
	push	rbx
	sub	rsp, 24
	.cfi_offset 3, -24
	mov	QWORD PTR -24[rbp], rdi
	mov	QWORD PTR -32[rbp], rsi
	mov	rax, QWORD PTR -24[rbp]
	mov	rdi, rax
	call	_ZNK9__gnu_cxx17__normal_iteratorIPiSt6vectorIiSaIiEEE4baseEv
	mov	rbx, QWORD PTR [rax]
	mov	rax, QWORD PTR -32[rbp]
	mov	rdi, rax
	call	_ZNK9__gnu_cxx17__normal_iteratorIPiSt6vectorIiSaIiEEE4baseEv
	mov	rax, QWORD PTR [rax]
	cmp	rbx, rax
	setne	al
	mov	rbx, QWORD PTR -8[rbp]
	leave
	.cfi_def_cfa 7, 8
	ret
	.cfi_endproc
.LFE11086:
	.size	_ZN9__gnu_cxxneIPiSt6vectorIiSaIiEEEEbRKNS_17__normal_iteratorIT_T0_EESA_, .-_ZN9__gnu_cxxneIPiSt6vectorIiSaIiEEEEbRKNS_17__normal_iteratorIT_T0_EESA_
	.section	.text._ZSt16__introsort_loopIN9__gnu_cxx17__normal_iteratorIPiSt6vectorIiSaIiEEEElNS0_5__ops15_Iter_less_iterEEvT_S9_T0_T1_,"axG",@progbits,_ZSt16__introsort_loopIN9__gnu_cxx17__normal_iteratorIPiSt6vectorIiSaIiEEEElNS0_5__ops15_Iter_less_iterEEvT_S9_T0_T1_,comdat
	.weak	_ZSt16__introsort_loopIN9__gnu_cxx17__normal_iteratorIPiSt6vectorIiSaIiEEEElNS0_5__ops15_Iter_less_iterEEvT_S9_T0_T1_
	.type	_ZSt16__introsort_loopIN9__gnu_cxx17__normal_iteratorIPiSt6vectorIiSaIiEEEElNS0_5__ops15_Iter_less_iterEEvT_S9_T0_T1_, @function
_ZSt16__introsort_loopIN9__gnu_cxx17__normal_iteratorIPiSt6vectorIiSaIiEEEElNS0_5__ops15_Iter_less_iterEEvT_S9_T0_T1_:
.LFB11087:
	.cfi_startproc
	endbr64
	push	rbp
	.cfi_def_cfa_offset 16
	.cfi_offset 6, -16
	mov	rbp, rsp
	.cfi_def_cfa_register 6
	sub	rsp, 48
	mov	QWORD PTR -24[rbp], rdi
	mov	QWORD PTR -32[rbp], rsi
	mov	QWORD PTR -40[rbp], rdx
	mov	rax, QWORD PTR fs:40
	mov	QWORD PTR -8[rbp], rax
	xor	eax, eax
	jmp	.L177
.L180:
	cmp	QWORD PTR -40[rbp], 0
	jne	.L178
	mov	rdx, QWORD PTR -32[rbp]
	mov	rcx, QWORD PTR -32[rbp]
	mov	rax, QWORD PTR -24[rbp]
	mov	rsi, rcx
	mov	rdi, rax
	call	_ZSt14__partial_sortIN9__gnu_cxx17__normal_iteratorIPiSt6vectorIiSaIiEEEENS0_5__ops15_Iter_less_iterEEvT_S9_S9_T0_
	jmp	.L176
.L178:
	sub	QWORD PTR -40[rbp], 1
	mov	rdx, QWORD PTR -32[rbp]
	mov	rax, QWORD PTR -24[rbp]
	mov	rsi, rdx
	mov	rdi, rax
	call	_ZSt27__unguarded_partition_pivotIN9__gnu_cxx17__normal_iteratorIPiSt6vectorIiSaIiEEEENS0_5__ops15_Iter_less_iterEET_S9_S9_T0_
	mov	QWORD PTR -16[rbp], rax
	mov	rdx, QWORD PTR -40[rbp]
	mov	rcx, QWORD PTR -32[rbp]
	mov	rax, QWORD PTR -16[rbp]
	mov	rsi, rcx
	mov	rdi, rax
	call	_ZSt16__introsort_loopIN9__gnu_cxx17__normal_iteratorIPiSt6vectorIiSaIiEEEElNS0_5__ops15_Iter_less_iterEEvT_S9_T0_T1_
	mov	rax, QWORD PTR -16[rbp]
	mov	QWORD PTR -32[rbp], rax
.L177:
	lea	rdx, -24[rbp]
	lea	rax, -32[rbp]
	mov	rsi, rdx
	mov	rdi, rax
	call	_ZN9__gnu_cxxmiIPiSt6vectorIiSaIiEEEENS_17__normal_iteratorIT_T0_E15difference_typeERKS8_SB_
	cmp	rax, 16
	setg	al
	test	al, al
	jne	.L180
.L176:
	mov	rax, QWORD PTR -8[rbp]
	sub	rax, QWORD PTR fs:40
	je	.L181
	call	__stack_chk_fail@PLT
.L181:
	leave
	.cfi_def_cfa 7, 8
	ret
	.cfi_endproc
.LFE11087:
	.size	_ZSt16__introsort_loopIN9__gnu_cxx17__normal_iteratorIPiSt6vectorIiSaIiEEEElNS0_5__ops15_Iter_less_iterEEvT_S9_T0_T1_, .-_ZSt16__introsort_loopIN9__gnu_cxx17__normal_iteratorIPiSt6vectorIiSaIiEEEElNS0_5__ops15_Iter_less_iterEEvT_S9_T0_T1_
	.section	.text._ZSt22__final_insertion_sortIN9__gnu_cxx17__normal_iteratorIPiSt6vectorIiSaIiEEEENS0_5__ops15_Iter_less_iterEEvT_S9_T0_,"axG",@progbits,_ZSt22__final_insertion_sortIN9__gnu_cxx17__normal_iteratorIPiSt6vectorIiSaIiEEEENS0_5__ops15_Iter_less_iterEEvT_S9_T0_,comdat
	.weak	_ZSt22__final_insertion_sortIN9__gnu_cxx17__normal_iteratorIPiSt6vectorIiSaIiEEEENS0_5__ops15_Iter_less_iterEEvT_S9_T0_
	.type	_ZSt22__final_insertion_sortIN9__gnu_cxx17__normal_iteratorIPiSt6vectorIiSaIiEEEENS0_5__ops15_Iter_less_iterEEvT_S9_T0_, @function
_ZSt22__final_insertion_sortIN9__gnu_cxx17__normal_iteratorIPiSt6vectorIiSaIiEEEENS0_5__ops15_Iter_less_iterEEvT_S9_T0_:
.LFB11088:
	.cfi_startproc
	endbr64
	push	rbp
	.cfi_def_cfa_offset 16
	.cfi_offset 6, -16
	mov	rbp, rsp
	.cfi_def_cfa_register 6
	sub	rsp, 32
	mov	QWORD PTR -8[rbp], rdi
	mov	QWORD PTR -16[rbp], rsi
	lea	rdx, -8[rbp]
	lea	rax, -16[rbp]
	mov	rsi, rdx
	mov	rdi, rax
	call	_ZN9__gnu_cxxmiIPiSt6vectorIiSaIiEEEENS_17__normal_iteratorIT_T0_E15difference_typeERKS8_SB_
	cmp	rax, 16
	setg	al
	test	al, al
	je	.L183
	lea	rax, -8[rbp]
	mov	esi, 16
	mov	rdi, rax
	call	_ZNK9__gnu_cxx17__normal_iteratorIPiSt6vectorIiSaIiEEEplEl
	mov	rdx, rax
	mov	rax, QWORD PTR -8[rbp]
	mov	rsi, rdx
	mov	rdi, rax
	call	_ZSt16__insertion_sortIN9__gnu_cxx17__normal_iteratorIPiSt6vectorIiSaIiEEEENS0_5__ops15_Iter_less_iterEEvT_S9_T0_
	lea	rax, -8[rbp]
	mov	esi, 16
	mov	rdi, rax
	call	_ZNK9__gnu_cxx17__normal_iteratorIPiSt6vectorIiSaIiEEEplEl
	mov	rdx, rax
	mov	rax, QWORD PTR -16[rbp]
	mov	rsi, rax
	mov	rdi, rdx
	call	_ZSt26__unguarded_insertion_sortIN9__gnu_cxx17__normal_iteratorIPiSt6vectorIiSaIiEEEENS0_5__ops15_Iter_less_iterEEvT_S9_T0_
	jmp	.L185
.L183:
	mov	rdx, QWORD PTR -16[rbp]
	mov	rax, QWORD PTR -8[rbp]
	mov	rsi, rdx
	mov	rdi, rax
	call	_ZSt16__insertion_sortIN9__gnu_cxx17__normal_iteratorIPiSt6vectorIiSaIiEEEENS0_5__ops15_Iter_less_iterEEvT_S9_T0_
.L185:
	nop
	leave
	.cfi_def_cfa 7, 8
	ret
	.cfi_endproc
.LFE11088:
	.size	_ZSt22__final_insertion_sortIN9__gnu_cxx17__normal_iteratorIPiSt6vectorIiSaIiEEEENS0_5__ops15_Iter_less_iterEEvT_S9_T0_, .-_ZSt22__final_insertion_sortIN9__gnu_cxx17__normal_iteratorIPiSt6vectorIiSaIiEEEENS0_5__ops15_Iter_less_iterEEvT_S9_T0_
	.section	.text._ZSt19__iterator_categoryIN9__gnu_cxx17__normal_iteratorIPiSt6vectorIiSaIiEEEEENSt15iterator_traitsIT_E17iterator_categoryERKS8_,"axG",@progbits,_ZSt19__iterator_categoryIN9__gnu_cxx17__normal_iteratorIPiSt6vectorIiSaIiEEEEENSt15iterator_traitsIT_E17iterator_categoryERKS8_,comdat
	.weak	_ZSt19__iterator_categoryIN9__gnu_cxx17__normal_iteratorIPiSt6vectorIiSaIiEEEEENSt15iterator_traitsIT_E17iterator_categoryERKS8_
	.type	_ZSt19__iterator_categoryIN9__gnu_cxx17__normal_iteratorIPiSt6vectorIiSaIiEEEEENSt15iterator_traitsIT_E17iterator_categoryERKS8_, @function
_ZSt19__iterator_categoryIN9__gnu_cxx17__normal_iteratorIPiSt6vectorIiSaIiEEEEENSt15iterator_traitsIT_E17iterator_categoryERKS8_:
.LFB11089:
	.cfi_startproc
	endbr64
	push	rbp
	.cfi_def_cfa_offset 16
	.cfi_offset 6, -16
	mov	rbp, rsp
	.cfi_def_cfa_register 6
	mov	QWORD PTR -8[rbp], rdi
	pop	rbp
	.cfi_def_cfa 7, 8
	ret
	.cfi_endproc
.LFE11089:
	.size	_ZSt19__iterator_categoryIN9__gnu_cxx17__normal_iteratorIPiSt6vectorIiSaIiEEEEENSt15iterator_traitsIT_E17iterator_categoryERKS8_, .-_ZSt19__iterator_categoryIN9__gnu_cxx17__normal_iteratorIPiSt6vectorIiSaIiEEEEENSt15iterator_traitsIT_E17iterator_categoryERKS8_
	.section	.text._ZSt10__distanceIN9__gnu_cxx17__normal_iteratorIPiSt6vectorIiSaIiEEEEENSt15iterator_traitsIT_E15difference_typeES8_S8_St26random_access_iterator_tag,"axG",@progbits,_ZSt10__distanceIN9__gnu_cxx17__normal_iteratorIPiSt6vectorIiSaIiEEEEENSt15iterator_traitsIT_E15difference_typeES8_S8_St26random_access_iterator_tag,comdat
	.weak	_ZSt10__distanceIN9__gnu_cxx17__normal_iteratorIPiSt6vectorIiSaIiEEEEENSt15iterator_traitsIT_E15difference_typeES8_S8_St26random_access_iterator_tag
	.type	_ZSt10__distanceIN9__gnu_cxx17__normal_iteratorIPiSt6vectorIiSaIiEEEEENSt15iterator_traitsIT_E15difference_typeES8_S8_St26random_access_iterator_tag, @function
_ZSt10__distanceIN9__gnu_cxx17__normal_iteratorIPiSt6vectorIiSaIiEEEEENSt15iterator_traitsIT_E15difference_typeES8_S8_St26random_access_iterator_tag:
.LFB11090:
	.cfi_startproc
	endbr64
	push	rbp
	.cfi_def_cfa_offset 16
	.cfi_offset 6, -16
	mov	rbp, rsp
	.cfi_def_cfa_register 6
	sub	rsp, 16
	mov	QWORD PTR -8[rbp], rdi
	mov	QWORD PTR -16[rbp], rsi
	lea	rdx, -8[rbp]
	lea	rax, -16[rbp]
	mov	rsi, rdx
	mov	rdi, rax
	call	_ZN9__gnu_cxxmiIPiSt6vectorIiSaIiEEEENS_17__normal_iteratorIT_T0_E15difference_typeERKS8_SB_
	leave
	.cfi_def_cfa 7, 8
	ret
	.cfi_endproc
.LFE11090:
	.size	_ZSt10__distanceIN9__gnu_cxx17__normal_iteratorIPiSt6vectorIiSaIiEEEEENSt15iterator_traitsIT_E15difference_typeES8_S8_St26random_access_iterator_tag, .-_ZSt10__distanceIN9__gnu_cxx17__normal_iteratorIPiSt6vectorIiSaIiEEEEENSt15iterator_traitsIT_E15difference_typeES8_S8_St26random_access_iterator_tag
	.section	.text._ZSt7advanceIN9__gnu_cxx17__normal_iteratorIPiSt6vectorIiSaIiEEEElEvRT_T0_,"axG",@progbits,_ZSt7advanceIN9__gnu_cxx17__normal_iteratorIPiSt6vectorIiSaIiEEEElEvRT_T0_,comdat
	.weak	_ZSt7advanceIN9__gnu_cxx17__normal_iteratorIPiSt6vectorIiSaIiEEEElEvRT_T0_
	.type	_ZSt7advanceIN9__gnu_cxx17__normal_iteratorIPiSt6vectorIiSaIiEEEElEvRT_T0_, @function
_ZSt7advanceIN9__gnu_cxx17__normal_iteratorIPiSt6vectorIiSaIiEEEElEvRT_T0_:
.LFB11091:
	.cfi_startproc
	endbr64
	push	rbp
	.cfi_def_cfa_offset 16
	.cfi_offset 6, -16
	mov	rbp, rsp
	.cfi_def_cfa_register 6
	sub	rsp, 32
	mov	QWORD PTR -24[rbp], rdi
	mov	QWORD PTR -32[rbp], rsi
	mov	rax, QWORD PTR -32[rbp]
	mov	QWORD PTR -8[rbp], rax
	mov	rax, QWORD PTR -24[rbp]
	mov	rdi, rax
	call	_ZSt19__iterator_categoryIN9__gnu_cxx17__normal_iteratorIPiSt6vectorIiSaIiEEEEENSt15iterator_traitsIT_E17iterator_categoryERKS8_
	mov	rdx, QWORD PTR -8[rbp]
	mov	rax, QWORD PTR -24[rbp]
	mov	rsi, rdx
	mov	rdi, rax
	call	_ZSt9__advanceIN9__gnu_cxx17__normal_iteratorIPiSt6vectorIiSaIiEEEElEvRT_T0_St26random_access_iterator_tag
	nop
	leave
	.cfi_def_cfa 7, 8
	ret
	.cfi_endproc
.LFE11091:
	.size	_ZSt7advanceIN9__gnu_cxx17__normal_iteratorIPiSt6vectorIiSaIiEEEElEvRT_T0_, .-_ZSt7advanceIN9__gnu_cxx17__normal_iteratorIPiSt6vectorIiSaIiEEEElEvRT_T0_
	.section	.text._ZNK9__gnu_cxx5__ops14_Iter_less_valclINS_17__normal_iteratorIPiSt6vectorIiSaIiEEEEKiEEbT_RT0_,"axG",@progbits,_ZNK9__gnu_cxx5__ops14_Iter_less_valclINS_17__normal_iteratorIPiSt6vectorIiSaIiEEEEKiEEbT_RT0_,comdat
	.align 2
	.weak	_ZNK9__gnu_cxx5__ops14_Iter_less_valclINS_17__normal_iteratorIPiSt6vectorIiSaIiEEEEKiEEbT_RT0_
	.type	_ZNK9__gnu_cxx5__ops14_Iter_less_valclINS_17__normal_iteratorIPiSt6vectorIiSaIiEEEEKiEEbT_RT0_, @function
_ZNK9__gnu_cxx5__ops14_Iter_less_valclINS_17__normal_iteratorIPiSt6vectorIiSaIiEEEEKiEEbT_RT0_:
.LFB11092:
	.cfi_startproc
	endbr64
	push	rbp
	.cfi_def_cfa_offset 16
	.cfi_offset 6, -16
	mov	rbp, rsp
	.cfi_def_cfa_register 6
	sub	rsp, 32
	mov	QWORD PTR -8[rbp], rdi
	mov	QWORD PTR -16[rbp], rsi
	mov	QWORD PTR -24[rbp], rdx
	lea	rax, -16[rbp]
	mov	rdi, rax
	call	_ZNK9__gnu_cxx17__normal_iteratorIPiSt6vectorIiSaIiEEEdeEv
	mov	edx, DWORD PTR [rax]
	mov	rax, QWORD PTR -24[rbp]
	mov	eax, DWORD PTR [rax]
	cmp	edx, eax
	setl	al
	leave
	.cfi_def_cfa 7, 8
	ret
	.cfi_endproc
.LFE11092:
	.size	_ZNK9__gnu_cxx5__ops14_Iter_less_valclINS_17__normal_iteratorIPiSt6vectorIiSaIiEEEEKiEEbT_RT0_, .-_ZNK9__gnu_cxx5__ops14_Iter_less_valclINS_17__normal_iteratorIPiSt6vectorIiSaIiEEEEKiEEbT_RT0_
	.section	.text._ZN9__gnu_cxx17__normal_iteratorIPiSt6vectorIiSaIiEEEppEv,"axG",@progbits,_ZN9__gnu_cxx17__normal_iteratorIPiSt6vectorIiSaIiEEEppEv,comdat
	.align 2
	.weak	_ZN9__gnu_cxx17__normal_iteratorIPiSt6vectorIiSaIiEEEppEv
	.type	_ZN9__gnu_cxx17__normal_iteratorIPiSt6vectorIiSaIiEEEppEv, @function
_ZN9__gnu_cxx17__normal_iteratorIPiSt6vectorIiSaIiEEEppEv:
.LFB11093:
	.cfi_startproc
	endbr64
	push	rbp
	.cfi_def_cfa_offset 16
	.cfi_offset 6, -16
	mov	rbp, rsp
	.cfi_def_cfa_register 6
	mov	QWORD PTR -8[rbp], rdi
	mov	rax, QWORD PTR -8[rbp]
	mov	rax, QWORD PTR [rax]
	lea	rdx, 4[rax]
	mov	rax, QWORD PTR -8[rbp]
	mov	QWORD PTR [rax], rdx
	mov	rax, QWORD PTR -8[rbp]
	pop	rbp
	.cfi_def_cfa 7, 8
	ret
	.cfi_endproc
.LFE11093:
	.size	_ZN9__gnu_cxx17__normal_iteratorIPiSt6vectorIiSaIiEEEppEv, .-_ZN9__gnu_cxx17__normal_iteratorIPiSt6vectorIiSaIiEEEppEv
	.section	.text._ZNK9__gnu_cxx5__ops14_Val_less_iterclIKiNS_17__normal_iteratorIPiSt6vectorIiSaIiEEEEEEbRT_T0_,"axG",@progbits,_ZNK9__gnu_cxx5__ops14_Val_less_iterclIKiNS_17__normal_iteratorIPiSt6vectorIiSaIiEEEEEEbRT_T0_,comdat
	.align 2
	.weak	_ZNK9__gnu_cxx5__ops14_Val_less_iterclIKiNS_17__normal_iteratorIPiSt6vectorIiSaIiEEEEEEbRT_T0_
	.type	_ZNK9__gnu_cxx5__ops14_Val_less_iterclIKiNS_17__normal_iteratorIPiSt6vectorIiSaIiEEEEEEbRT_T0_, @function
_ZNK9__gnu_cxx5__ops14_Val_less_iterclIKiNS_17__normal_iteratorIPiSt6vectorIiSaIiEEEEEEbRT_T0_:
.LFB11095:
	.cfi_startproc
	endbr64
	push	rbp
	.cfi_def_cfa_offset 16
	.cfi_offset 6, -16
	mov	rbp, rsp
	.cfi_def_cfa_register 6
	push	rbx
	sub	rsp, 40
	.cfi_offset 3, -24
	mov	QWORD PTR -24[rbp], rdi
	mov	QWORD PTR -32[rbp], rsi
	mov	QWORD PTR -40[rbp], rdx
	mov	rax, QWORD PTR -32[rbp]
	mov	ebx, DWORD PTR [rax]
	lea	rax, -40[rbp]
	mov	rdi, rax
	call	_ZNK9__gnu_cxx17__normal_iteratorIPiSt6vectorIiSaIiEEEdeEv
	mov	eax, DWORD PTR [rax]
	cmp	ebx, eax
	setl	al
	mov	rbx, QWORD PTR -8[rbp]
	leave
	.cfi_def_cfa 7, 8
	ret
	.cfi_endproc
.LFE11095:
	.size	_ZNK9__gnu_cxx5__ops14_Val_less_iterclIKiNS_17__normal_iteratorIPiSt6vectorIiSaIiEEEEEEbRT_T0_, .-_ZNK9__gnu_cxx5__ops14_Val_less_iterclIKiNS_17__normal_iteratorIPiSt6vectorIiSaIiEEEEEEbRT_T0_
	.section	.text._ZNSt16allocator_traitsISaIiEE8max_sizeERKS0_,"axG",@progbits,_ZNSt16allocator_traitsISaIiEE8max_sizeERKS0_,comdat
	.weak	_ZNSt16allocator_traitsISaIiEE8max_sizeERKS0_
	.type	_ZNSt16allocator_traitsISaIiEE8max_sizeERKS0_, @function
_ZNSt16allocator_traitsISaIiEE8max_sizeERKS0_:
.LFB11232:
	.cfi_startproc
	endbr64
	push	rbp
	.cfi_def_cfa_offset 16
	.cfi_offset 6, -16
	mov	rbp, rsp
	.cfi_def_cfa_register 6
	sub	rsp, 16
	mov	QWORD PTR -8[rbp], rdi
	mov	rax, QWORD PTR -8[rbp]
	mov	rdi, rax
	call	_ZNK9__gnu_cxx13new_allocatorIiE8max_sizeEv
	leave
	.cfi_def_cfa 7, 8
	ret
	.cfi_endproc
.LFE11232:
	.size	_ZNSt16allocator_traitsISaIiEE8max_sizeERKS0_, .-_ZNSt16allocator_traitsISaIiEE8max_sizeERKS0_
	.section	.text._ZN9__gnu_cxx13new_allocatorIiEC2ERKS1_,"axG",@progbits,_ZN9__gnu_cxx13new_allocatorIiEC5ERKS1_,comdat
	.align 2
	.weak	_ZN9__gnu_cxx13new_allocatorIiEC2ERKS1_
	.type	_ZN9__gnu_cxx13new_allocatorIiEC2ERKS1_, @function
_ZN9__gnu_cxx13new_allocatorIiEC2ERKS1_:
.LFB11234:
	.cfi_startproc
	endbr64
	push	rbp
	.cfi_def_cfa_offset 16
	.cfi_offset 6, -16
	mov	rbp, rsp
	.cfi_def_cfa_register 6
	mov	QWORD PTR -8[rbp], rdi
	mov	QWORD PTR -16[rbp], rsi
	nop
	pop	rbp
	.cfi_def_cfa 7, 8
	ret
	.cfi_endproc
.LFE11234:
	.size	_ZN9__gnu_cxx13new_allocatorIiEC2ERKS1_, .-_ZN9__gnu_cxx13new_allocatorIiEC2ERKS1_
	.weak	_ZN9__gnu_cxx13new_allocatorIiEC1ERKS1_
	.set	_ZN9__gnu_cxx13new_allocatorIiEC1ERKS1_,_ZN9__gnu_cxx13new_allocatorIiEC2ERKS1_
	.section	.text._ZSt25__uninitialized_default_nIPimET_S1_T0_,"axG",@progbits,_ZSt25__uninitialized_default_nIPimET_S1_T0_,comdat
	.weak	_ZSt25__uninitialized_default_nIPimET_S1_T0_
	.type	_ZSt25__uninitialized_default_nIPimET_S1_T0_, @function
_ZSt25__uninitialized_default_nIPimET_S1_T0_:
.LFB11236:
	.cfi_startproc
	endbr64
	push	rbp
	.cfi_def_cfa_offset 16
	.cfi_offset 6, -16
	mov	rbp, rsp
	.cfi_def_cfa_register 6
	sub	rsp, 32
	mov	QWORD PTR -24[rbp], rdi
	mov	QWORD PTR -32[rbp], rsi
	mov	BYTE PTR -1[rbp], 1
	mov	rdx, QWORD PTR -32[rbp]
	mov	rax, QWORD PTR -24[rbp]
	mov	rsi, rdx
	mov	rdi, rax
	call	_ZNSt27__uninitialized_default_n_1ILb1EE18__uninit_default_nIPimEET_S3_T0_
	leave
	.cfi_def_cfa 7, 8
	ret
	.cfi_endproc
.LFE11236:
	.size	_ZSt25__uninitialized_default_nIPimET_S1_T0_, .-_ZSt25__uninitialized_default_nIPimET_S1_T0_
	.section	.text._ZNSt12_Destroy_auxILb1EE9__destroyIPiEEvT_S3_,"axG",@progbits,_ZNSt12_Destroy_auxILb1EE9__destroyIPiEEvT_S3_,comdat
	.weak	_ZNSt12_Destroy_auxILb1EE9__destroyIPiEEvT_S3_
	.type	_ZNSt12_Destroy_auxILb1EE9__destroyIPiEEvT_S3_, @function
_ZNSt12_Destroy_auxILb1EE9__destroyIPiEEvT_S3_:
.LFB11237:
	.cfi_startproc
	endbr64
	push	rbp
	.cfi_def_cfa_offset 16
	.cfi_offset 6, -16
	mov	rbp, rsp
	.cfi_def_cfa_register 6
	mov	QWORD PTR -8[rbp], rdi
	mov	QWORD PTR -16[rbp], rsi
	nop
	pop	rbp
	.cfi_def_cfa 7, 8
	ret
	.cfi_endproc
.LFE11237:
	.size	_ZNSt12_Destroy_auxILb1EE9__destroyIPiEEvT_S3_, .-_ZNSt12_Destroy_auxILb1EE9__destroyIPiEEvT_S3_
	.section	.text._ZN9__gnu_cxx13new_allocatorIiE10deallocateEPim,"axG",@progbits,_ZN9__gnu_cxx13new_allocatorIiE10deallocateEPim,comdat
	.align 2
	.weak	_ZN9__gnu_cxx13new_allocatorIiE10deallocateEPim
	.type	_ZN9__gnu_cxx13new_allocatorIiE10deallocateEPim, @function
_ZN9__gnu_cxx13new_allocatorIiE10deallocateEPim:
.LFB11238:
	.cfi_startproc
	endbr64
	push	rbp
	.cfi_def_cfa_offset 16
	.cfi_offset 6, -16
	mov	rbp, rsp
	.cfi_def_cfa_register 6
	sub	rsp, 32
	mov	QWORD PTR -8[rbp], rdi
	mov	QWORD PTR -16[rbp], rsi
	mov	QWORD PTR -24[rbp], rdx
	mov	rax, QWORD PTR -24[rbp]
	lea	rdx, 0[0+rax*4]
	mov	rax, QWORD PTR -16[rbp]
	mov	rsi, rdx
	mov	rdi, rax
	call	_ZdlPvm@PLT
	leave
	.cfi_def_cfa 7, 8
	ret
	.cfi_endproc
.LFE11238:
	.size	_ZN9__gnu_cxx13new_allocatorIiE10deallocateEPim, .-_ZN9__gnu_cxx13new_allocatorIiE10deallocateEPim
	.section	.text._ZNSt16allocator_traitsISaIiEE8allocateERS0_m,"axG",@progbits,_ZNSt16allocator_traitsISaIiEE8allocateERS0_m,comdat
	.weak	_ZNSt16allocator_traitsISaIiEE8allocateERS0_m
	.type	_ZNSt16allocator_traitsISaIiEE8allocateERS0_m, @function
_ZNSt16allocator_traitsISaIiEE8allocateERS0_m:
.LFB11239:
	.cfi_startproc
	endbr64
	push	rbp
	.cfi_def_cfa_offset 16
	.cfi_offset 6, -16
	mov	rbp, rsp
	.cfi_def_cfa_register 6
	sub	rsp, 16
	mov	QWORD PTR -8[rbp], rdi
	mov	QWORD PTR -16[rbp], rsi
	mov	rcx, QWORD PTR -16[rbp]
	mov	rax, QWORD PTR -8[rbp]
	mov	edx, 0
	mov	rsi, rcx
	mov	rdi, rax
	call	_ZN9__gnu_cxx13new_allocatorIiE8allocateEmPKv
	leave
	.cfi_def_cfa 7, 8
	ret
	.cfi_endproc
.LFE11239:
	.size	_ZNSt16allocator_traitsISaIiEE8allocateERS0_m, .-_ZNSt16allocator_traitsISaIiEE8allocateERS0_m
	.section	.text._ZSt18uninitialized_copyIN9__gnu_cxx17__normal_iteratorIPKiSt6vectorIiSaIiEEEEPiET0_T_SA_S9_,"axG",@progbits,_ZSt18uninitialized_copyIN9__gnu_cxx17__normal_iteratorIPKiSt6vectorIiSaIiEEEEPiET0_T_SA_S9_,comdat
	.weak	_ZSt18uninitialized_copyIN9__gnu_cxx17__normal_iteratorIPKiSt6vectorIiSaIiEEEEPiET0_T_SA_S9_
	.type	_ZSt18uninitialized_copyIN9__gnu_cxx17__normal_iteratorIPKiSt6vectorIiSaIiEEEEPiET0_T_SA_S9_, @function
_ZSt18uninitialized_copyIN9__gnu_cxx17__normal_iteratorIPKiSt6vectorIiSaIiEEEEPiET0_T_SA_S9_:
.LFB11240:
	.cfi_startproc
	endbr64
	push	rbp
	.cfi_def_cfa_offset 16
	.cfi_offset 6, -16
	mov	rbp, rsp
	.cfi_def_cfa_register 6
	sub	rsp, 48
	mov	QWORD PTR -24[rbp], rdi
	mov	QWORD PTR -32[rbp], rsi
	mov	QWORD PTR -40[rbp], rdx
	mov	BYTE PTR -1[rbp], 1
	mov	rdx, QWORD PTR -40[rbp]
	mov	rcx, QWORD PTR -32[rbp]
	mov	rax, QWORD PTR -24[rbp]
	mov	rsi, rcx
	mov	rdi, rax
	call	_ZNSt20__uninitialized_copyILb1EE13__uninit_copyIN9__gnu_cxx17__normal_iteratorIPKiSt6vectorIiSaIiEEEEPiEET0_T_SC_SB_
	leave
	.cfi_def_cfa 7, 8
	ret
	.cfi_endproc
.LFE11240:
	.size	_ZSt18uninitialized_copyIN9__gnu_cxx17__normal_iteratorIPKiSt6vectorIiSaIiEEEEPiET0_T_SA_S9_, .-_ZSt18uninitialized_copyIN9__gnu_cxx17__normal_iteratorIPKiSt6vectorIiSaIiEEEEPiET0_T_SA_S9_
	.section	.text._ZSt12__niter_baseIPKiSt6vectorIiSaIiEEET_N9__gnu_cxx17__normal_iteratorIS5_T0_EE,"axG",@progbits,_ZSt12__niter_baseIPKiSt6vectorIiSaIiEEET_N9__gnu_cxx17__normal_iteratorIS5_T0_EE,comdat
	.weak	_ZSt12__niter_baseIPKiSt6vectorIiSaIiEEET_N9__gnu_cxx17__normal_iteratorIS5_T0_EE
	.type	_ZSt12__niter_baseIPKiSt6vectorIiSaIiEEET_N9__gnu_cxx17__normal_iteratorIS5_T0_EE, @function
_ZSt12__niter_baseIPKiSt6vectorIiSaIiEEET_N9__gnu_cxx17__normal_iteratorIS5_T0_EE:
.LFB11241:
	.cfi_startproc
	endbr64
	push	rbp
	.cfi_def_cfa_offset 16
	.cfi_offset 6, -16
	mov	rbp, rsp
	.cfi_def_cfa_register 6
	sub	rsp, 16
	mov	QWORD PTR -8[rbp], rdi
	lea	rax, -8[rbp]
	mov	rdi, rax
	call	_ZNK9__gnu_cxx17__normal_iteratorIPKiSt6vectorIiSaIiEEE4baseEv
	mov	rax, QWORD PTR [rax]
	leave
	.cfi_def_cfa 7, 8
	ret
	.cfi_endproc
.LFE11241:
	.size	_ZSt12__niter_baseIPKiSt6vectorIiSaIiEEET_N9__gnu_cxx17__normal_iteratorIS5_T0_EE, .-_ZSt12__niter_baseIPKiSt6vectorIiSaIiEEET_N9__gnu_cxx17__normal_iteratorIS5_T0_EE
	.section	.text._ZSt12__niter_baseIPiSt6vectorIiSaIiEEET_N9__gnu_cxx17__normal_iteratorIS4_T0_EE,"axG",@progbits,_ZSt12__niter_baseIPiSt6vectorIiSaIiEEET_N9__gnu_cxx17__normal_iteratorIS4_T0_EE,comdat
	.weak	_ZSt12__niter_baseIPiSt6vectorIiSaIiEEET_N9__gnu_cxx17__normal_iteratorIS4_T0_EE
	.type	_ZSt12__niter_baseIPiSt6vectorIiSaIiEEET_N9__gnu_cxx17__normal_iteratorIS4_T0_EE, @function
_ZSt12__niter_baseIPiSt6vectorIiSaIiEEET_N9__gnu_cxx17__normal_iteratorIS4_T0_EE:
.LFB11242:
	.cfi_startproc
	endbr64
	push	rbp
	.cfi_def_cfa_offset 16
	.cfi_offset 6, -16
	mov	rbp, rsp
	.cfi_def_cfa_register 6
	sub	rsp, 16
	mov	QWORD PTR -8[rbp], rdi
	lea	rax, -8[rbp]
	mov	rdi, rax
	call	_ZNK9__gnu_cxx17__normal_iteratorIPiSt6vectorIiSaIiEEE4baseEv
	mov	rax, QWORD PTR [rax]
	leave
	.cfi_def_cfa 7, 8
	ret
	.cfi_endproc
.LFE11242:
	.size	_ZSt12__niter_baseIPiSt6vectorIiSaIiEEET_N9__gnu_cxx17__normal_iteratorIS4_T0_EE, .-_ZSt12__niter_baseIPiSt6vectorIiSaIiEEET_N9__gnu_cxx17__normal_iteratorIS4_T0_EE
	.section	.text._ZSt14__copy_move_a1ILb0EPKiPiET1_T0_S4_S3_,"axG",@progbits,_ZSt14__copy_move_a1ILb0EPKiPiET1_T0_S4_S3_,comdat
	.weak	_ZSt14__copy_move_a1ILb0EPKiPiET1_T0_S4_S3_
	.type	_ZSt14__copy_move_a1ILb0EPKiPiET1_T0_S4_S3_, @function
_ZSt14__copy_move_a1ILb0EPKiPiET1_T0_S4_S3_:
.LFB11243:
	.cfi_startproc
	endbr64
	push	rbp
	.cfi_def_cfa_offset 16
	.cfi_offset 6, -16
	mov	rbp, rsp
	.cfi_def_cfa_register 6
	sub	rsp, 32
	mov	QWORD PTR -8[rbp], rdi
	mov	QWORD PTR -16[rbp], rsi
	mov	QWORD PTR -24[rbp], rdx
	mov	rdx, QWORD PTR -24[rbp]
	mov	rcx, QWORD PTR -16[rbp]
	mov	rax, QWORD PTR -8[rbp]
	mov	rsi, rcx
	mov	rdi, rax
	call	_ZSt14__copy_move_a2ILb0EPKiPiET1_T0_S4_S3_
	leave
	.cfi_def_cfa 7, 8
	ret
	.cfi_endproc
.LFE11243:
	.size	_ZSt14__copy_move_a1ILb0EPKiPiET1_T0_S4_S3_, .-_ZSt14__copy_move_a1ILb0EPKiPiET1_T0_S4_S3_
	.section	.text._ZSt12__niter_wrapIN9__gnu_cxx17__normal_iteratorIPiSt6vectorIiSaIiEEEES2_ET_S7_T0_,"axG",@progbits,_ZSt12__niter_wrapIN9__gnu_cxx17__normal_iteratorIPiSt6vectorIiSaIiEEEES2_ET_S7_T0_,comdat
	.weak	_ZSt12__niter_wrapIN9__gnu_cxx17__normal_iteratorIPiSt6vectorIiSaIiEEEES2_ET_S7_T0_
	.type	_ZSt12__niter_wrapIN9__gnu_cxx17__normal_iteratorIPiSt6vectorIiSaIiEEEES2_ET_S7_T0_, @function
_ZSt12__niter_wrapIN9__gnu_cxx17__normal_iteratorIPiSt6vectorIiSaIiEEEES2_ET_S7_T0_:
.LFB11244:
	.cfi_startproc
	endbr64
	push	rbp
	.cfi_def_cfa_offset 16
	.cfi_offset 6, -16
	mov	rbp, rsp
	.cfi_def_cfa_register 6
	sub	rsp, 16
	mov	QWORD PTR -8[rbp], rdi
	mov	QWORD PTR -16[rbp], rsi
	mov	rax, QWORD PTR -8[rbp]
	mov	rdi, rax
	call	_ZSt12__niter_baseIPiSt6vectorIiSaIiEEET_N9__gnu_cxx17__normal_iteratorIS4_T0_EE
	mov	rdx, rax
	mov	rax, QWORD PTR -16[rbp]
	sub	rax, rdx
	sar	rax, 2
	mov	rdx, rax
	lea	rax, -8[rbp]
	mov	rsi, rdx
	mov	rdi, rax
	call	_ZNK9__gnu_cxx17__normal_iteratorIPiSt6vectorIiSaIiEEEplEl
	leave
	.cfi_def_cfa 7, 8
	ret
	.cfi_endproc
.LFE11244:
	.size	_ZSt12__niter_wrapIN9__gnu_cxx17__normal_iteratorIPiSt6vectorIiSaIiEEEES2_ET_S7_T0_, .-_ZSt12__niter_wrapIN9__gnu_cxx17__normal_iteratorIPiSt6vectorIiSaIiEEEES2_ET_S7_T0_
	.section	.text._ZNSt12_Destroy_auxILb1EE9__destroyIN9__gnu_cxx17__normal_iteratorIPiSt6vectorIiSaIiEEEEEEvT_S9_,"axG",@progbits,_ZNSt12_Destroy_auxILb1EE9__destroyIN9__gnu_cxx17__normal_iteratorIPiSt6vectorIiSaIiEEEEEEvT_S9_,comdat
	.weak	_ZNSt12_Destroy_auxILb1EE9__destroyIN9__gnu_cxx17__normal_iteratorIPiSt6vectorIiSaIiEEEEEEvT_S9_
	.type	_ZNSt12_Destroy_auxILb1EE9__destroyIN9__gnu_cxx17__normal_iteratorIPiSt6vectorIiSaIiEEEEEEvT_S9_, @function
_ZNSt12_Destroy_auxILb1EE9__destroyIN9__gnu_cxx17__normal_iteratorIPiSt6vectorIiSaIiEEEEEEvT_S9_:
.LFB11245:
	.cfi_startproc
	endbr64
	push	rbp
	.cfi_def_cfa_offset 16
	.cfi_offset 6, -16
	mov	rbp, rsp
	.cfi_def_cfa_register 6
	mov	QWORD PTR -8[rbp], rdi
	mov	QWORD PTR -16[rbp], rsi
	nop
	pop	rbp
	.cfi_def_cfa 7, 8
	ret
	.cfi_endproc
.LFE11245:
	.size	_ZNSt12_Destroy_auxILb1EE9__destroyIN9__gnu_cxx17__normal_iteratorIPiSt6vectorIiSaIiEEEEEEvT_S9_, .-_ZNSt12_Destroy_auxILb1EE9__destroyIN9__gnu_cxx17__normal_iteratorIPiSt6vectorIiSaIiEEEEEEvT_S9_
	.section	.text._ZSt12__niter_baseIPiET_S1_,"axG",@progbits,_ZSt12__niter_baseIPiET_S1_,comdat
	.weak	_ZSt12__niter_baseIPiET_S1_
	.type	_ZSt12__niter_baseIPiET_S1_, @function
_ZSt12__niter_baseIPiET_S1_:
.LFB11246:
	.cfi_startproc
	endbr64
	push	rbp
	.cfi_def_cfa_offset 16
	.cfi_offset 6, -16
	mov	rbp, rsp
	.cfi_def_cfa_register 6
	mov	QWORD PTR -8[rbp], rdi
	mov	rax, QWORD PTR -8[rbp]
	pop	rbp
	.cfi_def_cfa 7, 8
	ret
	.cfi_endproc
.LFE11246:
	.size	_ZSt12__niter_baseIPiET_S1_, .-_ZSt12__niter_baseIPiET_S1_
	.section	.text._ZSt14__copy_move_a1ILb0EPiS0_ET1_T0_S2_S1_,"axG",@progbits,_ZSt14__copy_move_a1ILb0EPiS0_ET1_T0_S2_S1_,comdat
	.weak	_ZSt14__copy_move_a1ILb0EPiS0_ET1_T0_S2_S1_
	.type	_ZSt14__copy_move_a1ILb0EPiS0_ET1_T0_S2_S1_, @function
_ZSt14__copy_move_a1ILb0EPiS0_ET1_T0_S2_S1_:
.LFB11247:
	.cfi_startproc
	endbr64
	push	rbp
	.cfi_def_cfa_offset 16
	.cfi_offset 6, -16
	mov	rbp, rsp
	.cfi_def_cfa_register 6
	sub	rsp, 32
	mov	QWORD PTR -8[rbp], rdi
	mov	QWORD PTR -16[rbp], rsi
	mov	QWORD PTR -24[rbp], rdx
	mov	rdx, QWORD PTR -24[rbp]
	mov	rcx, QWORD PTR -16[rbp]
	mov	rax, QWORD PTR -8[rbp]
	mov	rsi, rcx
	mov	rdi, rax
	call	_ZSt14__copy_move_a2ILb0EPiS0_ET1_T0_S2_S1_
	leave
	.cfi_def_cfa 7, 8
	ret
	.cfi_endproc
.LFE11247:
	.size	_ZSt14__copy_move_a1ILb0EPiS0_ET1_T0_S2_S1_, .-_ZSt14__copy_move_a1ILb0EPiS0_ET1_T0_S2_S1_
	.section	.text._ZSt12__niter_wrapIPiET_RKS1_S1_,"axG",@progbits,_ZSt12__niter_wrapIPiET_RKS1_S1_,comdat
	.weak	_ZSt12__niter_wrapIPiET_RKS1_S1_
	.type	_ZSt12__niter_wrapIPiET_RKS1_S1_, @function
_ZSt12__niter_wrapIPiET_RKS1_S1_:
.LFB11248:
	.cfi_startproc
	endbr64
	push	rbp
	.cfi_def_cfa_offset 16
	.cfi_offset 6, -16
	mov	rbp, rsp
	.cfi_def_cfa_register 6
	mov	QWORD PTR -8[rbp], rdi
	mov	QWORD PTR -16[rbp], rsi
	mov	rax, QWORD PTR -16[rbp]
	pop	rbp
	.cfi_def_cfa 7, 8
	ret
	.cfi_endproc
.LFE11248:
	.size	_ZSt12__niter_wrapIPiET_RKS1_S1_, .-_ZSt12__niter_wrapIPiET_RKS1_S1_
	.section	.text._ZNSt20__uninitialized_copyILb1EE13__uninit_copyIPiS2_EET0_T_S4_S3_,"axG",@progbits,_ZNSt20__uninitialized_copyILb1EE13__uninit_copyIPiS2_EET0_T_S4_S3_,comdat
	.weak	_ZNSt20__uninitialized_copyILb1EE13__uninit_copyIPiS2_EET0_T_S4_S3_
	.type	_ZNSt20__uninitialized_copyILb1EE13__uninit_copyIPiS2_EET0_T_S4_S3_, @function
_ZNSt20__uninitialized_copyILb1EE13__uninit_copyIPiS2_EET0_T_S4_S3_:
.LFB11249:
	.cfi_startproc
	endbr64
	push	rbp
	.cfi_def_cfa_offset 16
	.cfi_offset 6, -16
	mov	rbp, rsp
	.cfi_def_cfa_register 6
	sub	rsp, 32
	mov	QWORD PTR -8[rbp], rdi
	mov	QWORD PTR -16[rbp], rsi
	mov	QWORD PTR -24[rbp], rdx
	mov	rdx, QWORD PTR -24[rbp]
	mov	rcx, QWORD PTR -16[rbp]
	mov	rax, QWORD PTR -8[rbp]
	mov	rsi, rcx
	mov	rdi, rax
	call	_ZSt4copyIPiS0_ET0_T_S2_S1_
	leave
	.cfi_def_cfa 7, 8
	ret
	.cfi_endproc
.LFE11249:
	.size	_ZNSt20__uninitialized_copyILb1EE13__uninit_copyIPiS2_EET0_T_S4_S3_, .-_ZNSt20__uninitialized_copyILb1EE13__uninit_copyIPiS2_EET0_T_S4_S3_
	.section	.text._ZSt14__partial_sortIN9__gnu_cxx17__normal_iteratorIPiSt6vectorIiSaIiEEEENS0_5__ops15_Iter_less_iterEEvT_S9_S9_T0_,"axG",@progbits,_ZSt14__partial_sortIN9__gnu_cxx17__normal_iteratorIPiSt6vectorIiSaIiEEEENS0_5__ops15_Iter_less_iterEEvT_S9_S9_T0_,comdat
	.weak	_ZSt14__partial_sortIN9__gnu_cxx17__normal_iteratorIPiSt6vectorIiSaIiEEEENS0_5__ops15_Iter_less_iterEEvT_S9_S9_T0_
	.type	_ZSt14__partial_sortIN9__gnu_cxx17__normal_iteratorIPiSt6vectorIiSaIiEEEENS0_5__ops15_Iter_less_iterEEvT_S9_S9_T0_, @function
_ZSt14__partial_sortIN9__gnu_cxx17__normal_iteratorIPiSt6vectorIiSaIiEEEENS0_5__ops15_Iter_less_iterEEvT_S9_S9_T0_:
.LFB11250:
	.cfi_startproc
	endbr64
	push	rbp
	.cfi_def_cfa_offset 16
	.cfi_offset 6, -16
	mov	rbp, rsp
	.cfi_def_cfa_register 6
	sub	rsp, 32
	mov	QWORD PTR -8[rbp], rdi
	mov	QWORD PTR -16[rbp], rsi
	mov	QWORD PTR -24[rbp], rdx
	mov	rdx, QWORD PTR -24[rbp]
	mov	rcx, QWORD PTR -16[rbp]
	mov	rax, QWORD PTR -8[rbp]
	mov	rsi, rcx
	mov	rdi, rax
	call	_ZSt13__heap_selectIN9__gnu_cxx17__normal_iteratorIPiSt6vectorIiSaIiEEEENS0_5__ops15_Iter_less_iterEEvT_S9_S9_T0_
	lea	rdx, -25[rbp]
	mov	rcx, QWORD PTR -16[rbp]
	mov	rax, QWORD PTR -8[rbp]
	mov	rsi, rcx
	mov	rdi, rax
	call	_ZSt11__sort_heapIN9__gnu_cxx17__normal_iteratorIPiSt6vectorIiSaIiEEEENS0_5__ops15_Iter_less_iterEEvT_S9_RT0_
	nop
	leave
	.cfi_def_cfa 7, 8
	ret
	.cfi_endproc
.LFE11250:
	.size	_ZSt14__partial_sortIN9__gnu_cxx17__normal_iteratorIPiSt6vectorIiSaIiEEEENS0_5__ops15_Iter_less_iterEEvT_S9_S9_T0_, .-_ZSt14__partial_sortIN9__gnu_cxx17__normal_iteratorIPiSt6vectorIiSaIiEEEENS0_5__ops15_Iter_less_iterEEvT_S9_S9_T0_
	.section	.text._ZSt27__unguarded_partition_pivotIN9__gnu_cxx17__normal_iteratorIPiSt6vectorIiSaIiEEEENS0_5__ops15_Iter_less_iterEET_S9_S9_T0_,"axG",@progbits,_ZSt27__unguarded_partition_pivotIN9__gnu_cxx17__normal_iteratorIPiSt6vectorIiSaIiEEEENS0_5__ops15_Iter_less_iterEET_S9_S9_T0_,comdat
	.weak	_ZSt27__unguarded_partition_pivotIN9__gnu_cxx17__normal_iteratorIPiSt6vectorIiSaIiEEEENS0_5__ops15_Iter_less_iterEET_S9_S9_T0_
	.type	_ZSt27__unguarded_partition_pivotIN9__gnu_cxx17__normal_iteratorIPiSt6vectorIiSaIiEEEENS0_5__ops15_Iter_less_iterEET_S9_S9_T0_, @function
_ZSt27__unguarded_partition_pivotIN9__gnu_cxx17__normal_iteratorIPiSt6vectorIiSaIiEEEENS0_5__ops15_Iter_less_iterEET_S9_S9_T0_:
.LFB11251:
	.cfi_startproc
	endbr64
	push	rbp
	.cfi_def_cfa_offset 16
	.cfi_offset 6, -16
	mov	rbp, rsp
	.cfi_def_cfa_register 6
	push	rbx
	sub	rsp, 56
	.cfi_offset 3, -24
	mov	QWORD PTR -40[rbp], rdi
	mov	QWORD PTR -48[rbp], rsi
	mov	rax, QWORD PTR fs:40
	mov	QWORD PTR -24[rbp], rax
	xor	eax, eax
	lea	rdx, -40[rbp]
	lea	rax, -48[rbp]
	mov	rsi, rdx
	mov	rdi, rax
	call	_ZN9__gnu_cxxmiIPiSt6vectorIiSaIiEEEENS_17__normal_iteratorIT_T0_E15difference_typeERKS8_SB_
	mov	rdx, rax
	shr	rdx, 63
	add	rax, rdx
	sar	rax
	mov	rdx, rax
	lea	rax, -40[rbp]
	mov	rsi, rdx
	mov	rdi, rax
	call	_ZNK9__gnu_cxx17__normal_iteratorIPiSt6vectorIiSaIiEEEplEl
	mov	QWORD PTR -32[rbp], rax
	lea	rax, -48[rbp]
	mov	esi, 1
	mov	rdi, rax
	call	_ZNK9__gnu_cxx17__normal_iteratorIPiSt6vectorIiSaIiEEEmiEl
	mov	rbx, rax
	lea	rax, -40[rbp]
	mov	esi, 1
	mov	rdi, rax
	call	_ZNK9__gnu_cxx17__normal_iteratorIPiSt6vectorIiSaIiEEEplEl
	mov	rsi, rax
	mov	rdx, QWORD PTR -32[rbp]
	mov	rax, QWORD PTR -40[rbp]
	mov	rcx, rbx
	mov	rdi, rax
	call	_ZSt22__move_median_to_firstIN9__gnu_cxx17__normal_iteratorIPiSt6vectorIiSaIiEEEENS0_5__ops15_Iter_less_iterEEvT_S9_S9_S9_T0_
	lea	rax, -40[rbp]
	mov	esi, 1
	mov	rdi, rax
	call	_ZNK9__gnu_cxx17__normal_iteratorIPiSt6vectorIiSaIiEEEplEl
	mov	rcx, rax
	mov	rdx, QWORD PTR -40[rbp]
	mov	rax, QWORD PTR -48[rbp]
	mov	rsi, rax
	mov	rdi, rcx
	call	_ZSt21__unguarded_partitionIN9__gnu_cxx17__normal_iteratorIPiSt6vectorIiSaIiEEEENS0_5__ops15_Iter_less_iterEET_S9_S9_S9_T0_
	mov	rdx, QWORD PTR -24[rbp]
	sub	rdx, QWORD PTR fs:40
	je	.L229
	call	__stack_chk_fail@PLT
.L229:
	mov	rbx, QWORD PTR -8[rbp]
	leave
	.cfi_def_cfa 7, 8
	ret
	.cfi_endproc
.LFE11251:
	.size	_ZSt27__unguarded_partition_pivotIN9__gnu_cxx17__normal_iteratorIPiSt6vectorIiSaIiEEEENS0_5__ops15_Iter_less_iterEET_S9_S9_T0_, .-_ZSt27__unguarded_partition_pivotIN9__gnu_cxx17__normal_iteratorIPiSt6vectorIiSaIiEEEENS0_5__ops15_Iter_less_iterEET_S9_S9_T0_
	.section	.text._ZNK9__gnu_cxx17__normal_iteratorIPiSt6vectorIiSaIiEEEplEl,"axG",@progbits,_ZNK9__gnu_cxx17__normal_iteratorIPiSt6vectorIiSaIiEEEplEl,comdat
	.align 2
	.weak	_ZNK9__gnu_cxx17__normal_iteratorIPiSt6vectorIiSaIiEEEplEl
	.type	_ZNK9__gnu_cxx17__normal_iteratorIPiSt6vectorIiSaIiEEEplEl, @function
_ZNK9__gnu_cxx17__normal_iteratorIPiSt6vectorIiSaIiEEEplEl:
.LFB11252:
	.cfi_startproc
	endbr64
	push	rbp
	.cfi_def_cfa_offset 16
	.cfi_offset 6, -16
	mov	rbp, rsp
	.cfi_def_cfa_register 6
	sub	rsp, 48
	mov	QWORD PTR -40[rbp], rdi
	mov	QWORD PTR -48[rbp], rsi
	mov	rax, QWORD PTR fs:40
	mov	QWORD PTR -8[rbp], rax
	xor	eax, eax
	mov	rax, QWORD PTR -40[rbp]
	mov	rdx, QWORD PTR [rax]
	mov	rax, QWORD PTR -48[rbp]
	sal	rax, 2
	add	rax, rdx
	mov	QWORD PTR -24[rbp], rax
	lea	rdx, -24[rbp]
	lea	rax, -16[rbp]
	mov	rsi, rdx
	mov	rdi, rax
	call	_ZN9__gnu_cxx17__normal_iteratorIPiSt6vectorIiSaIiEEEC1ERKS1_
	mov	rax, QWORD PTR -16[rbp]
	mov	rdx, QWORD PTR -8[rbp]
	sub	rdx, QWORD PTR fs:40
	je	.L232
	call	__stack_chk_fail@PLT
.L232:
	leave
	.cfi_def_cfa 7, 8
	ret
	.cfi_endproc
.LFE11252:
	.size	_ZNK9__gnu_cxx17__normal_iteratorIPiSt6vectorIiSaIiEEEplEl, .-_ZNK9__gnu_cxx17__normal_iteratorIPiSt6vectorIiSaIiEEEplEl
	.section	.text._ZSt16__insertion_sortIN9__gnu_cxx17__normal_iteratorIPiSt6vectorIiSaIiEEEENS0_5__ops15_Iter_less_iterEEvT_S9_T0_,"axG",@progbits,_ZSt16__insertion_sortIN9__gnu_cxx17__normal_iteratorIPiSt6vectorIiSaIiEEEENS0_5__ops15_Iter_less_iterEEvT_S9_T0_,comdat
	.weak	_ZSt16__insertion_sortIN9__gnu_cxx17__normal_iteratorIPiSt6vectorIiSaIiEEEENS0_5__ops15_Iter_less_iterEEvT_S9_T0_
	.type	_ZSt16__insertion_sortIN9__gnu_cxx17__normal_iteratorIPiSt6vectorIiSaIiEEEENS0_5__ops15_Iter_less_iterEEvT_S9_T0_, @function
_ZSt16__insertion_sortIN9__gnu_cxx17__normal_iteratorIPiSt6vectorIiSaIiEEEENS0_5__ops15_Iter_less_iterEEvT_S9_T0_:
.LFB11253:
	.cfi_startproc
	endbr64
	push	rbp
	.cfi_def_cfa_offset 16
	.cfi_offset 6, -16
	mov	rbp, rsp
	.cfi_def_cfa_register 6
	push	rbx
	sub	rsp, 72
	.cfi_offset 3, -24
	mov	QWORD PTR -56[rbp], rdi
	mov	QWORD PTR -64[rbp], rsi
	mov	rax, QWORD PTR fs:40
	mov	QWORD PTR -24[rbp], rax
	xor	eax, eax
	lea	rdx, -64[rbp]
	lea	rax, -56[rbp]
	mov	rsi, rdx
	mov	rdi, rax
	call	_ZN9__gnu_cxxeqIPiSt6vectorIiSaIiEEEEbRKNS_17__normal_iteratorIT_T0_EESA_
	test	al, al
	jne	.L241
	lea	rax, -56[rbp]
	mov	esi, 1
	mov	rdi, rax
	call	_ZNK9__gnu_cxx17__normal_iteratorIPiSt6vectorIiSaIiEEEplEl
	mov	QWORD PTR -32[rbp], rax
	jmp	.L236
.L239:
	mov	rdx, QWORD PTR -56[rbp]
	mov	rcx, QWORD PTR -32[rbp]
	lea	rax, -65[rbp]
	mov	rsi, rcx
	mov	rdi, rax
	call	_ZNK9__gnu_cxx5__ops15_Iter_less_iterclINS_17__normal_iteratorIPiSt6vectorIiSaIiEEEES8_EEbT_T0_
	test	al, al
	je	.L237
	lea	rax, -32[rbp]
	mov	rdi, rax
	call	_ZNK9__gnu_cxx17__normal_iteratorIPiSt6vectorIiSaIiEEEdeEv
	mov	rdi, rax
	call	_ZSt4moveIRiEONSt16remove_referenceIT_E4typeEOS2_
	mov	eax, DWORD PTR [rax]
	mov	DWORD PTR -36[rbp], eax
	lea	rax, -32[rbp]
	mov	esi, 1
	mov	rdi, rax
	call	_ZNK9__gnu_cxx17__normal_iteratorIPiSt6vectorIiSaIiEEEplEl
	mov	rdx, rax
	mov	rcx, QWORD PTR -32[rbp]
	mov	rax, QWORD PTR -56[rbp]
	mov	rsi, rcx
	mov	rdi, rax
	call	_ZSt13move_backwardIN9__gnu_cxx17__normal_iteratorIPiSt6vectorIiSaIiEEEES6_ET0_T_S8_S7_
	lea	rax, -36[rbp]
	mov	rdi, rax
	call	_ZSt4moveIRiEONSt16remove_referenceIT_E4typeEOS2_
	mov	ebx, DWORD PTR [rax]
	lea	rax, -56[rbp]
	mov	rdi, rax
	call	_ZNK9__gnu_cxx17__normal_iteratorIPiSt6vectorIiSaIiEEEdeEv
	mov	DWORD PTR [rax], ebx
	jmp	.L238
.L237:
	call	_ZN9__gnu_cxx5__ops15__val_comp_iterENS0_15_Iter_less_iterE
	mov	rax, QWORD PTR -32[rbp]
	mov	rdi, rax
	call	_ZSt25__unguarded_linear_insertIN9__gnu_cxx17__normal_iteratorIPiSt6vectorIiSaIiEEEENS0_5__ops14_Val_less_iterEEvT_T0_
.L238:
	lea	rax, -32[rbp]
	mov	rdi, rax
	call	_ZN9__gnu_cxx17__normal_iteratorIPiSt6vectorIiSaIiEEEppEv
.L236:
	lea	rdx, -64[rbp]
	lea	rax, -32[rbp]
	mov	rsi, rdx
	mov	rdi, rax
	call	_ZN9__gnu_cxxneIPiSt6vectorIiSaIiEEEEbRKNS_17__normal_iteratorIT_T0_EESA_
	test	al, al
	jne	.L239
	jmp	.L233
.L241:
	nop
.L233:
	mov	rax, QWORD PTR -24[rbp]
	sub	rax, QWORD PTR fs:40
	je	.L240
	call	__stack_chk_fail@PLT
.L240:
	mov	rbx, QWORD PTR -8[rbp]
	leave
	.cfi_def_cfa 7, 8
	ret
	.cfi_endproc
.LFE11253:
	.size	_ZSt16__insertion_sortIN9__gnu_cxx17__normal_iteratorIPiSt6vectorIiSaIiEEEENS0_5__ops15_Iter_less_iterEEvT_S9_T0_, .-_ZSt16__insertion_sortIN9__gnu_cxx17__normal_iteratorIPiSt6vectorIiSaIiEEEENS0_5__ops15_Iter_less_iterEEvT_S9_T0_
	.section	.text._ZSt26__unguarded_insertion_sortIN9__gnu_cxx17__normal_iteratorIPiSt6vectorIiSaIiEEEENS0_5__ops15_Iter_less_iterEEvT_S9_T0_,"axG",@progbits,_ZSt26__unguarded_insertion_sortIN9__gnu_cxx17__normal_iteratorIPiSt6vectorIiSaIiEEEENS0_5__ops15_Iter_less_iterEEvT_S9_T0_,comdat
	.weak	_ZSt26__unguarded_insertion_sortIN9__gnu_cxx17__normal_iteratorIPiSt6vectorIiSaIiEEEENS0_5__ops15_Iter_less_iterEEvT_S9_T0_
	.type	_ZSt26__unguarded_insertion_sortIN9__gnu_cxx17__normal_iteratorIPiSt6vectorIiSaIiEEEENS0_5__ops15_Iter_less_iterEEvT_S9_T0_, @function
_ZSt26__unguarded_insertion_sortIN9__gnu_cxx17__normal_iteratorIPiSt6vectorIiSaIiEEEENS0_5__ops15_Iter_less_iterEEvT_S9_T0_:
.LFB11254:
	.cfi_startproc
	endbr64
	push	rbp
	.cfi_def_cfa_offset 16
	.cfi_offset 6, -16
	mov	rbp, rsp
	.cfi_def_cfa_register 6
	sub	rsp, 48
	mov	QWORD PTR -24[rbp], rdi
	mov	QWORD PTR -32[rbp], rsi
	mov	rax, QWORD PTR fs:40
	mov	QWORD PTR -8[rbp], rax
	xor	eax, eax
	mov	rax, QWORD PTR -24[rbp]
	mov	QWORD PTR -16[rbp], rax
	jmp	.L243
.L244:
	call	_ZN9__gnu_cxx5__ops15__val_comp_iterENS0_15_Iter_less_iterE
	mov	rax, QWORD PTR -16[rbp]
	mov	rdi, rax
	call	_ZSt25__unguarded_linear_insertIN9__gnu_cxx17__normal_iteratorIPiSt6vectorIiSaIiEEEENS0_5__ops14_Val_less_iterEEvT_T0_
	lea	rax, -16[rbp]
	mov	rdi, rax
	call	_ZN9__gnu_cxx17__normal_iteratorIPiSt6vectorIiSaIiEEEppEv
.L243:
	lea	rdx, -32[rbp]
	lea	rax, -16[rbp]
	mov	rsi, rdx
	mov	rdi, rax
	call	_ZN9__gnu_cxxneIPiSt6vectorIiSaIiEEEEbRKNS_17__normal_iteratorIT_T0_EESA_
	test	al, al
	jne	.L244
	nop
	mov	rax, QWORD PTR -8[rbp]
	sub	rax, QWORD PTR fs:40
	je	.L245
	call	__stack_chk_fail@PLT
.L245:
	leave
	.cfi_def_cfa 7, 8
	ret
	.cfi_endproc
.LFE11254:
	.size	_ZSt26__unguarded_insertion_sortIN9__gnu_cxx17__normal_iteratorIPiSt6vectorIiSaIiEEEENS0_5__ops15_Iter_less_iterEEvT_S9_T0_, .-_ZSt26__unguarded_insertion_sortIN9__gnu_cxx17__normal_iteratorIPiSt6vectorIiSaIiEEEENS0_5__ops15_Iter_less_iterEEvT_S9_T0_
	.section	.text._ZSt9__advanceIN9__gnu_cxx17__normal_iteratorIPiSt6vectorIiSaIiEEEElEvRT_T0_St26random_access_iterator_tag,"axG",@progbits,_ZSt9__advanceIN9__gnu_cxx17__normal_iteratorIPiSt6vectorIiSaIiEEEElEvRT_T0_St26random_access_iterator_tag,comdat
	.weak	_ZSt9__advanceIN9__gnu_cxx17__normal_iteratorIPiSt6vectorIiSaIiEEEElEvRT_T0_St26random_access_iterator_tag
	.type	_ZSt9__advanceIN9__gnu_cxx17__normal_iteratorIPiSt6vectorIiSaIiEEEElEvRT_T0_St26random_access_iterator_tag, @function
_ZSt9__advanceIN9__gnu_cxx17__normal_iteratorIPiSt6vectorIiSaIiEEEElEvRT_T0_St26random_access_iterator_tag:
.LFB11255:
	.cfi_startproc
	endbr64
	push	rbp
	.cfi_def_cfa_offset 16
	.cfi_offset 6, -16
	mov	rbp, rsp
	.cfi_def_cfa_register 6
	sub	rsp, 16
	mov	QWORD PTR -8[rbp], rdi
	mov	QWORD PTR -16[rbp], rsi
	mov	rdx, QWORD PTR -16[rbp]
	mov	rax, QWORD PTR -8[rbp]
	mov	rsi, rdx
	mov	rdi, rax
	call	_ZN9__gnu_cxx17__normal_iteratorIPiSt6vectorIiSaIiEEEpLEl
	nop
	leave
	.cfi_def_cfa 7, 8
	ret
	.cfi_endproc
.LFE11255:
	.size	_ZSt9__advanceIN9__gnu_cxx17__normal_iteratorIPiSt6vectorIiSaIiEEEElEvRT_T0_St26random_access_iterator_tag, .-_ZSt9__advanceIN9__gnu_cxx17__normal_iteratorIPiSt6vectorIiSaIiEEEElEvRT_T0_St26random_access_iterator_tag
	.section	.text._ZNK9__gnu_cxx17__normal_iteratorIPiSt6vectorIiSaIiEEEdeEv,"axG",@progbits,_ZNK9__gnu_cxx17__normal_iteratorIPiSt6vectorIiSaIiEEEdeEv,comdat
	.align 2
	.weak	_ZNK9__gnu_cxx17__normal_iteratorIPiSt6vectorIiSaIiEEEdeEv
	.type	_ZNK9__gnu_cxx17__normal_iteratorIPiSt6vectorIiSaIiEEEdeEv, @function
_ZNK9__gnu_cxx17__normal_iteratorIPiSt6vectorIiSaIiEEEdeEv:
.LFB11256:
	.cfi_startproc
	endbr64
	push	rbp
	.cfi_def_cfa_offset 16
	.cfi_offset 6, -16
	mov	rbp, rsp
	.cfi_def_cfa_register 6
	mov	QWORD PTR -8[rbp], rdi
	mov	rax, QWORD PTR -8[rbp]
	mov	rax, QWORD PTR [rax]
	pop	rbp
	.cfi_def_cfa 7, 8
	ret
	.cfi_endproc
.LFE11256:
	.size	_ZNK9__gnu_cxx17__normal_iteratorIPiSt6vectorIiSaIiEEEdeEv, .-_ZNK9__gnu_cxx17__normal_iteratorIPiSt6vectorIiSaIiEEEdeEv
	.section	.text._ZNK9__gnu_cxx13new_allocatorIiE8max_sizeEv,"axG",@progbits,_ZNK9__gnu_cxx13new_allocatorIiE8max_sizeEv,comdat
	.align 2
	.weak	_ZNK9__gnu_cxx13new_allocatorIiE8max_sizeEv
	.type	_ZNK9__gnu_cxx13new_allocatorIiE8max_sizeEv, @function
_ZNK9__gnu_cxx13new_allocatorIiE8max_sizeEv:
.LFB11341:
	.cfi_startproc
	endbr64
	push	rbp
	.cfi_def_cfa_offset 16
	.cfi_offset 6, -16
	mov	rbp, rsp
	.cfi_def_cfa_register 6
	sub	rsp, 16
	mov	QWORD PTR -8[rbp], rdi
	mov	rax, QWORD PTR -8[rbp]
	mov	rdi, rax
	call	_ZNK9__gnu_cxx13new_allocatorIiE11_M_max_sizeEv
	leave
	.cfi_def_cfa 7, 8
	ret
	.cfi_endproc
.LFE11341:
	.size	_ZNK9__gnu_cxx13new_allocatorIiE8max_sizeEv, .-_ZNK9__gnu_cxx13new_allocatorIiE8max_sizeEv
	.section	.text._ZSt11__addressofIiEPT_RS0_,"axG",@progbits,_ZSt11__addressofIiEPT_RS0_,comdat
	.weak	_ZSt11__addressofIiEPT_RS0_
	.type	_ZSt11__addressofIiEPT_RS0_, @function
_ZSt11__addressofIiEPT_RS0_:
.LFB11343:
	.cfi_startproc
	endbr64
	push	rbp
	.cfi_def_cfa_offset 16
	.cfi_offset 6, -16
	mov	rbp, rsp
	.cfi_def_cfa_register 6
	mov	QWORD PTR -8[rbp], rdi
	mov	rax, QWORD PTR -8[rbp]
	pop	rbp
	.cfi_def_cfa 7, 8
	ret
	.cfi_endproc
.LFE11343:
	.size	_ZSt11__addressofIiEPT_RS0_, .-_ZSt11__addressofIiEPT_RS0_
	.section	.text._ZNSt27__uninitialized_default_n_1ILb1EE18__uninit_default_nIPimEET_S3_T0_,"axG",@progbits,_ZNSt27__uninitialized_default_n_1ILb1EE18__uninit_default_nIPimEET_S3_T0_,comdat
	.weak	_ZNSt27__uninitialized_default_n_1ILb1EE18__uninit_default_nIPimEET_S3_T0_
	.type	_ZNSt27__uninitialized_default_n_1ILb1EE18__uninit_default_nIPimEET_S3_T0_, @function
_ZNSt27__uninitialized_default_n_1ILb1EE18__uninit_default_nIPimEET_S3_T0_:
.LFB11342:
	.cfi_startproc
	endbr64
	push	rbp
	.cfi_def_cfa_offset 16
	.cfi_offset 6, -16
	mov	rbp, rsp
	.cfi_def_cfa_register 6
	sub	rsp, 32
	mov	QWORD PTR -24[rbp], rdi
	mov	QWORD PTR -32[rbp], rsi
	cmp	QWORD PTR -32[rbp], 0
	je	.L254
	mov	rax, QWORD PTR -24[rbp]
	mov	rdi, rax
	call	_ZSt11__addressofIiEPT_RS0_
	mov	QWORD PTR -8[rbp], rax
	mov	rax, QWORD PTR -8[rbp]
	mov	rdi, rax
	call	_ZSt10_ConstructIiJEEvPT_DpOT0_
	add	QWORD PTR -24[rbp], 4
	mov	rax, QWORD PTR -32[rbp]
	lea	rcx, -1[rax]
	mov	rdx, QWORD PTR -8[rbp]
	mov	rax, QWORD PTR -24[rbp]
	mov	rsi, rcx
	mov	rdi, rax
	call	_ZSt6fill_nIPimiET_S1_T0_RKT1_
	mov	QWORD PTR -24[rbp], rax
.L254:
	mov	rax, QWORD PTR -24[rbp]
	leave
	.cfi_def_cfa 7, 8
	ret
	.cfi_endproc
.LFE11342:
	.size	_ZNSt27__uninitialized_default_n_1ILb1EE18__uninit_default_nIPimEET_S3_T0_, .-_ZNSt27__uninitialized_default_n_1ILb1EE18__uninit_default_nIPimEET_S3_T0_
	.section	.text._ZNK9__gnu_cxx13new_allocatorIiE11_M_max_sizeEv,"axG",@progbits,_ZNK9__gnu_cxx13new_allocatorIiE11_M_max_sizeEv,comdat
	.align 2
	.weak	_ZNK9__gnu_cxx13new_allocatorIiE11_M_max_sizeEv
	.type	_ZNK9__gnu_cxx13new_allocatorIiE11_M_max_sizeEv, @function
_ZNK9__gnu_cxx13new_allocatorIiE11_M_max_sizeEv:
.LFB11345:
	.cfi_startproc
	endbr64
	push	rbp
	.cfi_def_cfa_offset 16
	.cfi_offset 6, -16
	mov	rbp, rsp
	.cfi_def_cfa_register 6
	mov	QWORD PTR -8[rbp], rdi
	movabs	rax, 2305843009213693951
	pop	rbp
	.cfi_def_cfa 7, 8
	ret
	.cfi_endproc
.LFE11345:
	.size	_ZNK9__gnu_cxx13new_allocatorIiE11_M_max_sizeEv, .-_ZNK9__gnu_cxx13new_allocatorIiE11_M_max_sizeEv
	.section	.text._ZN9__gnu_cxx13new_allocatorIiE8allocateEmPKv,"axG",@progbits,_ZN9__gnu_cxx13new_allocatorIiE8allocateEmPKv,comdat
	.align 2
	.weak	_ZN9__gnu_cxx13new_allocatorIiE8allocateEmPKv
	.type	_ZN9__gnu_cxx13new_allocatorIiE8allocateEmPKv, @function
_ZN9__gnu_cxx13new_allocatorIiE8allocateEmPKv:
.LFB11344:
	.cfi_startproc
	endbr64
	push	rbp
	.cfi_def_cfa_offset 16
	.cfi_offset 6, -16
	mov	rbp, rsp
	.cfi_def_cfa_register 6
	sub	rsp, 32
	mov	QWORD PTR -8[rbp], rdi
	mov	QWORD PTR -16[rbp], rsi
	mov	QWORD PTR -24[rbp], rdx
	mov	rax, QWORD PTR -8[rbp]
	mov	rdi, rax
	call	_ZNK9__gnu_cxx13new_allocatorIiE11_M_max_sizeEv
	cmp	QWORD PTR -16[rbp], rax
	seta	al
	movzx	eax, al
	test	rax, rax
	setne	al
	test	al, al
	je	.L259
	movabs	rax, 4611686018427387903
	cmp	QWORD PTR -16[rbp], rax
	jbe	.L260
	call	_ZSt28__throw_bad_array_new_lengthv@PLT
.L260:
	call	_ZSt17__throw_bad_allocv@PLT
.L259:
	mov	rax, QWORD PTR -16[rbp]
	sal	rax, 2
	mov	rdi, rax
	call	_Znwm@PLT
	nop
	leave
	.cfi_def_cfa 7, 8
	ret
	.cfi_endproc
.LFE11344:
	.size	_ZN9__gnu_cxx13new_allocatorIiE8allocateEmPKv, .-_ZN9__gnu_cxx13new_allocatorIiE8allocateEmPKv
	.section	.text._ZNSt20__uninitialized_copyILb1EE13__uninit_copyIN9__gnu_cxx17__normal_iteratorIPKiSt6vectorIiSaIiEEEEPiEET0_T_SC_SB_,"axG",@progbits,_ZNSt20__uninitialized_copyILb1EE13__uninit_copyIN9__gnu_cxx17__normal_iteratorIPKiSt6vectorIiSaIiEEEEPiEET0_T_SC_SB_,comdat
	.weak	_ZNSt20__uninitialized_copyILb1EE13__uninit_copyIN9__gnu_cxx17__normal_iteratorIPKiSt6vectorIiSaIiEEEEPiEET0_T_SC_SB_
	.type	_ZNSt20__uninitialized_copyILb1EE13__uninit_copyIN9__gnu_cxx17__normal_iteratorIPKiSt6vectorIiSaIiEEEEPiEET0_T_SC_SB_, @function
_ZNSt20__uninitialized_copyILb1EE13__uninit_copyIN9__gnu_cxx17__normal_iteratorIPKiSt6vectorIiSaIiEEEEPiEET0_T_SC_SB_:
.LFB11346:
	.cfi_startproc
	endbr64
	push	rbp
	.cfi_def_cfa_offset 16
	.cfi_offset 6, -16
	mov	rbp, rsp
	.cfi_def_cfa_register 6
	sub	rsp, 32
	mov	QWORD PTR -8[rbp], rdi
	mov	QWORD PTR -16[rbp], rsi
	mov	QWORD PTR -24[rbp], rdx
	mov	rdx, QWORD PTR -24[rbp]
	mov	rcx, QWORD PTR -16[rbp]
	mov	rax, QWORD PTR -8[rbp]
	mov	rsi, rcx
	mov	rdi, rax
	call	_ZSt4copyIN9__gnu_cxx17__normal_iteratorIPKiSt6vectorIiSaIiEEEEPiET0_T_SA_S9_
	leave
	.cfi_def_cfa 7, 8
	ret
	.cfi_endproc
.LFE11346:
	.size	_ZNSt20__uninitialized_copyILb1EE13__uninit_copyIN9__gnu_cxx17__normal_iteratorIPKiSt6vectorIiSaIiEEEEPiEET0_T_SC_SB_, .-_ZNSt20__uninitialized_copyILb1EE13__uninit_copyIN9__gnu_cxx17__normal_iteratorIPKiSt6vectorIiSaIiEEEEPiEET0_T_SC_SB_
	.section	.text._ZNK9__gnu_cxx17__normal_iteratorIPKiSt6vectorIiSaIiEEE4baseEv,"axG",@progbits,_ZNK9__gnu_cxx17__normal_iteratorIPKiSt6vectorIiSaIiEEE4baseEv,comdat
	.align 2
	.weak	_ZNK9__gnu_cxx17__normal_iteratorIPKiSt6vectorIiSaIiEEE4baseEv
	.type	_ZNK9__gnu_cxx17__normal_iteratorIPKiSt6vectorIiSaIiEEE4baseEv, @function
_ZNK9__gnu_cxx17__normal_iteratorIPKiSt6vectorIiSaIiEEE4baseEv:
.LFB11347:
	.cfi_startproc
	endbr64
	push	rbp
	.cfi_def_cfa_offset 16
	.cfi_offset 6, -16
	mov	rbp, rsp
	.cfi_def_cfa_register 6
	mov	QWORD PTR -8[rbp], rdi
	mov	rax, QWORD PTR -8[rbp]
	pop	rbp
	.cfi_def_cfa 7, 8
	ret
	.cfi_endproc
.LFE11347:
	.size	_ZNK9__gnu_cxx17__normal_iteratorIPKiSt6vectorIiSaIiEEE4baseEv, .-_ZNK9__gnu_cxx17__normal_iteratorIPKiSt6vectorIiSaIiEEE4baseEv
	.section	.text._ZSt14__copy_move_a2ILb0EPKiPiET1_T0_S4_S3_,"axG",@progbits,_ZSt14__copy_move_a2ILb0EPKiPiET1_T0_S4_S3_,comdat
	.weak	_ZSt14__copy_move_a2ILb0EPKiPiET1_T0_S4_S3_
	.type	_ZSt14__copy_move_a2ILb0EPKiPiET1_T0_S4_S3_, @function
_ZSt14__copy_move_a2ILb0EPKiPiET1_T0_S4_S3_:
.LFB11348:
	.cfi_startproc
	endbr64
	push	rbp
	.cfi_def_cfa_offset 16
	.cfi_offset 6, -16
	mov	rbp, rsp
	.cfi_def_cfa_register 6
	sub	rsp, 32
	mov	QWORD PTR -8[rbp], rdi
	mov	QWORD PTR -16[rbp], rsi
	mov	QWORD PTR -24[rbp], rdx
	mov	rdx, QWORD PTR -24[rbp]
	mov	rcx, QWORD PTR -16[rbp]
	mov	rax, QWORD PTR -8[rbp]
	mov	rsi, rcx
	mov	rdi, rax
	call	_ZNSt11__copy_moveILb0ELb1ESt26random_access_iterator_tagE8__copy_mIiEEPT_PKS3_S6_S4_
	leave
	.cfi_def_cfa 7, 8
	ret
	.cfi_endproc
.LFE11348:
	.size	_ZSt14__copy_move_a2ILb0EPKiPiET1_T0_S4_S3_, .-_ZSt14__copy_move_a2ILb0EPKiPiET1_T0_S4_S3_
	.section	.text._ZSt14__copy_move_a2ILb0EPiS0_ET1_T0_S2_S1_,"axG",@progbits,_ZSt14__copy_move_a2ILb0EPiS0_ET1_T0_S2_S1_,comdat
	.weak	_ZSt14__copy_move_a2ILb0EPiS0_ET1_T0_S2_S1_
	.type	_ZSt14__copy_move_a2ILb0EPiS0_ET1_T0_S2_S1_, @function
_ZSt14__copy_move_a2ILb0EPiS0_ET1_T0_S2_S1_:
.LFB11349:
	.cfi_startproc
	endbr64
	push	rbp
	.cfi_def_cfa_offset 16
	.cfi_offset 6, -16
	mov	rbp, rsp
	.cfi_def_cfa_register 6
	sub	rsp, 32
	mov	QWORD PTR -8[rbp], rdi
	mov	QWORD PTR -16[rbp], rsi
	mov	QWORD PTR -24[rbp], rdx
	mov	rdx, QWORD PTR -24[rbp]
	mov	rcx, QWORD PTR -16[rbp]
	mov	rax, QWORD PTR -8[rbp]
	mov	rsi, rcx
	mov	rdi, rax
	call	_ZNSt11__copy_moveILb0ELb1ESt26random_access_iterator_tagE8__copy_mIiEEPT_PKS3_S6_S4_
	leave
	.cfi_def_cfa 7, 8
	ret
	.cfi_endproc
.LFE11349:
	.size	_ZSt14__copy_move_a2ILb0EPiS0_ET1_T0_S2_S1_, .-_ZSt14__copy_move_a2ILb0EPiS0_ET1_T0_S2_S1_
	.section	.text._ZSt13__heap_selectIN9__gnu_cxx17__normal_iteratorIPiSt6vectorIiSaIiEEEENS0_5__ops15_Iter_less_iterEEvT_S9_S9_T0_,"axG",@progbits,_ZSt13__heap_selectIN9__gnu_cxx17__normal_iteratorIPiSt6vectorIiSaIiEEEENS0_5__ops15_Iter_less_iterEEvT_S9_S9_T0_,comdat
	.weak	_ZSt13__heap_selectIN9__gnu_cxx17__normal_iteratorIPiSt6vectorIiSaIiEEEENS0_5__ops15_Iter_less_iterEEvT_S9_S9_T0_
	.type	_ZSt13__heap_selectIN9__gnu_cxx17__normal_iteratorIPiSt6vectorIiSaIiEEEENS0_5__ops15_Iter_less_iterEEvT_S9_S9_T0_, @function
_ZSt13__heap_selectIN9__gnu_cxx17__normal_iteratorIPiSt6vectorIiSaIiEEEENS0_5__ops15_Iter_less_iterEEvT_S9_S9_T0_:
.LFB11350:
	.cfi_startproc
	endbr64
	push	rbp
	.cfi_def_cfa_offset 16
	.cfi_offset 6, -16
	mov	rbp, rsp
	.cfi_def_cfa_register 6
	sub	rsp, 48
	mov	QWORD PTR -24[rbp], rdi
	mov	QWORD PTR -32[rbp], rsi
	mov	QWORD PTR -40[rbp], rdx
	mov	rax, QWORD PTR fs:40
	mov	QWORD PTR -8[rbp], rax
	xor	eax, eax
	lea	rdx, -41[rbp]
	mov	rcx, QWORD PTR -32[rbp]
	mov	rax, QWORD PTR -24[rbp]
	mov	rsi, rcx
	mov	rdi, rax
	call	_ZSt11__make_heapIN9__gnu_cxx17__normal_iteratorIPiSt6vectorIiSaIiEEEENS0_5__ops15_Iter_less_iterEEvT_S9_RT0_
	mov	rax, QWORD PTR -32[rbp]
	mov	QWORD PTR -16[rbp], rax
	jmp	.L271
.L273:
	mov	rdx, QWORD PTR -24[rbp]
	mov	rcx, QWORD PTR -16[rbp]
	lea	rax, -41[rbp]
	mov	rsi, rcx
	mov	rdi, rax
	call	_ZNK9__gnu_cxx5__ops15_Iter_less_iterclINS_17__normal_iteratorIPiSt6vectorIiSaIiEEEES8_EEbT_T0_
	test	al, al
	je	.L272
	lea	rcx, -41[rbp]
	mov	rdx, QWORD PTR -16[rbp]
	mov	rsi, QWORD PTR -32[rbp]
	mov	rax, QWORD PTR -24[rbp]
	mov	rdi, rax
	call	_ZSt10__pop_heapIN9__gnu_cxx17__normal_iteratorIPiSt6vectorIiSaIiEEEENS0_5__ops15_Iter_less_iterEEvT_S9_S9_RT0_
.L272:
	lea	rax, -16[rbp]
	mov	rdi, rax
	call	_ZN9__gnu_cxx17__normal_iteratorIPiSt6vectorIiSaIiEEEppEv
.L271:
	lea	rdx, -40[rbp]
	lea	rax, -16[rbp]
	mov	rsi, rdx
	mov	rdi, rax
	call	_ZN9__gnu_cxxltIPiSt6vectorIiSaIiEEEEbRKNS_17__normal_iteratorIT_T0_EESA_
	test	al, al
	jne	.L273
	nop
	mov	rax, QWORD PTR -8[rbp]
	sub	rax, QWORD PTR fs:40
	je	.L274
	call	__stack_chk_fail@PLT
.L274:
	leave
	.cfi_def_cfa 7, 8
	ret
	.cfi_endproc
.LFE11350:
	.size	_ZSt13__heap_selectIN9__gnu_cxx17__normal_iteratorIPiSt6vectorIiSaIiEEEENS0_5__ops15_Iter_less_iterEEvT_S9_S9_T0_, .-_ZSt13__heap_selectIN9__gnu_cxx17__normal_iteratorIPiSt6vectorIiSaIiEEEENS0_5__ops15_Iter_less_iterEEvT_S9_S9_T0_
	.section	.text._ZSt11__sort_heapIN9__gnu_cxx17__normal_iteratorIPiSt6vectorIiSaIiEEEENS0_5__ops15_Iter_less_iterEEvT_S9_RT0_,"axG",@progbits,_ZSt11__sort_heapIN9__gnu_cxx17__normal_iteratorIPiSt6vectorIiSaIiEEEENS0_5__ops15_Iter_less_iterEEvT_S9_RT0_,comdat
	.weak	_ZSt11__sort_heapIN9__gnu_cxx17__normal_iteratorIPiSt6vectorIiSaIiEEEENS0_5__ops15_Iter_less_iterEEvT_S9_RT0_
	.type	_ZSt11__sort_heapIN9__gnu_cxx17__normal_iteratorIPiSt6vectorIiSaIiEEEENS0_5__ops15_Iter_less_iterEEvT_S9_RT0_, @function
_ZSt11__sort_heapIN9__gnu_cxx17__normal_iteratorIPiSt6vectorIiSaIiEEEENS0_5__ops15_Iter_less_iterEEvT_S9_RT0_:
.LFB11351:
	.cfi_startproc
	endbr64
	push	rbp
	.cfi_def_cfa_offset 16
	.cfi_offset 6, -16
	mov	rbp, rsp
	.cfi_def_cfa_register 6
	sub	rsp, 32
	mov	QWORD PTR -8[rbp], rdi
	mov	QWORD PTR -16[rbp], rsi
	mov	QWORD PTR -24[rbp], rdx
	jmp	.L276
.L277:
	lea	rax, -16[rbp]
	mov	rdi, rax
	call	_ZN9__gnu_cxx17__normal_iteratorIPiSt6vectorIiSaIiEEEmmEv
	mov	rcx, QWORD PTR -24[rbp]
	mov	rdx, QWORD PTR -16[rbp]
	mov	rsi, QWORD PTR -16[rbp]
	mov	rax, QWORD PTR -8[rbp]
	mov	rdi, rax
	call	_ZSt10__pop_heapIN9__gnu_cxx17__normal_iteratorIPiSt6vectorIiSaIiEEEENS0_5__ops15_Iter_less_iterEEvT_S9_S9_RT0_
.L276:
	lea	rdx, -8[rbp]
	lea	rax, -16[rbp]
	mov	rsi, rdx
	mov	rdi, rax
	call	_ZN9__gnu_cxxmiIPiSt6vectorIiSaIiEEEENS_17__normal_iteratorIT_T0_E15difference_typeERKS8_SB_
	cmp	rax, 1
	setg	al
	test	al, al
	jne	.L277
	nop
	nop
	leave
	.cfi_def_cfa 7, 8
	ret
	.cfi_endproc
.LFE11351:
	.size	_ZSt11__sort_heapIN9__gnu_cxx17__normal_iteratorIPiSt6vectorIiSaIiEEEENS0_5__ops15_Iter_less_iterEEvT_S9_RT0_, .-_ZSt11__sort_heapIN9__gnu_cxx17__normal_iteratorIPiSt6vectorIiSaIiEEEENS0_5__ops15_Iter_less_iterEEvT_S9_RT0_
	.section	.text._ZNK9__gnu_cxx17__normal_iteratorIPiSt6vectorIiSaIiEEEmiEl,"axG",@progbits,_ZNK9__gnu_cxx17__normal_iteratorIPiSt6vectorIiSaIiEEEmiEl,comdat
	.align 2
	.weak	_ZNK9__gnu_cxx17__normal_iteratorIPiSt6vectorIiSaIiEEEmiEl
	.type	_ZNK9__gnu_cxx17__normal_iteratorIPiSt6vectorIiSaIiEEEmiEl, @function
_ZNK9__gnu_cxx17__normal_iteratorIPiSt6vectorIiSaIiEEEmiEl:
.LFB11352:
	.cfi_startproc
	endbr64
	push	rbp
	.cfi_def_cfa_offset 16
	.cfi_offset 6, -16
	mov	rbp, rsp
	.cfi_def_cfa_register 6
	sub	rsp, 48
	mov	QWORD PTR -40[rbp], rdi
	mov	QWORD PTR -48[rbp], rsi
	mov	rax, QWORD PTR fs:40
	mov	QWORD PTR -8[rbp], rax
	xor	eax, eax
	mov	rax, QWORD PTR -40[rbp]
	mov	rdx, QWORD PTR [rax]
	mov	rax, QWORD PTR -48[rbp]
	sal	rax, 2
	neg	rax
	add	rax, rdx
	mov	QWORD PTR -24[rbp], rax
	lea	rdx, -24[rbp]
	lea	rax, -16[rbp]
	mov	rsi, rdx
	mov	rdi, rax
	call	_ZN9__gnu_cxx17__normal_iteratorIPiSt6vectorIiSaIiEEEC1ERKS1_
	mov	rax, QWORD PTR -16[rbp]
	mov	rdx, QWORD PTR -8[rbp]
	sub	rdx, QWORD PTR fs:40
	je	.L280
	call	__stack_chk_fail@PLT
.L280:
	leave
	.cfi_def_cfa 7, 8
	ret
	.cfi_endproc
.LFE11352:
	.size	_ZNK9__gnu_cxx17__normal_iteratorIPiSt6vectorIiSaIiEEEmiEl, .-_ZNK9__gnu_cxx17__normal_iteratorIPiSt6vectorIiSaIiEEEmiEl
	.section	.text._ZNK9__gnu_cxx5__ops15_Iter_less_iterclINS_17__normal_iteratorIPiSt6vectorIiSaIiEEEES8_EEbT_T0_,"axG",@progbits,_ZNK9__gnu_cxx5__ops15_Iter_less_iterclINS_17__normal_iteratorIPiSt6vectorIiSaIiEEEES8_EEbT_T0_,comdat
	.align 2
	.weak	_ZNK9__gnu_cxx5__ops15_Iter_less_iterclINS_17__normal_iteratorIPiSt6vectorIiSaIiEEEES8_EEbT_T0_
	.type	_ZNK9__gnu_cxx5__ops15_Iter_less_iterclINS_17__normal_iteratorIPiSt6vectorIiSaIiEEEES8_EEbT_T0_, @function
_ZNK9__gnu_cxx5__ops15_Iter_less_iterclINS_17__normal_iteratorIPiSt6vectorIiSaIiEEEES8_EEbT_T0_:
.LFB11354:
	.cfi_startproc
	endbr64
	push	rbp
	.cfi_def_cfa_offset 16
	.cfi_offset 6, -16
	mov	rbp, rsp
	.cfi_def_cfa_register 6
	push	rbx
	sub	rsp, 40
	.cfi_offset 3, -24
	mov	QWORD PTR -24[rbp], rdi
	mov	QWORD PTR -32[rbp], rsi
	mov	QWORD PTR -40[rbp], rdx
	lea	rax, -32[rbp]
	mov	rdi, rax
	call	_ZNK9__gnu_cxx17__normal_iteratorIPiSt6vectorIiSaIiEEEdeEv
	mov	ebx, DWORD PTR [rax]
	lea	rax, -40[rbp]
	mov	rdi, rax
	call	_ZNK9__gnu_cxx17__normal_iteratorIPiSt6vectorIiSaIiEEEdeEv
	mov	eax, DWORD PTR [rax]
	cmp	ebx, eax
	setl	al
	mov	rbx, QWORD PTR -8[rbp]
	leave
	.cfi_def_cfa 7, 8
	ret
	.cfi_endproc
.LFE11354:
	.size	_ZNK9__gnu_cxx5__ops15_Iter_less_iterclINS_17__normal_iteratorIPiSt6vectorIiSaIiEEEES8_EEbT_T0_, .-_ZNK9__gnu_cxx5__ops15_Iter_less_iterclINS_17__normal_iteratorIPiSt6vectorIiSaIiEEEES8_EEbT_T0_
	.section	.text._ZSt22__move_median_to_firstIN9__gnu_cxx17__normal_iteratorIPiSt6vectorIiSaIiEEEENS0_5__ops15_Iter_less_iterEEvT_S9_S9_S9_T0_,"axG",@progbits,_ZSt22__move_median_to_firstIN9__gnu_cxx17__normal_iteratorIPiSt6vectorIiSaIiEEEENS0_5__ops15_Iter_less_iterEEvT_S9_S9_S9_T0_,comdat
	.weak	_ZSt22__move_median_to_firstIN9__gnu_cxx17__normal_iteratorIPiSt6vectorIiSaIiEEEENS0_5__ops15_Iter_less_iterEEvT_S9_S9_S9_T0_
	.type	_ZSt22__move_median_to_firstIN9__gnu_cxx17__normal_iteratorIPiSt6vectorIiSaIiEEEENS0_5__ops15_Iter_less_iterEEvT_S9_S9_S9_T0_, @function
_ZSt22__move_median_to_firstIN9__gnu_cxx17__normal_iteratorIPiSt6vectorIiSaIiEEEENS0_5__ops15_Iter_less_iterEEvT_S9_S9_S9_T0_:
.LFB11353:
	.cfi_startproc
	endbr64
	push	rbp
	.cfi_def_cfa_offset 16
	.cfi_offset 6, -16
	mov	rbp, rsp
	.cfi_def_cfa_register 6
	sub	rsp, 48
	mov	QWORD PTR -8[rbp], rdi
	mov	QWORD PTR -16[rbp], rsi
	mov	QWORD PTR -24[rbp], rdx
	mov	QWORD PTR -32[rbp], rcx
	mov	rdx, QWORD PTR -24[rbp]
	mov	rcx, QWORD PTR -16[rbp]
	lea	rax, -33[rbp]
	mov	rsi, rcx
	mov	rdi, rax
	call	_ZNK9__gnu_cxx5__ops15_Iter_less_iterclINS_17__normal_iteratorIPiSt6vectorIiSaIiEEEES8_EEbT_T0_
	test	al, al
	je	.L284
	mov	rdx, QWORD PTR -32[rbp]
	mov	rcx, QWORD PTR -24[rbp]
	lea	rax, -33[rbp]
	mov	rsi, rcx
	mov	rdi, rax
	call	_ZNK9__gnu_cxx5__ops15_Iter_less_iterclINS_17__normal_iteratorIPiSt6vectorIiSaIiEEEES8_EEbT_T0_
	test	al, al
	je	.L285
	mov	rdx, QWORD PTR -24[rbp]
	mov	rax, QWORD PTR -8[rbp]
	mov	rsi, rdx
	mov	rdi, rax
	call	_ZSt9iter_swapIN9__gnu_cxx17__normal_iteratorIPiSt6vectorIiSaIiEEEES6_EvT_T0_
	jmp	.L290
.L285:
	mov	rdx, QWORD PTR -32[rbp]
	mov	rcx, QWORD PTR -16[rbp]
	lea	rax, -33[rbp]
	mov	rsi, rcx
	mov	rdi, rax
	call	_ZNK9__gnu_cxx5__ops15_Iter_less_iterclINS_17__normal_iteratorIPiSt6vectorIiSaIiEEEES8_EEbT_T0_
	test	al, al
	je	.L287
	mov	rdx, QWORD PTR -32[rbp]
	mov	rax, QWORD PTR -8[rbp]
	mov	rsi, rdx
	mov	rdi, rax
	call	_ZSt9iter_swapIN9__gnu_cxx17__normal_iteratorIPiSt6vectorIiSaIiEEEES6_EvT_T0_
	jmp	.L290
.L287:
	mov	rdx, QWORD PTR -16[rbp]
	mov	rax, QWORD PTR -8[rbp]
	mov	rsi, rdx
	mov	rdi, rax
	call	_ZSt9iter_swapIN9__gnu_cxx17__normal_iteratorIPiSt6vectorIiSaIiEEEES6_EvT_T0_
	jmp	.L290
.L284:
	mov	rdx, QWORD PTR -32[rbp]
	mov	rcx, QWORD PTR -16[rbp]
	lea	rax, -33[rbp]
	mov	rsi, rcx
	mov	rdi, rax
	call	_ZNK9__gnu_cxx5__ops15_Iter_less_iterclINS_17__normal_iteratorIPiSt6vectorIiSaIiEEEES8_EEbT_T0_
	test	al, al
	je	.L288
	mov	rdx, QWORD PTR -16[rbp]
	mov	rax, QWORD PTR -8[rbp]
	mov	rsi, rdx
	mov	rdi, rax
	call	_ZSt9iter_swapIN9__gnu_cxx17__normal_iteratorIPiSt6vectorIiSaIiEEEES6_EvT_T0_
	jmp	.L290
.L288:
	mov	rdx, QWORD PTR -32[rbp]
	mov	rcx, QWORD PTR -24[rbp]
	lea	rax, -33[rbp]
	mov	rsi, rcx
	mov	rdi, rax
	call	_ZNK9__gnu_cxx5__ops15_Iter_less_iterclINS_17__normal_iteratorIPiSt6vectorIiSaIiEEEES8_EEbT_T0_
	test	al, al
	je	.L289
	mov	rdx, QWORD PTR -32[rbp]
	mov	rax, QWORD PTR -8[rbp]
	mov	rsi, rdx
	mov	rdi, rax
	call	_ZSt9iter_swapIN9__gnu_cxx17__normal_iteratorIPiSt6vectorIiSaIiEEEES6_EvT_T0_
	jmp	.L290
.L289:
	mov	rdx, QWORD PTR -24[rbp]
	mov	rax, QWORD PTR -8[rbp]
	mov	rsi, rdx
	mov	rdi, rax
	call	_ZSt9iter_swapIN9__gnu_cxx17__normal_iteratorIPiSt6vectorIiSaIiEEEES6_EvT_T0_
.L290:
	nop
	leave
	.cfi_def_cfa 7, 8
	ret
	.cfi_endproc
.LFE11353:
	.size	_ZSt22__move_median_to_firstIN9__gnu_cxx17__normal_iteratorIPiSt6vectorIiSaIiEEEENS0_5__ops15_Iter_less_iterEEvT_S9_S9_S9_T0_, .-_ZSt22__move_median_to_firstIN9__gnu_cxx17__normal_iteratorIPiSt6vectorIiSaIiEEEENS0_5__ops15_Iter_less_iterEEvT_S9_S9_S9_T0_
	.section	.text._ZSt21__unguarded_partitionIN9__gnu_cxx17__normal_iteratorIPiSt6vectorIiSaIiEEEENS0_5__ops15_Iter_less_iterEET_S9_S9_S9_T0_,"axG",@progbits,_ZSt21__unguarded_partitionIN9__gnu_cxx17__normal_iteratorIPiSt6vectorIiSaIiEEEENS0_5__ops15_Iter_less_iterEET_S9_S9_S9_T0_,comdat
	.weak	_ZSt21__unguarded_partitionIN9__gnu_cxx17__normal_iteratorIPiSt6vectorIiSaIiEEEENS0_5__ops15_Iter_less_iterEET_S9_S9_S9_T0_
	.type	_ZSt21__unguarded_partitionIN9__gnu_cxx17__normal_iteratorIPiSt6vectorIiSaIiEEEENS0_5__ops15_Iter_less_iterEET_S9_S9_S9_T0_, @function
_ZSt21__unguarded_partitionIN9__gnu_cxx17__normal_iteratorIPiSt6vectorIiSaIiEEEENS0_5__ops15_Iter_less_iterEET_S9_S9_S9_T0_:
.LFB11355:
	.cfi_startproc
	endbr64
	push	rbp
	.cfi_def_cfa_offset 16
	.cfi_offset 6, -16
	mov	rbp, rsp
	.cfi_def_cfa_register 6
	sub	rsp, 32
	mov	QWORD PTR -8[rbp], rdi
	mov	QWORD PTR -16[rbp], rsi
	mov	QWORD PTR -24[rbp], rdx
	jmp	.L292
.L293:
	lea	rax, -8[rbp]
	mov	rdi, rax
	call	_ZN9__gnu_cxx17__normal_iteratorIPiSt6vectorIiSaIiEEEppEv
.L292:
	mov	rdx, QWORD PTR -24[rbp]
	mov	rcx, QWORD PTR -8[rbp]
	lea	rax, -25[rbp]
	mov	rsi, rcx
	mov	rdi, rax
	call	_ZNK9__gnu_cxx5__ops15_Iter_less_iterclINS_17__normal_iteratorIPiSt6vectorIiSaIiEEEES8_EEbT_T0_
	test	al, al
	jne	.L293
	lea	rax, -16[rbp]
	mov	rdi, rax
	call	_ZN9__gnu_cxx17__normal_iteratorIPiSt6vectorIiSaIiEEEmmEv
	jmp	.L294
.L295:
	lea	rax, -16[rbp]
	mov	rdi, rax
	call	_ZN9__gnu_cxx17__normal_iteratorIPiSt6vectorIiSaIiEEEmmEv
.L294:
	mov	rdx, QWORD PTR -16[rbp]
	mov	rcx, QWORD PTR -24[rbp]
	lea	rax, -25[rbp]
	mov	rsi, rcx
	mov	rdi, rax
	call	_ZNK9__gnu_cxx5__ops15_Iter_less_iterclINS_17__normal_iteratorIPiSt6vectorIiSaIiEEEES8_EEbT_T0_
	test	al, al
	jne	.L295
	lea	rdx, -16[rbp]
	lea	rax, -8[rbp]
	mov	rsi, rdx
	mov	rdi, rax
	call	_ZN9__gnu_cxxltIPiSt6vectorIiSaIiEEEEbRKNS_17__normal_iteratorIT_T0_EESA_
	xor	eax, 1
	test	al, al
	je	.L296
	mov	rax, QWORD PTR -8[rbp]
	jmp	.L299
.L296:
	mov	rdx, QWORD PTR -16[rbp]
	mov	rax, QWORD PTR -8[rbp]
	mov	rsi, rdx
	mov	rdi, rax
	call	_ZSt9iter_swapIN9__gnu_cxx17__normal_iteratorIPiSt6vectorIiSaIiEEEES6_EvT_T0_
	lea	rax, -8[rbp]
	mov	rdi, rax
	call	_ZN9__gnu_cxx17__normal_iteratorIPiSt6vectorIiSaIiEEEppEv
	jmp	.L292
.L299:
	leave
	.cfi_def_cfa 7, 8
	ret
	.cfi_endproc
.LFE11355:
	.size	_ZSt21__unguarded_partitionIN9__gnu_cxx17__normal_iteratorIPiSt6vectorIiSaIiEEEENS0_5__ops15_Iter_less_iterEET_S9_S9_S9_T0_, .-_ZSt21__unguarded_partitionIN9__gnu_cxx17__normal_iteratorIPiSt6vectorIiSaIiEEEENS0_5__ops15_Iter_less_iterEET_S9_S9_S9_T0_
	.section	.text._ZN9__gnu_cxxeqIPiSt6vectorIiSaIiEEEEbRKNS_17__normal_iteratorIT_T0_EESA_,"axG",@progbits,_ZN9__gnu_cxxeqIPiSt6vectorIiSaIiEEEEbRKNS_17__normal_iteratorIT_T0_EESA_,comdat
	.weak	_ZN9__gnu_cxxeqIPiSt6vectorIiSaIiEEEEbRKNS_17__normal_iteratorIT_T0_EESA_
	.type	_ZN9__gnu_cxxeqIPiSt6vectorIiSaIiEEEEbRKNS_17__normal_iteratorIT_T0_EESA_, @function
_ZN9__gnu_cxxeqIPiSt6vectorIiSaIiEEEEbRKNS_17__normal_iteratorIT_T0_EESA_:
.LFB11356:
	.cfi_startproc
	endbr64
	push	rbp
	.cfi_def_cfa_offset 16
	.cfi_offset 6, -16
	mov	rbp, rsp
	.cfi_def_cfa_register 6
	push	rbx
	sub	rsp, 24
	.cfi_offset 3, -24
	mov	QWORD PTR -24[rbp], rdi
	mov	QWORD PTR -32[rbp], rsi
	mov	rax, QWORD PTR -24[rbp]
	mov	rdi, rax
	call	_ZNK9__gnu_cxx17__normal_iteratorIPiSt6vectorIiSaIiEEE4baseEv
	mov	rbx, QWORD PTR [rax]
	mov	rax, QWORD PTR -32[rbp]
	mov	rdi, rax
	call	_ZNK9__gnu_cxx17__normal_iteratorIPiSt6vectorIiSaIiEEE4baseEv
	mov	rax, QWORD PTR [rax]
	cmp	rbx, rax
	sete	al
	mov	rbx, QWORD PTR -8[rbp]
	leave
	.cfi_def_cfa 7, 8
	ret
	.cfi_endproc
.LFE11356:
	.size	_ZN9__gnu_cxxeqIPiSt6vectorIiSaIiEEEEbRKNS_17__normal_iteratorIT_T0_EESA_, .-_ZN9__gnu_cxxeqIPiSt6vectorIiSaIiEEEEbRKNS_17__normal_iteratorIT_T0_EESA_
	.section	.text._ZSt4moveIRiEONSt16remove_referenceIT_E4typeEOS2_,"axG",@progbits,_ZSt4moveIRiEONSt16remove_referenceIT_E4typeEOS2_,comdat
	.weak	_ZSt4moveIRiEONSt16remove_referenceIT_E4typeEOS2_
	.type	_ZSt4moveIRiEONSt16remove_referenceIT_E4typeEOS2_, @function
_ZSt4moveIRiEONSt16remove_referenceIT_E4typeEOS2_:
.LFB11357:
	.cfi_startproc
	endbr64
	push	rbp
	.cfi_def_cfa_offset 16
	.cfi_offset 6, -16
	mov	rbp, rsp
	.cfi_def_cfa_register 6
	mov	QWORD PTR -8[rbp], rdi
	mov	rax, QWORD PTR -8[rbp]
	pop	rbp
	.cfi_def_cfa 7, 8
	ret
	.cfi_endproc
.LFE11357:
	.size	_ZSt4moveIRiEONSt16remove_referenceIT_E4typeEOS2_, .-_ZSt4moveIRiEONSt16remove_referenceIT_E4typeEOS2_
	.section	.text._ZSt13move_backwardIN9__gnu_cxx17__normal_iteratorIPiSt6vectorIiSaIiEEEES6_ET0_T_S8_S7_,"axG",@progbits,_ZSt13move_backwardIN9__gnu_cxx17__normal_iteratorIPiSt6vectorIiSaIiEEEES6_ET0_T_S8_S7_,comdat
	.weak	_ZSt13move_backwardIN9__gnu_cxx17__normal_iteratorIPiSt6vectorIiSaIiEEEES6_ET0_T_S8_S7_
	.type	_ZSt13move_backwardIN9__gnu_cxx17__normal_iteratorIPiSt6vectorIiSaIiEEEES6_ET0_T_S8_S7_, @function
_ZSt13move_backwardIN9__gnu_cxx17__normal_iteratorIPiSt6vectorIiSaIiEEEES6_ET0_T_S8_S7_:
.LFB11358:
	.cfi_startproc
	endbr64
	push	rbp
	.cfi_def_cfa_offset 16
	.cfi_offset 6, -16
	mov	rbp, rsp
	.cfi_def_cfa_register 6
	push	rbx
	sub	rsp, 40
	.cfi_offset 3, -24
	mov	QWORD PTR -24[rbp], rdi
	mov	QWORD PTR -32[rbp], rsi
	mov	QWORD PTR -40[rbp], rdx
	mov	rax, QWORD PTR -32[rbp]
	mov	rdi, rax
	call	_ZSt12__miter_baseIN9__gnu_cxx17__normal_iteratorIPiSt6vectorIiSaIiEEEEET_S7_
	mov	rbx, rax
	mov	rax, QWORD PTR -24[rbp]
	mov	rdi, rax
	call	_ZSt12__miter_baseIN9__gnu_cxx17__normal_iteratorIPiSt6vectorIiSaIiEEEEET_S7_
	mov	rcx, rax
	mov	rax, QWORD PTR -40[rbp]
	mov	rdx, rax
	mov	rsi, rbx
	mov	rdi, rcx
	call	_ZSt22__copy_move_backward_aILb1EN9__gnu_cxx17__normal_iteratorIPiSt6vectorIiSaIiEEEES6_ET1_T0_S8_S7_
	mov	rbx, QWORD PTR -8[rbp]
	leave
	.cfi_def_cfa 7, 8
	ret
	.cfi_endproc
.LFE11358:
	.size	_ZSt13move_backwardIN9__gnu_cxx17__normal_iteratorIPiSt6vectorIiSaIiEEEES6_ET0_T_S8_S7_, .-_ZSt13move_backwardIN9__gnu_cxx17__normal_iteratorIPiSt6vectorIiSaIiEEEES6_ET0_T_S8_S7_
	.section	.text._ZSt25__unguarded_linear_insertIN9__gnu_cxx17__normal_iteratorIPiSt6vectorIiSaIiEEEENS0_5__ops14_Val_less_iterEEvT_T0_,"axG",@progbits,_ZSt25__unguarded_linear_insertIN9__gnu_cxx17__normal_iteratorIPiSt6vectorIiSaIiEEEENS0_5__ops14_Val_less_iterEEvT_T0_,comdat
	.weak	_ZSt25__unguarded_linear_insertIN9__gnu_cxx17__normal_iteratorIPiSt6vectorIiSaIiEEEENS0_5__ops14_Val_less_iterEEvT_T0_
	.type	_ZSt25__unguarded_linear_insertIN9__gnu_cxx17__normal_iteratorIPiSt6vectorIiSaIiEEEENS0_5__ops14_Val_less_iterEEvT_T0_, @function
_ZSt25__unguarded_linear_insertIN9__gnu_cxx17__normal_iteratorIPiSt6vectorIiSaIiEEEENS0_5__ops14_Val_less_iterEEvT_T0_:
.LFB11359:
	.cfi_startproc
	endbr64
	push	rbp
	.cfi_def_cfa_offset 16
	.cfi_offset 6, -16
	mov	rbp, rsp
	.cfi_def_cfa_register 6
	push	rbx
	sub	rsp, 56
	.cfi_offset 3, -24
	mov	QWORD PTR -56[rbp], rdi
	mov	rax, QWORD PTR fs:40
	mov	QWORD PTR -24[rbp], rax
	xor	eax, eax
	lea	rax, -56[rbp]
	mov	rdi, rax
	call	_ZNK9__gnu_cxx17__normal_iteratorIPiSt6vectorIiSaIiEEEdeEv
	mov	rdi, rax
	call	_ZSt4moveIRiEONSt16remove_referenceIT_E4typeEOS2_
	mov	eax, DWORD PTR [rax]
	mov	DWORD PTR -36[rbp], eax
	mov	rax, QWORD PTR -56[rbp]
	mov	QWORD PTR -32[rbp], rax
	lea	rax, -32[rbp]
	mov	rdi, rax
	call	_ZN9__gnu_cxx17__normal_iteratorIPiSt6vectorIiSaIiEEEmmEv
	jmp	.L307
.L308:
	lea	rax, -32[rbp]
	mov	rdi, rax
	call	_ZNK9__gnu_cxx17__normal_iteratorIPiSt6vectorIiSaIiEEEdeEv
	mov	rdi, rax
	call	_ZSt4moveIRiEONSt16remove_referenceIT_E4typeEOS2_
	mov	ebx, DWORD PTR [rax]
	lea	rax, -56[rbp]
	mov	rdi, rax
	call	_ZNK9__gnu_cxx17__normal_iteratorIPiSt6vectorIiSaIiEEEdeEv
	mov	DWORD PTR [rax], ebx
	mov	rax, QWORD PTR -32[rbp]
	mov	QWORD PTR -56[rbp], rax
	lea	rax, -32[rbp]
	mov	rdi, rax
	call	_ZN9__gnu_cxx17__normal_iteratorIPiSt6vectorIiSaIiEEEmmEv
.L307:
	mov	rdx, QWORD PTR -32[rbp]
	lea	rcx, -36[rbp]
	lea	rax, -57[rbp]
	mov	rsi, rcx
	mov	rdi, rax
	call	_ZNK9__gnu_cxx5__ops14_Val_less_iterclIiNS_17__normal_iteratorIPiSt6vectorIiSaIiEEEEEEbRT_T0_
	test	al, al
	jne	.L308
	lea	rax, -36[rbp]
	mov	rdi, rax
	call	_ZSt4moveIRiEONSt16remove_referenceIT_E4typeEOS2_
	mov	ebx, DWORD PTR [rax]
	lea	rax, -56[rbp]
	mov	rdi, rax
	call	_ZNK9__gnu_cxx17__normal_iteratorIPiSt6vectorIiSaIiEEEdeEv
	mov	DWORD PTR [rax], ebx
	nop
	mov	rax, QWORD PTR -24[rbp]
	sub	rax, QWORD PTR fs:40
	je	.L309
	call	__stack_chk_fail@PLT
.L309:
	mov	rbx, QWORD PTR -8[rbp]
	leave
	.cfi_def_cfa 7, 8
	ret
	.cfi_endproc
.LFE11359:
	.size	_ZSt25__unguarded_linear_insertIN9__gnu_cxx17__normal_iteratorIPiSt6vectorIiSaIiEEEENS0_5__ops14_Val_less_iterEEvT_T0_, .-_ZSt25__unguarded_linear_insertIN9__gnu_cxx17__normal_iteratorIPiSt6vectorIiSaIiEEEENS0_5__ops14_Val_less_iterEEvT_T0_
	.section	.text._ZN9__gnu_cxx17__normal_iteratorIPiSt6vectorIiSaIiEEEmmEv,"axG",@progbits,_ZN9__gnu_cxx17__normal_iteratorIPiSt6vectorIiSaIiEEEmmEv,comdat
	.align 2
	.weak	_ZN9__gnu_cxx17__normal_iteratorIPiSt6vectorIiSaIiEEEmmEv
	.type	_ZN9__gnu_cxx17__normal_iteratorIPiSt6vectorIiSaIiEEEmmEv, @function
_ZN9__gnu_cxx17__normal_iteratorIPiSt6vectorIiSaIiEEEmmEv:
.LFB11360:
	.cfi_startproc
	endbr64
	push	rbp
	.cfi_def_cfa_offset 16
	.cfi_offset 6, -16
	mov	rbp, rsp
	.cfi_def_cfa_register 6
	mov	QWORD PTR -8[rbp], rdi
	mov	rax, QWORD PTR -8[rbp]
	mov	rax, QWORD PTR [rax]
	lea	rdx, -4[rax]
	mov	rax, QWORD PTR -8[rbp]
	mov	QWORD PTR [rax], rdx
	mov	rax, QWORD PTR -8[rbp]
	pop	rbp
	.cfi_def_cfa 7, 8
	ret
	.cfi_endproc
.LFE11360:
	.size	_ZN9__gnu_cxx17__normal_iteratorIPiSt6vectorIiSaIiEEEmmEv, .-_ZN9__gnu_cxx17__normal_iteratorIPiSt6vectorIiSaIiEEEmmEv
	.section	.text._ZN9__gnu_cxx17__normal_iteratorIPiSt6vectorIiSaIiEEEpLEl,"axG",@progbits,_ZN9__gnu_cxx17__normal_iteratorIPiSt6vectorIiSaIiEEEpLEl,comdat
	.align 2
	.weak	_ZN9__gnu_cxx17__normal_iteratorIPiSt6vectorIiSaIiEEEpLEl
	.type	_ZN9__gnu_cxx17__normal_iteratorIPiSt6vectorIiSaIiEEEpLEl, @function
_ZN9__gnu_cxx17__normal_iteratorIPiSt6vectorIiSaIiEEEpLEl:
.LFB11361:
	.cfi_startproc
	endbr64
	push	rbp
	.cfi_def_cfa_offset 16
	.cfi_offset 6, -16
	mov	rbp, rsp
	.cfi_def_cfa_register 6
	mov	QWORD PTR -8[rbp], rdi
	mov	QWORD PTR -16[rbp], rsi
	mov	rax, QWORD PTR -8[rbp]
	mov	rdx, QWORD PTR [rax]
	mov	rax, QWORD PTR -16[rbp]
	sal	rax, 2
	add	rdx, rax
	mov	rax, QWORD PTR -8[rbp]
	mov	QWORD PTR [rax], rdx
	mov	rax, QWORD PTR -8[rbp]
	pop	rbp
	.cfi_def_cfa 7, 8
	ret
	.cfi_endproc
.LFE11361:
	.size	_ZN9__gnu_cxx17__normal_iteratorIPiSt6vectorIiSaIiEEEpLEl, .-_ZN9__gnu_cxx17__normal_iteratorIPiSt6vectorIiSaIiEEEpLEl
	.section	.text._ZSt10_ConstructIiJEEvPT_DpOT0_,"axG",@progbits,_ZSt10_ConstructIiJEEvPT_DpOT0_,comdat
	.weak	_ZSt10_ConstructIiJEEvPT_DpOT0_
	.type	_ZSt10_ConstructIiJEEvPT_DpOT0_, @function
_ZSt10_ConstructIiJEEvPT_DpOT0_:
.LFB11467:
	.cfi_startproc
	endbr64
	push	rbp
	.cfi_def_cfa_offset 16
	.cfi_offset 6, -16
	mov	rbp, rsp
	.cfi_def_cfa_register 6
	sub	rsp, 16
	mov	QWORD PTR -8[rbp], rdi
	mov	rax, QWORD PTR -8[rbp]
	mov	rsi, rax
	mov	edi, 4
	call	_ZnwmPv
	mov	DWORD PTR [rax], 0
	nop
	leave
	.cfi_def_cfa 7, 8
	ret
	.cfi_endproc
.LFE11467:
	.size	_ZSt10_ConstructIiJEEvPT_DpOT0_, .-_ZSt10_ConstructIiJEEvPT_DpOT0_
	.section	.text._ZSt6fill_nIPimiET_S1_T0_RKT1_,"axG",@progbits,_ZSt6fill_nIPimiET_S1_T0_RKT1_,comdat
	.weak	_ZSt6fill_nIPimiET_S1_T0_RKT1_
	.type	_ZSt6fill_nIPimiET_S1_T0_RKT1_, @function
_ZSt6fill_nIPimiET_S1_T0_RKT1_:
.LFB11468:
	.cfi_startproc
	endbr64
	push	rbp
	.cfi_def_cfa_offset 16
	.cfi_offset 6, -16
	mov	rbp, rsp
	.cfi_def_cfa_register 6
	sub	rsp, 32
	mov	QWORD PTR -8[rbp], rdi
	mov	QWORD PTR -16[rbp], rsi
	mov	QWORD PTR -24[rbp], rdx
	lea	rax, -8[rbp]
	mov	rdi, rax
	call	_ZSt19__iterator_categoryIPiENSt15iterator_traitsIT_E17iterator_categoryERKS2_
	mov	rax, QWORD PTR -16[rbp]
	mov	rdi, rax
	call	_ZSt17__size_to_integerm
	mov	rcx, rax
	mov	rax, QWORD PTR -8[rbp]
	mov	rdx, QWORD PTR -24[rbp]
	mov	rsi, rcx
	mov	rdi, rax
	call	_ZSt10__fill_n_aIPimiET_S1_T0_RKT1_St26random_access_iterator_tag
	leave
	.cfi_def_cfa 7, 8
	ret
	.cfi_endproc
.LFE11468:
	.size	_ZSt6fill_nIPimiET_S1_T0_RKT1_, .-_ZSt6fill_nIPimiET_S1_T0_RKT1_
	.section	.text._ZSt4copyIN9__gnu_cxx17__normal_iteratorIPKiSt6vectorIiSaIiEEEEPiET0_T_SA_S9_,"axG",@progbits,_ZSt4copyIN9__gnu_cxx17__normal_iteratorIPKiSt6vectorIiSaIiEEEEPiET0_T_SA_S9_,comdat
	.weak	_ZSt4copyIN9__gnu_cxx17__normal_iteratorIPKiSt6vectorIiSaIiEEEEPiET0_T_SA_S9_
	.type	_ZSt4copyIN9__gnu_cxx17__normal_iteratorIPKiSt6vectorIiSaIiEEEEPiET0_T_SA_S9_, @function
_ZSt4copyIN9__gnu_cxx17__normal_iteratorIPKiSt6vectorIiSaIiEEEEPiET0_T_SA_S9_:
.LFB11469:
	.cfi_startproc
	endbr64
	push	rbp
	.cfi_def_cfa_offset 16
	.cfi_offset 6, -16
	mov	rbp, rsp
	.cfi_def_cfa_register 6
	push	rbx
	sub	rsp, 40
	.cfi_offset 3, -24
	mov	QWORD PTR -24[rbp], rdi
	mov	QWORD PTR -32[rbp], rsi
	mov	QWORD PTR -40[rbp], rdx
	mov	rax, QWORD PTR -32[rbp]
	mov	rdi, rax
	call	_ZSt12__miter_baseIN9__gnu_cxx17__normal_iteratorIPKiSt6vectorIiSaIiEEEEET_S8_
	mov	rbx, rax
	mov	rax, QWORD PTR -24[rbp]
	mov	rdi, rax
	call	_ZSt12__miter_baseIN9__gnu_cxx17__normal_iteratorIPKiSt6vectorIiSaIiEEEEET_S8_
	mov	rcx, rax
	mov	rax, QWORD PTR -40[rbp]
	mov	rdx, rax
	mov	rsi, rbx
	mov	rdi, rcx
	call	_ZSt13__copy_move_aILb0EN9__gnu_cxx17__normal_iteratorIPKiSt6vectorIiSaIiEEEEPiET1_T0_SA_S9_
	mov	rbx, QWORD PTR -8[rbp]
	leave
	.cfi_def_cfa 7, 8
	ret
	.cfi_endproc
.LFE11469:
	.size	_ZSt4copyIN9__gnu_cxx17__normal_iteratorIPKiSt6vectorIiSaIiEEEEPiET0_T_SA_S9_, .-_ZSt4copyIN9__gnu_cxx17__normal_iteratorIPKiSt6vectorIiSaIiEEEEPiET0_T_SA_S9_
	.section	.text._ZNSt11__copy_moveILb0ELb1ESt26random_access_iterator_tagE8__copy_mIiEEPT_PKS3_S6_S4_,"axG",@progbits,_ZNSt11__copy_moveILb0ELb1ESt26random_access_iterator_tagE8__copy_mIiEEPT_PKS3_S6_S4_,comdat
	.weak	_ZNSt11__copy_moveILb0ELb1ESt26random_access_iterator_tagE8__copy_mIiEEPT_PKS3_S6_S4_
	.type	_ZNSt11__copy_moveILb0ELb1ESt26random_access_iterator_tagE8__copy_mIiEEPT_PKS3_S6_S4_, @function
_ZNSt11__copy_moveILb0ELb1ESt26random_access_iterator_tagE8__copy_mIiEEPT_PKS3_S6_S4_:
.LFB11470:
	.cfi_startproc
	endbr64
	push	rbp
	.cfi_def_cfa_offset 16
	.cfi_offset 6, -16
	mov	rbp, rsp
	.cfi_def_cfa_register 6
	sub	rsp, 48
	mov	QWORD PTR -24[rbp], rdi
	mov	QWORD PTR -32[rbp], rsi
	mov	QWORD PTR -40[rbp], rdx
	mov	rax, QWORD PTR -32[rbp]
	sub	rax, QWORD PTR -24[rbp]
	sar	rax, 2
	mov	QWORD PTR -8[rbp], rax
	cmp	QWORD PTR -8[rbp], 0
	je	.L320
	mov	rax, QWORD PTR -8[rbp]
	lea	rdx, 0[0+rax*4]
	mov	rcx, QWORD PTR -24[rbp]
	mov	rax, QWORD PTR -40[rbp]
	mov	rsi, rcx
	mov	rdi, rax
	call	memmove@PLT
.L320:
	mov	rax, QWORD PTR -8[rbp]
	lea	rdx, 0[0+rax*4]
	mov	rax, QWORD PTR -40[rbp]
	add	rax, rdx
	leave
	.cfi_def_cfa 7, 8
	ret
	.cfi_endproc
.LFE11470:
	.size	_ZNSt11__copy_moveILb0ELb1ESt26random_access_iterator_tagE8__copy_mIiEEPT_PKS3_S6_S4_, .-_ZNSt11__copy_moveILb0ELb1ESt26random_access_iterator_tagE8__copy_mIiEEPT_PKS3_S6_S4_
	.section	.text._ZSt11__make_heapIN9__gnu_cxx17__normal_iteratorIPiSt6vectorIiSaIiEEEENS0_5__ops15_Iter_less_iterEEvT_S9_RT0_,"axG",@progbits,_ZSt11__make_heapIN9__gnu_cxx17__normal_iteratorIPiSt6vectorIiSaIiEEEENS0_5__ops15_Iter_less_iterEEvT_S9_RT0_,comdat
	.weak	_ZSt11__make_heapIN9__gnu_cxx17__normal_iteratorIPiSt6vectorIiSaIiEEEENS0_5__ops15_Iter_less_iterEEvT_S9_RT0_
	.type	_ZSt11__make_heapIN9__gnu_cxx17__normal_iteratorIPiSt6vectorIiSaIiEEEENS0_5__ops15_Iter_less_iterEEvT_S9_RT0_, @function
_ZSt11__make_heapIN9__gnu_cxx17__normal_iteratorIPiSt6vectorIiSaIiEEEENS0_5__ops15_Iter_less_iterEEvT_S9_RT0_:
.LFB11471:
	.cfi_startproc
	endbr64
	push	rbp
	.cfi_def_cfa_offset 16
	.cfi_offset 6, -16
	mov	rbp, rsp
	.cfi_def_cfa_register 6
	sub	rsp, 80
	mov	QWORD PTR -56[rbp], rdi
	mov	QWORD PTR -64[rbp], rsi
	mov	QWORD PTR -72[rbp], rdx
	mov	rax, QWORD PTR fs:40
	mov	QWORD PTR -8[rbp], rax
	xor	eax, eax
	lea	rdx, -56[rbp]
	lea	rax, -64[rbp]
	mov	rsi, rdx
	mov	rdi, rax
	call	_ZN9__gnu_cxxmiIPiSt6vectorIiSaIiEEEENS_17__normal_iteratorIT_T0_E15difference_typeERKS8_SB_
	cmp	rax, 1
	setle	al
	test	al, al
	jne	.L328
	lea	rdx, -56[rbp]
	lea	rax, -64[rbp]
	mov	rsi, rdx
	mov	rdi, rax
	call	_ZN9__gnu_cxxmiIPiSt6vectorIiSaIiEEEENS_17__normal_iteratorIT_T0_E15difference_typeERKS8_SB_
	mov	QWORD PTR -16[rbp], rax
	mov	rax, QWORD PTR -16[rbp]
	sub	rax, 2
	mov	rdx, rax
	shr	rdx, 63
	add	rax, rdx
	sar	rax
	mov	QWORD PTR -24[rbp], rax
.L326:
	mov	rdx, QWORD PTR -24[rbp]
	lea	rax, -56[rbp]
	mov	rsi, rdx
	mov	rdi, rax
	call	_ZNK9__gnu_cxx17__normal_iteratorIPiSt6vectorIiSaIiEEEplEl
	mov	QWORD PTR -32[rbp], rax
	lea	rax, -32[rbp]
	mov	rdi, rax
	call	_ZNK9__gnu_cxx17__normal_iteratorIPiSt6vectorIiSaIiEEEdeEv
	mov	rdi, rax
	call	_ZSt4moveIRiEONSt16remove_referenceIT_E4typeEOS2_
	mov	eax, DWORD PTR [rax]
	mov	DWORD PTR -36[rbp], eax
	lea	rax, -36[rbp]
	mov	rdi, rax
	call	_ZSt4moveIRiEONSt16remove_referenceIT_E4typeEOS2_
	mov	ecx, DWORD PTR [rax]
	mov	rdx, QWORD PTR -16[rbp]
	mov	rsi, QWORD PTR -24[rbp]
	mov	rax, QWORD PTR -56[rbp]
	mov	rdi, rax
	call	_ZSt13__adjust_heapIN9__gnu_cxx17__normal_iteratorIPiSt6vectorIiSaIiEEEEliNS0_5__ops15_Iter_less_iterEEvT_T0_SA_T1_T2_
	cmp	QWORD PTR -24[rbp], 0
	je	.L329
	sub	QWORD PTR -24[rbp], 1
	jmp	.L326
.L328:
	nop
	jmp	.L322
.L329:
	nop
.L322:
	mov	rax, QWORD PTR -8[rbp]
	sub	rax, QWORD PTR fs:40
	je	.L327
	call	__stack_chk_fail@PLT
.L327:
	leave
	.cfi_def_cfa 7, 8
	ret
	.cfi_endproc
.LFE11471:
	.size	_ZSt11__make_heapIN9__gnu_cxx17__normal_iteratorIPiSt6vectorIiSaIiEEEENS0_5__ops15_Iter_less_iterEEvT_S9_RT0_, .-_ZSt11__make_heapIN9__gnu_cxx17__normal_iteratorIPiSt6vectorIiSaIiEEEENS0_5__ops15_Iter_less_iterEEvT_S9_RT0_
	.section	.text._ZN9__gnu_cxxltIPiSt6vectorIiSaIiEEEEbRKNS_17__normal_iteratorIT_T0_EESA_,"axG",@progbits,_ZN9__gnu_cxxltIPiSt6vectorIiSaIiEEEEbRKNS_17__normal_iteratorIT_T0_EESA_,comdat
	.weak	_ZN9__gnu_cxxltIPiSt6vectorIiSaIiEEEEbRKNS_17__normal_iteratorIT_T0_EESA_
	.type	_ZN9__gnu_cxxltIPiSt6vectorIiSaIiEEEEbRKNS_17__normal_iteratorIT_T0_EESA_, @function
_ZN9__gnu_cxxltIPiSt6vectorIiSaIiEEEEbRKNS_17__normal_iteratorIT_T0_EESA_:
.LFB11472:
	.cfi_startproc
	endbr64
	push	rbp
	.cfi_def_cfa_offset 16
	.cfi_offset 6, -16
	mov	rbp, rsp
	.cfi_def_cfa_register 6
	push	rbx
	sub	rsp, 24
	.cfi_offset 3, -24
	mov	QWORD PTR -24[rbp], rdi
	mov	QWORD PTR -32[rbp], rsi
	mov	rax, QWORD PTR -24[rbp]
	mov	rdi, rax
	call	_ZNK9__gnu_cxx17__normal_iteratorIPiSt6vectorIiSaIiEEE4baseEv
	mov	rbx, QWORD PTR [rax]
	mov	rax, QWORD PTR -32[rbp]
	mov	rdi, rax
	call	_ZNK9__gnu_cxx17__normal_iteratorIPiSt6vectorIiSaIiEEE4baseEv
	mov	rax, QWORD PTR [rax]
	cmp	rbx, rax
	setb	al
	mov	rbx, QWORD PTR -8[rbp]
	leave
	.cfi_def_cfa 7, 8
	ret
	.cfi_endproc
.LFE11472:
	.size	_ZN9__gnu_cxxltIPiSt6vectorIiSaIiEEEEbRKNS_17__normal_iteratorIT_T0_EESA_, .-_ZN9__gnu_cxxltIPiSt6vectorIiSaIiEEEEbRKNS_17__normal_iteratorIT_T0_EESA_
	.section	.text._ZSt10__pop_heapIN9__gnu_cxx17__normal_iteratorIPiSt6vectorIiSaIiEEEENS0_5__ops15_Iter_less_iterEEvT_S9_S9_RT0_,"axG",@progbits,_ZSt10__pop_heapIN9__gnu_cxx17__normal_iteratorIPiSt6vectorIiSaIiEEEENS0_5__ops15_Iter_less_iterEEvT_S9_S9_RT0_,comdat
	.weak	_ZSt10__pop_heapIN9__gnu_cxx17__normal_iteratorIPiSt6vectorIiSaIiEEEENS0_5__ops15_Iter_less_iterEEvT_S9_S9_RT0_
	.type	_ZSt10__pop_heapIN9__gnu_cxx17__normal_iteratorIPiSt6vectorIiSaIiEEEENS0_5__ops15_Iter_less_iterEEvT_S9_S9_RT0_, @function
_ZSt10__pop_heapIN9__gnu_cxx17__normal_iteratorIPiSt6vectorIiSaIiEEEENS0_5__ops15_Iter_less_iterEEvT_S9_S9_RT0_:
.LFB11473:
	.cfi_startproc
	endbr64
	push	rbp
	.cfi_def_cfa_offset 16
	.cfi_offset 6, -16
	mov	rbp, rsp
	.cfi_def_cfa_register 6
	push	rbx
	sub	rsp, 56
	.cfi_offset 3, -24
	mov	QWORD PTR -40[rbp], rdi
	mov	QWORD PTR -48[rbp], rsi
	mov	QWORD PTR -56[rbp], rdx
	mov	QWORD PTR -64[rbp], rcx
	mov	rax, QWORD PTR fs:40
	mov	QWORD PTR -24[rbp], rax
	xor	eax, eax
	lea	rax, -56[rbp]
	mov	rdi, rax
	call	_ZNK9__gnu_cxx17__normal_iteratorIPiSt6vectorIiSaIiEEEdeEv
	mov	rdi, rax
	call	_ZSt4moveIRiEONSt16remove_referenceIT_E4typeEOS2_
	mov	eax, DWORD PTR [rax]
	mov	DWORD PTR -28[rbp], eax
	lea	rax, -40[rbp]
	mov	rdi, rax
	call	_ZNK9__gnu_cxx17__normal_iteratorIPiSt6vectorIiSaIiEEEdeEv
	mov	rdi, rax
	call	_ZSt4moveIRiEONSt16remove_referenceIT_E4typeEOS2_
	mov	ebx, DWORD PTR [rax]
	lea	rax, -56[rbp]
	mov	rdi, rax
	call	_ZNK9__gnu_cxx17__normal_iteratorIPiSt6vectorIiSaIiEEEdeEv
	mov	DWORD PTR [rax], ebx
	lea	rax, -28[rbp]
	mov	rdi, rax
	call	_ZSt4moveIRiEONSt16remove_referenceIT_E4typeEOS2_
	mov	ebx, DWORD PTR [rax]
	lea	rdx, -40[rbp]
	lea	rax, -48[rbp]
	mov	rsi, rdx
	mov	rdi, rax
	call	_ZN9__gnu_cxxmiIPiSt6vectorIiSaIiEEEENS_17__normal_iteratorIT_T0_E15difference_typeERKS8_SB_
	mov	rdx, rax
	mov	rax, QWORD PTR -40[rbp]
	mov	ecx, ebx
	mov	esi, 0
	mov	rdi, rax
	call	_ZSt13__adjust_heapIN9__gnu_cxx17__normal_iteratorIPiSt6vectorIiSaIiEEEEliNS0_5__ops15_Iter_less_iterEEvT_T0_SA_T1_T2_
	nop
	mov	rax, QWORD PTR -24[rbp]
	sub	rax, QWORD PTR fs:40
	je	.L333
	call	__stack_chk_fail@PLT
.L333:
	mov	rbx, QWORD PTR -8[rbp]
	leave
	.cfi_def_cfa 7, 8
	ret
	.cfi_endproc
.LFE11473:
	.size	_ZSt10__pop_heapIN9__gnu_cxx17__normal_iteratorIPiSt6vectorIiSaIiEEEENS0_5__ops15_Iter_less_iterEEvT_S9_S9_RT0_, .-_ZSt10__pop_heapIN9__gnu_cxx17__normal_iteratorIPiSt6vectorIiSaIiEEEENS0_5__ops15_Iter_less_iterEEvT_S9_S9_RT0_
	.section	.text._ZSt9iter_swapIN9__gnu_cxx17__normal_iteratorIPiSt6vectorIiSaIiEEEES6_EvT_T0_,"axG",@progbits,_ZSt9iter_swapIN9__gnu_cxx17__normal_iteratorIPiSt6vectorIiSaIiEEEES6_EvT_T0_,comdat
	.weak	_ZSt9iter_swapIN9__gnu_cxx17__normal_iteratorIPiSt6vectorIiSaIiEEEES6_EvT_T0_
	.type	_ZSt9iter_swapIN9__gnu_cxx17__normal_iteratorIPiSt6vectorIiSaIiEEEES6_EvT_T0_, @function
_ZSt9iter_swapIN9__gnu_cxx17__normal_iteratorIPiSt6vectorIiSaIiEEEES6_EvT_T0_:
.LFB11474:
	.cfi_startproc
	endbr64
	push	rbp
	.cfi_def_cfa_offset 16
	.cfi_offset 6, -16
	mov	rbp, rsp
	.cfi_def_cfa_register 6
	push	rbx
	sub	rsp, 24
	.cfi_offset 3, -24
	mov	QWORD PTR -24[rbp], rdi
	mov	QWORD PTR -32[rbp], rsi
	lea	rax, -32[rbp]
	mov	rdi, rax
	call	_ZNK9__gnu_cxx17__normal_iteratorIPiSt6vectorIiSaIiEEEdeEv
	mov	rbx, rax
	lea	rax, -24[rbp]
	mov	rdi, rax
	call	_ZNK9__gnu_cxx17__normal_iteratorIPiSt6vectorIiSaIiEEEdeEv
	mov	rsi, rbx
	mov	rdi, rax
	call	_ZSt4swapIiENSt9enable_ifIXsrSt6__and_IJSt6__not_ISt15__is_tuple_likeIT_EESt21is_move_constructibleIS4_ESt18is_move_assignableIS4_EEE5valueEvE4typeERS4_SE_
	nop
	mov	rbx, QWORD PTR -8[rbp]
	leave
	.cfi_def_cfa 7, 8
	ret
	.cfi_endproc
.LFE11474:
	.size	_ZSt9iter_swapIN9__gnu_cxx17__normal_iteratorIPiSt6vectorIiSaIiEEEES6_EvT_T0_, .-_ZSt9iter_swapIN9__gnu_cxx17__normal_iteratorIPiSt6vectorIiSaIiEEEES6_EvT_T0_
	.section	.text._ZSt12__miter_baseIN9__gnu_cxx17__normal_iteratorIPiSt6vectorIiSaIiEEEEET_S7_,"axG",@progbits,_ZSt12__miter_baseIN9__gnu_cxx17__normal_iteratorIPiSt6vectorIiSaIiEEEEET_S7_,comdat
	.weak	_ZSt12__miter_baseIN9__gnu_cxx17__normal_iteratorIPiSt6vectorIiSaIiEEEEET_S7_
	.type	_ZSt12__miter_baseIN9__gnu_cxx17__normal_iteratorIPiSt6vectorIiSaIiEEEEET_S7_, @function
_ZSt12__miter_baseIN9__gnu_cxx17__normal_iteratorIPiSt6vectorIiSaIiEEEEET_S7_:
.LFB11475:
	.cfi_startproc
	endbr64
	push	rbp
	.cfi_def_cfa_offset 16
	.cfi_offset 6, -16
	mov	rbp, rsp
	.cfi_def_cfa_register 6
	mov	QWORD PTR -8[rbp], rdi
	mov	rax, QWORD PTR -8[rbp]
	pop	rbp
	.cfi_def_cfa 7, 8
	ret
	.cfi_endproc
.LFE11475:
	.size	_ZSt12__miter_baseIN9__gnu_cxx17__normal_iteratorIPiSt6vectorIiSaIiEEEEET_S7_, .-_ZSt12__miter_baseIN9__gnu_cxx17__normal_iteratorIPiSt6vectorIiSaIiEEEEET_S7_
	.section	.text._ZSt22__copy_move_backward_aILb1EN9__gnu_cxx17__normal_iteratorIPiSt6vectorIiSaIiEEEES6_ET1_T0_S8_S7_,"axG",@progbits,_ZSt22__copy_move_backward_aILb1EN9__gnu_cxx17__normal_iteratorIPiSt6vectorIiSaIiEEEES6_ET1_T0_S8_S7_,comdat
	.weak	_ZSt22__copy_move_backward_aILb1EN9__gnu_cxx17__normal_iteratorIPiSt6vectorIiSaIiEEEES6_ET1_T0_S8_S7_
	.type	_ZSt22__copy_move_backward_aILb1EN9__gnu_cxx17__normal_iteratorIPiSt6vectorIiSaIiEEEES6_ET1_T0_S8_S7_, @function
_ZSt22__copy_move_backward_aILb1EN9__gnu_cxx17__normal_iteratorIPiSt6vectorIiSaIiEEEES6_ET1_T0_S8_S7_:
.LFB11476:
	.cfi_startproc
	endbr64
	push	rbp
	.cfi_def_cfa_offset 16
	.cfi_offset 6, -16
	mov	rbp, rsp
	.cfi_def_cfa_register 6
	push	r12
	push	rbx
	sub	rsp, 32
	.cfi_offset 12, -24
	.cfi_offset 3, -32
	mov	QWORD PTR -24[rbp], rdi
	mov	QWORD PTR -32[rbp], rsi
	mov	QWORD PTR -40[rbp], rdx
	mov	rax, QWORD PTR -40[rbp]
	mov	rdi, rax
	call	_ZSt12__niter_baseIPiSt6vectorIiSaIiEEET_N9__gnu_cxx17__normal_iteratorIS4_T0_EE
	mov	r12, rax
	mov	rax, QWORD PTR -32[rbp]
	mov	rdi, rax
	call	_ZSt12__niter_baseIPiSt6vectorIiSaIiEEET_N9__gnu_cxx17__normal_iteratorIS4_T0_EE
	mov	rbx, rax
	mov	rax, QWORD PTR -24[rbp]
	mov	rdi, rax
	call	_ZSt12__niter_baseIPiSt6vectorIiSaIiEEET_N9__gnu_cxx17__normal_iteratorIS4_T0_EE
	mov	rdx, r12
	mov	rsi, rbx
	mov	rdi, rax
	call	_ZSt23__copy_move_backward_a1ILb1EPiS0_ET1_T0_S2_S1_
	mov	rdx, rax
	mov	rax, QWORD PTR -40[rbp]
	mov	rsi, rdx
	mov	rdi, rax
	call	_ZSt12__niter_wrapIN9__gnu_cxx17__normal_iteratorIPiSt6vectorIiSaIiEEEES2_ET_S7_T0_
	add	rsp, 32
	pop	rbx
	pop	r12
	pop	rbp
	.cfi_def_cfa 7, 8
	ret
	.cfi_endproc
.LFE11476:
	.size	_ZSt22__copy_move_backward_aILb1EN9__gnu_cxx17__normal_iteratorIPiSt6vectorIiSaIiEEEES6_ET1_T0_S8_S7_, .-_ZSt22__copy_move_backward_aILb1EN9__gnu_cxx17__normal_iteratorIPiSt6vectorIiSaIiEEEES6_ET1_T0_S8_S7_
	.section	.text._ZNK9__gnu_cxx5__ops14_Val_less_iterclIiNS_17__normal_iteratorIPiSt6vectorIiSaIiEEEEEEbRT_T0_,"axG",@progbits,_ZNK9__gnu_cxx5__ops14_Val_less_iterclIiNS_17__normal_iteratorIPiSt6vectorIiSaIiEEEEEEbRT_T0_,comdat
	.align 2
	.weak	_ZNK9__gnu_cxx5__ops14_Val_less_iterclIiNS_17__normal_iteratorIPiSt6vectorIiSaIiEEEEEEbRT_T0_
	.type	_ZNK9__gnu_cxx5__ops14_Val_less_iterclIiNS_17__normal_iteratorIPiSt6vectorIiSaIiEEEEEEbRT_T0_, @function
_ZNK9__gnu_cxx5__ops14_Val_less_iterclIiNS_17__normal_iteratorIPiSt6vectorIiSaIiEEEEEEbRT_T0_:
.LFB11477:
	.cfi_startproc
	endbr64
	push	rbp
	.cfi_def_cfa_offset 16
	.cfi_offset 6, -16
	mov	rbp, rsp
	.cfi_def_cfa_register 6
	push	rbx
	sub	rsp, 40
	.cfi_offset 3, -24
	mov	QWORD PTR -24[rbp], rdi
	mov	QWORD PTR -32[rbp], rsi
	mov	QWORD PTR -40[rbp], rdx
	mov	rax, QWORD PTR -32[rbp]
	mov	ebx, DWORD PTR [rax]
	lea	rax, -40[rbp]
	mov	rdi, rax
	call	_ZNK9__gnu_cxx17__normal_iteratorIPiSt6vectorIiSaIiEEEdeEv
	mov	eax, DWORD PTR [rax]
	cmp	ebx, eax
	setl	al
	mov	rbx, QWORD PTR -8[rbp]
	leave
	.cfi_def_cfa 7, 8
	ret
	.cfi_endproc
.LFE11477:
	.size	_ZNK9__gnu_cxx5__ops14_Val_less_iterclIiNS_17__normal_iteratorIPiSt6vectorIiSaIiEEEEEEbRT_T0_, .-_ZNK9__gnu_cxx5__ops14_Val_less_iterclIiNS_17__normal_iteratorIPiSt6vectorIiSaIiEEEEEEbRT_T0_
	.section	.text._ZSt19__iterator_categoryIPiENSt15iterator_traitsIT_E17iterator_categoryERKS2_,"axG",@progbits,_ZSt19__iterator_categoryIPiENSt15iterator_traitsIT_E17iterator_categoryERKS2_,comdat
	.weak	_ZSt19__iterator_categoryIPiENSt15iterator_traitsIT_E17iterator_categoryERKS2_
	.type	_ZSt19__iterator_categoryIPiENSt15iterator_traitsIT_E17iterator_categoryERKS2_, @function
_ZSt19__iterator_categoryIPiENSt15iterator_traitsIT_E17iterator_categoryERKS2_:
.LFB11545:
	.cfi_startproc
	endbr64
	push	rbp
	.cfi_def_cfa_offset 16
	.cfi_offset 6, -16
	mov	rbp, rsp
	.cfi_def_cfa_register 6
	mov	QWORD PTR -8[rbp], rdi
	pop	rbp
	.cfi_def_cfa 7, 8
	ret
	.cfi_endproc
.LFE11545:
	.size	_ZSt19__iterator_categoryIPiENSt15iterator_traitsIT_E17iterator_categoryERKS2_, .-_ZSt19__iterator_categoryIPiENSt15iterator_traitsIT_E17iterator_categoryERKS2_
	.section	.text._ZSt10__fill_n_aIPimiET_S1_T0_RKT1_St26random_access_iterator_tag,"axG",@progbits,_ZSt10__fill_n_aIPimiET_S1_T0_RKT1_St26random_access_iterator_tag,comdat
	.weak	_ZSt10__fill_n_aIPimiET_S1_T0_RKT1_St26random_access_iterator_tag
	.type	_ZSt10__fill_n_aIPimiET_S1_T0_RKT1_St26random_access_iterator_tag, @function
_ZSt10__fill_n_aIPimiET_S1_T0_RKT1_St26random_access_iterator_tag:
.LFB11546:
	.cfi_startproc
	endbr64
	push	rbp
	.cfi_def_cfa_offset 16
	.cfi_offset 6, -16
	mov	rbp, rsp
	.cfi_def_cfa_register 6
	sub	rsp, 32
	mov	QWORD PTR -8[rbp], rdi
	mov	QWORD PTR -16[rbp], rsi
	mov	QWORD PTR -24[rbp], rdx
	cmp	QWORD PTR -16[rbp], 0
	jne	.L344
	mov	rax, QWORD PTR -8[rbp]
	jmp	.L345
.L344:
	mov	rax, QWORD PTR -16[rbp]
	lea	rdx, 0[0+rax*4]
	mov	rax, QWORD PTR -8[rbp]
	lea	rcx, [rdx+rax]
	mov	rdx, QWORD PTR -24[rbp]
	mov	rax, QWORD PTR -8[rbp]
	mov	rsi, rcx
	mov	rdi, rax
	call	_ZSt8__fill_aIPiiEvT_S1_RKT0_
	mov	rax, QWORD PTR -16[rbp]
	lea	rdx, 0[0+rax*4]
	mov	rax, QWORD PTR -8[rbp]
	add	rax, rdx
.L345:
	leave
	.cfi_def_cfa 7, 8
	ret
	.cfi_endproc
.LFE11546:
	.size	_ZSt10__fill_n_aIPimiET_S1_T0_RKT1_St26random_access_iterator_tag, .-_ZSt10__fill_n_aIPimiET_S1_T0_RKT1_St26random_access_iterator_tag
	.section	.text._ZSt13__copy_move_aILb0EN9__gnu_cxx17__normal_iteratorIPKiSt6vectorIiSaIiEEEEPiET1_T0_SA_S9_,"axG",@progbits,_ZSt13__copy_move_aILb0EN9__gnu_cxx17__normal_iteratorIPKiSt6vectorIiSaIiEEEEPiET1_T0_SA_S9_,comdat
	.weak	_ZSt13__copy_move_aILb0EN9__gnu_cxx17__normal_iteratorIPKiSt6vectorIiSaIiEEEEPiET1_T0_SA_S9_
	.type	_ZSt13__copy_move_aILb0EN9__gnu_cxx17__normal_iteratorIPKiSt6vectorIiSaIiEEEEPiET1_T0_SA_S9_, @function
_ZSt13__copy_move_aILb0EN9__gnu_cxx17__normal_iteratorIPKiSt6vectorIiSaIiEEEEPiET1_T0_SA_S9_:
.LFB11547:
	.cfi_startproc
	endbr64
	push	rbp
	.cfi_def_cfa_offset 16
	.cfi_offset 6, -16
	mov	rbp, rsp
	.cfi_def_cfa_register 6
	push	r12
	push	rbx
	sub	rsp, 32
	.cfi_offset 12, -24
	.cfi_offset 3, -32
	mov	QWORD PTR -24[rbp], rdi
	mov	QWORD PTR -32[rbp], rsi
	mov	QWORD PTR -40[rbp], rdx
	mov	rax, QWORD PTR -40[rbp]
	mov	rdi, rax
	call	_ZSt12__niter_baseIPiET_S1_
	mov	r12, rax
	mov	rax, QWORD PTR -32[rbp]
	mov	rdi, rax
	call	_ZSt12__niter_baseIPKiSt6vectorIiSaIiEEET_N9__gnu_cxx17__normal_iteratorIS5_T0_EE
	mov	rbx, rax
	mov	rax, QWORD PTR -24[rbp]
	mov	rdi, rax
	call	_ZSt12__niter_baseIPKiSt6vectorIiSaIiEEET_N9__gnu_cxx17__normal_iteratorIS5_T0_EE
	mov	rdx, r12
	mov	rsi, rbx
	mov	rdi, rax
	call	_ZSt14__copy_move_a1ILb0EPKiPiET1_T0_S4_S3_
	mov	rdx, rax
	lea	rax, -40[rbp]
	mov	rsi, rdx
	mov	rdi, rax
	call	_ZSt12__niter_wrapIPiET_RKS1_S1_
	add	rsp, 32
	pop	rbx
	pop	r12
	pop	rbp
	.cfi_def_cfa 7, 8
	ret
	.cfi_endproc
.LFE11547:
	.size	_ZSt13__copy_move_aILb0EN9__gnu_cxx17__normal_iteratorIPKiSt6vectorIiSaIiEEEEPiET1_T0_SA_S9_, .-_ZSt13__copy_move_aILb0EN9__gnu_cxx17__normal_iteratorIPKiSt6vectorIiSaIiEEEEPiET1_T0_SA_S9_
	.section	.text._ZSt13__adjust_heapIN9__gnu_cxx17__normal_iteratorIPiSt6vectorIiSaIiEEEEliNS0_5__ops15_Iter_less_iterEEvT_T0_SA_T1_T2_,"axG",@progbits,_ZSt13__adjust_heapIN9__gnu_cxx17__normal_iteratorIPiSt6vectorIiSaIiEEEEliNS0_5__ops15_Iter_less_iterEEvT_T0_SA_T1_T2_,comdat
	.weak	_ZSt13__adjust_heapIN9__gnu_cxx17__normal_iteratorIPiSt6vectorIiSaIiEEEEliNS0_5__ops15_Iter_less_iterEEvT_T0_SA_T1_T2_
	.type	_ZSt13__adjust_heapIN9__gnu_cxx17__normal_iteratorIPiSt6vectorIiSaIiEEEEliNS0_5__ops15_Iter_less_iterEEvT_T0_SA_T1_T2_, @function
_ZSt13__adjust_heapIN9__gnu_cxx17__normal_iteratorIPiSt6vectorIiSaIiEEEEliNS0_5__ops15_Iter_less_iterEEvT_T0_SA_T1_T2_:
.LFB11548:
	.cfi_startproc
	endbr64
	push	rbp
	.cfi_def_cfa_offset 16
	.cfi_offset 6, -16
	mov	rbp, rsp
	.cfi_def_cfa_register 6
	push	rbx
	sub	rsp, 88
	.cfi_offset 3, -24
	mov	QWORD PTR -72[rbp], rdi
	mov	QWORD PTR -80[rbp], rsi
	mov	QWORD PTR -88[rbp], rdx
	mov	DWORD PTR -92[rbp], ecx
	mov	rax, QWORD PTR fs:40
	mov	QWORD PTR -24[rbp], rax
	xor	eax, eax
	mov	rax, QWORD PTR -80[rbp]
	mov	QWORD PTR -32[rbp], rax
	mov	rax, QWORD PTR -80[rbp]
	mov	QWORD PTR -40[rbp], rax
	jmp	.L349
.L351:
	mov	rax, QWORD PTR -40[rbp]
	add	rax, 1
	add	rax, rax
	mov	QWORD PTR -40[rbp], rax
	mov	rax, QWORD PTR -40[rbp]
	lea	rdx, -1[rax]
	lea	rax, -72[rbp]
	mov	rsi, rdx
	mov	rdi, rax
	call	_ZNK9__gnu_cxx17__normal_iteratorIPiSt6vectorIiSaIiEEEplEl
	mov	rbx, rax
	mov	rdx, QWORD PTR -40[rbp]
	lea	rax, -72[rbp]
	mov	rsi, rdx
	mov	rdi, rax
	call	_ZNK9__gnu_cxx17__normal_iteratorIPiSt6vectorIiSaIiEEEplEl
	mov	rcx, rax
	lea	rax, -93[rbp]
	mov	rdx, rbx
	mov	rsi, rcx
	mov	rdi, rax
	call	_ZNK9__gnu_cxx5__ops15_Iter_less_iterclINS_17__normal_iteratorIPiSt6vectorIiSaIiEEEES8_EEbT_T0_
	test	al, al
	je	.L350
	sub	QWORD PTR -40[rbp], 1
.L350:
	mov	rdx, QWORD PTR -40[rbp]
	lea	rax, -72[rbp]
	mov	rsi, rdx
	mov	rdi, rax
	call	_ZNK9__gnu_cxx17__normal_iteratorIPiSt6vectorIiSaIiEEEplEl
	mov	QWORD PTR -48[rbp], rax
	lea	rax, -48[rbp]
	mov	rdi, rax
	call	_ZNK9__gnu_cxx17__normal_iteratorIPiSt6vectorIiSaIiEEEdeEv
	mov	rdi, rax
	call	_ZSt4moveIRiEONSt16remove_referenceIT_E4typeEOS2_
	mov	ebx, DWORD PTR [rax]
	mov	rdx, QWORD PTR -80[rbp]
	lea	rax, -72[rbp]
	mov	rsi, rdx
	mov	rdi, rax
	call	_ZNK9__gnu_cxx17__normal_iteratorIPiSt6vectorIiSaIiEEEplEl
	mov	QWORD PTR -56[rbp], rax
	lea	rax, -56[rbp]
	mov	rdi, rax
	call	_ZNK9__gnu_cxx17__normal_iteratorIPiSt6vectorIiSaIiEEEdeEv
	mov	DWORD PTR [rax], ebx
	mov	rax, QWORD PTR -40[rbp]
	mov	QWORD PTR -80[rbp], rax
.L349:
	mov	rax, QWORD PTR -88[rbp]
	sub	rax, 1
	mov	rdx, rax
	shr	rdx, 63
	add	rax, rdx
	sar	rax
	cmp	QWORD PTR -40[rbp], rax
	jl	.L351
	mov	rax, QWORD PTR -88[rbp]
	and	eax, 1
	test	rax, rax
	jne	.L352
	mov	rax, QWORD PTR -88[rbp]
	sub	rax, 2
	mov	rdx, rax
	shr	rdx, 63
	add	rax, rdx
	sar	rax
	cmp	QWORD PTR -40[rbp], rax
	jne	.L352
	mov	rax, QWORD PTR -40[rbp]
	add	rax, 1
	add	rax, rax
	mov	QWORD PTR -40[rbp], rax
	mov	rax, QWORD PTR -40[rbp]
	lea	rdx, -1[rax]
	lea	rax, -72[rbp]
	mov	rsi, rdx
	mov	rdi, rax
	call	_ZNK9__gnu_cxx17__normal_iteratorIPiSt6vectorIiSaIiEEEplEl
	mov	QWORD PTR -48[rbp], rax
	lea	rax, -48[rbp]
	mov	rdi, rax
	call	_ZNK9__gnu_cxx17__normal_iteratorIPiSt6vectorIiSaIiEEEdeEv
	mov	rdi, rax
	call	_ZSt4moveIRiEONSt16remove_referenceIT_E4typeEOS2_
	mov	ebx, DWORD PTR [rax]
	mov	rdx, QWORD PTR -80[rbp]
	lea	rax, -72[rbp]
	mov	rsi, rdx
	mov	rdi, rax
	call	_ZNK9__gnu_cxx17__normal_iteratorIPiSt6vectorIiSaIiEEEplEl
	mov	QWORD PTR -56[rbp], rax
	lea	rax, -56[rbp]
	mov	rdi, rax
	call	_ZNK9__gnu_cxx17__normal_iteratorIPiSt6vectorIiSaIiEEEdeEv
	mov	DWORD PTR [rax], ebx
	mov	rax, QWORD PTR -40[rbp]
	sub	rax, 1
	mov	QWORD PTR -80[rbp], rax
.L352:
	lea	rax, -93[rbp]
	mov	rdi, rax
	call	_ZSt4moveIRN9__gnu_cxx5__ops15_Iter_less_iterEEONSt16remove_referenceIT_E4typeEOS5_
	lea	rax, -48[rbp]
	mov	rdi, rax
	call	_ZN9__gnu_cxx5__ops14_Iter_less_valC1ENS0_15_Iter_less_iterE
	lea	rax, -92[rbp]
	mov	rdi, rax
	call	_ZSt4moveIRiEONSt16remove_referenceIT_E4typeEOS2_
	mov	ecx, DWORD PTR [rax]
	lea	rdi, -48[rbp]
	mov	rdx, QWORD PTR -32[rbp]
	mov	rsi, QWORD PTR -80[rbp]
	mov	rax, QWORD PTR -72[rbp]
	mov	r8, rdi
	mov	rdi, rax
	call	_ZSt11__push_heapIN9__gnu_cxx17__normal_iteratorIPiSt6vectorIiSaIiEEEEliNS0_5__ops14_Iter_less_valEEvT_T0_SA_T1_RT2_
	nop
	mov	rax, QWORD PTR -24[rbp]
	sub	rax, QWORD PTR fs:40
	je	.L353
	call	__stack_chk_fail@PLT
.L353:
	mov	rbx, QWORD PTR -8[rbp]
	leave
	.cfi_def_cfa 7, 8
	ret
	.cfi_endproc
.LFE11548:
	.size	_ZSt13__adjust_heapIN9__gnu_cxx17__normal_iteratorIPiSt6vectorIiSaIiEEEEliNS0_5__ops15_Iter_less_iterEEvT_T0_SA_T1_T2_, .-_ZSt13__adjust_heapIN9__gnu_cxx17__normal_iteratorIPiSt6vectorIiSaIiEEEEliNS0_5__ops15_Iter_less_iterEEvT_T0_SA_T1_T2_
	.section	.text._ZSt4swapIiENSt9enable_ifIXsrSt6__and_IJSt6__not_ISt15__is_tuple_likeIT_EESt21is_move_constructibleIS4_ESt18is_move_assignableIS4_EEE5valueEvE4typeERS4_SE_,"axG",@progbits,_ZSt4swapIiENSt9enable_ifIXsrSt6__and_IJSt6__not_ISt15__is_tuple_likeIT_EESt21is_move_constructibleIS4_ESt18is_move_assignableIS4_EEE5valueEvE4typeERS4_SE_,comdat
	.weak	_ZSt4swapIiENSt9enable_ifIXsrSt6__and_IJSt6__not_ISt15__is_tuple_likeIT_EESt21is_move_constructibleIS4_ESt18is_move_assignableIS4_EEE5valueEvE4typeERS4_SE_
	.type	_ZSt4swapIiENSt9enable_ifIXsrSt6__and_IJSt6__not_ISt15__is_tuple_likeIT_EESt21is_move_constructibleIS4_ESt18is_move_assignableIS4_EEE5valueEvE4typeERS4_SE_, @function
_ZSt4swapIiENSt9enable_ifIXsrSt6__and_IJSt6__not_ISt15__is_tuple_likeIT_EESt21is_move_constructibleIS4_ESt18is_move_assignableIS4_EEE5valueEvE4typeERS4_SE_:
.LFB11549:
	.cfi_startproc
	endbr64
	push	rbp
	.cfi_def_cfa_offset 16
	.cfi_offset 6, -16
	mov	rbp, rsp
	.cfi_def_cfa_register 6
	sub	rsp, 32
	mov	QWORD PTR -24[rbp], rdi
	mov	QWORD PTR -32[rbp], rsi
	mov	rax, QWORD PTR fs:40
	mov	QWORD PTR -8[rbp], rax
	xor	eax, eax
	mov	rax, QWORD PTR -24[rbp]
	mov	rdi, rax
	call	_ZSt4moveIRiEONSt16remove_referenceIT_E4typeEOS2_
	mov	eax, DWORD PTR [rax]
	mov	DWORD PTR -12[rbp], eax
	mov	rax, QWORD PTR -32[rbp]
	mov	rdi, rax
	call	_ZSt4moveIRiEONSt16remove_referenceIT_E4typeEOS2_
	mov	edx, DWORD PTR [rax]
	mov	rax, QWORD PTR -24[rbp]
	mov	DWORD PTR [rax], edx
	lea	rax, -12[rbp]
	mov	rdi, rax
	call	_ZSt4moveIRiEONSt16remove_referenceIT_E4typeEOS2_
	mov	edx, DWORD PTR [rax]
	mov	rax, QWORD PTR -32[rbp]
	mov	DWORD PTR [rax], edx
	nop
	mov	rax, QWORD PTR -8[rbp]
	sub	rax, QWORD PTR fs:40
	je	.L355
	call	__stack_chk_fail@PLT
.L355:
	leave
	.cfi_def_cfa 7, 8
	ret
	.cfi_endproc
.LFE11549:
	.size	_ZSt4swapIiENSt9enable_ifIXsrSt6__and_IJSt6__not_ISt15__is_tuple_likeIT_EESt21is_move_constructibleIS4_ESt18is_move_assignableIS4_EEE5valueEvE4typeERS4_SE_, .-_ZSt4swapIiENSt9enable_ifIXsrSt6__and_IJSt6__not_ISt15__is_tuple_likeIT_EESt21is_move_constructibleIS4_ESt18is_move_assignableIS4_EEE5valueEvE4typeERS4_SE_
	.section	.text._ZSt23__copy_move_backward_a1ILb1EPiS0_ET1_T0_S2_S1_,"axG",@progbits,_ZSt23__copy_move_backward_a1ILb1EPiS0_ET1_T0_S2_S1_,comdat
	.weak	_ZSt23__copy_move_backward_a1ILb1EPiS0_ET1_T0_S2_S1_
	.type	_ZSt23__copy_move_backward_a1ILb1EPiS0_ET1_T0_S2_S1_, @function
_ZSt23__copy_move_backward_a1ILb1EPiS0_ET1_T0_S2_S1_:
.LFB11550:
	.cfi_startproc
	endbr64
	push	rbp
	.cfi_def_cfa_offset 16
	.cfi_offset 6, -16
	mov	rbp, rsp
	.cfi_def_cfa_register 6
	sub	rsp, 32
	mov	QWORD PTR -8[rbp], rdi
	mov	QWORD PTR -16[rbp], rsi
	mov	QWORD PTR -24[rbp], rdx
	mov	rdx, QWORD PTR -24[rbp]
	mov	rcx, QWORD PTR -16[rbp]
	mov	rax, QWORD PTR -8[rbp]
	mov	rsi, rcx
	mov	rdi, rax
	call	_ZSt23__copy_move_backward_a2ILb1EPiS0_ET1_T0_S2_S1_
	leave
	.cfi_def_cfa 7, 8
	ret
	.cfi_endproc
.LFE11550:
	.size	_ZSt23__copy_move_backward_a1ILb1EPiS0_ET1_T0_S2_S1_, .-_ZSt23__copy_move_backward_a1ILb1EPiS0_ET1_T0_S2_S1_
	.section	.text._ZSt8__fill_aIPiiEvT_S1_RKT0_,"axG",@progbits,_ZSt8__fill_aIPiiEvT_S1_RKT0_,comdat
	.weak	_ZSt8__fill_aIPiiEvT_S1_RKT0_
	.type	_ZSt8__fill_aIPiiEvT_S1_RKT0_, @function
_ZSt8__fill_aIPiiEvT_S1_RKT0_:
.LFB11580:
	.cfi_startproc
	endbr64
	push	rbp
	.cfi_def_cfa_offset 16
	.cfi_offset 6, -16
	mov	rbp, rsp
	.cfi_def_cfa_register 6
	sub	rsp, 32
	mov	QWORD PTR -8[rbp], rdi
	mov	QWORD PTR -16[rbp], rsi
	mov	QWORD PTR -24[rbp], rdx
	mov	rdx, QWORD PTR -24[rbp]
	mov	rcx, QWORD PTR -16[rbp]
	mov	rax, QWORD PTR -8[rbp]
	mov	rsi, rcx
	mov	rdi, rax
	call	_ZSt9__fill_a1IPiiEN9__gnu_cxx11__enable_ifIXsrSt11__is_scalarIT0_E7__valueEvE6__typeET_S8_RKS4_
	nop
	leave
	.cfi_def_cfa 7, 8
	ret
	.cfi_endproc
.LFE11580:
	.size	_ZSt8__fill_aIPiiEvT_S1_RKT0_, .-_ZSt8__fill_aIPiiEvT_S1_RKT0_
	.section	.text._ZSt4moveIRN9__gnu_cxx5__ops15_Iter_less_iterEEONSt16remove_referenceIT_E4typeEOS5_,"axG",@progbits,_ZSt4moveIRN9__gnu_cxx5__ops15_Iter_less_iterEEONSt16remove_referenceIT_E4typeEOS5_,comdat
	.weak	_ZSt4moveIRN9__gnu_cxx5__ops15_Iter_less_iterEEONSt16remove_referenceIT_E4typeEOS5_
	.type	_ZSt4moveIRN9__gnu_cxx5__ops15_Iter_less_iterEEONSt16remove_referenceIT_E4typeEOS5_, @function
_ZSt4moveIRN9__gnu_cxx5__ops15_Iter_less_iterEEONSt16remove_referenceIT_E4typeEOS5_:
.LFB11581:
	.cfi_startproc
	endbr64
	push	rbp
	.cfi_def_cfa_offset 16
	.cfi_offset 6, -16
	mov	rbp, rsp
	.cfi_def_cfa_register 6
	mov	QWORD PTR -8[rbp], rdi
	mov	rax, QWORD PTR -8[rbp]
	pop	rbp
	.cfi_def_cfa 7, 8
	ret
	.cfi_endproc
.LFE11581:
	.size	_ZSt4moveIRN9__gnu_cxx5__ops15_Iter_less_iterEEONSt16remove_referenceIT_E4typeEOS5_, .-_ZSt4moveIRN9__gnu_cxx5__ops15_Iter_less_iterEEONSt16remove_referenceIT_E4typeEOS5_
	.section	.text._ZSt11__push_heapIN9__gnu_cxx17__normal_iteratorIPiSt6vectorIiSaIiEEEEliNS0_5__ops14_Iter_less_valEEvT_T0_SA_T1_RT2_,"axG",@progbits,_ZSt11__push_heapIN9__gnu_cxx17__normal_iteratorIPiSt6vectorIiSaIiEEEEliNS0_5__ops14_Iter_less_valEEvT_T0_SA_T1_RT2_,comdat
	.weak	_ZSt11__push_heapIN9__gnu_cxx17__normal_iteratorIPiSt6vectorIiSaIiEEEEliNS0_5__ops14_Iter_less_valEEvT_T0_SA_T1_RT2_
	.type	_ZSt11__push_heapIN9__gnu_cxx17__normal_iteratorIPiSt6vectorIiSaIiEEEEliNS0_5__ops14_Iter_less_valEEvT_T0_SA_T1_RT2_, @function
_ZSt11__push_heapIN9__gnu_cxx17__normal_iteratorIPiSt6vectorIiSaIiEEEEliNS0_5__ops14_Iter_less_valEEvT_T0_SA_T1_RT2_:
.LFB11582:
	.cfi_startproc
	endbr64
	push	rbp
	.cfi_def_cfa_offset 16
	.cfi_offset 6, -16
	mov	rbp, rsp
	.cfi_def_cfa_register 6
	push	rbx
	sub	rsp, 88
	.cfi_offset 3, -24
	mov	QWORD PTR -56[rbp], rdi
	mov	QWORD PTR -64[rbp], rsi
	mov	QWORD PTR -72[rbp], rdx
	mov	DWORD PTR -76[rbp], ecx
	mov	QWORD PTR -88[rbp], r8
	mov	rax, QWORD PTR fs:40
	mov	QWORD PTR -24[rbp], rax
	xor	eax, eax
	mov	rax, QWORD PTR -64[rbp]
	sub	rax, 1
	mov	rdx, rax
	shr	rdx, 63
	add	rax, rdx
	sar	rax
	mov	QWORD PTR -32[rbp], rax
	jmp	.L362
.L365:
	mov	rdx, QWORD PTR -32[rbp]
	lea	rax, -56[rbp]
	mov	rsi, rdx
	mov	rdi, rax
	call	_ZNK9__gnu_cxx17__normal_iteratorIPiSt6vectorIiSaIiEEEplEl
	mov	QWORD PTR -40[rbp], rax
	lea	rax, -40[rbp]
	mov	rdi, rax
	call	_ZNK9__gnu_cxx17__normal_iteratorIPiSt6vectorIiSaIiEEEdeEv
	mov	rdi, rax
	call	_ZSt4moveIRiEONSt16remove_referenceIT_E4typeEOS2_
	mov	ebx, DWORD PTR [rax]
	mov	rdx, QWORD PTR -64[rbp]
	lea	rax, -56[rbp]
	mov	rsi, rdx
	mov	rdi, rax
	call	_ZNK9__gnu_cxx17__normal_iteratorIPiSt6vectorIiSaIiEEEplEl
	mov	QWORD PTR -48[rbp], rax
	lea	rax, -48[rbp]
	mov	rdi, rax
	call	_ZNK9__gnu_cxx17__normal_iteratorIPiSt6vectorIiSaIiEEEdeEv
	mov	DWORD PTR [rax], ebx
	mov	rax, QWORD PTR -32[rbp]
	mov	QWORD PTR -64[rbp], rax
	mov	rax, QWORD PTR -64[rbp]
	sub	rax, 1
	mov	rdx, rax
	shr	rdx, 63
	add	rax, rdx
	sar	rax
	mov	QWORD PTR -32[rbp], rax
.L362:
	mov	rax, QWORD PTR -64[rbp]
	cmp	rax, QWORD PTR -72[rbp]
	jle	.L363
	mov	rdx, QWORD PTR -32[rbp]
	lea	rax, -56[rbp]
	mov	rsi, rdx
	mov	rdi, rax
	call	_ZNK9__gnu_cxx17__normal_iteratorIPiSt6vectorIiSaIiEEEplEl
	mov	rcx, rax
	lea	rdx, -76[rbp]
	mov	rax, QWORD PTR -88[rbp]
	mov	rsi, rcx
	mov	rdi, rax
	call	_ZNK9__gnu_cxx5__ops14_Iter_less_valclINS_17__normal_iteratorIPiSt6vectorIiSaIiEEEEiEEbT_RT0_
	test	al, al
	je	.L363
	mov	eax, 1
	jmp	.L364
.L363:
	mov	eax, 0
.L364:
	test	al, al
	jne	.L365
	lea	rax, -76[rbp]
	mov	rdi, rax
	call	_ZSt4moveIRiEONSt16remove_referenceIT_E4typeEOS2_
	mov	ebx, DWORD PTR [rax]
	mov	rdx, QWORD PTR -64[rbp]
	lea	rax, -56[rbp]
	mov	rsi, rdx
	mov	rdi, rax
	call	_ZNK9__gnu_cxx17__normal_iteratorIPiSt6vectorIiSaIiEEEplEl
	mov	QWORD PTR -40[rbp], rax
	lea	rax, -40[rbp]
	mov	rdi, rax
	call	_ZNK9__gnu_cxx17__normal_iteratorIPiSt6vectorIiSaIiEEEdeEv
	mov	DWORD PTR [rax], ebx
	nop
	mov	rax, QWORD PTR -24[rbp]
	sub	rax, QWORD PTR fs:40
	je	.L366
	call	__stack_chk_fail@PLT
.L366:
	mov	rbx, QWORD PTR -8[rbp]
	leave
	.cfi_def_cfa 7, 8
	ret
	.cfi_endproc
.LFE11582:
	.size	_ZSt11__push_heapIN9__gnu_cxx17__normal_iteratorIPiSt6vectorIiSaIiEEEEliNS0_5__ops14_Iter_less_valEEvT_T0_SA_T1_RT2_, .-_ZSt11__push_heapIN9__gnu_cxx17__normal_iteratorIPiSt6vectorIiSaIiEEEEliNS0_5__ops14_Iter_less_valEEvT_T0_SA_T1_RT2_
	.section	.text._ZSt23__copy_move_backward_a2ILb1EPiS0_ET1_T0_S2_S1_,"axG",@progbits,_ZSt23__copy_move_backward_a2ILb1EPiS0_ET1_T0_S2_S1_,comdat
	.weak	_ZSt23__copy_move_backward_a2ILb1EPiS0_ET1_T0_S2_S1_
	.type	_ZSt23__copy_move_backward_a2ILb1EPiS0_ET1_T0_S2_S1_, @function
_ZSt23__copy_move_backward_a2ILb1EPiS0_ET1_T0_S2_S1_:
.LFB11583:
	.cfi_startproc
	endbr64
	push	rbp
	.cfi_def_cfa_offset 16
	.cfi_offset 6, -16
	mov	rbp, rsp
	.cfi_def_cfa_register 6
	sub	rsp, 32
	mov	QWORD PTR -8[rbp], rdi
	mov	QWORD PTR -16[rbp], rsi
	mov	QWORD PTR -24[rbp], rdx
	mov	rdx, QWORD PTR -24[rbp]
	mov	rcx, QWORD PTR -16[rbp]
	mov	rax, QWORD PTR -8[rbp]
	mov	rsi, rcx
	mov	rdi, rax
	call	_ZNSt20__copy_move_backwardILb1ELb1ESt26random_access_iterator_tagE13__copy_move_bIiEEPT_PKS3_S6_S4_
	leave
	.cfi_def_cfa 7, 8
	ret
	.cfi_endproc
.LFE11583:
	.size	_ZSt23__copy_move_backward_a2ILb1EPiS0_ET1_T0_S2_S1_, .-_ZSt23__copy_move_backward_a2ILb1EPiS0_ET1_T0_S2_S1_
	.section	.text._ZSt9__fill_a1IPiiEN9__gnu_cxx11__enable_ifIXsrSt11__is_scalarIT0_E7__valueEvE6__typeET_S8_RKS4_,"axG",@progbits,_ZSt9__fill_a1IPiiEN9__gnu_cxx11__enable_ifIXsrSt11__is_scalarIT0_E7__valueEvE6__typeET_S8_RKS4_,comdat
	.weak	_ZSt9__fill_a1IPiiEN9__gnu_cxx11__enable_ifIXsrSt11__is_scalarIT0_E7__valueEvE6__typeET_S8_RKS4_
	.type	_ZSt9__fill_a1IPiiEN9__gnu_cxx11__enable_ifIXsrSt11__is_scalarIT0_E7__valueEvE6__typeET_S8_RKS4_, @function
_ZSt9__fill_a1IPiiEN9__gnu_cxx11__enable_ifIXsrSt11__is_scalarIT0_E7__valueEvE6__typeET_S8_RKS4_:
.LFB11587:
	.cfi_startproc
	endbr64
	push	rbp
	.cfi_def_cfa_offset 16
	.cfi_offset 6, -16
	mov	rbp, rsp
	.cfi_def_cfa_register 6
	mov	QWORD PTR -24[rbp], rdi
	mov	QWORD PTR -32[rbp], rsi
	mov	QWORD PTR -40[rbp], rdx
	mov	rax, QWORD PTR -40[rbp]
	mov	eax, DWORD PTR [rax]
	mov	DWORD PTR -4[rbp], eax
	jmp	.L370
.L371:
	mov	rax, QWORD PTR -24[rbp]
	mov	edx, DWORD PTR -4[rbp]
	mov	DWORD PTR [rax], edx
	add	QWORD PTR -24[rbp], 4
.L370:
	mov	rax, QWORD PTR -24[rbp]
	cmp	rax, QWORD PTR -32[rbp]
	jne	.L371
	nop
	nop
	pop	rbp
	.cfi_def_cfa 7, 8
	ret
	.cfi_endproc
.LFE11587:
	.size	_ZSt9__fill_a1IPiiEN9__gnu_cxx11__enable_ifIXsrSt11__is_scalarIT0_E7__valueEvE6__typeET_S8_RKS4_, .-_ZSt9__fill_a1IPiiEN9__gnu_cxx11__enable_ifIXsrSt11__is_scalarIT0_E7__valueEvE6__typeET_S8_RKS4_
	.section	.text._ZNK9__gnu_cxx5__ops14_Iter_less_valclINS_17__normal_iteratorIPiSt6vectorIiSaIiEEEEiEEbT_RT0_,"axG",@progbits,_ZNK9__gnu_cxx5__ops14_Iter_less_valclINS_17__normal_iteratorIPiSt6vectorIiSaIiEEEEiEEbT_RT0_,comdat
	.align 2
	.weak	_ZNK9__gnu_cxx5__ops14_Iter_less_valclINS_17__normal_iteratorIPiSt6vectorIiSaIiEEEEiEEbT_RT0_
	.type	_ZNK9__gnu_cxx5__ops14_Iter_less_valclINS_17__normal_iteratorIPiSt6vectorIiSaIiEEEEiEEbT_RT0_, @function
_ZNK9__gnu_cxx5__ops14_Iter_less_valclINS_17__normal_iteratorIPiSt6vectorIiSaIiEEEEiEEbT_RT0_:
.LFB11588:
	.cfi_startproc
	endbr64
	push	rbp
	.cfi_def_cfa_offset 16
	.cfi_offset 6, -16
	mov	rbp, rsp
	.cfi_def_cfa_register 6
	sub	rsp, 32
	mov	QWORD PTR -8[rbp], rdi
	mov	QWORD PTR -16[rbp], rsi
	mov	QWORD PTR -24[rbp], rdx
	lea	rax, -16[rbp]
	mov	rdi, rax
	call	_ZNK9__gnu_cxx17__normal_iteratorIPiSt6vectorIiSaIiEEEdeEv
	mov	edx, DWORD PTR [rax]
	mov	rax, QWORD PTR -24[rbp]
	mov	eax, DWORD PTR [rax]
	cmp	edx, eax
	setl	al
	leave
	.cfi_def_cfa 7, 8
	ret
	.cfi_endproc
.LFE11588:
	.size	_ZNK9__gnu_cxx5__ops14_Iter_less_valclINS_17__normal_iteratorIPiSt6vectorIiSaIiEEEEiEEbT_RT0_, .-_ZNK9__gnu_cxx5__ops14_Iter_less_valclINS_17__normal_iteratorIPiSt6vectorIiSaIiEEEEiEEbT_RT0_
	.section	.text._ZNSt20__copy_move_backwardILb1ELb1ESt26random_access_iterator_tagE13__copy_move_bIiEEPT_PKS3_S6_S4_,"axG",@progbits,_ZNSt20__copy_move_backwardILb1ELb1ESt26random_access_iterator_tagE13__copy_move_bIiEEPT_PKS3_S6_S4_,comdat
	.weak	_ZNSt20__copy_move_backwardILb1ELb1ESt26random_access_iterator_tagE13__copy_move_bIiEEPT_PKS3_S6_S4_
	.type	_ZNSt20__copy_move_backwardILb1ELb1ESt26random_access_iterator_tagE13__copy_move_bIiEEPT_PKS3_S6_S4_, @function
_ZNSt20__copy_move_backwardILb1ELb1ESt26random_access_iterator_tagE13__copy_move_bIiEEPT_PKS3_S6_S4_:
.LFB11589:
	.cfi_startproc
	endbr64
	push	rbp
	.cfi_def_cfa_offset 16
	.cfi_offset 6, -16
	mov	rbp, rsp
	.cfi_def_cfa_register 6
	sub	rsp, 48
	mov	QWORD PTR -24[rbp], rdi
	mov	QWORD PTR -32[rbp], rsi
	mov	QWORD PTR -40[rbp], rdx
	mov	rax, QWORD PTR -32[rbp]
	sub	rax, QWORD PTR -24[rbp]
	sar	rax, 2
	mov	QWORD PTR -8[rbp], rax
	cmp	QWORD PTR -8[rbp], 0
	je	.L375
	mov	rax, QWORD PTR -8[rbp]
	lea	rdx, 0[0+rax*4]
	mov	rax, QWORD PTR -8[rbp]
	sal	rax, 2
	neg	rax
	mov	rcx, rax
	mov	rax, QWORD PTR -40[rbp]
	add	rcx, rax
	mov	rax, QWORD PTR -24[rbp]
	mov	rsi, rax
	mov	rdi, rcx
	call	memmove@PLT
.L375:
	mov	rax, QWORD PTR -8[rbp]
	sal	rax, 2
	neg	rax
	mov	rdx, rax
	mov	rax, QWORD PTR -40[rbp]
	add	rax, rdx
	leave
	.cfi_def_cfa 7, 8
	ret
	.cfi_endproc
.LFE11589:
	.size	_ZNSt20__copy_move_backwardILb1ELb1ESt26random_access_iterator_tagE13__copy_move_bIiEEPT_PKS3_S6_S4_, .-_ZNSt20__copy_move_backwardILb1ELb1ESt26random_access_iterator_tagE13__copy_move_bIiEEPT_PKS3_S6_S4_
	.text
	.type	_Z41__static_initialization_and_destruction_0ii, @function
_Z41__static_initialization_and_destruction_0ii:
.LFB11639:
	.cfi_startproc
	endbr64
	push	rbp
	.cfi_def_cfa_offset 16
	.cfi_offset 6, -16
	mov	rbp, rsp
	.cfi_def_cfa_register 6
	sub	rsp, 16
	mov	DWORD PTR -4[rbp], edi
	mov	DWORD PTR -8[rbp], esi
	cmp	DWORD PTR -4[rbp], 1
	jne	.L379
	cmp	DWORD PTR -8[rbp], 65535
	jne	.L379
	lea	rax, _ZStL8__ioinit[rip]
	mov	rdi, rax
	call	_ZNSt8ios_base4InitC1Ev@PLT
	lea	rax, __dso_handle[rip]
	mov	rdx, rax
	lea	rax, _ZStL8__ioinit[rip]
	mov	rsi, rax
	mov	rax, QWORD PTR _ZNSt8ios_base4InitD1Ev@GOTPCREL[rip]
	mov	rdi, rax
	call	__cxa_atexit@PLT
.L379:
	nop
	leave
	.cfi_def_cfa 7, 8
	ret
	.cfi_endproc
.LFE11639:
	.size	_Z41__static_initialization_and_destruction_0ii, .-_Z41__static_initialization_and_destruction_0ii
	.type	_GLOBAL__sub_I__Z5setupv, @function
_GLOBAL__sub_I__Z5setupv:
.LFB11662:
	.cfi_startproc
	endbr64
	push	rbp
	.cfi_def_cfa_offset 16
	.cfi_offset 6, -16
	mov	rbp, rsp
	.cfi_def_cfa_register 6
	mov	esi, 65535
	mov	edi, 1
	call	_Z41__static_initialization_and_destruction_0ii
	pop	rbp
	.cfi_def_cfa 7, 8
	ret
	.cfi_endproc
.LFE11662:
	.size	_GLOBAL__sub_I__Z5setupv, .-_GLOBAL__sub_I__Z5setupv
	.section	.init_array,"aw"
	.align 8
	.quad	_GLOBAL__sub_I__Z5setupv
	.hidden	DW.ref.__gxx_personality_v0
	.weak	DW.ref.__gxx_personality_v0
	.section	.data.rel.local.DW.ref.__gxx_personality_v0,"awG",@progbits,DW.ref.__gxx_personality_v0,comdat
	.align 8
	.type	DW.ref.__gxx_personality_v0, @object
	.size	DW.ref.__gxx_personality_v0, 8
DW.ref.__gxx_personality_v0:
	.quad	__gxx_personality_v0
	.hidden	__dso_handle
	.ident	"GCC: (Ubuntu 11.4.0-1ubuntu1~22.04.2) 11.4.0"
	.section	.note.GNU-stack,"",@progbits
	.section	.note.gnu.property,"a"
	.align 8
	.long	1f - 0f
	.long	4f - 1f
	.long	5
0:
	.string	"GNU"
1:
	.align 8
	.long	0xc0000002
	.long	3f - 2f
2:
	.long	0x3
3:
	.align 8
4:
