	.arch armv8-a
	.file	"Bookstack.cpp"
	.text
	.section	.text._ZnwmPv,"axG",@progbits,_ZnwmPv,comdat
	.align	2
	.weak	_ZnwmPv
	.type	_ZnwmPv, %function
_ZnwmPv:
.LFB999:
	.cfi_startproc
	sub	sp, sp, #16
	.cfi_def_cfa_offset 16
	str	x0, [sp, 8]
	str	x1, [sp]
	ldr	x0, [sp]
	add	sp, sp, 16
	.cfi_def_cfa_offset 0
	ret
	.cfi_endproc
.LFE999:
	.size	_ZnwmPv, .-_ZnwmPv
	.section	.text._ZSt3minImERKT_S2_S2_,"axG",@progbits,_ZSt3minImERKT_S2_S2_,comdat
	.align	2
	.weak	_ZSt3minImERKT_S2_S2_
	.type	_ZSt3minImERKT_S2_S2_, %function
_ZSt3minImERKT_S2_S2_:
.LFB3247:
	.cfi_startproc
	sub	sp, sp, #16
	.cfi_def_cfa_offset 16
	str	x0, [sp, 8]
	str	x1, [sp]
	ldr	x0, [sp]
	ldr	x1, [x0]
	ldr	x0, [sp, 8]
	ldr	x0, [x0]
	cmp	x1, x0
	bcs	.L4
	ldr	x0, [sp]
	b	.L5
.L4:
	ldr	x0, [sp, 8]
.L5:
	add	sp, sp, 16
	.cfi_def_cfa_offset 0
	ret
	.cfi_endproc
.LFE3247:
	.size	_ZSt3minImERKT_S2_S2_, .-_ZSt3minImERKT_S2_S2_
	.section	.rodata
	.align	3
	.type	_ZN6__pstl9execution2v1L3seqE, %object
	.size	_ZN6__pstl9execution2v1L3seqE, 1
_ZN6__pstl9execution2v1L3seqE:
	.zero	1
	.align	3
	.type	_ZN6__pstl9execution2v1L3parE, %object
	.size	_ZN6__pstl9execution2v1L3parE, 1
_ZN6__pstl9execution2v1L3parE:
	.zero	1
	.align	3
	.type	_ZN6__pstl9execution2v1L9par_unseqE, %object
	.size	_ZN6__pstl9execution2v1L9par_unseqE, 1
_ZN6__pstl9execution2v1L9par_unseqE:
	.zero	1
	.align	3
	.type	_ZN6__pstl9execution2v1L5unseqE, %object
	.size	_ZN6__pstl9execution2v1L5unseqE, 1
_ZN6__pstl9execution2v1L5unseqE:
	.zero	1
	.section	.text._ZSt16__deque_buf_sizem,"axG",@progbits,_ZSt16__deque_buf_sizem,comdat
	.align	2
	.weak	_ZSt16__deque_buf_sizem
	.type	_ZSt16__deque_buf_sizem, %function
_ZSt16__deque_buf_sizem:
.LFB4244:
	.cfi_startproc
	sub	sp, sp, #16
	.cfi_def_cfa_offset 16
	str	x0, [sp, 8]
	ldr	x0, [sp, 8]
	cmp	x0, 511
	bhi	.L7
	mov	x1, 512
	ldr	x0, [sp, 8]
	udiv	x0, x1, x0
	b	.L9
.L7:
	mov	x0, 1
.L9:
	add	sp, sp, 16
	.cfi_def_cfa_offset 0
	ret
	.cfi_endproc
.LFE4244:
	.size	_ZSt16__deque_buf_sizem, .-_ZSt16__deque_buf_sizem
	.local	_ZStL8__ioinit
	.comm	_ZStL8__ioinit,1,8
	.section	.rodata
	.align	2
	.type	_ZN9__gnu_cxxL21__default_lock_policyE, %object
	.size	_ZN9__gnu_cxxL21__default_lock_policyE, 4
_ZN9__gnu_cxxL21__default_lock_policyE:
	.word	2
	.align	2
	.type	_ZNSt15regex_constantsL13error_collateE, %object
	.size	_ZNSt15regex_constantsL13error_collateE, 4
_ZNSt15regex_constantsL13error_collateE:
	.zero	4
	.align	2
	.type	_ZNSt15regex_constantsL11error_ctypeE, %object
	.size	_ZNSt15regex_constantsL11error_ctypeE, 4
_ZNSt15regex_constantsL11error_ctypeE:
	.word	1
	.align	2
	.type	_ZNSt15regex_constantsL12error_escapeE, %object
	.size	_ZNSt15regex_constantsL12error_escapeE, 4
_ZNSt15regex_constantsL12error_escapeE:
	.word	2
	.align	2
	.type	_ZNSt15regex_constantsL13error_backrefE, %object
	.size	_ZNSt15regex_constantsL13error_backrefE, 4
_ZNSt15regex_constantsL13error_backrefE:
	.word	3
	.align	2
	.type	_ZNSt15regex_constantsL11error_brackE, %object
	.size	_ZNSt15regex_constantsL11error_brackE, 4
_ZNSt15regex_constantsL11error_brackE:
	.word	4
	.align	2
	.type	_ZNSt15regex_constantsL11error_parenE, %object
	.size	_ZNSt15regex_constantsL11error_parenE, 4
_ZNSt15regex_constantsL11error_parenE:
	.word	5
	.align	2
	.type	_ZNSt15regex_constantsL11error_braceE, %object
	.size	_ZNSt15regex_constantsL11error_braceE, 4
_ZNSt15regex_constantsL11error_braceE:
	.word	6
	.align	2
	.type	_ZNSt15regex_constantsL14error_badbraceE, %object
	.size	_ZNSt15regex_constantsL14error_badbraceE, 4
_ZNSt15regex_constantsL14error_badbraceE:
	.word	7
	.align	2
	.type	_ZNSt15regex_constantsL11error_rangeE, %object
	.size	_ZNSt15regex_constantsL11error_rangeE, 4
_ZNSt15regex_constantsL11error_rangeE:
	.word	8
	.align	2
	.type	_ZNSt15regex_constantsL11error_spaceE, %object
	.size	_ZNSt15regex_constantsL11error_spaceE, 4
_ZNSt15regex_constantsL11error_spaceE:
	.word	9
	.align	2
	.type	_ZNSt15regex_constantsL15error_badrepeatE, %object
	.size	_ZNSt15regex_constantsL15error_badrepeatE, 4
_ZNSt15regex_constantsL15error_badrepeatE:
	.word	10
	.align	2
	.type	_ZNSt15regex_constantsL16error_complexityE, %object
	.size	_ZNSt15regex_constantsL16error_complexityE, 4
_ZNSt15regex_constantsL16error_complexityE:
	.word	11
	.align	2
	.type	_ZNSt15regex_constantsL11error_stackE, %object
	.size	_ZNSt15regex_constantsL11error_stackE, 4
_ZNSt15regex_constantsL11error_stackE:
	.word	12
	.align	3
	.type	_ZNSt8__detailL19_S_invalid_state_idE, %object
	.size	_ZNSt8__detailL19_S_invalid_state_idE, 8
_ZNSt8__detailL19_S_invalid_state_idE:
	.xword	-1
	.section	.text._ZNSt5stackISt4pairIiNSt7__cxx1112basic_stringIcSt11char_traitsIcESaIcEEEESt5dequeIS7_SaIS7_EEED2Ev,"axG",@progbits,_ZNSt5stackISt4pairIiNSt7__cxx1112basic_stringIcSt11char_traitsIcESaIcEEEESt5dequeIS7_SaIS7_EEED5Ev,comdat
	.align	2
	.weak	_ZNSt5stackISt4pairIiNSt7__cxx1112basic_stringIcSt11char_traitsIcESaIcEEEESt5dequeIS7_SaIS7_EEED2Ev
	.type	_ZNSt5stackISt4pairIiNSt7__cxx1112basic_stringIcSt11char_traitsIcESaIcEEEESt5dequeIS7_SaIS7_EEED2Ev, %function
_ZNSt5stackISt4pairIiNSt7__cxx1112basic_stringIcSt11char_traitsIcESaIcEEEESt5dequeIS7_SaIS7_EEED2Ev:
.LFB9699:
	.cfi_startproc
	stp	x29, x30, [sp, -32]!
	.cfi_def_cfa_offset 32
	.cfi_offset 29, -32
	.cfi_offset 30, -24
	mov	x29, sp
	str	x0, [sp, 24]
	ldr	x0, [sp, 24]
	bl	_ZNSt5dequeISt4pairIiNSt7__cxx1112basic_stringIcSt11char_traitsIcESaIcEEEESaIS7_EED1Ev
	nop
	ldp	x29, x30, [sp], 32
	.cfi_restore 30
	.cfi_restore 29
	.cfi_def_cfa_offset 0
	ret
	.cfi_endproc
.LFE9699:
	.size	_ZNSt5stackISt4pairIiNSt7__cxx1112basic_stringIcSt11char_traitsIcESaIcEEEESt5dequeIS7_SaIS7_EEED2Ev, .-_ZNSt5stackISt4pairIiNSt7__cxx1112basic_stringIcSt11char_traitsIcESaIcEEEESt5dequeIS7_SaIS7_EEED2Ev
	.weak	_ZNSt5stackISt4pairIiNSt7__cxx1112basic_stringIcSt11char_traitsIcESaIcEEEESt5dequeIS7_SaIS7_EEED1Ev
	.set	_ZNSt5stackISt4pairIiNSt7__cxx1112basic_stringIcSt11char_traitsIcESaIcEEEESt5dequeIS7_SaIS7_EEED1Ev,_ZNSt5stackISt4pairIiNSt7__cxx1112basic_stringIcSt11char_traitsIcESaIcEEEESt5dequeIS7_SaIS7_EEED2Ev
	.section	.text._ZNSt5stackIiSt5dequeIiSaIiEEED2Ev,"axG",@progbits,_ZNSt5stackIiSt5dequeIiSaIiEEED5Ev,comdat
	.align	2
	.weak	_ZNSt5stackIiSt5dequeIiSaIiEEED2Ev
	.type	_ZNSt5stackIiSt5dequeIiSaIiEEED2Ev, %function
_ZNSt5stackIiSt5dequeIiSaIiEEED2Ev:
.LFB9703:
	.cfi_startproc
	stp	x29, x30, [sp, -32]!
	.cfi_def_cfa_offset 32
	.cfi_offset 29, -32
	.cfi_offset 30, -24
	mov	x29, sp
	str	x0, [sp, 24]
	ldr	x0, [sp, 24]
	bl	_ZNSt5dequeIiSaIiEED1Ev
	nop
	ldp	x29, x30, [sp], 32
	.cfi_restore 30
	.cfi_restore 29
	.cfi_def_cfa_offset 0
	ret
	.cfi_endproc
.LFE9703:
	.size	_ZNSt5stackIiSt5dequeIiSaIiEEED2Ev, .-_ZNSt5stackIiSt5dequeIiSaIiEEED2Ev
	.weak	_ZNSt5stackIiSt5dequeIiSaIiEEED1Ev
	.set	_ZNSt5stackIiSt5dequeIiSaIiEEED1Ev,_ZNSt5stackIiSt5dequeIiSaIiEEED2Ev
	.section	.text._ZNSt4pairIiNSt7__cxx1112basic_stringIcSt11char_traitsIcESaIcEEEED2Ev,"axG",@progbits,_ZNSt4pairIiNSt7__cxx1112basic_stringIcSt11char_traitsIcESaIcEEEED5Ev,comdat
	.align	2
	.weak	_ZNSt4pairIiNSt7__cxx1112basic_stringIcSt11char_traitsIcESaIcEEEED2Ev
	.type	_ZNSt4pairIiNSt7__cxx1112basic_stringIcSt11char_traitsIcESaIcEEEED2Ev, %function
_ZNSt4pairIiNSt7__cxx1112basic_stringIcSt11char_traitsIcESaIcEEEED2Ev:
.LFB9716:
	.cfi_startproc
	stp	x29, x30, [sp, -32]!
	.cfi_def_cfa_offset 32
	.cfi_offset 29, -32
	.cfi_offset 30, -24
	mov	x29, sp
	str	x0, [sp, 24]
	ldr	x0, [sp, 24]
	add	x0, x0, 8
	bl	_ZNSt7__cxx1112basic_stringIcSt11char_traitsIcESaIcEED1Ev
	nop
	ldp	x29, x30, [sp], 32
	.cfi_restore 30
	.cfi_restore 29
	.cfi_def_cfa_offset 0
	ret
	.cfi_endproc
.LFE9716:
	.size	_ZNSt4pairIiNSt7__cxx1112basic_stringIcSt11char_traitsIcESaIcEEEED2Ev, .-_ZNSt4pairIiNSt7__cxx1112basic_stringIcSt11char_traitsIcESaIcEEEED2Ev
	.weak	_ZNSt4pairIiNSt7__cxx1112basic_stringIcSt11char_traitsIcESaIcEEEED1Ev
	.set	_ZNSt4pairIiNSt7__cxx1112basic_stringIcSt11char_traitsIcESaIcEEEED1Ev,_ZNSt4pairIiNSt7__cxx1112basic_stringIcSt11char_traitsIcESaIcEEEED2Ev
	.section	.rodata
	.align	3
.LC0:
	.string	" "
	.text
	.align	2
	.global	main
	.type	main, %function
main:
.LFB9696:
	.cfi_startproc
	.cfi_personality 0x9b,DW.ref.__gxx_personality_v0
	.cfi_lsda 0x1b,.LLSDA9696
	stp	x29, x30, [sp, -288]!
	.cfi_def_cfa_offset 288
	.cfi_offset 29, -288
	.cfi_offset 30, -280
	mov	x29, sp
	str	x19, [sp, 16]
	.cfi_offset 19, -272
	mov	w0, 0
.LEHB0:
	bl	_ZNSt8ios_base15sync_with_stdioEb
	mov	x1, 0
	adrp	x0, :got:_ZSt3cin
	ldr	x0, [x0, #:got_lo12:_ZSt3cin]
	add	x0, x0, 16
	bl	_ZNSt9basic_iosIcSt11char_traitsIcEE3tieEPSo
	add	x0, sp, 236
	mov	x1, x0
	adrp	x0, :got:_ZSt3cin
	ldr	x0, [x0, #:got_lo12:_ZSt3cin]
	bl	_ZNSirsERi
	add	x0, sp, 152
	bl	_ZNSt5stackISt4pairIiNSt7__cxx1112basic_stringIcSt11char_traitsIcESaIcEEEESt5dequeIS7_SaIS7_EEEC1ISA_vEEv
.LEHE0:
	add	x0, sp, 72
.LEHB1:
	bl	_ZNSt5stackIiSt5dequeIiSaIiEEEC1IS2_vEEv
.LEHE1:
	b	.L14
.L26:
	add	x0, sp, 68
	mov	x1, x0
	adrp	x0, :got:_ZSt3cin
	ldr	x0, [x0, #:got_lo12:_ZSt3cin]
.LEHB2:
	bl	_ZNSirsERi
.LEHE2:
	ldr	w0, [sp, 68]
	cmn	w0, #1
	beq	.L15
	add	x0, sp, 32
	bl	_ZNSt7__cxx1112basic_stringIcSt11char_traitsIcESaIcEEC1Ev
	add	x0, sp, 32
	mov	x1, x0
	adrp	x0, :got:_ZSt3cin
	ldr	x0, [x0, #:got_lo12:_ZSt3cin]
.LEHB3:
	bl	_ZStrsIcSt11char_traitsIcESaIcEERSt13basic_istreamIT_T0_ES7_RNSt7__cxx1112basic_stringIS4_S5_T1_EE
	ldr	w0, [sp, 68]
	cmp	w0, 0
	bne	.L16
	mov	w19, 0
	b	.L17
.L16:
	add	x2, sp, 32
	add	x1, sp, 68
	add	x0, sp, 240
	bl	_ZNSt4pairIiNSt7__cxx1112basic_stringIcSt11char_traitsIcESaIcEEEEC1IRiRS5_Lb1EEEOT_OT0_
.LEHE3:
	add	x1, sp, 240
	add	x0, sp, 152
.LEHB4:
	bl	_ZNSt5stackISt4pairIiNSt7__cxx1112basic_stringIcSt11char_traitsIcESaIcEEEESt5dequeIS7_SaIS7_EEE4pushEOS7_
.LEHE4:
	add	x0, sp, 240
	bl	_ZNSt4pairIiNSt7__cxx1112basic_stringIcSt11char_traitsIcESaIcEEEED1Ev
	add	x0, sp, 72
	bl	_ZNKSt5stackIiSt5dequeIiSaIiEEE5emptyEv
	and	w0, w0, 255
	cmp	w0, 0
	bne	.L18
	add	x0, sp, 72
	bl	_ZNSt5stackIiSt5dequeIiSaIiEEE3topEv
	ldr	w1, [x0]
	ldr	w0, [sp, 68]
	cmp	w1, w0
	blt	.L19
.L18:
	mov	w0, 1
	b	.L20
.L19:
	mov	w0, 0
.L20:
	cmp	w0, 0
	beq	.L21
	add	x1, sp, 68
	add	x0, sp, 72
.LEHB5:
	bl	_ZNSt5stackIiSt5dequeIiSaIiEEE4pushERKi
.LEHE5:
.L21:
	mov	w19, 1
.L17:
	add	x0, sp, 32
	bl	_ZNSt7__cxx1112basic_stringIcSt11char_traitsIcESaIcEED1Ev
	cmp	w19, 1
	b	.L14
.L15:
	str	wzr, [sp, 284]
	add	x0, sp, 72
	bl	_ZNSt5stackIiSt5dequeIiSaIiEEE3topEv
	ldr	w0, [x0]
	str	w0, [sp, 280]
	b	.L24
.L25:
	ldr	w0, [sp, 284]
	add	w0, w0, 1
	str	w0, [sp, 284]
	add	x0, sp, 152
	bl	_ZNSt5stackISt4pairIiNSt7__cxx1112basic_stringIcSt11char_traitsIcESaIcEEEESt5dequeIS7_SaIS7_EEE3popEv
.L24:
	add	x0, sp, 152
	bl	_ZNSt5stackISt4pairIiNSt7__cxx1112basic_stringIcSt11char_traitsIcESaIcEEEESt5dequeIS7_SaIS7_EEE3topEv
	ldr	w0, [x0]
	ldr	w1, [sp, 280]
	cmp	w1, w0
	cset	w0, ne
	and	w0, w0, 255
	cmp	w0, 0
	bne	.L25
	ldr	w1, [sp, 284]
	adrp	x0, :got:_ZSt4cout
	ldr	x0, [x0, #:got_lo12:_ZSt4cout]
.LEHB6:
	bl	_ZNSolsEi
	mov	x2, x0
	adrp	x0, .LC0
	add	x1, x0, :lo12:.LC0
	mov	x0, x2
	bl	_ZStlsISt11char_traitsIcEERSt13basic_ostreamIcT_ES5_PKc
	mov	x19, x0
	add	x0, sp, 152
	bl	_ZNSt5stackISt4pairIiNSt7__cxx1112basic_stringIcSt11char_traitsIcESaIcEEEESt5dequeIS7_SaIS7_EEE3topEv
	add	x0, x0, 8
	mov	x1, x0
	mov	x0, x19
	bl	_ZStlsIcSt11char_traitsIcESaIcEERSt13basic_ostreamIT_T0_ES7_RKNSt7__cxx1112basic_stringIS4_S5_T1_EE
	mov	x2, x0
	adrp	x0, :got:_ZSt4endlIcSt11char_traitsIcEERSt13basic_ostreamIT_T0_ES6_
	ldr	x1, [x0, #:got_lo12:_ZSt4endlIcSt11char_traitsIcEERSt13basic_ostreamIT_T0_ES6_]
	mov	x0, x2
	bl	_ZNSolsEPFRSoS_E
.LEHE6:
	add	x0, sp, 152
	bl	_ZNSt5stackISt4pairIiNSt7__cxx1112basic_stringIcSt11char_traitsIcESaIcEEEESt5dequeIS7_SaIS7_EEE3popEv
	add	x0, sp, 72
	bl	_ZNSt5stackIiSt5dequeIiSaIiEEE3popEv
.L14:
	ldr	w0, [sp, 236]
	sub	w1, w0, #1
	str	w1, [sp, 236]
	cmp	w0, 0
	cset	w0, ne
	and	w0, w0, 255
	cmp	w0, 0
	bne	.L26
	mov	w19, 0
	add	x0, sp, 72
	bl	_ZNSt5stackIiSt5dequeIiSaIiEEED1Ev
	add	x0, sp, 152
	bl	_ZNSt5stackISt4pairIiNSt7__cxx1112basic_stringIcSt11char_traitsIcESaIcEEEESt5dequeIS7_SaIS7_EEED1Ev
	mov	w0, w19
	b	.L36
.L35:
	mov	x19, x0
	add	x0, sp, 240
	bl	_ZNSt4pairIiNSt7__cxx1112basic_stringIcSt11char_traitsIcESaIcEEEED1Ev
	b	.L29
.L34:
	mov	x19, x0
.L29:
	add	x0, sp, 32
	bl	_ZNSt7__cxx1112basic_stringIcSt11char_traitsIcESaIcEED1Ev
	b	.L30
.L33:
	mov	x19, x0
.L30:
	add	x0, sp, 72
	bl	_ZNSt5stackIiSt5dequeIiSaIiEEED1Ev
	b	.L31
.L32:
	mov	x19, x0
.L31:
	add	x0, sp, 152
	bl	_ZNSt5stackISt4pairIiNSt7__cxx1112basic_stringIcSt11char_traitsIcESaIcEEEESt5dequeIS7_SaIS7_EEED1Ev
	mov	x0, x19
.LEHB7:
	bl	_Unwind_Resume
.LEHE7:
.L36:
	ldr	x19, [sp, 16]
	ldp	x29, x30, [sp], 288
	.cfi_restore 30
	.cfi_restore 29
	.cfi_restore 19
	.cfi_def_cfa_offset 0
	ret
	.cfi_endproc
.LFE9696:
	.global	__gxx_personality_v0
	.section	.gcc_except_table,"a",@progbits
.LLSDA9696:
	.byte	0xff
	.byte	0xff
	.byte	0x1
	.uleb128 .LLSDACSE9696-.LLSDACSB9696
.LLSDACSB9696:
	.uleb128 .LEHB0-.LFB9696
	.uleb128 .LEHE0-.LEHB0
	.uleb128 0
	.uleb128 0
	.uleb128 .LEHB1-.LFB9696
	.uleb128 .LEHE1-.LEHB1
	.uleb128 .L32-.LFB9696
	.uleb128 0
	.uleb128 .LEHB2-.LFB9696
	.uleb128 .LEHE2-.LEHB2
	.uleb128 .L33-.LFB9696
	.uleb128 0
	.uleb128 .LEHB3-.LFB9696
	.uleb128 .LEHE3-.LEHB3
	.uleb128 .L34-.LFB9696
	.uleb128 0
	.uleb128 .LEHB4-.LFB9696
	.uleb128 .LEHE4-.LEHB4
	.uleb128 .L35-.LFB9696
	.uleb128 0
	.uleb128 .LEHB5-.LFB9696
	.uleb128 .LEHE5-.LEHB5
	.uleb128 .L34-.LFB9696
	.uleb128 0
	.uleb128 .LEHB6-.LFB9696
	.uleb128 .LEHE6-.LEHB6
	.uleb128 .L33-.LFB9696
	.uleb128 0
	.uleb128 .LEHB7-.LFB9696
	.uleb128 .LEHE7-.LEHB7
	.uleb128 0
	.uleb128 0
.LLSDACSE9696:
	.text
	.size	main, .-main
	.section	.text._ZSt3maxImERKT_S2_S2_,"axG",@progbits,_ZSt3maxImERKT_S2_S2_,comdat
	.align	2
	.weak	_ZSt3maxImERKT_S2_S2_
	.type	_ZSt3maxImERKT_S2_S2_, %function
_ZSt3maxImERKT_S2_S2_:
.LFB10029:
	.cfi_startproc
	sub	sp, sp, #16
	.cfi_def_cfa_offset 16
	str	x0, [sp, 8]
	str	x1, [sp]
	ldr	x0, [sp, 8]
	ldr	x1, [x0]
	ldr	x0, [sp]
	ldr	x0, [x0]
	cmp	x1, x0
	bcs	.L38
	ldr	x0, [sp]
	b	.L39
.L38:
	ldr	x0, [sp, 8]
.L39:
	add	sp, sp, 16
	.cfi_def_cfa_offset 0
	ret
	.cfi_endproc
.LFE10029:
	.size	_ZSt3maxImERKT_S2_S2_, .-_ZSt3maxImERKT_S2_S2_
	.section	.text._ZNSt5dequeISt4pairIiNSt7__cxx1112basic_stringIcSt11char_traitsIcESaIcEEEESaIS7_EEC2Ev,"axG",@progbits,_ZNSt5dequeISt4pairIiNSt7__cxx1112basic_stringIcSt11char_traitsIcESaIcEEEESaIS7_EEC5Ev,comdat
	.align	2
	.weak	_ZNSt5dequeISt4pairIiNSt7__cxx1112basic_stringIcSt11char_traitsIcESaIcEEEESaIS7_EEC2Ev
	.type	_ZNSt5dequeISt4pairIiNSt7__cxx1112basic_stringIcSt11char_traitsIcESaIcEEEESaIS7_EEC2Ev, %function
_ZNSt5dequeISt4pairIiNSt7__cxx1112basic_stringIcSt11char_traitsIcESaIcEEEESaIS7_EEC2Ev:
.LFB10408:
	.cfi_startproc
	stp	x29, x30, [sp, -32]!
	.cfi_def_cfa_offset 32
	.cfi_offset 29, -32
	.cfi_offset 30, -24
	mov	x29, sp
	str	x0, [sp, 24]
	ldr	x0, [sp, 24]
	bl	_ZNSt11_Deque_baseISt4pairIiNSt7__cxx1112basic_stringIcSt11char_traitsIcESaIcEEEESaIS7_EEC2Ev
	nop
	ldp	x29, x30, [sp], 32
	.cfi_restore 30
	.cfi_restore 29
	.cfi_def_cfa_offset 0
	ret
	.cfi_endproc
.LFE10408:
	.size	_ZNSt5dequeISt4pairIiNSt7__cxx1112basic_stringIcSt11char_traitsIcESaIcEEEESaIS7_EEC2Ev, .-_ZNSt5dequeISt4pairIiNSt7__cxx1112basic_stringIcSt11char_traitsIcESaIcEEEESaIS7_EEC2Ev
	.weak	_ZNSt5dequeISt4pairIiNSt7__cxx1112basic_stringIcSt11char_traitsIcESaIcEEEESaIS7_EEC1Ev
	.set	_ZNSt5dequeISt4pairIiNSt7__cxx1112basic_stringIcSt11char_traitsIcESaIcEEEESaIS7_EEC1Ev,_ZNSt5dequeISt4pairIiNSt7__cxx1112basic_stringIcSt11char_traitsIcESaIcEEEESaIS7_EEC2Ev
	.section	.text._ZNSt5stackISt4pairIiNSt7__cxx1112basic_stringIcSt11char_traitsIcESaIcEEEESt5dequeIS7_SaIS7_EEEC2ISA_vEEv,"axG",@progbits,_ZNSt5stackISt4pairIiNSt7__cxx1112basic_stringIcSt11char_traitsIcESaIcEEEESt5dequeIS7_SaIS7_EEEC5ISA_vEEv,comdat
	.align	2
	.weak	_ZNSt5stackISt4pairIiNSt7__cxx1112basic_stringIcSt11char_traitsIcESaIcEEEESt5dequeIS7_SaIS7_EEEC2ISA_vEEv
	.type	_ZNSt5stackISt4pairIiNSt7__cxx1112basic_stringIcSt11char_traitsIcESaIcEEEESt5dequeIS7_SaIS7_EEEC2ISA_vEEv, %function
_ZNSt5stackISt4pairIiNSt7__cxx1112basic_stringIcSt11char_traitsIcESaIcEEEESt5dequeIS7_SaIS7_EEEC2ISA_vEEv:
.LFB10410:
	.cfi_startproc
	stp	x29, x30, [sp, -32]!
	.cfi_def_cfa_offset 32
	.cfi_offset 29, -32
	.cfi_offset 30, -24
	mov	x29, sp
	str	x0, [sp, 24]
	ldr	x0, [sp, 24]
	movi	v0.4s, 0
	stp	q0, q0, [x0]
	stp	q0, q0, [x0, 32]
	str	q0, [x0, 64]
	ldr	x0, [sp, 24]
	bl	_ZNSt5dequeISt4pairIiNSt7__cxx1112basic_stringIcSt11char_traitsIcESaIcEEEESaIS7_EEC1Ev
	nop
	ldp	x29, x30, [sp], 32
	.cfi_restore 30
	.cfi_restore 29
	.cfi_def_cfa_offset 0
	ret
	.cfi_endproc
.LFE10410:
	.size	_ZNSt5stackISt4pairIiNSt7__cxx1112basic_stringIcSt11char_traitsIcESaIcEEEESt5dequeIS7_SaIS7_EEEC2ISA_vEEv, .-_ZNSt5stackISt4pairIiNSt7__cxx1112basic_stringIcSt11char_traitsIcESaIcEEEESt5dequeIS7_SaIS7_EEEC2ISA_vEEv
	.weak	_ZNSt5stackISt4pairIiNSt7__cxx1112basic_stringIcSt11char_traitsIcESaIcEEEESt5dequeIS7_SaIS7_EEEC1ISA_vEEv
	.set	_ZNSt5stackISt4pairIiNSt7__cxx1112basic_stringIcSt11char_traitsIcESaIcEEEESt5dequeIS7_SaIS7_EEEC1ISA_vEEv,_ZNSt5stackISt4pairIiNSt7__cxx1112basic_stringIcSt11char_traitsIcESaIcEEEESt5dequeIS7_SaIS7_EEEC2ISA_vEEv
	.section	.text._ZNSt5dequeISt4pairIiNSt7__cxx1112basic_stringIcSt11char_traitsIcESaIcEEEESaIS7_EED2Ev,"axG",@progbits,_ZNSt5dequeISt4pairIiNSt7__cxx1112basic_stringIcSt11char_traitsIcESaIcEEEESaIS7_EED5Ev,comdat
	.align	2
	.weak	_ZNSt5dequeISt4pairIiNSt7__cxx1112basic_stringIcSt11char_traitsIcESaIcEEEESaIS7_EED2Ev
	.type	_ZNSt5dequeISt4pairIiNSt7__cxx1112basic_stringIcSt11char_traitsIcESaIcEEEESaIS7_EED2Ev, %function
_ZNSt5dequeISt4pairIiNSt7__cxx1112basic_stringIcSt11char_traitsIcESaIcEEEESaIS7_EED2Ev:
.LFB10413:
	.cfi_startproc
	.cfi_personality 0x9b,DW.ref.__gxx_personality_v0
	.cfi_lsda 0x1b,.LLSDA10413
	stp	x29, x30, [sp, -96]!
	.cfi_def_cfa_offset 96
	.cfi_offset 29, -96
	.cfi_offset 30, -88
	mov	x29, sp
	str	x0, [sp, 24]
	add	x0, sp, 32
	mov	x8, x0
	ldr	x0, [sp, 24]
	bl	_ZNSt5dequeISt4pairIiNSt7__cxx1112basic_stringIcSt11char_traitsIcESaIcEEEESaIS7_EE5beginEv
	add	x0, sp, 64
	mov	x8, x0
	ldr	x0, [sp, 24]
	bl	_ZNSt5dequeISt4pairIiNSt7__cxx1112basic_stringIcSt11char_traitsIcESaIcEEEESaIS7_EE3endEv
	ldr	x0, [sp, 24]
	bl	_ZNSt11_Deque_baseISt4pairIiNSt7__cxx1112basic_stringIcSt11char_traitsIcESaIcEEEESaIS7_EE19_M_get_Tp_allocatorEv
	mov	x2, x0
	add	x1, sp, 64
	add	x0, sp, 32
	mov	x3, x2
	mov	x2, x1
	mov	x1, x0
	ldr	x0, [sp, 24]
	bl	_ZNSt5dequeISt4pairIiNSt7__cxx1112basic_stringIcSt11char_traitsIcESaIcEEEESaIS7_EE15_M_destroy_dataESt15_Deque_iteratorIS7_RS7_PS7_ESD_RKS8_
	ldr	x0, [sp, 24]
	bl	_ZNSt11_Deque_baseISt4pairIiNSt7__cxx1112basic_stringIcSt11char_traitsIcESaIcEEEESaIS7_EED2Ev
	nop
	ldp	x29, x30, [sp], 96
	.cfi_restore 30
	.cfi_restore 29
	.cfi_def_cfa_offset 0
	ret
	.cfi_endproc
.LFE10413:
	.section	.gcc_except_table
.LLSDA10413:
	.byte	0xff
	.byte	0xff
	.byte	0x1
	.uleb128 .LLSDACSE10413-.LLSDACSB10413
.LLSDACSB10413:
.LLSDACSE10413:
	.section	.text._ZNSt5dequeISt4pairIiNSt7__cxx1112basic_stringIcSt11char_traitsIcESaIcEEEESaIS7_EED2Ev,"axG",@progbits,_ZNSt5dequeISt4pairIiNSt7__cxx1112basic_stringIcSt11char_traitsIcESaIcEEEESaIS7_EED5Ev,comdat
	.size	_ZNSt5dequeISt4pairIiNSt7__cxx1112basic_stringIcSt11char_traitsIcESaIcEEEESaIS7_EED2Ev, .-_ZNSt5dequeISt4pairIiNSt7__cxx1112basic_stringIcSt11char_traitsIcESaIcEEEESaIS7_EED2Ev
	.weak	_ZNSt5dequeISt4pairIiNSt7__cxx1112basic_stringIcSt11char_traitsIcESaIcEEEESaIS7_EED1Ev
	.set	_ZNSt5dequeISt4pairIiNSt7__cxx1112basic_stringIcSt11char_traitsIcESaIcEEEESaIS7_EED1Ev,_ZNSt5dequeISt4pairIiNSt7__cxx1112basic_stringIcSt11char_traitsIcESaIcEEEESaIS7_EED2Ev
	.section	.text._ZNSt5dequeIiSaIiEEC2Ev,"axG",@progbits,_ZNSt5dequeIiSaIiEEC5Ev,comdat
	.align	2
	.weak	_ZNSt5dequeIiSaIiEEC2Ev
	.type	_ZNSt5dequeIiSaIiEEC2Ev, %function
_ZNSt5dequeIiSaIiEEC2Ev:
.LFB10417:
	.cfi_startproc
	stp	x29, x30, [sp, -32]!
	.cfi_def_cfa_offset 32
	.cfi_offset 29, -32
	.cfi_offset 30, -24
	mov	x29, sp
	str	x0, [sp, 24]
	ldr	x0, [sp, 24]
	bl	_ZNSt11_Deque_baseIiSaIiEEC2Ev
	nop
	ldp	x29, x30, [sp], 32
	.cfi_restore 30
	.cfi_restore 29
	.cfi_def_cfa_offset 0
	ret
	.cfi_endproc
.LFE10417:
	.size	_ZNSt5dequeIiSaIiEEC2Ev, .-_ZNSt5dequeIiSaIiEEC2Ev
	.weak	_ZNSt5dequeIiSaIiEEC1Ev
	.set	_ZNSt5dequeIiSaIiEEC1Ev,_ZNSt5dequeIiSaIiEEC2Ev
	.section	.text._ZNSt5stackIiSt5dequeIiSaIiEEEC2IS2_vEEv,"axG",@progbits,_ZNSt5stackIiSt5dequeIiSaIiEEEC5IS2_vEEv,comdat
	.align	2
	.weak	_ZNSt5stackIiSt5dequeIiSaIiEEEC2IS2_vEEv
	.type	_ZNSt5stackIiSt5dequeIiSaIiEEEC2IS2_vEEv, %function
_ZNSt5stackIiSt5dequeIiSaIiEEEC2IS2_vEEv:
.LFB10419:
	.cfi_startproc
	stp	x29, x30, [sp, -32]!
	.cfi_def_cfa_offset 32
	.cfi_offset 29, -32
	.cfi_offset 30, -24
	mov	x29, sp
	str	x0, [sp, 24]
	ldr	x0, [sp, 24]
	movi	v0.4s, 0
	stp	q0, q0, [x0]
	stp	q0, q0, [x0, 32]
	str	q0, [x0, 64]
	ldr	x0, [sp, 24]
	bl	_ZNSt5dequeIiSaIiEEC1Ev
	nop
	ldp	x29, x30, [sp], 32
	.cfi_restore 30
	.cfi_restore 29
	.cfi_def_cfa_offset 0
	ret
	.cfi_endproc
.LFE10419:
	.size	_ZNSt5stackIiSt5dequeIiSaIiEEEC2IS2_vEEv, .-_ZNSt5stackIiSt5dequeIiSaIiEEEC2IS2_vEEv
	.weak	_ZNSt5stackIiSt5dequeIiSaIiEEEC1IS2_vEEv
	.set	_ZNSt5stackIiSt5dequeIiSaIiEEEC1IS2_vEEv,_ZNSt5stackIiSt5dequeIiSaIiEEEC2IS2_vEEv
	.section	.text._ZNSt5dequeIiSaIiEED2Ev,"axG",@progbits,_ZNSt5dequeIiSaIiEED5Ev,comdat
	.align	2
	.weak	_ZNSt5dequeIiSaIiEED2Ev
	.type	_ZNSt5dequeIiSaIiEED2Ev, %function
_ZNSt5dequeIiSaIiEED2Ev:
.LFB10422:
	.cfi_startproc
	.cfi_personality 0x9b,DW.ref.__gxx_personality_v0
	.cfi_lsda 0x1b,.LLSDA10422
	stp	x29, x30, [sp, -96]!
	.cfi_def_cfa_offset 96
	.cfi_offset 29, -96
	.cfi_offset 30, -88
	mov	x29, sp
	str	x0, [sp, 24]
	add	x0, sp, 32
	mov	x8, x0
	ldr	x0, [sp, 24]
	bl	_ZNSt5dequeIiSaIiEE5beginEv
	add	x0, sp, 64
	mov	x8, x0
	ldr	x0, [sp, 24]
	bl	_ZNSt5dequeIiSaIiEE3endEv
	ldr	x0, [sp, 24]
	bl	_ZNSt11_Deque_baseIiSaIiEE19_M_get_Tp_allocatorEv
	mov	x2, x0
	add	x1, sp, 64
	add	x0, sp, 32
	mov	x3, x2
	mov	x2, x1
	mov	x1, x0
	ldr	x0, [sp, 24]
	bl	_ZNSt5dequeIiSaIiEE15_M_destroy_dataESt15_Deque_iteratorIiRiPiES5_RKS0_
	ldr	x0, [sp, 24]
	bl	_ZNSt11_Deque_baseIiSaIiEED2Ev
	nop
	ldp	x29, x30, [sp], 96
	.cfi_restore 30
	.cfi_restore 29
	.cfi_def_cfa_offset 0
	ret
	.cfi_endproc
.LFE10422:
	.section	.gcc_except_table
.LLSDA10422:
	.byte	0xff
	.byte	0xff
	.byte	0x1
	.uleb128 .LLSDACSE10422-.LLSDACSB10422
.LLSDACSB10422:
.LLSDACSE10422:
	.section	.text._ZNSt5dequeIiSaIiEED2Ev,"axG",@progbits,_ZNSt5dequeIiSaIiEED5Ev,comdat
	.size	_ZNSt5dequeIiSaIiEED2Ev, .-_ZNSt5dequeIiSaIiEED2Ev
	.weak	_ZNSt5dequeIiSaIiEED1Ev
	.set	_ZNSt5dequeIiSaIiEED1Ev,_ZNSt5dequeIiSaIiEED2Ev
	.section	.text._ZNSt4pairIiNSt7__cxx1112basic_stringIcSt11char_traitsIcESaIcEEEEC2IRiRS5_Lb1EEEOT_OT0_,"axG",@progbits,_ZNSt4pairIiNSt7__cxx1112basic_stringIcSt11char_traitsIcESaIcEEEEC5IRiRS5_Lb1EEEOT_OT0_,comdat
	.align	2
	.weak	_ZNSt4pairIiNSt7__cxx1112basic_stringIcSt11char_traitsIcESaIcEEEEC2IRiRS5_Lb1EEEOT_OT0_
	.type	_ZNSt4pairIiNSt7__cxx1112basic_stringIcSt11char_traitsIcESaIcEEEEC2IRiRS5_Lb1EEEOT_OT0_, %function
_ZNSt4pairIiNSt7__cxx1112basic_stringIcSt11char_traitsIcESaIcEEEEC2IRiRS5_Lb1EEEOT_OT0_:
.LFB10425:
	.cfi_startproc
	stp	x29, x30, [sp, -64]!
	.cfi_def_cfa_offset 64
	.cfi_offset 29, -64
	.cfi_offset 30, -56
	mov	x29, sp
	str	x19, [sp, 16]
	.cfi_offset 19, -48
	str	x0, [sp, 56]
	str	x1, [sp, 48]
	str	x2, [sp, 40]
	ldr	x0, [sp, 48]
	bl	_ZSt7forwardIRiEOT_RNSt16remove_referenceIS1_E4typeE
	ldr	w1, [x0]
	ldr	x0, [sp, 56]
	str	w1, [x0]
	ldr	x0, [sp, 56]
	add	x19, x0, 8
	ldr	x0, [sp, 40]
	bl	_ZSt7forwardIRNSt7__cxx1112basic_stringIcSt11char_traitsIcESaIcEEEEOT_RNSt16remove_referenceIS7_E4typeE
	mov	x1, x0
	mov	x0, x19
	bl	_ZNSt7__cxx1112basic_stringIcSt11char_traitsIcESaIcEEC1ERKS4_
	nop
	ldr	x19, [sp, 16]
	ldp	x29, x30, [sp], 64
	.cfi_restore 30
	.cfi_restore 29
	.cfi_restore 19
	.cfi_def_cfa_offset 0
	ret
	.cfi_endproc
.LFE10425:
	.size	_ZNSt4pairIiNSt7__cxx1112basic_stringIcSt11char_traitsIcESaIcEEEEC2IRiRS5_Lb1EEEOT_OT0_, .-_ZNSt4pairIiNSt7__cxx1112basic_stringIcSt11char_traitsIcESaIcEEEEC2IRiRS5_Lb1EEEOT_OT0_
	.weak	_ZNSt4pairIiNSt7__cxx1112basic_stringIcSt11char_traitsIcESaIcEEEEC1IRiRS5_Lb1EEEOT_OT0_
	.set	_ZNSt4pairIiNSt7__cxx1112basic_stringIcSt11char_traitsIcESaIcEEEEC1IRiRS5_Lb1EEEOT_OT0_,_ZNSt4pairIiNSt7__cxx1112basic_stringIcSt11char_traitsIcESaIcEEEEC2IRiRS5_Lb1EEEOT_OT0_
	.section	.text._ZNSt5stackISt4pairIiNSt7__cxx1112basic_stringIcSt11char_traitsIcESaIcEEEESt5dequeIS7_SaIS7_EEE4pushEOS7_,"axG",@progbits,_ZNSt5stackISt4pairIiNSt7__cxx1112basic_stringIcSt11char_traitsIcESaIcEEEESt5dequeIS7_SaIS7_EEE4pushEOS7_,comdat
	.align	2
	.weak	_ZNSt5stackISt4pairIiNSt7__cxx1112basic_stringIcSt11char_traitsIcESaIcEEEESt5dequeIS7_SaIS7_EEE4pushEOS7_
	.type	_ZNSt5stackISt4pairIiNSt7__cxx1112basic_stringIcSt11char_traitsIcESaIcEEEESt5dequeIS7_SaIS7_EEE4pushEOS7_, %function
_ZNSt5stackISt4pairIiNSt7__cxx1112basic_stringIcSt11char_traitsIcESaIcEEEESt5dequeIS7_SaIS7_EEE4pushEOS7_:
.LFB10427:
	.cfi_startproc
	stp	x29, x30, [sp, -48]!
	.cfi_def_cfa_offset 48
	.cfi_offset 29, -48
	.cfi_offset 30, -40
	mov	x29, sp
	str	x19, [sp, 16]
	.cfi_offset 19, -32
	str	x0, [sp, 40]
	str	x1, [sp, 32]
	ldr	x19, [sp, 40]
	ldr	x0, [sp, 32]
	bl	_ZSt4moveIRSt4pairIiNSt7__cxx1112basic_stringIcSt11char_traitsIcESaIcEEEEEONSt16remove_referenceIT_E4typeEOSA_
	mov	x1, x0
	mov	x0, x19
	bl	_ZNSt5dequeISt4pairIiNSt7__cxx1112basic_stringIcSt11char_traitsIcESaIcEEEESaIS7_EE9push_backEOS7_
	nop
	ldr	x19, [sp, 16]
	ldp	x29, x30, [sp], 48
	.cfi_restore 30
	.cfi_restore 29
	.cfi_restore 19
	.cfi_def_cfa_offset 0
	ret
	.cfi_endproc
.LFE10427:
	.size	_ZNSt5stackISt4pairIiNSt7__cxx1112basic_stringIcSt11char_traitsIcESaIcEEEESt5dequeIS7_SaIS7_EEE4pushEOS7_, .-_ZNSt5stackISt4pairIiNSt7__cxx1112basic_stringIcSt11char_traitsIcESaIcEEEESt5dequeIS7_SaIS7_EEE4pushEOS7_
	.section	.text._ZNKSt5stackIiSt5dequeIiSaIiEEE5emptyEv,"axG",@progbits,_ZNKSt5stackIiSt5dequeIiSaIiEEE5emptyEv,comdat
	.align	2
	.weak	_ZNKSt5stackIiSt5dequeIiSaIiEEE5emptyEv
	.type	_ZNKSt5stackIiSt5dequeIiSaIiEEE5emptyEv, %function
_ZNKSt5stackIiSt5dequeIiSaIiEEE5emptyEv:
.LFB10428:
	.cfi_startproc
	stp	x29, x30, [sp, -32]!
	.cfi_def_cfa_offset 32
	.cfi_offset 29, -32
	.cfi_offset 30, -24
	mov	x29, sp
	str	x0, [sp, 24]
	ldr	x0, [sp, 24]
	bl	_ZNKSt5dequeIiSaIiEE5emptyEv
	and	w0, w0, 255
	ldp	x29, x30, [sp], 32
	.cfi_restore 30
	.cfi_restore 29
	.cfi_def_cfa_offset 0
	ret
	.cfi_endproc
.LFE10428:
	.size	_ZNKSt5stackIiSt5dequeIiSaIiEEE5emptyEv, .-_ZNKSt5stackIiSt5dequeIiSaIiEEE5emptyEv
	.section	.text._ZNSt5stackIiSt5dequeIiSaIiEEE3topEv,"axG",@progbits,_ZNSt5stackIiSt5dequeIiSaIiEEE3topEv,comdat
	.align	2
	.weak	_ZNSt5stackIiSt5dequeIiSaIiEEE3topEv
	.type	_ZNSt5stackIiSt5dequeIiSaIiEEE3topEv, %function
_ZNSt5stackIiSt5dequeIiSaIiEEE3topEv:
.LFB10429:
	.cfi_startproc
	stp	x29, x30, [sp, -32]!
	.cfi_def_cfa_offset 32
	.cfi_offset 29, -32
	.cfi_offset 30, -24
	mov	x29, sp
	str	x0, [sp, 24]
	ldr	x0, [sp, 24]
	bl	_ZNSt5dequeIiSaIiEE4backEv
	ldp	x29, x30, [sp], 32
	.cfi_restore 30
	.cfi_restore 29
	.cfi_def_cfa_offset 0
	ret
	.cfi_endproc
.LFE10429:
	.size	_ZNSt5stackIiSt5dequeIiSaIiEEE3topEv, .-_ZNSt5stackIiSt5dequeIiSaIiEEE3topEv
	.section	.text._ZNSt5stackIiSt5dequeIiSaIiEEE4pushERKi,"axG",@progbits,_ZNSt5stackIiSt5dequeIiSaIiEEE4pushERKi,comdat
	.align	2
	.weak	_ZNSt5stackIiSt5dequeIiSaIiEEE4pushERKi
	.type	_ZNSt5stackIiSt5dequeIiSaIiEEE4pushERKi, %function
_ZNSt5stackIiSt5dequeIiSaIiEEE4pushERKi:
.LFB10430:
	.cfi_startproc
	stp	x29, x30, [sp, -32]!
	.cfi_def_cfa_offset 32
	.cfi_offset 29, -32
	.cfi_offset 30, -24
	mov	x29, sp
	str	x0, [sp, 24]
	str	x1, [sp, 16]
	ldr	x0, [sp, 24]
	ldr	x1, [sp, 16]
	bl	_ZNSt5dequeIiSaIiEE9push_backERKi
	nop
	ldp	x29, x30, [sp], 32
	.cfi_restore 30
	.cfi_restore 29
	.cfi_def_cfa_offset 0
	ret
	.cfi_endproc
.LFE10430:
	.size	_ZNSt5stackIiSt5dequeIiSaIiEEE4pushERKi, .-_ZNSt5stackIiSt5dequeIiSaIiEEE4pushERKi
	.section	.text._ZNSt5stackISt4pairIiNSt7__cxx1112basic_stringIcSt11char_traitsIcESaIcEEEESt5dequeIS7_SaIS7_EEE3topEv,"axG",@progbits,_ZNSt5stackISt4pairIiNSt7__cxx1112basic_stringIcSt11char_traitsIcESaIcEEEESt5dequeIS7_SaIS7_EEE3topEv,comdat
	.align	2
	.weak	_ZNSt5stackISt4pairIiNSt7__cxx1112basic_stringIcSt11char_traitsIcESaIcEEEESt5dequeIS7_SaIS7_EEE3topEv
	.type	_ZNSt5stackISt4pairIiNSt7__cxx1112basic_stringIcSt11char_traitsIcESaIcEEEESt5dequeIS7_SaIS7_EEE3topEv, %function
_ZNSt5stackISt4pairIiNSt7__cxx1112basic_stringIcSt11char_traitsIcESaIcEEEESt5dequeIS7_SaIS7_EEE3topEv:
.LFB10431:
	.cfi_startproc
	stp	x29, x30, [sp, -32]!
	.cfi_def_cfa_offset 32
	.cfi_offset 29, -32
	.cfi_offset 30, -24
	mov	x29, sp
	str	x0, [sp, 24]
	ldr	x0, [sp, 24]
	bl	_ZNSt5dequeISt4pairIiNSt7__cxx1112basic_stringIcSt11char_traitsIcESaIcEEEESaIS7_EE4backEv
	ldp	x29, x30, [sp], 32
	.cfi_restore 30
	.cfi_restore 29
	.cfi_def_cfa_offset 0
	ret
	.cfi_endproc
.LFE10431:
	.size	_ZNSt5stackISt4pairIiNSt7__cxx1112basic_stringIcSt11char_traitsIcESaIcEEEESt5dequeIS7_SaIS7_EEE3topEv, .-_ZNSt5stackISt4pairIiNSt7__cxx1112basic_stringIcSt11char_traitsIcESaIcEEEESt5dequeIS7_SaIS7_EEE3topEv
	.section	.text._ZNSt5stackISt4pairIiNSt7__cxx1112basic_stringIcSt11char_traitsIcESaIcEEEESt5dequeIS7_SaIS7_EEE3popEv,"axG",@progbits,_ZNSt5stackISt4pairIiNSt7__cxx1112basic_stringIcSt11char_traitsIcESaIcEEEESt5dequeIS7_SaIS7_EEE3popEv,comdat
	.align	2
	.weak	_ZNSt5stackISt4pairIiNSt7__cxx1112basic_stringIcSt11char_traitsIcESaIcEEEESt5dequeIS7_SaIS7_EEE3popEv
	.type	_ZNSt5stackISt4pairIiNSt7__cxx1112basic_stringIcSt11char_traitsIcESaIcEEEESt5dequeIS7_SaIS7_EEE3popEv, %function
_ZNSt5stackISt4pairIiNSt7__cxx1112basic_stringIcSt11char_traitsIcESaIcEEEESt5dequeIS7_SaIS7_EEE3popEv:
.LFB10432:
	.cfi_startproc
	stp	x29, x30, [sp, -32]!
	.cfi_def_cfa_offset 32
	.cfi_offset 29, -32
	.cfi_offset 30, -24
	mov	x29, sp
	str	x0, [sp, 24]
	ldr	x0, [sp, 24]
	bl	_ZNSt5dequeISt4pairIiNSt7__cxx1112basic_stringIcSt11char_traitsIcESaIcEEEESaIS7_EE8pop_backEv
	nop
	ldp	x29, x30, [sp], 32
	.cfi_restore 30
	.cfi_restore 29
	.cfi_def_cfa_offset 0
	ret
	.cfi_endproc
.LFE10432:
	.size	_ZNSt5stackISt4pairIiNSt7__cxx1112basic_stringIcSt11char_traitsIcESaIcEEEESt5dequeIS7_SaIS7_EEE3popEv, .-_ZNSt5stackISt4pairIiNSt7__cxx1112basic_stringIcSt11char_traitsIcESaIcEEEESt5dequeIS7_SaIS7_EEE3popEv
	.section	.text._ZNSt5stackIiSt5dequeIiSaIiEEE3popEv,"axG",@progbits,_ZNSt5stackIiSt5dequeIiSaIiEEE3popEv,comdat
	.align	2
	.weak	_ZNSt5stackIiSt5dequeIiSaIiEEE3popEv
	.type	_ZNSt5stackIiSt5dequeIiSaIiEEE3popEv, %function
_ZNSt5stackIiSt5dequeIiSaIiEEE3popEv:
.LFB10437:
	.cfi_startproc
	stp	x29, x30, [sp, -32]!
	.cfi_def_cfa_offset 32
	.cfi_offset 29, -32
	.cfi_offset 30, -24
	mov	x29, sp
	str	x0, [sp, 24]
	ldr	x0, [sp, 24]
	bl	_ZNSt5dequeIiSaIiEE8pop_backEv
	nop
	ldp	x29, x30, [sp], 32
	.cfi_restore 30
	.cfi_restore 29
	.cfi_def_cfa_offset 0
	ret
	.cfi_endproc
.LFE10437:
	.size	_ZNSt5stackIiSt5dequeIiSaIiEEE3popEv, .-_ZNSt5stackIiSt5dequeIiSaIiEEE3popEv
	.section	.text._ZNSt11_Deque_baseISt4pairIiNSt7__cxx1112basic_stringIcSt11char_traitsIcESaIcEEEESaIS7_EE11_Deque_implD2Ev,"axG",@progbits,_ZNSt11_Deque_baseISt4pairIiNSt7__cxx1112basic_stringIcSt11char_traitsIcESaIcEEEESaIS7_EE11_Deque_implD5Ev,comdat
	.align	2
	.weak	_ZNSt11_Deque_baseISt4pairIiNSt7__cxx1112basic_stringIcSt11char_traitsIcESaIcEEEESaIS7_EE11_Deque_implD2Ev
	.type	_ZNSt11_Deque_baseISt4pairIiNSt7__cxx1112basic_stringIcSt11char_traitsIcESaIcEEEESaIS7_EE11_Deque_implD2Ev, %function
_ZNSt11_Deque_baseISt4pairIiNSt7__cxx1112basic_stringIcSt11char_traitsIcESaIcEEEESaIS7_EE11_Deque_implD2Ev:
.LFB10832:
	.cfi_startproc
	stp	x29, x30, [sp, -32]!
	.cfi_def_cfa_offset 32
	.cfi_offset 29, -32
	.cfi_offset 30, -24
	mov	x29, sp
	str	x0, [sp, 24]
	ldr	x0, [sp, 24]
	bl	_ZNSaISt4pairIiNSt7__cxx1112basic_stringIcSt11char_traitsIcESaIcEEEEED2Ev
	nop
	ldp	x29, x30, [sp], 32
	.cfi_restore 30
	.cfi_restore 29
	.cfi_def_cfa_offset 0
	ret
	.cfi_endproc
.LFE10832:
	.size	_ZNSt11_Deque_baseISt4pairIiNSt7__cxx1112basic_stringIcSt11char_traitsIcESaIcEEEESaIS7_EE11_Deque_implD2Ev, .-_ZNSt11_Deque_baseISt4pairIiNSt7__cxx1112basic_stringIcSt11char_traitsIcESaIcEEEESaIS7_EE11_Deque_implD2Ev
	.weak	_ZNSt11_Deque_baseISt4pairIiNSt7__cxx1112basic_stringIcSt11char_traitsIcESaIcEEEESaIS7_EE11_Deque_implD1Ev
	.set	_ZNSt11_Deque_baseISt4pairIiNSt7__cxx1112basic_stringIcSt11char_traitsIcESaIcEEEESaIS7_EE11_Deque_implD1Ev,_ZNSt11_Deque_baseISt4pairIiNSt7__cxx1112basic_stringIcSt11char_traitsIcESaIcEEEESaIS7_EE11_Deque_implD2Ev
	.section	.text._ZNSt11_Deque_baseISt4pairIiNSt7__cxx1112basic_stringIcSt11char_traitsIcESaIcEEEESaIS7_EEC2Ev,"axG",@progbits,_ZNSt11_Deque_baseISt4pairIiNSt7__cxx1112basic_stringIcSt11char_traitsIcESaIcEEEESaIS7_EEC5Ev,comdat
	.align	2
	.weak	_ZNSt11_Deque_baseISt4pairIiNSt7__cxx1112basic_stringIcSt11char_traitsIcESaIcEEEESaIS7_EEC2Ev
	.type	_ZNSt11_Deque_baseISt4pairIiNSt7__cxx1112basic_stringIcSt11char_traitsIcESaIcEEEESaIS7_EEC2Ev, %function
_ZNSt11_Deque_baseISt4pairIiNSt7__cxx1112basic_stringIcSt11char_traitsIcESaIcEEEESaIS7_EEC2Ev:
.LFB10834:
	.cfi_startproc
	.cfi_personality 0x9b,DW.ref.__gxx_personality_v0
	.cfi_lsda 0x1b,.LLSDA10834
	stp	x29, x30, [sp, -48]!
	.cfi_def_cfa_offset 48
	.cfi_offset 29, -48
	.cfi_offset 30, -40
	mov	x29, sp
	str	x19, [sp, 16]
	.cfi_offset 19, -32
	str	x0, [sp, 40]
	ldr	x0, [sp, 40]
	bl	_ZNSt11_Deque_baseISt4pairIiNSt7__cxx1112basic_stringIcSt11char_traitsIcESaIcEEEESaIS7_EE11_Deque_implC1Ev
	mov	x1, 0
	ldr	x0, [sp, 40]
.LEHB8:
	bl	_ZNSt11_Deque_baseISt4pairIiNSt7__cxx1112basic_stringIcSt11char_traitsIcESaIcEEEESaIS7_EE17_M_initialize_mapEm
.LEHE8:
	b	.L61
.L60:
	mov	x19, x0
	ldr	x0, [sp, 40]
	bl	_ZNSt11_Deque_baseISt4pairIiNSt7__cxx1112basic_stringIcSt11char_traitsIcESaIcEEEESaIS7_EE11_Deque_implD1Ev
	mov	x0, x19
.LEHB9:
	bl	_Unwind_Resume
.LEHE9:
.L61:
	ldr	x19, [sp, 16]
	ldp	x29, x30, [sp], 48
	.cfi_restore 30
	.cfi_restore 29
	.cfi_restore 19
	.cfi_def_cfa_offset 0
	ret
	.cfi_endproc
.LFE10834:
	.section	.gcc_except_table
.LLSDA10834:
	.byte	0xff
	.byte	0xff
	.byte	0x1
	.uleb128 .LLSDACSE10834-.LLSDACSB10834
.LLSDACSB10834:
	.uleb128 .LEHB8-.LFB10834
	.uleb128 .LEHE8-.LEHB8
	.uleb128 .L60-.LFB10834
	.uleb128 0
	.uleb128 .LEHB9-.LFB10834
	.uleb128 .LEHE9-.LEHB9
	.uleb128 0
	.uleb128 0
.LLSDACSE10834:
	.section	.text._ZNSt11_Deque_baseISt4pairIiNSt7__cxx1112basic_stringIcSt11char_traitsIcESaIcEEEESaIS7_EEC2Ev,"axG",@progbits,_ZNSt11_Deque_baseISt4pairIiNSt7__cxx1112basic_stringIcSt11char_traitsIcESaIcEEEESaIS7_EEC5Ev,comdat
	.size	_ZNSt11_Deque_baseISt4pairIiNSt7__cxx1112basic_stringIcSt11char_traitsIcESaIcEEEESaIS7_EEC2Ev, .-_ZNSt11_Deque_baseISt4pairIiNSt7__cxx1112basic_stringIcSt11char_traitsIcESaIcEEEESaIS7_EEC2Ev
	.weak	_ZNSt11_Deque_baseISt4pairIiNSt7__cxx1112basic_stringIcSt11char_traitsIcESaIcEEEESaIS7_EEC1Ev
	.set	_ZNSt11_Deque_baseISt4pairIiNSt7__cxx1112basic_stringIcSt11char_traitsIcESaIcEEEESaIS7_EEC1Ev,_ZNSt11_Deque_baseISt4pairIiNSt7__cxx1112basic_stringIcSt11char_traitsIcESaIcEEEESaIS7_EEC2Ev
	.section	.text._ZNSt11_Deque_baseISt4pairIiNSt7__cxx1112basic_stringIcSt11char_traitsIcESaIcEEEESaIS7_EED2Ev,"axG",@progbits,_ZNSt11_Deque_baseISt4pairIiNSt7__cxx1112basic_stringIcSt11char_traitsIcESaIcEEEESaIS7_EED5Ev,comdat
	.align	2
	.weak	_ZNSt11_Deque_baseISt4pairIiNSt7__cxx1112basic_stringIcSt11char_traitsIcESaIcEEEESaIS7_EED2Ev
	.type	_ZNSt11_Deque_baseISt4pairIiNSt7__cxx1112basic_stringIcSt11char_traitsIcESaIcEEEESaIS7_EED2Ev, %function
_ZNSt11_Deque_baseISt4pairIiNSt7__cxx1112basic_stringIcSt11char_traitsIcESaIcEEEESaIS7_EED2Ev:
.LFB10837:
	.cfi_startproc
	stp	x29, x30, [sp, -32]!
	.cfi_def_cfa_offset 32
	.cfi_offset 29, -32
	.cfi_offset 30, -24
	mov	x29, sp
	str	x0, [sp, 24]
	ldr	x0, [sp, 24]
	ldr	x0, [x0]
	cmp	x0, 0
	beq	.L63
	ldr	x0, [sp, 24]
	ldr	x1, [x0, 40]
	ldr	x0, [sp, 24]
	ldr	x0, [x0, 72]
	add	x0, x0, 8
	mov	x2, x0
	ldr	x0, [sp, 24]
	bl	_ZNSt11_Deque_baseISt4pairIiNSt7__cxx1112basic_stringIcSt11char_traitsIcESaIcEEEESaIS7_EE16_M_destroy_nodesEPPS7_SB_
	ldr	x0, [sp, 24]
	ldr	x1, [x0]
	ldr	x0, [sp, 24]
	ldr	x0, [x0, 8]
	mov	x2, x0
	ldr	x0, [sp, 24]
	bl	_ZNSt11_Deque_baseISt4pairIiNSt7__cxx1112basic_stringIcSt11char_traitsIcESaIcEEEESaIS7_EE17_M_deallocate_mapEPPS7_m
.L63:
	ldr	x0, [sp, 24]
	bl	_ZNSt11_Deque_baseISt4pairIiNSt7__cxx1112basic_stringIcSt11char_traitsIcESaIcEEEESaIS7_EE11_Deque_implD1Ev
	nop
	ldp	x29, x30, [sp], 32
	.cfi_restore 30
	.cfi_restore 29
	.cfi_def_cfa_offset 0
	ret
	.cfi_endproc
.LFE10837:
	.size	_ZNSt11_Deque_baseISt4pairIiNSt7__cxx1112basic_stringIcSt11char_traitsIcESaIcEEEESaIS7_EED2Ev, .-_ZNSt11_Deque_baseISt4pairIiNSt7__cxx1112basic_stringIcSt11char_traitsIcESaIcEEEESaIS7_EED2Ev
	.weak	_ZNSt11_Deque_baseISt4pairIiNSt7__cxx1112basic_stringIcSt11char_traitsIcESaIcEEEESaIS7_EED1Ev
	.set	_ZNSt11_Deque_baseISt4pairIiNSt7__cxx1112basic_stringIcSt11char_traitsIcESaIcEEEESaIS7_EED1Ev,_ZNSt11_Deque_baseISt4pairIiNSt7__cxx1112basic_stringIcSt11char_traitsIcESaIcEEEESaIS7_EED2Ev
	.section	.text._ZNSt5dequeISt4pairIiNSt7__cxx1112basic_stringIcSt11char_traitsIcESaIcEEEESaIS7_EE5beginEv,"axG",@progbits,_ZNSt5dequeISt4pairIiNSt7__cxx1112basic_stringIcSt11char_traitsIcESaIcEEEESaIS7_EE5beginEv,comdat
	.align	2
	.weak	_ZNSt5dequeISt4pairIiNSt7__cxx1112basic_stringIcSt11char_traitsIcESaIcEEEESaIS7_EE5beginEv
	.type	_ZNSt5dequeISt4pairIiNSt7__cxx1112basic_stringIcSt11char_traitsIcESaIcEEEESaIS7_EE5beginEv, %function
_ZNSt5dequeISt4pairIiNSt7__cxx1112basic_stringIcSt11char_traitsIcESaIcEEEESaIS7_EE5beginEv:
.LFB10839:
	.cfi_startproc
	stp	x29, x30, [sp, -48]!
	.cfi_def_cfa_offset 48
	.cfi_offset 29, -48
	.cfi_offset 30, -40
	mov	x29, sp
	str	x19, [sp, 16]
	.cfi_offset 19, -32
	mov	x19, x8
	str	x0, [sp, 40]
	ldr	x0, [sp, 40]
	add	x0, x0, 16
	mov	x1, x0
	mov	x0, x19
	bl	_ZNSt15_Deque_iteratorISt4pairIiNSt7__cxx1112basic_stringIcSt11char_traitsIcESaIcEEEERS7_PS7_EC1ERKSA_
	mov	x0, x19
	ldr	x19, [sp, 16]
	ldp	x29, x30, [sp], 48
	.cfi_restore 30
	.cfi_restore 29
	.cfi_restore 19
	.cfi_def_cfa_offset 0
	ret
	.cfi_endproc
.LFE10839:
	.size	_ZNSt5dequeISt4pairIiNSt7__cxx1112basic_stringIcSt11char_traitsIcESaIcEEEESaIS7_EE5beginEv, .-_ZNSt5dequeISt4pairIiNSt7__cxx1112basic_stringIcSt11char_traitsIcESaIcEEEESaIS7_EE5beginEv
	.section	.text._ZNSt5dequeISt4pairIiNSt7__cxx1112basic_stringIcSt11char_traitsIcESaIcEEEESaIS7_EE3endEv,"axG",@progbits,_ZNSt5dequeISt4pairIiNSt7__cxx1112basic_stringIcSt11char_traitsIcESaIcEEEESaIS7_EE3endEv,comdat
	.align	2
	.weak	_ZNSt5dequeISt4pairIiNSt7__cxx1112basic_stringIcSt11char_traitsIcESaIcEEEESaIS7_EE3endEv
	.type	_ZNSt5dequeISt4pairIiNSt7__cxx1112basic_stringIcSt11char_traitsIcESaIcEEEESaIS7_EE3endEv, %function
_ZNSt5dequeISt4pairIiNSt7__cxx1112basic_stringIcSt11char_traitsIcESaIcEEEESaIS7_EE3endEv:
.LFB10840:
	.cfi_startproc
	stp	x29, x30, [sp, -48]!
	.cfi_def_cfa_offset 48
	.cfi_offset 29, -48
	.cfi_offset 30, -40
	mov	x29, sp
	str	x19, [sp, 16]
	.cfi_offset 19, -32
	mov	x19, x8
	str	x0, [sp, 40]
	ldr	x0, [sp, 40]
	add	x0, x0, 48
	mov	x1, x0
	mov	x0, x19
	bl	_ZNSt15_Deque_iteratorISt4pairIiNSt7__cxx1112basic_stringIcSt11char_traitsIcESaIcEEEERS7_PS7_EC1ERKSA_
	mov	x0, x19
	ldr	x19, [sp, 16]
	ldp	x29, x30, [sp], 48
	.cfi_restore 30
	.cfi_restore 29
	.cfi_restore 19
	.cfi_def_cfa_offset 0
	ret
	.cfi_endproc
.LFE10840:
	.size	_ZNSt5dequeISt4pairIiNSt7__cxx1112basic_stringIcSt11char_traitsIcESaIcEEEESaIS7_EE3endEv, .-_ZNSt5dequeISt4pairIiNSt7__cxx1112basic_stringIcSt11char_traitsIcESaIcEEEESaIS7_EE3endEv
	.section	.text._ZNSt11_Deque_baseISt4pairIiNSt7__cxx1112basic_stringIcSt11char_traitsIcESaIcEEEESaIS7_EE19_M_get_Tp_allocatorEv,"axG",@progbits,_ZNSt11_Deque_baseISt4pairIiNSt7__cxx1112basic_stringIcSt11char_traitsIcESaIcEEEESaIS7_EE19_M_get_Tp_allocatorEv,comdat
	.align	2
	.weak	_ZNSt11_Deque_baseISt4pairIiNSt7__cxx1112basic_stringIcSt11char_traitsIcESaIcEEEESaIS7_EE19_M_get_Tp_allocatorEv
	.type	_ZNSt11_Deque_baseISt4pairIiNSt7__cxx1112basic_stringIcSt11char_traitsIcESaIcEEEESaIS7_EE19_M_get_Tp_allocatorEv, %function
_ZNSt11_Deque_baseISt4pairIiNSt7__cxx1112basic_stringIcSt11char_traitsIcESaIcEEEESaIS7_EE19_M_get_Tp_allocatorEv:
.LFB10841:
	.cfi_startproc
	sub	sp, sp, #16
	.cfi_def_cfa_offset 16
	str	x0, [sp, 8]
	ldr	x0, [sp, 8]
	add	sp, sp, 16
	.cfi_def_cfa_offset 0
	ret
	.cfi_endproc
.LFE10841:
	.size	_ZNSt11_Deque_baseISt4pairIiNSt7__cxx1112basic_stringIcSt11char_traitsIcESaIcEEEESaIS7_EE19_M_get_Tp_allocatorEv, .-_ZNSt11_Deque_baseISt4pairIiNSt7__cxx1112basic_stringIcSt11char_traitsIcESaIcEEEESaIS7_EE19_M_get_Tp_allocatorEv
	.section	.text._ZNSt5dequeISt4pairIiNSt7__cxx1112basic_stringIcSt11char_traitsIcESaIcEEEESaIS7_EE15_M_destroy_dataESt15_Deque_iteratorIS7_RS7_PS7_ESD_RKS8_,"axG",@progbits,_ZNSt5dequeISt4pairIiNSt7__cxx1112basic_stringIcSt11char_traitsIcESaIcEEEESaIS7_EE15_M_destroy_dataESt15_Deque_iteratorIS7_RS7_PS7_ESD_RKS8_,comdat
	.align	2
	.weak	_ZNSt5dequeISt4pairIiNSt7__cxx1112basic_stringIcSt11char_traitsIcESaIcEEEESaIS7_EE15_M_destroy_dataESt15_Deque_iteratorIS7_RS7_PS7_ESD_RKS8_
	.type	_ZNSt5dequeISt4pairIiNSt7__cxx1112basic_stringIcSt11char_traitsIcESaIcEEEESaIS7_EE15_M_destroy_dataESt15_Deque_iteratorIS7_RS7_PS7_ESD_RKS8_, %function
_ZNSt5dequeISt4pairIiNSt7__cxx1112basic_stringIcSt11char_traitsIcESaIcEEEESaIS7_EE15_M_destroy_dataESt15_Deque_iteratorIS7_RS7_PS7_ESD_RKS8_:
.LFB10842:
	.cfi_startproc
	stp	x29, x30, [sp, -112]!
	.cfi_def_cfa_offset 112
	.cfi_offset 29, -112
	.cfi_offset 30, -104
	mov	x29, sp
	str	x0, [sp, 40]
	str	x1, [sp, 32]
	str	x2, [sp, 24]
	str	x3, [sp, 16]
	add	x0, sp, 48
	ldr	x1, [sp, 32]
	bl	_ZNSt15_Deque_iteratorISt4pairIiNSt7__cxx1112basic_stringIcSt11char_traitsIcESaIcEEEERS7_PS7_EC1ERKSA_
	add	x0, sp, 80
	ldr	x1, [sp, 24]
	bl	_ZNSt15_Deque_iteratorISt4pairIiNSt7__cxx1112basic_stringIcSt11char_traitsIcESaIcEEEERS7_PS7_EC1ERKSA_
	add	x1, sp, 80
	add	x0, sp, 48
	mov	x2, x1
	mov	x1, x0
	ldr	x0, [sp, 40]
	bl	_ZNSt5dequeISt4pairIiNSt7__cxx1112basic_stringIcSt11char_traitsIcESaIcEEEESaIS7_EE19_M_destroy_data_auxESt15_Deque_iteratorIS7_RS7_PS7_ESD_
	nop
	ldp	x29, x30, [sp], 112
	.cfi_restore 30
	.cfi_restore 29
	.cfi_def_cfa_offset 0
	ret
	.cfi_endproc
.LFE10842:
	.size	_ZNSt5dequeISt4pairIiNSt7__cxx1112basic_stringIcSt11char_traitsIcESaIcEEEESaIS7_EE15_M_destroy_dataESt15_Deque_iteratorIS7_RS7_PS7_ESD_RKS8_, .-_ZNSt5dequeISt4pairIiNSt7__cxx1112basic_stringIcSt11char_traitsIcESaIcEEEESaIS7_EE15_M_destroy_dataESt15_Deque_iteratorIS7_RS7_PS7_ESD_RKS8_
	.section	.text._ZNSt11_Deque_baseIiSaIiEE11_Deque_implD2Ev,"axG",@progbits,_ZNSt11_Deque_baseIiSaIiEE11_Deque_implD5Ev,comdat
	.align	2
	.weak	_ZNSt11_Deque_baseIiSaIiEE11_Deque_implD2Ev
	.type	_ZNSt11_Deque_baseIiSaIiEE11_Deque_implD2Ev, %function
_ZNSt11_Deque_baseIiSaIiEE11_Deque_implD2Ev:
.LFB10845:
	.cfi_startproc
	stp	x29, x30, [sp, -32]!
	.cfi_def_cfa_offset 32
	.cfi_offset 29, -32
	.cfi_offset 30, -24
	mov	x29, sp
	str	x0, [sp, 24]
	ldr	x0, [sp, 24]
	bl	_ZNSaIiED2Ev
	nop
	ldp	x29, x30, [sp], 32
	.cfi_restore 30
	.cfi_restore 29
	.cfi_def_cfa_offset 0
	ret
	.cfi_endproc
.LFE10845:
	.size	_ZNSt11_Deque_baseIiSaIiEE11_Deque_implD2Ev, .-_ZNSt11_Deque_baseIiSaIiEE11_Deque_implD2Ev
	.weak	_ZNSt11_Deque_baseIiSaIiEE11_Deque_implD1Ev
	.set	_ZNSt11_Deque_baseIiSaIiEE11_Deque_implD1Ev,_ZNSt11_Deque_baseIiSaIiEE11_Deque_implD2Ev
	.section	.text._ZNSt11_Deque_baseIiSaIiEEC2Ev,"axG",@progbits,_ZNSt11_Deque_baseIiSaIiEEC5Ev,comdat
	.align	2
	.weak	_ZNSt11_Deque_baseIiSaIiEEC2Ev
	.type	_ZNSt11_Deque_baseIiSaIiEEC2Ev, %function
_ZNSt11_Deque_baseIiSaIiEEC2Ev:
.LFB10847:
	.cfi_startproc
	.cfi_personality 0x9b,DW.ref.__gxx_personality_v0
	.cfi_lsda 0x1b,.LLSDA10847
	stp	x29, x30, [sp, -48]!
	.cfi_def_cfa_offset 48
	.cfi_offset 29, -48
	.cfi_offset 30, -40
	mov	x29, sp
	str	x19, [sp, 16]
	.cfi_offset 19, -32
	str	x0, [sp, 40]
	ldr	x0, [sp, 40]
	bl	_ZNSt11_Deque_baseIiSaIiEE11_Deque_implC1Ev
	mov	x1, 0
	ldr	x0, [sp, 40]
.LEHB10:
	bl	_ZNSt11_Deque_baseIiSaIiEE17_M_initialize_mapEm
.LEHE10:
	b	.L75
.L74:
	mov	x19, x0
	ldr	x0, [sp, 40]
	bl	_ZNSt11_Deque_baseIiSaIiEE11_Deque_implD1Ev
	mov	x0, x19
.LEHB11:
	bl	_Unwind_Resume
.LEHE11:
.L75:
	ldr	x19, [sp, 16]
	ldp	x29, x30, [sp], 48
	.cfi_restore 30
	.cfi_restore 29
	.cfi_restore 19
	.cfi_def_cfa_offset 0
	ret
	.cfi_endproc
.LFE10847:
	.section	.gcc_except_table
.LLSDA10847:
	.byte	0xff
	.byte	0xff
	.byte	0x1
	.uleb128 .LLSDACSE10847-.LLSDACSB10847
.LLSDACSB10847:
	.uleb128 .LEHB10-.LFB10847
	.uleb128 .LEHE10-.LEHB10
	.uleb128 .L74-.LFB10847
	.uleb128 0
	.uleb128 .LEHB11-.LFB10847
	.uleb128 .LEHE11-.LEHB11
	.uleb128 0
	.uleb128 0
.LLSDACSE10847:
	.section	.text._ZNSt11_Deque_baseIiSaIiEEC2Ev,"axG",@progbits,_ZNSt11_Deque_baseIiSaIiEEC5Ev,comdat
	.size	_ZNSt11_Deque_baseIiSaIiEEC2Ev, .-_ZNSt11_Deque_baseIiSaIiEEC2Ev
	.weak	_ZNSt11_Deque_baseIiSaIiEEC1Ev
	.set	_ZNSt11_Deque_baseIiSaIiEEC1Ev,_ZNSt11_Deque_baseIiSaIiEEC2Ev
	.section	.text._ZNSt11_Deque_baseIiSaIiEED2Ev,"axG",@progbits,_ZNSt11_Deque_baseIiSaIiEED5Ev,comdat
	.align	2
	.weak	_ZNSt11_Deque_baseIiSaIiEED2Ev
	.type	_ZNSt11_Deque_baseIiSaIiEED2Ev, %function
_ZNSt11_Deque_baseIiSaIiEED2Ev:
.LFB10850:
	.cfi_startproc
	stp	x29, x30, [sp, -32]!
	.cfi_def_cfa_offset 32
	.cfi_offset 29, -32
	.cfi_offset 30, -24
	mov	x29, sp
	str	x0, [sp, 24]
	ldr	x0, [sp, 24]
	ldr	x0, [x0]
	cmp	x0, 0
	beq	.L77
	ldr	x0, [sp, 24]
	ldr	x1, [x0, 40]
	ldr	x0, [sp, 24]
	ldr	x0, [x0, 72]
	add	x0, x0, 8
	mov	x2, x0
	ldr	x0, [sp, 24]
	bl	_ZNSt11_Deque_baseIiSaIiEE16_M_destroy_nodesEPPiS3_
	ldr	x0, [sp, 24]
	ldr	x1, [x0]
	ldr	x0, [sp, 24]
	ldr	x0, [x0, 8]
	mov	x2, x0
	ldr	x0, [sp, 24]
	bl	_ZNSt11_Deque_baseIiSaIiEE17_M_deallocate_mapEPPim
.L77:
	ldr	x0, [sp, 24]
	bl	_ZNSt11_Deque_baseIiSaIiEE11_Deque_implD1Ev
	nop
	ldp	x29, x30, [sp], 32
	.cfi_restore 30
	.cfi_restore 29
	.cfi_def_cfa_offset 0
	ret
	.cfi_endproc
.LFE10850:
	.size	_ZNSt11_Deque_baseIiSaIiEED2Ev, .-_ZNSt11_Deque_baseIiSaIiEED2Ev
	.weak	_ZNSt11_Deque_baseIiSaIiEED1Ev
	.set	_ZNSt11_Deque_baseIiSaIiEED1Ev,_ZNSt11_Deque_baseIiSaIiEED2Ev
	.section	.text._ZNSt5dequeIiSaIiEE5beginEv,"axG",@progbits,_ZNSt5dequeIiSaIiEE5beginEv,comdat
	.align	2
	.weak	_ZNSt5dequeIiSaIiEE5beginEv
	.type	_ZNSt5dequeIiSaIiEE5beginEv, %function
_ZNSt5dequeIiSaIiEE5beginEv:
.LFB10852:
	.cfi_startproc
	stp	x29, x30, [sp, -48]!
	.cfi_def_cfa_offset 48
	.cfi_offset 29, -48
	.cfi_offset 30, -40
	mov	x29, sp
	str	x19, [sp, 16]
	.cfi_offset 19, -32
	mov	x19, x8
	str	x0, [sp, 40]
	ldr	x0, [sp, 40]
	add	x0, x0, 16
	mov	x1, x0
	mov	x0, x19
	bl	_ZNSt15_Deque_iteratorIiRiPiEC1ERKS2_
	mov	x0, x19
	ldr	x19, [sp, 16]
	ldp	x29, x30, [sp], 48
	.cfi_restore 30
	.cfi_restore 29
	.cfi_restore 19
	.cfi_def_cfa_offset 0
	ret
	.cfi_endproc
.LFE10852:
	.size	_ZNSt5dequeIiSaIiEE5beginEv, .-_ZNSt5dequeIiSaIiEE5beginEv
	.section	.text._ZNSt5dequeIiSaIiEE3endEv,"axG",@progbits,_ZNSt5dequeIiSaIiEE3endEv,comdat
	.align	2
	.weak	_ZNSt5dequeIiSaIiEE3endEv
	.type	_ZNSt5dequeIiSaIiEE3endEv, %function
_ZNSt5dequeIiSaIiEE3endEv:
.LFB10853:
	.cfi_startproc
	stp	x29, x30, [sp, -48]!
	.cfi_def_cfa_offset 48
	.cfi_offset 29, -48
	.cfi_offset 30, -40
	mov	x29, sp
	str	x19, [sp, 16]
	.cfi_offset 19, -32
	mov	x19, x8
	str	x0, [sp, 40]
	ldr	x0, [sp, 40]
	add	x0, x0, 48
	mov	x1, x0
	mov	x0, x19
	bl	_ZNSt15_Deque_iteratorIiRiPiEC1ERKS2_
	mov	x0, x19
	ldr	x19, [sp, 16]
	ldp	x29, x30, [sp], 48
	.cfi_restore 30
	.cfi_restore 29
	.cfi_restore 19
	.cfi_def_cfa_offset 0
	ret
	.cfi_endproc
.LFE10853:
	.size	_ZNSt5dequeIiSaIiEE3endEv, .-_ZNSt5dequeIiSaIiEE3endEv
	.section	.text._ZNSt11_Deque_baseIiSaIiEE19_M_get_Tp_allocatorEv,"axG",@progbits,_ZNSt11_Deque_baseIiSaIiEE19_M_get_Tp_allocatorEv,comdat
	.align	2
	.weak	_ZNSt11_Deque_baseIiSaIiEE19_M_get_Tp_allocatorEv
	.type	_ZNSt11_Deque_baseIiSaIiEE19_M_get_Tp_allocatorEv, %function
_ZNSt11_Deque_baseIiSaIiEE19_M_get_Tp_allocatorEv:
.LFB10854:
	.cfi_startproc
	sub	sp, sp, #16
	.cfi_def_cfa_offset 16
	str	x0, [sp, 8]
	ldr	x0, [sp, 8]
	add	sp, sp, 16
	.cfi_def_cfa_offset 0
	ret
	.cfi_endproc
.LFE10854:
	.size	_ZNSt11_Deque_baseIiSaIiEE19_M_get_Tp_allocatorEv, .-_ZNSt11_Deque_baseIiSaIiEE19_M_get_Tp_allocatorEv
	.section	.text._ZNSt5dequeIiSaIiEE15_M_destroy_dataESt15_Deque_iteratorIiRiPiES5_RKS0_,"axG",@progbits,_ZNSt5dequeIiSaIiEE15_M_destroy_dataESt15_Deque_iteratorIiRiPiES5_RKS0_,comdat
	.align	2
	.weak	_ZNSt5dequeIiSaIiEE15_M_destroy_dataESt15_Deque_iteratorIiRiPiES5_RKS0_
	.type	_ZNSt5dequeIiSaIiEE15_M_destroy_dataESt15_Deque_iteratorIiRiPiES5_RKS0_, %function
_ZNSt5dequeIiSaIiEE15_M_destroy_dataESt15_Deque_iteratorIiRiPiES5_RKS0_:
.LFB10855:
	.cfi_startproc
	sub	sp, sp, #96
	.cfi_def_cfa_offset 96
	str	x0, [sp, 24]
	str	x1, [sp, 16]
	str	x2, [sp, 8]
	str	x3, [sp]
	nop
	add	sp, sp, 96
	.cfi_def_cfa_offset 0
	ret
	.cfi_endproc
.LFE10855:
	.size	_ZNSt5dequeIiSaIiEE15_M_destroy_dataESt15_Deque_iteratorIiRiPiES5_RKS0_, .-_ZNSt5dequeIiSaIiEE15_M_destroy_dataESt15_Deque_iteratorIiRiPiES5_RKS0_
	.section	.text._ZSt7forwardIRiEOT_RNSt16remove_referenceIS1_E4typeE,"axG",@progbits,_ZSt7forwardIRiEOT_RNSt16remove_referenceIS1_E4typeE,comdat
	.align	2
	.weak	_ZSt7forwardIRiEOT_RNSt16remove_referenceIS1_E4typeE
	.type	_ZSt7forwardIRiEOT_RNSt16remove_referenceIS1_E4typeE, %function
_ZSt7forwardIRiEOT_RNSt16remove_referenceIS1_E4typeE:
.LFB10856:
	.cfi_startproc
	sub	sp, sp, #16
	.cfi_def_cfa_offset 16
	str	x0, [sp, 8]
	ldr	x0, [sp, 8]
	add	sp, sp, 16
	.cfi_def_cfa_offset 0
	ret
	.cfi_endproc
.LFE10856:
	.size	_ZSt7forwardIRiEOT_RNSt16remove_referenceIS1_E4typeE, .-_ZSt7forwardIRiEOT_RNSt16remove_referenceIS1_E4typeE
	.section	.text._ZSt7forwardIRNSt7__cxx1112basic_stringIcSt11char_traitsIcESaIcEEEEOT_RNSt16remove_referenceIS7_E4typeE,"axG",@progbits,_ZSt7forwardIRNSt7__cxx1112basic_stringIcSt11char_traitsIcESaIcEEEEOT_RNSt16remove_referenceIS7_E4typeE,comdat
	.align	2
	.weak	_ZSt7forwardIRNSt7__cxx1112basic_stringIcSt11char_traitsIcESaIcEEEEOT_RNSt16remove_referenceIS7_E4typeE
	.type	_ZSt7forwardIRNSt7__cxx1112basic_stringIcSt11char_traitsIcESaIcEEEEOT_RNSt16remove_referenceIS7_E4typeE, %function
_ZSt7forwardIRNSt7__cxx1112basic_stringIcSt11char_traitsIcESaIcEEEEOT_RNSt16remove_referenceIS7_E4typeE:
.LFB10857:
	.cfi_startproc
	sub	sp, sp, #16
	.cfi_def_cfa_offset 16
	str	x0, [sp, 8]
	ldr	x0, [sp, 8]
	add	sp, sp, 16
	.cfi_def_cfa_offset 0
	ret
	.cfi_endproc
.LFE10857:
	.size	_ZSt7forwardIRNSt7__cxx1112basic_stringIcSt11char_traitsIcESaIcEEEEOT_RNSt16remove_referenceIS7_E4typeE, .-_ZSt7forwardIRNSt7__cxx1112basic_stringIcSt11char_traitsIcESaIcEEEEOT_RNSt16remove_referenceIS7_E4typeE
	.section	.text._ZSt4moveIRSt4pairIiNSt7__cxx1112basic_stringIcSt11char_traitsIcESaIcEEEEEONSt16remove_referenceIT_E4typeEOSA_,"axG",@progbits,_ZSt4moveIRSt4pairIiNSt7__cxx1112basic_stringIcSt11char_traitsIcESaIcEEEEEONSt16remove_referenceIT_E4typeEOSA_,comdat
	.align	2
	.weak	_ZSt4moveIRSt4pairIiNSt7__cxx1112basic_stringIcSt11char_traitsIcESaIcEEEEEONSt16remove_referenceIT_E4typeEOSA_
	.type	_ZSt4moveIRSt4pairIiNSt7__cxx1112basic_stringIcSt11char_traitsIcESaIcEEEEEONSt16remove_referenceIT_E4typeEOSA_, %function
_ZSt4moveIRSt4pairIiNSt7__cxx1112basic_stringIcSt11char_traitsIcESaIcEEEEEONSt16remove_referenceIT_E4typeEOSA_:
.LFB10858:
	.cfi_startproc
	sub	sp, sp, #16
	.cfi_def_cfa_offset 16
	str	x0, [sp, 8]
	ldr	x0, [sp, 8]
	add	sp, sp, 16
	.cfi_def_cfa_offset 0
	ret
	.cfi_endproc
.LFE10858:
	.size	_ZSt4moveIRSt4pairIiNSt7__cxx1112basic_stringIcSt11char_traitsIcESaIcEEEEEONSt16remove_referenceIT_E4typeEOSA_, .-_ZSt4moveIRSt4pairIiNSt7__cxx1112basic_stringIcSt11char_traitsIcESaIcEEEEEONSt16remove_referenceIT_E4typeEOSA_
	.section	.text._ZNSt5dequeISt4pairIiNSt7__cxx1112basic_stringIcSt11char_traitsIcESaIcEEEESaIS7_EE9push_backEOS7_,"axG",@progbits,_ZNSt5dequeISt4pairIiNSt7__cxx1112basic_stringIcSt11char_traitsIcESaIcEEEESaIS7_EE9push_backEOS7_,comdat
	.align	2
	.weak	_ZNSt5dequeISt4pairIiNSt7__cxx1112basic_stringIcSt11char_traitsIcESaIcEEEESaIS7_EE9push_backEOS7_
	.type	_ZNSt5dequeISt4pairIiNSt7__cxx1112basic_stringIcSt11char_traitsIcESaIcEEEESaIS7_EE9push_backEOS7_, %function
_ZNSt5dequeISt4pairIiNSt7__cxx1112basic_stringIcSt11char_traitsIcESaIcEEEESaIS7_EE9push_backEOS7_:
.LFB10859:
	.cfi_startproc
	stp	x29, x30, [sp, -32]!
	.cfi_def_cfa_offset 32
	.cfi_offset 29, -32
	.cfi_offset 30, -24
	mov	x29, sp
	str	x0, [sp, 24]
	str	x1, [sp, 16]
	ldr	x0, [sp, 16]
	bl	_ZSt4moveIRSt4pairIiNSt7__cxx1112basic_stringIcSt11char_traitsIcESaIcEEEEEONSt16remove_referenceIT_E4typeEOSA_
	mov	x1, x0
	ldr	x0, [sp, 24]
	bl	_ZNSt5dequeISt4pairIiNSt7__cxx1112basic_stringIcSt11char_traitsIcESaIcEEEESaIS7_EE12emplace_backIJS7_EEERS7_DpOT_
	nop
	ldp	x29, x30, [sp], 32
	.cfi_restore 30
	.cfi_restore 29
	.cfi_def_cfa_offset 0
	ret
	.cfi_endproc
.LFE10859:
	.size	_ZNSt5dequeISt4pairIiNSt7__cxx1112basic_stringIcSt11char_traitsIcESaIcEEEESaIS7_EE9push_backEOS7_, .-_ZNSt5dequeISt4pairIiNSt7__cxx1112basic_stringIcSt11char_traitsIcESaIcEEEESaIS7_EE9push_backEOS7_
	.section	.text._ZNKSt5dequeIiSaIiEE5emptyEv,"axG",@progbits,_ZNKSt5dequeIiSaIiEE5emptyEv,comdat
	.align	2
	.weak	_ZNKSt5dequeIiSaIiEE5emptyEv
	.type	_ZNKSt5dequeIiSaIiEE5emptyEv, %function
_ZNKSt5dequeIiSaIiEE5emptyEv:
.LFB10860:
	.cfi_startproc
	stp	x29, x30, [sp, -32]!
	.cfi_def_cfa_offset 32
	.cfi_offset 29, -32
	.cfi_offset 30, -24
	mov	x29, sp
	str	x0, [sp, 24]
	ldr	x0, [sp, 24]
	add	x2, x0, 48
	ldr	x0, [sp, 24]
	add	x0, x0, 16
	mov	x1, x0
	mov	x0, x2
	bl	_ZSteqRKSt15_Deque_iteratorIiRiPiES4_
	and	w0, w0, 255
	ldp	x29, x30, [sp], 32
	.cfi_restore 30
	.cfi_restore 29
	.cfi_def_cfa_offset 0
	ret
	.cfi_endproc
.LFE10860:
	.size	_ZNKSt5dequeIiSaIiEE5emptyEv, .-_ZNKSt5dequeIiSaIiEE5emptyEv
	.section	.text._ZNSt5dequeIiSaIiEE4backEv,"axG",@progbits,_ZNSt5dequeIiSaIiEE4backEv,comdat
	.align	2
	.weak	_ZNSt5dequeIiSaIiEE4backEv
	.type	_ZNSt5dequeIiSaIiEE4backEv, %function
_ZNSt5dequeIiSaIiEE4backEv:
.LFB10861:
	.cfi_startproc
	stp	x29, x30, [sp, -64]!
	.cfi_def_cfa_offset 64
	.cfi_offset 29, -64
	.cfi_offset 30, -56
	mov	x29, sp
	str	x0, [sp, 24]
	add	x0, sp, 32
	mov	x8, x0
	ldr	x0, [sp, 24]
	bl	_ZNSt5dequeIiSaIiEE3endEv
	add	x0, sp, 32
	bl	_ZNSt15_Deque_iteratorIiRiPiEmmEv
	add	x0, sp, 32
	bl	_ZNKSt15_Deque_iteratorIiRiPiEdeEv
	ldp	x29, x30, [sp], 64
	.cfi_restore 30
	.cfi_restore 29
	.cfi_def_cfa_offset 0
	ret
	.cfi_endproc
.LFE10861:
	.size	_ZNSt5dequeIiSaIiEE4backEv, .-_ZNSt5dequeIiSaIiEE4backEv
	.section	.text._ZNSt5dequeIiSaIiEE9push_backERKi,"axG",@progbits,_ZNSt5dequeIiSaIiEE9push_backERKi,comdat
	.align	2
	.weak	_ZNSt5dequeIiSaIiEE9push_backERKi
	.type	_ZNSt5dequeIiSaIiEE9push_backERKi, %function
_ZNSt5dequeIiSaIiEE9push_backERKi:
.LFB10862:
	.cfi_startproc
	stp	x29, x30, [sp, -32]!
	.cfi_def_cfa_offset 32
	.cfi_offset 29, -32
	.cfi_offset 30, -24
	mov	x29, sp
	str	x0, [sp, 24]
	str	x1, [sp, 16]
	ldr	x0, [sp, 24]
	ldr	x1, [x0, 48]
	ldr	x0, [sp, 24]
	ldr	x0, [x0, 64]
	sub	x0, x0, #4
	cmp	x1, x0
	beq	.L97
	ldr	x3, [sp, 24]
	ldr	x0, [sp, 24]
	ldr	x0, [x0, 48]
	ldr	x2, [sp, 16]
	mov	x1, x0
	mov	x0, x3
	bl	_ZNSt16allocator_traitsISaIiEE9constructIiJRKiEEEvRS0_PT_DpOT0_
	ldr	x0, [sp, 24]
	ldr	x0, [x0, 48]
	add	x1, x0, 4
	ldr	x0, [sp, 24]
	str	x1, [x0, 48]
	b	.L99
.L97:
	ldr	x1, [sp, 16]
	ldr	x0, [sp, 24]
	bl	_ZNSt5dequeIiSaIiEE16_M_push_back_auxIJRKiEEEvDpOT_
.L99:
	nop
	ldp	x29, x30, [sp], 32
	.cfi_restore 30
	.cfi_restore 29
	.cfi_def_cfa_offset 0
	ret
	.cfi_endproc
.LFE10862:
	.size	_ZNSt5dequeIiSaIiEE9push_backERKi, .-_ZNSt5dequeIiSaIiEE9push_backERKi
	.section	.text._ZNSt5dequeISt4pairIiNSt7__cxx1112basic_stringIcSt11char_traitsIcESaIcEEEESaIS7_EE4backEv,"axG",@progbits,_ZNSt5dequeISt4pairIiNSt7__cxx1112basic_stringIcSt11char_traitsIcESaIcEEEESaIS7_EE4backEv,comdat
	.align	2
	.weak	_ZNSt5dequeISt4pairIiNSt7__cxx1112basic_stringIcSt11char_traitsIcESaIcEEEESaIS7_EE4backEv
	.type	_ZNSt5dequeISt4pairIiNSt7__cxx1112basic_stringIcSt11char_traitsIcESaIcEEEESaIS7_EE4backEv, %function
_ZNSt5dequeISt4pairIiNSt7__cxx1112basic_stringIcSt11char_traitsIcESaIcEEEESaIS7_EE4backEv:
.LFB10863:
	.cfi_startproc
	stp	x29, x30, [sp, -64]!
	.cfi_def_cfa_offset 64
	.cfi_offset 29, -64
	.cfi_offset 30, -56
	mov	x29, sp
	str	x0, [sp, 24]
	add	x0, sp, 32
	mov	x8, x0
	ldr	x0, [sp, 24]
	bl	_ZNSt5dequeISt4pairIiNSt7__cxx1112basic_stringIcSt11char_traitsIcESaIcEEEESaIS7_EE3endEv
	add	x0, sp, 32
	bl	_ZNSt15_Deque_iteratorISt4pairIiNSt7__cxx1112basic_stringIcSt11char_traitsIcESaIcEEEERS7_PS7_EmmEv
	add	x0, sp, 32
	bl	_ZNKSt15_Deque_iteratorISt4pairIiNSt7__cxx1112basic_stringIcSt11char_traitsIcESaIcEEEERS7_PS7_EdeEv
	ldp	x29, x30, [sp], 64
	.cfi_restore 30
	.cfi_restore 29
	.cfi_def_cfa_offset 0
	ret
	.cfi_endproc
.LFE10863:
	.size	_ZNSt5dequeISt4pairIiNSt7__cxx1112basic_stringIcSt11char_traitsIcESaIcEEEESaIS7_EE4backEv, .-_ZNSt5dequeISt4pairIiNSt7__cxx1112basic_stringIcSt11char_traitsIcESaIcEEEESaIS7_EE4backEv
	.section	.text._ZNSt5dequeISt4pairIiNSt7__cxx1112basic_stringIcSt11char_traitsIcESaIcEEEESaIS7_EE8pop_backEv,"axG",@progbits,_ZNSt5dequeISt4pairIiNSt7__cxx1112basic_stringIcSt11char_traitsIcESaIcEEEESaIS7_EE8pop_backEv,comdat
	.align	2
	.weak	_ZNSt5dequeISt4pairIiNSt7__cxx1112basic_stringIcSt11char_traitsIcESaIcEEEESaIS7_EE8pop_backEv
	.type	_ZNSt5dequeISt4pairIiNSt7__cxx1112basic_stringIcSt11char_traitsIcESaIcEEEESaIS7_EE8pop_backEv, %function
_ZNSt5dequeISt4pairIiNSt7__cxx1112basic_stringIcSt11char_traitsIcESaIcEEEESaIS7_EE8pop_backEv:
.LFB10864:
	.cfi_startproc
	stp	x29, x30, [sp, -32]!
	.cfi_def_cfa_offset 32
	.cfi_offset 29, -32
	.cfi_offset 30, -24
	mov	x29, sp
	str	x0, [sp, 24]
	ldr	x0, [sp, 24]
	ldr	x1, [x0, 48]
	ldr	x0, [sp, 24]
	ldr	x0, [x0, 56]
	cmp	x1, x0
	beq	.L103
	ldr	x0, [sp, 24]
	ldr	x0, [x0, 48]
	sub	x1, x0, #40
	ldr	x0, [sp, 24]
	str	x1, [x0, 48]
	ldr	x0, [sp, 24]
	bl	_ZNSt11_Deque_baseISt4pairIiNSt7__cxx1112basic_stringIcSt11char_traitsIcESaIcEEEESaIS7_EE19_M_get_Tp_allocatorEv
	mov	x2, x0
	ldr	x0, [sp, 24]
	ldr	x0, [x0, 48]
	mov	x1, x0
	mov	x0, x2
	bl	_ZNSt16allocator_traitsISaISt4pairIiNSt7__cxx1112basic_stringIcSt11char_traitsIcESaIcEEEEEE7destroyIS7_EEvRS8_PT_
	b	.L105
.L103:
	ldr	x0, [sp, 24]
	bl	_ZNSt5dequeISt4pairIiNSt7__cxx1112basic_stringIcSt11char_traitsIcESaIcEEEESaIS7_EE15_M_pop_back_auxEv
.L105:
	nop
	ldp	x29, x30, [sp], 32
	.cfi_restore 30
	.cfi_restore 29
	.cfi_def_cfa_offset 0
	ret
	.cfi_endproc
.LFE10864:
	.size	_ZNSt5dequeISt4pairIiNSt7__cxx1112basic_stringIcSt11char_traitsIcESaIcEEEESaIS7_EE8pop_backEv, .-_ZNSt5dequeISt4pairIiNSt7__cxx1112basic_stringIcSt11char_traitsIcESaIcEEEESaIS7_EE8pop_backEv
	.section	.text._ZNSt5dequeIiSaIiEE8pop_backEv,"axG",@progbits,_ZNSt5dequeIiSaIiEE8pop_backEv,comdat
	.align	2
	.weak	_ZNSt5dequeIiSaIiEE8pop_backEv
	.type	_ZNSt5dequeIiSaIiEE8pop_backEv, %function
_ZNSt5dequeIiSaIiEE8pop_backEv:
.LFB10869:
	.cfi_startproc
	stp	x29, x30, [sp, -32]!
	.cfi_def_cfa_offset 32
	.cfi_offset 29, -32
	.cfi_offset 30, -24
	mov	x29, sp
	str	x0, [sp, 24]
	ldr	x0, [sp, 24]
	ldr	x1, [x0, 48]
	ldr	x0, [sp, 24]
	ldr	x0, [x0, 56]
	cmp	x1, x0
	beq	.L107
	ldr	x0, [sp, 24]
	ldr	x0, [x0, 48]
	sub	x1, x0, #4
	ldr	x0, [sp, 24]
	str	x1, [x0, 48]
	ldr	x0, [sp, 24]
	bl	_ZNSt11_Deque_baseIiSaIiEE19_M_get_Tp_allocatorEv
	mov	x2, x0
	ldr	x0, [sp, 24]
	ldr	x0, [x0, 48]
	mov	x1, x0
	mov	x0, x2
	bl	_ZNSt16allocator_traitsISaIiEE7destroyIiEEvRS0_PT_
	b	.L109
.L107:
	ldr	x0, [sp, 24]
	bl	_ZNSt5dequeIiSaIiEE15_M_pop_back_auxEv
.L109:
	nop
	ldp	x29, x30, [sp], 32
	.cfi_restore 30
	.cfi_restore 29
	.cfi_def_cfa_offset 0
	ret
	.cfi_endproc
.LFE10869:
	.size	_ZNSt5dequeIiSaIiEE8pop_backEv, .-_ZNSt5dequeIiSaIiEE8pop_backEv
	.section	.text._ZNSt11_Deque_baseISt4pairIiNSt7__cxx1112basic_stringIcSt11char_traitsIcESaIcEEEESaIS7_EE11_Deque_implC2Ev,"axG",@progbits,_ZNSt11_Deque_baseISt4pairIiNSt7__cxx1112basic_stringIcSt11char_traitsIcESaIcEEEESaIS7_EE11_Deque_implC5Ev,comdat
	.align	2
	.weak	_ZNSt11_Deque_baseISt4pairIiNSt7__cxx1112basic_stringIcSt11char_traitsIcESaIcEEEESaIS7_EE11_Deque_implC2Ev
	.type	_ZNSt11_Deque_baseISt4pairIiNSt7__cxx1112basic_stringIcSt11char_traitsIcESaIcEEEESaIS7_EE11_Deque_implC2Ev, %function
_ZNSt11_Deque_baseISt4pairIiNSt7__cxx1112basic_stringIcSt11char_traitsIcESaIcEEEESaIS7_EE11_Deque_implC2Ev:
.LFB11067:
	.cfi_startproc
	stp	x29, x30, [sp, -32]!
	.cfi_def_cfa_offset 32
	.cfi_offset 29, -32
	.cfi_offset 30, -24
	mov	x29, sp
	str	x0, [sp, 24]
	ldr	x0, [sp, 24]
	bl	_ZNSaISt4pairIiNSt7__cxx1112basic_stringIcSt11char_traitsIcESaIcEEEEEC2Ev
	ldr	x0, [sp, 24]
	bl	_ZNSt11_Deque_baseISt4pairIiNSt7__cxx1112basic_stringIcSt11char_traitsIcESaIcEEEESaIS7_EE16_Deque_impl_dataC2Ev
	nop
	ldp	x29, x30, [sp], 32
	.cfi_restore 30
	.cfi_restore 29
	.cfi_def_cfa_offset 0
	ret
	.cfi_endproc
.LFE11067:
	.size	_ZNSt11_Deque_baseISt4pairIiNSt7__cxx1112basic_stringIcSt11char_traitsIcESaIcEEEESaIS7_EE11_Deque_implC2Ev, .-_ZNSt11_Deque_baseISt4pairIiNSt7__cxx1112basic_stringIcSt11char_traitsIcESaIcEEEESaIS7_EE11_Deque_implC2Ev
	.weak	_ZNSt11_Deque_baseISt4pairIiNSt7__cxx1112basic_stringIcSt11char_traitsIcESaIcEEEESaIS7_EE11_Deque_implC1Ev
	.set	_ZNSt11_Deque_baseISt4pairIiNSt7__cxx1112basic_stringIcSt11char_traitsIcESaIcEEEESaIS7_EE11_Deque_implC1Ev,_ZNSt11_Deque_baseISt4pairIiNSt7__cxx1112basic_stringIcSt11char_traitsIcESaIcEEEESaIS7_EE11_Deque_implC2Ev
	.section	.text._ZNSaISt4pairIiNSt7__cxx1112basic_stringIcSt11char_traitsIcESaIcEEEEED2Ev,"axG",@progbits,_ZNSaISt4pairIiNSt7__cxx1112basic_stringIcSt11char_traitsIcESaIcEEEEED5Ev,comdat
	.align	2
	.weak	_ZNSaISt4pairIiNSt7__cxx1112basic_stringIcSt11char_traitsIcESaIcEEEEED2Ev
	.type	_ZNSaISt4pairIiNSt7__cxx1112basic_stringIcSt11char_traitsIcESaIcEEEEED2Ev, %function
_ZNSaISt4pairIiNSt7__cxx1112basic_stringIcSt11char_traitsIcESaIcEEEEED2Ev:
.LFB11070:
	.cfi_startproc
	stp	x29, x30, [sp, -32]!
	.cfi_def_cfa_offset 32
	.cfi_offset 29, -32
	.cfi_offset 30, -24
	mov	x29, sp
	str	x0, [sp, 24]
	ldr	x0, [sp, 24]
	bl	_ZN9__gnu_cxx13new_allocatorISt4pairIiNSt7__cxx1112basic_stringIcSt11char_traitsIcESaIcEEEEED2Ev
	nop
	ldp	x29, x30, [sp], 32
	.cfi_restore 30
	.cfi_restore 29
	.cfi_def_cfa_offset 0
	ret
	.cfi_endproc
.LFE11070:
	.size	_ZNSaISt4pairIiNSt7__cxx1112basic_stringIcSt11char_traitsIcESaIcEEEEED2Ev, .-_ZNSaISt4pairIiNSt7__cxx1112basic_stringIcSt11char_traitsIcESaIcEEEEED2Ev
	.weak	_ZNSaISt4pairIiNSt7__cxx1112basic_stringIcSt11char_traitsIcESaIcEEEEED1Ev
	.set	_ZNSaISt4pairIiNSt7__cxx1112basic_stringIcSt11char_traitsIcESaIcEEEEED1Ev,_ZNSaISt4pairIiNSt7__cxx1112basic_stringIcSt11char_traitsIcESaIcEEEEED2Ev
	.section	.text._ZNSt11_Deque_baseISt4pairIiNSt7__cxx1112basic_stringIcSt11char_traitsIcESaIcEEEESaIS7_EE17_M_initialize_mapEm,"axG",@progbits,_ZNSt11_Deque_baseISt4pairIiNSt7__cxx1112basic_stringIcSt11char_traitsIcESaIcEEEESaIS7_EE17_M_initialize_mapEm,comdat
	.align	2
	.weak	_ZNSt11_Deque_baseISt4pairIiNSt7__cxx1112basic_stringIcSt11char_traitsIcESaIcEEEESaIS7_EE17_M_initialize_mapEm
	.type	_ZNSt11_Deque_baseISt4pairIiNSt7__cxx1112basic_stringIcSt11char_traitsIcESaIcEEEESaIS7_EE17_M_initialize_mapEm, %function
_ZNSt11_Deque_baseISt4pairIiNSt7__cxx1112basic_stringIcSt11char_traitsIcESaIcEEEESaIS7_EE17_M_initialize_mapEm:
.LFB11072:
	.cfi_startproc
	.cfi_personality 0x9b,DW.ref.__gxx_personality_v0
	.cfi_lsda 0x1b,.LLSDA11072
	stp	x29, x30, [sp, -96]!
	.cfi_def_cfa_offset 96
	.cfi_offset 29, -96
	.cfi_offset 30, -88
	mov	x29, sp
	str	x19, [sp, 16]
	.cfi_offset 19, -80
	str	x0, [sp, 40]
	str	x1, [sp, 32]
	mov	x0, 40
	bl	_ZSt16__deque_buf_sizem
	mov	x1, x0
	ldr	x0, [sp, 32]
	udiv	x0, x0, x1
	add	x0, x0, 1
	str	x0, [sp, 88]
	mov	x0, 8
	str	x0, [sp, 56]
	ldr	x0, [sp, 88]
	add	x0, x0, 2
	str	x0, [sp, 64]
	add	x1, sp, 64
	add	x0, sp, 56
	bl	_ZSt3maxImERKT_S2_S2_
	ldr	x1, [x0]
	ldr	x0, [sp, 40]
	str	x1, [x0, 8]
	ldr	x0, [sp, 40]
	ldr	x0, [x0, 8]
	mov	x1, x0
	ldr	x0, [sp, 40]
.LEHB12:
	bl	_ZNSt11_Deque_baseISt4pairIiNSt7__cxx1112basic_stringIcSt11char_traitsIcESaIcEEEESaIS7_EE15_M_allocate_mapEm
.LEHE12:
	mov	x1, x0
	ldr	x0, [sp, 40]
	str	x1, [x0]
	ldr	x0, [sp, 40]
	ldr	x1, [x0]
	ldr	x0, [sp, 40]
	ldr	x2, [x0, 8]
	ldr	x0, [sp, 88]
	sub	x0, x2, x0
	lsr	x0, x0, 1
	lsl	x0, x0, 3
	add	x0, x1, x0
	str	x0, [sp, 80]
	ldr	x0, [sp, 88]
	lsl	x0, x0, 3
	ldr	x1, [sp, 80]
	add	x0, x1, x0
	str	x0, [sp, 72]
	ldr	x2, [sp, 72]
	ldr	x1, [sp, 80]
	ldr	x0, [sp, 40]
.LEHB13:
	bl	_ZNSt11_Deque_baseISt4pairIiNSt7__cxx1112basic_stringIcSt11char_traitsIcESaIcEEEESaIS7_EE15_M_create_nodesEPPS7_SB_
.LEHE13:
	ldr	x0, [sp, 40]
	add	x0, x0, 16
	ldr	x1, [sp, 80]
	bl	_ZNSt15_Deque_iteratorISt4pairIiNSt7__cxx1112basic_stringIcSt11char_traitsIcESaIcEEEERS7_PS7_E11_M_set_nodeEPS9_
	ldr	x0, [sp, 40]
	add	x2, x0, 48
	ldr	x0, [sp, 72]
	sub	x0, x0, #8
	mov	x1, x0
	mov	x0, x2
	bl	_ZNSt15_Deque_iteratorISt4pairIiNSt7__cxx1112basic_stringIcSt11char_traitsIcESaIcEEEERS7_PS7_E11_M_set_nodeEPS9_
	ldr	x0, [sp, 40]
	ldr	x1, [x0, 24]
	ldr	x0, [sp, 40]
	str	x1, [x0, 16]
	ldr	x0, [sp, 40]
	ldr	x19, [x0, 56]
	mov	x0, 40
	bl	_ZSt16__deque_buf_sizem
	mov	x1, x0
	ldr	x0, [sp, 32]
	udiv	x2, x0, x1
	mul	x1, x2, x1
	sub	x1, x0, x1
	mov	x0, x1
	lsl	x0, x0, 2
	add	x0, x0, x1
	lsl	x0, x0, 3
	add	x1, x19, x0
	ldr	x0, [sp, 40]
	str	x1, [x0, 48]
	b	.L117
.L115:
	bl	__cxa_begin_catch
	ldr	x0, [sp, 40]
	ldr	x1, [x0]
	ldr	x0, [sp, 40]
	ldr	x0, [x0, 8]
	mov	x2, x0
	ldr	x0, [sp, 40]
	bl	_ZNSt11_Deque_baseISt4pairIiNSt7__cxx1112basic_stringIcSt11char_traitsIcESaIcEEEESaIS7_EE17_M_deallocate_mapEPPS7_m
	ldr	x0, [sp, 40]
	str	xzr, [x0]
	ldr	x0, [sp, 40]
	str	xzr, [x0, 8]
.LEHB14:
	bl	__cxa_rethrow
.LEHE14:
.L116:
	mov	x19, x0
	bl	__cxa_end_catch
	mov	x0, x19
.LEHB15:
	bl	_Unwind_Resume
.LEHE15:
.L117:
	ldr	x19, [sp, 16]
	ldp	x29, x30, [sp], 96
	.cfi_restore 30
	.cfi_restore 29
	.cfi_restore 19
	.cfi_def_cfa_offset 0
	ret
	.cfi_endproc
.LFE11072:
	.section	.gcc_except_table
	.align	2
.LLSDA11072:
	.byte	0xff
	.byte	0x9b
	.uleb128 .LLSDATT11072-.LLSDATTD11072
.LLSDATTD11072:
	.byte	0x1
	.uleb128 .LLSDACSE11072-.LLSDACSB11072
.LLSDACSB11072:
	.uleb128 .LEHB12-.LFB11072
	.uleb128 .LEHE12-.LEHB12
	.uleb128 0
	.uleb128 0
	.uleb128 .LEHB13-.LFB11072
	.uleb128 .LEHE13-.LEHB13
	.uleb128 .L115-.LFB11072
	.uleb128 0x1
	.uleb128 .LEHB14-.LFB11072
	.uleb128 .LEHE14-.LEHB14
	.uleb128 .L116-.LFB11072
	.uleb128 0
	.uleb128 .LEHB15-.LFB11072
	.uleb128 .LEHE15-.LEHB15
	.uleb128 0
	.uleb128 0
.LLSDACSE11072:
	.byte	0x1
	.byte	0
	.align	2
	.4byte	0

.LLSDATT11072:
	.section	.text._ZNSt11_Deque_baseISt4pairIiNSt7__cxx1112basic_stringIcSt11char_traitsIcESaIcEEEESaIS7_EE17_M_initialize_mapEm,"axG",@progbits,_ZNSt11_Deque_baseISt4pairIiNSt7__cxx1112basic_stringIcSt11char_traitsIcESaIcEEEESaIS7_EE17_M_initialize_mapEm,comdat
	.size	_ZNSt11_Deque_baseISt4pairIiNSt7__cxx1112basic_stringIcSt11char_traitsIcESaIcEEEESaIS7_EE17_M_initialize_mapEm, .-_ZNSt11_Deque_baseISt4pairIiNSt7__cxx1112basic_stringIcSt11char_traitsIcESaIcEEEESaIS7_EE17_M_initialize_mapEm
	.section	.text._ZNSt11_Deque_baseISt4pairIiNSt7__cxx1112basic_stringIcSt11char_traitsIcESaIcEEEESaIS7_EE16_M_destroy_nodesEPPS7_SB_,"axG",@progbits,_ZNSt11_Deque_baseISt4pairIiNSt7__cxx1112basic_stringIcSt11char_traitsIcESaIcEEEESaIS7_EE16_M_destroy_nodesEPPS7_SB_,comdat
	.align	2
	.weak	_ZNSt11_Deque_baseISt4pairIiNSt7__cxx1112basic_stringIcSt11char_traitsIcESaIcEEEESaIS7_EE16_M_destroy_nodesEPPS7_SB_
	.type	_ZNSt11_Deque_baseISt4pairIiNSt7__cxx1112basic_stringIcSt11char_traitsIcESaIcEEEESaIS7_EE16_M_destroy_nodesEPPS7_SB_, %function
_ZNSt11_Deque_baseISt4pairIiNSt7__cxx1112basic_stringIcSt11char_traitsIcESaIcEEEESaIS7_EE16_M_destroy_nodesEPPS7_SB_:
.LFB11073:
	.cfi_startproc
	stp	x29, x30, [sp, -64]!
	.cfi_def_cfa_offset 64
	.cfi_offset 29, -64
	.cfi_offset 30, -56
	mov	x29, sp
	str	x0, [sp, 40]
	str	x1, [sp, 32]
	str	x2, [sp, 24]
	ldr	x0, [sp, 32]
	str	x0, [sp, 56]
	b	.L119
.L120:
	ldr	x0, [sp, 56]
	ldr	x0, [x0]
	mov	x1, x0
	ldr	x0, [sp, 40]
	bl	_ZNSt11_Deque_baseISt4pairIiNSt7__cxx1112basic_stringIcSt11char_traitsIcESaIcEEEESaIS7_EE18_M_deallocate_nodeEPS7_
	ldr	x0, [sp, 56]
	add	x0, x0, 8
	str	x0, [sp, 56]
.L119:
	ldr	x1, [sp, 56]
	ldr	x0, [sp, 24]
	cmp	x1, x0
	bcc	.L120
	nop
	nop
	ldp	x29, x30, [sp], 64
	.cfi_restore 30
	.cfi_restore 29
	.cfi_def_cfa_offset 0
	ret
	.cfi_endproc
.LFE11073:
	.size	_ZNSt11_Deque_baseISt4pairIiNSt7__cxx1112basic_stringIcSt11char_traitsIcESaIcEEEESaIS7_EE16_M_destroy_nodesEPPS7_SB_, .-_ZNSt11_Deque_baseISt4pairIiNSt7__cxx1112basic_stringIcSt11char_traitsIcESaIcEEEESaIS7_EE16_M_destroy_nodesEPPS7_SB_
	.section	.text._ZNSt11_Deque_baseISt4pairIiNSt7__cxx1112basic_stringIcSt11char_traitsIcESaIcEEEESaIS7_EE17_M_deallocate_mapEPPS7_m,"axG",@progbits,_ZNSt11_Deque_baseISt4pairIiNSt7__cxx1112basic_stringIcSt11char_traitsIcESaIcEEEESaIS7_EE17_M_deallocate_mapEPPS7_m,comdat
	.align	2
	.weak	_ZNSt11_Deque_baseISt4pairIiNSt7__cxx1112basic_stringIcSt11char_traitsIcESaIcEEEESaIS7_EE17_M_deallocate_mapEPPS7_m
	.type	_ZNSt11_Deque_baseISt4pairIiNSt7__cxx1112basic_stringIcSt11char_traitsIcESaIcEEEESaIS7_EE17_M_deallocate_mapEPPS7_m, %function
_ZNSt11_Deque_baseISt4pairIiNSt7__cxx1112basic_stringIcSt11char_traitsIcESaIcEEEESaIS7_EE17_M_deallocate_mapEPPS7_m:
.LFB11074:
	.cfi_startproc
	.cfi_personality 0x9b,DW.ref.__gxx_personality_v0
	.cfi_lsda 0x1b,.LLSDA11074
	stp	x29, x30, [sp, -64]!
	.cfi_def_cfa_offset 64
	.cfi_offset 29, -64
	.cfi_offset 30, -56
	mov	x29, sp
	str	x0, [sp, 40]
	str	x1, [sp, 32]
	str	x2, [sp, 24]
	add	x0, sp, 56
	mov	x8, x0
	ldr	x0, [sp, 40]
	bl	_ZNKSt11_Deque_baseISt4pairIiNSt7__cxx1112basic_stringIcSt11char_traitsIcESaIcEEEESaIS7_EE20_M_get_map_allocatorEv
	add	x0, sp, 56
	ldr	x2, [sp, 24]
	ldr	x1, [sp, 32]
	bl	_ZNSt16allocator_traitsISaIPSt4pairIiNSt7__cxx1112basic_stringIcSt11char_traitsIcESaIcEEEEEE10deallocateERS9_PS8_m
	add	x0, sp, 56
	bl	_ZNSaIPSt4pairIiNSt7__cxx1112basic_stringIcSt11char_traitsIcESaIcEEEEED1Ev
	ldp	x29, x30, [sp], 64
	.cfi_restore 30
	.cfi_restore 29
	.cfi_def_cfa_offset 0
	ret
	.cfi_endproc
.LFE11074:
	.section	.gcc_except_table
.LLSDA11074:
	.byte	0xff
	.byte	0xff
	.byte	0x1
	.uleb128 .LLSDACSE11074-.LLSDACSB11074
.LLSDACSB11074:
.LLSDACSE11074:
	.section	.text._ZNSt11_Deque_baseISt4pairIiNSt7__cxx1112basic_stringIcSt11char_traitsIcESaIcEEEESaIS7_EE17_M_deallocate_mapEPPS7_m,"axG",@progbits,_ZNSt11_Deque_baseISt4pairIiNSt7__cxx1112basic_stringIcSt11char_traitsIcESaIcEEEESaIS7_EE17_M_deallocate_mapEPPS7_m,comdat
	.size	_ZNSt11_Deque_baseISt4pairIiNSt7__cxx1112basic_stringIcSt11char_traitsIcESaIcEEEESaIS7_EE17_M_deallocate_mapEPPS7_m, .-_ZNSt11_Deque_baseISt4pairIiNSt7__cxx1112basic_stringIcSt11char_traitsIcESaIcEEEESaIS7_EE17_M_deallocate_mapEPPS7_m
	.section	.text._ZNSt15_Deque_iteratorISt4pairIiNSt7__cxx1112basic_stringIcSt11char_traitsIcESaIcEEEERS7_PS7_EC2ERKSA_,"axG",@progbits,_ZNSt15_Deque_iteratorISt4pairIiNSt7__cxx1112basic_stringIcSt11char_traitsIcESaIcEEEERS7_PS7_EC5ERKSA_,comdat
	.align	2
	.weak	_ZNSt15_Deque_iteratorISt4pairIiNSt7__cxx1112basic_stringIcSt11char_traitsIcESaIcEEEERS7_PS7_EC2ERKSA_
	.type	_ZNSt15_Deque_iteratorISt4pairIiNSt7__cxx1112basic_stringIcSt11char_traitsIcESaIcEEEERS7_PS7_EC2ERKSA_, %function
_ZNSt15_Deque_iteratorISt4pairIiNSt7__cxx1112basic_stringIcSt11char_traitsIcESaIcEEEERS7_PS7_EC2ERKSA_:
.LFB11076:
	.cfi_startproc
	sub	sp, sp, #16
	.cfi_def_cfa_offset 16
	str	x0, [sp, 8]
	str	x1, [sp]
	ldr	x0, [sp]
	ldr	x1, [x0]
	ldr	x0, [sp, 8]
	str	x1, [x0]
	ldr	x0, [sp]
	ldr	x1, [x0, 8]
	ldr	x0, [sp, 8]
	str	x1, [x0, 8]
	ldr	x0, [sp]
	ldr	x1, [x0, 16]
	ldr	x0, [sp, 8]
	str	x1, [x0, 16]
	ldr	x0, [sp]
	ldr	x1, [x0, 24]
	ldr	x0, [sp, 8]
	str	x1, [x0, 24]
	nop
	add	sp, sp, 16
	.cfi_def_cfa_offset 0
	ret
	.cfi_endproc
.LFE11076:
	.size	_ZNSt15_Deque_iteratorISt4pairIiNSt7__cxx1112basic_stringIcSt11char_traitsIcESaIcEEEERS7_PS7_EC2ERKSA_, .-_ZNSt15_Deque_iteratorISt4pairIiNSt7__cxx1112basic_stringIcSt11char_traitsIcESaIcEEEERS7_PS7_EC2ERKSA_
	.weak	_ZNSt15_Deque_iteratorISt4pairIiNSt7__cxx1112basic_stringIcSt11char_traitsIcESaIcEEEERS7_PS7_EC1ERKSA_
	.set	_ZNSt15_Deque_iteratorISt4pairIiNSt7__cxx1112basic_stringIcSt11char_traitsIcESaIcEEEERS7_PS7_EC1ERKSA_,_ZNSt15_Deque_iteratorISt4pairIiNSt7__cxx1112basic_stringIcSt11char_traitsIcESaIcEEEERS7_PS7_EC2ERKSA_
	.section	.text._ZNSt5dequeISt4pairIiNSt7__cxx1112basic_stringIcSt11char_traitsIcESaIcEEEESaIS7_EE19_M_destroy_data_auxESt15_Deque_iteratorIS7_RS7_PS7_ESD_,"axG",@progbits,_ZNSt5dequeISt4pairIiNSt7__cxx1112basic_stringIcSt11char_traitsIcESaIcEEEESaIS7_EE19_M_destroy_data_auxESt15_Deque_iteratorIS7_RS7_PS7_ESD_,comdat
	.align	2
	.weak	_ZNSt5dequeISt4pairIiNSt7__cxx1112basic_stringIcSt11char_traitsIcESaIcEEEESaIS7_EE19_M_destroy_data_auxESt15_Deque_iteratorIS7_RS7_PS7_ESD_
	.type	_ZNSt5dequeISt4pairIiNSt7__cxx1112basic_stringIcSt11char_traitsIcESaIcEEEESaIS7_EE19_M_destroy_data_auxESt15_Deque_iteratorIS7_RS7_PS7_ESD_, %function
_ZNSt5dequeISt4pairIiNSt7__cxx1112basic_stringIcSt11char_traitsIcESaIcEEEESaIS7_EE19_M_destroy_data_auxESt15_Deque_iteratorIS7_RS7_PS7_ESD_:
.LFB11078:
	.cfi_startproc
	stp	x29, x30, [sp, -80]!
	.cfi_def_cfa_offset 80
	.cfi_offset 29, -80
	.cfi_offset 30, -72
	mov	x29, sp
	stp	x19, x20, [sp, 16]
	.cfi_offset 19, -64
	.cfi_offset 20, -56
	str	x0, [sp, 56]
	str	x1, [sp, 48]
	str	x2, [sp, 40]
	ldr	x0, [sp, 48]
	ldr	x0, [x0, 24]
	add	x0, x0, 8
	str	x0, [sp, 72]
	b	.L124
.L125:
	ldr	x0, [sp, 72]
	ldr	x20, [x0]
	ldr	x0, [sp, 72]
	ldr	x19, [x0]
	bl	_ZNSt5dequeISt4pairIiNSt7__cxx1112basic_stringIcSt11char_traitsIcESaIcEEEESaIS7_EE14_S_buffer_sizeEv
	mov	x1, x0
	mov	x0, x1
	lsl	x0, x0, 2
	add	x0, x0, x1
	lsl	x0, x0, 3
	add	x19, x19, x0
	ldr	x0, [sp, 56]
	bl	_ZNSt11_Deque_baseISt4pairIiNSt7__cxx1112basic_stringIcSt11char_traitsIcESaIcEEEESaIS7_EE19_M_get_Tp_allocatorEv
	mov	x2, x0
	mov	x1, x19
	mov	x0, x20
	bl	_ZSt8_DestroyIPSt4pairIiNSt7__cxx1112basic_stringIcSt11char_traitsIcESaIcEEEES7_EvT_S9_RSaIT0_E
	ldr	x0, [sp, 72]
	add	x0, x0, 8
	str	x0, [sp, 72]
.L124:
	ldr	x0, [sp, 40]
	ldr	x0, [x0, 24]
	ldr	x1, [sp, 72]
	cmp	x1, x0
	bcc	.L125
	ldr	x0, [sp, 48]
	ldr	x1, [x0, 24]
	ldr	x0, [sp, 40]
	ldr	x0, [x0, 24]
	cmp	x1, x0
	beq	.L126
	ldr	x0, [sp, 48]
	ldr	x19, [x0]
	ldr	x0, [sp, 48]
	ldr	x20, [x0, 16]
	ldr	x0, [sp, 56]
	bl	_ZNSt11_Deque_baseISt4pairIiNSt7__cxx1112basic_stringIcSt11char_traitsIcESaIcEEEESaIS7_EE19_M_get_Tp_allocatorEv
	mov	x2, x0
	mov	x1, x20
	mov	x0, x19
	bl	_ZSt8_DestroyIPSt4pairIiNSt7__cxx1112basic_stringIcSt11char_traitsIcESaIcEEEES7_EvT_S9_RSaIT0_E
	ldr	x0, [sp, 40]
	ldr	x19, [x0, 8]
	ldr	x0, [sp, 40]
	ldr	x20, [x0]
	ldr	x0, [sp, 56]
	bl	_ZNSt11_Deque_baseISt4pairIiNSt7__cxx1112basic_stringIcSt11char_traitsIcESaIcEEEESaIS7_EE19_M_get_Tp_allocatorEv
	mov	x2, x0
	mov	x1, x20
	mov	x0, x19
	bl	_ZSt8_DestroyIPSt4pairIiNSt7__cxx1112basic_stringIcSt11char_traitsIcESaIcEEEES7_EvT_S9_RSaIT0_E
	b	.L128
.L126:
	ldr	x0, [sp, 48]
	ldr	x19, [x0]
	ldr	x0, [sp, 40]
	ldr	x20, [x0]
	ldr	x0, [sp, 56]
	bl	_ZNSt11_Deque_baseISt4pairIiNSt7__cxx1112basic_stringIcSt11char_traitsIcESaIcEEEESaIS7_EE19_M_get_Tp_allocatorEv
	mov	x2, x0
	mov	x1, x20
	mov	x0, x19
	bl	_ZSt8_DestroyIPSt4pairIiNSt7__cxx1112basic_stringIcSt11char_traitsIcESaIcEEEES7_EvT_S9_RSaIT0_E
.L128:
	nop
	ldp	x19, x20, [sp, 16]
	ldp	x29, x30, [sp], 80
	.cfi_restore 30
	.cfi_restore 29
	.cfi_restore 19
	.cfi_restore 20
	.cfi_def_cfa_offset 0
	ret
	.cfi_endproc
.LFE11078:
	.size	_ZNSt5dequeISt4pairIiNSt7__cxx1112basic_stringIcSt11char_traitsIcESaIcEEEESaIS7_EE19_M_destroy_data_auxESt15_Deque_iteratorIS7_RS7_PS7_ESD_, .-_ZNSt5dequeISt4pairIiNSt7__cxx1112basic_stringIcSt11char_traitsIcESaIcEEEESaIS7_EE19_M_destroy_data_auxESt15_Deque_iteratorIS7_RS7_PS7_ESD_
	.section	.text._ZNSt11_Deque_baseIiSaIiEE11_Deque_implC2Ev,"axG",@progbits,_ZNSt11_Deque_baseIiSaIiEE11_Deque_implC5Ev,comdat
	.align	2
	.weak	_ZNSt11_Deque_baseIiSaIiEE11_Deque_implC2Ev
	.type	_ZNSt11_Deque_baseIiSaIiEE11_Deque_implC2Ev, %function
_ZNSt11_Deque_baseIiSaIiEE11_Deque_implC2Ev:
.LFB11080:
	.cfi_startproc
	stp	x29, x30, [sp, -32]!
	.cfi_def_cfa_offset 32
	.cfi_offset 29, -32
	.cfi_offset 30, -24
	mov	x29, sp
	str	x0, [sp, 24]
	ldr	x0, [sp, 24]
	bl	_ZNSaIiEC2Ev
	ldr	x0, [sp, 24]
	bl	_ZNSt11_Deque_baseIiSaIiEE16_Deque_impl_dataC2Ev
	nop
	ldp	x29, x30, [sp], 32
	.cfi_restore 30
	.cfi_restore 29
	.cfi_def_cfa_offset 0
	ret
	.cfi_endproc
.LFE11080:
	.size	_ZNSt11_Deque_baseIiSaIiEE11_Deque_implC2Ev, .-_ZNSt11_Deque_baseIiSaIiEE11_Deque_implC2Ev
	.weak	_ZNSt11_Deque_baseIiSaIiEE11_Deque_implC1Ev
	.set	_ZNSt11_Deque_baseIiSaIiEE11_Deque_implC1Ev,_ZNSt11_Deque_baseIiSaIiEE11_Deque_implC2Ev
	.section	.text._ZNSaIiED2Ev,"axG",@progbits,_ZNSaIiED5Ev,comdat
	.align	2
	.weak	_ZNSaIiED2Ev
	.type	_ZNSaIiED2Ev, %function
_ZNSaIiED2Ev:
.LFB11083:
	.cfi_startproc
	stp	x29, x30, [sp, -32]!
	.cfi_def_cfa_offset 32
	.cfi_offset 29, -32
	.cfi_offset 30, -24
	mov	x29, sp
	str	x0, [sp, 24]
	ldr	x0, [sp, 24]
	bl	_ZN9__gnu_cxx13new_allocatorIiED2Ev
	nop
	ldp	x29, x30, [sp], 32
	.cfi_restore 30
	.cfi_restore 29
	.cfi_def_cfa_offset 0
	ret
	.cfi_endproc
.LFE11083:
	.size	_ZNSaIiED2Ev, .-_ZNSaIiED2Ev
	.weak	_ZNSaIiED1Ev
	.set	_ZNSaIiED1Ev,_ZNSaIiED2Ev
	.section	.text._ZNSt11_Deque_baseIiSaIiEE17_M_initialize_mapEm,"axG",@progbits,_ZNSt11_Deque_baseIiSaIiEE17_M_initialize_mapEm,comdat
	.align	2
	.weak	_ZNSt11_Deque_baseIiSaIiEE17_M_initialize_mapEm
	.type	_ZNSt11_Deque_baseIiSaIiEE17_M_initialize_mapEm, %function
_ZNSt11_Deque_baseIiSaIiEE17_M_initialize_mapEm:
.LFB11085:
	.cfi_startproc
	.cfi_personality 0x9b,DW.ref.__gxx_personality_v0
	.cfi_lsda 0x1b,.LLSDA11085
	stp	x29, x30, [sp, -96]!
	.cfi_def_cfa_offset 96
	.cfi_offset 29, -96
	.cfi_offset 30, -88
	mov	x29, sp
	str	x19, [sp, 16]
	.cfi_offset 19, -80
	str	x0, [sp, 40]
	str	x1, [sp, 32]
	mov	x0, 4
	bl	_ZSt16__deque_buf_sizem
	mov	x1, x0
	ldr	x0, [sp, 32]
	udiv	x0, x0, x1
	add	x0, x0, 1
	str	x0, [sp, 88]
	mov	x0, 8
	str	x0, [sp, 56]
	ldr	x0, [sp, 88]
	add	x0, x0, 2
	str	x0, [sp, 64]
	add	x1, sp, 64
	add	x0, sp, 56
	bl	_ZSt3maxImERKT_S2_S2_
	ldr	x1, [x0]
	ldr	x0, [sp, 40]
	str	x1, [x0, 8]
	ldr	x0, [sp, 40]
	ldr	x0, [x0, 8]
	mov	x1, x0
	ldr	x0, [sp, 40]
.LEHB16:
	bl	_ZNSt11_Deque_baseIiSaIiEE15_M_allocate_mapEm
.LEHE16:
	mov	x1, x0
	ldr	x0, [sp, 40]
	str	x1, [x0]
	ldr	x0, [sp, 40]
	ldr	x1, [x0]
	ldr	x0, [sp, 40]
	ldr	x2, [x0, 8]
	ldr	x0, [sp, 88]
	sub	x0, x2, x0
	lsr	x0, x0, 1
	lsl	x0, x0, 3
	add	x0, x1, x0
	str	x0, [sp, 80]
	ldr	x0, [sp, 88]
	lsl	x0, x0, 3
	ldr	x1, [sp, 80]
	add	x0, x1, x0
	str	x0, [sp, 72]
	ldr	x2, [sp, 72]
	ldr	x1, [sp, 80]
	ldr	x0, [sp, 40]
.LEHB17:
	bl	_ZNSt11_Deque_baseIiSaIiEE15_M_create_nodesEPPiS3_
.LEHE17:
	ldr	x0, [sp, 40]
	add	x0, x0, 16
	ldr	x1, [sp, 80]
	bl	_ZNSt15_Deque_iteratorIiRiPiE11_M_set_nodeEPS1_
	ldr	x0, [sp, 40]
	add	x2, x0, 48
	ldr	x0, [sp, 72]
	sub	x0, x0, #8
	mov	x1, x0
	mov	x0, x2
	bl	_ZNSt15_Deque_iteratorIiRiPiE11_M_set_nodeEPS1_
	ldr	x0, [sp, 40]
	ldr	x1, [x0, 24]
	ldr	x0, [sp, 40]
	str	x1, [x0, 16]
	ldr	x0, [sp, 40]
	ldr	x19, [x0, 56]
	mov	x0, 4
	bl	_ZSt16__deque_buf_sizem
	mov	x1, x0
	ldr	x0, [sp, 32]
	udiv	x2, x0, x1
	mul	x1, x2, x1
	sub	x0, x0, x1
	lsl	x0, x0, 2
	add	x1, x19, x0
	ldr	x0, [sp, 40]
	str	x1, [x0, 48]
	b	.L136
.L134:
	bl	__cxa_begin_catch
	ldr	x0, [sp, 40]
	ldr	x1, [x0]
	ldr	x0, [sp, 40]
	ldr	x0, [x0, 8]
	mov	x2, x0
	ldr	x0, [sp, 40]
	bl	_ZNSt11_Deque_baseIiSaIiEE17_M_deallocate_mapEPPim
	ldr	x0, [sp, 40]
	str	xzr, [x0]
	ldr	x0, [sp, 40]
	str	xzr, [x0, 8]
.LEHB18:
	bl	__cxa_rethrow
.LEHE18:
.L135:
	mov	x19, x0
	bl	__cxa_end_catch
	mov	x0, x19
.LEHB19:
	bl	_Unwind_Resume
.LEHE19:
.L136:
	ldr	x19, [sp, 16]
	ldp	x29, x30, [sp], 96
	.cfi_restore 30
	.cfi_restore 29
	.cfi_restore 19
	.cfi_def_cfa_offset 0
	ret
	.cfi_endproc
.LFE11085:
	.section	.gcc_except_table
	.align	2
.LLSDA11085:
	.byte	0xff
	.byte	0x9b
	.uleb128 .LLSDATT11085-.LLSDATTD11085
.LLSDATTD11085:
	.byte	0x1
	.uleb128 .LLSDACSE11085-.LLSDACSB11085
.LLSDACSB11085:
	.uleb128 .LEHB16-.LFB11085
	.uleb128 .LEHE16-.LEHB16
	.uleb128 0
	.uleb128 0
	.uleb128 .LEHB17-.LFB11085
	.uleb128 .LEHE17-.LEHB17
	.uleb128 .L134-.LFB11085
	.uleb128 0x1
	.uleb128 .LEHB18-.LFB11085
	.uleb128 .LEHE18-.LEHB18
	.uleb128 .L135-.LFB11085
	.uleb128 0
	.uleb128 .LEHB19-.LFB11085
	.uleb128 .LEHE19-.LEHB19
	.uleb128 0
	.uleb128 0
.LLSDACSE11085:
	.byte	0x1
	.byte	0
	.align	2
	.4byte	0

.LLSDATT11085:
	.section	.text._ZNSt11_Deque_baseIiSaIiEE17_M_initialize_mapEm,"axG",@progbits,_ZNSt11_Deque_baseIiSaIiEE17_M_initialize_mapEm,comdat
	.size	_ZNSt11_Deque_baseIiSaIiEE17_M_initialize_mapEm, .-_ZNSt11_Deque_baseIiSaIiEE17_M_initialize_mapEm
	.section	.text._ZNSt11_Deque_baseIiSaIiEE16_M_destroy_nodesEPPiS3_,"axG",@progbits,_ZNSt11_Deque_baseIiSaIiEE16_M_destroy_nodesEPPiS3_,comdat
	.align	2
	.weak	_ZNSt11_Deque_baseIiSaIiEE16_M_destroy_nodesEPPiS3_
	.type	_ZNSt11_Deque_baseIiSaIiEE16_M_destroy_nodesEPPiS3_, %function
_ZNSt11_Deque_baseIiSaIiEE16_M_destroy_nodesEPPiS3_:
.LFB11086:
	.cfi_startproc
	stp	x29, x30, [sp, -64]!
	.cfi_def_cfa_offset 64
	.cfi_offset 29, -64
	.cfi_offset 30, -56
	mov	x29, sp
	str	x0, [sp, 40]
	str	x1, [sp, 32]
	str	x2, [sp, 24]
	ldr	x0, [sp, 32]
	str	x0, [sp, 56]
	b	.L138
.L139:
	ldr	x0, [sp, 56]
	ldr	x0, [x0]
	mov	x1, x0
	ldr	x0, [sp, 40]
	bl	_ZNSt11_Deque_baseIiSaIiEE18_M_deallocate_nodeEPi
	ldr	x0, [sp, 56]
	add	x0, x0, 8
	str	x0, [sp, 56]
.L138:
	ldr	x1, [sp, 56]
	ldr	x0, [sp, 24]
	cmp	x1, x0
	bcc	.L139
	nop
	nop
	ldp	x29, x30, [sp], 64
	.cfi_restore 30
	.cfi_restore 29
	.cfi_def_cfa_offset 0
	ret
	.cfi_endproc
.LFE11086:
	.size	_ZNSt11_Deque_baseIiSaIiEE16_M_destroy_nodesEPPiS3_, .-_ZNSt11_Deque_baseIiSaIiEE16_M_destroy_nodesEPPiS3_
	.section	.text._ZNSt11_Deque_baseIiSaIiEE17_M_deallocate_mapEPPim,"axG",@progbits,_ZNSt11_Deque_baseIiSaIiEE17_M_deallocate_mapEPPim,comdat
	.align	2
	.weak	_ZNSt11_Deque_baseIiSaIiEE17_M_deallocate_mapEPPim
	.type	_ZNSt11_Deque_baseIiSaIiEE17_M_deallocate_mapEPPim, %function
_ZNSt11_Deque_baseIiSaIiEE17_M_deallocate_mapEPPim:
.LFB11087:
	.cfi_startproc
	.cfi_personality 0x9b,DW.ref.__gxx_personality_v0
	.cfi_lsda 0x1b,.LLSDA11087
	stp	x29, x30, [sp, -64]!
	.cfi_def_cfa_offset 64
	.cfi_offset 29, -64
	.cfi_offset 30, -56
	mov	x29, sp
	str	x0, [sp, 40]
	str	x1, [sp, 32]
	str	x2, [sp, 24]
	add	x0, sp, 56
	mov	x8, x0
	ldr	x0, [sp, 40]
	bl	_ZNKSt11_Deque_baseIiSaIiEE20_M_get_map_allocatorEv
	add	x0, sp, 56
	ldr	x2, [sp, 24]
	ldr	x1, [sp, 32]
	bl	_ZNSt16allocator_traitsISaIPiEE10deallocateERS1_PS0_m
	add	x0, sp, 56
	bl	_ZNSaIPiED1Ev
	ldp	x29, x30, [sp], 64
	.cfi_restore 30
	.cfi_restore 29
	.cfi_def_cfa_offset 0
	ret
	.cfi_endproc
.LFE11087:
	.section	.gcc_except_table
.LLSDA11087:
	.byte	0xff
	.byte	0xff
	.byte	0x1
	.uleb128 .LLSDACSE11087-.LLSDACSB11087
.LLSDACSB11087:
.LLSDACSE11087:
	.section	.text._ZNSt11_Deque_baseIiSaIiEE17_M_deallocate_mapEPPim,"axG",@progbits,_ZNSt11_Deque_baseIiSaIiEE17_M_deallocate_mapEPPim,comdat
	.size	_ZNSt11_Deque_baseIiSaIiEE17_M_deallocate_mapEPPim, .-_ZNSt11_Deque_baseIiSaIiEE17_M_deallocate_mapEPPim
	.section	.text._ZNSt15_Deque_iteratorIiRiPiEC2ERKS2_,"axG",@progbits,_ZNSt15_Deque_iteratorIiRiPiEC5ERKS2_,comdat
	.align	2
	.weak	_ZNSt15_Deque_iteratorIiRiPiEC2ERKS2_
	.type	_ZNSt15_Deque_iteratorIiRiPiEC2ERKS2_, %function
_ZNSt15_Deque_iteratorIiRiPiEC2ERKS2_:
.LFB11089:
	.cfi_startproc
	sub	sp, sp, #16
	.cfi_def_cfa_offset 16
	str	x0, [sp, 8]
	str	x1, [sp]
	ldr	x0, [sp]
	ldr	x1, [x0]
	ldr	x0, [sp, 8]
	str	x1, [x0]
	ldr	x0, [sp]
	ldr	x1, [x0, 8]
	ldr	x0, [sp, 8]
	str	x1, [x0, 8]
	ldr	x0, [sp]
	ldr	x1, [x0, 16]
	ldr	x0, [sp, 8]
	str	x1, [x0, 16]
	ldr	x0, [sp]
	ldr	x1, [x0, 24]
	ldr	x0, [sp, 8]
	str	x1, [x0, 24]
	nop
	add	sp, sp, 16
	.cfi_def_cfa_offset 0
	ret
	.cfi_endproc
.LFE11089:
	.size	_ZNSt15_Deque_iteratorIiRiPiEC2ERKS2_, .-_ZNSt15_Deque_iteratorIiRiPiEC2ERKS2_
	.weak	_ZNSt15_Deque_iteratorIiRiPiEC1ERKS2_
	.set	_ZNSt15_Deque_iteratorIiRiPiEC1ERKS2_,_ZNSt15_Deque_iteratorIiRiPiEC2ERKS2_
	.section	.text._ZNSt5dequeISt4pairIiNSt7__cxx1112basic_stringIcSt11char_traitsIcESaIcEEEESaIS7_EE12emplace_backIJS7_EEERS7_DpOT_,"axG",@progbits,_ZNSt5dequeISt4pairIiNSt7__cxx1112basic_stringIcSt11char_traitsIcESaIcEEEESaIS7_EE12emplace_backIJS7_EEERS7_DpOT_,comdat
	.align	2
	.weak	_ZNSt5dequeISt4pairIiNSt7__cxx1112basic_stringIcSt11char_traitsIcESaIcEEEESaIS7_EE12emplace_backIJS7_EEERS7_DpOT_
	.type	_ZNSt5dequeISt4pairIiNSt7__cxx1112basic_stringIcSt11char_traitsIcESaIcEEEESaIS7_EE12emplace_backIJS7_EEERS7_DpOT_, %function
_ZNSt5dequeISt4pairIiNSt7__cxx1112basic_stringIcSt11char_traitsIcESaIcEEEESaIS7_EE12emplace_backIJS7_EEERS7_DpOT_:
.LFB11092:
	.cfi_startproc
	stp	x29, x30, [sp, -48]!
	.cfi_def_cfa_offset 48
	.cfi_offset 29, -48
	.cfi_offset 30, -40
	mov	x29, sp
	stp	x19, x20, [sp, 16]
	.cfi_offset 19, -32
	.cfi_offset 20, -24
	str	x0, [sp, 40]
	str	x1, [sp, 32]
	ldr	x0, [sp, 40]
	ldr	x1, [x0, 48]
	ldr	x0, [sp, 40]
	ldr	x0, [x0, 64]
	sub	x0, x0, #40
	cmp	x1, x0
	beq	.L143
	ldr	x19, [sp, 40]
	ldr	x0, [sp, 40]
	ldr	x20, [x0, 48]
	ldr	x0, [sp, 32]
	bl	_ZSt7forwardISt4pairIiNSt7__cxx1112basic_stringIcSt11char_traitsIcESaIcEEEEEOT_RNSt16remove_referenceIS8_E4typeE
	mov	x2, x0
	mov	x1, x20
	mov	x0, x19
	bl	_ZNSt16allocator_traitsISaISt4pairIiNSt7__cxx1112basic_stringIcSt11char_traitsIcESaIcEEEEEE9constructIS7_JS7_EEEvRS8_PT_DpOT0_
	ldr	x0, [sp, 40]
	ldr	x0, [x0, 48]
	add	x1, x0, 40
	ldr	x0, [sp, 40]
	str	x1, [x0, 48]
	b	.L144
.L143:
	ldr	x0, [sp, 32]
	bl	_ZSt7forwardISt4pairIiNSt7__cxx1112basic_stringIcSt11char_traitsIcESaIcEEEEEOT_RNSt16remove_referenceIS8_E4typeE
	mov	x1, x0
	ldr	x0, [sp, 40]
	bl	_ZNSt5dequeISt4pairIiNSt7__cxx1112basic_stringIcSt11char_traitsIcESaIcEEEESaIS7_EE16_M_push_back_auxIJS7_EEEvDpOT_
.L144:
	ldr	x0, [sp, 40]
	bl	_ZNSt5dequeISt4pairIiNSt7__cxx1112basic_stringIcSt11char_traitsIcESaIcEEEESaIS7_EE4backEv
	ldp	x19, x20, [sp, 16]
	ldp	x29, x30, [sp], 48
	.cfi_restore 30
	.cfi_restore 29
	.cfi_restore 19
	.cfi_restore 20
	.cfi_def_cfa_offset 0
	ret
	.cfi_endproc
.LFE11092:
	.size	_ZNSt5dequeISt4pairIiNSt7__cxx1112basic_stringIcSt11char_traitsIcESaIcEEEESaIS7_EE12emplace_backIJS7_EEERS7_DpOT_, .-_ZNSt5dequeISt4pairIiNSt7__cxx1112basic_stringIcSt11char_traitsIcESaIcEEEESaIS7_EE12emplace_backIJS7_EEERS7_DpOT_
	.section	.text._ZSteqRKSt15_Deque_iteratorIiRiPiES4_,"axG",@progbits,_ZSteqRKSt15_Deque_iteratorIiRiPiES4_,comdat
	.align	2
	.weak	_ZSteqRKSt15_Deque_iteratorIiRiPiES4_
	.type	_ZSteqRKSt15_Deque_iteratorIiRiPiES4_, %function
_ZSteqRKSt15_Deque_iteratorIiRiPiES4_:
.LFB11093:
	.cfi_startproc
	sub	sp, sp, #16
	.cfi_def_cfa_offset 16
	str	x0, [sp, 8]
	str	x1, [sp]
	ldr	x0, [sp, 8]
	ldr	x1, [x0]
	ldr	x0, [sp]
	ldr	x0, [x0]
	cmp	x1, x0
	cset	w0, eq
	and	w0, w0, 255
	add	sp, sp, 16
	.cfi_def_cfa_offset 0
	ret
	.cfi_endproc
.LFE11093:
	.size	_ZSteqRKSt15_Deque_iteratorIiRiPiES4_, .-_ZSteqRKSt15_Deque_iteratorIiRiPiES4_
	.section	.text._ZNSt15_Deque_iteratorIiRiPiEmmEv,"axG",@progbits,_ZNSt15_Deque_iteratorIiRiPiEmmEv,comdat
	.align	2
	.weak	_ZNSt15_Deque_iteratorIiRiPiEmmEv
	.type	_ZNSt15_Deque_iteratorIiRiPiEmmEv, %function
_ZNSt15_Deque_iteratorIiRiPiEmmEv:
.LFB11094:
	.cfi_startproc
	stp	x29, x30, [sp, -32]!
	.cfi_def_cfa_offset 32
	.cfi_offset 29, -32
	.cfi_offset 30, -24
	mov	x29, sp
	str	x0, [sp, 24]
	ldr	x0, [sp, 24]
	ldr	x1, [x0]
	ldr	x0, [sp, 24]
	ldr	x0, [x0, 8]
	cmp	x1, x0
	bne	.L149
	ldr	x0, [sp, 24]
	ldr	x0, [x0, 24]
	sub	x0, x0, #8
	mov	x1, x0
	ldr	x0, [sp, 24]
	bl	_ZNSt15_Deque_iteratorIiRiPiE11_M_set_nodeEPS1_
	ldr	x0, [sp, 24]
	ldr	x1, [x0, 16]
	ldr	x0, [sp, 24]
	str	x1, [x0]
.L149:
	ldr	x0, [sp, 24]
	ldr	x0, [x0]
	sub	x1, x0, #4
	ldr	x0, [sp, 24]
	str	x1, [x0]
	ldr	x0, [sp, 24]
	ldp	x29, x30, [sp], 32
	.cfi_restore 30
	.cfi_restore 29
	.cfi_def_cfa_offset 0
	ret
	.cfi_endproc
.LFE11094:
	.size	_ZNSt15_Deque_iteratorIiRiPiEmmEv, .-_ZNSt15_Deque_iteratorIiRiPiEmmEv
	.section	.text._ZNKSt15_Deque_iteratorIiRiPiEdeEv,"axG",@progbits,_ZNKSt15_Deque_iteratorIiRiPiEdeEv,comdat
	.align	2
	.weak	_ZNKSt15_Deque_iteratorIiRiPiEdeEv
	.type	_ZNKSt15_Deque_iteratorIiRiPiEdeEv, %function
_ZNKSt15_Deque_iteratorIiRiPiEdeEv:
.LFB11095:
	.cfi_startproc
	sub	sp, sp, #16
	.cfi_def_cfa_offset 16
	str	x0, [sp, 8]
	ldr	x0, [sp, 8]
	ldr	x0, [x0]
	add	sp, sp, 16
	.cfi_def_cfa_offset 0
	ret
	.cfi_endproc
.LFE11095:
	.size	_ZNKSt15_Deque_iteratorIiRiPiEdeEv, .-_ZNKSt15_Deque_iteratorIiRiPiEdeEv
	.section	.text._ZNSt16allocator_traitsISaIiEE9constructIiJRKiEEEvRS0_PT_DpOT0_,"axG",@progbits,_ZNSt16allocator_traitsISaIiEE9constructIiJRKiEEEvRS0_PT_DpOT0_,comdat
	.align	2
	.weak	_ZNSt16allocator_traitsISaIiEE9constructIiJRKiEEEvRS0_PT_DpOT0_
	.type	_ZNSt16allocator_traitsISaIiEE9constructIiJRKiEEEvRS0_PT_DpOT0_, %function
_ZNSt16allocator_traitsISaIiEE9constructIiJRKiEEEvRS0_PT_DpOT0_:
.LFB11096:
	.cfi_startproc
	stp	x29, x30, [sp, -48]!
	.cfi_def_cfa_offset 48
	.cfi_offset 29, -48
	.cfi_offset 30, -40
	mov	x29, sp
	str	x0, [sp, 40]
	str	x1, [sp, 32]
	str	x2, [sp, 24]
	ldr	x0, [sp, 24]
	bl	_ZSt7forwardIRKiEOT_RNSt16remove_referenceIS2_E4typeE
	mov	x2, x0
	ldr	x1, [sp, 32]
	ldr	x0, [sp, 40]
	bl	_ZN9__gnu_cxx13new_allocatorIiE9constructIiJRKiEEEvPT_DpOT0_
	nop
	ldp	x29, x30, [sp], 48
	.cfi_restore 30
	.cfi_restore 29
	.cfi_def_cfa_offset 0
	ret
	.cfi_endproc
.LFE11096:
	.size	_ZNSt16allocator_traitsISaIiEE9constructIiJRKiEEEvRS0_PT_DpOT0_, .-_ZNSt16allocator_traitsISaIiEE9constructIiJRKiEEEvRS0_PT_DpOT0_
	.section	.rodata
	.align	3
.LC1:
	.string	"cannot create std::deque larger than max_size()"
	.section	.text._ZNSt5dequeIiSaIiEE16_M_push_back_auxIJRKiEEEvDpOT_,"axG",@progbits,_ZNSt5dequeIiSaIiEE16_M_push_back_auxIJRKiEEEvDpOT_,comdat
	.align	2
	.weak	_ZNSt5dequeIiSaIiEE16_M_push_back_auxIJRKiEEEvDpOT_
	.type	_ZNSt5dequeIiSaIiEE16_M_push_back_auxIJRKiEEEvDpOT_, %function
_ZNSt5dequeIiSaIiEE16_M_push_back_auxIJRKiEEEvDpOT_:
.LFB11097:
	.cfi_startproc
	stp	x29, x30, [sp, -48]!
	.cfi_def_cfa_offset 48
	.cfi_offset 29, -48
	.cfi_offset 30, -40
	mov	x29, sp
	stp	x19, x20, [sp, 16]
	.cfi_offset 19, -32
	.cfi_offset 20, -24
	str	x0, [sp, 40]
	str	x1, [sp, 32]
	ldr	x0, [sp, 40]
	bl	_ZNKSt5dequeIiSaIiEE4sizeEv
	mov	x19, x0
	ldr	x0, [sp, 40]
	bl	_ZNKSt5dequeIiSaIiEE8max_sizeEv
	cmp	x19, x0
	cset	w0, eq
	and	w0, w0, 255
	cmp	w0, 0
	beq	.L155
	adrp	x0, .LC1
	add	x0, x0, :lo12:.LC1
	bl	_ZSt20__throw_length_errorPKc
.L155:
	mov	x1, 1
	ldr	x0, [sp, 40]
	bl	_ZNSt5dequeIiSaIiEE22_M_reserve_map_at_backEm
	ldr	x1, [sp, 40]
	ldr	x0, [sp, 40]
	ldr	x0, [x0, 72]
	add	x19, x0, 8
	mov	x0, x1
	bl	_ZNSt11_Deque_baseIiSaIiEE16_M_allocate_nodeEv
	str	x0, [x19]
	ldr	x19, [sp, 40]
	ldr	x0, [sp, 40]
	ldr	x20, [x0, 48]
	ldr	x0, [sp, 32]
	bl	_ZSt7forwardIRKiEOT_RNSt16remove_referenceIS2_E4typeE
	mov	x2, x0
	mov	x1, x20
	mov	x0, x19
	bl	_ZNSt16allocator_traitsISaIiEE9constructIiJRKiEEEvRS0_PT_DpOT0_
	ldr	x0, [sp, 40]
	add	x2, x0, 48
	ldr	x0, [sp, 40]
	ldr	x0, [x0, 72]
	add	x0, x0, 8
	mov	x1, x0
	mov	x0, x2
	bl	_ZNSt15_Deque_iteratorIiRiPiE11_M_set_nodeEPS1_
	ldr	x0, [sp, 40]
	ldr	x1, [x0, 56]
	ldr	x0, [sp, 40]
	str	x1, [x0, 48]
	nop
	ldp	x19, x20, [sp, 16]
	ldp	x29, x30, [sp], 48
	.cfi_restore 30
	.cfi_restore 29
	.cfi_restore 19
	.cfi_restore 20
	.cfi_def_cfa_offset 0
	ret
	.cfi_endproc
.LFE11097:
	.size	_ZNSt5dequeIiSaIiEE16_M_push_back_auxIJRKiEEEvDpOT_, .-_ZNSt5dequeIiSaIiEE16_M_push_back_auxIJRKiEEEvDpOT_
	.section	.text._ZNSt15_Deque_iteratorISt4pairIiNSt7__cxx1112basic_stringIcSt11char_traitsIcESaIcEEEERS7_PS7_EmmEv,"axG",@progbits,_ZNSt15_Deque_iteratorISt4pairIiNSt7__cxx1112basic_stringIcSt11char_traitsIcESaIcEEEERS7_PS7_EmmEv,comdat
	.align	2
	.weak	_ZNSt15_Deque_iteratorISt4pairIiNSt7__cxx1112basic_stringIcSt11char_traitsIcESaIcEEEERS7_PS7_EmmEv
	.type	_ZNSt15_Deque_iteratorISt4pairIiNSt7__cxx1112basic_stringIcSt11char_traitsIcESaIcEEEERS7_PS7_EmmEv, %function
_ZNSt15_Deque_iteratorISt4pairIiNSt7__cxx1112basic_stringIcSt11char_traitsIcESaIcEEEERS7_PS7_EmmEv:
.LFB11098:
	.cfi_startproc
	stp	x29, x30, [sp, -32]!
	.cfi_def_cfa_offset 32
	.cfi_offset 29, -32
	.cfi_offset 30, -24
	mov	x29, sp
	str	x0, [sp, 24]
	ldr	x0, [sp, 24]
	ldr	x1, [x0]
	ldr	x0, [sp, 24]
	ldr	x0, [x0, 8]
	cmp	x1, x0
	bne	.L157
	ldr	x0, [sp, 24]
	ldr	x0, [x0, 24]
	sub	x0, x0, #8
	mov	x1, x0
	ldr	x0, [sp, 24]
	bl	_ZNSt15_Deque_iteratorISt4pairIiNSt7__cxx1112basic_stringIcSt11char_traitsIcESaIcEEEERS7_PS7_E11_M_set_nodeEPS9_
	ldr	x0, [sp, 24]
	ldr	x1, [x0, 16]
	ldr	x0, [sp, 24]
	str	x1, [x0]
.L157:
	ldr	x0, [sp, 24]
	ldr	x0, [x0]
	sub	x1, x0, #40
	ldr	x0, [sp, 24]
	str	x1, [x0]
	ldr	x0, [sp, 24]
	ldp	x29, x30, [sp], 32
	.cfi_restore 30
	.cfi_restore 29
	.cfi_def_cfa_offset 0
	ret
	.cfi_endproc
.LFE11098:
	.size	_ZNSt15_Deque_iteratorISt4pairIiNSt7__cxx1112basic_stringIcSt11char_traitsIcESaIcEEEERS7_PS7_EmmEv, .-_ZNSt15_Deque_iteratorISt4pairIiNSt7__cxx1112basic_stringIcSt11char_traitsIcESaIcEEEERS7_PS7_EmmEv
	.section	.text._ZNKSt15_Deque_iteratorISt4pairIiNSt7__cxx1112basic_stringIcSt11char_traitsIcESaIcEEEERS7_PS7_EdeEv,"axG",@progbits,_ZNKSt15_Deque_iteratorISt4pairIiNSt7__cxx1112basic_stringIcSt11char_traitsIcESaIcEEEERS7_PS7_EdeEv,comdat
	.align	2
	.weak	_ZNKSt15_Deque_iteratorISt4pairIiNSt7__cxx1112basic_stringIcSt11char_traitsIcESaIcEEEERS7_PS7_EdeEv
	.type	_ZNKSt15_Deque_iteratorISt4pairIiNSt7__cxx1112basic_stringIcSt11char_traitsIcESaIcEEEERS7_PS7_EdeEv, %function
_ZNKSt15_Deque_iteratorISt4pairIiNSt7__cxx1112basic_stringIcSt11char_traitsIcESaIcEEEERS7_PS7_EdeEv:
.LFB11099:
	.cfi_startproc
	sub	sp, sp, #16
	.cfi_def_cfa_offset 16
	str	x0, [sp, 8]
	ldr	x0, [sp, 8]
	ldr	x0, [x0]
	add	sp, sp, 16
	.cfi_def_cfa_offset 0
	ret
	.cfi_endproc
.LFE11099:
	.size	_ZNKSt15_Deque_iteratorISt4pairIiNSt7__cxx1112basic_stringIcSt11char_traitsIcESaIcEEEERS7_PS7_EdeEv, .-_ZNKSt15_Deque_iteratorISt4pairIiNSt7__cxx1112basic_stringIcSt11char_traitsIcESaIcEEEERS7_PS7_EdeEv
	.section	.text._ZNSt16allocator_traitsISaISt4pairIiNSt7__cxx1112basic_stringIcSt11char_traitsIcESaIcEEEEEE7destroyIS7_EEvRS8_PT_,"axG",@progbits,_ZNSt16allocator_traitsISaISt4pairIiNSt7__cxx1112basic_stringIcSt11char_traitsIcESaIcEEEEEE7destroyIS7_EEvRS8_PT_,comdat
	.align	2
	.weak	_ZNSt16allocator_traitsISaISt4pairIiNSt7__cxx1112basic_stringIcSt11char_traitsIcESaIcEEEEEE7destroyIS7_EEvRS8_PT_
	.type	_ZNSt16allocator_traitsISaISt4pairIiNSt7__cxx1112basic_stringIcSt11char_traitsIcESaIcEEEEEE7destroyIS7_EEvRS8_PT_, %function
_ZNSt16allocator_traitsISaISt4pairIiNSt7__cxx1112basic_stringIcSt11char_traitsIcESaIcEEEEEE7destroyIS7_EEvRS8_PT_:
.LFB11100:
	.cfi_startproc
	stp	x29, x30, [sp, -32]!
	.cfi_def_cfa_offset 32
	.cfi_offset 29, -32
	.cfi_offset 30, -24
	mov	x29, sp
	str	x0, [sp, 24]
	str	x1, [sp, 16]
	ldr	x1, [sp, 16]
	ldr	x0, [sp, 24]
	bl	_ZN9__gnu_cxx13new_allocatorISt4pairIiNSt7__cxx1112basic_stringIcSt11char_traitsIcESaIcEEEEE7destroyIS8_EEvPT_
	nop
	ldp	x29, x30, [sp], 32
	.cfi_restore 30
	.cfi_restore 29
	.cfi_def_cfa_offset 0
	ret
	.cfi_endproc
.LFE11100:
	.size	_ZNSt16allocator_traitsISaISt4pairIiNSt7__cxx1112basic_stringIcSt11char_traitsIcESaIcEEEEEE7destroyIS7_EEvRS8_PT_, .-_ZNSt16allocator_traitsISaISt4pairIiNSt7__cxx1112basic_stringIcSt11char_traitsIcESaIcEEEEEE7destroyIS7_EEvRS8_PT_
	.section	.text._ZNSt5dequeISt4pairIiNSt7__cxx1112basic_stringIcSt11char_traitsIcESaIcEEEESaIS7_EE15_M_pop_back_auxEv,"axG",@progbits,_ZNSt5dequeISt4pairIiNSt7__cxx1112basic_stringIcSt11char_traitsIcESaIcEEEESaIS7_EE15_M_pop_back_auxEv,comdat
	.align	2
	.weak	_ZNSt5dequeISt4pairIiNSt7__cxx1112basic_stringIcSt11char_traitsIcESaIcEEEESaIS7_EE15_M_pop_back_auxEv
	.type	_ZNSt5dequeISt4pairIiNSt7__cxx1112basic_stringIcSt11char_traitsIcESaIcEEEESaIS7_EE15_M_pop_back_auxEv, %function
_ZNSt5dequeISt4pairIiNSt7__cxx1112basic_stringIcSt11char_traitsIcESaIcEEEESaIS7_EE15_M_pop_back_auxEv:
.LFB11101:
	.cfi_startproc
	stp	x29, x30, [sp, -32]!
	.cfi_def_cfa_offset 32
	.cfi_offset 29, -32
	.cfi_offset 30, -24
	mov	x29, sp
	str	x0, [sp, 24]
	ldr	x2, [sp, 24]
	ldr	x0, [sp, 24]
	ldr	x0, [x0, 56]
	mov	x1, x0
	mov	x0, x2
	bl	_ZNSt11_Deque_baseISt4pairIiNSt7__cxx1112basic_stringIcSt11char_traitsIcESaIcEEEESaIS7_EE18_M_deallocate_nodeEPS7_
	ldr	x0, [sp, 24]
	add	x2, x0, 48
	ldr	x0, [sp, 24]
	ldr	x0, [x0, 72]
	sub	x0, x0, #8
	mov	x1, x0
	mov	x0, x2
	bl	_ZNSt15_Deque_iteratorISt4pairIiNSt7__cxx1112basic_stringIcSt11char_traitsIcESaIcEEEERS7_PS7_E11_M_set_nodeEPS9_
	ldr	x0, [sp, 24]
	ldr	x0, [x0, 64]
	sub	x1, x0, #40
	ldr	x0, [sp, 24]
	str	x1, [x0, 48]
	ldr	x0, [sp, 24]
	bl	_ZNSt11_Deque_baseISt4pairIiNSt7__cxx1112basic_stringIcSt11char_traitsIcESaIcEEEESaIS7_EE19_M_get_Tp_allocatorEv
	mov	x2, x0
	ldr	x0, [sp, 24]
	ldr	x0, [x0, 48]
	mov	x1, x0
	mov	x0, x2
	bl	_ZNSt16allocator_traitsISaISt4pairIiNSt7__cxx1112basic_stringIcSt11char_traitsIcESaIcEEEEEE7destroyIS7_EEvRS8_PT_
	nop
	ldp	x29, x30, [sp], 32
	.cfi_restore 30
	.cfi_restore 29
	.cfi_def_cfa_offset 0
	ret
	.cfi_endproc
.LFE11101:
	.size	_ZNSt5dequeISt4pairIiNSt7__cxx1112basic_stringIcSt11char_traitsIcESaIcEEEESaIS7_EE15_M_pop_back_auxEv, .-_ZNSt5dequeISt4pairIiNSt7__cxx1112basic_stringIcSt11char_traitsIcESaIcEEEESaIS7_EE15_M_pop_back_auxEv
	.section	.text._ZNSt16allocator_traitsISaIiEE7destroyIiEEvRS0_PT_,"axG",@progbits,_ZNSt16allocator_traitsISaIiEE7destroyIiEEvRS0_PT_,comdat
	.align	2
	.weak	_ZNSt16allocator_traitsISaIiEE7destroyIiEEvRS0_PT_
	.type	_ZNSt16allocator_traitsISaIiEE7destroyIiEEvRS0_PT_, %function
_ZNSt16allocator_traitsISaIiEE7destroyIiEEvRS0_PT_:
.LFB11104:
	.cfi_startproc
	stp	x29, x30, [sp, -32]!
	.cfi_def_cfa_offset 32
	.cfi_offset 29, -32
	.cfi_offset 30, -24
	mov	x29, sp
	str	x0, [sp, 24]
	str	x1, [sp, 16]
	ldr	x1, [sp, 16]
	ldr	x0, [sp, 24]
	bl	_ZN9__gnu_cxx13new_allocatorIiE7destroyIiEEvPT_
	nop
	ldp	x29, x30, [sp], 32
	.cfi_restore 30
	.cfi_restore 29
	.cfi_def_cfa_offset 0
	ret
	.cfi_endproc
.LFE11104:
	.size	_ZNSt16allocator_traitsISaIiEE7destroyIiEEvRS0_PT_, .-_ZNSt16allocator_traitsISaIiEE7destroyIiEEvRS0_PT_
	.section	.text._ZNSt5dequeIiSaIiEE15_M_pop_back_auxEv,"axG",@progbits,_ZNSt5dequeIiSaIiEE15_M_pop_back_auxEv,comdat
	.align	2
	.weak	_ZNSt5dequeIiSaIiEE15_M_pop_back_auxEv
	.type	_ZNSt5dequeIiSaIiEE15_M_pop_back_auxEv, %function
_ZNSt5dequeIiSaIiEE15_M_pop_back_auxEv:
.LFB11105:
	.cfi_startproc
	stp	x29, x30, [sp, -32]!
	.cfi_def_cfa_offset 32
	.cfi_offset 29, -32
	.cfi_offset 30, -24
	mov	x29, sp
	str	x0, [sp, 24]
	ldr	x2, [sp, 24]
	ldr	x0, [sp, 24]
	ldr	x0, [x0, 56]
	mov	x1, x0
	mov	x0, x2
	bl	_ZNSt11_Deque_baseIiSaIiEE18_M_deallocate_nodeEPi
	ldr	x0, [sp, 24]
	add	x2, x0, 48
	ldr	x0, [sp, 24]
	ldr	x0, [x0, 72]
	sub	x0, x0, #8
	mov	x1, x0
	mov	x0, x2
	bl	_ZNSt15_Deque_iteratorIiRiPiE11_M_set_nodeEPS1_
	ldr	x0, [sp, 24]
	ldr	x0, [x0, 64]
	sub	x1, x0, #4
	ldr	x0, [sp, 24]
	str	x1, [x0, 48]
	ldr	x0, [sp, 24]
	bl	_ZNSt11_Deque_baseIiSaIiEE19_M_get_Tp_allocatorEv
	mov	x2, x0
	ldr	x0, [sp, 24]
	ldr	x0, [x0, 48]
	mov	x1, x0
	mov	x0, x2
	bl	_ZNSt16allocator_traitsISaIiEE7destroyIiEEvRS0_PT_
	nop
	ldp	x29, x30, [sp], 32
	.cfi_restore 30
	.cfi_restore 29
	.cfi_def_cfa_offset 0
	ret
	.cfi_endproc
.LFE11105:
	.size	_ZNSt5dequeIiSaIiEE15_M_pop_back_auxEv, .-_ZNSt5dequeIiSaIiEE15_M_pop_back_auxEv
	.section	.text._ZNSaISt4pairIiNSt7__cxx1112basic_stringIcSt11char_traitsIcESaIcEEEEEC2Ev,"axG",@progbits,_ZNSaISt4pairIiNSt7__cxx1112basic_stringIcSt11char_traitsIcESaIcEEEEEC5Ev,comdat
	.align	2
	.weak	_ZNSaISt4pairIiNSt7__cxx1112basic_stringIcSt11char_traitsIcESaIcEEEEEC2Ev
	.type	_ZNSaISt4pairIiNSt7__cxx1112basic_stringIcSt11char_traitsIcESaIcEEEEEC2Ev, %function
_ZNSaISt4pairIiNSt7__cxx1112basic_stringIcSt11char_traitsIcESaIcEEEEEC2Ev:
.LFB11243:
	.cfi_startproc
	stp	x29, x30, [sp, -32]!
	.cfi_def_cfa_offset 32
	.cfi_offset 29, -32
	.cfi_offset 30, -24
	mov	x29, sp
	str	x0, [sp, 24]
	ldr	x0, [sp, 24]
	bl	_ZN9__gnu_cxx13new_allocatorISt4pairIiNSt7__cxx1112basic_stringIcSt11char_traitsIcESaIcEEEEEC2Ev
	nop
	ldp	x29, x30, [sp], 32
	.cfi_restore 30
	.cfi_restore 29
	.cfi_def_cfa_offset 0
	ret
	.cfi_endproc
.LFE11243:
	.size	_ZNSaISt4pairIiNSt7__cxx1112basic_stringIcSt11char_traitsIcESaIcEEEEEC2Ev, .-_ZNSaISt4pairIiNSt7__cxx1112basic_stringIcSt11char_traitsIcESaIcEEEEEC2Ev
	.weak	_ZNSaISt4pairIiNSt7__cxx1112basic_stringIcSt11char_traitsIcESaIcEEEEEC1Ev
	.set	_ZNSaISt4pairIiNSt7__cxx1112basic_stringIcSt11char_traitsIcESaIcEEEEEC1Ev,_ZNSaISt4pairIiNSt7__cxx1112basic_stringIcSt11char_traitsIcESaIcEEEEEC2Ev
	.section	.text._ZNSt11_Deque_baseISt4pairIiNSt7__cxx1112basic_stringIcSt11char_traitsIcESaIcEEEESaIS7_EE16_Deque_impl_dataC2Ev,"axG",@progbits,_ZNSt11_Deque_baseISt4pairIiNSt7__cxx1112basic_stringIcSt11char_traitsIcESaIcEEEESaIS7_EE16_Deque_impl_dataC5Ev,comdat
	.align	2
	.weak	_ZNSt11_Deque_baseISt4pairIiNSt7__cxx1112basic_stringIcSt11char_traitsIcESaIcEEEESaIS7_EE16_Deque_impl_dataC2Ev
	.type	_ZNSt11_Deque_baseISt4pairIiNSt7__cxx1112basic_stringIcSt11char_traitsIcESaIcEEEESaIS7_EE16_Deque_impl_dataC2Ev, %function
_ZNSt11_Deque_baseISt4pairIiNSt7__cxx1112basic_stringIcSt11char_traitsIcESaIcEEEESaIS7_EE16_Deque_impl_dataC2Ev:
.LFB11246:
	.cfi_startproc
	stp	x29, x30, [sp, -32]!
	.cfi_def_cfa_offset 32
	.cfi_offset 29, -32
	.cfi_offset 30, -24
	mov	x29, sp
	str	x0, [sp, 24]
	ldr	x0, [sp, 24]
	str	xzr, [x0]
	ldr	x0, [sp, 24]
	str	xzr, [x0, 8]
	ldr	x0, [sp, 24]
	add	x0, x0, 16
	bl	_ZNSt15_Deque_iteratorISt4pairIiNSt7__cxx1112basic_stringIcSt11char_traitsIcESaIcEEEERS7_PS7_EC1Ev
	ldr	x0, [sp, 24]
	add	x0, x0, 48
	bl	_ZNSt15_Deque_iteratorISt4pairIiNSt7__cxx1112basic_stringIcSt11char_traitsIcESaIcEEEERS7_PS7_EC1Ev
	nop
	ldp	x29, x30, [sp], 32
	.cfi_restore 30
	.cfi_restore 29
	.cfi_def_cfa_offset 0
	ret
	.cfi_endproc
.LFE11246:
	.size	_ZNSt11_Deque_baseISt4pairIiNSt7__cxx1112basic_stringIcSt11char_traitsIcESaIcEEEESaIS7_EE16_Deque_impl_dataC2Ev, .-_ZNSt11_Deque_baseISt4pairIiNSt7__cxx1112basic_stringIcSt11char_traitsIcESaIcEEEESaIS7_EE16_Deque_impl_dataC2Ev
	.weak	_ZNSt11_Deque_baseISt4pairIiNSt7__cxx1112basic_stringIcSt11char_traitsIcESaIcEEEESaIS7_EE16_Deque_impl_dataC1Ev
	.set	_ZNSt11_Deque_baseISt4pairIiNSt7__cxx1112basic_stringIcSt11char_traitsIcESaIcEEEESaIS7_EE16_Deque_impl_dataC1Ev,_ZNSt11_Deque_baseISt4pairIiNSt7__cxx1112basic_stringIcSt11char_traitsIcESaIcEEEESaIS7_EE16_Deque_impl_dataC2Ev
	.section	.text._ZN9__gnu_cxx13new_allocatorISt4pairIiNSt7__cxx1112basic_stringIcSt11char_traitsIcESaIcEEEEED2Ev,"axG",@progbits,_ZN9__gnu_cxx13new_allocatorISt4pairIiNSt7__cxx1112basic_stringIcSt11char_traitsIcESaIcEEEEED5Ev,comdat
	.align	2
	.weak	_ZN9__gnu_cxx13new_allocatorISt4pairIiNSt7__cxx1112basic_stringIcSt11char_traitsIcESaIcEEEEED2Ev
	.type	_ZN9__gnu_cxx13new_allocatorISt4pairIiNSt7__cxx1112basic_stringIcSt11char_traitsIcESaIcEEEEED2Ev, %function
_ZN9__gnu_cxx13new_allocatorISt4pairIiNSt7__cxx1112basic_stringIcSt11char_traitsIcESaIcEEEEED2Ev:
.LFB11249:
	.cfi_startproc
	sub	sp, sp, #16
	.cfi_def_cfa_offset 16
	str	x0, [sp, 8]
	nop
	add	sp, sp, 16
	.cfi_def_cfa_offset 0
	ret
	.cfi_endproc
.LFE11249:
	.size	_ZN9__gnu_cxx13new_allocatorISt4pairIiNSt7__cxx1112basic_stringIcSt11char_traitsIcESaIcEEEEED2Ev, .-_ZN9__gnu_cxx13new_allocatorISt4pairIiNSt7__cxx1112basic_stringIcSt11char_traitsIcESaIcEEEEED2Ev
	.weak	_ZN9__gnu_cxx13new_allocatorISt4pairIiNSt7__cxx1112basic_stringIcSt11char_traitsIcESaIcEEEEED1Ev
	.set	_ZN9__gnu_cxx13new_allocatorISt4pairIiNSt7__cxx1112basic_stringIcSt11char_traitsIcESaIcEEEEED1Ev,_ZN9__gnu_cxx13new_allocatorISt4pairIiNSt7__cxx1112basic_stringIcSt11char_traitsIcESaIcEEEEED2Ev
	.section	.text._ZNSt11_Deque_baseISt4pairIiNSt7__cxx1112basic_stringIcSt11char_traitsIcESaIcEEEESaIS7_EE15_M_allocate_mapEm,"axG",@progbits,_ZNSt11_Deque_baseISt4pairIiNSt7__cxx1112basic_stringIcSt11char_traitsIcESaIcEEEESaIS7_EE15_M_allocate_mapEm,comdat
	.align	2
	.weak	_ZNSt11_Deque_baseISt4pairIiNSt7__cxx1112basic_stringIcSt11char_traitsIcESaIcEEEESaIS7_EE15_M_allocate_mapEm
	.type	_ZNSt11_Deque_baseISt4pairIiNSt7__cxx1112basic_stringIcSt11char_traitsIcESaIcEEEESaIS7_EE15_M_allocate_mapEm, %function
_ZNSt11_Deque_baseISt4pairIiNSt7__cxx1112basic_stringIcSt11char_traitsIcESaIcEEEESaIS7_EE15_M_allocate_mapEm:
.LFB11251:
	.cfi_startproc
	.cfi_personality 0x9b,DW.ref.__gxx_personality_v0
	.cfi_lsda 0x1b,.LLSDA11251
	stp	x29, x30, [sp, -64]!
	.cfi_def_cfa_offset 64
	.cfi_offset 29, -64
	.cfi_offset 30, -56
	mov	x29, sp
	str	x19, [sp, 16]
	.cfi_offset 19, -48
	str	x0, [sp, 40]
	str	x1, [sp, 32]
	add	x0, sp, 56
	mov	x8, x0
	ldr	x0, [sp, 40]
	bl	_ZNKSt11_Deque_baseISt4pairIiNSt7__cxx1112basic_stringIcSt11char_traitsIcESaIcEEEESaIS7_EE20_M_get_map_allocatorEv
	add	x0, sp, 56
	ldr	x1, [sp, 32]
.LEHB20:
	bl	_ZNSt16allocator_traitsISaIPSt4pairIiNSt7__cxx1112basic_stringIcSt11char_traitsIcESaIcEEEEEE8allocateERS9_m
.LEHE20:
	mov	x19, x0
	nop
	add	x0, sp, 56
	bl	_ZNSaIPSt4pairIiNSt7__cxx1112basic_stringIcSt11char_traitsIcESaIcEEEEED1Ev
	mov	x0, x19
	b	.L172
.L171:
	mov	x19, x0
	add	x0, sp, 56
	bl	_ZNSaIPSt4pairIiNSt7__cxx1112basic_stringIcSt11char_traitsIcESaIcEEEEED1Ev
	mov	x0, x19
.LEHB21:
	bl	_Unwind_Resume
.LEHE21:
.L172:
	ldr	x19, [sp, 16]
	ldp	x29, x30, [sp], 64
	.cfi_restore 30
	.cfi_restore 29
	.cfi_restore 19
	.cfi_def_cfa_offset 0
	ret
	.cfi_endproc
.LFE11251:
	.section	.gcc_except_table
.LLSDA11251:
	.byte	0xff
	.byte	0xff
	.byte	0x1
	.uleb128 .LLSDACSE11251-.LLSDACSB11251
.LLSDACSB11251:
	.uleb128 .LEHB20-.LFB11251
	.uleb128 .LEHE20-.LEHB20
	.uleb128 .L171-.LFB11251
	.uleb128 0
	.uleb128 .LEHB21-.LFB11251
	.uleb128 .LEHE21-.LEHB21
	.uleb128 0
	.uleb128 0
.LLSDACSE11251:
	.section	.text._ZNSt11_Deque_baseISt4pairIiNSt7__cxx1112basic_stringIcSt11char_traitsIcESaIcEEEESaIS7_EE15_M_allocate_mapEm,"axG",@progbits,_ZNSt11_Deque_baseISt4pairIiNSt7__cxx1112basic_stringIcSt11char_traitsIcESaIcEEEESaIS7_EE15_M_allocate_mapEm,comdat
	.size	_ZNSt11_Deque_baseISt4pairIiNSt7__cxx1112basic_stringIcSt11char_traitsIcESaIcEEEESaIS7_EE15_M_allocate_mapEm, .-_ZNSt11_Deque_baseISt4pairIiNSt7__cxx1112basic_stringIcSt11char_traitsIcESaIcEEEESaIS7_EE15_M_allocate_mapEm
	.section	.text._ZNSt11_Deque_baseISt4pairIiNSt7__cxx1112basic_stringIcSt11char_traitsIcESaIcEEEESaIS7_EE15_M_create_nodesEPPS7_SB_,"axG",@progbits,_ZNSt11_Deque_baseISt4pairIiNSt7__cxx1112basic_stringIcSt11char_traitsIcESaIcEEEESaIS7_EE15_M_create_nodesEPPS7_SB_,comdat
	.align	2
	.weak	_ZNSt11_Deque_baseISt4pairIiNSt7__cxx1112basic_stringIcSt11char_traitsIcESaIcEEEESaIS7_EE15_M_create_nodesEPPS7_SB_
	.type	_ZNSt11_Deque_baseISt4pairIiNSt7__cxx1112basic_stringIcSt11char_traitsIcESaIcEEEESaIS7_EE15_M_create_nodesEPPS7_SB_, %function
_ZNSt11_Deque_baseISt4pairIiNSt7__cxx1112basic_stringIcSt11char_traitsIcESaIcEEEESaIS7_EE15_M_create_nodesEPPS7_SB_:
.LFB11252:
	.cfi_startproc
	.cfi_personality 0x9b,DW.ref.__gxx_personality_v0
	.cfi_lsda 0x1b,.LLSDA11252
	stp	x29, x30, [sp, -80]!
	.cfi_def_cfa_offset 80
	.cfi_offset 29, -80
	.cfi_offset 30, -72
	mov	x29, sp
	str	x19, [sp, 16]
	.cfi_offset 19, -64
	str	x0, [sp, 56]
	str	x1, [sp, 48]
	str	x2, [sp, 40]
	ldr	x0, [sp, 48]
	str	x0, [sp, 72]
	b	.L174
.L175:
	ldr	x0, [sp, 56]
.LEHB22:
	bl	_ZNSt11_Deque_baseISt4pairIiNSt7__cxx1112basic_stringIcSt11char_traitsIcESaIcEEEESaIS7_EE16_M_allocate_nodeEv
.LEHE22:
	mov	x1, x0
	ldr	x0, [sp, 72]
	str	x1, [x0]
	ldr	x0, [sp, 72]
	add	x0, x0, 8
	str	x0, [sp, 72]
.L174:
	ldr	x1, [sp, 72]
	ldr	x0, [sp, 40]
	cmp	x1, x0
	bcc	.L175
	b	.L180
.L178:
	bl	__cxa_begin_catch
	ldr	x2, [sp, 72]
	ldr	x1, [sp, 48]
	ldr	x0, [sp, 56]
	bl	_ZNSt11_Deque_baseISt4pairIiNSt7__cxx1112basic_stringIcSt11char_traitsIcESaIcEEEESaIS7_EE16_M_destroy_nodesEPPS7_SB_
.LEHB23:
	bl	__cxa_rethrow
.LEHE23:
.L179:
	mov	x19, x0
	bl	__cxa_end_catch
	mov	x0, x19
.LEHB24:
	bl	_Unwind_Resume
.LEHE24:
.L180:
	ldr	x19, [sp, 16]
	ldp	x29, x30, [sp], 80
	.cfi_restore 30
	.cfi_restore 29
	.cfi_restore 19
	.cfi_def_cfa_offset 0
	ret
	.cfi_endproc
.LFE11252:
	.section	.gcc_except_table
	.align	2
.LLSDA11252:
	.byte	0xff
	.byte	0x9b
	.uleb128 .LLSDATT11252-.LLSDATTD11252
.LLSDATTD11252:
	.byte	0x1
	.uleb128 .LLSDACSE11252-.LLSDACSB11252
.LLSDACSB11252:
	.uleb128 .LEHB22-.LFB11252
	.uleb128 .LEHE22-.LEHB22
	.uleb128 .L178-.LFB11252
	.uleb128 0x1
	.uleb128 .LEHB23-.LFB11252
	.uleb128 .LEHE23-.LEHB23
	.uleb128 .L179-.LFB11252
	.uleb128 0
	.uleb128 .LEHB24-.LFB11252
	.uleb128 .LEHE24-.LEHB24
	.uleb128 0
	.uleb128 0
.LLSDACSE11252:
	.byte	0x1
	.byte	0
	.align	2
	.4byte	0

.LLSDATT11252:
	.section	.text._ZNSt11_Deque_baseISt4pairIiNSt7__cxx1112basic_stringIcSt11char_traitsIcESaIcEEEESaIS7_EE15_M_create_nodesEPPS7_SB_,"axG",@progbits,_ZNSt11_Deque_baseISt4pairIiNSt7__cxx1112basic_stringIcSt11char_traitsIcESaIcEEEESaIS7_EE15_M_create_nodesEPPS7_SB_,comdat
	.size	_ZNSt11_Deque_baseISt4pairIiNSt7__cxx1112basic_stringIcSt11char_traitsIcESaIcEEEESaIS7_EE15_M_create_nodesEPPS7_SB_, .-_ZNSt11_Deque_baseISt4pairIiNSt7__cxx1112basic_stringIcSt11char_traitsIcESaIcEEEESaIS7_EE15_M_create_nodesEPPS7_SB_
	.section	.text._ZNSt15_Deque_iteratorISt4pairIiNSt7__cxx1112basic_stringIcSt11char_traitsIcESaIcEEEERS7_PS7_E11_M_set_nodeEPS9_,"axG",@progbits,_ZNSt15_Deque_iteratorISt4pairIiNSt7__cxx1112basic_stringIcSt11char_traitsIcESaIcEEEERS7_PS7_E11_M_set_nodeEPS9_,comdat
	.align	2
	.weak	_ZNSt15_Deque_iteratorISt4pairIiNSt7__cxx1112basic_stringIcSt11char_traitsIcESaIcEEEERS7_PS7_E11_M_set_nodeEPS9_
	.type	_ZNSt15_Deque_iteratorISt4pairIiNSt7__cxx1112basic_stringIcSt11char_traitsIcESaIcEEEERS7_PS7_E11_M_set_nodeEPS9_, %function
_ZNSt15_Deque_iteratorISt4pairIiNSt7__cxx1112basic_stringIcSt11char_traitsIcESaIcEEEERS7_PS7_E11_M_set_nodeEPS9_:
.LFB11253:
	.cfi_startproc
	stp	x29, x30, [sp, -48]!
	.cfi_def_cfa_offset 48
	.cfi_offset 29, -48
	.cfi_offset 30, -40
	mov	x29, sp
	str	x19, [sp, 16]
	.cfi_offset 19, -32
	str	x0, [sp, 40]
	str	x1, [sp, 32]
	ldr	x0, [sp, 40]
	ldr	x1, [sp, 32]
	str	x1, [x0, 24]
	ldr	x0, [sp, 32]
	ldr	x1, [x0]
	ldr	x0, [sp, 40]
	str	x1, [x0, 8]
	ldr	x0, [sp, 40]
	ldr	x19, [x0, 8]
	bl	_ZNSt15_Deque_iteratorISt4pairIiNSt7__cxx1112basic_stringIcSt11char_traitsIcESaIcEEEERS7_PS7_E14_S_buffer_sizeEv
	mov	x1, x0
	mov	x0, x1
	lsl	x0, x0, 2
	add	x0, x0, x1
	lsl	x0, x0, 3
	add	x1, x19, x0
	ldr	x0, [sp, 40]
	str	x1, [x0, 16]
	nop
	ldr	x19, [sp, 16]
	ldp	x29, x30, [sp], 48
	.cfi_restore 30
	.cfi_restore 29
	.cfi_restore 19
	.cfi_def_cfa_offset 0
	ret
	.cfi_endproc
.LFE11253:
	.size	_ZNSt15_Deque_iteratorISt4pairIiNSt7__cxx1112basic_stringIcSt11char_traitsIcESaIcEEEERS7_PS7_E11_M_set_nodeEPS9_, .-_ZNSt15_Deque_iteratorISt4pairIiNSt7__cxx1112basic_stringIcSt11char_traitsIcESaIcEEEERS7_PS7_E11_M_set_nodeEPS9_
	.section	.text._ZNSt11_Deque_baseISt4pairIiNSt7__cxx1112basic_stringIcSt11char_traitsIcESaIcEEEESaIS7_EE18_M_deallocate_nodeEPS7_,"axG",@progbits,_ZNSt11_Deque_baseISt4pairIiNSt7__cxx1112basic_stringIcSt11char_traitsIcESaIcEEEESaIS7_EE18_M_deallocate_nodeEPS7_,comdat
	.align	2
	.weak	_ZNSt11_Deque_baseISt4pairIiNSt7__cxx1112basic_stringIcSt11char_traitsIcESaIcEEEESaIS7_EE18_M_deallocate_nodeEPS7_
	.type	_ZNSt11_Deque_baseISt4pairIiNSt7__cxx1112basic_stringIcSt11char_traitsIcESaIcEEEESaIS7_EE18_M_deallocate_nodeEPS7_, %function
_ZNSt11_Deque_baseISt4pairIiNSt7__cxx1112basic_stringIcSt11char_traitsIcESaIcEEEESaIS7_EE18_M_deallocate_nodeEPS7_:
.LFB11254:
	.cfi_startproc
	.cfi_personality 0x9b,DW.ref.__gxx_personality_v0
	.cfi_lsda 0x1b,.LLSDA11254
	stp	x29, x30, [sp, -48]!
	.cfi_def_cfa_offset 48
	.cfi_offset 29, -48
	.cfi_offset 30, -40
	mov	x29, sp
	str	x19, [sp, 16]
	.cfi_offset 19, -32
	str	x0, [sp, 40]
	str	x1, [sp, 32]
	ldr	x19, [sp, 40]
	mov	x0, 40
	bl	_ZSt16__deque_buf_sizem
	mov	x2, x0
	ldr	x1, [sp, 32]
	mov	x0, x19
	bl	_ZNSt16allocator_traitsISaISt4pairIiNSt7__cxx1112basic_stringIcSt11char_traitsIcESaIcEEEEEE10deallocateERS8_PS7_m
	nop
	ldr	x19, [sp, 16]
	ldp	x29, x30, [sp], 48
	.cfi_restore 30
	.cfi_restore 29
	.cfi_restore 19
	.cfi_def_cfa_offset 0
	ret
	.cfi_endproc
.LFE11254:
	.section	.gcc_except_table
.LLSDA11254:
	.byte	0xff
	.byte	0xff
	.byte	0x1
	.uleb128 .LLSDACSE11254-.LLSDACSB11254
.LLSDACSB11254:
.LLSDACSE11254:
	.section	.text._ZNSt11_Deque_baseISt4pairIiNSt7__cxx1112basic_stringIcSt11char_traitsIcESaIcEEEESaIS7_EE18_M_deallocate_nodeEPS7_,"axG",@progbits,_ZNSt11_Deque_baseISt4pairIiNSt7__cxx1112basic_stringIcSt11char_traitsIcESaIcEEEESaIS7_EE18_M_deallocate_nodeEPS7_,comdat
	.size	_ZNSt11_Deque_baseISt4pairIiNSt7__cxx1112basic_stringIcSt11char_traitsIcESaIcEEEESaIS7_EE18_M_deallocate_nodeEPS7_, .-_ZNSt11_Deque_baseISt4pairIiNSt7__cxx1112basic_stringIcSt11char_traitsIcESaIcEEEESaIS7_EE18_M_deallocate_nodeEPS7_
	.section	.text._ZNKSt11_Deque_baseISt4pairIiNSt7__cxx1112basic_stringIcSt11char_traitsIcESaIcEEEESaIS7_EE20_M_get_map_allocatorEv,"axG",@progbits,_ZNKSt11_Deque_baseISt4pairIiNSt7__cxx1112basic_stringIcSt11char_traitsIcESaIcEEEESaIS7_EE20_M_get_map_allocatorEv,comdat
	.align	2
	.weak	_ZNKSt11_Deque_baseISt4pairIiNSt7__cxx1112basic_stringIcSt11char_traitsIcESaIcEEEESaIS7_EE20_M_get_map_allocatorEv
	.type	_ZNKSt11_Deque_baseISt4pairIiNSt7__cxx1112basic_stringIcSt11char_traitsIcESaIcEEEESaIS7_EE20_M_get_map_allocatorEv, %function
_ZNKSt11_Deque_baseISt4pairIiNSt7__cxx1112basic_stringIcSt11char_traitsIcESaIcEEEESaIS7_EE20_M_get_map_allocatorEv:
.LFB11255:
	.cfi_startproc
	stp	x29, x30, [sp, -48]!
	.cfi_def_cfa_offset 48
	.cfi_offset 29, -48
	.cfi_offset 30, -40
	mov	x29, sp
	str	x19, [sp, 16]
	.cfi_offset 19, -32
	mov	x19, x8
	str	x0, [sp, 40]
	ldr	x0, [sp, 40]
	bl	_ZNKSt11_Deque_baseISt4pairIiNSt7__cxx1112basic_stringIcSt11char_traitsIcESaIcEEEESaIS7_EE19_M_get_Tp_allocatorEv
	mov	x1, x0
	mov	x0, x19
	bl	_ZNSaIPSt4pairIiNSt7__cxx1112basic_stringIcSt11char_traitsIcESaIcEEEEEC1IS6_EERKSaIT_E
	mov	x0, x19
	ldr	x19, [sp, 16]
	ldp	x29, x30, [sp], 48
	.cfi_restore 30
	.cfi_restore 29
	.cfi_restore 19
	.cfi_def_cfa_offset 0
	ret
	.cfi_endproc
.LFE11255:
	.size	_ZNKSt11_Deque_baseISt4pairIiNSt7__cxx1112basic_stringIcSt11char_traitsIcESaIcEEEESaIS7_EE20_M_get_map_allocatorEv, .-_ZNKSt11_Deque_baseISt4pairIiNSt7__cxx1112basic_stringIcSt11char_traitsIcESaIcEEEESaIS7_EE20_M_get_map_allocatorEv
	.section	.text._ZNSaIPSt4pairIiNSt7__cxx1112basic_stringIcSt11char_traitsIcESaIcEEEEED2Ev,"axG",@progbits,_ZNSaIPSt4pairIiNSt7__cxx1112basic_stringIcSt11char_traitsIcESaIcEEEEED5Ev,comdat
	.align	2
	.weak	_ZNSaIPSt4pairIiNSt7__cxx1112basic_stringIcSt11char_traitsIcESaIcEEEEED2Ev
	.type	_ZNSaIPSt4pairIiNSt7__cxx1112basic_stringIcSt11char_traitsIcESaIcEEEEED2Ev, %function
_ZNSaIPSt4pairIiNSt7__cxx1112basic_stringIcSt11char_traitsIcESaIcEEEEED2Ev:
.LFB11257:
	.cfi_startproc
	stp	x29, x30, [sp, -32]!
	.cfi_def_cfa_offset 32
	.cfi_offset 29, -32
	.cfi_offset 30, -24
	mov	x29, sp
	str	x0, [sp, 24]
	ldr	x0, [sp, 24]
	bl	_ZN9__gnu_cxx13new_allocatorIPSt4pairIiNSt7__cxx1112basic_stringIcSt11char_traitsIcESaIcEEEEED2Ev
	nop
	ldp	x29, x30, [sp], 32
	.cfi_restore 30
	.cfi_restore 29
	.cfi_def_cfa_offset 0
	ret
	.cfi_endproc
.LFE11257:
	.size	_ZNSaIPSt4pairIiNSt7__cxx1112basic_stringIcSt11char_traitsIcESaIcEEEEED2Ev, .-_ZNSaIPSt4pairIiNSt7__cxx1112basic_stringIcSt11char_traitsIcESaIcEEEEED2Ev
	.weak	_ZNSaIPSt4pairIiNSt7__cxx1112basic_stringIcSt11char_traitsIcESaIcEEEEED1Ev
	.set	_ZNSaIPSt4pairIiNSt7__cxx1112basic_stringIcSt11char_traitsIcESaIcEEEEED1Ev,_ZNSaIPSt4pairIiNSt7__cxx1112basic_stringIcSt11char_traitsIcESaIcEEEEED2Ev
	.section	.text._ZNSt16allocator_traitsISaIPSt4pairIiNSt7__cxx1112basic_stringIcSt11char_traitsIcESaIcEEEEEE10deallocateERS9_PS8_m,"axG",@progbits,_ZNSt16allocator_traitsISaIPSt4pairIiNSt7__cxx1112basic_stringIcSt11char_traitsIcESaIcEEEEEE10deallocateERS9_PS8_m,comdat
	.align	2
	.weak	_ZNSt16allocator_traitsISaIPSt4pairIiNSt7__cxx1112basic_stringIcSt11char_traitsIcESaIcEEEEEE10deallocateERS9_PS8_m
	.type	_ZNSt16allocator_traitsISaIPSt4pairIiNSt7__cxx1112basic_stringIcSt11char_traitsIcESaIcEEEEEE10deallocateERS9_PS8_m, %function
_ZNSt16allocator_traitsISaIPSt4pairIiNSt7__cxx1112basic_stringIcSt11char_traitsIcESaIcEEEEEE10deallocateERS9_PS8_m:
.LFB11259:
	.cfi_startproc
	stp	x29, x30, [sp, -48]!
	.cfi_def_cfa_offset 48
	.cfi_offset 29, -48
	.cfi_offset 30, -40
	mov	x29, sp
	str	x0, [sp, 40]
	str	x1, [sp, 32]
	str	x2, [sp, 24]
	ldr	x2, [sp, 24]
	ldr	x1, [sp, 32]
	ldr	x0, [sp, 40]
	bl	_ZN9__gnu_cxx13new_allocatorIPSt4pairIiNSt7__cxx1112basic_stringIcSt11char_traitsIcESaIcEEEEE10deallocateEPS9_m
	nop
	ldp	x29, x30, [sp], 48
	.cfi_restore 30
	.cfi_restore 29
	.cfi_def_cfa_offset 0
	ret
	.cfi_endproc
.LFE11259:
	.size	_ZNSt16allocator_traitsISaIPSt4pairIiNSt7__cxx1112basic_stringIcSt11char_traitsIcESaIcEEEEEE10deallocateERS9_PS8_m, .-_ZNSt16allocator_traitsISaIPSt4pairIiNSt7__cxx1112basic_stringIcSt11char_traitsIcESaIcEEEEEE10deallocateERS9_PS8_m
	.section	.text._ZNSt5dequeISt4pairIiNSt7__cxx1112basic_stringIcSt11char_traitsIcESaIcEEEESaIS7_EE14_S_buffer_sizeEv,"axG",@progbits,_ZNSt5dequeISt4pairIiNSt7__cxx1112basic_stringIcSt11char_traitsIcESaIcEEEESaIS7_EE14_S_buffer_sizeEv,comdat
	.align	2
	.weak	_ZNSt5dequeISt4pairIiNSt7__cxx1112basic_stringIcSt11char_traitsIcESaIcEEEESaIS7_EE14_S_buffer_sizeEv
	.type	_ZNSt5dequeISt4pairIiNSt7__cxx1112basic_stringIcSt11char_traitsIcESaIcEEEESaIS7_EE14_S_buffer_sizeEv, %function
_ZNSt5dequeISt4pairIiNSt7__cxx1112basic_stringIcSt11char_traitsIcESaIcEEEESaIS7_EE14_S_buffer_sizeEv:
.LFB11260:
	.cfi_startproc
	stp	x29, x30, [sp, -16]!
	.cfi_def_cfa_offset 16
	.cfi_offset 29, -16
	.cfi_offset 30, -8
	mov	x29, sp
	mov	x0, 40
	bl	_ZSt16__deque_buf_sizem
	ldp	x29, x30, [sp], 16
	.cfi_restore 30
	.cfi_restore 29
	.cfi_def_cfa_offset 0
	ret
	.cfi_endproc
.LFE11260:
	.size	_ZNSt5dequeISt4pairIiNSt7__cxx1112basic_stringIcSt11char_traitsIcESaIcEEEESaIS7_EE14_S_buffer_sizeEv, .-_ZNSt5dequeISt4pairIiNSt7__cxx1112basic_stringIcSt11char_traitsIcESaIcEEEESaIS7_EE14_S_buffer_sizeEv
	.section	.text._ZSt8_DestroyIPSt4pairIiNSt7__cxx1112basic_stringIcSt11char_traitsIcESaIcEEEES7_EvT_S9_RSaIT0_E,"axG",@progbits,_ZSt8_DestroyIPSt4pairIiNSt7__cxx1112basic_stringIcSt11char_traitsIcESaIcEEEES7_EvT_S9_RSaIT0_E,comdat
	.align	2
	.weak	_ZSt8_DestroyIPSt4pairIiNSt7__cxx1112basic_stringIcSt11char_traitsIcESaIcEEEES7_EvT_S9_RSaIT0_E
	.type	_ZSt8_DestroyIPSt4pairIiNSt7__cxx1112basic_stringIcSt11char_traitsIcESaIcEEEES7_EvT_S9_RSaIT0_E, %function
_ZSt8_DestroyIPSt4pairIiNSt7__cxx1112basic_stringIcSt11char_traitsIcESaIcEEEES7_EvT_S9_RSaIT0_E:
.LFB11261:
	.cfi_startproc
	stp	x29, x30, [sp, -48]!
	.cfi_def_cfa_offset 48
	.cfi_offset 29, -48
	.cfi_offset 30, -40
	mov	x29, sp
	str	x0, [sp, 40]
	str	x1, [sp, 32]
	str	x2, [sp, 24]
	ldr	x1, [sp, 32]
	ldr	x0, [sp, 40]
	bl	_ZSt8_DestroyIPSt4pairIiNSt7__cxx1112basic_stringIcSt11char_traitsIcESaIcEEEEEvT_S9_
	nop
	ldp	x29, x30, [sp], 48
	.cfi_restore 30
	.cfi_restore 29
	.cfi_def_cfa_offset 0
	ret
	.cfi_endproc
.LFE11261:
	.size	_ZSt8_DestroyIPSt4pairIiNSt7__cxx1112basic_stringIcSt11char_traitsIcESaIcEEEES7_EvT_S9_RSaIT0_E, .-_ZSt8_DestroyIPSt4pairIiNSt7__cxx1112basic_stringIcSt11char_traitsIcESaIcEEEES7_EvT_S9_RSaIT0_E
	.section	.text._ZNSaIiEC2Ev,"axG",@progbits,_ZNSaIiEC5Ev,comdat
	.align	2
	.weak	_ZNSaIiEC2Ev
	.type	_ZNSaIiEC2Ev, %function
_ZNSaIiEC2Ev:
.LFB11263:
	.cfi_startproc
	stp	x29, x30, [sp, -32]!
	.cfi_def_cfa_offset 32
	.cfi_offset 29, -32
	.cfi_offset 30, -24
	mov	x29, sp
	str	x0, [sp, 24]
	ldr	x0, [sp, 24]
	bl	_ZN9__gnu_cxx13new_allocatorIiEC2Ev
	nop
	ldp	x29, x30, [sp], 32
	.cfi_restore 30
	.cfi_restore 29
	.cfi_def_cfa_offset 0
	ret
	.cfi_endproc
.LFE11263:
	.size	_ZNSaIiEC2Ev, .-_ZNSaIiEC2Ev
	.weak	_ZNSaIiEC1Ev
	.set	_ZNSaIiEC1Ev,_ZNSaIiEC2Ev
	.section	.text._ZNSt11_Deque_baseIiSaIiEE16_Deque_impl_dataC2Ev,"axG",@progbits,_ZNSt11_Deque_baseIiSaIiEE16_Deque_impl_dataC5Ev,comdat
	.align	2
	.weak	_ZNSt11_Deque_baseIiSaIiEE16_Deque_impl_dataC2Ev
	.type	_ZNSt11_Deque_baseIiSaIiEE16_Deque_impl_dataC2Ev, %function
_ZNSt11_Deque_baseIiSaIiEE16_Deque_impl_dataC2Ev:
.LFB11266:
	.cfi_startproc
	stp	x29, x30, [sp, -32]!
	.cfi_def_cfa_offset 32
	.cfi_offset 29, -32
	.cfi_offset 30, -24
	mov	x29, sp
	str	x0, [sp, 24]
	ldr	x0, [sp, 24]
	str	xzr, [x0]
	ldr	x0, [sp, 24]
	str	xzr, [x0, 8]
	ldr	x0, [sp, 24]
	add	x0, x0, 16
	bl	_ZNSt15_Deque_iteratorIiRiPiEC1Ev
	ldr	x0, [sp, 24]
	add	x0, x0, 48
	bl	_ZNSt15_Deque_iteratorIiRiPiEC1Ev
	nop
	ldp	x29, x30, [sp], 32
	.cfi_restore 30
	.cfi_restore 29
	.cfi_def_cfa_offset 0
	ret
	.cfi_endproc
.LFE11266:
	.size	_ZNSt11_Deque_baseIiSaIiEE16_Deque_impl_dataC2Ev, .-_ZNSt11_Deque_baseIiSaIiEE16_Deque_impl_dataC2Ev
	.weak	_ZNSt11_Deque_baseIiSaIiEE16_Deque_impl_dataC1Ev
	.set	_ZNSt11_Deque_baseIiSaIiEE16_Deque_impl_dataC1Ev,_ZNSt11_Deque_baseIiSaIiEE16_Deque_impl_dataC2Ev
	.section	.text._ZN9__gnu_cxx13new_allocatorIiED2Ev,"axG",@progbits,_ZN9__gnu_cxx13new_allocatorIiED5Ev,comdat
	.align	2
	.weak	_ZN9__gnu_cxx13new_allocatorIiED2Ev
	.type	_ZN9__gnu_cxx13new_allocatorIiED2Ev, %function
_ZN9__gnu_cxx13new_allocatorIiED2Ev:
.LFB11269:
	.cfi_startproc
	sub	sp, sp, #16
	.cfi_def_cfa_offset 16
	str	x0, [sp, 8]
	nop
	add	sp, sp, 16
	.cfi_def_cfa_offset 0
	ret
	.cfi_endproc
.LFE11269:
	.size	_ZN9__gnu_cxx13new_allocatorIiED2Ev, .-_ZN9__gnu_cxx13new_allocatorIiED2Ev
	.weak	_ZN9__gnu_cxx13new_allocatorIiED1Ev
	.set	_ZN9__gnu_cxx13new_allocatorIiED1Ev,_ZN9__gnu_cxx13new_allocatorIiED2Ev
	.section	.text._ZNSt11_Deque_baseIiSaIiEE15_M_allocate_mapEm,"axG",@progbits,_ZNSt11_Deque_baseIiSaIiEE15_M_allocate_mapEm,comdat
	.align	2
	.weak	_ZNSt11_Deque_baseIiSaIiEE15_M_allocate_mapEm
	.type	_ZNSt11_Deque_baseIiSaIiEE15_M_allocate_mapEm, %function
_ZNSt11_Deque_baseIiSaIiEE15_M_allocate_mapEm:
.LFB11271:
	.cfi_startproc
	.cfi_personality 0x9b,DW.ref.__gxx_personality_v0
	.cfi_lsda 0x1b,.LLSDA11271
	stp	x29, x30, [sp, -64]!
	.cfi_def_cfa_offset 64
	.cfi_offset 29, -64
	.cfi_offset 30, -56
	mov	x29, sp
	str	x19, [sp, 16]
	.cfi_offset 19, -48
	str	x0, [sp, 40]
	str	x1, [sp, 32]
	add	x0, sp, 56
	mov	x8, x0
	ldr	x0, [sp, 40]
	bl	_ZNKSt11_Deque_baseIiSaIiEE20_M_get_map_allocatorEv
	add	x0, sp, 56
	ldr	x1, [sp, 32]
.LEHB25:
	bl	_ZNSt16allocator_traitsISaIPiEE8allocateERS1_m
.LEHE25:
	mov	x19, x0
	nop
	add	x0, sp, 56
	bl	_ZNSaIPiED1Ev
	mov	x0, x19
	b	.L197
.L196:
	mov	x19, x0
	add	x0, sp, 56
	bl	_ZNSaIPiED1Ev
	mov	x0, x19
.LEHB26:
	bl	_Unwind_Resume
.LEHE26:
.L197:
	ldr	x19, [sp, 16]
	ldp	x29, x30, [sp], 64
	.cfi_restore 30
	.cfi_restore 29
	.cfi_restore 19
	.cfi_def_cfa_offset 0
	ret
	.cfi_endproc
.LFE11271:
	.section	.gcc_except_table
.LLSDA11271:
	.byte	0xff
	.byte	0xff
	.byte	0x1
	.uleb128 .LLSDACSE11271-.LLSDACSB11271
.LLSDACSB11271:
	.uleb128 .LEHB25-.LFB11271
	.uleb128 .LEHE25-.LEHB25
	.uleb128 .L196-.LFB11271
	.uleb128 0
	.uleb128 .LEHB26-.LFB11271
	.uleb128 .LEHE26-.LEHB26
	.uleb128 0
	.uleb128 0
.LLSDACSE11271:
	.section	.text._ZNSt11_Deque_baseIiSaIiEE15_M_allocate_mapEm,"axG",@progbits,_ZNSt11_Deque_baseIiSaIiEE15_M_allocate_mapEm,comdat
	.size	_ZNSt11_Deque_baseIiSaIiEE15_M_allocate_mapEm, .-_ZNSt11_Deque_baseIiSaIiEE15_M_allocate_mapEm
	.section	.text._ZNSt11_Deque_baseIiSaIiEE15_M_create_nodesEPPiS3_,"axG",@progbits,_ZNSt11_Deque_baseIiSaIiEE15_M_create_nodesEPPiS3_,comdat
	.align	2
	.weak	_ZNSt11_Deque_baseIiSaIiEE15_M_create_nodesEPPiS3_
	.type	_ZNSt11_Deque_baseIiSaIiEE15_M_create_nodesEPPiS3_, %function
_ZNSt11_Deque_baseIiSaIiEE15_M_create_nodesEPPiS3_:
.LFB11272:
	.cfi_startproc
	.cfi_personality 0x9b,DW.ref.__gxx_personality_v0
	.cfi_lsda 0x1b,.LLSDA11272
	stp	x29, x30, [sp, -80]!
	.cfi_def_cfa_offset 80
	.cfi_offset 29, -80
	.cfi_offset 30, -72
	mov	x29, sp
	str	x19, [sp, 16]
	.cfi_offset 19, -64
	str	x0, [sp, 56]
	str	x1, [sp, 48]
	str	x2, [sp, 40]
	ldr	x0, [sp, 48]
	str	x0, [sp, 72]
	b	.L199
.L200:
	ldr	x0, [sp, 56]
.LEHB27:
	bl	_ZNSt11_Deque_baseIiSaIiEE16_M_allocate_nodeEv
.LEHE27:
	mov	x1, x0
	ldr	x0, [sp, 72]
	str	x1, [x0]
	ldr	x0, [sp, 72]
	add	x0, x0, 8
	str	x0, [sp, 72]
.L199:
	ldr	x1, [sp, 72]
	ldr	x0, [sp, 40]
	cmp	x1, x0
	bcc	.L200
	b	.L205
.L203:
	bl	__cxa_begin_catch
	ldr	x2, [sp, 72]
	ldr	x1, [sp, 48]
	ldr	x0, [sp, 56]
	bl	_ZNSt11_Deque_baseIiSaIiEE16_M_destroy_nodesEPPiS3_
.LEHB28:
	bl	__cxa_rethrow
.LEHE28:
.L204:
	mov	x19, x0
	bl	__cxa_end_catch
	mov	x0, x19
.LEHB29:
	bl	_Unwind_Resume
.LEHE29:
.L205:
	ldr	x19, [sp, 16]
	ldp	x29, x30, [sp], 80
	.cfi_restore 30
	.cfi_restore 29
	.cfi_restore 19
	.cfi_def_cfa_offset 0
	ret
	.cfi_endproc
.LFE11272:
	.section	.gcc_except_table
	.align	2
.LLSDA11272:
	.byte	0xff
	.byte	0x9b
	.uleb128 .LLSDATT11272-.LLSDATTD11272
.LLSDATTD11272:
	.byte	0x1
	.uleb128 .LLSDACSE11272-.LLSDACSB11272
.LLSDACSB11272:
	.uleb128 .LEHB27-.LFB11272
	.uleb128 .LEHE27-.LEHB27
	.uleb128 .L203-.LFB11272
	.uleb128 0x1
	.uleb128 .LEHB28-.LFB11272
	.uleb128 .LEHE28-.LEHB28
	.uleb128 .L204-.LFB11272
	.uleb128 0
	.uleb128 .LEHB29-.LFB11272
	.uleb128 .LEHE29-.LEHB29
	.uleb128 0
	.uleb128 0
.LLSDACSE11272:
	.byte	0x1
	.byte	0
	.align	2
	.4byte	0

.LLSDATT11272:
	.section	.text._ZNSt11_Deque_baseIiSaIiEE15_M_create_nodesEPPiS3_,"axG",@progbits,_ZNSt11_Deque_baseIiSaIiEE15_M_create_nodesEPPiS3_,comdat
	.size	_ZNSt11_Deque_baseIiSaIiEE15_M_create_nodesEPPiS3_, .-_ZNSt11_Deque_baseIiSaIiEE15_M_create_nodesEPPiS3_
	.section	.text._ZNSt15_Deque_iteratorIiRiPiE11_M_set_nodeEPS1_,"axG",@progbits,_ZNSt15_Deque_iteratorIiRiPiE11_M_set_nodeEPS1_,comdat
	.align	2
	.weak	_ZNSt15_Deque_iteratorIiRiPiE11_M_set_nodeEPS1_
	.type	_ZNSt15_Deque_iteratorIiRiPiE11_M_set_nodeEPS1_, %function
_ZNSt15_Deque_iteratorIiRiPiE11_M_set_nodeEPS1_:
.LFB11273:
	.cfi_startproc
	stp	x29, x30, [sp, -48]!
	.cfi_def_cfa_offset 48
	.cfi_offset 29, -48
	.cfi_offset 30, -40
	mov	x29, sp
	str	x19, [sp, 16]
	.cfi_offset 19, -32
	str	x0, [sp, 40]
	str	x1, [sp, 32]
	ldr	x0, [sp, 40]
	ldr	x1, [sp, 32]
	str	x1, [x0, 24]
	ldr	x0, [sp, 32]
	ldr	x1, [x0]
	ldr	x0, [sp, 40]
	str	x1, [x0, 8]
	ldr	x0, [sp, 40]
	ldr	x19, [x0, 8]
	bl	_ZNSt15_Deque_iteratorIiRiPiE14_S_buffer_sizeEv
	lsl	x0, x0, 2
	add	x1, x19, x0
	ldr	x0, [sp, 40]
	str	x1, [x0, 16]
	nop
	ldr	x19, [sp, 16]
	ldp	x29, x30, [sp], 48
	.cfi_restore 30
	.cfi_restore 29
	.cfi_restore 19
	.cfi_def_cfa_offset 0
	ret
	.cfi_endproc
.LFE11273:
	.size	_ZNSt15_Deque_iteratorIiRiPiE11_M_set_nodeEPS1_, .-_ZNSt15_Deque_iteratorIiRiPiE11_M_set_nodeEPS1_
	.section	.text._ZNSt11_Deque_baseIiSaIiEE18_M_deallocate_nodeEPi,"axG",@progbits,_ZNSt11_Deque_baseIiSaIiEE18_M_deallocate_nodeEPi,comdat
	.align	2
	.weak	_ZNSt11_Deque_baseIiSaIiEE18_M_deallocate_nodeEPi
	.type	_ZNSt11_Deque_baseIiSaIiEE18_M_deallocate_nodeEPi, %function
_ZNSt11_Deque_baseIiSaIiEE18_M_deallocate_nodeEPi:
.LFB11274:
	.cfi_startproc
	.cfi_personality 0x9b,DW.ref.__gxx_personality_v0
	.cfi_lsda 0x1b,.LLSDA11274
	stp	x29, x30, [sp, -48]!
	.cfi_def_cfa_offset 48
	.cfi_offset 29, -48
	.cfi_offset 30, -40
	mov	x29, sp
	str	x19, [sp, 16]
	.cfi_offset 19, -32
	str	x0, [sp, 40]
	str	x1, [sp, 32]
	ldr	x19, [sp, 40]
	mov	x0, 4
	bl	_ZSt16__deque_buf_sizem
	mov	x2, x0
	ldr	x1, [sp, 32]
	mov	x0, x19
	bl	_ZNSt16allocator_traitsISaIiEE10deallocateERS0_Pim
	nop
	ldr	x19, [sp, 16]
	ldp	x29, x30, [sp], 48
	.cfi_restore 30
	.cfi_restore 29
	.cfi_restore 19
	.cfi_def_cfa_offset 0
	ret
	.cfi_endproc
.LFE11274:
	.section	.gcc_except_table
.LLSDA11274:
	.byte	0xff
	.byte	0xff
	.byte	0x1
	.uleb128 .LLSDACSE11274-.LLSDACSB11274
.LLSDACSB11274:
.LLSDACSE11274:
	.section	.text._ZNSt11_Deque_baseIiSaIiEE18_M_deallocate_nodeEPi,"axG",@progbits,_ZNSt11_Deque_baseIiSaIiEE18_M_deallocate_nodeEPi,comdat
	.size	_ZNSt11_Deque_baseIiSaIiEE18_M_deallocate_nodeEPi, .-_ZNSt11_Deque_baseIiSaIiEE18_M_deallocate_nodeEPi
	.section	.text._ZNKSt11_Deque_baseIiSaIiEE20_M_get_map_allocatorEv,"axG",@progbits,_ZNKSt11_Deque_baseIiSaIiEE20_M_get_map_allocatorEv,comdat
	.align	2
	.weak	_ZNKSt11_Deque_baseIiSaIiEE20_M_get_map_allocatorEv
	.type	_ZNKSt11_Deque_baseIiSaIiEE20_M_get_map_allocatorEv, %function
_ZNKSt11_Deque_baseIiSaIiEE20_M_get_map_allocatorEv:
.LFB11275:
	.cfi_startproc
	stp	x29, x30, [sp, -48]!
	.cfi_def_cfa_offset 48
	.cfi_offset 29, -48
	.cfi_offset 30, -40
	mov	x29, sp
	str	x19, [sp, 16]
	.cfi_offset 19, -32
	mov	x19, x8
	str	x0, [sp, 40]
	ldr	x0, [sp, 40]
	bl	_ZNKSt11_Deque_baseIiSaIiEE19_M_get_Tp_allocatorEv
	mov	x1, x0
	mov	x0, x19
	bl	_ZNSaIPiEC1IiEERKSaIT_E
	mov	x0, x19
	ldr	x19, [sp, 16]
	ldp	x29, x30, [sp], 48
	.cfi_restore 30
	.cfi_restore 29
	.cfi_restore 19
	.cfi_def_cfa_offset 0
	ret
	.cfi_endproc
.LFE11275:
	.size	_ZNKSt11_Deque_baseIiSaIiEE20_M_get_map_allocatorEv, .-_ZNKSt11_Deque_baseIiSaIiEE20_M_get_map_allocatorEv
	.section	.text._ZNSaIPiED2Ev,"axG",@progbits,_ZNSaIPiED5Ev,comdat
	.align	2
	.weak	_ZNSaIPiED2Ev
	.type	_ZNSaIPiED2Ev, %function
_ZNSaIPiED2Ev:
.LFB11277:
	.cfi_startproc
	stp	x29, x30, [sp, -32]!
	.cfi_def_cfa_offset 32
	.cfi_offset 29, -32
	.cfi_offset 30, -24
	mov	x29, sp
	str	x0, [sp, 24]
	ldr	x0, [sp, 24]
	bl	_ZN9__gnu_cxx13new_allocatorIPiED2Ev
	nop
	ldp	x29, x30, [sp], 32
	.cfi_restore 30
	.cfi_restore 29
	.cfi_def_cfa_offset 0
	ret
	.cfi_endproc
.LFE11277:
	.size	_ZNSaIPiED2Ev, .-_ZNSaIPiED2Ev
	.weak	_ZNSaIPiED1Ev
	.set	_ZNSaIPiED1Ev,_ZNSaIPiED2Ev
	.section	.text._ZNSt16allocator_traitsISaIPiEE10deallocateERS1_PS0_m,"axG",@progbits,_ZNSt16allocator_traitsISaIPiEE10deallocateERS1_PS0_m,comdat
	.align	2
	.weak	_ZNSt16allocator_traitsISaIPiEE10deallocateERS1_PS0_m
	.type	_ZNSt16allocator_traitsISaIPiEE10deallocateERS1_PS0_m, %function
_ZNSt16allocator_traitsISaIPiEE10deallocateERS1_PS0_m:
.LFB11279:
	.cfi_startproc
	stp	x29, x30, [sp, -48]!
	.cfi_def_cfa_offset 48
	.cfi_offset 29, -48
	.cfi_offset 30, -40
	mov	x29, sp
	str	x0, [sp, 40]
	str	x1, [sp, 32]
	str	x2, [sp, 24]
	ldr	x2, [sp, 24]
	ldr	x1, [sp, 32]
	ldr	x0, [sp, 40]
	bl	_ZN9__gnu_cxx13new_allocatorIPiE10deallocateEPS1_m
	nop
	ldp	x29, x30, [sp], 48
	.cfi_restore 30
	.cfi_restore 29
	.cfi_def_cfa_offset 0
	ret
	.cfi_endproc
.LFE11279:
	.size	_ZNSt16allocator_traitsISaIPiEE10deallocateERS1_PS0_m, .-_ZNSt16allocator_traitsISaIPiEE10deallocateERS1_PS0_m
	.section	.text._ZSt7forwardISt4pairIiNSt7__cxx1112basic_stringIcSt11char_traitsIcESaIcEEEEEOT_RNSt16remove_referenceIS8_E4typeE,"axG",@progbits,_ZSt7forwardISt4pairIiNSt7__cxx1112basic_stringIcSt11char_traitsIcESaIcEEEEEOT_RNSt16remove_referenceIS8_E4typeE,comdat
	.align	2
	.weak	_ZSt7forwardISt4pairIiNSt7__cxx1112basic_stringIcSt11char_traitsIcESaIcEEEEEOT_RNSt16remove_referenceIS8_E4typeE
	.type	_ZSt7forwardISt4pairIiNSt7__cxx1112basic_stringIcSt11char_traitsIcESaIcEEEEEOT_RNSt16remove_referenceIS8_E4typeE, %function
_ZSt7forwardISt4pairIiNSt7__cxx1112basic_stringIcSt11char_traitsIcESaIcEEEEEOT_RNSt16remove_referenceIS8_E4typeE:
.LFB11282:
	.cfi_startproc
	sub	sp, sp, #16
	.cfi_def_cfa_offset 16
	str	x0, [sp, 8]
	ldr	x0, [sp, 8]
	add	sp, sp, 16
	.cfi_def_cfa_offset 0
	ret
	.cfi_endproc
.LFE11282:
	.size	_ZSt7forwardISt4pairIiNSt7__cxx1112basic_stringIcSt11char_traitsIcESaIcEEEEEOT_RNSt16remove_referenceIS8_E4typeE, .-_ZSt7forwardISt4pairIiNSt7__cxx1112basic_stringIcSt11char_traitsIcESaIcEEEEEOT_RNSt16remove_referenceIS8_E4typeE
	.section	.text._ZNSt16allocator_traitsISaISt4pairIiNSt7__cxx1112basic_stringIcSt11char_traitsIcESaIcEEEEEE9constructIS7_JS7_EEEvRS8_PT_DpOT0_,"axG",@progbits,_ZNSt16allocator_traitsISaISt4pairIiNSt7__cxx1112basic_stringIcSt11char_traitsIcESaIcEEEEEE9constructIS7_JS7_EEEvRS8_PT_DpOT0_,comdat
	.align	2
	.weak	_ZNSt16allocator_traitsISaISt4pairIiNSt7__cxx1112basic_stringIcSt11char_traitsIcESaIcEEEEEE9constructIS7_JS7_EEEvRS8_PT_DpOT0_
	.type	_ZNSt16allocator_traitsISaISt4pairIiNSt7__cxx1112basic_stringIcSt11char_traitsIcESaIcEEEEEE9constructIS7_JS7_EEEvRS8_PT_DpOT0_, %function
_ZNSt16allocator_traitsISaISt4pairIiNSt7__cxx1112basic_stringIcSt11char_traitsIcESaIcEEEEEE9constructIS7_JS7_EEEvRS8_PT_DpOT0_:
.LFB11283:
	.cfi_startproc
	stp	x29, x30, [sp, -48]!
	.cfi_def_cfa_offset 48
	.cfi_offset 29, -48
	.cfi_offset 30, -40
	mov	x29, sp
	str	x0, [sp, 40]
	str	x1, [sp, 32]
	str	x2, [sp, 24]
	ldr	x0, [sp, 24]
	bl	_ZSt7forwardISt4pairIiNSt7__cxx1112basic_stringIcSt11char_traitsIcESaIcEEEEEOT_RNSt16remove_referenceIS8_E4typeE
	mov	x2, x0
	ldr	x1, [sp, 32]
	ldr	x0, [sp, 40]
	bl	_ZN9__gnu_cxx13new_allocatorISt4pairIiNSt7__cxx1112basic_stringIcSt11char_traitsIcESaIcEEEEE9constructIS8_JS8_EEEvPT_DpOT0_
	nop
	ldp	x29, x30, [sp], 48
	.cfi_restore 30
	.cfi_restore 29
	.cfi_def_cfa_offset 0
	ret
	.cfi_endproc
.LFE11283:
	.size	_ZNSt16allocator_traitsISaISt4pairIiNSt7__cxx1112basic_stringIcSt11char_traitsIcESaIcEEEEEE9constructIS7_JS7_EEEvRS8_PT_DpOT0_, .-_ZNSt16allocator_traitsISaISt4pairIiNSt7__cxx1112basic_stringIcSt11char_traitsIcESaIcEEEEEE9constructIS7_JS7_EEEvRS8_PT_DpOT0_
	.section	.text._ZNSt5dequeISt4pairIiNSt7__cxx1112basic_stringIcSt11char_traitsIcESaIcEEEESaIS7_EE16_M_push_back_auxIJS7_EEEvDpOT_,"axG",@progbits,_ZNSt5dequeISt4pairIiNSt7__cxx1112basic_stringIcSt11char_traitsIcESaIcEEEESaIS7_EE16_M_push_back_auxIJS7_EEEvDpOT_,comdat
	.align	2
	.weak	_ZNSt5dequeISt4pairIiNSt7__cxx1112basic_stringIcSt11char_traitsIcESaIcEEEESaIS7_EE16_M_push_back_auxIJS7_EEEvDpOT_
	.type	_ZNSt5dequeISt4pairIiNSt7__cxx1112basic_stringIcSt11char_traitsIcESaIcEEEESaIS7_EE16_M_push_back_auxIJS7_EEEvDpOT_, %function
_ZNSt5dequeISt4pairIiNSt7__cxx1112basic_stringIcSt11char_traitsIcESaIcEEEESaIS7_EE16_M_push_back_auxIJS7_EEEvDpOT_:
.LFB11284:
	.cfi_startproc
	stp	x29, x30, [sp, -48]!
	.cfi_def_cfa_offset 48
	.cfi_offset 29, -48
	.cfi_offset 30, -40
	mov	x29, sp
	stp	x19, x20, [sp, 16]
	.cfi_offset 19, -32
	.cfi_offset 20, -24
	str	x0, [sp, 40]
	str	x1, [sp, 32]
	ldr	x0, [sp, 40]
	bl	_ZNKSt5dequeISt4pairIiNSt7__cxx1112basic_stringIcSt11char_traitsIcESaIcEEEESaIS7_EE4sizeEv
	mov	x19, x0
	ldr	x0, [sp, 40]
	bl	_ZNKSt5dequeISt4pairIiNSt7__cxx1112basic_stringIcSt11char_traitsIcESaIcEEEESaIS7_EE8max_sizeEv
	cmp	x19, x0
	cset	w0, eq
	and	w0, w0, 255
	cmp	w0, 0
	beq	.L216
	adrp	x0, .LC1
	add	x0, x0, :lo12:.LC1
	bl	_ZSt20__throw_length_errorPKc
.L216:
	mov	x1, 1
	ldr	x0, [sp, 40]
	bl	_ZNSt5dequeISt4pairIiNSt7__cxx1112basic_stringIcSt11char_traitsIcESaIcEEEESaIS7_EE22_M_reserve_map_at_backEm
	ldr	x1, [sp, 40]
	ldr	x0, [sp, 40]
	ldr	x0, [x0, 72]
	add	x19, x0, 8
	mov	x0, x1
	bl	_ZNSt11_Deque_baseISt4pairIiNSt7__cxx1112basic_stringIcSt11char_traitsIcESaIcEEEESaIS7_EE16_M_allocate_nodeEv
	str	x0, [x19]
	ldr	x19, [sp, 40]
	ldr	x0, [sp, 40]
	ldr	x20, [x0, 48]
	ldr	x0, [sp, 32]
	bl	_ZSt7forwardISt4pairIiNSt7__cxx1112basic_stringIcSt11char_traitsIcESaIcEEEEEOT_RNSt16remove_referenceIS8_E4typeE
	mov	x2, x0
	mov	x1, x20
	mov	x0, x19
	bl	_ZNSt16allocator_traitsISaISt4pairIiNSt7__cxx1112basic_stringIcSt11char_traitsIcESaIcEEEEEE9constructIS7_JS7_EEEvRS8_PT_DpOT0_
	ldr	x0, [sp, 40]
	add	x2, x0, 48
	ldr	x0, [sp, 40]
	ldr	x0, [x0, 72]
	add	x0, x0, 8
	mov	x1, x0
	mov	x0, x2
	bl	_ZNSt15_Deque_iteratorISt4pairIiNSt7__cxx1112basic_stringIcSt11char_traitsIcESaIcEEEERS7_PS7_E11_M_set_nodeEPS9_
	ldr	x0, [sp, 40]
	ldr	x1, [x0, 56]
	ldr	x0, [sp, 40]
	str	x1, [x0, 48]
	nop
	ldp	x19, x20, [sp, 16]
	ldp	x29, x30, [sp], 48
	.cfi_restore 30
	.cfi_restore 29
	.cfi_restore 19
	.cfi_restore 20
	.cfi_def_cfa_offset 0
	ret
	.cfi_endproc
.LFE11284:
	.size	_ZNSt5dequeISt4pairIiNSt7__cxx1112basic_stringIcSt11char_traitsIcESaIcEEEESaIS7_EE16_M_push_back_auxIJS7_EEEvDpOT_, .-_ZNSt5dequeISt4pairIiNSt7__cxx1112basic_stringIcSt11char_traitsIcESaIcEEEESaIS7_EE16_M_push_back_auxIJS7_EEEvDpOT_
	.section	.text._ZSt7forwardIRKiEOT_RNSt16remove_referenceIS2_E4typeE,"axG",@progbits,_ZSt7forwardIRKiEOT_RNSt16remove_referenceIS2_E4typeE,comdat
	.align	2
	.weak	_ZSt7forwardIRKiEOT_RNSt16remove_referenceIS2_E4typeE
	.type	_ZSt7forwardIRKiEOT_RNSt16remove_referenceIS2_E4typeE, %function
_ZSt7forwardIRKiEOT_RNSt16remove_referenceIS2_E4typeE:
.LFB11285:
	.cfi_startproc
	sub	sp, sp, #16
	.cfi_def_cfa_offset 16
	str	x0, [sp, 8]
	ldr	x0, [sp, 8]
	add	sp, sp, 16
	.cfi_def_cfa_offset 0
	ret
	.cfi_endproc
.LFE11285:
	.size	_ZSt7forwardIRKiEOT_RNSt16remove_referenceIS2_E4typeE, .-_ZSt7forwardIRKiEOT_RNSt16remove_referenceIS2_E4typeE
	.section	.text._ZN9__gnu_cxx13new_allocatorIiE9constructIiJRKiEEEvPT_DpOT0_,"axG",@progbits,_ZN9__gnu_cxx13new_allocatorIiE9constructIiJRKiEEEvPT_DpOT0_,comdat
	.align	2
	.weak	_ZN9__gnu_cxx13new_allocatorIiE9constructIiJRKiEEEvPT_DpOT0_
	.type	_ZN9__gnu_cxx13new_allocatorIiE9constructIiJRKiEEEvPT_DpOT0_, %function
_ZN9__gnu_cxx13new_allocatorIiE9constructIiJRKiEEEvPT_DpOT0_:
.LFB11286:
	.cfi_startproc
	stp	x29, x30, [sp, -64]!
	.cfi_def_cfa_offset 64
	.cfi_offset 29, -64
	.cfi_offset 30, -56
	mov	x29, sp
	str	x19, [sp, 16]
	.cfi_offset 19, -48
	str	x0, [sp, 56]
	str	x1, [sp, 48]
	str	x2, [sp, 40]
	ldr	x0, [sp, 40]
	bl	_ZSt7forwardIRKiEOT_RNSt16remove_referenceIS2_E4typeE
	ldr	w19, [x0]
	ldr	x0, [sp, 48]
	mov	x1, x0
	mov	x0, 4
	bl	_ZnwmPv
	str	w19, [x0]
	nop
	ldr	x19, [sp, 16]
	ldp	x29, x30, [sp], 64
	.cfi_restore 30
	.cfi_restore 29
	.cfi_restore 19
	.cfi_def_cfa_offset 0
	ret
	.cfi_endproc
.LFE11286:
	.size	_ZN9__gnu_cxx13new_allocatorIiE9constructIiJRKiEEEvPT_DpOT0_, .-_ZN9__gnu_cxx13new_allocatorIiE9constructIiJRKiEEEvPT_DpOT0_
	.section	.text._ZNKSt5dequeIiSaIiEE4sizeEv,"axG",@progbits,_ZNKSt5dequeIiSaIiEE4sizeEv,comdat
	.align	2
	.weak	_ZNKSt5dequeIiSaIiEE4sizeEv
	.type	_ZNKSt5dequeIiSaIiEE4sizeEv, %function
_ZNKSt5dequeIiSaIiEE4sizeEv:
.LFB11287:
	.cfi_startproc
	stp	x29, x30, [sp, -32]!
	.cfi_def_cfa_offset 32
	.cfi_offset 29, -32
	.cfi_offset 30, -24
	mov	x29, sp
	str	x0, [sp, 24]
	ldr	x0, [sp, 24]
	add	x2, x0, 48
	ldr	x0, [sp, 24]
	add	x0, x0, 16
	mov	x1, x0
	mov	x0, x2
	bl	_ZStmiRKSt15_Deque_iteratorIiRiPiES4_
	ldp	x29, x30, [sp], 32
	.cfi_restore 30
	.cfi_restore 29
	.cfi_def_cfa_offset 0
	ret
	.cfi_endproc
.LFE11287:
	.size	_ZNKSt5dequeIiSaIiEE4sizeEv, .-_ZNKSt5dequeIiSaIiEE4sizeEv
	.section	.text._ZNKSt5dequeIiSaIiEE8max_sizeEv,"axG",@progbits,_ZNKSt5dequeIiSaIiEE8max_sizeEv,comdat
	.align	2
	.weak	_ZNKSt5dequeIiSaIiEE8max_sizeEv
	.type	_ZNKSt5dequeIiSaIiEE8max_sizeEv, %function
_ZNKSt5dequeIiSaIiEE8max_sizeEv:
.LFB11288:
	.cfi_startproc
	stp	x29, x30, [sp, -32]!
	.cfi_def_cfa_offset 32
	.cfi_offset 29, -32
	.cfi_offset 30, -24
	mov	x29, sp
	str	x0, [sp, 24]
	ldr	x0, [sp, 24]
	bl	_ZNKSt11_Deque_baseIiSaIiEE19_M_get_Tp_allocatorEv
	bl	_ZNSt5dequeIiSaIiEE11_S_max_sizeERKS0_
	ldp	x29, x30, [sp], 32
	.cfi_restore 30
	.cfi_restore 29
	.cfi_def_cfa_offset 0
	ret
	.cfi_endproc
.LFE11288:
	.size	_ZNKSt5dequeIiSaIiEE8max_sizeEv, .-_ZNKSt5dequeIiSaIiEE8max_sizeEv
	.section	.text._ZNSt5dequeIiSaIiEE22_M_reserve_map_at_backEm,"axG",@progbits,_ZNSt5dequeIiSaIiEE22_M_reserve_map_at_backEm,comdat
	.align	2
	.weak	_ZNSt5dequeIiSaIiEE22_M_reserve_map_at_backEm
	.type	_ZNSt5dequeIiSaIiEE22_M_reserve_map_at_backEm, %function
_ZNSt5dequeIiSaIiEE22_M_reserve_map_at_backEm:
.LFB11289:
	.cfi_startproc
	stp	x29, x30, [sp, -32]!
	.cfi_def_cfa_offset 32
	.cfi_offset 29, -32
	.cfi_offset 30, -24
	mov	x29, sp
	str	x0, [sp, 24]
	str	x1, [sp, 16]
	ldr	x0, [sp, 16]
	add	x1, x0, 1
	ldr	x0, [sp, 24]
	ldr	x0, [x0, 8]
	ldr	x2, [sp, 24]
	ldr	x3, [x2, 72]
	ldr	x2, [sp, 24]
	ldr	x2, [x2]
	sub	x2, x3, x2
	asr	x2, x2, 3
	sub	x0, x0, x2
	cmp	x1, x0
	bls	.L226
	mov	w2, 0
	ldr	x1, [sp, 16]
	ldr	x0, [sp, 24]
	bl	_ZNSt5dequeIiSaIiEE17_M_reallocate_mapEmb
.L226:
	nop
	ldp	x29, x30, [sp], 32
	.cfi_restore 30
	.cfi_restore 29
	.cfi_def_cfa_offset 0
	ret
	.cfi_endproc
.LFE11289:
	.size	_ZNSt5dequeIiSaIiEE22_M_reserve_map_at_backEm, .-_ZNSt5dequeIiSaIiEE22_M_reserve_map_at_backEm
	.section	.text._ZNSt11_Deque_baseIiSaIiEE16_M_allocate_nodeEv,"axG",@progbits,_ZNSt11_Deque_baseIiSaIiEE16_M_allocate_nodeEv,comdat
	.align	2
	.weak	_ZNSt11_Deque_baseIiSaIiEE16_M_allocate_nodeEv
	.type	_ZNSt11_Deque_baseIiSaIiEE16_M_allocate_nodeEv, %function
_ZNSt11_Deque_baseIiSaIiEE16_M_allocate_nodeEv:
.LFB11290:
	.cfi_startproc
	stp	x29, x30, [sp, -48]!
	.cfi_def_cfa_offset 48
	.cfi_offset 29, -48
	.cfi_offset 30, -40
	mov	x29, sp
	str	x19, [sp, 16]
	.cfi_offset 19, -32
	str	x0, [sp, 40]
	ldr	x19, [sp, 40]
	mov	x0, 4
	bl	_ZSt16__deque_buf_sizem
	mov	x1, x0
	mov	x0, x19
	bl	_ZNSt16allocator_traitsISaIiEE8allocateERS0_m
	ldr	x19, [sp, 16]
	ldp	x29, x30, [sp], 48
	.cfi_restore 30
	.cfi_restore 29
	.cfi_restore 19
	.cfi_def_cfa_offset 0
	ret
	.cfi_endproc
.LFE11290:
	.size	_ZNSt11_Deque_baseIiSaIiEE16_M_allocate_nodeEv, .-_ZNSt11_Deque_baseIiSaIiEE16_M_allocate_nodeEv
	.section	.text._ZN9__gnu_cxx13new_allocatorISt4pairIiNSt7__cxx1112basic_stringIcSt11char_traitsIcESaIcEEEEE7destroyIS8_EEvPT_,"axG",@progbits,_ZN9__gnu_cxx13new_allocatorISt4pairIiNSt7__cxx1112basic_stringIcSt11char_traitsIcESaIcEEEEE7destroyIS8_EEvPT_,comdat
	.align	2
	.weak	_ZN9__gnu_cxx13new_allocatorISt4pairIiNSt7__cxx1112basic_stringIcSt11char_traitsIcESaIcEEEEE7destroyIS8_EEvPT_
	.type	_ZN9__gnu_cxx13new_allocatorISt4pairIiNSt7__cxx1112basic_stringIcSt11char_traitsIcESaIcEEEEE7destroyIS8_EEvPT_, %function
_ZN9__gnu_cxx13new_allocatorISt4pairIiNSt7__cxx1112basic_stringIcSt11char_traitsIcESaIcEEEEE7destroyIS8_EEvPT_:
.LFB11291:
	.cfi_startproc
	stp	x29, x30, [sp, -32]!
	.cfi_def_cfa_offset 32
	.cfi_offset 29, -32
	.cfi_offset 30, -24
	mov	x29, sp
	str	x0, [sp, 24]
	str	x1, [sp, 16]
	ldr	x0, [sp, 16]
	bl	_ZNSt4pairIiNSt7__cxx1112basic_stringIcSt11char_traitsIcESaIcEEEED1Ev
	nop
	ldp	x29, x30, [sp], 32
	.cfi_restore 30
	.cfi_restore 29
	.cfi_def_cfa_offset 0
	ret
	.cfi_endproc
.LFE11291:
	.size	_ZN9__gnu_cxx13new_allocatorISt4pairIiNSt7__cxx1112basic_stringIcSt11char_traitsIcESaIcEEEEE7destroyIS8_EEvPT_, .-_ZN9__gnu_cxx13new_allocatorISt4pairIiNSt7__cxx1112basic_stringIcSt11char_traitsIcESaIcEEEEE7destroyIS8_EEvPT_
	.section	.text._ZN9__gnu_cxx13new_allocatorIiE7destroyIiEEvPT_,"axG",@progbits,_ZN9__gnu_cxx13new_allocatorIiE7destroyIiEEvPT_,comdat
	.align	2
	.weak	_ZN9__gnu_cxx13new_allocatorIiE7destroyIiEEvPT_
	.type	_ZN9__gnu_cxx13new_allocatorIiE7destroyIiEEvPT_, %function
_ZN9__gnu_cxx13new_allocatorIiE7destroyIiEEvPT_:
.LFB11292:
	.cfi_startproc
	sub	sp, sp, #16
	.cfi_def_cfa_offset 16
	str	x0, [sp, 8]
	str	x1, [sp]
	nop
	add	sp, sp, 16
	.cfi_def_cfa_offset 0
	ret
	.cfi_endproc
.LFE11292:
	.size	_ZN9__gnu_cxx13new_allocatorIiE7destroyIiEEvPT_, .-_ZN9__gnu_cxx13new_allocatorIiE7destroyIiEEvPT_
	.section	.text._ZN9__gnu_cxx13new_allocatorISt4pairIiNSt7__cxx1112basic_stringIcSt11char_traitsIcESaIcEEEEEC2Ev,"axG",@progbits,_ZN9__gnu_cxx13new_allocatorISt4pairIiNSt7__cxx1112basic_stringIcSt11char_traitsIcESaIcEEEEEC5Ev,comdat
	.align	2
	.weak	_ZN9__gnu_cxx13new_allocatorISt4pairIiNSt7__cxx1112basic_stringIcSt11char_traitsIcESaIcEEEEEC2Ev
	.type	_ZN9__gnu_cxx13new_allocatorISt4pairIiNSt7__cxx1112basic_stringIcSt11char_traitsIcESaIcEEEEEC2Ev, %function
_ZN9__gnu_cxx13new_allocatorISt4pairIiNSt7__cxx1112basic_stringIcSt11char_traitsIcESaIcEEEEEC2Ev:
.LFB11378:
	.cfi_startproc
	sub	sp, sp, #16
	.cfi_def_cfa_offset 16
	str	x0, [sp, 8]
	nop
	add	sp, sp, 16
	.cfi_def_cfa_offset 0
	ret
	.cfi_endproc
.LFE11378:
	.size	_ZN9__gnu_cxx13new_allocatorISt4pairIiNSt7__cxx1112basic_stringIcSt11char_traitsIcESaIcEEEEEC2Ev, .-_ZN9__gnu_cxx13new_allocatorISt4pairIiNSt7__cxx1112basic_stringIcSt11char_traitsIcESaIcEEEEEC2Ev
	.weak	_ZN9__gnu_cxx13new_allocatorISt4pairIiNSt7__cxx1112basic_stringIcSt11char_traitsIcESaIcEEEEEC1Ev
	.set	_ZN9__gnu_cxx13new_allocatorISt4pairIiNSt7__cxx1112basic_stringIcSt11char_traitsIcESaIcEEEEEC1Ev,_ZN9__gnu_cxx13new_allocatorISt4pairIiNSt7__cxx1112basic_stringIcSt11char_traitsIcESaIcEEEEEC2Ev
	.section	.text._ZNSt15_Deque_iteratorISt4pairIiNSt7__cxx1112basic_stringIcSt11char_traitsIcESaIcEEEERS7_PS7_EC2Ev,"axG",@progbits,_ZNSt15_Deque_iteratorISt4pairIiNSt7__cxx1112basic_stringIcSt11char_traitsIcESaIcEEEERS7_PS7_EC5Ev,comdat
	.align	2
	.weak	_ZNSt15_Deque_iteratorISt4pairIiNSt7__cxx1112basic_stringIcSt11char_traitsIcESaIcEEEERS7_PS7_EC2Ev
	.type	_ZNSt15_Deque_iteratorISt4pairIiNSt7__cxx1112basic_stringIcSt11char_traitsIcESaIcEEEERS7_PS7_EC2Ev, %function
_ZNSt15_Deque_iteratorISt4pairIiNSt7__cxx1112basic_stringIcSt11char_traitsIcESaIcEEEERS7_PS7_EC2Ev:
.LFB11381:
	.cfi_startproc
	sub	sp, sp, #16
	.cfi_def_cfa_offset 16
	str	x0, [sp, 8]
	ldr	x0, [sp, 8]
	str	xzr, [x0]
	ldr	x0, [sp, 8]
	str	xzr, [x0, 8]
	ldr	x0, [sp, 8]
	str	xzr, [x0, 16]
	ldr	x0, [sp, 8]
	str	xzr, [x0, 24]
	nop
	add	sp, sp, 16
	.cfi_def_cfa_offset 0
	ret
	.cfi_endproc
.LFE11381:
	.size	_ZNSt15_Deque_iteratorISt4pairIiNSt7__cxx1112basic_stringIcSt11char_traitsIcESaIcEEEERS7_PS7_EC2Ev, .-_ZNSt15_Deque_iteratorISt4pairIiNSt7__cxx1112basic_stringIcSt11char_traitsIcESaIcEEEERS7_PS7_EC2Ev
	.weak	_ZNSt15_Deque_iteratorISt4pairIiNSt7__cxx1112basic_stringIcSt11char_traitsIcESaIcEEEERS7_PS7_EC1Ev
	.set	_ZNSt15_Deque_iteratorISt4pairIiNSt7__cxx1112basic_stringIcSt11char_traitsIcESaIcEEEERS7_PS7_EC1Ev,_ZNSt15_Deque_iteratorISt4pairIiNSt7__cxx1112basic_stringIcSt11char_traitsIcESaIcEEEERS7_PS7_EC2Ev
	.section	.text._ZNSt16allocator_traitsISaIPSt4pairIiNSt7__cxx1112basic_stringIcSt11char_traitsIcESaIcEEEEEE8allocateERS9_m,"axG",@progbits,_ZNSt16allocator_traitsISaIPSt4pairIiNSt7__cxx1112basic_stringIcSt11char_traitsIcESaIcEEEEEE8allocateERS9_m,comdat
	.align	2
	.weak	_ZNSt16allocator_traitsISaIPSt4pairIiNSt7__cxx1112basic_stringIcSt11char_traitsIcESaIcEEEEEE8allocateERS9_m
	.type	_ZNSt16allocator_traitsISaIPSt4pairIiNSt7__cxx1112basic_stringIcSt11char_traitsIcESaIcEEEEEE8allocateERS9_m, %function
_ZNSt16allocator_traitsISaIPSt4pairIiNSt7__cxx1112basic_stringIcSt11char_traitsIcESaIcEEEEEE8allocateERS9_m:
.LFB11383:
	.cfi_startproc
	stp	x29, x30, [sp, -32]!
	.cfi_def_cfa_offset 32
	.cfi_offset 29, -32
	.cfi_offset 30, -24
	mov	x29, sp
	str	x0, [sp, 24]
	str	x1, [sp, 16]
	mov	x2, 0
	ldr	x1, [sp, 16]
	ldr	x0, [sp, 24]
	bl	_ZN9__gnu_cxx13new_allocatorIPSt4pairIiNSt7__cxx1112basic_stringIcSt11char_traitsIcESaIcEEEEE8allocateEmPKv
	ldp	x29, x30, [sp], 32
	.cfi_restore 30
	.cfi_restore 29
	.cfi_def_cfa_offset 0
	ret
	.cfi_endproc
.LFE11383:
	.size	_ZNSt16allocator_traitsISaIPSt4pairIiNSt7__cxx1112basic_stringIcSt11char_traitsIcESaIcEEEEEE8allocateERS9_m, .-_ZNSt16allocator_traitsISaIPSt4pairIiNSt7__cxx1112basic_stringIcSt11char_traitsIcESaIcEEEEEE8allocateERS9_m
	.section	.text._ZNSt11_Deque_baseISt4pairIiNSt7__cxx1112basic_stringIcSt11char_traitsIcESaIcEEEESaIS7_EE16_M_allocate_nodeEv,"axG",@progbits,_ZNSt11_Deque_baseISt4pairIiNSt7__cxx1112basic_stringIcSt11char_traitsIcESaIcEEEESaIS7_EE16_M_allocate_nodeEv,comdat
	.align	2
	.weak	_ZNSt11_Deque_baseISt4pairIiNSt7__cxx1112basic_stringIcSt11char_traitsIcESaIcEEEESaIS7_EE16_M_allocate_nodeEv
	.type	_ZNSt11_Deque_baseISt4pairIiNSt7__cxx1112basic_stringIcSt11char_traitsIcESaIcEEEESaIS7_EE16_M_allocate_nodeEv, %function
_ZNSt11_Deque_baseISt4pairIiNSt7__cxx1112basic_stringIcSt11char_traitsIcESaIcEEEESaIS7_EE16_M_allocate_nodeEv:
.LFB11384:
	.cfi_startproc
	stp	x29, x30, [sp, -48]!
	.cfi_def_cfa_offset 48
	.cfi_offset 29, -48
	.cfi_offset 30, -40
	mov	x29, sp
	str	x19, [sp, 16]
	.cfi_offset 19, -32
	str	x0, [sp, 40]
	ldr	x19, [sp, 40]
	mov	x0, 40
	bl	_ZSt16__deque_buf_sizem
	mov	x1, x0
	mov	x0, x19
	bl	_ZNSt16allocator_traitsISaISt4pairIiNSt7__cxx1112basic_stringIcSt11char_traitsIcESaIcEEEEEE8allocateERS8_m
	ldr	x19, [sp, 16]
	ldp	x29, x30, [sp], 48
	.cfi_restore 30
	.cfi_restore 29
	.cfi_restore 19
	.cfi_def_cfa_offset 0
	ret
	.cfi_endproc
.LFE11384:
	.size	_ZNSt11_Deque_baseISt4pairIiNSt7__cxx1112basic_stringIcSt11char_traitsIcESaIcEEEESaIS7_EE16_M_allocate_nodeEv, .-_ZNSt11_Deque_baseISt4pairIiNSt7__cxx1112basic_stringIcSt11char_traitsIcESaIcEEEESaIS7_EE16_M_allocate_nodeEv
	.section	.text._ZNSt15_Deque_iteratorISt4pairIiNSt7__cxx1112basic_stringIcSt11char_traitsIcESaIcEEEERS7_PS7_E14_S_buffer_sizeEv,"axG",@progbits,_ZNSt15_Deque_iteratorISt4pairIiNSt7__cxx1112basic_stringIcSt11char_traitsIcESaIcEEEERS7_PS7_E14_S_buffer_sizeEv,comdat
	.align	2
	.weak	_ZNSt15_Deque_iteratorISt4pairIiNSt7__cxx1112basic_stringIcSt11char_traitsIcESaIcEEEERS7_PS7_E14_S_buffer_sizeEv
	.type	_ZNSt15_Deque_iteratorISt4pairIiNSt7__cxx1112basic_stringIcSt11char_traitsIcESaIcEEEERS7_PS7_E14_S_buffer_sizeEv, %function
_ZNSt15_Deque_iteratorISt4pairIiNSt7__cxx1112basic_stringIcSt11char_traitsIcESaIcEEEERS7_PS7_E14_S_buffer_sizeEv:
.LFB11385:
	.cfi_startproc
	stp	x29, x30, [sp, -16]!
	.cfi_def_cfa_offset 16
	.cfi_offset 29, -16
	.cfi_offset 30, -8
	mov	x29, sp
	mov	x0, 40
	bl	_ZSt16__deque_buf_sizem
	ldp	x29, x30, [sp], 16
	.cfi_restore 30
	.cfi_restore 29
	.cfi_def_cfa_offset 0
	ret
	.cfi_endproc
.LFE11385:
	.size	_ZNSt15_Deque_iteratorISt4pairIiNSt7__cxx1112basic_stringIcSt11char_traitsIcESaIcEEEERS7_PS7_E14_S_buffer_sizeEv, .-_ZNSt15_Deque_iteratorISt4pairIiNSt7__cxx1112basic_stringIcSt11char_traitsIcESaIcEEEERS7_PS7_E14_S_buffer_sizeEv
	.section	.text._ZNSt16allocator_traitsISaISt4pairIiNSt7__cxx1112basic_stringIcSt11char_traitsIcESaIcEEEEEE10deallocateERS8_PS7_m,"axG",@progbits,_ZNSt16allocator_traitsISaISt4pairIiNSt7__cxx1112basic_stringIcSt11char_traitsIcESaIcEEEEEE10deallocateERS8_PS7_m,comdat
	.align	2
	.weak	_ZNSt16allocator_traitsISaISt4pairIiNSt7__cxx1112basic_stringIcSt11char_traitsIcESaIcEEEEEE10deallocateERS8_PS7_m
	.type	_ZNSt16allocator_traitsISaISt4pairIiNSt7__cxx1112basic_stringIcSt11char_traitsIcESaIcEEEEEE10deallocateERS8_PS7_m, %function
_ZNSt16allocator_traitsISaISt4pairIiNSt7__cxx1112basic_stringIcSt11char_traitsIcESaIcEEEEEE10deallocateERS8_PS7_m:
.LFB11386:
	.cfi_startproc
	stp	x29, x30, [sp, -48]!
	.cfi_def_cfa_offset 48
	.cfi_offset 29, -48
	.cfi_offset 30, -40
	mov	x29, sp
	str	x0, [sp, 40]
	str	x1, [sp, 32]
	str	x2, [sp, 24]
	ldr	x2, [sp, 24]
	ldr	x1, [sp, 32]
	ldr	x0, [sp, 40]
	bl	_ZN9__gnu_cxx13new_allocatorISt4pairIiNSt7__cxx1112basic_stringIcSt11char_traitsIcESaIcEEEEE10deallocateEPS8_m
	nop
	ldp	x29, x30, [sp], 48
	.cfi_restore 30
	.cfi_restore 29
	.cfi_def_cfa_offset 0
	ret
	.cfi_endproc
.LFE11386:
	.size	_ZNSt16allocator_traitsISaISt4pairIiNSt7__cxx1112basic_stringIcSt11char_traitsIcESaIcEEEEEE10deallocateERS8_PS7_m, .-_ZNSt16allocator_traitsISaISt4pairIiNSt7__cxx1112basic_stringIcSt11char_traitsIcESaIcEEEEEE10deallocateERS8_PS7_m
	.section	.text._ZNKSt11_Deque_baseISt4pairIiNSt7__cxx1112basic_stringIcSt11char_traitsIcESaIcEEEESaIS7_EE19_M_get_Tp_allocatorEv,"axG",@progbits,_ZNKSt11_Deque_baseISt4pairIiNSt7__cxx1112basic_stringIcSt11char_traitsIcESaIcEEEESaIS7_EE19_M_get_Tp_allocatorEv,comdat
	.align	2
	.weak	_ZNKSt11_Deque_baseISt4pairIiNSt7__cxx1112basic_stringIcSt11char_traitsIcESaIcEEEESaIS7_EE19_M_get_Tp_allocatorEv
	.type	_ZNKSt11_Deque_baseISt4pairIiNSt7__cxx1112basic_stringIcSt11char_traitsIcESaIcEEEESaIS7_EE19_M_get_Tp_allocatorEv, %function
_ZNKSt11_Deque_baseISt4pairIiNSt7__cxx1112basic_stringIcSt11char_traitsIcESaIcEEEESaIS7_EE19_M_get_Tp_allocatorEv:
.LFB11387:
	.cfi_startproc
	sub	sp, sp, #16
	.cfi_def_cfa_offset 16
	str	x0, [sp, 8]
	ldr	x0, [sp, 8]
	add	sp, sp, 16
	.cfi_def_cfa_offset 0
	ret
	.cfi_endproc
.LFE11387:
	.size	_ZNKSt11_Deque_baseISt4pairIiNSt7__cxx1112basic_stringIcSt11char_traitsIcESaIcEEEESaIS7_EE19_M_get_Tp_allocatorEv, .-_ZNKSt11_Deque_baseISt4pairIiNSt7__cxx1112basic_stringIcSt11char_traitsIcESaIcEEEESaIS7_EE19_M_get_Tp_allocatorEv
	.section	.text._ZNSaIPSt4pairIiNSt7__cxx1112basic_stringIcSt11char_traitsIcESaIcEEEEEC2IS6_EERKSaIT_E,"axG",@progbits,_ZNSaIPSt4pairIiNSt7__cxx1112basic_stringIcSt11char_traitsIcESaIcEEEEEC5IS6_EERKSaIT_E,comdat
	.align	2
	.weak	_ZNSaIPSt4pairIiNSt7__cxx1112basic_stringIcSt11char_traitsIcESaIcEEEEEC2IS6_EERKSaIT_E
	.type	_ZNSaIPSt4pairIiNSt7__cxx1112basic_stringIcSt11char_traitsIcESaIcEEEEEC2IS6_EERKSaIT_E, %function
_ZNSaIPSt4pairIiNSt7__cxx1112basic_stringIcSt11char_traitsIcESaIcEEEEEC2IS6_EERKSaIT_E:
.LFB11389:
	.cfi_startproc
	stp	x29, x30, [sp, -32]!
	.cfi_def_cfa_offset 32
	.cfi_offset 29, -32
	.cfi_offset 30, -24
	mov	x29, sp
	str	x0, [sp, 24]
	str	x1, [sp, 16]
	ldr	x0, [sp, 24]
	bl	_ZN9__gnu_cxx13new_allocatorIPSt4pairIiNSt7__cxx1112basic_stringIcSt11char_traitsIcESaIcEEEEEC2Ev
	nop
	ldp	x29, x30, [sp], 32
	.cfi_restore 30
	.cfi_restore 29
	.cfi_def_cfa_offset 0
	ret
	.cfi_endproc
.LFE11389:
	.size	_ZNSaIPSt4pairIiNSt7__cxx1112basic_stringIcSt11char_traitsIcESaIcEEEEEC2IS6_EERKSaIT_E, .-_ZNSaIPSt4pairIiNSt7__cxx1112basic_stringIcSt11char_traitsIcESaIcEEEEEC2IS6_EERKSaIT_E
	.weak	_ZNSaIPSt4pairIiNSt7__cxx1112basic_stringIcSt11char_traitsIcESaIcEEEEEC1IS6_EERKSaIT_E
	.set	_ZNSaIPSt4pairIiNSt7__cxx1112basic_stringIcSt11char_traitsIcESaIcEEEEEC1IS6_EERKSaIT_E,_ZNSaIPSt4pairIiNSt7__cxx1112basic_stringIcSt11char_traitsIcESaIcEEEEEC2IS6_EERKSaIT_E
	.section	.text._ZN9__gnu_cxx13new_allocatorIPSt4pairIiNSt7__cxx1112basic_stringIcSt11char_traitsIcESaIcEEEEED2Ev,"axG",@progbits,_ZN9__gnu_cxx13new_allocatorIPSt4pairIiNSt7__cxx1112basic_stringIcSt11char_traitsIcESaIcEEEEED5Ev,comdat
	.align	2
	.weak	_ZN9__gnu_cxx13new_allocatorIPSt4pairIiNSt7__cxx1112basic_stringIcSt11char_traitsIcESaIcEEEEED2Ev
	.type	_ZN9__gnu_cxx13new_allocatorIPSt4pairIiNSt7__cxx1112basic_stringIcSt11char_traitsIcESaIcEEEEED2Ev, %function
_ZN9__gnu_cxx13new_allocatorIPSt4pairIiNSt7__cxx1112basic_stringIcSt11char_traitsIcESaIcEEEEED2Ev:
.LFB11392:
	.cfi_startproc
	sub	sp, sp, #16
	.cfi_def_cfa_offset 16
	str	x0, [sp, 8]
	nop
	add	sp, sp, 16
	.cfi_def_cfa_offset 0
	ret
	.cfi_endproc
.LFE11392:
	.size	_ZN9__gnu_cxx13new_allocatorIPSt4pairIiNSt7__cxx1112basic_stringIcSt11char_traitsIcESaIcEEEEED2Ev, .-_ZN9__gnu_cxx13new_allocatorIPSt4pairIiNSt7__cxx1112basic_stringIcSt11char_traitsIcESaIcEEEEED2Ev
	.weak	_ZN9__gnu_cxx13new_allocatorIPSt4pairIiNSt7__cxx1112basic_stringIcSt11char_traitsIcESaIcEEEEED1Ev
	.set	_ZN9__gnu_cxx13new_allocatorIPSt4pairIiNSt7__cxx1112basic_stringIcSt11char_traitsIcESaIcEEEEED1Ev,_ZN9__gnu_cxx13new_allocatorIPSt4pairIiNSt7__cxx1112basic_stringIcSt11char_traitsIcESaIcEEEEED2Ev
	.section	.text._ZN9__gnu_cxx13new_allocatorIPSt4pairIiNSt7__cxx1112basic_stringIcSt11char_traitsIcESaIcEEEEE10deallocateEPS9_m,"axG",@progbits,_ZN9__gnu_cxx13new_allocatorIPSt4pairIiNSt7__cxx1112basic_stringIcSt11char_traitsIcESaIcEEEEE10deallocateEPS9_m,comdat
	.align	2
	.weak	_ZN9__gnu_cxx13new_allocatorIPSt4pairIiNSt7__cxx1112basic_stringIcSt11char_traitsIcESaIcEEEEE10deallocateEPS9_m
	.type	_ZN9__gnu_cxx13new_allocatorIPSt4pairIiNSt7__cxx1112basic_stringIcSt11char_traitsIcESaIcEEEEE10deallocateEPS9_m, %function
_ZN9__gnu_cxx13new_allocatorIPSt4pairIiNSt7__cxx1112basic_stringIcSt11char_traitsIcESaIcEEEEE10deallocateEPS9_m:
.LFB11394:
	.cfi_startproc
	stp	x29, x30, [sp, -48]!
	.cfi_def_cfa_offset 48
	.cfi_offset 29, -48
	.cfi_offset 30, -40
	mov	x29, sp
	str	x0, [sp, 40]
	str	x1, [sp, 32]
	str	x2, [sp, 24]
	ldr	x0, [sp, 24]
	lsl	x0, x0, 3
	mov	x1, x0
	ldr	x0, [sp, 32]
	bl	_ZdlPvm
	ldp	x29, x30, [sp], 48
	.cfi_restore 30
	.cfi_restore 29
	.cfi_def_cfa_offset 0
	ret
	.cfi_endproc
.LFE11394:
	.size	_ZN9__gnu_cxx13new_allocatorIPSt4pairIiNSt7__cxx1112basic_stringIcSt11char_traitsIcESaIcEEEEE10deallocateEPS9_m, .-_ZN9__gnu_cxx13new_allocatorIPSt4pairIiNSt7__cxx1112basic_stringIcSt11char_traitsIcESaIcEEEEE10deallocateEPS9_m
	.section	.text._ZSt8_DestroyIPSt4pairIiNSt7__cxx1112basic_stringIcSt11char_traitsIcESaIcEEEEEvT_S9_,"axG",@progbits,_ZSt8_DestroyIPSt4pairIiNSt7__cxx1112basic_stringIcSt11char_traitsIcESaIcEEEEEvT_S9_,comdat
	.align	2
	.weak	_ZSt8_DestroyIPSt4pairIiNSt7__cxx1112basic_stringIcSt11char_traitsIcESaIcEEEEEvT_S9_
	.type	_ZSt8_DestroyIPSt4pairIiNSt7__cxx1112basic_stringIcSt11char_traitsIcESaIcEEEEEvT_S9_, %function
_ZSt8_DestroyIPSt4pairIiNSt7__cxx1112basic_stringIcSt11char_traitsIcESaIcEEEEEvT_S9_:
.LFB11395:
	.cfi_startproc
	stp	x29, x30, [sp, -32]!
	.cfi_def_cfa_offset 32
	.cfi_offset 29, -32
	.cfi_offset 30, -24
	mov	x29, sp
	str	x0, [sp, 24]
	str	x1, [sp, 16]
	ldr	x1, [sp, 16]
	ldr	x0, [sp, 24]
	bl	_ZNSt12_Destroy_auxILb0EE9__destroyIPSt4pairIiNSt7__cxx1112basic_stringIcSt11char_traitsIcESaIcEEEEEEvT_SB_
	nop
	ldp	x29, x30, [sp], 32
	.cfi_restore 30
	.cfi_restore 29
	.cfi_def_cfa_offset 0
	ret
	.cfi_endproc
.LFE11395:
	.size	_ZSt8_DestroyIPSt4pairIiNSt7__cxx1112basic_stringIcSt11char_traitsIcESaIcEEEEEvT_S9_, .-_ZSt8_DestroyIPSt4pairIiNSt7__cxx1112basic_stringIcSt11char_traitsIcESaIcEEEEEvT_S9_
	.section	.text._ZN9__gnu_cxx13new_allocatorIiEC2Ev,"axG",@progbits,_ZN9__gnu_cxx13new_allocatorIiEC5Ev,comdat
	.align	2
	.weak	_ZN9__gnu_cxx13new_allocatorIiEC2Ev
	.type	_ZN9__gnu_cxx13new_allocatorIiEC2Ev, %function
_ZN9__gnu_cxx13new_allocatorIiEC2Ev:
.LFB11397:
	.cfi_startproc
	sub	sp, sp, #16
	.cfi_def_cfa_offset 16
	str	x0, [sp, 8]
	nop
	add	sp, sp, 16
	.cfi_def_cfa_offset 0
	ret
	.cfi_endproc
.LFE11397:
	.size	_ZN9__gnu_cxx13new_allocatorIiEC2Ev, .-_ZN9__gnu_cxx13new_allocatorIiEC2Ev
	.weak	_ZN9__gnu_cxx13new_allocatorIiEC1Ev
	.set	_ZN9__gnu_cxx13new_allocatorIiEC1Ev,_ZN9__gnu_cxx13new_allocatorIiEC2Ev
	.section	.text._ZNSt15_Deque_iteratorIiRiPiEC2Ev,"axG",@progbits,_ZNSt15_Deque_iteratorIiRiPiEC5Ev,comdat
	.align	2
	.weak	_ZNSt15_Deque_iteratorIiRiPiEC2Ev
	.type	_ZNSt15_Deque_iteratorIiRiPiEC2Ev, %function
_ZNSt15_Deque_iteratorIiRiPiEC2Ev:
.LFB11400:
	.cfi_startproc
	sub	sp, sp, #16
	.cfi_def_cfa_offset 16
	str	x0, [sp, 8]
	ldr	x0, [sp, 8]
	str	xzr, [x0]
	ldr	x0, [sp, 8]
	str	xzr, [x0, 8]
	ldr	x0, [sp, 8]
	str	xzr, [x0, 16]
	ldr	x0, [sp, 8]
	str	xzr, [x0, 24]
	nop
	add	sp, sp, 16
	.cfi_def_cfa_offset 0
	ret
	.cfi_endproc
.LFE11400:
	.size	_ZNSt15_Deque_iteratorIiRiPiEC2Ev, .-_ZNSt15_Deque_iteratorIiRiPiEC2Ev
	.weak	_ZNSt15_Deque_iteratorIiRiPiEC1Ev
	.set	_ZNSt15_Deque_iteratorIiRiPiEC1Ev,_ZNSt15_Deque_iteratorIiRiPiEC2Ev
	.section	.text._ZNSt16allocator_traitsISaIPiEE8allocateERS1_m,"axG",@progbits,_ZNSt16allocator_traitsISaIPiEE8allocateERS1_m,comdat
	.align	2
	.weak	_ZNSt16allocator_traitsISaIPiEE8allocateERS1_m
	.type	_ZNSt16allocator_traitsISaIPiEE8allocateERS1_m, %function
_ZNSt16allocator_traitsISaIPiEE8allocateERS1_m:
.LFB11402:
	.cfi_startproc
	stp	x29, x30, [sp, -32]!
	.cfi_def_cfa_offset 32
	.cfi_offset 29, -32
	.cfi_offset 30, -24
	mov	x29, sp
	str	x0, [sp, 24]
	str	x1, [sp, 16]
	mov	x2, 0
	ldr	x1, [sp, 16]
	ldr	x0, [sp, 24]
	bl	_ZN9__gnu_cxx13new_allocatorIPiE8allocateEmPKv
	ldp	x29, x30, [sp], 32
	.cfi_restore 30
	.cfi_restore 29
	.cfi_def_cfa_offset 0
	ret
	.cfi_endproc
.LFE11402:
	.size	_ZNSt16allocator_traitsISaIPiEE8allocateERS1_m, .-_ZNSt16allocator_traitsISaIPiEE8allocateERS1_m
	.section	.text._ZNSt15_Deque_iteratorIiRiPiE14_S_buffer_sizeEv,"axG",@progbits,_ZNSt15_Deque_iteratorIiRiPiE14_S_buffer_sizeEv,comdat
	.align	2
	.weak	_ZNSt15_Deque_iteratorIiRiPiE14_S_buffer_sizeEv
	.type	_ZNSt15_Deque_iteratorIiRiPiE14_S_buffer_sizeEv, %function
_ZNSt15_Deque_iteratorIiRiPiE14_S_buffer_sizeEv:
.LFB11403:
	.cfi_startproc
	stp	x29, x30, [sp, -16]!
	.cfi_def_cfa_offset 16
	.cfi_offset 29, -16
	.cfi_offset 30, -8
	mov	x29, sp
	mov	x0, 4
	bl	_ZSt16__deque_buf_sizem
	ldp	x29, x30, [sp], 16
	.cfi_restore 30
	.cfi_restore 29
	.cfi_def_cfa_offset 0
	ret
	.cfi_endproc
.LFE11403:
	.size	_ZNSt15_Deque_iteratorIiRiPiE14_S_buffer_sizeEv, .-_ZNSt15_Deque_iteratorIiRiPiE14_S_buffer_sizeEv
	.section	.text._ZNSt16allocator_traitsISaIiEE10deallocateERS0_Pim,"axG",@progbits,_ZNSt16allocator_traitsISaIiEE10deallocateERS0_Pim,comdat
	.align	2
	.weak	_ZNSt16allocator_traitsISaIiEE10deallocateERS0_Pim
	.type	_ZNSt16allocator_traitsISaIiEE10deallocateERS0_Pim, %function
_ZNSt16allocator_traitsISaIiEE10deallocateERS0_Pim:
.LFB11404:
	.cfi_startproc
	stp	x29, x30, [sp, -48]!
	.cfi_def_cfa_offset 48
	.cfi_offset 29, -48
	.cfi_offset 30, -40
	mov	x29, sp
	str	x0, [sp, 40]
	str	x1, [sp, 32]
	str	x2, [sp, 24]
	ldr	x2, [sp, 24]
	ldr	x1, [sp, 32]
	ldr	x0, [sp, 40]
	bl	_ZN9__gnu_cxx13new_allocatorIiE10deallocateEPim
	nop
	ldp	x29, x30, [sp], 48
	.cfi_restore 30
	.cfi_restore 29
	.cfi_def_cfa_offset 0
	ret
	.cfi_endproc
.LFE11404:
	.size	_ZNSt16allocator_traitsISaIiEE10deallocateERS0_Pim, .-_ZNSt16allocator_traitsISaIiEE10deallocateERS0_Pim
	.section	.text._ZNKSt11_Deque_baseIiSaIiEE19_M_get_Tp_allocatorEv,"axG",@progbits,_ZNKSt11_Deque_baseIiSaIiEE19_M_get_Tp_allocatorEv,comdat
	.align	2
	.weak	_ZNKSt11_Deque_baseIiSaIiEE19_M_get_Tp_allocatorEv
	.type	_ZNKSt11_Deque_baseIiSaIiEE19_M_get_Tp_allocatorEv, %function
_ZNKSt11_Deque_baseIiSaIiEE19_M_get_Tp_allocatorEv:
.LFB11405:
	.cfi_startproc
	sub	sp, sp, #16
	.cfi_def_cfa_offset 16
	str	x0, [sp, 8]
	ldr	x0, [sp, 8]
	add	sp, sp, 16
	.cfi_def_cfa_offset 0
	ret
	.cfi_endproc
.LFE11405:
	.size	_ZNKSt11_Deque_baseIiSaIiEE19_M_get_Tp_allocatorEv, .-_ZNKSt11_Deque_baseIiSaIiEE19_M_get_Tp_allocatorEv
	.section	.text._ZNSaIPiEC2IiEERKSaIT_E,"axG",@progbits,_ZNSaIPiEC5IiEERKSaIT_E,comdat
	.align	2
	.weak	_ZNSaIPiEC2IiEERKSaIT_E
	.type	_ZNSaIPiEC2IiEERKSaIT_E, %function
_ZNSaIPiEC2IiEERKSaIT_E:
.LFB11407:
	.cfi_startproc
	stp	x29, x30, [sp, -32]!
	.cfi_def_cfa_offset 32
	.cfi_offset 29, -32
	.cfi_offset 30, -24
	mov	x29, sp
	str	x0, [sp, 24]
	str	x1, [sp, 16]
	ldr	x0, [sp, 24]
	bl	_ZN9__gnu_cxx13new_allocatorIPiEC2Ev
	nop
	ldp	x29, x30, [sp], 32
	.cfi_restore 30
	.cfi_restore 29
	.cfi_def_cfa_offset 0
	ret
	.cfi_endproc
.LFE11407:
	.size	_ZNSaIPiEC2IiEERKSaIT_E, .-_ZNSaIPiEC2IiEERKSaIT_E
	.weak	_ZNSaIPiEC1IiEERKSaIT_E
	.set	_ZNSaIPiEC1IiEERKSaIT_E,_ZNSaIPiEC2IiEERKSaIT_E
	.section	.text._ZN9__gnu_cxx13new_allocatorIPiED2Ev,"axG",@progbits,_ZN9__gnu_cxx13new_allocatorIPiED5Ev,comdat
	.align	2
	.weak	_ZN9__gnu_cxx13new_allocatorIPiED2Ev
	.type	_ZN9__gnu_cxx13new_allocatorIPiED2Ev, %function
_ZN9__gnu_cxx13new_allocatorIPiED2Ev:
.LFB11410:
	.cfi_startproc
	sub	sp, sp, #16
	.cfi_def_cfa_offset 16
	str	x0, [sp, 8]
	nop
	add	sp, sp, 16
	.cfi_def_cfa_offset 0
	ret
	.cfi_endproc
.LFE11410:
	.size	_ZN9__gnu_cxx13new_allocatorIPiED2Ev, .-_ZN9__gnu_cxx13new_allocatorIPiED2Ev
	.weak	_ZN9__gnu_cxx13new_allocatorIPiED1Ev
	.set	_ZN9__gnu_cxx13new_allocatorIPiED1Ev,_ZN9__gnu_cxx13new_allocatorIPiED2Ev
	.section	.text._ZN9__gnu_cxx13new_allocatorIPiE10deallocateEPS1_m,"axG",@progbits,_ZN9__gnu_cxx13new_allocatorIPiE10deallocateEPS1_m,comdat
	.align	2
	.weak	_ZN9__gnu_cxx13new_allocatorIPiE10deallocateEPS1_m
	.type	_ZN9__gnu_cxx13new_allocatorIPiE10deallocateEPS1_m, %function
_ZN9__gnu_cxx13new_allocatorIPiE10deallocateEPS1_m:
.LFB11412:
	.cfi_startproc
	stp	x29, x30, [sp, -48]!
	.cfi_def_cfa_offset 48
	.cfi_offset 29, -48
	.cfi_offset 30, -40
	mov	x29, sp
	str	x0, [sp, 40]
	str	x1, [sp, 32]
	str	x2, [sp, 24]
	ldr	x0, [sp, 24]
	lsl	x0, x0, 3
	mov	x1, x0
	ldr	x0, [sp, 32]
	bl	_ZdlPvm
	ldp	x29, x30, [sp], 48
	.cfi_restore 30
	.cfi_restore 29
	.cfi_def_cfa_offset 0
	ret
	.cfi_endproc
.LFE11412:
	.size	_ZN9__gnu_cxx13new_allocatorIPiE10deallocateEPS1_m, .-_ZN9__gnu_cxx13new_allocatorIPiE10deallocateEPS1_m
	.section	.text._ZNSt4pairIiNSt7__cxx1112basic_stringIcSt11char_traitsIcESaIcEEEEC2EOS6_,"axG",@progbits,_ZNSt4pairIiNSt7__cxx1112basic_stringIcSt11char_traitsIcESaIcEEEEC5EOS6_,comdat
	.align	2
	.weak	_ZNSt4pairIiNSt7__cxx1112basic_stringIcSt11char_traitsIcESaIcEEEEC2EOS6_
	.type	_ZNSt4pairIiNSt7__cxx1112basic_stringIcSt11char_traitsIcESaIcEEEEC2EOS6_, %function
_ZNSt4pairIiNSt7__cxx1112basic_stringIcSt11char_traitsIcESaIcEEEEC2EOS6_:
.LFB11416:
	.cfi_startproc
	stp	x29, x30, [sp, -32]!
	.cfi_def_cfa_offset 32
	.cfi_offset 29, -32
	.cfi_offset 30, -24
	mov	x29, sp
	str	x0, [sp, 24]
	str	x1, [sp, 16]
	ldr	x0, [sp, 16]
	ldr	w1, [x0]
	ldr	x0, [sp, 24]
	str	w1, [x0]
	ldr	x0, [sp, 24]
	add	x2, x0, 8
	ldr	x0, [sp, 16]
	add	x0, x0, 8
	mov	x1, x0
	mov	x0, x2
	bl	_ZNSt7__cxx1112basic_stringIcSt11char_traitsIcESaIcEEC1EOS4_
	nop
	ldp	x29, x30, [sp], 32
	.cfi_restore 30
	.cfi_restore 29
	.cfi_def_cfa_offset 0
	ret
	.cfi_endproc
.LFE11416:
	.size	_ZNSt4pairIiNSt7__cxx1112basic_stringIcSt11char_traitsIcESaIcEEEEC2EOS6_, .-_ZNSt4pairIiNSt7__cxx1112basic_stringIcSt11char_traitsIcESaIcEEEEC2EOS6_
	.weak	_ZNSt4pairIiNSt7__cxx1112basic_stringIcSt11char_traitsIcESaIcEEEEC1EOS6_
	.set	_ZNSt4pairIiNSt7__cxx1112basic_stringIcSt11char_traitsIcESaIcEEEEC1EOS6_,_ZNSt4pairIiNSt7__cxx1112basic_stringIcSt11char_traitsIcESaIcEEEEC2EOS6_
	.section	.text._ZN9__gnu_cxx13new_allocatorISt4pairIiNSt7__cxx1112basic_stringIcSt11char_traitsIcESaIcEEEEE9constructIS8_JS8_EEEvPT_DpOT0_,"axG",@progbits,_ZN9__gnu_cxx13new_allocatorISt4pairIiNSt7__cxx1112basic_stringIcSt11char_traitsIcESaIcEEEEE9constructIS8_JS8_EEEvPT_DpOT0_,comdat
	.align	2
	.weak	_ZN9__gnu_cxx13new_allocatorISt4pairIiNSt7__cxx1112basic_stringIcSt11char_traitsIcESaIcEEEEE9constructIS8_JS8_EEEvPT_DpOT0_
	.type	_ZN9__gnu_cxx13new_allocatorISt4pairIiNSt7__cxx1112basic_stringIcSt11char_traitsIcESaIcEEEEE9constructIS8_JS8_EEEvPT_DpOT0_, %function
_ZN9__gnu_cxx13new_allocatorISt4pairIiNSt7__cxx1112basic_stringIcSt11char_traitsIcESaIcEEEEE9constructIS8_JS8_EEEvPT_DpOT0_:
.LFB11414:
	.cfi_startproc
	stp	x29, x30, [sp, -64]!
	.cfi_def_cfa_offset 64
	.cfi_offset 29, -64
	.cfi_offset 30, -56
	mov	x29, sp
	str	x19, [sp, 16]
	.cfi_offset 19, -48
	str	x0, [sp, 56]
	str	x1, [sp, 48]
	str	x2, [sp, 40]
	ldr	x0, [sp, 40]
	bl	_ZSt7forwardISt4pairIiNSt7__cxx1112basic_stringIcSt11char_traitsIcESaIcEEEEEOT_RNSt16remove_referenceIS8_E4typeE
	mov	x19, x0
	ldr	x0, [sp, 48]
	mov	x1, x0
	mov	x0, 40
	bl	_ZnwmPv
	mov	x1, x19
	bl	_ZNSt4pairIiNSt7__cxx1112basic_stringIcSt11char_traitsIcESaIcEEEEC1EOS6_
	nop
	ldr	x19, [sp, 16]
	ldp	x29, x30, [sp], 64
	.cfi_restore 30
	.cfi_restore 29
	.cfi_restore 19
	.cfi_def_cfa_offset 0
	ret
	.cfi_endproc
.LFE11414:
	.size	_ZN9__gnu_cxx13new_allocatorISt4pairIiNSt7__cxx1112basic_stringIcSt11char_traitsIcESaIcEEEEE9constructIS8_JS8_EEEvPT_DpOT0_, .-_ZN9__gnu_cxx13new_allocatorISt4pairIiNSt7__cxx1112basic_stringIcSt11char_traitsIcESaIcEEEEE9constructIS8_JS8_EEEvPT_DpOT0_
	.section	.text._ZNKSt5dequeISt4pairIiNSt7__cxx1112basic_stringIcSt11char_traitsIcESaIcEEEESaIS7_EE4sizeEv,"axG",@progbits,_ZNKSt5dequeISt4pairIiNSt7__cxx1112basic_stringIcSt11char_traitsIcESaIcEEEESaIS7_EE4sizeEv,comdat
	.align	2
	.weak	_ZNKSt5dequeISt4pairIiNSt7__cxx1112basic_stringIcSt11char_traitsIcESaIcEEEESaIS7_EE4sizeEv
	.type	_ZNKSt5dequeISt4pairIiNSt7__cxx1112basic_stringIcSt11char_traitsIcESaIcEEEESaIS7_EE4sizeEv, %function
_ZNKSt5dequeISt4pairIiNSt7__cxx1112basic_stringIcSt11char_traitsIcESaIcEEEESaIS7_EE4sizeEv:
.LFB11418:
	.cfi_startproc
	stp	x29, x30, [sp, -32]!
	.cfi_def_cfa_offset 32
	.cfi_offset 29, -32
	.cfi_offset 30, -24
	mov	x29, sp
	str	x0, [sp, 24]
	ldr	x0, [sp, 24]
	add	x2, x0, 48
	ldr	x0, [sp, 24]
	add	x0, x0, 16
	mov	x1, x0
	mov	x0, x2
	bl	_ZStmiRKSt15_Deque_iteratorISt4pairIiNSt7__cxx1112basic_stringIcSt11char_traitsIcESaIcEEEERS7_PS7_ESC_
	ldp	x29, x30, [sp], 32
	.cfi_restore 30
	.cfi_restore 29
	.cfi_def_cfa_offset 0
	ret
	.cfi_endproc
.LFE11418:
	.size	_ZNKSt5dequeISt4pairIiNSt7__cxx1112basic_stringIcSt11char_traitsIcESaIcEEEESaIS7_EE4sizeEv, .-_ZNKSt5dequeISt4pairIiNSt7__cxx1112basic_stringIcSt11char_traitsIcESaIcEEEESaIS7_EE4sizeEv
	.section	.text._ZNKSt5dequeISt4pairIiNSt7__cxx1112basic_stringIcSt11char_traitsIcESaIcEEEESaIS7_EE8max_sizeEv,"axG",@progbits,_ZNKSt5dequeISt4pairIiNSt7__cxx1112basic_stringIcSt11char_traitsIcESaIcEEEESaIS7_EE8max_sizeEv,comdat
	.align	2
	.weak	_ZNKSt5dequeISt4pairIiNSt7__cxx1112basic_stringIcSt11char_traitsIcESaIcEEEESaIS7_EE8max_sizeEv
	.type	_ZNKSt5dequeISt4pairIiNSt7__cxx1112basic_stringIcSt11char_traitsIcESaIcEEEESaIS7_EE8max_sizeEv, %function
_ZNKSt5dequeISt4pairIiNSt7__cxx1112basic_stringIcSt11char_traitsIcESaIcEEEESaIS7_EE8max_sizeEv:
.LFB11419:
	.cfi_startproc
	stp	x29, x30, [sp, -32]!
	.cfi_def_cfa_offset 32
	.cfi_offset 29, -32
	.cfi_offset 30, -24
	mov	x29, sp
	str	x0, [sp, 24]
	ldr	x0, [sp, 24]
	bl	_ZNKSt11_Deque_baseISt4pairIiNSt7__cxx1112basic_stringIcSt11char_traitsIcESaIcEEEESaIS7_EE19_M_get_Tp_allocatorEv
	bl	_ZNSt5dequeISt4pairIiNSt7__cxx1112basic_stringIcSt11char_traitsIcESaIcEEEESaIS7_EE11_S_max_sizeERKS8_
	ldp	x29, x30, [sp], 32
	.cfi_restore 30
	.cfi_restore 29
	.cfi_def_cfa_offset 0
	ret
	.cfi_endproc
.LFE11419:
	.size	_ZNKSt5dequeISt4pairIiNSt7__cxx1112basic_stringIcSt11char_traitsIcESaIcEEEESaIS7_EE8max_sizeEv, .-_ZNKSt5dequeISt4pairIiNSt7__cxx1112basic_stringIcSt11char_traitsIcESaIcEEEESaIS7_EE8max_sizeEv
	.section	.text._ZNSt5dequeISt4pairIiNSt7__cxx1112basic_stringIcSt11char_traitsIcESaIcEEEESaIS7_EE22_M_reserve_map_at_backEm,"axG",@progbits,_ZNSt5dequeISt4pairIiNSt7__cxx1112basic_stringIcSt11char_traitsIcESaIcEEEESaIS7_EE22_M_reserve_map_at_backEm,comdat
	.align	2
	.weak	_ZNSt5dequeISt4pairIiNSt7__cxx1112basic_stringIcSt11char_traitsIcESaIcEEEESaIS7_EE22_M_reserve_map_at_backEm
	.type	_ZNSt5dequeISt4pairIiNSt7__cxx1112basic_stringIcSt11char_traitsIcESaIcEEEESaIS7_EE22_M_reserve_map_at_backEm, %function
_ZNSt5dequeISt4pairIiNSt7__cxx1112basic_stringIcSt11char_traitsIcESaIcEEEESaIS7_EE22_M_reserve_map_at_backEm:
.LFB11420:
	.cfi_startproc
	stp	x29, x30, [sp, -32]!
	.cfi_def_cfa_offset 32
	.cfi_offset 29, -32
	.cfi_offset 30, -24
	mov	x29, sp
	str	x0, [sp, 24]
	str	x1, [sp, 16]
	ldr	x0, [sp, 16]
	add	x1, x0, 1
	ldr	x0, [sp, 24]
	ldr	x0, [x0, 8]
	ldr	x2, [sp, 24]
	ldr	x3, [x2, 72]
	ldr	x2, [sp, 24]
	ldr	x2, [x2]
	sub	x2, x3, x2
	asr	x2, x2, 3
	sub	x0, x0, x2
	cmp	x1, x0
	bls	.L268
	mov	w2, 0
	ldr	x1, [sp, 16]
	ldr	x0, [sp, 24]
	bl	_ZNSt5dequeISt4pairIiNSt7__cxx1112basic_stringIcSt11char_traitsIcESaIcEEEESaIS7_EE17_M_reallocate_mapEmb
.L268:
	nop
	ldp	x29, x30, [sp], 32
	.cfi_restore 30
	.cfi_restore 29
	.cfi_def_cfa_offset 0
	ret
	.cfi_endproc
.LFE11420:
	.size	_ZNSt5dequeISt4pairIiNSt7__cxx1112basic_stringIcSt11char_traitsIcESaIcEEEESaIS7_EE22_M_reserve_map_at_backEm, .-_ZNSt5dequeISt4pairIiNSt7__cxx1112basic_stringIcSt11char_traitsIcESaIcEEEESaIS7_EE22_M_reserve_map_at_backEm
	.section	.text._ZStmiRKSt15_Deque_iteratorIiRiPiES4_,"axG",@progbits,_ZStmiRKSt15_Deque_iteratorIiRiPiES4_,comdat
	.align	2
	.weak	_ZStmiRKSt15_Deque_iteratorIiRiPiES4_
	.type	_ZStmiRKSt15_Deque_iteratorIiRiPiES4_, %function
_ZStmiRKSt15_Deque_iteratorIiRiPiES4_:
.LFB11421:
	.cfi_startproc
	stp	x29, x30, [sp, -32]!
	.cfi_def_cfa_offset 32
	.cfi_offset 29, -32
	.cfi_offset 30, -24
	mov	x29, sp
	str	x0, [sp, 24]
	str	x1, [sp, 16]
	bl	_ZNSt15_Deque_iteratorIiRiPiE14_S_buffer_sizeEv
	mov	x2, x0
	ldr	x0, [sp, 24]
	ldr	x1, [x0, 24]
	ldr	x0, [sp, 16]
	ldr	x0, [x0, 24]
	sub	x0, x1, x0
	asr	x0, x0, 3
	mov	x1, x0
	ldr	x0, [sp, 24]
	ldr	x0, [x0, 24]
	cmp	x0, 0
	cset	w0, ne
	and	w0, w0, 255
	and	x0, x0, 255
	sub	x0, x1, x0
	mul	x0, x2, x0
	ldr	x1, [sp, 24]
	ldr	x2, [x1]
	ldr	x1, [sp, 24]
	ldr	x1, [x1, 8]
	sub	x1, x2, x1
	asr	x1, x1, 2
	add	x0, x0, x1
	ldr	x1, [sp, 16]
	ldr	x2, [x1, 16]
	ldr	x1, [sp, 16]
	ldr	x1, [x1]
	sub	x1, x2, x1
	asr	x1, x1, 2
	add	x0, x0, x1
	ldp	x29, x30, [sp], 32
	.cfi_restore 30
	.cfi_restore 29
	.cfi_def_cfa_offset 0
	ret
	.cfi_endproc
.LFE11421:
	.size	_ZStmiRKSt15_Deque_iteratorIiRiPiES4_, .-_ZStmiRKSt15_Deque_iteratorIiRiPiES4_
	.section	.text._ZNSt5dequeIiSaIiEE11_S_max_sizeERKS0_,"axG",@progbits,_ZNSt5dequeIiSaIiEE11_S_max_sizeERKS0_,comdat
	.align	2
	.weak	_ZNSt5dequeIiSaIiEE11_S_max_sizeERKS0_
	.type	_ZNSt5dequeIiSaIiEE11_S_max_sizeERKS0_, %function
_ZNSt5dequeIiSaIiEE11_S_max_sizeERKS0_:
.LFB11422:
	.cfi_startproc
	stp	x29, x30, [sp, -48]!
	.cfi_def_cfa_offset 48
	.cfi_offset 29, -48
	.cfi_offset 30, -40
	mov	x29, sp
	str	x0, [sp, 24]
	mov	x0, 9223372036854775807
	str	x0, [sp, 40]
	ldr	x0, [sp, 24]
	bl	_ZNSt16allocator_traitsISaIiEE8max_sizeERKS0_
	str	x0, [sp, 32]
	add	x1, sp, 32
	add	x0, sp, 40
	bl	_ZSt3minImERKT_S2_S2_
	ldr	x0, [x0]
	ldp	x29, x30, [sp], 48
	.cfi_restore 30
	.cfi_restore 29
	.cfi_def_cfa_offset 0
	ret
	.cfi_endproc
.LFE11422:
	.size	_ZNSt5dequeIiSaIiEE11_S_max_sizeERKS0_, .-_ZNSt5dequeIiSaIiEE11_S_max_sizeERKS0_
	.section	.text._ZNSt5dequeIiSaIiEE17_M_reallocate_mapEmb,"axG",@progbits,_ZNSt5dequeIiSaIiEE17_M_reallocate_mapEmb,comdat
	.align	2
	.weak	_ZNSt5dequeIiSaIiEE17_M_reallocate_mapEmb
	.type	_ZNSt5dequeIiSaIiEE17_M_reallocate_mapEmb, %function
_ZNSt5dequeIiSaIiEE17_M_reallocate_mapEmb:
.LFB11423:
	.cfi_startproc
	stp	x29, x30, [sp, -112]!
	.cfi_def_cfa_offset 112
	.cfi_offset 29, -112
	.cfi_offset 30, -104
	mov	x29, sp
	str	x19, [sp, 16]
	.cfi_offset 19, -96
	str	x0, [sp, 56]
	str	x1, [sp, 48]
	strb	w2, [sp, 47]
	ldr	x0, [sp, 56]
	ldr	x1, [x0, 72]
	ldr	x0, [sp, 56]
	ldr	x0, [x0, 40]
	sub	x0, x1, x0
	asr	x0, x0, 3
	add	x0, x0, 1
	str	x0, [sp, 96]
	ldr	x0, [sp, 48]
	ldr	x1, [sp, 96]
	add	x0, x1, x0
	str	x0, [sp, 88]
	ldr	x0, [sp, 56]
	ldr	x1, [x0, 8]
	ldr	x0, [sp, 88]
	lsl	x0, x0, 1
	cmp	x1, x0
	bls	.L274
	ldr	x0, [sp, 56]
	ldr	x1, [x0]
	ldr	x0, [sp, 56]
	ldr	x2, [x0, 8]
	ldr	x0, [sp, 88]
	sub	x0, x2, x0
	lsr	x0, x0, 1
	lsl	x2, x0, 3
	ldrb	w0, [sp, 47]
	cmp	w0, 0
	beq	.L275
	ldr	x0, [sp, 48]
	lsl	x0, x0, 3
	b	.L276
.L275:
	mov	x0, 0
.L276:
	add	x0, x0, x2
	add	x0, x1, x0
	str	x0, [sp, 104]
	ldr	x0, [sp, 56]
	ldr	x0, [x0, 40]
	ldr	x1, [sp, 104]
	cmp	x1, x0
	bcs	.L277
	ldr	x0, [sp, 56]
	ldr	x3, [x0, 40]
	ldr	x0, [sp, 56]
	ldr	x0, [x0, 72]
	add	x0, x0, 8
	ldr	x2, [sp, 104]
	mov	x1, x0
	mov	x0, x3
	bl	_ZSt4copyIPPiS1_ET0_T_S3_S2_
	b	.L278
.L277:
	ldr	x0, [sp, 56]
	ldr	x3, [x0, 40]
	ldr	x0, [sp, 56]
	ldr	x0, [x0, 72]
	add	x4, x0, 8
	ldr	x0, [sp, 96]
	lsl	x0, x0, 3
	ldr	x1, [sp, 104]
	add	x0, x1, x0
	mov	x2, x0
	mov	x1, x4
	mov	x0, x3
	bl	_ZSt13copy_backwardIPPiS1_ET0_T_S3_S2_
	b	.L278
.L274:
	ldr	x0, [sp, 56]
	ldr	x19, [x0, 8]
	ldr	x0, [sp, 56]
	add	x0, x0, 8
	add	x1, sp, 48
	bl	_ZSt3maxImERKT_S2_S2_
	ldr	x0, [x0]
	add	x0, x19, x0
	add	x0, x0, 2
	str	x0, [sp, 80]
	ldr	x0, [sp, 56]
	ldr	x1, [sp, 80]
	bl	_ZNSt11_Deque_baseIiSaIiEE15_M_allocate_mapEm
	str	x0, [sp, 72]
	ldr	x1, [sp, 80]
	ldr	x0, [sp, 88]
	sub	x0, x1, x0
	lsr	x0, x0, 1
	lsl	x1, x0, 3
	ldrb	w0, [sp, 47]
	cmp	w0, 0
	beq	.L279
	ldr	x0, [sp, 48]
	lsl	x0, x0, 3
	b	.L280
.L279:
	mov	x0, 0
.L280:
	add	x0, x0, x1
	ldr	x1, [sp, 72]
	add	x0, x1, x0
	str	x0, [sp, 104]
	ldr	x0, [sp, 56]
	ldr	x3, [x0, 40]
	ldr	x0, [sp, 56]
	ldr	x0, [x0, 72]
	add	x0, x0, 8
	ldr	x2, [sp, 104]
	mov	x1, x0
	mov	x0, x3
	bl	_ZSt4copyIPPiS1_ET0_T_S3_S2_
	ldr	x3, [sp, 56]
	ldr	x0, [sp, 56]
	ldr	x1, [x0]
	ldr	x0, [sp, 56]
	ldr	x0, [x0, 8]
	mov	x2, x0
	mov	x0, x3
	bl	_ZNSt11_Deque_baseIiSaIiEE17_M_deallocate_mapEPPim
	ldr	x0, [sp, 56]
	ldr	x1, [sp, 72]
	str	x1, [x0]
	ldr	x0, [sp, 56]
	ldr	x1, [sp, 80]
	str	x1, [x0, 8]
.L278:
	ldr	x0, [sp, 56]
	add	x0, x0, 16
	ldr	x1, [sp, 104]
	bl	_ZNSt15_Deque_iteratorIiRiPiE11_M_set_nodeEPS1_
	ldr	x0, [sp, 56]
	add	x2, x0, 48
	ldr	x0, [sp, 96]
	lsl	x0, x0, 3
	sub	x0, x0, #8
	ldr	x1, [sp, 104]
	add	x0, x1, x0
	mov	x1, x0
	mov	x0, x2
	bl	_ZNSt15_Deque_iteratorIiRiPiE11_M_set_nodeEPS1_
	nop
	ldr	x19, [sp, 16]
	ldp	x29, x30, [sp], 112
	.cfi_restore 30
	.cfi_restore 29
	.cfi_restore 19
	.cfi_def_cfa_offset 0
	ret
	.cfi_endproc
.LFE11423:
	.size	_ZNSt5dequeIiSaIiEE17_M_reallocate_mapEmb, .-_ZNSt5dequeIiSaIiEE17_M_reallocate_mapEmb
	.section	.text._ZNSt16allocator_traitsISaIiEE8allocateERS0_m,"axG",@progbits,_ZNSt16allocator_traitsISaIiEE8allocateERS0_m,comdat
	.align	2
	.weak	_ZNSt16allocator_traitsISaIiEE8allocateERS0_m
	.type	_ZNSt16allocator_traitsISaIiEE8allocateERS0_m, %function
_ZNSt16allocator_traitsISaIiEE8allocateERS0_m:
.LFB11424:
	.cfi_startproc
	stp	x29, x30, [sp, -32]!
	.cfi_def_cfa_offset 32
	.cfi_offset 29, -32
	.cfi_offset 30, -24
	mov	x29, sp
	str	x0, [sp, 24]
	str	x1, [sp, 16]
	mov	x2, 0
	ldr	x1, [sp, 16]
	ldr	x0, [sp, 24]
	bl	_ZN9__gnu_cxx13new_allocatorIiE8allocateEmPKv
	ldp	x29, x30, [sp], 32
	.cfi_restore 30
	.cfi_restore 29
	.cfi_def_cfa_offset 0
	ret
	.cfi_endproc
.LFE11424:
	.size	_ZNSt16allocator_traitsISaIiEE8allocateERS0_m, .-_ZNSt16allocator_traitsISaIiEE8allocateERS0_m
	.section	.text._ZNK9__gnu_cxx13new_allocatorIPSt4pairIiNSt7__cxx1112basic_stringIcSt11char_traitsIcESaIcEEEEE11_M_max_sizeEv,"axG",@progbits,_ZNK9__gnu_cxx13new_allocatorIPSt4pairIiNSt7__cxx1112basic_stringIcSt11char_traitsIcESaIcEEEEE11_M_max_sizeEv,comdat
	.align	2
	.weak	_ZNK9__gnu_cxx13new_allocatorIPSt4pairIiNSt7__cxx1112basic_stringIcSt11char_traitsIcESaIcEEEEE11_M_max_sizeEv
	.type	_ZNK9__gnu_cxx13new_allocatorIPSt4pairIiNSt7__cxx1112basic_stringIcSt11char_traitsIcESaIcEEEEE11_M_max_sizeEv, %function
_ZNK9__gnu_cxx13new_allocatorIPSt4pairIiNSt7__cxx1112basic_stringIcSt11char_traitsIcESaIcEEEEE11_M_max_sizeEv:
.LFB11531:
	.cfi_startproc
	sub	sp, sp, #16
	.cfi_def_cfa_offset 16
	str	x0, [sp, 8]
	mov	x0, 1152921504606846975
	add	sp, sp, 16
	.cfi_def_cfa_offset 0
	ret
	.cfi_endproc
.LFE11531:
	.size	_ZNK9__gnu_cxx13new_allocatorIPSt4pairIiNSt7__cxx1112basic_stringIcSt11char_traitsIcESaIcEEEEE11_M_max_sizeEv, .-_ZNK9__gnu_cxx13new_allocatorIPSt4pairIiNSt7__cxx1112basic_stringIcSt11char_traitsIcESaIcEEEEE11_M_max_sizeEv
	.section	.text._ZN9__gnu_cxx13new_allocatorIPSt4pairIiNSt7__cxx1112basic_stringIcSt11char_traitsIcESaIcEEEEE8allocateEmPKv,"axG",@progbits,_ZN9__gnu_cxx13new_allocatorIPSt4pairIiNSt7__cxx1112basic_stringIcSt11char_traitsIcESaIcEEEEE8allocateEmPKv,comdat
	.align	2
	.weak	_ZN9__gnu_cxx13new_allocatorIPSt4pairIiNSt7__cxx1112basic_stringIcSt11char_traitsIcESaIcEEEEE8allocateEmPKv
	.type	_ZN9__gnu_cxx13new_allocatorIPSt4pairIiNSt7__cxx1112basic_stringIcSt11char_traitsIcESaIcEEEEE8allocateEmPKv, %function
_ZN9__gnu_cxx13new_allocatorIPSt4pairIiNSt7__cxx1112basic_stringIcSt11char_traitsIcESaIcEEEEE8allocateEmPKv:
.LFB11530:
	.cfi_startproc
	stp	x29, x30, [sp, -48]!
	.cfi_def_cfa_offset 48
	.cfi_offset 29, -48
	.cfi_offset 30, -40
	mov	x29, sp
	str	x0, [sp, 40]
	str	x1, [sp, 32]
	str	x2, [sp, 24]
	ldr	x0, [sp, 40]
	bl	_ZNK9__gnu_cxx13new_allocatorIPSt4pairIiNSt7__cxx1112basic_stringIcSt11char_traitsIcESaIcEEEEE11_M_max_sizeEv
	mov	x1, x0
	ldr	x0, [sp, 32]
	cmp	x0, x1
	cset	w0, hi
	and	w0, w0, 255
	and	x0, x0, 255
	cmp	x0, 0
	cset	w0, ne
	and	w0, w0, 255
	cmp	w0, 0
	beq	.L286
	ldr	x1, [sp, 32]
	mov	x0, 2305843009213693951
	cmp	x1, x0
	bls	.L287
	bl	_ZSt28__throw_bad_array_new_lengthv
.L287:
	bl	_ZSt17__throw_bad_allocv
.L286:
	ldr	x0, [sp, 32]
	lsl	x0, x0, 3
	bl	_Znwm
	nop
	ldp	x29, x30, [sp], 48
	.cfi_restore 30
	.cfi_restore 29
	.cfi_def_cfa_offset 0
	ret
	.cfi_endproc
.LFE11530:
	.size	_ZN9__gnu_cxx13new_allocatorIPSt4pairIiNSt7__cxx1112basic_stringIcSt11char_traitsIcESaIcEEEEE8allocateEmPKv, .-_ZN9__gnu_cxx13new_allocatorIPSt4pairIiNSt7__cxx1112basic_stringIcSt11char_traitsIcESaIcEEEEE8allocateEmPKv
	.section	.text._ZNSt16allocator_traitsISaISt4pairIiNSt7__cxx1112basic_stringIcSt11char_traitsIcESaIcEEEEEE8allocateERS8_m,"axG",@progbits,_ZNSt16allocator_traitsISaISt4pairIiNSt7__cxx1112basic_stringIcSt11char_traitsIcESaIcEEEEEE8allocateERS8_m,comdat
	.align	2
	.weak	_ZNSt16allocator_traitsISaISt4pairIiNSt7__cxx1112basic_stringIcSt11char_traitsIcESaIcEEEEEE8allocateERS8_m
	.type	_ZNSt16allocator_traitsISaISt4pairIiNSt7__cxx1112basic_stringIcSt11char_traitsIcESaIcEEEEEE8allocateERS8_m, %function
_ZNSt16allocator_traitsISaISt4pairIiNSt7__cxx1112basic_stringIcSt11char_traitsIcESaIcEEEEEE8allocateERS8_m:
.LFB11532:
	.cfi_startproc
	stp	x29, x30, [sp, -32]!
	.cfi_def_cfa_offset 32
	.cfi_offset 29, -32
	.cfi_offset 30, -24
	mov	x29, sp
	str	x0, [sp, 24]
	str	x1, [sp, 16]
	mov	x2, 0
	ldr	x1, [sp, 16]
	ldr	x0, [sp, 24]
	bl	_ZN9__gnu_cxx13new_allocatorISt4pairIiNSt7__cxx1112basic_stringIcSt11char_traitsIcESaIcEEEEE8allocateEmPKv
	ldp	x29, x30, [sp], 32
	.cfi_restore 30
	.cfi_restore 29
	.cfi_def_cfa_offset 0
	ret
	.cfi_endproc
.LFE11532:
	.size	_ZNSt16allocator_traitsISaISt4pairIiNSt7__cxx1112basic_stringIcSt11char_traitsIcESaIcEEEEEE8allocateERS8_m, .-_ZNSt16allocator_traitsISaISt4pairIiNSt7__cxx1112basic_stringIcSt11char_traitsIcESaIcEEEEEE8allocateERS8_m
	.section	.text._ZN9__gnu_cxx13new_allocatorISt4pairIiNSt7__cxx1112basic_stringIcSt11char_traitsIcESaIcEEEEE10deallocateEPS8_m,"axG",@progbits,_ZN9__gnu_cxx13new_allocatorISt4pairIiNSt7__cxx1112basic_stringIcSt11char_traitsIcESaIcEEEEE10deallocateEPS8_m,comdat
	.align	2
	.weak	_ZN9__gnu_cxx13new_allocatorISt4pairIiNSt7__cxx1112basic_stringIcSt11char_traitsIcESaIcEEEEE10deallocateEPS8_m
	.type	_ZN9__gnu_cxx13new_allocatorISt4pairIiNSt7__cxx1112basic_stringIcSt11char_traitsIcESaIcEEEEE10deallocateEPS8_m, %function
_ZN9__gnu_cxx13new_allocatorISt4pairIiNSt7__cxx1112basic_stringIcSt11char_traitsIcESaIcEEEEE10deallocateEPS8_m:
.LFB11533:
	.cfi_startproc
	stp	x29, x30, [sp, -48]!
	.cfi_def_cfa_offset 48
	.cfi_offset 29, -48
	.cfi_offset 30, -40
	mov	x29, sp
	str	x0, [sp, 40]
	str	x1, [sp, 32]
	str	x2, [sp, 24]
	ldr	x1, [sp, 24]
	mov	x0, x1
	lsl	x0, x0, 2
	add	x0, x0, x1
	lsl	x0, x0, 3
	mov	x1, x0
	ldr	x0, [sp, 32]
	bl	_ZdlPvm
	ldp	x29, x30, [sp], 48
	.cfi_restore 30
	.cfi_restore 29
	.cfi_def_cfa_offset 0
	ret
	.cfi_endproc
.LFE11533:
	.size	_ZN9__gnu_cxx13new_allocatorISt4pairIiNSt7__cxx1112basic_stringIcSt11char_traitsIcESaIcEEEEE10deallocateEPS8_m, .-_ZN9__gnu_cxx13new_allocatorISt4pairIiNSt7__cxx1112basic_stringIcSt11char_traitsIcESaIcEEEEE10deallocateEPS8_m
	.section	.text._ZN9__gnu_cxx13new_allocatorIPSt4pairIiNSt7__cxx1112basic_stringIcSt11char_traitsIcESaIcEEEEEC2Ev,"axG",@progbits,_ZN9__gnu_cxx13new_allocatorIPSt4pairIiNSt7__cxx1112basic_stringIcSt11char_traitsIcESaIcEEEEEC5Ev,comdat
	.align	2
	.weak	_ZN9__gnu_cxx13new_allocatorIPSt4pairIiNSt7__cxx1112basic_stringIcSt11char_traitsIcESaIcEEEEEC2Ev
	.type	_ZN9__gnu_cxx13new_allocatorIPSt4pairIiNSt7__cxx1112basic_stringIcSt11char_traitsIcESaIcEEEEEC2Ev, %function
_ZN9__gnu_cxx13new_allocatorIPSt4pairIiNSt7__cxx1112basic_stringIcSt11char_traitsIcESaIcEEEEEC2Ev:
.LFB11535:
	.cfi_startproc
	sub	sp, sp, #16
	.cfi_def_cfa_offset 16
	str	x0, [sp, 8]
	nop
	add	sp, sp, 16
	.cfi_def_cfa_offset 0
	ret
	.cfi_endproc
.LFE11535:
	.size	_ZN9__gnu_cxx13new_allocatorIPSt4pairIiNSt7__cxx1112basic_stringIcSt11char_traitsIcESaIcEEEEEC2Ev, .-_ZN9__gnu_cxx13new_allocatorIPSt4pairIiNSt7__cxx1112basic_stringIcSt11char_traitsIcESaIcEEEEEC2Ev
	.weak	_ZN9__gnu_cxx13new_allocatorIPSt4pairIiNSt7__cxx1112basic_stringIcSt11char_traitsIcESaIcEEEEEC1Ev
	.set	_ZN9__gnu_cxx13new_allocatorIPSt4pairIiNSt7__cxx1112basic_stringIcSt11char_traitsIcESaIcEEEEEC1Ev,_ZN9__gnu_cxx13new_allocatorIPSt4pairIiNSt7__cxx1112basic_stringIcSt11char_traitsIcESaIcEEEEEC2Ev
	.section	.text._ZNSt12_Destroy_auxILb0EE9__destroyIPSt4pairIiNSt7__cxx1112basic_stringIcSt11char_traitsIcESaIcEEEEEEvT_SB_,"axG",@progbits,_ZNSt12_Destroy_auxILb0EE9__destroyIPSt4pairIiNSt7__cxx1112basic_stringIcSt11char_traitsIcESaIcEEEEEEvT_SB_,comdat
	.align	2
	.weak	_ZNSt12_Destroy_auxILb0EE9__destroyIPSt4pairIiNSt7__cxx1112basic_stringIcSt11char_traitsIcESaIcEEEEEEvT_SB_
	.type	_ZNSt12_Destroy_auxILb0EE9__destroyIPSt4pairIiNSt7__cxx1112basic_stringIcSt11char_traitsIcESaIcEEEEEEvT_SB_, %function
_ZNSt12_Destroy_auxILb0EE9__destroyIPSt4pairIiNSt7__cxx1112basic_stringIcSt11char_traitsIcESaIcEEEEEEvT_SB_:
.LFB11537:
	.cfi_startproc
	stp	x29, x30, [sp, -32]!
	.cfi_def_cfa_offset 32
	.cfi_offset 29, -32
	.cfi_offset 30, -24
	mov	x29, sp
	str	x0, [sp, 24]
	str	x1, [sp, 16]
	b	.L295
.L296:
	ldr	x0, [sp, 24]
	bl	_ZSt11__addressofISt4pairIiNSt7__cxx1112basic_stringIcSt11char_traitsIcESaIcEEEEEPT_RS8_
	bl	_ZSt8_DestroyISt4pairIiNSt7__cxx1112basic_stringIcSt11char_traitsIcESaIcEEEEEvPT_
	ldr	x0, [sp, 24]
	add	x0, x0, 40
	str	x0, [sp, 24]
.L295:
	ldr	x1, [sp, 24]
	ldr	x0, [sp, 16]
	cmp	x1, x0
	bne	.L296
	nop
	nop
	ldp	x29, x30, [sp], 32
	.cfi_restore 30
	.cfi_restore 29
	.cfi_def_cfa_offset 0
	ret
	.cfi_endproc
.LFE11537:
	.size	_ZNSt12_Destroy_auxILb0EE9__destroyIPSt4pairIiNSt7__cxx1112basic_stringIcSt11char_traitsIcESaIcEEEEEEvT_SB_, .-_ZNSt12_Destroy_auxILb0EE9__destroyIPSt4pairIiNSt7__cxx1112basic_stringIcSt11char_traitsIcESaIcEEEEEEvT_SB_
	.section	.text._ZNK9__gnu_cxx13new_allocatorIPiE11_M_max_sizeEv,"axG",@progbits,_ZNK9__gnu_cxx13new_allocatorIPiE11_M_max_sizeEv,comdat
	.align	2
	.weak	_ZNK9__gnu_cxx13new_allocatorIPiE11_M_max_sizeEv
	.type	_ZNK9__gnu_cxx13new_allocatorIPiE11_M_max_sizeEv, %function
_ZNK9__gnu_cxx13new_allocatorIPiE11_M_max_sizeEv:
.LFB11539:
	.cfi_startproc
	sub	sp, sp, #16
	.cfi_def_cfa_offset 16
	str	x0, [sp, 8]
	mov	x0, 1152921504606846975
	add	sp, sp, 16
	.cfi_def_cfa_offset 0
	ret
	.cfi_endproc
.LFE11539:
	.size	_ZNK9__gnu_cxx13new_allocatorIPiE11_M_max_sizeEv, .-_ZNK9__gnu_cxx13new_allocatorIPiE11_M_max_sizeEv
	.section	.text._ZN9__gnu_cxx13new_allocatorIPiE8allocateEmPKv,"axG",@progbits,_ZN9__gnu_cxx13new_allocatorIPiE8allocateEmPKv,comdat
	.align	2
	.weak	_ZN9__gnu_cxx13new_allocatorIPiE8allocateEmPKv
	.type	_ZN9__gnu_cxx13new_allocatorIPiE8allocateEmPKv, %function
_ZN9__gnu_cxx13new_allocatorIPiE8allocateEmPKv:
.LFB11538:
	.cfi_startproc
	stp	x29, x30, [sp, -48]!
	.cfi_def_cfa_offset 48
	.cfi_offset 29, -48
	.cfi_offset 30, -40
	mov	x29, sp
	str	x0, [sp, 40]
	str	x1, [sp, 32]
	str	x2, [sp, 24]
	ldr	x0, [sp, 40]
	bl	_ZNK9__gnu_cxx13new_allocatorIPiE11_M_max_sizeEv
	mov	x1, x0
	ldr	x0, [sp, 32]
	cmp	x0, x1
	cset	w0, hi
	and	w0, w0, 255
	and	x0, x0, 255
	cmp	x0, 0
	cset	w0, ne
	and	w0, w0, 255
	cmp	w0, 0
	beq	.L300
	ldr	x1, [sp, 32]
	mov	x0, 2305843009213693951
	cmp	x1, x0
	bls	.L301
	bl	_ZSt28__throw_bad_array_new_lengthv
.L301:
	bl	_ZSt17__throw_bad_allocv
.L300:
	ldr	x0, [sp, 32]
	lsl	x0, x0, 3
	bl	_Znwm
	nop
	ldp	x29, x30, [sp], 48
	.cfi_restore 30
	.cfi_restore 29
	.cfi_def_cfa_offset 0
	ret
	.cfi_endproc
.LFE11538:
	.size	_ZN9__gnu_cxx13new_allocatorIPiE8allocateEmPKv, .-_ZN9__gnu_cxx13new_allocatorIPiE8allocateEmPKv
	.section	.text._ZN9__gnu_cxx13new_allocatorIiE10deallocateEPim,"axG",@progbits,_ZN9__gnu_cxx13new_allocatorIiE10deallocateEPim,comdat
	.align	2
	.weak	_ZN9__gnu_cxx13new_allocatorIiE10deallocateEPim
	.type	_ZN9__gnu_cxx13new_allocatorIiE10deallocateEPim, %function
_ZN9__gnu_cxx13new_allocatorIiE10deallocateEPim:
.LFB11540:
	.cfi_startproc
	stp	x29, x30, [sp, -48]!
	.cfi_def_cfa_offset 48
	.cfi_offset 29, -48
	.cfi_offset 30, -40
	mov	x29, sp
	str	x0, [sp, 40]
	str	x1, [sp, 32]
	str	x2, [sp, 24]
	ldr	x0, [sp, 24]
	lsl	x0, x0, 2
	mov	x1, x0
	ldr	x0, [sp, 32]
	bl	_ZdlPvm
	ldp	x29, x30, [sp], 48
	.cfi_restore 30
	.cfi_restore 29
	.cfi_def_cfa_offset 0
	ret
	.cfi_endproc
.LFE11540:
	.size	_ZN9__gnu_cxx13new_allocatorIiE10deallocateEPim, .-_ZN9__gnu_cxx13new_allocatorIiE10deallocateEPim
	.section	.text._ZN9__gnu_cxx13new_allocatorIPiEC2Ev,"axG",@progbits,_ZN9__gnu_cxx13new_allocatorIPiEC5Ev,comdat
	.align	2
	.weak	_ZN9__gnu_cxx13new_allocatorIPiEC2Ev
	.type	_ZN9__gnu_cxx13new_allocatorIPiEC2Ev, %function
_ZN9__gnu_cxx13new_allocatorIPiEC2Ev:
.LFB11542:
	.cfi_startproc
	sub	sp, sp, #16
	.cfi_def_cfa_offset 16
	str	x0, [sp, 8]
	nop
	add	sp, sp, 16
	.cfi_def_cfa_offset 0
	ret
	.cfi_endproc
.LFE11542:
	.size	_ZN9__gnu_cxx13new_allocatorIPiEC2Ev, .-_ZN9__gnu_cxx13new_allocatorIPiEC2Ev
	.weak	_ZN9__gnu_cxx13new_allocatorIPiEC1Ev
	.set	_ZN9__gnu_cxx13new_allocatorIPiEC1Ev,_ZN9__gnu_cxx13new_allocatorIPiEC2Ev
	.section	.text._ZStmiRKSt15_Deque_iteratorISt4pairIiNSt7__cxx1112basic_stringIcSt11char_traitsIcESaIcEEEERS7_PS7_ESC_,"axG",@progbits,_ZStmiRKSt15_Deque_iteratorISt4pairIiNSt7__cxx1112basic_stringIcSt11char_traitsIcESaIcEEEERS7_PS7_ESC_,comdat
	.align	2
	.weak	_ZStmiRKSt15_Deque_iteratorISt4pairIiNSt7__cxx1112basic_stringIcSt11char_traitsIcESaIcEEEERS7_PS7_ESC_
	.type	_ZStmiRKSt15_Deque_iteratorISt4pairIiNSt7__cxx1112basic_stringIcSt11char_traitsIcESaIcEEEERS7_PS7_ESC_, %function
_ZStmiRKSt15_Deque_iteratorISt4pairIiNSt7__cxx1112basic_stringIcSt11char_traitsIcESaIcEEEERS7_PS7_ESC_:
.LFB11545:
	.cfi_startproc
	stp	x29, x30, [sp, -32]!
	.cfi_def_cfa_offset 32
	.cfi_offset 29, -32
	.cfi_offset 30, -24
	mov	x29, sp
	str	x0, [sp, 24]
	str	x1, [sp, 16]
	bl	_ZNSt15_Deque_iteratorISt4pairIiNSt7__cxx1112basic_stringIcSt11char_traitsIcESaIcEEEERS7_PS7_E14_S_buffer_sizeEv
	mov	x2, x0
	ldr	x0, [sp, 24]
	ldr	x1, [x0, 24]
	ldr	x0, [sp, 16]
	ldr	x0, [x0, 24]
	sub	x0, x1, x0
	asr	x0, x0, 3
	mov	x1, x0
	ldr	x0, [sp, 24]
	ldr	x0, [x0, 24]
	cmp	x0, 0
	cset	w0, ne
	and	w0, w0, 255
	and	x0, x0, 255
	sub	x0, x1, x0
	mul	x0, x2, x0
	ldr	x1, [sp, 24]
	ldr	x2, [x1]
	ldr	x1, [sp, 24]
	ldr	x1, [x1, 8]
	sub	x1, x2, x1
	asr	x2, x1, 3
	mov	x1, -3689348814741910324
	movk	x1, 0xcccd, lsl 0
	mul	x1, x2, x1
	add	x0, x0, x1
	ldr	x1, [sp, 16]
	ldr	x2, [x1, 16]
	ldr	x1, [sp, 16]
	ldr	x1, [x1]
	sub	x1, x2, x1
	asr	x2, x1, 3
	mov	x1, -3689348814741910324
	movk	x1, 0xcccd, lsl 0
	mul	x1, x2, x1
	add	x0, x0, x1
	ldp	x29, x30, [sp], 32
	.cfi_restore 30
	.cfi_restore 29
	.cfi_def_cfa_offset 0
	ret
	.cfi_endproc
.LFE11545:
	.size	_ZStmiRKSt15_Deque_iteratorISt4pairIiNSt7__cxx1112basic_stringIcSt11char_traitsIcESaIcEEEERS7_PS7_ESC_, .-_ZStmiRKSt15_Deque_iteratorISt4pairIiNSt7__cxx1112basic_stringIcSt11char_traitsIcESaIcEEEERS7_PS7_ESC_
	.section	.text._ZNSt5dequeISt4pairIiNSt7__cxx1112basic_stringIcSt11char_traitsIcESaIcEEEESaIS7_EE11_S_max_sizeERKS8_,"axG",@progbits,_ZNSt5dequeISt4pairIiNSt7__cxx1112basic_stringIcSt11char_traitsIcESaIcEEEESaIS7_EE11_S_max_sizeERKS8_,comdat
	.align	2
	.weak	_ZNSt5dequeISt4pairIiNSt7__cxx1112basic_stringIcSt11char_traitsIcESaIcEEEESaIS7_EE11_S_max_sizeERKS8_
	.type	_ZNSt5dequeISt4pairIiNSt7__cxx1112basic_stringIcSt11char_traitsIcESaIcEEEESaIS7_EE11_S_max_sizeERKS8_, %function
_ZNSt5dequeISt4pairIiNSt7__cxx1112basic_stringIcSt11char_traitsIcESaIcEEEESaIS7_EE11_S_max_sizeERKS8_:
.LFB11546:
	.cfi_startproc
	stp	x29, x30, [sp, -48]!
	.cfi_def_cfa_offset 48
	.cfi_offset 29, -48
	.cfi_offset 30, -40
	mov	x29, sp
	str	x0, [sp, 24]
	mov	x0, 9223372036854775807
	str	x0, [sp, 40]
	ldr	x0, [sp, 24]
	bl	_ZNSt16allocator_traitsISaISt4pairIiNSt7__cxx1112basic_stringIcSt11char_traitsIcESaIcEEEEEE8max_sizeERKS8_
	str	x0, [sp, 32]
	add	x1, sp, 32
	add	x0, sp, 40
	bl	_ZSt3minImERKT_S2_S2_
	ldr	x0, [x0]
	ldp	x29, x30, [sp], 48
	.cfi_restore 30
	.cfi_restore 29
	.cfi_def_cfa_offset 0
	ret
	.cfi_endproc
.LFE11546:
	.size	_ZNSt5dequeISt4pairIiNSt7__cxx1112basic_stringIcSt11char_traitsIcESaIcEEEESaIS7_EE11_S_max_sizeERKS8_, .-_ZNSt5dequeISt4pairIiNSt7__cxx1112basic_stringIcSt11char_traitsIcESaIcEEEESaIS7_EE11_S_max_sizeERKS8_
	.section	.text._ZNSt5dequeISt4pairIiNSt7__cxx1112basic_stringIcSt11char_traitsIcESaIcEEEESaIS7_EE17_M_reallocate_mapEmb,"axG",@progbits,_ZNSt5dequeISt4pairIiNSt7__cxx1112basic_stringIcSt11char_traitsIcESaIcEEEESaIS7_EE17_M_reallocate_mapEmb,comdat
	.align	2
	.weak	_ZNSt5dequeISt4pairIiNSt7__cxx1112basic_stringIcSt11char_traitsIcESaIcEEEESaIS7_EE17_M_reallocate_mapEmb
	.type	_ZNSt5dequeISt4pairIiNSt7__cxx1112basic_stringIcSt11char_traitsIcESaIcEEEESaIS7_EE17_M_reallocate_mapEmb, %function
_ZNSt5dequeISt4pairIiNSt7__cxx1112basic_stringIcSt11char_traitsIcESaIcEEEESaIS7_EE17_M_reallocate_mapEmb:
.LFB11547:
	.cfi_startproc
	stp	x29, x30, [sp, -112]!
	.cfi_def_cfa_offset 112
	.cfi_offset 29, -112
	.cfi_offset 30, -104
	mov	x29, sp
	str	x19, [sp, 16]
	.cfi_offset 19, -96
	str	x0, [sp, 56]
	str	x1, [sp, 48]
	strb	w2, [sp, 47]
	ldr	x0, [sp, 56]
	ldr	x1, [x0, 72]
	ldr	x0, [sp, 56]
	ldr	x0, [x0, 40]
	sub	x0, x1, x0
	asr	x0, x0, 3
	add	x0, x0, 1
	str	x0, [sp, 96]
	ldr	x0, [sp, 48]
	ldr	x1, [sp, 96]
	add	x0, x1, x0
	str	x0, [sp, 88]
	ldr	x0, [sp, 56]
	ldr	x1, [x0, 8]
	ldr	x0, [sp, 88]
	lsl	x0, x0, 1
	cmp	x1, x0
	bls	.L311
	ldr	x0, [sp, 56]
	ldr	x1, [x0]
	ldr	x0, [sp, 56]
	ldr	x2, [x0, 8]
	ldr	x0, [sp, 88]
	sub	x0, x2, x0
	lsr	x0, x0, 1
	lsl	x2, x0, 3
	ldrb	w0, [sp, 47]
	cmp	w0, 0
	beq	.L312
	ldr	x0, [sp, 48]
	lsl	x0, x0, 3
	b	.L313
.L312:
	mov	x0, 0
.L313:
	add	x0, x0, x2
	add	x0, x1, x0
	str	x0, [sp, 104]
	ldr	x0, [sp, 56]
	ldr	x0, [x0, 40]
	ldr	x1, [sp, 104]
	cmp	x1, x0
	bcs	.L314
	ldr	x0, [sp, 56]
	ldr	x3, [x0, 40]
	ldr	x0, [sp, 56]
	ldr	x0, [x0, 72]
	add	x0, x0, 8
	ldr	x2, [sp, 104]
	mov	x1, x0
	mov	x0, x3
	bl	_ZSt4copyIPPSt4pairIiNSt7__cxx1112basic_stringIcSt11char_traitsIcESaIcEEEES9_ET0_T_SB_SA_
	b	.L315
.L314:
	ldr	x0, [sp, 56]
	ldr	x3, [x0, 40]
	ldr	x0, [sp, 56]
	ldr	x0, [x0, 72]
	add	x4, x0, 8
	ldr	x0, [sp, 96]
	lsl	x0, x0, 3
	ldr	x1, [sp, 104]
	add	x0, x1, x0
	mov	x2, x0
	mov	x1, x4
	mov	x0, x3
	bl	_ZSt13copy_backwardIPPSt4pairIiNSt7__cxx1112basic_stringIcSt11char_traitsIcESaIcEEEES9_ET0_T_SB_SA_
	b	.L315
.L311:
	ldr	x0, [sp, 56]
	ldr	x19, [x0, 8]
	ldr	x0, [sp, 56]
	add	x0, x0, 8
	add	x1, sp, 48
	bl	_ZSt3maxImERKT_S2_S2_
	ldr	x0, [x0]
	add	x0, x19, x0
	add	x0, x0, 2
	str	x0, [sp, 80]
	ldr	x0, [sp, 56]
	ldr	x1, [sp, 80]
	bl	_ZNSt11_Deque_baseISt4pairIiNSt7__cxx1112basic_stringIcSt11char_traitsIcESaIcEEEESaIS7_EE15_M_allocate_mapEm
	str	x0, [sp, 72]
	ldr	x1, [sp, 80]
	ldr	x0, [sp, 88]
	sub	x0, x1, x0
	lsr	x0, x0, 1
	lsl	x1, x0, 3
	ldrb	w0, [sp, 47]
	cmp	w0, 0
	beq	.L316
	ldr	x0, [sp, 48]
	lsl	x0, x0, 3
	b	.L317
.L316:
	mov	x0, 0
.L317:
	add	x0, x0, x1
	ldr	x1, [sp, 72]
	add	x0, x1, x0
	str	x0, [sp, 104]
	ldr	x0, [sp, 56]
	ldr	x3, [x0, 40]
	ldr	x0, [sp, 56]
	ldr	x0, [x0, 72]
	add	x0, x0, 8
	ldr	x2, [sp, 104]
	mov	x1, x0
	mov	x0, x3
	bl	_ZSt4copyIPPSt4pairIiNSt7__cxx1112basic_stringIcSt11char_traitsIcESaIcEEEES9_ET0_T_SB_SA_
	ldr	x3, [sp, 56]
	ldr	x0, [sp, 56]
	ldr	x1, [x0]
	ldr	x0, [sp, 56]
	ldr	x0, [x0, 8]
	mov	x2, x0
	mov	x0, x3
	bl	_ZNSt11_Deque_baseISt4pairIiNSt7__cxx1112basic_stringIcSt11char_traitsIcESaIcEEEESaIS7_EE17_M_deallocate_mapEPPS7_m
	ldr	x0, [sp, 56]
	ldr	x1, [sp, 72]
	str	x1, [x0]
	ldr	x0, [sp, 56]
	ldr	x1, [sp, 80]
	str	x1, [x0, 8]
.L315:
	ldr	x0, [sp, 56]
	add	x0, x0, 16
	ldr	x1, [sp, 104]
	bl	_ZNSt15_Deque_iteratorISt4pairIiNSt7__cxx1112basic_stringIcSt11char_traitsIcESaIcEEEERS7_PS7_E11_M_set_nodeEPS9_
	ldr	x0, [sp, 56]
	add	x2, x0, 48
	ldr	x0, [sp, 96]
	lsl	x0, x0, 3
	sub	x0, x0, #8
	ldr	x1, [sp, 104]
	add	x0, x1, x0
	mov	x1, x0
	mov	x0, x2
	bl	_ZNSt15_Deque_iteratorISt4pairIiNSt7__cxx1112basic_stringIcSt11char_traitsIcESaIcEEEERS7_PS7_E11_M_set_nodeEPS9_
	nop
	ldr	x19, [sp, 16]
	ldp	x29, x30, [sp], 112
	.cfi_restore 30
	.cfi_restore 29
	.cfi_restore 19
	.cfi_def_cfa_offset 0
	ret
	.cfi_endproc
.LFE11547:
	.size	_ZNSt5dequeISt4pairIiNSt7__cxx1112basic_stringIcSt11char_traitsIcESaIcEEEESaIS7_EE17_M_reallocate_mapEmb, .-_ZNSt5dequeISt4pairIiNSt7__cxx1112basic_stringIcSt11char_traitsIcESaIcEEEESaIS7_EE17_M_reallocate_mapEmb
	.section	.text._ZNSt16allocator_traitsISaIiEE8max_sizeERKS0_,"axG",@progbits,_ZNSt16allocator_traitsISaIiEE8max_sizeERKS0_,comdat
	.align	2
	.weak	_ZNSt16allocator_traitsISaIiEE8max_sizeERKS0_
	.type	_ZNSt16allocator_traitsISaIiEE8max_sizeERKS0_, %function
_ZNSt16allocator_traitsISaIiEE8max_sizeERKS0_:
.LFB11548:
	.cfi_startproc
	stp	x29, x30, [sp, -32]!
	.cfi_def_cfa_offset 32
	.cfi_offset 29, -32
	.cfi_offset 30, -24
	mov	x29, sp
	str	x0, [sp, 24]
	ldr	x0, [sp, 24]
	bl	_ZNK9__gnu_cxx13new_allocatorIiE8max_sizeEv
	ldp	x29, x30, [sp], 32
	.cfi_restore 30
	.cfi_restore 29
	.cfi_def_cfa_offset 0
	ret
	.cfi_endproc
.LFE11548:
	.size	_ZNSt16allocator_traitsISaIiEE8max_sizeERKS0_, .-_ZNSt16allocator_traitsISaIiEE8max_sizeERKS0_
	.section	.text._ZSt4copyIPPiS1_ET0_T_S3_S2_,"axG",@progbits,_ZSt4copyIPPiS1_ET0_T_S3_S2_,comdat
	.align	2
	.weak	_ZSt4copyIPPiS1_ET0_T_S3_S2_
	.type	_ZSt4copyIPPiS1_ET0_T_S3_S2_, %function
_ZSt4copyIPPiS1_ET0_T_S3_S2_:
.LFB11549:
	.cfi_startproc
	stp	x29, x30, [sp, -64]!
	.cfi_def_cfa_offset 64
	.cfi_offset 29, -64
	.cfi_offset 30, -56
	mov	x29, sp
	str	x19, [sp, 16]
	.cfi_offset 19, -48
	str	x0, [sp, 56]
	str	x1, [sp, 48]
	str	x2, [sp, 40]
	ldr	x0, [sp, 56]
	bl	_ZSt12__miter_baseIPPiET_S2_
	mov	x19, x0
	ldr	x0, [sp, 48]
	bl	_ZSt12__miter_baseIPPiET_S2_
	ldr	x2, [sp, 40]
	mov	x1, x0
	mov	x0, x19
	bl	_ZSt13__copy_move_aILb0EPPiS1_ET1_T0_S3_S2_
	ldr	x19, [sp, 16]
	ldp	x29, x30, [sp], 64
	.cfi_restore 30
	.cfi_restore 29
	.cfi_restore 19
	.cfi_def_cfa_offset 0
	ret
	.cfi_endproc
.LFE11549:
	.size	_ZSt4copyIPPiS1_ET0_T_S3_S2_, .-_ZSt4copyIPPiS1_ET0_T_S3_S2_
	.section	.text._ZSt13copy_backwardIPPiS1_ET0_T_S3_S2_,"axG",@progbits,_ZSt13copy_backwardIPPiS1_ET0_T_S3_S2_,comdat
	.align	2
	.weak	_ZSt13copy_backwardIPPiS1_ET0_T_S3_S2_
	.type	_ZSt13copy_backwardIPPiS1_ET0_T_S3_S2_, %function
_ZSt13copy_backwardIPPiS1_ET0_T_S3_S2_:
.LFB11550:
	.cfi_startproc
	stp	x29, x30, [sp, -64]!
	.cfi_def_cfa_offset 64
	.cfi_offset 29, -64
	.cfi_offset 30, -56
	mov	x29, sp
	str	x19, [sp, 16]
	.cfi_offset 19, -48
	str	x0, [sp, 56]
	str	x1, [sp, 48]
	str	x2, [sp, 40]
	ldr	x0, [sp, 56]
	bl	_ZSt12__miter_baseIPPiET_S2_
	mov	x19, x0
	ldr	x0, [sp, 48]
	bl	_ZSt12__miter_baseIPPiET_S2_
	ldr	x2, [sp, 40]
	mov	x1, x0
	mov	x0, x19
	bl	_ZSt22__copy_move_backward_aILb0EPPiS1_ET1_T0_S3_S2_
	ldr	x19, [sp, 16]
	ldp	x29, x30, [sp], 64
	.cfi_restore 30
	.cfi_restore 29
	.cfi_restore 19
	.cfi_def_cfa_offset 0
	ret
	.cfi_endproc
.LFE11550:
	.size	_ZSt13copy_backwardIPPiS1_ET0_T_S3_S2_, .-_ZSt13copy_backwardIPPiS1_ET0_T_S3_S2_
	.section	.text._ZNK9__gnu_cxx13new_allocatorIiE11_M_max_sizeEv,"axG",@progbits,_ZNK9__gnu_cxx13new_allocatorIiE11_M_max_sizeEv,comdat
	.align	2
	.weak	_ZNK9__gnu_cxx13new_allocatorIiE11_M_max_sizeEv
	.type	_ZNK9__gnu_cxx13new_allocatorIiE11_M_max_sizeEv, %function
_ZNK9__gnu_cxx13new_allocatorIiE11_M_max_sizeEv:
.LFB11552:
	.cfi_startproc
	sub	sp, sp, #16
	.cfi_def_cfa_offset 16
	str	x0, [sp, 8]
	mov	x0, 2305843009213693951
	add	sp, sp, 16
	.cfi_def_cfa_offset 0
	ret
	.cfi_endproc
.LFE11552:
	.size	_ZNK9__gnu_cxx13new_allocatorIiE11_M_max_sizeEv, .-_ZNK9__gnu_cxx13new_allocatorIiE11_M_max_sizeEv
	.section	.text._ZN9__gnu_cxx13new_allocatorIiE8allocateEmPKv,"axG",@progbits,_ZN9__gnu_cxx13new_allocatorIiE8allocateEmPKv,comdat
	.align	2
	.weak	_ZN9__gnu_cxx13new_allocatorIiE8allocateEmPKv
	.type	_ZN9__gnu_cxx13new_allocatorIiE8allocateEmPKv, %function
_ZN9__gnu_cxx13new_allocatorIiE8allocateEmPKv:
.LFB11551:
	.cfi_startproc
	stp	x29, x30, [sp, -48]!
	.cfi_def_cfa_offset 48
	.cfi_offset 29, -48
	.cfi_offset 30, -40
	mov	x29, sp
	str	x0, [sp, 40]
	str	x1, [sp, 32]
	str	x2, [sp, 24]
	ldr	x0, [sp, 40]
	bl	_ZNK9__gnu_cxx13new_allocatorIiE11_M_max_sizeEv
	mov	x1, x0
	ldr	x0, [sp, 32]
	cmp	x0, x1
	cset	w0, hi
	and	w0, w0, 255
	and	x0, x0, 255
	cmp	x0, 0
	cset	w0, ne
	and	w0, w0, 255
	cmp	w0, 0
	beq	.L327
	ldr	x1, [sp, 32]
	mov	x0, 4611686018427387903
	cmp	x1, x0
	bls	.L328
	bl	_ZSt28__throw_bad_array_new_lengthv
.L328:
	bl	_ZSt17__throw_bad_allocv
.L327:
	ldr	x0, [sp, 32]
	lsl	x0, x0, 2
	bl	_Znwm
	nop
	ldp	x29, x30, [sp], 48
	.cfi_restore 30
	.cfi_restore 29
	.cfi_def_cfa_offset 0
	ret
	.cfi_endproc
.LFE11551:
	.size	_ZN9__gnu_cxx13new_allocatorIiE8allocateEmPKv, .-_ZN9__gnu_cxx13new_allocatorIiE8allocateEmPKv
	.section	.text._ZNK9__gnu_cxx13new_allocatorISt4pairIiNSt7__cxx1112basic_stringIcSt11char_traitsIcESaIcEEEEE11_M_max_sizeEv,"axG",@progbits,_ZNK9__gnu_cxx13new_allocatorISt4pairIiNSt7__cxx1112basic_stringIcSt11char_traitsIcESaIcEEEEE11_M_max_sizeEv,comdat
	.align	2
	.weak	_ZNK9__gnu_cxx13new_allocatorISt4pairIiNSt7__cxx1112basic_stringIcSt11char_traitsIcESaIcEEEEE11_M_max_sizeEv
	.type	_ZNK9__gnu_cxx13new_allocatorISt4pairIiNSt7__cxx1112basic_stringIcSt11char_traitsIcESaIcEEEEE11_M_max_sizeEv, %function
_ZNK9__gnu_cxx13new_allocatorISt4pairIiNSt7__cxx1112basic_stringIcSt11char_traitsIcESaIcEEEEE11_M_max_sizeEv:
.LFB11621:
	.cfi_startproc
	sub	sp, sp, #16
	.cfi_def_cfa_offset 16
	str	x0, [sp, 8]
	mov	x0, 3689348814741910323
	movk	x0, 0x333, lsl 48
	add	sp, sp, 16
	.cfi_def_cfa_offset 0
	ret
	.cfi_endproc
.LFE11621:
	.size	_ZNK9__gnu_cxx13new_allocatorISt4pairIiNSt7__cxx1112basic_stringIcSt11char_traitsIcESaIcEEEEE11_M_max_sizeEv, .-_ZNK9__gnu_cxx13new_allocatorISt4pairIiNSt7__cxx1112basic_stringIcSt11char_traitsIcESaIcEEEEE11_M_max_sizeEv
	.section	.text._ZN9__gnu_cxx13new_allocatorISt4pairIiNSt7__cxx1112basic_stringIcSt11char_traitsIcESaIcEEEEE8allocateEmPKv,"axG",@progbits,_ZN9__gnu_cxx13new_allocatorISt4pairIiNSt7__cxx1112basic_stringIcSt11char_traitsIcESaIcEEEEE8allocateEmPKv,comdat
	.align	2
	.weak	_ZN9__gnu_cxx13new_allocatorISt4pairIiNSt7__cxx1112basic_stringIcSt11char_traitsIcESaIcEEEEE8allocateEmPKv
	.type	_ZN9__gnu_cxx13new_allocatorISt4pairIiNSt7__cxx1112basic_stringIcSt11char_traitsIcESaIcEEEEE8allocateEmPKv, %function
_ZN9__gnu_cxx13new_allocatorISt4pairIiNSt7__cxx1112basic_stringIcSt11char_traitsIcESaIcEEEEE8allocateEmPKv:
.LFB11620:
	.cfi_startproc
	stp	x29, x30, [sp, -48]!
	.cfi_def_cfa_offset 48
	.cfi_offset 29, -48
	.cfi_offset 30, -40
	mov	x29, sp
	str	x0, [sp, 40]
	str	x1, [sp, 32]
	str	x2, [sp, 24]
	ldr	x0, [sp, 40]
	bl	_ZNK9__gnu_cxx13new_allocatorISt4pairIiNSt7__cxx1112basic_stringIcSt11char_traitsIcESaIcEEEEE11_M_max_sizeEv
	mov	x1, x0
	ldr	x0, [sp, 32]
	cmp	x0, x1
	cset	w0, hi
	and	w0, w0, 255
	and	x0, x0, 255
	cmp	x0, 0
	cset	w0, ne
	and	w0, w0, 255
	cmp	w0, 0
	beq	.L333
	ldr	x1, [sp, 32]
	mov	x0, 7378697629483820646
	movk	x0, 0x666, lsl 48
	cmp	x1, x0
	bls	.L334
	bl	_ZSt28__throw_bad_array_new_lengthv
.L334:
	bl	_ZSt17__throw_bad_allocv
.L333:
	ldr	x1, [sp, 32]
	mov	x0, x1
	lsl	x0, x0, 2
	add	x0, x0, x1
	lsl	x0, x0, 3
	bl	_Znwm
	nop
	ldp	x29, x30, [sp], 48
	.cfi_restore 30
	.cfi_restore 29
	.cfi_def_cfa_offset 0
	ret
	.cfi_endproc
.LFE11620:
	.size	_ZN9__gnu_cxx13new_allocatorISt4pairIiNSt7__cxx1112basic_stringIcSt11char_traitsIcESaIcEEEEE8allocateEmPKv, .-_ZN9__gnu_cxx13new_allocatorISt4pairIiNSt7__cxx1112basic_stringIcSt11char_traitsIcESaIcEEEEE8allocateEmPKv
	.section	.text._ZSt11__addressofISt4pairIiNSt7__cxx1112basic_stringIcSt11char_traitsIcESaIcEEEEEPT_RS8_,"axG",@progbits,_ZSt11__addressofISt4pairIiNSt7__cxx1112basic_stringIcSt11char_traitsIcESaIcEEEEEPT_RS8_,comdat
	.align	2
	.weak	_ZSt11__addressofISt4pairIiNSt7__cxx1112basic_stringIcSt11char_traitsIcESaIcEEEEEPT_RS8_
	.type	_ZSt11__addressofISt4pairIiNSt7__cxx1112basic_stringIcSt11char_traitsIcESaIcEEEEEPT_RS8_, %function
_ZSt11__addressofISt4pairIiNSt7__cxx1112basic_stringIcSt11char_traitsIcESaIcEEEEEPT_RS8_:
.LFB11622:
	.cfi_startproc
	sub	sp, sp, #16
	.cfi_def_cfa_offset 16
	str	x0, [sp, 8]
	ldr	x0, [sp, 8]
	add	sp, sp, 16
	.cfi_def_cfa_offset 0
	ret
	.cfi_endproc
.LFE11622:
	.size	_ZSt11__addressofISt4pairIiNSt7__cxx1112basic_stringIcSt11char_traitsIcESaIcEEEEEPT_RS8_, .-_ZSt11__addressofISt4pairIiNSt7__cxx1112basic_stringIcSt11char_traitsIcESaIcEEEEEPT_RS8_
	.section	.text._ZSt8_DestroyISt4pairIiNSt7__cxx1112basic_stringIcSt11char_traitsIcESaIcEEEEEvPT_,"axG",@progbits,_ZSt8_DestroyISt4pairIiNSt7__cxx1112basic_stringIcSt11char_traitsIcESaIcEEEEEvPT_,comdat
	.align	2
	.weak	_ZSt8_DestroyISt4pairIiNSt7__cxx1112basic_stringIcSt11char_traitsIcESaIcEEEEEvPT_
	.type	_ZSt8_DestroyISt4pairIiNSt7__cxx1112basic_stringIcSt11char_traitsIcESaIcEEEEEvPT_, %function
_ZSt8_DestroyISt4pairIiNSt7__cxx1112basic_stringIcSt11char_traitsIcESaIcEEEEEvPT_:
.LFB11623:
	.cfi_startproc
	stp	x29, x30, [sp, -32]!
	.cfi_def_cfa_offset 32
	.cfi_offset 29, -32
	.cfi_offset 30, -24
	mov	x29, sp
	str	x0, [sp, 24]
	ldr	x0, [sp, 24]
	bl	_ZNSt4pairIiNSt7__cxx1112basic_stringIcSt11char_traitsIcESaIcEEEED1Ev
	nop
	ldp	x29, x30, [sp], 32
	.cfi_restore 30
	.cfi_restore 29
	.cfi_def_cfa_offset 0
	ret
	.cfi_endproc
.LFE11623:
	.size	_ZSt8_DestroyISt4pairIiNSt7__cxx1112basic_stringIcSt11char_traitsIcESaIcEEEEEvPT_, .-_ZSt8_DestroyISt4pairIiNSt7__cxx1112basic_stringIcSt11char_traitsIcESaIcEEEEEvPT_
	.section	.text._ZNSt16allocator_traitsISaISt4pairIiNSt7__cxx1112basic_stringIcSt11char_traitsIcESaIcEEEEEE8max_sizeERKS8_,"axG",@progbits,_ZNSt16allocator_traitsISaISt4pairIiNSt7__cxx1112basic_stringIcSt11char_traitsIcESaIcEEEEEE8max_sizeERKS8_,comdat
	.align	2
	.weak	_ZNSt16allocator_traitsISaISt4pairIiNSt7__cxx1112basic_stringIcSt11char_traitsIcESaIcEEEEEE8max_sizeERKS8_
	.type	_ZNSt16allocator_traitsISaISt4pairIiNSt7__cxx1112basic_stringIcSt11char_traitsIcESaIcEEEEEE8max_sizeERKS8_, %function
_ZNSt16allocator_traitsISaISt4pairIiNSt7__cxx1112basic_stringIcSt11char_traitsIcESaIcEEEEEE8max_sizeERKS8_:
.LFB11624:
	.cfi_startproc
	stp	x29, x30, [sp, -32]!
	.cfi_def_cfa_offset 32
	.cfi_offset 29, -32
	.cfi_offset 30, -24
	mov	x29, sp
	str	x0, [sp, 24]
	ldr	x0, [sp, 24]
	bl	_ZNK9__gnu_cxx13new_allocatorISt4pairIiNSt7__cxx1112basic_stringIcSt11char_traitsIcESaIcEEEEE8max_sizeEv
	ldp	x29, x30, [sp], 32
	.cfi_restore 30
	.cfi_restore 29
	.cfi_def_cfa_offset 0
	ret
	.cfi_endproc
.LFE11624:
	.size	_ZNSt16allocator_traitsISaISt4pairIiNSt7__cxx1112basic_stringIcSt11char_traitsIcESaIcEEEEEE8max_sizeERKS8_, .-_ZNSt16allocator_traitsISaISt4pairIiNSt7__cxx1112basic_stringIcSt11char_traitsIcESaIcEEEEEE8max_sizeERKS8_
	.section	.text._ZSt4copyIPPSt4pairIiNSt7__cxx1112basic_stringIcSt11char_traitsIcESaIcEEEES9_ET0_T_SB_SA_,"axG",@progbits,_ZSt4copyIPPSt4pairIiNSt7__cxx1112basic_stringIcSt11char_traitsIcESaIcEEEES9_ET0_T_SB_SA_,comdat
	.align	2
	.weak	_ZSt4copyIPPSt4pairIiNSt7__cxx1112basic_stringIcSt11char_traitsIcESaIcEEEES9_ET0_T_SB_SA_
	.type	_ZSt4copyIPPSt4pairIiNSt7__cxx1112basic_stringIcSt11char_traitsIcESaIcEEEES9_ET0_T_SB_SA_, %function
_ZSt4copyIPPSt4pairIiNSt7__cxx1112basic_stringIcSt11char_traitsIcESaIcEEEES9_ET0_T_SB_SA_:
.LFB11625:
	.cfi_startproc
	stp	x29, x30, [sp, -64]!
	.cfi_def_cfa_offset 64
	.cfi_offset 29, -64
	.cfi_offset 30, -56
	mov	x29, sp
	str	x19, [sp, 16]
	.cfi_offset 19, -48
	str	x0, [sp, 56]
	str	x1, [sp, 48]
	str	x2, [sp, 40]
	ldr	x0, [sp, 56]
	bl	_ZSt12__miter_baseIPPSt4pairIiNSt7__cxx1112basic_stringIcSt11char_traitsIcESaIcEEEEET_SA_
	mov	x19, x0
	ldr	x0, [sp, 48]
	bl	_ZSt12__miter_baseIPPSt4pairIiNSt7__cxx1112basic_stringIcSt11char_traitsIcESaIcEEEEET_SA_
	ldr	x2, [sp, 40]
	mov	x1, x0
	mov	x0, x19
	bl	_ZSt13__copy_move_aILb0EPPSt4pairIiNSt7__cxx1112basic_stringIcSt11char_traitsIcESaIcEEEES9_ET1_T0_SB_SA_
	ldr	x19, [sp, 16]
	ldp	x29, x30, [sp], 64
	.cfi_restore 30
	.cfi_restore 29
	.cfi_restore 19
	.cfi_def_cfa_offset 0
	ret
	.cfi_endproc
.LFE11625:
	.size	_ZSt4copyIPPSt4pairIiNSt7__cxx1112basic_stringIcSt11char_traitsIcESaIcEEEES9_ET0_T_SB_SA_, .-_ZSt4copyIPPSt4pairIiNSt7__cxx1112basic_stringIcSt11char_traitsIcESaIcEEEES9_ET0_T_SB_SA_
	.section	.text._ZSt13copy_backwardIPPSt4pairIiNSt7__cxx1112basic_stringIcSt11char_traitsIcESaIcEEEES9_ET0_T_SB_SA_,"axG",@progbits,_ZSt13copy_backwardIPPSt4pairIiNSt7__cxx1112basic_stringIcSt11char_traitsIcESaIcEEEES9_ET0_T_SB_SA_,comdat
	.align	2
	.weak	_ZSt13copy_backwardIPPSt4pairIiNSt7__cxx1112basic_stringIcSt11char_traitsIcESaIcEEEES9_ET0_T_SB_SA_
	.type	_ZSt13copy_backwardIPPSt4pairIiNSt7__cxx1112basic_stringIcSt11char_traitsIcESaIcEEEES9_ET0_T_SB_SA_, %function
_ZSt13copy_backwardIPPSt4pairIiNSt7__cxx1112basic_stringIcSt11char_traitsIcESaIcEEEES9_ET0_T_SB_SA_:
.LFB11626:
	.cfi_startproc
	stp	x29, x30, [sp, -64]!
	.cfi_def_cfa_offset 64
	.cfi_offset 29, -64
	.cfi_offset 30, -56
	mov	x29, sp
	str	x19, [sp, 16]
	.cfi_offset 19, -48
	str	x0, [sp, 56]
	str	x1, [sp, 48]
	str	x2, [sp, 40]
	ldr	x0, [sp, 56]
	bl	_ZSt12__miter_baseIPPSt4pairIiNSt7__cxx1112basic_stringIcSt11char_traitsIcESaIcEEEEET_SA_
	mov	x19, x0
	ldr	x0, [sp, 48]
	bl	_ZSt12__miter_baseIPPSt4pairIiNSt7__cxx1112basic_stringIcSt11char_traitsIcESaIcEEEEET_SA_
	ldr	x2, [sp, 40]
	mov	x1, x0
	mov	x0, x19
	bl	_ZSt22__copy_move_backward_aILb0EPPSt4pairIiNSt7__cxx1112basic_stringIcSt11char_traitsIcESaIcEEEES9_ET1_T0_SB_SA_
	ldr	x19, [sp, 16]
	ldp	x29, x30, [sp], 64
	.cfi_restore 30
	.cfi_restore 29
	.cfi_restore 19
	.cfi_def_cfa_offset 0
	ret
	.cfi_endproc
.LFE11626:
	.size	_ZSt13copy_backwardIPPSt4pairIiNSt7__cxx1112basic_stringIcSt11char_traitsIcESaIcEEEES9_ET0_T_SB_SA_, .-_ZSt13copy_backwardIPPSt4pairIiNSt7__cxx1112basic_stringIcSt11char_traitsIcESaIcEEEES9_ET0_T_SB_SA_
	.section	.text._ZNK9__gnu_cxx13new_allocatorIiE8max_sizeEv,"axG",@progbits,_ZNK9__gnu_cxx13new_allocatorIiE8max_sizeEv,comdat
	.align	2
	.weak	_ZNK9__gnu_cxx13new_allocatorIiE8max_sizeEv
	.type	_ZNK9__gnu_cxx13new_allocatorIiE8max_sizeEv, %function
_ZNK9__gnu_cxx13new_allocatorIiE8max_sizeEv:
.LFB11627:
	.cfi_startproc
	stp	x29, x30, [sp, -32]!
	.cfi_def_cfa_offset 32
	.cfi_offset 29, -32
	.cfi_offset 30, -24
	mov	x29, sp
	str	x0, [sp, 24]
	ldr	x0, [sp, 24]
	bl	_ZNK9__gnu_cxx13new_allocatorIiE11_M_max_sizeEv
	ldp	x29, x30, [sp], 32
	.cfi_restore 30
	.cfi_restore 29
	.cfi_def_cfa_offset 0
	ret
	.cfi_endproc
.LFE11627:
	.size	_ZNK9__gnu_cxx13new_allocatorIiE8max_sizeEv, .-_ZNK9__gnu_cxx13new_allocatorIiE8max_sizeEv
	.section	.text._ZSt12__miter_baseIPPiET_S2_,"axG",@progbits,_ZSt12__miter_baseIPPiET_S2_,comdat
	.align	2
	.weak	_ZSt12__miter_baseIPPiET_S2_
	.type	_ZSt12__miter_baseIPPiET_S2_, %function
_ZSt12__miter_baseIPPiET_S2_:
.LFB11628:
	.cfi_startproc
	sub	sp, sp, #16
	.cfi_def_cfa_offset 16
	str	x0, [sp, 8]
	ldr	x0, [sp, 8]
	add	sp, sp, 16
	.cfi_def_cfa_offset 0
	ret
	.cfi_endproc
.LFE11628:
	.size	_ZSt12__miter_baseIPPiET_S2_, .-_ZSt12__miter_baseIPPiET_S2_
	.section	.text._ZSt13__copy_move_aILb0EPPiS1_ET1_T0_S3_S2_,"axG",@progbits,_ZSt13__copy_move_aILb0EPPiS1_ET1_T0_S3_S2_,comdat
	.align	2
	.weak	_ZSt13__copy_move_aILb0EPPiS1_ET1_T0_S3_S2_
	.type	_ZSt13__copy_move_aILb0EPPiS1_ET1_T0_S3_S2_, %function
_ZSt13__copy_move_aILb0EPPiS1_ET1_T0_S3_S2_:
.LFB11629:
	.cfi_startproc
	stp	x29, x30, [sp, -64]!
	.cfi_def_cfa_offset 64
	.cfi_offset 29, -64
	.cfi_offset 30, -56
	mov	x29, sp
	stp	x19, x20, [sp, 16]
	.cfi_offset 19, -48
	.cfi_offset 20, -40
	str	x0, [sp, 56]
	str	x1, [sp, 48]
	str	x2, [sp, 40]
	ldr	x0, [sp, 56]
	bl	_ZSt12__niter_baseIPPiET_S2_
	mov	x19, x0
	ldr	x0, [sp, 48]
	bl	_ZSt12__niter_baseIPPiET_S2_
	mov	x20, x0
	ldr	x0, [sp, 40]
	bl	_ZSt12__niter_baseIPPiET_S2_
	mov	x2, x0
	mov	x1, x20
	mov	x0, x19
	bl	_ZSt14__copy_move_a1ILb0EPPiS1_ET1_T0_S3_S2_
	mov	x1, x0
	add	x0, sp, 40
	bl	_ZSt12__niter_wrapIPPiET_RKS2_S2_
	ldp	x19, x20, [sp, 16]
	ldp	x29, x30, [sp], 64
	.cfi_restore 30
	.cfi_restore 29
	.cfi_restore 19
	.cfi_restore 20
	.cfi_def_cfa_offset 0
	ret
	.cfi_endproc
.LFE11629:
	.size	_ZSt13__copy_move_aILb0EPPiS1_ET1_T0_S3_S2_, .-_ZSt13__copy_move_aILb0EPPiS1_ET1_T0_S3_S2_
	.section	.text._ZSt22__copy_move_backward_aILb0EPPiS1_ET1_T0_S3_S2_,"axG",@progbits,_ZSt22__copy_move_backward_aILb0EPPiS1_ET1_T0_S3_S2_,comdat
	.align	2
	.weak	_ZSt22__copy_move_backward_aILb0EPPiS1_ET1_T0_S3_S2_
	.type	_ZSt22__copy_move_backward_aILb0EPPiS1_ET1_T0_S3_S2_, %function
_ZSt22__copy_move_backward_aILb0EPPiS1_ET1_T0_S3_S2_:
.LFB11631:
	.cfi_startproc
	stp	x29, x30, [sp, -64]!
	.cfi_def_cfa_offset 64
	.cfi_offset 29, -64
	.cfi_offset 30, -56
	mov	x29, sp
	stp	x19, x20, [sp, 16]
	.cfi_offset 19, -48
	.cfi_offset 20, -40
	str	x0, [sp, 56]
	str	x1, [sp, 48]
	str	x2, [sp, 40]
	ldr	x0, [sp, 56]
	bl	_ZSt12__niter_baseIPPiET_S2_
	mov	x19, x0
	ldr	x0, [sp, 48]
	bl	_ZSt12__niter_baseIPPiET_S2_
	mov	x20, x0
	ldr	x0, [sp, 40]
	bl	_ZSt12__niter_baseIPPiET_S2_
	mov	x2, x0
	mov	x1, x20
	mov	x0, x19
	bl	_ZSt23__copy_move_backward_a1ILb0EPPiS1_ET1_T0_S3_S2_
	mov	x1, x0
	add	x0, sp, 40
	bl	_ZSt12__niter_wrapIPPiET_RKS2_S2_
	ldp	x19, x20, [sp, 16]
	ldp	x29, x30, [sp], 64
	.cfi_restore 30
	.cfi_restore 29
	.cfi_restore 19
	.cfi_restore 20
	.cfi_def_cfa_offset 0
	ret
	.cfi_endproc
.LFE11631:
	.size	_ZSt22__copy_move_backward_aILb0EPPiS1_ET1_T0_S3_S2_, .-_ZSt22__copy_move_backward_aILb0EPPiS1_ET1_T0_S3_S2_
	.section	.text._ZNK9__gnu_cxx13new_allocatorISt4pairIiNSt7__cxx1112basic_stringIcSt11char_traitsIcESaIcEEEEE8max_sizeEv,"axG",@progbits,_ZNK9__gnu_cxx13new_allocatorISt4pairIiNSt7__cxx1112basic_stringIcSt11char_traitsIcESaIcEEEEE8max_sizeEv,comdat
	.align	2
	.weak	_ZNK9__gnu_cxx13new_allocatorISt4pairIiNSt7__cxx1112basic_stringIcSt11char_traitsIcESaIcEEEEE8max_sizeEv
	.type	_ZNK9__gnu_cxx13new_allocatorISt4pairIiNSt7__cxx1112basic_stringIcSt11char_traitsIcESaIcEEEEE8max_sizeEv, %function
_ZNK9__gnu_cxx13new_allocatorISt4pairIiNSt7__cxx1112basic_stringIcSt11char_traitsIcESaIcEEEEE8max_sizeEv:
.LFB11661:
	.cfi_startproc
	stp	x29, x30, [sp, -32]!
	.cfi_def_cfa_offset 32
	.cfi_offset 29, -32
	.cfi_offset 30, -24
	mov	x29, sp
	str	x0, [sp, 24]
	ldr	x0, [sp, 24]
	bl	_ZNK9__gnu_cxx13new_allocatorISt4pairIiNSt7__cxx1112basic_stringIcSt11char_traitsIcESaIcEEEEE11_M_max_sizeEv
	ldp	x29, x30, [sp], 32
	.cfi_restore 30
	.cfi_restore 29
	.cfi_def_cfa_offset 0
	ret
	.cfi_endproc
.LFE11661:
	.size	_ZNK9__gnu_cxx13new_allocatorISt4pairIiNSt7__cxx1112basic_stringIcSt11char_traitsIcESaIcEEEEE8max_sizeEv, .-_ZNK9__gnu_cxx13new_allocatorISt4pairIiNSt7__cxx1112basic_stringIcSt11char_traitsIcESaIcEEEEE8max_sizeEv
	.section	.text._ZSt12__miter_baseIPPSt4pairIiNSt7__cxx1112basic_stringIcSt11char_traitsIcESaIcEEEEET_SA_,"axG",@progbits,_ZSt12__miter_baseIPPSt4pairIiNSt7__cxx1112basic_stringIcSt11char_traitsIcESaIcEEEEET_SA_,comdat
	.align	2
	.weak	_ZSt12__miter_baseIPPSt4pairIiNSt7__cxx1112basic_stringIcSt11char_traitsIcESaIcEEEEET_SA_
	.type	_ZSt12__miter_baseIPPSt4pairIiNSt7__cxx1112basic_stringIcSt11char_traitsIcESaIcEEEEET_SA_, %function
_ZSt12__miter_baseIPPSt4pairIiNSt7__cxx1112basic_stringIcSt11char_traitsIcESaIcEEEEET_SA_:
.LFB11662:
	.cfi_startproc
	sub	sp, sp, #16
	.cfi_def_cfa_offset 16
	str	x0, [sp, 8]
	ldr	x0, [sp, 8]
	add	sp, sp, 16
	.cfi_def_cfa_offset 0
	ret
	.cfi_endproc
.LFE11662:
	.size	_ZSt12__miter_baseIPPSt4pairIiNSt7__cxx1112basic_stringIcSt11char_traitsIcESaIcEEEEET_SA_, .-_ZSt12__miter_baseIPPSt4pairIiNSt7__cxx1112basic_stringIcSt11char_traitsIcESaIcEEEEET_SA_
	.section	.text._ZSt13__copy_move_aILb0EPPSt4pairIiNSt7__cxx1112basic_stringIcSt11char_traitsIcESaIcEEEES9_ET1_T0_SB_SA_,"axG",@progbits,_ZSt13__copy_move_aILb0EPPSt4pairIiNSt7__cxx1112basic_stringIcSt11char_traitsIcESaIcEEEES9_ET1_T0_SB_SA_,comdat
	.align	2
	.weak	_ZSt13__copy_move_aILb0EPPSt4pairIiNSt7__cxx1112basic_stringIcSt11char_traitsIcESaIcEEEES9_ET1_T0_SB_SA_
	.type	_ZSt13__copy_move_aILb0EPPSt4pairIiNSt7__cxx1112basic_stringIcSt11char_traitsIcESaIcEEEES9_ET1_T0_SB_SA_, %function
_ZSt13__copy_move_aILb0EPPSt4pairIiNSt7__cxx1112basic_stringIcSt11char_traitsIcESaIcEEEES9_ET1_T0_SB_SA_:
.LFB11663:
	.cfi_startproc
	stp	x29, x30, [sp, -64]!
	.cfi_def_cfa_offset 64
	.cfi_offset 29, -64
	.cfi_offset 30, -56
	mov	x29, sp
	stp	x19, x20, [sp, 16]
	.cfi_offset 19, -48
	.cfi_offset 20, -40
	str	x0, [sp, 56]
	str	x1, [sp, 48]
	str	x2, [sp, 40]
	ldr	x0, [sp, 56]
	bl	_ZSt12__niter_baseIPPSt4pairIiNSt7__cxx1112basic_stringIcSt11char_traitsIcESaIcEEEEET_SA_
	mov	x19, x0
	ldr	x0, [sp, 48]
	bl	_ZSt12__niter_baseIPPSt4pairIiNSt7__cxx1112basic_stringIcSt11char_traitsIcESaIcEEEEET_SA_
	mov	x20, x0
	ldr	x0, [sp, 40]
	bl	_ZSt12__niter_baseIPPSt4pairIiNSt7__cxx1112basic_stringIcSt11char_traitsIcESaIcEEEEET_SA_
	mov	x2, x0
	mov	x1, x20
	mov	x0, x19
	bl	_ZSt14__copy_move_a1ILb0EPPSt4pairIiNSt7__cxx1112basic_stringIcSt11char_traitsIcESaIcEEEES9_ET1_T0_SB_SA_
	mov	x1, x0
	add	x0, sp, 40
	bl	_ZSt12__niter_wrapIPPSt4pairIiNSt7__cxx1112basic_stringIcSt11char_traitsIcESaIcEEEEET_RKSA_SA_
	ldp	x19, x20, [sp, 16]
	ldp	x29, x30, [sp], 64
	.cfi_restore 30
	.cfi_restore 29
	.cfi_restore 19
	.cfi_restore 20
	.cfi_def_cfa_offset 0
	ret
	.cfi_endproc
.LFE11663:
	.size	_ZSt13__copy_move_aILb0EPPSt4pairIiNSt7__cxx1112basic_stringIcSt11char_traitsIcESaIcEEEES9_ET1_T0_SB_SA_, .-_ZSt13__copy_move_aILb0EPPSt4pairIiNSt7__cxx1112basic_stringIcSt11char_traitsIcESaIcEEEES9_ET1_T0_SB_SA_
	.section	.text._ZSt22__copy_move_backward_aILb0EPPSt4pairIiNSt7__cxx1112basic_stringIcSt11char_traitsIcESaIcEEEES9_ET1_T0_SB_SA_,"axG",@progbits,_ZSt22__copy_move_backward_aILb0EPPSt4pairIiNSt7__cxx1112basic_stringIcSt11char_traitsIcESaIcEEEES9_ET1_T0_SB_SA_,comdat
	.align	2
	.weak	_ZSt22__copy_move_backward_aILb0EPPSt4pairIiNSt7__cxx1112basic_stringIcSt11char_traitsIcESaIcEEEES9_ET1_T0_SB_SA_
	.type	_ZSt22__copy_move_backward_aILb0EPPSt4pairIiNSt7__cxx1112basic_stringIcSt11char_traitsIcESaIcEEEES9_ET1_T0_SB_SA_, %function
_ZSt22__copy_move_backward_aILb0EPPSt4pairIiNSt7__cxx1112basic_stringIcSt11char_traitsIcESaIcEEEES9_ET1_T0_SB_SA_:
.LFB11665:
	.cfi_startproc
	stp	x29, x30, [sp, -64]!
	.cfi_def_cfa_offset 64
	.cfi_offset 29, -64
	.cfi_offset 30, -56
	mov	x29, sp
	stp	x19, x20, [sp, 16]
	.cfi_offset 19, -48
	.cfi_offset 20, -40
	str	x0, [sp, 56]
	str	x1, [sp, 48]
	str	x2, [sp, 40]
	ldr	x0, [sp, 56]
	bl	_ZSt12__niter_baseIPPSt4pairIiNSt7__cxx1112basic_stringIcSt11char_traitsIcESaIcEEEEET_SA_
	mov	x19, x0
	ldr	x0, [sp, 48]
	bl	_ZSt12__niter_baseIPPSt4pairIiNSt7__cxx1112basic_stringIcSt11char_traitsIcESaIcEEEEET_SA_
	mov	x20, x0
	ldr	x0, [sp, 40]
	bl	_ZSt12__niter_baseIPPSt4pairIiNSt7__cxx1112basic_stringIcSt11char_traitsIcESaIcEEEEET_SA_
	mov	x2, x0
	mov	x1, x20
	mov	x0, x19
	bl	_ZSt23__copy_move_backward_a1ILb0EPPSt4pairIiNSt7__cxx1112basic_stringIcSt11char_traitsIcESaIcEEEES9_ET1_T0_SB_SA_
	mov	x1, x0
	add	x0, sp, 40
	bl	_ZSt12__niter_wrapIPPSt4pairIiNSt7__cxx1112basic_stringIcSt11char_traitsIcESaIcEEEEET_RKSA_SA_
	ldp	x19, x20, [sp, 16]
	ldp	x29, x30, [sp], 64
	.cfi_restore 30
	.cfi_restore 29
	.cfi_restore 19
	.cfi_restore 20
	.cfi_def_cfa_offset 0
	ret
	.cfi_endproc
.LFE11665:
	.size	_ZSt22__copy_move_backward_aILb0EPPSt4pairIiNSt7__cxx1112basic_stringIcSt11char_traitsIcESaIcEEEES9_ET1_T0_SB_SA_, .-_ZSt22__copy_move_backward_aILb0EPPSt4pairIiNSt7__cxx1112basic_stringIcSt11char_traitsIcESaIcEEEES9_ET1_T0_SB_SA_
	.section	.text._ZSt12__niter_baseIPPiET_S2_,"axG",@progbits,_ZSt12__niter_baseIPPiET_S2_,comdat
	.align	2
	.weak	_ZSt12__niter_baseIPPiET_S2_
	.type	_ZSt12__niter_baseIPPiET_S2_, %function
_ZSt12__niter_baseIPPiET_S2_:
.LFB11666:
	.cfi_startproc
	sub	sp, sp, #16
	.cfi_def_cfa_offset 16
	str	x0, [sp, 8]
	ldr	x0, [sp, 8]
	add	sp, sp, 16
	.cfi_def_cfa_offset 0
	ret
	.cfi_endproc
.LFE11666:
	.size	_ZSt12__niter_baseIPPiET_S2_, .-_ZSt12__niter_baseIPPiET_S2_
	.section	.text._ZSt14__copy_move_a1ILb0EPPiS1_ET1_T0_S3_S2_,"axG",@progbits,_ZSt14__copy_move_a1ILb0EPPiS1_ET1_T0_S3_S2_,comdat
	.align	2
	.weak	_ZSt14__copy_move_a1ILb0EPPiS1_ET1_T0_S3_S2_
	.type	_ZSt14__copy_move_a1ILb0EPPiS1_ET1_T0_S3_S2_, %function
_ZSt14__copy_move_a1ILb0EPPiS1_ET1_T0_S3_S2_:
.LFB11667:
	.cfi_startproc
	stp	x29, x30, [sp, -48]!
	.cfi_def_cfa_offset 48
	.cfi_offset 29, -48
	.cfi_offset 30, -40
	mov	x29, sp
	str	x0, [sp, 40]
	str	x1, [sp, 32]
	str	x2, [sp, 24]
	ldr	x2, [sp, 24]
	ldr	x1, [sp, 32]
	ldr	x0, [sp, 40]
	bl	_ZSt14__copy_move_a2ILb0EPPiS1_ET1_T0_S3_S2_
	ldp	x29, x30, [sp], 48
	.cfi_restore 30
	.cfi_restore 29
	.cfi_def_cfa_offset 0
	ret
	.cfi_endproc
.LFE11667:
	.size	_ZSt14__copy_move_a1ILb0EPPiS1_ET1_T0_S3_S2_, .-_ZSt14__copy_move_a1ILb0EPPiS1_ET1_T0_S3_S2_
	.section	.text._ZSt12__niter_wrapIPPiET_RKS2_S2_,"axG",@progbits,_ZSt12__niter_wrapIPPiET_RKS2_S2_,comdat
	.align	2
	.weak	_ZSt12__niter_wrapIPPiET_RKS2_S2_
	.type	_ZSt12__niter_wrapIPPiET_RKS2_S2_, %function
_ZSt12__niter_wrapIPPiET_RKS2_S2_:
.LFB11668:
	.cfi_startproc
	sub	sp, sp, #16
	.cfi_def_cfa_offset 16
	str	x0, [sp, 8]
	str	x1, [sp]
	ldr	x0, [sp]
	add	sp, sp, 16
	.cfi_def_cfa_offset 0
	ret
	.cfi_endproc
.LFE11668:
	.size	_ZSt12__niter_wrapIPPiET_RKS2_S2_, .-_ZSt12__niter_wrapIPPiET_RKS2_S2_
	.section	.text._ZSt23__copy_move_backward_a1ILb0EPPiS1_ET1_T0_S3_S2_,"axG",@progbits,_ZSt23__copy_move_backward_a1ILb0EPPiS1_ET1_T0_S3_S2_,comdat
	.align	2
	.weak	_ZSt23__copy_move_backward_a1ILb0EPPiS1_ET1_T0_S3_S2_
	.type	_ZSt23__copy_move_backward_a1ILb0EPPiS1_ET1_T0_S3_S2_, %function
_ZSt23__copy_move_backward_a1ILb0EPPiS1_ET1_T0_S3_S2_:
.LFB11669:
	.cfi_startproc
	stp	x29, x30, [sp, -48]!
	.cfi_def_cfa_offset 48
	.cfi_offset 29, -48
	.cfi_offset 30, -40
	mov	x29, sp
	str	x0, [sp, 40]
	str	x1, [sp, 32]
	str	x2, [sp, 24]
	ldr	x2, [sp, 24]
	ldr	x1, [sp, 32]
	ldr	x0, [sp, 40]
	bl	_ZSt23__copy_move_backward_a2ILb0EPPiS1_ET1_T0_S3_S2_
	ldp	x29, x30, [sp], 48
	.cfi_restore 30
	.cfi_restore 29
	.cfi_def_cfa_offset 0
	ret
	.cfi_endproc
.LFE11669:
	.size	_ZSt23__copy_move_backward_a1ILb0EPPiS1_ET1_T0_S3_S2_, .-_ZSt23__copy_move_backward_a1ILb0EPPiS1_ET1_T0_S3_S2_
	.section	.text._ZSt12__niter_baseIPPSt4pairIiNSt7__cxx1112basic_stringIcSt11char_traitsIcESaIcEEEEET_SA_,"axG",@progbits,_ZSt12__niter_baseIPPSt4pairIiNSt7__cxx1112basic_stringIcSt11char_traitsIcESaIcEEEEET_SA_,comdat
	.align	2
	.weak	_ZSt12__niter_baseIPPSt4pairIiNSt7__cxx1112basic_stringIcSt11char_traitsIcESaIcEEEEET_SA_
	.type	_ZSt12__niter_baseIPPSt4pairIiNSt7__cxx1112basic_stringIcSt11char_traitsIcESaIcEEEEET_SA_, %function
_ZSt12__niter_baseIPPSt4pairIiNSt7__cxx1112basic_stringIcSt11char_traitsIcESaIcEEEEET_SA_:
.LFB11673:
	.cfi_startproc
	sub	sp, sp, #16
	.cfi_def_cfa_offset 16
	str	x0, [sp, 8]
	ldr	x0, [sp, 8]
	add	sp, sp, 16
	.cfi_def_cfa_offset 0
	ret
	.cfi_endproc
.LFE11673:
	.size	_ZSt12__niter_baseIPPSt4pairIiNSt7__cxx1112basic_stringIcSt11char_traitsIcESaIcEEEEET_SA_, .-_ZSt12__niter_baseIPPSt4pairIiNSt7__cxx1112basic_stringIcSt11char_traitsIcESaIcEEEEET_SA_
	.section	.text._ZSt14__copy_move_a1ILb0EPPSt4pairIiNSt7__cxx1112basic_stringIcSt11char_traitsIcESaIcEEEES9_ET1_T0_SB_SA_,"axG",@progbits,_ZSt14__copy_move_a1ILb0EPPSt4pairIiNSt7__cxx1112basic_stringIcSt11char_traitsIcESaIcEEEES9_ET1_T0_SB_SA_,comdat
	.align	2
	.weak	_ZSt14__copy_move_a1ILb0EPPSt4pairIiNSt7__cxx1112basic_stringIcSt11char_traitsIcESaIcEEEES9_ET1_T0_SB_SA_
	.type	_ZSt14__copy_move_a1ILb0EPPSt4pairIiNSt7__cxx1112basic_stringIcSt11char_traitsIcESaIcEEEES9_ET1_T0_SB_SA_, %function
_ZSt14__copy_move_a1ILb0EPPSt4pairIiNSt7__cxx1112basic_stringIcSt11char_traitsIcESaIcEEEES9_ET1_T0_SB_SA_:
.LFB11674:
	.cfi_startproc
	stp	x29, x30, [sp, -48]!
	.cfi_def_cfa_offset 48
	.cfi_offset 29, -48
	.cfi_offset 30, -40
	mov	x29, sp
	str	x0, [sp, 40]
	str	x1, [sp, 32]
	str	x2, [sp, 24]
	ldr	x2, [sp, 24]
	ldr	x1, [sp, 32]
	ldr	x0, [sp, 40]
	bl	_ZSt14__copy_move_a2ILb0EPPSt4pairIiNSt7__cxx1112basic_stringIcSt11char_traitsIcESaIcEEEES9_ET1_T0_SB_SA_
	ldp	x29, x30, [sp], 48
	.cfi_restore 30
	.cfi_restore 29
	.cfi_def_cfa_offset 0
	ret
	.cfi_endproc
.LFE11674:
	.size	_ZSt14__copy_move_a1ILb0EPPSt4pairIiNSt7__cxx1112basic_stringIcSt11char_traitsIcESaIcEEEES9_ET1_T0_SB_SA_, .-_ZSt14__copy_move_a1ILb0EPPSt4pairIiNSt7__cxx1112basic_stringIcSt11char_traitsIcESaIcEEEES9_ET1_T0_SB_SA_
	.section	.text._ZSt12__niter_wrapIPPSt4pairIiNSt7__cxx1112basic_stringIcSt11char_traitsIcESaIcEEEEET_RKSA_SA_,"axG",@progbits,_ZSt12__niter_wrapIPPSt4pairIiNSt7__cxx1112basic_stringIcSt11char_traitsIcESaIcEEEEET_RKSA_SA_,comdat
	.align	2
	.weak	_ZSt12__niter_wrapIPPSt4pairIiNSt7__cxx1112basic_stringIcSt11char_traitsIcESaIcEEEEET_RKSA_SA_
	.type	_ZSt12__niter_wrapIPPSt4pairIiNSt7__cxx1112basic_stringIcSt11char_traitsIcESaIcEEEEET_RKSA_SA_, %function
_ZSt12__niter_wrapIPPSt4pairIiNSt7__cxx1112basic_stringIcSt11char_traitsIcESaIcEEEEET_RKSA_SA_:
.LFB11675:
	.cfi_startproc
	sub	sp, sp, #16
	.cfi_def_cfa_offset 16
	str	x0, [sp, 8]
	str	x1, [sp]
	ldr	x0, [sp]
	add	sp, sp, 16
	.cfi_def_cfa_offset 0
	ret
	.cfi_endproc
.LFE11675:
	.size	_ZSt12__niter_wrapIPPSt4pairIiNSt7__cxx1112basic_stringIcSt11char_traitsIcESaIcEEEEET_RKSA_SA_, .-_ZSt12__niter_wrapIPPSt4pairIiNSt7__cxx1112basic_stringIcSt11char_traitsIcESaIcEEEEET_RKSA_SA_
	.section	.text._ZSt23__copy_move_backward_a1ILb0EPPSt4pairIiNSt7__cxx1112basic_stringIcSt11char_traitsIcESaIcEEEES9_ET1_T0_SB_SA_,"axG",@progbits,_ZSt23__copy_move_backward_a1ILb0EPPSt4pairIiNSt7__cxx1112basic_stringIcSt11char_traitsIcESaIcEEEES9_ET1_T0_SB_SA_,comdat
	.align	2
	.weak	_ZSt23__copy_move_backward_a1ILb0EPPSt4pairIiNSt7__cxx1112basic_stringIcSt11char_traitsIcESaIcEEEES9_ET1_T0_SB_SA_
	.type	_ZSt23__copy_move_backward_a1ILb0EPPSt4pairIiNSt7__cxx1112basic_stringIcSt11char_traitsIcESaIcEEEES9_ET1_T0_SB_SA_, %function
_ZSt23__copy_move_backward_a1ILb0EPPSt4pairIiNSt7__cxx1112basic_stringIcSt11char_traitsIcESaIcEEEES9_ET1_T0_SB_SA_:
.LFB11676:
	.cfi_startproc
	stp	x29, x30, [sp, -48]!
	.cfi_def_cfa_offset 48
	.cfi_offset 29, -48
	.cfi_offset 30, -40
	mov	x29, sp
	str	x0, [sp, 40]
	str	x1, [sp, 32]
	str	x2, [sp, 24]
	ldr	x2, [sp, 24]
	ldr	x1, [sp, 32]
	ldr	x0, [sp, 40]
	bl	_ZSt23__copy_move_backward_a2ILb0EPPSt4pairIiNSt7__cxx1112basic_stringIcSt11char_traitsIcESaIcEEEES9_ET1_T0_SB_SA_
	ldp	x29, x30, [sp], 48
	.cfi_restore 30
	.cfi_restore 29
	.cfi_def_cfa_offset 0
	ret
	.cfi_endproc
.LFE11676:
	.size	_ZSt23__copy_move_backward_a1ILb0EPPSt4pairIiNSt7__cxx1112basic_stringIcSt11char_traitsIcESaIcEEEES9_ET1_T0_SB_SA_, .-_ZSt23__copy_move_backward_a1ILb0EPPSt4pairIiNSt7__cxx1112basic_stringIcSt11char_traitsIcESaIcEEEES9_ET1_T0_SB_SA_
	.section	.text._ZSt14__copy_move_a2ILb0EPPiS1_ET1_T0_S3_S2_,"axG",@progbits,_ZSt14__copy_move_a2ILb0EPPiS1_ET1_T0_S3_S2_,comdat
	.align	2
	.weak	_ZSt14__copy_move_a2ILb0EPPiS1_ET1_T0_S3_S2_
	.type	_ZSt14__copy_move_a2ILb0EPPiS1_ET1_T0_S3_S2_, %function
_ZSt14__copy_move_a2ILb0EPPiS1_ET1_T0_S3_S2_:
.LFB11677:
	.cfi_startproc
	stp	x29, x30, [sp, -48]!
	.cfi_def_cfa_offset 48
	.cfi_offset 29, -48
	.cfi_offset 30, -40
	mov	x29, sp
	str	x0, [sp, 40]
	str	x1, [sp, 32]
	str	x2, [sp, 24]
	ldr	x2, [sp, 24]
	ldr	x1, [sp, 32]
	ldr	x0, [sp, 40]
	bl	_ZNSt11__copy_moveILb0ELb1ESt26random_access_iterator_tagE8__copy_mIPiEEPT_PKS4_S7_S5_
	ldp	x29, x30, [sp], 48
	.cfi_restore 30
	.cfi_restore 29
	.cfi_def_cfa_offset 0
	ret
	.cfi_endproc
.LFE11677:
	.size	_ZSt14__copy_move_a2ILb0EPPiS1_ET1_T0_S3_S2_, .-_ZSt14__copy_move_a2ILb0EPPiS1_ET1_T0_S3_S2_
	.section	.text._ZSt23__copy_move_backward_a2ILb0EPPiS1_ET1_T0_S3_S2_,"axG",@progbits,_ZSt23__copy_move_backward_a2ILb0EPPiS1_ET1_T0_S3_S2_,comdat
	.align	2
	.weak	_ZSt23__copy_move_backward_a2ILb0EPPiS1_ET1_T0_S3_S2_
	.type	_ZSt23__copy_move_backward_a2ILb0EPPiS1_ET1_T0_S3_S2_, %function
_ZSt23__copy_move_backward_a2ILb0EPPiS1_ET1_T0_S3_S2_:
.LFB11678:
	.cfi_startproc
	stp	x29, x30, [sp, -48]!
	.cfi_def_cfa_offset 48
	.cfi_offset 29, -48
	.cfi_offset 30, -40
	mov	x29, sp
	str	x0, [sp, 40]
	str	x1, [sp, 32]
	str	x2, [sp, 24]
	ldr	x2, [sp, 24]
	ldr	x1, [sp, 32]
	ldr	x0, [sp, 40]
	bl	_ZNSt20__copy_move_backwardILb0ELb1ESt26random_access_iterator_tagE13__copy_move_bIPiEEPT_PKS4_S7_S5_
	ldp	x29, x30, [sp], 48
	.cfi_restore 30
	.cfi_restore 29
	.cfi_def_cfa_offset 0
	ret
	.cfi_endproc
.LFE11678:
	.size	_ZSt23__copy_move_backward_a2ILb0EPPiS1_ET1_T0_S3_S2_, .-_ZSt23__copy_move_backward_a2ILb0EPPiS1_ET1_T0_S3_S2_
	.section	.text._ZSt14__copy_move_a2ILb0EPPSt4pairIiNSt7__cxx1112basic_stringIcSt11char_traitsIcESaIcEEEES9_ET1_T0_SB_SA_,"axG",@progbits,_ZSt14__copy_move_a2ILb0EPPSt4pairIiNSt7__cxx1112basic_stringIcSt11char_traitsIcESaIcEEEES9_ET1_T0_SB_SA_,comdat
	.align	2
	.weak	_ZSt14__copy_move_a2ILb0EPPSt4pairIiNSt7__cxx1112basic_stringIcSt11char_traitsIcESaIcEEEES9_ET1_T0_SB_SA_
	.type	_ZSt14__copy_move_a2ILb0EPPSt4pairIiNSt7__cxx1112basic_stringIcSt11char_traitsIcESaIcEEEES9_ET1_T0_SB_SA_, %function
_ZSt14__copy_move_a2ILb0EPPSt4pairIiNSt7__cxx1112basic_stringIcSt11char_traitsIcESaIcEEEES9_ET1_T0_SB_SA_:
.LFB11690:
	.cfi_startproc
	stp	x29, x30, [sp, -48]!
	.cfi_def_cfa_offset 48
	.cfi_offset 29, -48
	.cfi_offset 30, -40
	mov	x29, sp
	str	x0, [sp, 40]
	str	x1, [sp, 32]
	str	x2, [sp, 24]
	ldr	x2, [sp, 24]
	ldr	x1, [sp, 32]
	ldr	x0, [sp, 40]
	bl	_ZNSt11__copy_moveILb0ELb1ESt26random_access_iterator_tagE8__copy_mIPSt4pairIiNSt7__cxx1112basic_stringIcSt11char_traitsIcESaIcEEEEEEPT_PKSC_SF_SD_
	ldp	x29, x30, [sp], 48
	.cfi_restore 30
	.cfi_restore 29
	.cfi_def_cfa_offset 0
	ret
	.cfi_endproc
.LFE11690:
	.size	_ZSt14__copy_move_a2ILb0EPPSt4pairIiNSt7__cxx1112basic_stringIcSt11char_traitsIcESaIcEEEES9_ET1_T0_SB_SA_, .-_ZSt14__copy_move_a2ILb0EPPSt4pairIiNSt7__cxx1112basic_stringIcSt11char_traitsIcESaIcEEEES9_ET1_T0_SB_SA_
	.section	.text._ZSt23__copy_move_backward_a2ILb0EPPSt4pairIiNSt7__cxx1112basic_stringIcSt11char_traitsIcESaIcEEEES9_ET1_T0_SB_SA_,"axG",@progbits,_ZSt23__copy_move_backward_a2ILb0EPPSt4pairIiNSt7__cxx1112basic_stringIcSt11char_traitsIcESaIcEEEES9_ET1_T0_SB_SA_,comdat
	.align	2
	.weak	_ZSt23__copy_move_backward_a2ILb0EPPSt4pairIiNSt7__cxx1112basic_stringIcSt11char_traitsIcESaIcEEEES9_ET1_T0_SB_SA_
	.type	_ZSt23__copy_move_backward_a2ILb0EPPSt4pairIiNSt7__cxx1112basic_stringIcSt11char_traitsIcESaIcEEEES9_ET1_T0_SB_SA_, %function
_ZSt23__copy_move_backward_a2ILb0EPPSt4pairIiNSt7__cxx1112basic_stringIcSt11char_traitsIcESaIcEEEES9_ET1_T0_SB_SA_:
.LFB11691:
	.cfi_startproc
	stp	x29, x30, [sp, -48]!
	.cfi_def_cfa_offset 48
	.cfi_offset 29, -48
	.cfi_offset 30, -40
	mov	x29, sp
	str	x0, [sp, 40]
	str	x1, [sp, 32]
	str	x2, [sp, 24]
	ldr	x2, [sp, 24]
	ldr	x1, [sp, 32]
	ldr	x0, [sp, 40]
	bl	_ZNSt20__copy_move_backwardILb0ELb1ESt26random_access_iterator_tagE13__copy_move_bIPSt4pairIiNSt7__cxx1112basic_stringIcSt11char_traitsIcESaIcEEEEEEPT_PKSC_SF_SD_
	ldp	x29, x30, [sp], 48
	.cfi_restore 30
	.cfi_restore 29
	.cfi_def_cfa_offset 0
	ret
	.cfi_endproc
.LFE11691:
	.size	_ZSt23__copy_move_backward_a2ILb0EPPSt4pairIiNSt7__cxx1112basic_stringIcSt11char_traitsIcESaIcEEEES9_ET1_T0_SB_SA_, .-_ZSt23__copy_move_backward_a2ILb0EPPSt4pairIiNSt7__cxx1112basic_stringIcSt11char_traitsIcESaIcEEEES9_ET1_T0_SB_SA_
	.section	.text._ZNSt11__copy_moveILb0ELb1ESt26random_access_iterator_tagE8__copy_mIPiEEPT_PKS4_S7_S5_,"axG",@progbits,_ZNSt11__copy_moveILb0ELb1ESt26random_access_iterator_tagE8__copy_mIPiEEPT_PKS4_S7_S5_,comdat
	.align	2
	.weak	_ZNSt11__copy_moveILb0ELb1ESt26random_access_iterator_tagE8__copy_mIPiEEPT_PKS4_S7_S5_
	.type	_ZNSt11__copy_moveILb0ELb1ESt26random_access_iterator_tagE8__copy_mIPiEEPT_PKS4_S7_S5_, %function
_ZNSt11__copy_moveILb0ELb1ESt26random_access_iterator_tagE8__copy_mIPiEEPT_PKS4_S7_S5_:
.LFB11692:
	.cfi_startproc
	stp	x29, x30, [sp, -64]!
	.cfi_def_cfa_offset 64
	.cfi_offset 29, -64
	.cfi_offset 30, -56
	mov	x29, sp
	str	x0, [sp, 40]
	str	x1, [sp, 32]
	str	x2, [sp, 24]
	ldr	x1, [sp, 32]
	ldr	x0, [sp, 40]
	sub	x0, x1, x0
	asr	x0, x0, 3
	str	x0, [sp, 56]
	ldr	x0, [sp, 56]
	cmp	x0, 0
	beq	.L386
	ldr	x0, [sp, 56]
	lsl	x0, x0, 3
	mov	x2, x0
	ldr	x1, [sp, 40]
	ldr	x0, [sp, 24]
	bl	memmove
.L386:
	ldr	x0, [sp, 56]
	lsl	x0, x0, 3
	ldr	x1, [sp, 24]
	add	x0, x1, x0
	ldp	x29, x30, [sp], 64
	.cfi_restore 30
	.cfi_restore 29
	.cfi_def_cfa_offset 0
	ret
	.cfi_endproc
.LFE11692:
	.size	_ZNSt11__copy_moveILb0ELb1ESt26random_access_iterator_tagE8__copy_mIPiEEPT_PKS4_S7_S5_, .-_ZNSt11__copy_moveILb0ELb1ESt26random_access_iterator_tagE8__copy_mIPiEEPT_PKS4_S7_S5_
	.section	.text._ZNSt20__copy_move_backwardILb0ELb1ESt26random_access_iterator_tagE13__copy_move_bIPiEEPT_PKS4_S7_S5_,"axG",@progbits,_ZNSt20__copy_move_backwardILb0ELb1ESt26random_access_iterator_tagE13__copy_move_bIPiEEPT_PKS4_S7_S5_,comdat
	.align	2
	.weak	_ZNSt20__copy_move_backwardILb0ELb1ESt26random_access_iterator_tagE13__copy_move_bIPiEEPT_PKS4_S7_S5_
	.type	_ZNSt20__copy_move_backwardILb0ELb1ESt26random_access_iterator_tagE13__copy_move_bIPiEEPT_PKS4_S7_S5_, %function
_ZNSt20__copy_move_backwardILb0ELb1ESt26random_access_iterator_tagE13__copy_move_bIPiEEPT_PKS4_S7_S5_:
.LFB11694:
	.cfi_startproc
	stp	x29, x30, [sp, -64]!
	.cfi_def_cfa_offset 64
	.cfi_offset 29, -64
	.cfi_offset 30, -56
	mov	x29, sp
	str	x0, [sp, 40]
	str	x1, [sp, 32]
	str	x2, [sp, 24]
	ldr	x1, [sp, 32]
	ldr	x0, [sp, 40]
	sub	x0, x1, x0
	asr	x0, x0, 3
	str	x0, [sp, 56]
	ldr	x0, [sp, 56]
	cmp	x0, 0
	beq	.L389
	ldr	x0, [sp, 56]
	lsl	x0, x0, 3
	neg	x0, x0
	ldr	x1, [sp, 24]
	add	x3, x1, x0
	ldr	x0, [sp, 56]
	lsl	x0, x0, 3
	mov	x2, x0
	ldr	x1, [sp, 40]
	mov	x0, x3
	bl	memmove
.L389:
	ldr	x0, [sp, 56]
	lsl	x0, x0, 3
	neg	x0, x0
	ldr	x1, [sp, 24]
	add	x0, x1, x0
	ldp	x29, x30, [sp], 64
	.cfi_restore 30
	.cfi_restore 29
	.cfi_def_cfa_offset 0
	ret
	.cfi_endproc
.LFE11694:
	.size	_ZNSt20__copy_move_backwardILb0ELb1ESt26random_access_iterator_tagE13__copy_move_bIPiEEPT_PKS4_S7_S5_, .-_ZNSt20__copy_move_backwardILb0ELb1ESt26random_access_iterator_tagE13__copy_move_bIPiEEPT_PKS4_S7_S5_
	.section	.text._ZNSt11__copy_moveILb0ELb1ESt26random_access_iterator_tagE8__copy_mIPSt4pairIiNSt7__cxx1112basic_stringIcSt11char_traitsIcESaIcEEEEEEPT_PKSC_SF_SD_,"axG",@progbits,_ZNSt11__copy_moveILb0ELb1ESt26random_access_iterator_tagE8__copy_mIPSt4pairIiNSt7__cxx1112basic_stringIcSt11char_traitsIcESaIcEEEEEEPT_PKSC_SF_SD_,comdat
	.align	2
	.weak	_ZNSt11__copy_moveILb0ELb1ESt26random_access_iterator_tagE8__copy_mIPSt4pairIiNSt7__cxx1112basic_stringIcSt11char_traitsIcESaIcEEEEEEPT_PKSC_SF_SD_
	.type	_ZNSt11__copy_moveILb0ELb1ESt26random_access_iterator_tagE8__copy_mIPSt4pairIiNSt7__cxx1112basic_stringIcSt11char_traitsIcESaIcEEEEEEPT_PKSC_SF_SD_, %function
_ZNSt11__copy_moveILb0ELb1ESt26random_access_iterator_tagE8__copy_mIPSt4pairIiNSt7__cxx1112basic_stringIcSt11char_traitsIcESaIcEEEEEEPT_PKSC_SF_SD_:
.LFB11696:
	.cfi_startproc
	stp	x29, x30, [sp, -64]!
	.cfi_def_cfa_offset 64
	.cfi_offset 29, -64
	.cfi_offset 30, -56
	mov	x29, sp
	str	x0, [sp, 40]
	str	x1, [sp, 32]
	str	x2, [sp, 24]
	ldr	x1, [sp, 32]
	ldr	x0, [sp, 40]
	sub	x0, x1, x0
	asr	x0, x0, 3
	str	x0, [sp, 56]
	ldr	x0, [sp, 56]
	cmp	x0, 0
	beq	.L392
	ldr	x0, [sp, 56]
	lsl	x0, x0, 3
	mov	x2, x0
	ldr	x1, [sp, 40]
	ldr	x0, [sp, 24]
	bl	memmove
.L392:
	ldr	x0, [sp, 56]
	lsl	x0, x0, 3
	ldr	x1, [sp, 24]
	add	x0, x1, x0
	ldp	x29, x30, [sp], 64
	.cfi_restore 30
	.cfi_restore 29
	.cfi_def_cfa_offset 0
	ret
	.cfi_endproc
.LFE11696:
	.size	_ZNSt11__copy_moveILb0ELb1ESt26random_access_iterator_tagE8__copy_mIPSt4pairIiNSt7__cxx1112basic_stringIcSt11char_traitsIcESaIcEEEEEEPT_PKSC_SF_SD_, .-_ZNSt11__copy_moveILb0ELb1ESt26random_access_iterator_tagE8__copy_mIPSt4pairIiNSt7__cxx1112basic_stringIcSt11char_traitsIcESaIcEEEEEEPT_PKSC_SF_SD_
	.section	.text._ZNSt20__copy_move_backwardILb0ELb1ESt26random_access_iterator_tagE13__copy_move_bIPSt4pairIiNSt7__cxx1112basic_stringIcSt11char_traitsIcESaIcEEEEEEPT_PKSC_SF_SD_,"axG",@progbits,_ZNSt20__copy_move_backwardILb0ELb1ESt26random_access_iterator_tagE13__copy_move_bIPSt4pairIiNSt7__cxx1112basic_stringIcSt11char_traitsIcESaIcEEEEEEPT_PKSC_SF_SD_,comdat
	.align	2
	.weak	_ZNSt20__copy_move_backwardILb0ELb1ESt26random_access_iterator_tagE13__copy_move_bIPSt4pairIiNSt7__cxx1112basic_stringIcSt11char_traitsIcESaIcEEEEEEPT_PKSC_SF_SD_
	.type	_ZNSt20__copy_move_backwardILb0ELb1ESt26random_access_iterator_tagE13__copy_move_bIPSt4pairIiNSt7__cxx1112basic_stringIcSt11char_traitsIcESaIcEEEEEEPT_PKSC_SF_SD_, %function
_ZNSt20__copy_move_backwardILb0ELb1ESt26random_access_iterator_tagE13__copy_move_bIPSt4pairIiNSt7__cxx1112basic_stringIcSt11char_traitsIcESaIcEEEEEEPT_PKSC_SF_SD_:
.LFB11698:
	.cfi_startproc
	stp	x29, x30, [sp, -64]!
	.cfi_def_cfa_offset 64
	.cfi_offset 29, -64
	.cfi_offset 30, -56
	mov	x29, sp
	str	x0, [sp, 40]
	str	x1, [sp, 32]
	str	x2, [sp, 24]
	ldr	x1, [sp, 32]
	ldr	x0, [sp, 40]
	sub	x0, x1, x0
	asr	x0, x0, 3
	str	x0, [sp, 56]
	ldr	x0, [sp, 56]
	cmp	x0, 0
	beq	.L395
	ldr	x0, [sp, 56]
	lsl	x0, x0, 3
	neg	x0, x0
	ldr	x1, [sp, 24]
	add	x3, x1, x0
	ldr	x0, [sp, 56]
	lsl	x0, x0, 3
	mov	x2, x0
	ldr	x1, [sp, 40]
	mov	x0, x3
	bl	memmove
.L395:
	ldr	x0, [sp, 56]
	lsl	x0, x0, 3
	neg	x0, x0
	ldr	x1, [sp, 24]
	add	x0, x1, x0
	ldp	x29, x30, [sp], 64
	.cfi_restore 30
	.cfi_restore 29
	.cfi_def_cfa_offset 0
	ret
	.cfi_endproc
.LFE11698:
	.size	_ZNSt20__copy_move_backwardILb0ELb1ESt26random_access_iterator_tagE13__copy_move_bIPSt4pairIiNSt7__cxx1112basic_stringIcSt11char_traitsIcESaIcEEEEEEPT_PKSC_SF_SD_, .-_ZNSt20__copy_move_backwardILb0ELb1ESt26random_access_iterator_tagE13__copy_move_bIPSt4pairIiNSt7__cxx1112basic_stringIcSt11char_traitsIcESaIcEEEEEEPT_PKSC_SF_SD_
	.text
	.align	2
	.type	_Z41__static_initialization_and_destruction_0ii, %function
_Z41__static_initialization_and_destruction_0ii:
.LFB11736:
	.cfi_startproc
	stp	x29, x30, [sp, -32]!
	.cfi_def_cfa_offset 32
	.cfi_offset 29, -32
	.cfi_offset 30, -24
	mov	x29, sp
	str	w0, [sp, 28]
	str	w1, [sp, 24]
	ldr	w0, [sp, 28]
	cmp	w0, 1
	bne	.L399
	ldr	w1, [sp, 24]
	mov	w0, 65535
	cmp	w1, w0
	bne	.L399
	adrp	x0, _ZStL8__ioinit
	add	x0, x0, :lo12:_ZStL8__ioinit
	bl	_ZNSt8ios_base4InitC1Ev
	adrp	x0, __dso_handle
	add	x2, x0, :lo12:__dso_handle
	adrp	x0, _ZStL8__ioinit
	add	x1, x0, :lo12:_ZStL8__ioinit
	adrp	x0, :got:_ZNSt8ios_base4InitD1Ev
	ldr	x0, [x0, #:got_lo12:_ZNSt8ios_base4InitD1Ev]
	bl	__cxa_atexit
.L399:
	nop
	ldp	x29, x30, [sp], 32
	.cfi_restore 30
	.cfi_restore 29
	.cfi_def_cfa_offset 0
	ret
	.cfi_endproc
.LFE11736:
	.size	_Z41__static_initialization_and_destruction_0ii, .-_Z41__static_initialization_and_destruction_0ii
	.align	2
	.type	_GLOBAL__sub_I_main, %function
_GLOBAL__sub_I_main:
.LFB11759:
	.cfi_startproc
	stp	x29, x30, [sp, -16]!
	.cfi_def_cfa_offset 16
	.cfi_offset 29, -16
	.cfi_offset 30, -8
	mov	x29, sp
	mov	w1, 65535
	mov	w0, 1
	bl	_Z41__static_initialization_and_destruction_0ii
	ldp	x29, x30, [sp], 16
	.cfi_restore 30
	.cfi_restore 29
	.cfi_def_cfa_offset 0
	ret
	.cfi_endproc
.LFE11759:
	.size	_GLOBAL__sub_I_main, .-_GLOBAL__sub_I_main
	.section	.init_array,"aw",%init_array
	.align	3
	.xword	_GLOBAL__sub_I_main
	.hidden	DW.ref.__gxx_personality_v0
	.weak	DW.ref.__gxx_personality_v0
	.section	.data.rel.local.DW.ref.__gxx_personality_v0,"awG",@progbits,DW.ref.__gxx_personality_v0,comdat
	.align	3
	.type	DW.ref.__gxx_personality_v0, %object
	.size	DW.ref.__gxx_personality_v0, 8
DW.ref.__gxx_personality_v0:
	.xword	__gxx_personality_v0
	.hidden	__dso_handle
	.ident	"GCC: (Ubuntu 11.4.0-1ubuntu1~22.04) 11.4.0"
	.section	.note.GNU-stack,"",@progbits
