	.arch armv8-a
	.file	"C_Coloring_Trees.cpp"
	.text
	.section	.text._ZSt17__size_to_integerm,"axG",@progbits,_ZSt17__size_to_integerm,comdat
	.align	2
	.weak	_ZSt17__size_to_integerm
	.type	_ZSt17__size_to_integerm, %function
_ZSt17__size_to_integerm:
.LFB531:
	.cfi_startproc
	sub	sp, sp, #16
	.cfi_def_cfa_offset 16
	str	x0, [sp, 8]
	ldr	x0, [sp, 8]
	add	sp, sp, 16
	.cfi_def_cfa_offset 0
	ret
	.cfi_endproc
.LFE531:
	.size	_ZSt17__size_to_integerm, .-_ZSt17__size_to_integerm
	.section	.text._ZnwmPv,"axG",@progbits,_ZnwmPv,comdat
	.align	2
	.weak	_ZnwmPv
	.type	_ZnwmPv, %function
_ZnwmPv:
.LFB999:
	.cfi_startproc
	sub	sp, sp, #16
	.cfi_def_cfa_offset 16
	str	x0, [sp, 8]
	str	x1, [sp]
	ldr	x0, [sp]
	add	sp, sp, 16
	.cfi_def_cfa_offset 0
	ret
	.cfi_endproc
.LFE999:
	.size	_ZnwmPv, .-_ZnwmPv
	.section	.text._ZdlPvS_,"axG",@progbits,_ZdlPvS_,comdat
	.align	2
	.weak	_ZdlPvS_
	.type	_ZdlPvS_, %function
_ZdlPvS_:
.LFB1001:
	.cfi_startproc
	sub	sp, sp, #16
	.cfi_def_cfa_offset 16
	str	x0, [sp, 8]
	str	x1, [sp]
	nop
	add	sp, sp, 16
	.cfi_def_cfa_offset 0
	ret
	.cfi_endproc
.LFE1001:
	.size	_ZdlPvS_, .-_ZdlPvS_
	.section	.text._ZSt3minImERKT_S2_S2_,"axG",@progbits,_ZSt3minImERKT_S2_S2_,comdat
	.align	2
	.weak	_ZSt3minImERKT_S2_S2_
	.type	_ZSt3minImERKT_S2_S2_, %function
_ZSt3minImERKT_S2_S2_:
.LFB3247:
	.cfi_startproc
	sub	sp, sp, #16
	.cfi_def_cfa_offset 16
	str	x0, [sp, 8]
	str	x1, [sp]
	ldr	x0, [sp]
	ldr	x1, [x0]
	ldr	x0, [sp, 8]
	ldr	x0, [x0]
	cmp	x1, x0
	bcs	.L7
	ldr	x0, [sp]
	b	.L8
.L7:
	ldr	x0, [sp, 8]
.L8:
	add	sp, sp, 16
	.cfi_def_cfa_offset 0
	ret
	.cfi_endproc
.LFE3247:
	.size	_ZSt3minImERKT_S2_S2_, .-_ZSt3minImERKT_S2_S2_
	.section	.rodata
	.align	3
	.type	_ZN6__pstl9execution2v1L3seqE, %object
	.size	_ZN6__pstl9execution2v1L3seqE, 1
_ZN6__pstl9execution2v1L3seqE:
	.zero	1
	.align	3
	.type	_ZN6__pstl9execution2v1L3parE, %object
	.size	_ZN6__pstl9execution2v1L3parE, 1
_ZN6__pstl9execution2v1L3parE:
	.zero	1
	.align	3
	.type	_ZN6__pstl9execution2v1L9par_unseqE, %object
	.size	_ZN6__pstl9execution2v1L9par_unseqE, 1
_ZN6__pstl9execution2v1L9par_unseqE:
	.zero	1
	.align	3
	.type	_ZN6__pstl9execution2v1L5unseqE, %object
	.size	_ZN6__pstl9execution2v1L5unseqE, 1
_ZN6__pstl9execution2v1L5unseqE:
	.zero	1
	.local	_ZStL8__ioinit
	.comm	_ZStL8__ioinit,1,8
	.align	2
	.type	_ZN9__gnu_cxxL21__default_lock_policyE, %object
	.size	_ZN9__gnu_cxxL21__default_lock_policyE, 4
_ZN9__gnu_cxxL21__default_lock_policyE:
	.word	2
	.align	2
	.type	_ZNSt15regex_constantsL13error_collateE, %object
	.size	_ZNSt15regex_constantsL13error_collateE, 4
_ZNSt15regex_constantsL13error_collateE:
	.zero	4
	.align	2
	.type	_ZNSt15regex_constantsL11error_ctypeE, %object
	.size	_ZNSt15regex_constantsL11error_ctypeE, 4
_ZNSt15regex_constantsL11error_ctypeE:
	.word	1
	.align	2
	.type	_ZNSt15regex_constantsL12error_escapeE, %object
	.size	_ZNSt15regex_constantsL12error_escapeE, 4
_ZNSt15regex_constantsL12error_escapeE:
	.word	2
	.align	2
	.type	_ZNSt15regex_constantsL13error_backrefE, %object
	.size	_ZNSt15regex_constantsL13error_backrefE, 4
_ZNSt15regex_constantsL13error_backrefE:
	.word	3
	.align	2
	.type	_ZNSt15regex_constantsL11error_brackE, %object
	.size	_ZNSt15regex_constantsL11error_brackE, 4
_ZNSt15regex_constantsL11error_brackE:
	.word	4
	.align	2
	.type	_ZNSt15regex_constantsL11error_parenE, %object
	.size	_ZNSt15regex_constantsL11error_parenE, 4
_ZNSt15regex_constantsL11error_parenE:
	.word	5
	.align	2
	.type	_ZNSt15regex_constantsL11error_braceE, %object
	.size	_ZNSt15regex_constantsL11error_braceE, 4
_ZNSt15regex_constantsL11error_braceE:
	.word	6
	.align	2
	.type	_ZNSt15regex_constantsL14error_badbraceE, %object
	.size	_ZNSt15regex_constantsL14error_badbraceE, 4
_ZNSt15regex_constantsL14error_badbraceE:
	.word	7
	.align	2
	.type	_ZNSt15regex_constantsL11error_rangeE, %object
	.size	_ZNSt15regex_constantsL11error_rangeE, 4
_ZNSt15regex_constantsL11error_rangeE:
	.word	8
	.align	2
	.type	_ZNSt15regex_constantsL11error_spaceE, %object
	.size	_ZNSt15regex_constantsL11error_spaceE, 4
_ZNSt15regex_constantsL11error_spaceE:
	.word	9
	.align	2
	.type	_ZNSt15regex_constantsL15error_badrepeatE, %object
	.size	_ZNSt15regex_constantsL15error_badrepeatE, 4
_ZNSt15regex_constantsL15error_badrepeatE:
	.word	10
	.align	2
	.type	_ZNSt15regex_constantsL16error_complexityE, %object
	.size	_ZNSt15regex_constantsL16error_complexityE, 4
_ZNSt15regex_constantsL16error_complexityE:
	.word	11
	.align	2
	.type	_ZNSt15regex_constantsL11error_stackE, %object
	.size	_ZNSt15regex_constantsL11error_stackE, 4
_ZNSt15regex_constantsL11error_stackE:
	.word	12
	.align	3
	.type	_ZNSt8__detailL19_S_invalid_state_idE, %object
	.size	_ZNSt8__detailL19_S_invalid_state_idE, 8
_ZNSt8__detailL19_S_invalid_state_idE:
	.xword	-1
	.align	3
.LC0:
	.string	"r"
	.align	3
.LC1:
	.string	"input.txt"
	.align	3
.LC2:
	.string	"w"
	.align	3
.LC3:
	.string	"output.txt"
	.text
	.align	2
	.global	_Z5setupv
	.type	_Z5setupv, %function
_Z5setupv:
.LFB9696:
	.cfi_startproc
	stp	x29, x30, [sp, -16]!
	.cfi_def_cfa_offset 16
	.cfi_offset 29, -16
	.cfi_offset 30, -8
	mov	x29, sp
	mov	w0, 0
	bl	_ZNSt8ios_base15sync_with_stdioEb
	mov	x1, 0
	adrp	x0, :got:_ZSt3cin
	ldr	x0, [x0, #:got_lo12:_ZSt3cin]
	add	x0, x0, 16
	bl	_ZNSt9basic_iosIcSt11char_traitsIcEE3tieEPSo
	mov	x1, 0
	adrp	x0, :got:_ZSt4cout
	ldr	x0, [x0, #:got_lo12:_ZSt4cout]
	add	x0, x0, 8
	bl	_ZNSt9basic_iosIcSt11char_traitsIcEE3tieEPSo
	adrp	x0, :got:stdin
	ldr	x0, [x0, #:got_lo12:stdin]
	ldr	x0, [x0]
	mov	x2, x0
	adrp	x0, .LC0
	add	x1, x0, :lo12:.LC0
	adrp	x0, .LC1
	add	x0, x0, :lo12:.LC1
	bl	freopen
	adrp	x0, :got:stdout
	ldr	x0, [x0, #:got_lo12:stdout]
	ldr	x0, [x0]
	mov	x2, x0
	adrp	x0, .LC2
	add	x1, x0, :lo12:.LC2
	adrp	x0, .LC3
	add	x0, x0, :lo12:.LC3
	bl	freopen
	nop
	ldp	x29, x30, [sp], 16
	.cfi_restore 30
	.cfi_restore 29
	.cfi_def_cfa_offset 0
	ret
	.cfi_endproc
.LFE9696:
	.size	_Z5setupv, .-_Z5setupv
	.global	k
	.bss
	.align	2
	.type	k, %object
	.size	k, 4
k:
	.zero	4
	.global	n
	.align	2
	.type	n, %object
	.size	n, 4
n:
	.zero	4
	.global	m
	.align	2
	.type	m, %object
	.size	m, 4
m:
	.zero	4
	.section	.text._ZNSt12_Vector_baseIiSaIiEE12_Vector_implD2Ev,"axG",@progbits,_ZNSt12_Vector_baseIiSaIiEE12_Vector_implD5Ev,comdat
	.align	2
	.weak	_ZNSt12_Vector_baseIiSaIiEE12_Vector_implD2Ev
	.type	_ZNSt12_Vector_baseIiSaIiEE12_Vector_implD2Ev, %function
_ZNSt12_Vector_baseIiSaIiEE12_Vector_implD2Ev:
.LFB9700:
	.cfi_startproc
	stp	x29, x30, [sp, -32]!
	.cfi_def_cfa_offset 32
	.cfi_offset 29, -32
	.cfi_offset 30, -24
	mov	x29, sp
	str	x0, [sp, 24]
	ldr	x0, [sp, 24]
	bl	_ZNSaIiED2Ev
	nop
	ldp	x29, x30, [sp], 32
	.cfi_restore 30
	.cfi_restore 29
	.cfi_def_cfa_offset 0
	ret
	.cfi_endproc
.LFE9700:
	.size	_ZNSt12_Vector_baseIiSaIiEE12_Vector_implD2Ev, .-_ZNSt12_Vector_baseIiSaIiEE12_Vector_implD2Ev
	.weak	_ZNSt12_Vector_baseIiSaIiEE12_Vector_implD1Ev
	.set	_ZNSt12_Vector_baseIiSaIiEE12_Vector_implD1Ev,_ZNSt12_Vector_baseIiSaIiEE12_Vector_implD2Ev
	.section	.text._ZNSt12_Vector_baseIiSaIiEEC2Ev,"axG",@progbits,_ZNSt12_Vector_baseIiSaIiEEC5Ev,comdat
	.align	2
	.weak	_ZNSt12_Vector_baseIiSaIiEEC2Ev
	.type	_ZNSt12_Vector_baseIiSaIiEEC2Ev, %function
_ZNSt12_Vector_baseIiSaIiEEC2Ev:
.LFB9702:
	.cfi_startproc
	stp	x29, x30, [sp, -32]!
	.cfi_def_cfa_offset 32
	.cfi_offset 29, -32
	.cfi_offset 30, -24
	mov	x29, sp
	str	x0, [sp, 24]
	ldr	x0, [sp, 24]
	bl	_ZNSt12_Vector_baseIiSaIiEE12_Vector_implC1Ev
	nop
	ldp	x29, x30, [sp], 32
	.cfi_restore 30
	.cfi_restore 29
	.cfi_def_cfa_offset 0
	ret
	.cfi_endproc
.LFE9702:
	.size	_ZNSt12_Vector_baseIiSaIiEEC2Ev, .-_ZNSt12_Vector_baseIiSaIiEEC2Ev
	.weak	_ZNSt12_Vector_baseIiSaIiEEC1Ev
	.set	_ZNSt12_Vector_baseIiSaIiEEC1Ev,_ZNSt12_Vector_baseIiSaIiEEC2Ev
	.section	.text._ZNSt6vectorIiSaIiEEC2Ev,"axG",@progbits,_ZNSt6vectorIiSaIiEEC5Ev,comdat
	.align	2
	.weak	_ZNSt6vectorIiSaIiEEC2Ev
	.type	_ZNSt6vectorIiSaIiEEC2Ev, %function
_ZNSt6vectorIiSaIiEEC2Ev:
.LFB9704:
	.cfi_startproc
	stp	x29, x30, [sp, -32]!
	.cfi_def_cfa_offset 32
	.cfi_offset 29, -32
	.cfi_offset 30, -24
	mov	x29, sp
	str	x0, [sp, 24]
	ldr	x0, [sp, 24]
	bl	_ZNSt12_Vector_baseIiSaIiEEC2Ev
	nop
	ldp	x29, x30, [sp], 32
	.cfi_restore 30
	.cfi_restore 29
	.cfi_def_cfa_offset 0
	ret
	.cfi_endproc
.LFE9704:
	.size	_ZNSt6vectorIiSaIiEEC2Ev, .-_ZNSt6vectorIiSaIiEEC2Ev
	.weak	_ZNSt6vectorIiSaIiEEC1Ev
	.set	_ZNSt6vectorIiSaIiEEC1Ev,_ZNSt6vectorIiSaIiEEC2Ev
	.global	arr
	.bss
	.align	3
	.type	arr, %object
	.size	arr, 24
arr:
	.zero	24
	.section	.text._ZNSt12_Vector_baseISt6vectorIiSaIiEESaIS2_EE12_Vector_implD2Ev,"axG",@progbits,_ZNSt12_Vector_baseISt6vectorIiSaIiEESaIS2_EE12_Vector_implD5Ev,comdat
	.align	2
	.weak	_ZNSt12_Vector_baseISt6vectorIiSaIiEESaIS2_EE12_Vector_implD2Ev
	.type	_ZNSt12_Vector_baseISt6vectorIiSaIiEESaIS2_EE12_Vector_implD2Ev, %function
_ZNSt12_Vector_baseISt6vectorIiSaIiEESaIS2_EE12_Vector_implD2Ev:
.LFB9710:
	.cfi_startproc
	stp	x29, x30, [sp, -32]!
	.cfi_def_cfa_offset 32
	.cfi_offset 29, -32
	.cfi_offset 30, -24
	mov	x29, sp
	str	x0, [sp, 24]
	ldr	x0, [sp, 24]
	bl	_ZNSaISt6vectorIiSaIiEEED2Ev
	nop
	ldp	x29, x30, [sp], 32
	.cfi_restore 30
	.cfi_restore 29
	.cfi_def_cfa_offset 0
	ret
	.cfi_endproc
.LFE9710:
	.size	_ZNSt12_Vector_baseISt6vectorIiSaIiEESaIS2_EE12_Vector_implD2Ev, .-_ZNSt12_Vector_baseISt6vectorIiSaIiEESaIS2_EE12_Vector_implD2Ev
	.weak	_ZNSt12_Vector_baseISt6vectorIiSaIiEESaIS2_EE12_Vector_implD1Ev
	.set	_ZNSt12_Vector_baseISt6vectorIiSaIiEESaIS2_EE12_Vector_implD1Ev,_ZNSt12_Vector_baseISt6vectorIiSaIiEESaIS2_EE12_Vector_implD2Ev
	.section	.text._ZNSt12_Vector_baseISt6vectorIiSaIiEESaIS2_EEC2Ev,"axG",@progbits,_ZNSt12_Vector_baseISt6vectorIiSaIiEESaIS2_EEC5Ev,comdat
	.align	2
	.weak	_ZNSt12_Vector_baseISt6vectorIiSaIiEESaIS2_EEC2Ev
	.type	_ZNSt12_Vector_baseISt6vectorIiSaIiEESaIS2_EEC2Ev, %function
_ZNSt12_Vector_baseISt6vectorIiSaIiEESaIS2_EEC2Ev:
.LFB9712:
	.cfi_startproc
	stp	x29, x30, [sp, -32]!
	.cfi_def_cfa_offset 32
	.cfi_offset 29, -32
	.cfi_offset 30, -24
	mov	x29, sp
	str	x0, [sp, 24]
	ldr	x0, [sp, 24]
	bl	_ZNSt12_Vector_baseISt6vectorIiSaIiEESaIS2_EE12_Vector_implC1Ev
	nop
	ldp	x29, x30, [sp], 32
	.cfi_restore 30
	.cfi_restore 29
	.cfi_def_cfa_offset 0
	ret
	.cfi_endproc
.LFE9712:
	.size	_ZNSt12_Vector_baseISt6vectorIiSaIiEESaIS2_EEC2Ev, .-_ZNSt12_Vector_baseISt6vectorIiSaIiEESaIS2_EEC2Ev
	.weak	_ZNSt12_Vector_baseISt6vectorIiSaIiEESaIS2_EEC1Ev
	.set	_ZNSt12_Vector_baseISt6vectorIiSaIiEESaIS2_EEC1Ev,_ZNSt12_Vector_baseISt6vectorIiSaIiEESaIS2_EEC2Ev
	.section	.text._ZNSt6vectorIS_IiSaIiEESaIS1_EEC2Ev,"axG",@progbits,_ZNSt6vectorIS_IiSaIiEESaIS1_EEC5Ev,comdat
	.align	2
	.weak	_ZNSt6vectorIS_IiSaIiEESaIS1_EEC2Ev
	.type	_ZNSt6vectorIS_IiSaIiEESaIS1_EEC2Ev, %function
_ZNSt6vectorIS_IiSaIiEESaIS1_EEC2Ev:
.LFB9714:
	.cfi_startproc
	stp	x29, x30, [sp, -32]!
	.cfi_def_cfa_offset 32
	.cfi_offset 29, -32
	.cfi_offset 30, -24
	mov	x29, sp
	str	x0, [sp, 24]
	ldr	x0, [sp, 24]
	bl	_ZNSt12_Vector_baseISt6vectorIiSaIiEESaIS2_EEC2Ev
	nop
	ldp	x29, x30, [sp], 32
	.cfi_restore 30
	.cfi_restore 29
	.cfi_def_cfa_offset 0
	ret
	.cfi_endproc
.LFE9714:
	.size	_ZNSt6vectorIS_IiSaIiEESaIS1_EEC2Ev, .-_ZNSt6vectorIS_IiSaIiEESaIS1_EEC2Ev
	.weak	_ZNSt6vectorIS_IiSaIiEESaIS1_EEC1Ev
	.set	_ZNSt6vectorIS_IiSaIiEESaIS1_EEC1Ev,_ZNSt6vectorIS_IiSaIiEESaIS1_EEC2Ev
	.global	price
	.bss
	.align	3
	.type	price, %object
	.size	price, 24
price:
	.zero	24
	.global	dp
	.align	3
	.type	dp, %object
	.size	dp, 9261000
dp:
	.zero	9261000
	.text
	.align	2
	.global	_Z3soliii
	.type	_Z3soliii, %function
_Z3soliii:
.LFB9716:
	.cfi_startproc
	stp	x29, x30, [sp, -80]!
	.cfi_def_cfa_offset 80
	.cfi_offset 29, -80
	.cfi_offset 30, -72
	mov	x29, sp
	stp	x19, x20, [sp, 16]
	.cfi_offset 19, -64
	.cfi_offset 20, -56
	str	w0, [sp, 44]
	str	w1, [sp, 40]
	str	w2, [sp, 36]
	adrp	x0, k
	add	x0, x0, :lo12:k
	ldr	w0, [x0]
	ldr	w1, [sp, 36]
	cmp	w1, w0
	ble	.L17
	mov	x0, 2808348672
	movk	x0, 0xb6b3, lsl 32
	movk	x0, 0xde0, lsl 48
	b	.L18
.L17:
	adrp	x0, n
	add	x0, x0, :lo12:n
	ldr	w0, [x0]
	ldr	w1, [sp, 44]
	cmp	w1, w0
	bne	.L19
	adrp	x0, k
	add	x0, x0, :lo12:k
	ldr	w0, [x0]
	ldr	w1, [sp, 36]
	cmp	w1, w0
	bne	.L20
	mov	x0, 0
	b	.L18
.L20:
	mov	x0, 2808348672
	movk	x0, 0xb6b3, lsl 32
	movk	x0, 0xde0, lsl 48
	b	.L18
.L19:
	ldrsw	x2, [sp, 36]
	ldrsw	x1, [sp, 44]
	mov	x0, 11025
	mul	x3, x1, x0
	ldrsw	x1, [sp, 40]
	mov	x0, x1
	lsl	x0, x0, 3
	sub	x0, x0, x1
	lsl	x1, x0, 4
	sub	x1, x1, x0
	add	x0, x3, x1
	add	x0, x2, x0
	lsl	x1, x0, 3
	adrp	x0, dp
	add	x0, x0, :lo12:dp
	add	x0, x1, x0
	str	x0, [sp, 64]
	ldr	x0, [sp, 64]
	ldr	x0, [x0]
	cmn	x0, #1
	beq	.L22
	ldr	x0, [sp, 64]
	ldr	x0, [x0]
	b	.L18
.L22:
	ldr	x0, [sp, 64]
	mov	x1, 2808348672
	movk	x1, 0xb6b3, lsl 32
	movk	x1, 0xde0, lsl 48
	str	x1, [x0]
	ldrsw	x0, [sp, 44]
	mov	x1, x0
	adrp	x0, arr
	add	x0, x0, :lo12:arr
	bl	_ZNSt6vectorIiSaIiEEixEm
	ldr	w0, [x0]
	cmp	w0, 0
	cset	w0, ne
	and	w0, w0, 255
	cmp	w0, 0
	beq	.L23
	ldr	w0, [sp, 44]
	add	w19, w0, 1
	ldrsw	x0, [sp, 44]
	mov	x1, x0
	adrp	x0, arr
	add	x0, x0, :lo12:arr
	bl	_ZNSt6vectorIiSaIiEEixEm
	ldr	w20, [x0]
	ldrsw	x0, [sp, 44]
	mov	x1, x0
	adrp	x0, arr
	add	x0, x0, :lo12:arr
	bl	_ZNSt6vectorIiSaIiEEixEm
	ldr	w0, [x0]
	ldr	w1, [sp, 40]
	cmp	w1, w0
	cset	w0, ne
	and	w0, w0, 255
	mov	w1, w0
	ldr	w0, [sp, 36]
	add	w0, w1, w0
	mov	w2, w0
	mov	w1, w20
	mov	w0, w19
	bl	_Z3soliii
	mov	x1, x0
	ldr	x0, [sp, 64]
	str	x1, [x0]
	b	.L24
.L23:
	mov	w0, 1
	str	w0, [sp, 76]
	b	.L25
.L26:
	ldr	w0, [sp, 44]
	add	w3, w0, 1
	ldr	w1, [sp, 76]
	ldr	w0, [sp, 40]
	cmp	w1, w0
	cset	w0, ne
	and	w0, w0, 255
	mov	w1, w0
	ldr	w0, [sp, 36]
	add	w0, w1, w0
	mov	w2, w0
	ldr	w1, [sp, 76]
	mov	w0, w3
	bl	_Z3soliii
	mov	x19, x0
	ldrsw	x0, [sp, 44]
	mov	x1, x0
	adrp	x0, price
	add	x0, x0, :lo12:price
	bl	_ZNSt6vectorIS_IiSaIiEESaIS1_EEixEm
	mov	x2, x0
	ldr	w0, [sp, 76]
	sub	w0, w0, #1
	sxtw	x0, w0
	mov	x1, x0
	mov	x0, x2
	bl	_ZNSt6vectorIiSaIiEEixEm
	ldr	w0, [x0]
	sxtw	x0, w0
	add	x0, x19, x0
	str	x0, [sp, 56]
	add	x0, sp, 56
	mov	x1, x0
	ldr	x0, [sp, 64]
	bl	_ZSt3minIxERKT_S2_S2_
	ldr	x1, [x0]
	ldr	x0, [sp, 64]
	str	x1, [x0]
	ldr	w0, [sp, 76]
	add	w0, w0, 1
	str	w0, [sp, 76]
.L25:
	adrp	x0, m
	add	x0, x0, :lo12:m
	ldr	w0, [x0]
	ldr	w1, [sp, 76]
	cmp	w1, w0
	ble	.L26
.L24:
	ldr	x0, [sp, 64]
	ldr	x0, [x0]
.L18:
	ldp	x19, x20, [sp, 16]
	ldp	x29, x30, [sp], 80
	.cfi_restore 30
	.cfi_restore 29
	.cfi_restore 19
	.cfi_restore 20
	.cfi_def_cfa_offset 0
	ret
	.cfi_endproc
.LFE9716:
	.size	_Z3soliii, .-_Z3soliii
	.align	2
	.global	main
	.type	main, %function
main:
.LFB9717:
	.cfi_startproc
	.cfi_personality 0x9b,DW.ref.__gxx_personality_v0
	.cfi_lsda 0x1b,.LLSDA9717
	stp	x29, x30, [sp, -96]!
	.cfi_def_cfa_offset 96
	.cfi_offset 29, -96
	.cfi_offset 30, -88
	mov	x29, sp
	stp	x19, x20, [sp, 16]
	.cfi_offset 19, -80
	.cfi_offset 20, -72
.LEHB0:
	bl	_Z5setupv
	adrp	x0, n
	add	x1, x0, :lo12:n
	adrp	x0, :got:_ZSt3cin
	ldr	x0, [x0, #:got_lo12:_ZSt3cin]
	bl	_ZNSirsERi
	mov	x2, x0
	adrp	x0, m
	add	x1, x0, :lo12:m
	mov	x0, x2
	bl	_ZNSirsERi
	mov	x2, x0
	adrp	x0, k
	add	x1, x0, :lo12:k
	mov	x0, x2
	bl	_ZNSirsERi
	adrp	x0, n
	add	x0, x0, :lo12:n
	ldr	w0, [x0]
	sxtw	x0, w0
	mov	x1, x0
	adrp	x0, arr
	add	x0, x0, :lo12:arr
	bl	_ZNSt6vectorIiSaIiEE6resizeEm
.LEHE0:
	adrp	x0, n
	add	x0, x0, :lo12:n
	ldr	w0, [x0]
	sxtw	x19, w0
	adrp	x0, m
	add	x0, x0, :lo12:m
	ldr	w0, [x0]
	sxtw	x20, w0
	add	x0, sp, 64
	bl	_ZNSaIiEC1Ev
	add	x1, sp, 64
	add	x0, sp, 40
	mov	x2, x1
	mov	x1, x20
.LEHB1:
	bl	_ZNSt6vectorIiSaIiEEC1EmRKS0_
.LEHE1:
	add	x0, sp, 40
	mov	x2, x0
	mov	x1, x19
	adrp	x0, price
	add	x0, x0, :lo12:price
.LEHB2:
	bl	_ZNSt6vectorIS_IiSaIiEESaIS1_EE6resizeEmRKS1_
.LEHE2:
	add	x0, sp, 40
	bl	_ZNSt6vectorIiSaIiEED1Ev
	add	x0, sp, 64
	bl	_ZNSaIiED1Ev
	str	wzr, [sp, 92]
	b	.L28
.L29:
	ldrsw	x0, [sp, 92]
	mov	x1, x0
	adrp	x0, arr
	add	x0, x0, :lo12:arr
	bl	_ZNSt6vectorIiSaIiEEixEm
	mov	x1, x0
	adrp	x0, :got:_ZSt3cin
	ldr	x0, [x0, #:got_lo12:_ZSt3cin]
.LEHB3:
	bl	_ZNSirsERi
	ldr	w0, [sp, 92]
	add	w0, w0, 1
	str	w0, [sp, 92]
.L28:
	adrp	x0, n
	add	x0, x0, :lo12:n
	ldr	w0, [x0]
	ldr	w1, [sp, 92]
	cmp	w1, w0
	blt	.L29
	str	wzr, [sp, 88]
	b	.L30
.L33:
	str	wzr, [sp, 84]
	b	.L31
.L32:
	ldrsw	x0, [sp, 88]
	mov	x1, x0
	adrp	x0, price
	add	x0, x0, :lo12:price
	bl	_ZNSt6vectorIS_IiSaIiEESaIS1_EEixEm
	mov	x2, x0
	ldrsw	x0, [sp, 84]
	mov	x1, x0
	mov	x0, x2
	bl	_ZNSt6vectorIiSaIiEEixEm
	mov	x1, x0
	adrp	x0, :got:_ZSt3cin
	ldr	x0, [x0, #:got_lo12:_ZSt3cin]
	bl	_ZNSirsERi
	ldr	w0, [sp, 84]
	add	w0, w0, 1
	str	w0, [sp, 84]
.L31:
	adrp	x0, m
	add	x0, x0, :lo12:m
	ldr	w0, [x0]
	ldr	w1, [sp, 84]
	cmp	w1, w0
	blt	.L32
	ldr	w0, [sp, 88]
	add	w0, w0, 1
	str	w0, [sp, 88]
.L30:
	adrp	x0, n
	add	x0, x0, :lo12:n
	ldr	w0, [x0]
	ldr	w1, [sp, 88]
	cmp	w1, w0
	blt	.L33
	mov	x2, 20424
	movk	x2, 0x8d, lsl 16
	mov	w1, -1
	adrp	x0, dp
	add	x0, x0, :lo12:dp
	bl	memset
	mov	w2, 0
	mov	w1, 0
	mov	w0, 0
	bl	_Z3soliii
	str	x0, [sp, 72]
	ldr	d0, [sp, 72]
	scvtf	d0, d0
	adrp	x0, .LC4
	ldr	d1, [x0, #:lo12:.LC4]
	fcmp	d0, d1
	beq	.L34
	ldr	x0, [sp, 72]
	b	.L35
.L34:
	mov	x0, -1
.L35:
	mov	x1, x0
	adrp	x0, :got:_ZSt4cout
	ldr	x0, [x0, #:got_lo12:_ZSt4cout]
	bl	_ZNSolsEx
	mov	w1, 10
	bl	_ZStlsISt11char_traitsIcEERSt13basic_ostreamIcT_ES5_c
	mov	w0, 0
	b	.L41
.L40:
	mov	x19, x0
	add	x0, sp, 40
	bl	_ZNSt6vectorIiSaIiEED1Ev
	b	.L38
.L39:
	mov	x19, x0
.L38:
	add	x0, sp, 64
	bl	_ZNSaIiED1Ev
	mov	x0, x19
	bl	_Unwind_Resume
.LEHE3:
.L41:
	ldp	x19, x20, [sp, 16]
	ldp	x29, x30, [sp], 96
	.cfi_restore 30
	.cfi_restore 29
	.cfi_restore 19
	.cfi_restore 20
	.cfi_def_cfa_offset 0
	ret
	.cfi_endproc
.LFE9717:
	.global	__gxx_personality_v0
	.section	.gcc_except_table,"a",@progbits
.LLSDA9717:
	.byte	0xff
	.byte	0xff
	.byte	0x1
	.uleb128 .LLSDACSE9717-.LLSDACSB9717
.LLSDACSB9717:
	.uleb128 .LEHB0-.LFB9717
	.uleb128 .LEHE0-.LEHB0
	.uleb128 0
	.uleb128 0
	.uleb128 .LEHB1-.LFB9717
	.uleb128 .LEHE1-.LEHB1
	.uleb128 .L39-.LFB9717
	.uleb128 0
	.uleb128 .LEHB2-.LFB9717
	.uleb128 .LEHE2-.LEHB2
	.uleb128 .L40-.LFB9717
	.uleb128 0
	.uleb128 .LEHB3-.LFB9717
	.uleb128 .LEHE3-.LEHB3
	.uleb128 0
	.uleb128 0
.LLSDACSE9717:
	.text
	.size	main, .-main
	.section	.text._ZSt3maxImERKT_S2_S2_,"axG",@progbits,_ZSt3maxImERKT_S2_S2_,comdat
	.align	2
	.weak	_ZSt3maxImERKT_S2_S2_
	.type	_ZSt3maxImERKT_S2_S2_, %function
_ZSt3maxImERKT_S2_S2_:
.LFB10029:
	.cfi_startproc
	sub	sp, sp, #16
	.cfi_def_cfa_offset 16
	str	x0, [sp, 8]
	str	x1, [sp]
	ldr	x0, [sp, 8]
	ldr	x1, [x0]
	ldr	x0, [sp]
	ldr	x0, [x0]
	cmp	x1, x0
	bcs	.L43
	ldr	x0, [sp]
	b	.L44
.L43:
	ldr	x0, [sp, 8]
.L44:
	add	sp, sp, 16
	.cfi_def_cfa_offset 0
	ret
	.cfi_endproc
.LFE10029:
	.size	_ZSt3maxImERKT_S2_S2_, .-_ZSt3maxImERKT_S2_S2_
	.section	.text._ZNSt12_Vector_baseIiSaIiEE12_Vector_implC2Ev,"axG",@progbits,_ZNSt12_Vector_baseIiSaIiEE12_Vector_implC5Ev,comdat
	.align	2
	.weak	_ZNSt12_Vector_baseIiSaIiEE12_Vector_implC2Ev
	.type	_ZNSt12_Vector_baseIiSaIiEE12_Vector_implC2Ev, %function
_ZNSt12_Vector_baseIiSaIiEE12_Vector_implC2Ev:
.LFB10407:
	.cfi_startproc
	stp	x29, x30, [sp, -32]!
	.cfi_def_cfa_offset 32
	.cfi_offset 29, -32
	.cfi_offset 30, -24
	mov	x29, sp
	str	x0, [sp, 24]
	ldr	x0, [sp, 24]
	bl	_ZNSaIiEC2Ev
	ldr	x0, [sp, 24]
	bl	_ZNSt12_Vector_baseIiSaIiEE17_Vector_impl_dataC2Ev
	nop
	ldp	x29, x30, [sp], 32
	.cfi_restore 30
	.cfi_restore 29
	.cfi_def_cfa_offset 0
	ret
	.cfi_endproc
.LFE10407:
	.size	_ZNSt12_Vector_baseIiSaIiEE12_Vector_implC2Ev, .-_ZNSt12_Vector_baseIiSaIiEE12_Vector_implC2Ev
	.weak	_ZNSt12_Vector_baseIiSaIiEE12_Vector_implC1Ev
	.set	_ZNSt12_Vector_baseIiSaIiEE12_Vector_implC1Ev,_ZNSt12_Vector_baseIiSaIiEE12_Vector_implC2Ev
	.section	.text._ZNSaIiED2Ev,"axG",@progbits,_ZNSaIiED5Ev,comdat
	.align	2
	.weak	_ZNSaIiED2Ev
	.type	_ZNSaIiED2Ev, %function
_ZNSaIiED2Ev:
.LFB10410:
	.cfi_startproc
	stp	x29, x30, [sp, -32]!
	.cfi_def_cfa_offset 32
	.cfi_offset 29, -32
	.cfi_offset 30, -24
	mov	x29, sp
	str	x0, [sp, 24]
	ldr	x0, [sp, 24]
	bl	_ZN9__gnu_cxx13new_allocatorIiED2Ev
	nop
	ldp	x29, x30, [sp], 32
	.cfi_restore 30
	.cfi_restore 29
	.cfi_def_cfa_offset 0
	ret
	.cfi_endproc
.LFE10410:
	.size	_ZNSaIiED2Ev, .-_ZNSaIiED2Ev
	.weak	_ZNSaIiED1Ev
	.set	_ZNSaIiED1Ev,_ZNSaIiED2Ev
	.section	.text._ZNSt12_Vector_baseIiSaIiEED2Ev,"axG",@progbits,_ZNSt12_Vector_baseIiSaIiEED5Ev,comdat
	.align	2
	.weak	_ZNSt12_Vector_baseIiSaIiEED2Ev
	.type	_ZNSt12_Vector_baseIiSaIiEED2Ev, %function
_ZNSt12_Vector_baseIiSaIiEED2Ev:
.LFB10413:
	.cfi_startproc
	.cfi_personality 0x9b,DW.ref.__gxx_personality_v0
	.cfi_lsda 0x1b,.LLSDA10413
	stp	x29, x30, [sp, -32]!
	.cfi_def_cfa_offset 32
	.cfi_offset 29, -32
	.cfi_offset 30, -24
	mov	x29, sp
	str	x0, [sp, 24]
	ldr	x0, [sp, 24]
	ldr	x3, [x0]
	ldr	x0, [sp, 24]
	ldr	x1, [x0, 16]
	ldr	x0, [sp, 24]
	ldr	x0, [x0]
	sub	x0, x1, x0
	asr	x0, x0, 2
	mov	x2, x0
	mov	x1, x3
	ldr	x0, [sp, 24]
	bl	_ZNSt12_Vector_baseIiSaIiEE13_M_deallocateEPim
	ldr	x0, [sp, 24]
	bl	_ZNSt12_Vector_baseIiSaIiEE12_Vector_implD1Ev
	nop
	ldp	x29, x30, [sp], 32
	.cfi_restore 30
	.cfi_restore 29
	.cfi_def_cfa_offset 0
	ret
	.cfi_endproc
.LFE10413:
	.section	.gcc_except_table
.LLSDA10413:
	.byte	0xff
	.byte	0xff
	.byte	0x1
	.uleb128 .LLSDACSE10413-.LLSDACSB10413
.LLSDACSB10413:
.LLSDACSE10413:
	.section	.text._ZNSt12_Vector_baseIiSaIiEED2Ev,"axG",@progbits,_ZNSt12_Vector_baseIiSaIiEED5Ev,comdat
	.size	_ZNSt12_Vector_baseIiSaIiEED2Ev, .-_ZNSt12_Vector_baseIiSaIiEED2Ev
	.weak	_ZNSt12_Vector_baseIiSaIiEED1Ev
	.set	_ZNSt12_Vector_baseIiSaIiEED1Ev,_ZNSt12_Vector_baseIiSaIiEED2Ev
	.section	.text._ZNSt12_Vector_baseISt6vectorIiSaIiEESaIS2_EE12_Vector_implC2Ev,"axG",@progbits,_ZNSt12_Vector_baseISt6vectorIiSaIiEESaIS2_EE12_Vector_implC5Ev,comdat
	.align	2
	.weak	_ZNSt12_Vector_baseISt6vectorIiSaIiEESaIS2_EE12_Vector_implC2Ev
	.type	_ZNSt12_Vector_baseISt6vectorIiSaIiEESaIS2_EE12_Vector_implC2Ev, %function
_ZNSt12_Vector_baseISt6vectorIiSaIiEESaIS2_EE12_Vector_implC2Ev:
.LFB10416:
	.cfi_startproc
	stp	x29, x30, [sp, -32]!
	.cfi_def_cfa_offset 32
	.cfi_offset 29, -32
	.cfi_offset 30, -24
	mov	x29, sp
	str	x0, [sp, 24]
	ldr	x0, [sp, 24]
	bl	_ZNSaISt6vectorIiSaIiEEEC2Ev
	ldr	x0, [sp, 24]
	bl	_ZNSt12_Vector_baseISt6vectorIiSaIiEESaIS2_EE17_Vector_impl_dataC2Ev
	nop
	ldp	x29, x30, [sp], 32
	.cfi_restore 30
	.cfi_restore 29
	.cfi_def_cfa_offset 0
	ret
	.cfi_endproc
.LFE10416:
	.size	_ZNSt12_Vector_baseISt6vectorIiSaIiEESaIS2_EE12_Vector_implC2Ev, .-_ZNSt12_Vector_baseISt6vectorIiSaIiEESaIS2_EE12_Vector_implC2Ev
	.weak	_ZNSt12_Vector_baseISt6vectorIiSaIiEESaIS2_EE12_Vector_implC1Ev
	.set	_ZNSt12_Vector_baseISt6vectorIiSaIiEESaIS2_EE12_Vector_implC1Ev,_ZNSt12_Vector_baseISt6vectorIiSaIiEESaIS2_EE12_Vector_implC2Ev
	.section	.text._ZNSaISt6vectorIiSaIiEEED2Ev,"axG",@progbits,_ZNSaISt6vectorIiSaIiEEED5Ev,comdat
	.align	2
	.weak	_ZNSaISt6vectorIiSaIiEEED2Ev
	.type	_ZNSaISt6vectorIiSaIiEEED2Ev, %function
_ZNSaISt6vectorIiSaIiEEED2Ev:
.LFB10419:
	.cfi_startproc
	stp	x29, x30, [sp, -32]!
	.cfi_def_cfa_offset 32
	.cfi_offset 29, -32
	.cfi_offset 30, -24
	mov	x29, sp
	str	x0, [sp, 24]
	ldr	x0, [sp, 24]
	bl	_ZN9__gnu_cxx13new_allocatorISt6vectorIiSaIiEEED2Ev
	nop
	ldp	x29, x30, [sp], 32
	.cfi_restore 30
	.cfi_restore 29
	.cfi_def_cfa_offset 0
	ret
	.cfi_endproc
.LFE10419:
	.size	_ZNSaISt6vectorIiSaIiEEED2Ev, .-_ZNSaISt6vectorIiSaIiEEED2Ev
	.weak	_ZNSaISt6vectorIiSaIiEEED1Ev
	.set	_ZNSaISt6vectorIiSaIiEEED1Ev,_ZNSaISt6vectorIiSaIiEEED2Ev
	.section	.text._ZNSt12_Vector_baseISt6vectorIiSaIiEESaIS2_EED2Ev,"axG",@progbits,_ZNSt12_Vector_baseISt6vectorIiSaIiEESaIS2_EED5Ev,comdat
	.align	2
	.weak	_ZNSt12_Vector_baseISt6vectorIiSaIiEESaIS2_EED2Ev
	.type	_ZNSt12_Vector_baseISt6vectorIiSaIiEESaIS2_EED2Ev, %function
_ZNSt12_Vector_baseISt6vectorIiSaIiEESaIS2_EED2Ev:
.LFB10422:
	.cfi_startproc
	.cfi_personality 0x9b,DW.ref.__gxx_personality_v0
	.cfi_lsda 0x1b,.LLSDA10422
	stp	x29, x30, [sp, -32]!
	.cfi_def_cfa_offset 32
	.cfi_offset 29, -32
	.cfi_offset 30, -24
	mov	x29, sp
	str	x0, [sp, 24]
	ldr	x0, [sp, 24]
	ldr	x3, [x0]
	ldr	x0, [sp, 24]
	ldr	x1, [x0, 16]
	ldr	x0, [sp, 24]
	ldr	x0, [x0]
	sub	x0, x1, x0
	asr	x1, x0, 3
	mov	x0, -6148914691236517206
	movk	x0, 0xaaab, lsl 0
	mul	x0, x1, x0
	mov	x2, x0
	mov	x1, x3
	ldr	x0, [sp, 24]
	bl	_ZNSt12_Vector_baseISt6vectorIiSaIiEESaIS2_EE13_M_deallocateEPS2_m
	ldr	x0, [sp, 24]
	bl	_ZNSt12_Vector_baseISt6vectorIiSaIiEESaIS2_EE12_Vector_implD1Ev
	nop
	ldp	x29, x30, [sp], 32
	.cfi_restore 30
	.cfi_restore 29
	.cfi_def_cfa_offset 0
	ret
	.cfi_endproc
.LFE10422:
	.section	.gcc_except_table
.LLSDA10422:
	.byte	0xff
	.byte	0xff
	.byte	0x1
	.uleb128 .LLSDACSE10422-.LLSDACSB10422
.LLSDACSB10422:
.LLSDACSE10422:
	.section	.text._ZNSt12_Vector_baseISt6vectorIiSaIiEESaIS2_EED2Ev,"axG",@progbits,_ZNSt12_Vector_baseISt6vectorIiSaIiEESaIS2_EED5Ev,comdat
	.size	_ZNSt12_Vector_baseISt6vectorIiSaIiEESaIS2_EED2Ev, .-_ZNSt12_Vector_baseISt6vectorIiSaIiEESaIS2_EED2Ev
	.weak	_ZNSt12_Vector_baseISt6vectorIiSaIiEESaIS2_EED1Ev
	.set	_ZNSt12_Vector_baseISt6vectorIiSaIiEESaIS2_EED1Ev,_ZNSt12_Vector_baseISt6vectorIiSaIiEESaIS2_EED2Ev
	.section	.text._ZNSt6vectorIiSaIiEEixEm,"axG",@progbits,_ZNSt6vectorIiSaIiEEixEm,comdat
	.align	2
	.weak	_ZNSt6vectorIiSaIiEEixEm
	.type	_ZNSt6vectorIiSaIiEEixEm, %function
_ZNSt6vectorIiSaIiEEixEm:
.LFB10424:
	.cfi_startproc
	sub	sp, sp, #16
	.cfi_def_cfa_offset 16
	str	x0, [sp, 8]
	str	x1, [sp]
	ldr	x0, [sp, 8]
	ldr	x1, [x0]
	ldr	x0, [sp]
	lsl	x0, x0, 2
	add	x0, x1, x0
	add	sp, sp, 16
	.cfi_def_cfa_offset 0
	ret
	.cfi_endproc
.LFE10424:
	.size	_ZNSt6vectorIiSaIiEEixEm, .-_ZNSt6vectorIiSaIiEEixEm
	.section	.text._ZNSt6vectorIS_IiSaIiEESaIS1_EEixEm,"axG",@progbits,_ZNSt6vectorIS_IiSaIiEESaIS1_EEixEm,comdat
	.align	2
	.weak	_ZNSt6vectorIS_IiSaIiEESaIS1_EEixEm
	.type	_ZNSt6vectorIS_IiSaIiEESaIS1_EEixEm, %function
_ZNSt6vectorIS_IiSaIiEESaIS1_EEixEm:
.LFB10425:
	.cfi_startproc
	sub	sp, sp, #16
	.cfi_def_cfa_offset 16
	str	x0, [sp, 8]
	str	x1, [sp]
	ldr	x0, [sp, 8]
	ldr	x2, [x0]
	ldr	x1, [sp]
	mov	x0, x1
	lsl	x0, x0, 1
	add	x0, x0, x1
	lsl	x0, x0, 3
	add	x0, x2, x0
	add	sp, sp, 16
	.cfi_def_cfa_offset 0
	ret
	.cfi_endproc
.LFE10425:
	.size	_ZNSt6vectorIS_IiSaIiEESaIS1_EEixEm, .-_ZNSt6vectorIS_IiSaIiEESaIS1_EEixEm
	.section	.text._ZSt3minIxERKT_S2_S2_,"axG",@progbits,_ZSt3minIxERKT_S2_S2_,comdat
	.align	2
	.weak	_ZSt3minIxERKT_S2_S2_
	.type	_ZSt3minIxERKT_S2_S2_, %function
_ZSt3minIxERKT_S2_S2_:
.LFB10426:
	.cfi_startproc
	sub	sp, sp, #16
	.cfi_def_cfa_offset 16
	str	x0, [sp, 8]
	str	x1, [sp]
	ldr	x0, [sp]
	ldr	x1, [x0]
	ldr	x0, [sp, 8]
	ldr	x0, [x0]
	cmp	x1, x0
	bge	.L56
	ldr	x0, [sp]
	b	.L57
.L56:
	ldr	x0, [sp, 8]
.L57:
	add	sp, sp, 16
	.cfi_def_cfa_offset 0
	ret
	.cfi_endproc
.LFE10426:
	.size	_ZSt3minIxERKT_S2_S2_, .-_ZSt3minIxERKT_S2_S2_
	.section	.text._ZNSt6vectorIiSaIiEE6resizeEm,"axG",@progbits,_ZNSt6vectorIiSaIiEE6resizeEm,comdat
	.align	2
	.weak	_ZNSt6vectorIiSaIiEE6resizeEm
	.type	_ZNSt6vectorIiSaIiEE6resizeEm, %function
_ZNSt6vectorIiSaIiEE6resizeEm:
.LFB10427:
	.cfi_startproc
	stp	x29, x30, [sp, -32]!
	.cfi_def_cfa_offset 32
	.cfi_offset 29, -32
	.cfi_offset 30, -24
	mov	x29, sp
	str	x0, [sp, 24]
	str	x1, [sp, 16]
	ldr	x0, [sp, 24]
	bl	_ZNKSt6vectorIiSaIiEE4sizeEv
	mov	x1, x0
	ldr	x0, [sp, 16]
	cmp	x0, x1
	cset	w0, hi
	and	w0, w0, 255
	cmp	w0, 0
	beq	.L59
	ldr	x0, [sp, 24]
	bl	_ZNKSt6vectorIiSaIiEE4sizeEv
	mov	x1, x0
	ldr	x0, [sp, 16]
	sub	x0, x0, x1
	mov	x1, x0
	ldr	x0, [sp, 24]
	bl	_ZNSt6vectorIiSaIiEE17_M_default_appendEm
	b	.L61
.L59:
	ldr	x0, [sp, 24]
	bl	_ZNKSt6vectorIiSaIiEE4sizeEv
	mov	x1, x0
	ldr	x0, [sp, 16]
	cmp	x0, x1
	cset	w0, cc
	and	w0, w0, 255
	cmp	w0, 0
	beq	.L61
	ldr	x0, [sp, 24]
	ldr	x1, [x0]
	ldr	x0, [sp, 16]
	lsl	x0, x0, 2
	add	x0, x1, x0
	mov	x1, x0
	ldr	x0, [sp, 24]
	bl	_ZNSt6vectorIiSaIiEE15_M_erase_at_endEPi
.L61:
	nop
	ldp	x29, x30, [sp], 32
	.cfi_restore 30
	.cfi_restore 29
	.cfi_def_cfa_offset 0
	ret
	.cfi_endproc
.LFE10427:
	.size	_ZNSt6vectorIiSaIiEE6resizeEm, .-_ZNSt6vectorIiSaIiEE6resizeEm
	.section	.text._ZNSaIiEC2Ev,"axG",@progbits,_ZNSaIiEC5Ev,comdat
	.align	2
	.weak	_ZNSaIiEC2Ev
	.type	_ZNSaIiEC2Ev, %function
_ZNSaIiEC2Ev:
.LFB10429:
	.cfi_startproc
	stp	x29, x30, [sp, -32]!
	.cfi_def_cfa_offset 32
	.cfi_offset 29, -32
	.cfi_offset 30, -24
	mov	x29, sp
	str	x0, [sp, 24]
	ldr	x0, [sp, 24]
	bl	_ZN9__gnu_cxx13new_allocatorIiEC2Ev
	nop
	ldp	x29, x30, [sp], 32
	.cfi_restore 30
	.cfi_restore 29
	.cfi_def_cfa_offset 0
	ret
	.cfi_endproc
.LFE10429:
	.size	_ZNSaIiEC2Ev, .-_ZNSaIiEC2Ev
	.weak	_ZNSaIiEC1Ev
	.set	_ZNSaIiEC1Ev,_ZNSaIiEC2Ev
	.section	.text._ZNSt6vectorIiSaIiEEC2EmRKS0_,"axG",@progbits,_ZNSt6vectorIiSaIiEEC5EmRKS0_,comdat
	.align	2
	.weak	_ZNSt6vectorIiSaIiEEC2EmRKS0_
	.type	_ZNSt6vectorIiSaIiEEC2EmRKS0_, %function
_ZNSt6vectorIiSaIiEEC2EmRKS0_:
.LFB10432:
	.cfi_startproc
	.cfi_personality 0x9b,DW.ref.__gxx_personality_v0
	.cfi_lsda 0x1b,.LLSDA10432
	stp	x29, x30, [sp, -64]!
	.cfi_def_cfa_offset 64
	.cfi_offset 29, -64
	.cfi_offset 30, -56
	mov	x29, sp
	str	x19, [sp, 16]
	.cfi_offset 19, -48
	str	x0, [sp, 56]
	str	x1, [sp, 48]
	str	x2, [sp, 40]
	ldr	x19, [sp, 56]
	ldr	x1, [sp, 40]
	ldr	x0, [sp, 48]
.LEHB4:
	bl	_ZNSt6vectorIiSaIiEE17_S_check_init_lenEmRKS0_
	ldr	x2, [sp, 40]
	mov	x1, x0
	mov	x0, x19
	bl	_ZNSt12_Vector_baseIiSaIiEEC2EmRKS0_
.LEHE4:
	ldr	x1, [sp, 48]
	ldr	x0, [sp, 56]
.LEHB5:
	bl	_ZNSt6vectorIiSaIiEE21_M_default_initializeEm
.LEHE5:
	b	.L66
.L65:
	mov	x19, x0
	ldr	x0, [sp, 56]
	bl	_ZNSt12_Vector_baseIiSaIiEED2Ev
	mov	x0, x19
.LEHB6:
	bl	_Unwind_Resume
.LEHE6:
.L66:
	ldr	x19, [sp, 16]
	ldp	x29, x30, [sp], 64
	.cfi_restore 30
	.cfi_restore 29
	.cfi_restore 19
	.cfi_def_cfa_offset 0
	ret
	.cfi_endproc
.LFE10432:
	.section	.gcc_except_table
.LLSDA10432:
	.byte	0xff
	.byte	0xff
	.byte	0x1
	.uleb128 .LLSDACSE10432-.LLSDACSB10432
.LLSDACSB10432:
	.uleb128 .LEHB4-.LFB10432
	.uleb128 .LEHE4-.LEHB4
	.uleb128 0
	.uleb128 0
	.uleb128 .LEHB5-.LFB10432
	.uleb128 .LEHE5-.LEHB5
	.uleb128 .L65-.LFB10432
	.uleb128 0
	.uleb128 .LEHB6-.LFB10432
	.uleb128 .LEHE6-.LEHB6
	.uleb128 0
	.uleb128 0
.LLSDACSE10432:
	.section	.text._ZNSt6vectorIiSaIiEEC2EmRKS0_,"axG",@progbits,_ZNSt6vectorIiSaIiEEC5EmRKS0_,comdat
	.size	_ZNSt6vectorIiSaIiEEC2EmRKS0_, .-_ZNSt6vectorIiSaIiEEC2EmRKS0_
	.weak	_ZNSt6vectorIiSaIiEEC1EmRKS0_
	.set	_ZNSt6vectorIiSaIiEEC1EmRKS0_,_ZNSt6vectorIiSaIiEEC2EmRKS0_
	.section	.text._ZNSt6vectorIiSaIiEED2Ev,"axG",@progbits,_ZNSt6vectorIiSaIiEED5Ev,comdat
	.align	2
	.weak	_ZNSt6vectorIiSaIiEED2Ev
	.type	_ZNSt6vectorIiSaIiEED2Ev, %function
_ZNSt6vectorIiSaIiEED2Ev:
.LFB10435:
	.cfi_startproc
	.cfi_personality 0x9b,DW.ref.__gxx_personality_v0
	.cfi_lsda 0x1b,.LLSDA10435
	stp	x29, x30, [sp, -48]!
	.cfi_def_cfa_offset 48
	.cfi_offset 29, -48
	.cfi_offset 30, -40
	mov	x29, sp
	stp	x19, x20, [sp, 16]
	.cfi_offset 19, -32
	.cfi_offset 20, -24
	str	x0, [sp, 40]
	ldr	x0, [sp, 40]
	ldr	x19, [x0]
	ldr	x0, [sp, 40]
	ldr	x20, [x0, 8]
	ldr	x0, [sp, 40]
	bl	_ZNSt12_Vector_baseIiSaIiEE19_M_get_Tp_allocatorEv
	mov	x2, x0
	mov	x1, x20
	mov	x0, x19
	bl	_ZSt8_DestroyIPiiEvT_S1_RSaIT0_E
	ldr	x0, [sp, 40]
	bl	_ZNSt12_Vector_baseIiSaIiEED2Ev
	nop
	ldp	x19, x20, [sp, 16]
	ldp	x29, x30, [sp], 48
	.cfi_restore 30
	.cfi_restore 29
	.cfi_restore 19
	.cfi_restore 20
	.cfi_def_cfa_offset 0
	ret
	.cfi_endproc
.LFE10435:
	.section	.gcc_except_table
.LLSDA10435:
	.byte	0xff
	.byte	0xff
	.byte	0x1
	.uleb128 .LLSDACSE10435-.LLSDACSB10435
.LLSDACSB10435:
.LLSDACSE10435:
	.section	.text._ZNSt6vectorIiSaIiEED2Ev,"axG",@progbits,_ZNSt6vectorIiSaIiEED5Ev,comdat
	.size	_ZNSt6vectorIiSaIiEED2Ev, .-_ZNSt6vectorIiSaIiEED2Ev
	.weak	_ZNSt6vectorIiSaIiEED1Ev
	.set	_ZNSt6vectorIiSaIiEED1Ev,_ZNSt6vectorIiSaIiEED2Ev
	.section	.text._ZNSt6vectorIS_IiSaIiEESaIS1_EE6resizeEmRKS1_,"axG",@progbits,_ZNSt6vectorIS_IiSaIiEESaIS1_EE6resizeEmRKS1_,comdat
	.align	2
	.weak	_ZNSt6vectorIS_IiSaIiEESaIS1_EE6resizeEmRKS1_
	.type	_ZNSt6vectorIS_IiSaIiEESaIS1_EE6resizeEmRKS1_, %function
_ZNSt6vectorIS_IiSaIiEESaIS1_EE6resizeEmRKS1_:
.LFB10437:
	.cfi_startproc
	stp	x29, x30, [sp, -64]!
	.cfi_def_cfa_offset 64
	.cfi_offset 29, -64
	.cfi_offset 30, -56
	mov	x29, sp
	str	x19, [sp, 16]
	.cfi_offset 19, -48
	str	x0, [sp, 56]
	str	x1, [sp, 48]
	str	x2, [sp, 40]
	ldr	x0, [sp, 56]
	bl	_ZNKSt6vectorIS_IiSaIiEESaIS1_EE4sizeEv
	mov	x1, x0
	ldr	x0, [sp, 48]
	cmp	x0, x1
	cset	w0, hi
	and	w0, w0, 255
	cmp	w0, 0
	beq	.L69
	ldr	x0, [sp, 56]
	bl	_ZNSt6vectorIS_IiSaIiEESaIS1_EE3endEv
	mov	x19, x0
	ldr	x0, [sp, 56]
	bl	_ZNKSt6vectorIS_IiSaIiEESaIS1_EE4sizeEv
	mov	x1, x0
	ldr	x0, [sp, 48]
	sub	x0, x0, x1
	ldr	x3, [sp, 40]
	mov	x2, x0
	mov	x1, x19
	ldr	x0, [sp, 56]
	bl	_ZNSt6vectorIS_IiSaIiEESaIS1_EE14_M_fill_insertEN9__gnu_cxx17__normal_iteratorIPS1_S3_EEmRKS1_
	b	.L71
.L69:
	ldr	x0, [sp, 56]
	bl	_ZNKSt6vectorIS_IiSaIiEESaIS1_EE4sizeEv
	mov	x1, x0
	ldr	x0, [sp, 48]
	cmp	x0, x1
	cset	w0, cc
	and	w0, w0, 255
	cmp	w0, 0
	beq	.L71
	ldr	x0, [sp, 56]
	ldr	x2, [x0]
	ldr	x1, [sp, 48]
	mov	x0, x1
	lsl	x0, x0, 1
	add	x0, x0, x1
	lsl	x0, x0, 3
	add	x0, x2, x0
	mov	x1, x0
	ldr	x0, [sp, 56]
	bl	_ZNSt6vectorIS_IiSaIiEESaIS1_EE15_M_erase_at_endEPS1_
.L71:
	nop
	ldr	x19, [sp, 16]
	ldp	x29, x30, [sp], 64
	.cfi_restore 30
	.cfi_restore 29
	.cfi_restore 19
	.cfi_def_cfa_offset 0
	ret
	.cfi_endproc
.LFE10437:
	.size	_ZNSt6vectorIS_IiSaIiEESaIS1_EE6resizeEmRKS1_, .-_ZNSt6vectorIS_IiSaIiEESaIS1_EE6resizeEmRKS1_
	.section	.text._ZNSt12_Vector_baseIiSaIiEE17_Vector_impl_dataC2Ev,"axG",@progbits,_ZNSt12_Vector_baseIiSaIiEE17_Vector_impl_dataC5Ev,comdat
	.align	2
	.weak	_ZNSt12_Vector_baseIiSaIiEE17_Vector_impl_dataC2Ev
	.type	_ZNSt12_Vector_baseIiSaIiEE17_Vector_impl_dataC2Ev, %function
_ZNSt12_Vector_baseIiSaIiEE17_Vector_impl_dataC2Ev:
.LFB10832:
	.cfi_startproc
	sub	sp, sp, #16
	.cfi_def_cfa_offset 16
	str	x0, [sp, 8]
	ldr	x0, [sp, 8]
	str	xzr, [x0]
	ldr	x0, [sp, 8]
	str	xzr, [x0, 8]
	ldr	x0, [sp, 8]
	str	xzr, [x0, 16]
	nop
	add	sp, sp, 16
	.cfi_def_cfa_offset 0
	ret
	.cfi_endproc
.LFE10832:
	.size	_ZNSt12_Vector_baseIiSaIiEE17_Vector_impl_dataC2Ev, .-_ZNSt12_Vector_baseIiSaIiEE17_Vector_impl_dataC2Ev
	.weak	_ZNSt12_Vector_baseIiSaIiEE17_Vector_impl_dataC1Ev
	.set	_ZNSt12_Vector_baseIiSaIiEE17_Vector_impl_dataC1Ev,_ZNSt12_Vector_baseIiSaIiEE17_Vector_impl_dataC2Ev
	.section	.text._ZN9__gnu_cxx13new_allocatorIiED2Ev,"axG",@progbits,_ZN9__gnu_cxx13new_allocatorIiED5Ev,comdat
	.align	2
	.weak	_ZN9__gnu_cxx13new_allocatorIiED2Ev
	.type	_ZN9__gnu_cxx13new_allocatorIiED2Ev, %function
_ZN9__gnu_cxx13new_allocatorIiED2Ev:
.LFB10835:
	.cfi_startproc
	sub	sp, sp, #16
	.cfi_def_cfa_offset 16
	str	x0, [sp, 8]
	nop
	add	sp, sp, 16
	.cfi_def_cfa_offset 0
	ret
	.cfi_endproc
.LFE10835:
	.size	_ZN9__gnu_cxx13new_allocatorIiED2Ev, .-_ZN9__gnu_cxx13new_allocatorIiED2Ev
	.weak	_ZN9__gnu_cxx13new_allocatorIiED1Ev
	.set	_ZN9__gnu_cxx13new_allocatorIiED1Ev,_ZN9__gnu_cxx13new_allocatorIiED2Ev
	.section	.text._ZNSt12_Vector_baseIiSaIiEE13_M_deallocateEPim,"axG",@progbits,_ZNSt12_Vector_baseIiSaIiEE13_M_deallocateEPim,comdat
	.align	2
	.weak	_ZNSt12_Vector_baseIiSaIiEE13_M_deallocateEPim
	.type	_ZNSt12_Vector_baseIiSaIiEE13_M_deallocateEPim, %function
_ZNSt12_Vector_baseIiSaIiEE13_M_deallocateEPim:
.LFB10837:
	.cfi_startproc
	stp	x29, x30, [sp, -48]!
	.cfi_def_cfa_offset 48
	.cfi_offset 29, -48
	.cfi_offset 30, -40
	mov	x29, sp
	str	x0, [sp, 40]
	str	x1, [sp, 32]
	str	x2, [sp, 24]
	ldr	x0, [sp, 32]
	cmp	x0, 0
	beq	.L76
	ldr	x0, [sp, 40]
	ldr	x2, [sp, 24]
	ldr	x1, [sp, 32]
	bl	_ZNSt16allocator_traitsISaIiEE10deallocateERS0_Pim
.L76:
	nop
	ldp	x29, x30, [sp], 48
	.cfi_restore 30
	.cfi_restore 29
	.cfi_def_cfa_offset 0
	ret
	.cfi_endproc
.LFE10837:
	.size	_ZNSt12_Vector_baseIiSaIiEE13_M_deallocateEPim, .-_ZNSt12_Vector_baseIiSaIiEE13_M_deallocateEPim
	.section	.text._ZNSaISt6vectorIiSaIiEEEC2Ev,"axG",@progbits,_ZNSaISt6vectorIiSaIiEEEC5Ev,comdat
	.align	2
	.weak	_ZNSaISt6vectorIiSaIiEEEC2Ev
	.type	_ZNSaISt6vectorIiSaIiEEEC2Ev, %function
_ZNSaISt6vectorIiSaIiEEEC2Ev:
.LFB10839:
	.cfi_startproc
	stp	x29, x30, [sp, -32]!
	.cfi_def_cfa_offset 32
	.cfi_offset 29, -32
	.cfi_offset 30, -24
	mov	x29, sp
	str	x0, [sp, 24]
	ldr	x0, [sp, 24]
	bl	_ZN9__gnu_cxx13new_allocatorISt6vectorIiSaIiEEEC2Ev
	nop
	ldp	x29, x30, [sp], 32
	.cfi_restore 30
	.cfi_restore 29
	.cfi_def_cfa_offset 0
	ret
	.cfi_endproc
.LFE10839:
	.size	_ZNSaISt6vectorIiSaIiEEEC2Ev, .-_ZNSaISt6vectorIiSaIiEEEC2Ev
	.weak	_ZNSaISt6vectorIiSaIiEEEC1Ev
	.set	_ZNSaISt6vectorIiSaIiEEEC1Ev,_ZNSaISt6vectorIiSaIiEEEC2Ev
	.section	.text._ZNSt12_Vector_baseISt6vectorIiSaIiEESaIS2_EE17_Vector_impl_dataC2Ev,"axG",@progbits,_ZNSt12_Vector_baseISt6vectorIiSaIiEESaIS2_EE17_Vector_impl_dataC5Ev,comdat
	.align	2
	.weak	_ZNSt12_Vector_baseISt6vectorIiSaIiEESaIS2_EE17_Vector_impl_dataC2Ev
	.type	_ZNSt12_Vector_baseISt6vectorIiSaIiEESaIS2_EE17_Vector_impl_dataC2Ev, %function
_ZNSt12_Vector_baseISt6vectorIiSaIiEESaIS2_EE17_Vector_impl_dataC2Ev:
.LFB10842:
	.cfi_startproc
	sub	sp, sp, #16
	.cfi_def_cfa_offset 16
	str	x0, [sp, 8]
	ldr	x0, [sp, 8]
	str	xzr, [x0]
	ldr	x0, [sp, 8]
	str	xzr, [x0, 8]
	ldr	x0, [sp, 8]
	str	xzr, [x0, 16]
	nop
	add	sp, sp, 16
	.cfi_def_cfa_offset 0
	ret
	.cfi_endproc
.LFE10842:
	.size	_ZNSt12_Vector_baseISt6vectorIiSaIiEESaIS2_EE17_Vector_impl_dataC2Ev, .-_ZNSt12_Vector_baseISt6vectorIiSaIiEESaIS2_EE17_Vector_impl_dataC2Ev
	.weak	_ZNSt12_Vector_baseISt6vectorIiSaIiEESaIS2_EE17_Vector_impl_dataC1Ev
	.set	_ZNSt12_Vector_baseISt6vectorIiSaIiEESaIS2_EE17_Vector_impl_dataC1Ev,_ZNSt12_Vector_baseISt6vectorIiSaIiEESaIS2_EE17_Vector_impl_dataC2Ev
	.section	.text._ZN9__gnu_cxx13new_allocatorISt6vectorIiSaIiEEED2Ev,"axG",@progbits,_ZN9__gnu_cxx13new_allocatorISt6vectorIiSaIiEEED5Ev,comdat
	.align	2
	.weak	_ZN9__gnu_cxx13new_allocatorISt6vectorIiSaIiEEED2Ev
	.type	_ZN9__gnu_cxx13new_allocatorISt6vectorIiSaIiEEED2Ev, %function
_ZN9__gnu_cxx13new_allocatorISt6vectorIiSaIiEEED2Ev:
.LFB10845:
	.cfi_startproc
	sub	sp, sp, #16
	.cfi_def_cfa_offset 16
	str	x0, [sp, 8]
	nop
	add	sp, sp, 16
	.cfi_def_cfa_offset 0
	ret
	.cfi_endproc
.LFE10845:
	.size	_ZN9__gnu_cxx13new_allocatorISt6vectorIiSaIiEEED2Ev, .-_ZN9__gnu_cxx13new_allocatorISt6vectorIiSaIiEEED2Ev
	.weak	_ZN9__gnu_cxx13new_allocatorISt6vectorIiSaIiEEED1Ev
	.set	_ZN9__gnu_cxx13new_allocatorISt6vectorIiSaIiEEED1Ev,_ZN9__gnu_cxx13new_allocatorISt6vectorIiSaIiEEED2Ev
	.section	.text._ZNSt12_Vector_baseISt6vectorIiSaIiEESaIS2_EE13_M_deallocateEPS2_m,"axG",@progbits,_ZNSt12_Vector_baseISt6vectorIiSaIiEESaIS2_EE13_M_deallocateEPS2_m,comdat
	.align	2
	.weak	_ZNSt12_Vector_baseISt6vectorIiSaIiEESaIS2_EE13_M_deallocateEPS2_m
	.type	_ZNSt12_Vector_baseISt6vectorIiSaIiEESaIS2_EE13_M_deallocateEPS2_m, %function
_ZNSt12_Vector_baseISt6vectorIiSaIiEESaIS2_EE13_M_deallocateEPS2_m:
.LFB10847:
	.cfi_startproc
	stp	x29, x30, [sp, -48]!
	.cfi_def_cfa_offset 48
	.cfi_offset 29, -48
	.cfi_offset 30, -40
	mov	x29, sp
	str	x0, [sp, 40]
	str	x1, [sp, 32]
	str	x2, [sp, 24]
	ldr	x0, [sp, 32]
	cmp	x0, 0
	beq	.L82
	ldr	x0, [sp, 40]
	ldr	x2, [sp, 24]
	ldr	x1, [sp, 32]
	bl	_ZNSt16allocator_traitsISaISt6vectorIiSaIiEEEE10deallocateERS3_PS2_m
.L82:
	nop
	ldp	x29, x30, [sp], 48
	.cfi_restore 30
	.cfi_restore 29
	.cfi_def_cfa_offset 0
	ret
	.cfi_endproc
.LFE10847:
	.size	_ZNSt12_Vector_baseISt6vectorIiSaIiEESaIS2_EE13_M_deallocateEPS2_m, .-_ZNSt12_Vector_baseISt6vectorIiSaIiEESaIS2_EE13_M_deallocateEPS2_m
	.section	.text._ZNKSt6vectorIiSaIiEE4sizeEv,"axG",@progbits,_ZNKSt6vectorIiSaIiEE4sizeEv,comdat
	.align	2
	.weak	_ZNKSt6vectorIiSaIiEE4sizeEv
	.type	_ZNKSt6vectorIiSaIiEE4sizeEv, %function
_ZNKSt6vectorIiSaIiEE4sizeEv:
.LFB10848:
	.cfi_startproc
	sub	sp, sp, #16
	.cfi_def_cfa_offset 16
	str	x0, [sp, 8]
	ldr	x0, [sp, 8]
	ldr	x1, [x0, 8]
	ldr	x0, [sp, 8]
	ldr	x0, [x0]
	sub	x0, x1, x0
	asr	x0, x0, 2
	add	sp, sp, 16
	.cfi_def_cfa_offset 0
	ret
	.cfi_endproc
.LFE10848:
	.size	_ZNKSt6vectorIiSaIiEE4sizeEv, .-_ZNKSt6vectorIiSaIiEE4sizeEv
	.section	.rodata
	.align	3
.LC5:
	.string	"vector::_M_default_append"
	.section	.text._ZNSt6vectorIiSaIiEE17_M_default_appendEm,"axG",@progbits,_ZNSt6vectorIiSaIiEE17_M_default_appendEm,comdat
	.align	2
	.weak	_ZNSt6vectorIiSaIiEE17_M_default_appendEm
	.type	_ZNSt6vectorIiSaIiEE17_M_default_appendEm, %function
_ZNSt6vectorIiSaIiEE17_M_default_appendEm:
.LFB10849:
	.cfi_startproc
	.cfi_personality 0x9b,DW.ref.__gxx_personality_v0
	.cfi_lsda 0x1b,.LLSDA10849
	stp	x29, x30, [sp, -80]!
	.cfi_def_cfa_offset 80
	.cfi_offset 29, -80
	.cfi_offset 30, -72
	mov	x29, sp
	stp	x19, x20, [sp, 16]
	.cfi_offset 19, -64
	.cfi_offset 20, -56
	str	x0, [sp, 40]
	str	x1, [sp, 32]
	ldr	x0, [sp, 32]
	cmp	x0, 0
	beq	.L96
	ldr	x0, [sp, 40]
	bl	_ZNKSt6vectorIiSaIiEE4sizeEv
	str	x0, [sp, 72]
	ldr	x0, [sp, 40]
	ldr	x1, [x0, 16]
	ldr	x0, [sp, 40]
	ldr	x0, [x0, 8]
	sub	x0, x1, x0
	asr	x0, x0, 2
	str	x0, [sp, 64]
	ldr	x0, [sp, 40]
	bl	_ZNKSt6vectorIiSaIiEE8max_sizeEv
	mov	x1, x0
	ldr	x0, [sp, 72]
	cmp	x0, x1
	bhi	.L87
	ldr	x0, [sp, 40]
	bl	_ZNKSt6vectorIiSaIiEE8max_sizeEv
	mov	x1, x0
	ldr	x0, [sp, 72]
	sub	x0, x1, x0
	ldr	x1, [sp, 64]
	cmp	x1, x0
	bls	.L88
.L87:
	mov	w0, 1
	b	.L89
.L88:
	mov	w0, 0
.L89:
	cmp	w0, 0
	ldr	x1, [sp, 64]
	ldr	x0, [sp, 32]
	cmp	x1, x0
	bcc	.L91
	ldr	x0, [sp, 40]
	ldr	x19, [x0, 8]
	ldr	x0, [sp, 40]
	bl	_ZNSt12_Vector_baseIiSaIiEE19_M_get_Tp_allocatorEv
	mov	x2, x0
	ldr	x1, [sp, 32]
	mov	x0, x19
.LEHB7:
	bl	_ZSt27__uninitialized_default_n_aIPimiET_S1_T0_RSaIT1_E
	mov	x1, x0
	ldr	x0, [sp, 40]
	str	x1, [x0, 8]
	b	.L96
.L91:
	adrp	x0, .LC5
	add	x2, x0, :lo12:.LC5
	ldr	x1, [sp, 32]
	ldr	x0, [sp, 40]
	bl	_ZNKSt6vectorIiSaIiEE12_M_check_lenEmPKc
	str	x0, [sp, 56]
	ldr	x0, [sp, 40]
	ldr	x1, [sp, 56]
	bl	_ZNSt12_Vector_baseIiSaIiEE11_M_allocateEm
.LEHE7:
	str	x0, [sp, 48]
	ldr	x0, [sp, 72]
	lsl	x0, x0, 2
	ldr	x1, [sp, 48]
	add	x19, x1, x0
	ldr	x0, [sp, 40]
	bl	_ZNSt12_Vector_baseIiSaIiEE19_M_get_Tp_allocatorEv
	mov	x2, x0
	ldr	x1, [sp, 32]
	mov	x0, x19
.LEHB8:
	bl	_ZSt27__uninitialized_default_n_aIPimiET_S1_T0_RSaIT1_E
.LEHE8:
	ldr	x0, [sp, 40]
	ldr	x19, [x0]
	ldr	x0, [sp, 40]
	ldr	x20, [x0, 8]
	ldr	x0, [sp, 40]
	bl	_ZNSt12_Vector_baseIiSaIiEE19_M_get_Tp_allocatorEv
	mov	x3, x0
	ldr	x2, [sp, 48]
	mov	x1, x20
	mov	x0, x19
	bl	_ZNSt6vectorIiSaIiEE11_S_relocateEPiS2_S2_RS0_
	ldr	x3, [sp, 40]
	ldr	x0, [sp, 40]
	ldr	x4, [x0]
	ldr	x0, [sp, 40]
	ldr	x1, [x0, 16]
	ldr	x0, [sp, 40]
	ldr	x0, [x0]
	sub	x0, x1, x0
	asr	x0, x0, 2
	mov	x2, x0
	mov	x1, x4
	mov	x0, x3
.LEHB9:
	bl	_ZNSt12_Vector_baseIiSaIiEE13_M_deallocateEPim
.LEHE9:
	ldr	x0, [sp, 40]
	ldr	x1, [sp, 48]
	str	x1, [x0]
	ldr	x1, [sp, 72]
	ldr	x0, [sp, 32]
	add	x0, x1, x0
	lsl	x0, x0, 2
	ldr	x1, [sp, 48]
	add	x1, x1, x0
	ldr	x0, [sp, 40]
	str	x1, [x0, 8]
	ldr	x0, [sp, 56]
	lsl	x0, x0, 2
	ldr	x1, [sp, 48]
	add	x1, x1, x0
	ldr	x0, [sp, 40]
	str	x1, [x0, 16]
	b	.L96
.L94:
	bl	__cxa_begin_catch
	ldr	x0, [sp, 40]
	ldr	x2, [sp, 56]
	ldr	x1, [sp, 48]
.LEHB10:
	bl	_ZNSt12_Vector_baseIiSaIiEE13_M_deallocateEPim
	bl	__cxa_rethrow
.LEHE10:
.L95:
	mov	x19, x0
	bl	__cxa_end_catch
	mov	x0, x19
.LEHB11:
	bl	_Unwind_Resume
.LEHE11:
.L96:
	nop
	ldp	x19, x20, [sp, 16]
	ldp	x29, x30, [sp], 80
	.cfi_restore 30
	.cfi_restore 29
	.cfi_restore 19
	.cfi_restore 20
	.cfi_def_cfa_offset 0
	ret
	.cfi_endproc
.LFE10849:
	.section	.gcc_except_table
	.align	2
.LLSDA10849:
	.byte	0xff
	.byte	0x9b
	.uleb128 .LLSDATT10849-.LLSDATTD10849
.LLSDATTD10849:
	.byte	0x1
	.uleb128 .LLSDACSE10849-.LLSDACSB10849
.LLSDACSB10849:
	.uleb128 .LEHB7-.LFB10849
	.uleb128 .LEHE7-.LEHB7
	.uleb128 0
	.uleb128 0
	.uleb128 .LEHB8-.LFB10849
	.uleb128 .LEHE8-.LEHB8
	.uleb128 .L94-.LFB10849
	.uleb128 0x1
	.uleb128 .LEHB9-.LFB10849
	.uleb128 .LEHE9-.LEHB9
	.uleb128 0
	.uleb128 0
	.uleb128 .LEHB10-.LFB10849
	.uleb128 .LEHE10-.LEHB10
	.uleb128 .L95-.LFB10849
	.uleb128 0
	.uleb128 .LEHB11-.LFB10849
	.uleb128 .LEHE11-.LEHB11
	.uleb128 0
	.uleb128 0
.LLSDACSE10849:
	.byte	0x1
	.byte	0
	.align	2
	.4byte	0

.LLSDATT10849:
	.section	.text._ZNSt6vectorIiSaIiEE17_M_default_appendEm,"axG",@progbits,_ZNSt6vectorIiSaIiEE17_M_default_appendEm,comdat
	.size	_ZNSt6vectorIiSaIiEE17_M_default_appendEm, .-_ZNSt6vectorIiSaIiEE17_M_default_appendEm
	.section	.text._ZNSt6vectorIiSaIiEE15_M_erase_at_endEPi,"axG",@progbits,_ZNSt6vectorIiSaIiEE15_M_erase_at_endEPi,comdat
	.align	2
	.weak	_ZNSt6vectorIiSaIiEE15_M_erase_at_endEPi
	.type	_ZNSt6vectorIiSaIiEE15_M_erase_at_endEPi, %function
_ZNSt6vectorIiSaIiEE15_M_erase_at_endEPi:
.LFB10854:
	.cfi_startproc
	.cfi_personality 0x9b,DW.ref.__gxx_personality_v0
	.cfi_lsda 0x1b,.LLSDA10854
	stp	x29, x30, [sp, -64]!
	.cfi_def_cfa_offset 64
	.cfi_offset 29, -64
	.cfi_offset 30, -56
	mov	x29, sp
	str	x19, [sp, 16]
	.cfi_offset 19, -48
	str	x0, [sp, 40]
	str	x1, [sp, 32]
	ldr	x0, [sp, 40]
	ldr	x1, [x0, 8]
	ldr	x0, [sp, 32]
	sub	x0, x1, x0
	asr	x0, x0, 2
	str	x0, [sp, 56]
	ldr	x0, [sp, 56]
	cmp	x0, 0
	beq	.L99
	ldr	x0, [sp, 40]
	ldr	x19, [x0, 8]
	ldr	x0, [sp, 40]
	bl	_ZNSt12_Vector_baseIiSaIiEE19_M_get_Tp_allocatorEv
	mov	x2, x0
	mov	x1, x19
	ldr	x0, [sp, 32]
	bl	_ZSt8_DestroyIPiiEvT_S1_RSaIT0_E
	ldr	x0, [sp, 40]
	ldr	x1, [sp, 32]
	str	x1, [x0, 8]
.L99:
	nop
	ldr	x19, [sp, 16]
	ldp	x29, x30, [sp], 64
	.cfi_restore 30
	.cfi_restore 29
	.cfi_restore 19
	.cfi_def_cfa_offset 0
	ret
	.cfi_endproc
.LFE10854:
	.section	.gcc_except_table
.LLSDA10854:
	.byte	0xff
	.byte	0xff
	.byte	0x1
	.uleb128 .LLSDACSE10854-.LLSDACSB10854
.LLSDACSB10854:
.LLSDACSE10854:
	.section	.text._ZNSt6vectorIiSaIiEE15_M_erase_at_endEPi,"axG",@progbits,_ZNSt6vectorIiSaIiEE15_M_erase_at_endEPi,comdat
	.size	_ZNSt6vectorIiSaIiEE15_M_erase_at_endEPi, .-_ZNSt6vectorIiSaIiEE15_M_erase_at_endEPi
	.section	.text._ZN9__gnu_cxx13new_allocatorIiEC2Ev,"axG",@progbits,_ZN9__gnu_cxx13new_allocatorIiEC5Ev,comdat
	.align	2
	.weak	_ZN9__gnu_cxx13new_allocatorIiEC2Ev
	.type	_ZN9__gnu_cxx13new_allocatorIiEC2Ev, %function
_ZN9__gnu_cxx13new_allocatorIiEC2Ev:
.LFB10856:
	.cfi_startproc
	sub	sp, sp, #16
	.cfi_def_cfa_offset 16
	str	x0, [sp, 8]
	nop
	add	sp, sp, 16
	.cfi_def_cfa_offset 0
	ret
	.cfi_endproc
.LFE10856:
	.size	_ZN9__gnu_cxx13new_allocatorIiEC2Ev, .-_ZN9__gnu_cxx13new_allocatorIiEC2Ev
	.weak	_ZN9__gnu_cxx13new_allocatorIiEC1Ev
	.set	_ZN9__gnu_cxx13new_allocatorIiEC1Ev,_ZN9__gnu_cxx13new_allocatorIiEC2Ev
	.section	.rodata
	.align	3
.LC6:
	.string	"cannot create std::vector larger than max_size()"
	.section	.text._ZNSt6vectorIiSaIiEE17_S_check_init_lenEmRKS0_,"axG",@progbits,_ZNSt6vectorIiSaIiEE17_S_check_init_lenEmRKS0_,comdat
	.align	2
	.weak	_ZNSt6vectorIiSaIiEE17_S_check_init_lenEmRKS0_
	.type	_ZNSt6vectorIiSaIiEE17_S_check_init_lenEmRKS0_, %function
_ZNSt6vectorIiSaIiEE17_S_check_init_lenEmRKS0_:
.LFB10858:
	.cfi_startproc
	stp	x29, x30, [sp, -64]!
	.cfi_def_cfa_offset 64
	.cfi_offset 29, -64
	.cfi_offset 30, -56
	mov	x29, sp
	str	x19, [sp, 16]
	.cfi_offset 19, -48
	str	x0, [sp, 40]
	str	x1, [sp, 32]
	add	x0, sp, 56
	ldr	x1, [sp, 32]
	bl	_ZNSaIiEC1ERKS_
	add	x0, sp, 56
	bl	_ZNSt6vectorIiSaIiEE11_S_max_sizeERKS0_
	mov	x1, x0
	ldr	x0, [sp, 40]
	cmp	x0, x1
	cset	w0, hi
	and	w19, w0, 255
	add	x0, sp, 56
	bl	_ZNSaIiED1Ev
	cmp	w19, 0
	beq	.L102
	adrp	x0, .LC6
	add	x0, x0, :lo12:.LC6
	bl	_ZSt20__throw_length_errorPKc
.L102:
	ldr	x0, [sp, 40]
	ldr	x19, [sp, 16]
	ldp	x29, x30, [sp], 64
	.cfi_restore 30
	.cfi_restore 29
	.cfi_restore 19
	.cfi_def_cfa_offset 0
	ret
	.cfi_endproc
.LFE10858:
	.size	_ZNSt6vectorIiSaIiEE17_S_check_init_lenEmRKS0_, .-_ZNSt6vectorIiSaIiEE17_S_check_init_lenEmRKS0_
	.section	.text._ZNSt12_Vector_baseIiSaIiEEC2EmRKS0_,"axG",@progbits,_ZNSt12_Vector_baseIiSaIiEEC5EmRKS0_,comdat
	.align	2
	.weak	_ZNSt12_Vector_baseIiSaIiEEC2EmRKS0_
	.type	_ZNSt12_Vector_baseIiSaIiEEC2EmRKS0_, %function
_ZNSt12_Vector_baseIiSaIiEEC2EmRKS0_:
.LFB10860:
	.cfi_startproc
	.cfi_personality 0x9b,DW.ref.__gxx_personality_v0
	.cfi_lsda 0x1b,.LLSDA10860
	stp	x29, x30, [sp, -64]!
	.cfi_def_cfa_offset 64
	.cfi_offset 29, -64
	.cfi_offset 30, -56
	mov	x29, sp
	str	x19, [sp, 16]
	.cfi_offset 19, -48
	str	x0, [sp, 56]
	str	x1, [sp, 48]
	str	x2, [sp, 40]
	ldr	x0, [sp, 56]
	ldr	x1, [sp, 40]
	bl	_ZNSt12_Vector_baseIiSaIiEE12_Vector_implC1ERKS0_
	ldr	x1, [sp, 48]
	ldr	x0, [sp, 56]
.LEHB12:
	bl	_ZNSt12_Vector_baseIiSaIiEE17_M_create_storageEm
.LEHE12:
	b	.L107
.L106:
	mov	x19, x0
	ldr	x0, [sp, 56]
	bl	_ZNSt12_Vector_baseIiSaIiEE12_Vector_implD1Ev
	mov	x0, x19
.LEHB13:
	bl	_Unwind_Resume
.LEHE13:
.L107:
	ldr	x19, [sp, 16]
	ldp	x29, x30, [sp], 64
	.cfi_restore 30
	.cfi_restore 29
	.cfi_restore 19
	.cfi_def_cfa_offset 0
	ret
	.cfi_endproc
.LFE10860:
	.section	.gcc_except_table
.LLSDA10860:
	.byte	0xff
	.byte	0xff
	.byte	0x1
	.uleb128 .LLSDACSE10860-.LLSDACSB10860
.LLSDACSB10860:
	.uleb128 .LEHB12-.LFB10860
	.uleb128 .LEHE12-.LEHB12
	.uleb128 .L106-.LFB10860
	.uleb128 0
	.uleb128 .LEHB13-.LFB10860
	.uleb128 .LEHE13-.LEHB13
	.uleb128 0
	.uleb128 0
.LLSDACSE10860:
	.section	.text._ZNSt12_Vector_baseIiSaIiEEC2EmRKS0_,"axG",@progbits,_ZNSt12_Vector_baseIiSaIiEEC5EmRKS0_,comdat
	.size	_ZNSt12_Vector_baseIiSaIiEEC2EmRKS0_, .-_ZNSt12_Vector_baseIiSaIiEEC2EmRKS0_
	.weak	_ZNSt12_Vector_baseIiSaIiEEC1EmRKS0_
	.set	_ZNSt12_Vector_baseIiSaIiEEC1EmRKS0_,_ZNSt12_Vector_baseIiSaIiEEC2EmRKS0_
	.section	.text._ZNSt6vectorIiSaIiEE21_M_default_initializeEm,"axG",@progbits,_ZNSt6vectorIiSaIiEE21_M_default_initializeEm,comdat
	.align	2
	.weak	_ZNSt6vectorIiSaIiEE21_M_default_initializeEm
	.type	_ZNSt6vectorIiSaIiEE21_M_default_initializeEm, %function
_ZNSt6vectorIiSaIiEE21_M_default_initializeEm:
.LFB10862:
	.cfi_startproc
	stp	x29, x30, [sp, -48]!
	.cfi_def_cfa_offset 48
	.cfi_offset 29, -48
	.cfi_offset 30, -40
	mov	x29, sp
	str	x19, [sp, 16]
	.cfi_offset 19, -32
	str	x0, [sp, 40]
	str	x1, [sp, 32]
	ldr	x0, [sp, 40]
	ldr	x19, [x0]
	ldr	x0, [sp, 40]
	bl	_ZNSt12_Vector_baseIiSaIiEE19_M_get_Tp_allocatorEv
	mov	x2, x0
	ldr	x1, [sp, 32]
	mov	x0, x19
	bl	_ZSt27__uninitialized_default_n_aIPimiET_S1_T0_RSaIT1_E
	mov	x1, x0
	ldr	x0, [sp, 40]
	str	x1, [x0, 8]
	nop
	ldr	x19, [sp, 16]
	ldp	x29, x30, [sp], 48
	.cfi_restore 30
	.cfi_restore 29
	.cfi_restore 19
	.cfi_def_cfa_offset 0
	ret
	.cfi_endproc
.LFE10862:
	.size	_ZNSt6vectorIiSaIiEE21_M_default_initializeEm, .-_ZNSt6vectorIiSaIiEE21_M_default_initializeEm
	.section	.text._ZNSt12_Vector_baseIiSaIiEE19_M_get_Tp_allocatorEv,"axG",@progbits,_ZNSt12_Vector_baseIiSaIiEE19_M_get_Tp_allocatorEv,comdat
	.align	2
	.weak	_ZNSt12_Vector_baseIiSaIiEE19_M_get_Tp_allocatorEv
	.type	_ZNSt12_Vector_baseIiSaIiEE19_M_get_Tp_allocatorEv, %function
_ZNSt12_Vector_baseIiSaIiEE19_M_get_Tp_allocatorEv:
.LFB10863:
	.cfi_startproc
	sub	sp, sp, #16
	.cfi_def_cfa_offset 16
	str	x0, [sp, 8]
	ldr	x0, [sp, 8]
	add	sp, sp, 16
	.cfi_def_cfa_offset 0
	ret
	.cfi_endproc
.LFE10863:
	.size	_ZNSt12_Vector_baseIiSaIiEE19_M_get_Tp_allocatorEv, .-_ZNSt12_Vector_baseIiSaIiEE19_M_get_Tp_allocatorEv
	.section	.text._ZSt8_DestroyIPiiEvT_S1_RSaIT0_E,"axG",@progbits,_ZSt8_DestroyIPiiEvT_S1_RSaIT0_E,comdat
	.align	2
	.weak	_ZSt8_DestroyIPiiEvT_S1_RSaIT0_E
	.type	_ZSt8_DestroyIPiiEvT_S1_RSaIT0_E, %function
_ZSt8_DestroyIPiiEvT_S1_RSaIT0_E:
.LFB10864:
	.cfi_startproc
	stp	x29, x30, [sp, -48]!
	.cfi_def_cfa_offset 48
	.cfi_offset 29, -48
	.cfi_offset 30, -40
	mov	x29, sp
	str	x0, [sp, 40]
	str	x1, [sp, 32]
	str	x2, [sp, 24]
	ldr	x1, [sp, 32]
	ldr	x0, [sp, 40]
	bl	_ZSt8_DestroyIPiEvT_S1_
	nop
	ldp	x29, x30, [sp], 48
	.cfi_restore 30
	.cfi_restore 29
	.cfi_def_cfa_offset 0
	ret
	.cfi_endproc
.LFE10864:
	.size	_ZSt8_DestroyIPiiEvT_S1_RSaIT0_E, .-_ZSt8_DestroyIPiiEvT_S1_RSaIT0_E
	.section	.text._ZNKSt6vectorIS_IiSaIiEESaIS1_EE4sizeEv,"axG",@progbits,_ZNKSt6vectorIS_IiSaIiEESaIS1_EE4sizeEv,comdat
	.align	2
	.weak	_ZNKSt6vectorIS_IiSaIiEESaIS1_EE4sizeEv
	.type	_ZNKSt6vectorIS_IiSaIiEESaIS1_EE4sizeEv, %function
_ZNKSt6vectorIS_IiSaIiEESaIS1_EE4sizeEv:
.LFB10865:
	.cfi_startproc
	sub	sp, sp, #16
	.cfi_def_cfa_offset 16
	str	x0, [sp, 8]
	ldr	x0, [sp, 8]
	ldr	x1, [x0, 8]
	ldr	x0, [sp, 8]
	ldr	x0, [x0]
	sub	x0, x1, x0
	asr	x1, x0, 3
	mov	x0, -6148914691236517206
	movk	x0, 0xaaab, lsl 0
	mul	x0, x1, x0
	add	sp, sp, 16
	.cfi_def_cfa_offset 0
	ret
	.cfi_endproc
.LFE10865:
	.size	_ZNKSt6vectorIS_IiSaIiEESaIS1_EE4sizeEv, .-_ZNKSt6vectorIS_IiSaIiEESaIS1_EE4sizeEv
	.section	.rodata
	.align	3
.LC7:
	.string	"vector::_M_fill_insert"
	.section	.text._ZNSt6vectorIS_IiSaIiEESaIS1_EE14_M_fill_insertEN9__gnu_cxx17__normal_iteratorIPS1_S3_EEmRKS1_,"axG",@progbits,_ZNSt6vectorIS_IiSaIiEESaIS1_EE14_M_fill_insertEN9__gnu_cxx17__normal_iteratorIPS1_S3_EEmRKS1_,comdat
	.align	2
	.weak	_ZNSt6vectorIS_IiSaIiEESaIS1_EE14_M_fill_insertEN9__gnu_cxx17__normal_iteratorIPS1_S3_EEmRKS1_
	.type	_ZNSt6vectorIS_IiSaIiEESaIS1_EE14_M_fill_insertEN9__gnu_cxx17__normal_iteratorIPS1_S3_EEmRKS1_, %function
_ZNSt6vectorIS_IiSaIiEESaIS1_EE14_M_fill_insertEN9__gnu_cxx17__normal_iteratorIPS1_S3_EEmRKS1_:
.LFB10866:
	.cfi_startproc
	.cfi_personality 0x9b,DW.ref.__gxx_personality_v0
	.cfi_lsda 0x1b,.LLSDA10866
	stp	x29, x30, [sp, -192]!
	.cfi_def_cfa_offset 192
	.cfi_offset 29, -192
	.cfi_offset 30, -184
	mov	x29, sp
	stp	x19, x20, [sp, 16]
	str	x21, [sp, 32]
	.cfi_offset 19, -176
	.cfi_offset 20, -168
	.cfi_offset 21, -160
	str	x0, [sp, 72]
	str	x1, [sp, 64]
	str	x2, [sp, 56]
	str	x3, [sp, 48]
	ldr	x0, [sp, 56]
	cmp	x0, 0
	beq	.L127
	ldr	x0, [sp, 72]
	ldr	x1, [x0, 16]
	ldr	x0, [sp, 72]
	ldr	x0, [x0, 8]
	sub	x0, x1, x0
	asr	x1, x0, 3
	mov	x0, -6148914691236517206
	movk	x0, 0xaaab, lsl 0
	mul	x0, x1, x0
	mov	x1, x0
	ldr	x0, [sp, 56]
	cmp	x0, x1
	bhi	.L116
	add	x0, sp, 88
	ldr	x2, [sp, 48]
	ldr	x1, [sp, 72]
.LEHB14:
	bl	_ZNSt6vectorIS_IiSaIiEESaIS1_EE16_Temporary_valueC1IJRKS1_EEEPS3_DpOT_
.LEHE14:
	add	x0, sp, 88
.LEHB15:
	bl	_ZNSt6vectorIS_IiSaIiEESaIS1_EE16_Temporary_value6_M_valEv
	str	x0, [sp, 152]
	ldr	x0, [sp, 72]
	bl	_ZNSt6vectorIS_IiSaIiEESaIS1_EE3endEv
	str	x0, [sp, 120]
	add	x1, sp, 64
	add	x0, sp, 120
	bl	_ZN9__gnu_cxxmiIPSt6vectorIiSaIiEES1_IS3_SaIS3_EEEENS_17__normal_iteratorIT_T0_E15difference_typeERKSA_SD_
	str	x0, [sp, 144]
	ldr	x0, [sp, 72]
	ldr	x0, [x0, 8]
	str	x0, [sp, 136]
	ldr	x1, [sp, 144]
	ldr	x0, [sp, 56]
	cmp	x1, x0
	bls	.L117
	ldr	x0, [sp, 72]
	ldr	x2, [x0, 8]
	ldr	x1, [sp, 56]
	mov	x0, x1
	lsl	x0, x0, 1
	add	x0, x0, x1
	lsl	x0, x0, 3
	neg	x0, x0
	add	x19, x2, x0
	ldr	x0, [sp, 72]
	ldr	x20, [x0, 8]
	ldr	x0, [sp, 72]
	ldr	x21, [x0, 8]
	ldr	x0, [sp, 72]
	bl	_ZNSt12_Vector_baseISt6vectorIiSaIiEESaIS2_EE19_M_get_Tp_allocatorEv
	mov	x3, x0
	mov	x2, x21
	mov	x1, x20
	mov	x0, x19
	bl	_ZSt22__uninitialized_move_aIPSt6vectorIiSaIiEES3_SaIS2_EET0_T_S6_S5_RT1_
	ldr	x0, [sp, 72]
	ldr	x2, [x0, 8]
	ldr	x1, [sp, 56]
	mov	x0, x1
	lsl	x0, x0, 1
	add	x0, x0, x1
	lsl	x0, x0, 3
	add	x1, x2, x0
	ldr	x0, [sp, 72]
	str	x1, [x0, 8]
	add	x0, sp, 64
	bl	_ZNK9__gnu_cxx17__normal_iteratorIPSt6vectorIiSaIiEES1_IS3_SaIS3_EEE4baseEv
	ldr	x3, [x0]
	ldr	x1, [sp, 56]
	mov	x0, x1
	lsl	x0, x0, 1
	add	x0, x0, x1
	lsl	x0, x0, 3
	neg	x0, x0
	ldr	x1, [sp, 136]
	add	x0, x1, x0
	ldr	x2, [sp, 136]
	mov	x1, x0
	mov	x0, x3
	bl	_ZSt13move_backwardIPSt6vectorIiSaIiEES3_ET0_T_S5_S4_
	add	x0, sp, 64
	bl	_ZNK9__gnu_cxx17__normal_iteratorIPSt6vectorIiSaIiEES1_IS3_SaIS3_EEE4baseEv
	ldr	x19, [x0]
	add	x0, sp, 64
	bl	_ZNK9__gnu_cxx17__normal_iteratorIPSt6vectorIiSaIiEES1_IS3_SaIS3_EEE4baseEv
	ldr	x2, [x0]
	ldr	x1, [sp, 56]
	mov	x0, x1
	lsl	x0, x0, 1
	add	x0, x0, x1
	lsl	x0, x0, 3
	add	x0, x2, x0
	ldr	x2, [sp, 152]
	mov	x1, x0
	mov	x0, x19
	bl	_ZSt4fillIPSt6vectorIiSaIiEES2_EvT_S4_RKT0_
	b	.L118
.L117:
	ldr	x0, [sp, 72]
	ldr	x19, [x0, 8]
	ldr	x1, [sp, 56]
	ldr	x0, [sp, 144]
	sub	x20, x1, x0
	ldr	x0, [sp, 72]
	bl	_ZNSt12_Vector_baseISt6vectorIiSaIiEESaIS2_EE19_M_get_Tp_allocatorEv
	mov	x3, x0
	ldr	x2, [sp, 152]
	mov	x1, x20
	mov	x0, x19
	bl	_ZSt24__uninitialized_fill_n_aIPSt6vectorIiSaIiEEmS2_S2_ET_S4_T0_RKT1_RSaIT2_E
	mov	x1, x0
	ldr	x0, [sp, 72]
	str	x1, [x0, 8]
	add	x0, sp, 64
	bl	_ZNK9__gnu_cxx17__normal_iteratorIPSt6vectorIiSaIiEES1_IS3_SaIS3_EEE4baseEv
	ldr	x19, [x0]
	ldr	x0, [sp, 72]
	ldr	x20, [x0, 8]
	ldr	x0, [sp, 72]
	bl	_ZNSt12_Vector_baseISt6vectorIiSaIiEESaIS2_EE19_M_get_Tp_allocatorEv
	mov	x3, x0
	mov	x2, x20
	ldr	x1, [sp, 136]
	mov	x0, x19
	bl	_ZSt22__uninitialized_move_aIPSt6vectorIiSaIiEES3_SaIS2_EET0_T_S6_S5_RT1_
	ldr	x0, [sp, 72]
	ldr	x2, [x0, 8]
	ldr	x1, [sp, 144]
	mov	x0, x1
	lsl	x0, x0, 1
	add	x0, x0, x1
	lsl	x0, x0, 3
	add	x1, x2, x0
	ldr	x0, [sp, 72]
	str	x1, [x0, 8]
	add	x0, sp, 64
	bl	_ZNK9__gnu_cxx17__normal_iteratorIPSt6vectorIiSaIiEES1_IS3_SaIS3_EEE4baseEv
	ldr	x0, [x0]
	ldr	x2, [sp, 152]
	ldr	x1, [sp, 136]
	bl	_ZSt4fillIPSt6vectorIiSaIiEES2_EvT_S4_RKT0_
.LEHE15:
.L118:
	add	x0, sp, 88
	bl	_ZNSt6vectorIS_IiSaIiEESaIS1_EE16_Temporary_valueD1Ev
	b	.L127
.L116:
	adrp	x0, .LC7
	add	x2, x0, :lo12:.LC7
	ldr	x1, [sp, 56]
	ldr	x0, [sp, 72]
.LEHB16:
	bl	_ZNKSt6vectorIS_IiSaIiEESaIS1_EE12_M_check_lenEmPKc
	str	x0, [sp, 176]
	ldr	x0, [sp, 72]
	bl	_ZNSt6vectorIS_IiSaIiEESaIS1_EE5beginEv
	str	x0, [sp, 128]
	add	x1, sp, 128
	add	x0, sp, 64
	bl	_ZN9__gnu_cxxmiIPSt6vectorIiSaIiEES1_IS3_SaIS3_EEEENS_17__normal_iteratorIT_T0_E15difference_typeERKSA_SD_
	str	x0, [sp, 168]
	ldr	x0, [sp, 72]
	ldr	x1, [sp, 176]
	bl	_ZNSt12_Vector_baseISt6vectorIiSaIiEESaIS2_EE11_M_allocateEm
.LEHE16:
	str	x0, [sp, 160]
	ldr	x0, [sp, 160]
	str	x0, [sp, 184]
	ldr	x1, [sp, 168]
	mov	x0, x1
	lsl	x0, x0, 1
	add	x0, x0, x1
	lsl	x0, x0, 3
	mov	x1, x0
	ldr	x0, [sp, 160]
	add	x19, x0, x1
	ldr	x0, [sp, 72]
	bl	_ZNSt12_Vector_baseISt6vectorIiSaIiEESaIS2_EE19_M_get_Tp_allocatorEv
	mov	x3, x0
	ldr	x2, [sp, 48]
	ldr	x1, [sp, 56]
	mov	x0, x19
.LEHB17:
	bl	_ZSt24__uninitialized_fill_n_aIPSt6vectorIiSaIiEEmS2_S2_ET_S4_T0_RKT1_RSaIT2_E
	str	xzr, [sp, 184]
	ldr	x0, [sp, 72]
	ldr	x19, [x0]
	add	x0, sp, 64
	bl	_ZNK9__gnu_cxx17__normal_iteratorIPSt6vectorIiSaIiEES1_IS3_SaIS3_EEE4baseEv
	ldr	x20, [x0]
	ldr	x0, [sp, 72]
	bl	_ZNSt12_Vector_baseISt6vectorIiSaIiEESaIS2_EE19_M_get_Tp_allocatorEv
	mov	x3, x0
	ldr	x2, [sp, 160]
	mov	x1, x20
	mov	x0, x19
	bl	_ZSt34__uninitialized_move_if_noexcept_aIPSt6vectorIiSaIiEES3_SaIS2_EET0_T_S6_S5_RT1_
	str	x0, [sp, 184]
	ldr	x1, [sp, 56]
	mov	x0, x1
	lsl	x0, x0, 1
	add	x0, x0, x1
	lsl	x0, x0, 3
	mov	x1, x0
	ldr	x0, [sp, 184]
	add	x0, x0, x1
	str	x0, [sp, 184]
	add	x0, sp, 64
	bl	_ZNK9__gnu_cxx17__normal_iteratorIPSt6vectorIiSaIiEES1_IS3_SaIS3_EEE4baseEv
	ldr	x19, [x0]
	ldr	x0, [sp, 72]
	ldr	x20, [x0, 8]
	ldr	x0, [sp, 72]
	bl	_ZNSt12_Vector_baseISt6vectorIiSaIiEESaIS2_EE19_M_get_Tp_allocatorEv
	mov	x3, x0
	ldr	x2, [sp, 184]
	mov	x1, x20
	mov	x0, x19
	bl	_ZSt34__uninitialized_move_if_noexcept_aIPSt6vectorIiSaIiEES3_SaIS2_EET0_T_S6_S5_RT1_
.LEHE17:
	str	x0, [sp, 184]
	ldr	x0, [sp, 72]
	ldr	x19, [x0]
	ldr	x0, [sp, 72]
	ldr	x20, [x0, 8]
	ldr	x0, [sp, 72]
	bl	_ZNSt12_Vector_baseISt6vectorIiSaIiEESaIS2_EE19_M_get_Tp_allocatorEv
	mov	x2, x0
	mov	x1, x20
	mov	x0, x19
.LEHB18:
	bl	_ZSt8_DestroyIPSt6vectorIiSaIiEES2_EvT_S4_RSaIT0_E
	ldr	x3, [sp, 72]
	ldr	x0, [sp, 72]
	ldr	x4, [x0]
	ldr	x0, [sp, 72]
	ldr	x1, [x0, 16]
	ldr	x0, [sp, 72]
	ldr	x0, [x0]
	sub	x0, x1, x0
	asr	x1, x0, 3
	mov	x0, -6148914691236517206
	movk	x0, 0xaaab, lsl 0
	mul	x0, x1, x0
	mov	x2, x0
	mov	x1, x4
	mov	x0, x3
	bl	_ZNSt12_Vector_baseISt6vectorIiSaIiEESaIS2_EE13_M_deallocateEPS2_m
	ldr	x0, [sp, 72]
	ldr	x1, [sp, 160]
	str	x1, [x0]
	ldr	x0, [sp, 72]
	ldr	x1, [sp, 184]
	str	x1, [x0, 8]
	ldr	x1, [sp, 176]
	mov	x0, x1
	lsl	x0, x0, 1
	add	x0, x0, x1
	lsl	x0, x0, 3
	mov	x1, x0
	ldr	x0, [sp, 160]
	add	x1, x0, x1
	ldr	x0, [sp, 72]
	str	x1, [x0, 16]
	b	.L127
.L124:
	mov	x19, x0
	add	x0, sp, 88
	bl	_ZNSt6vectorIS_IiSaIiEESaIS1_EE16_Temporary_valueD1Ev
	mov	x0, x19
	bl	_Unwind_Resume
.LEHE18:
.L125:
	bl	__cxa_begin_catch
	ldr	x0, [sp, 184]
	cmp	x0, 0
	bne	.L121
	ldr	x1, [sp, 168]
	mov	x0, x1
	lsl	x0, x0, 1
	add	x0, x0, x1
	lsl	x0, x0, 3
	mov	x1, x0
	ldr	x0, [sp, 160]
	add	x19, x0, x1
	ldr	x1, [sp, 168]
	ldr	x0, [sp, 56]
	add	x1, x1, x0
	mov	x0, x1
	lsl	x0, x0, 1
	add	x0, x0, x1
	lsl	x0, x0, 3
	mov	x1, x0
	ldr	x0, [sp, 160]
	add	x20, x0, x1
	ldr	x0, [sp, 72]
	bl	_ZNSt12_Vector_baseISt6vectorIiSaIiEESaIS2_EE19_M_get_Tp_allocatorEv
	mov	x2, x0
	mov	x1, x20
	mov	x0, x19
.LEHB19:
	bl	_ZSt8_DestroyIPSt6vectorIiSaIiEES2_EvT_S4_RSaIT0_E
	b	.L122
.L121:
	ldr	x0, [sp, 72]
	bl	_ZNSt12_Vector_baseISt6vectorIiSaIiEESaIS2_EE19_M_get_Tp_allocatorEv
	mov	x2, x0
	ldr	x1, [sp, 184]
	ldr	x0, [sp, 160]
	bl	_ZSt8_DestroyIPSt6vectorIiSaIiEES2_EvT_S4_RSaIT0_E
.L122:
	ldr	x0, [sp, 72]
	ldr	x2, [sp, 176]
	ldr	x1, [sp, 160]
	bl	_ZNSt12_Vector_baseISt6vectorIiSaIiEESaIS2_EE13_M_deallocateEPS2_m
	bl	__cxa_rethrow
.LEHE19:
.L126:
	mov	x19, x0
	bl	__cxa_end_catch
	mov	x0, x19
.LEHB20:
	bl	_Unwind_Resume
.LEHE20:
.L127:
	nop
	ldp	x19, x20, [sp, 16]
	ldr	x21, [sp, 32]
	ldp	x29, x30, [sp], 192
	.cfi_restore 30
	.cfi_restore 29
	.cfi_restore 21
	.cfi_restore 19
	.cfi_restore 20
	.cfi_def_cfa_offset 0
	ret
	.cfi_endproc
.LFE10866:
	.section	.gcc_except_table
	.align	2
.LLSDA10866:
	.byte	0xff
	.byte	0x9b
	.uleb128 .LLSDATT10866-.LLSDATTD10866
.LLSDATTD10866:
	.byte	0x1
	.uleb128 .LLSDACSE10866-.LLSDACSB10866
.LLSDACSB10866:
	.uleb128 .LEHB14-.LFB10866
	.uleb128 .LEHE14-.LEHB14
	.uleb128 0
	.uleb128 0
	.uleb128 .LEHB15-.LFB10866
	.uleb128 .LEHE15-.LEHB15
	.uleb128 .L124-.LFB10866
	.uleb128 0
	.uleb128 .LEHB16-.LFB10866
	.uleb128 .LEHE16-.LEHB16
	.uleb128 0
	.uleb128 0
	.uleb128 .LEHB17-.LFB10866
	.uleb128 .LEHE17-.LEHB17
	.uleb128 .L125-.LFB10866
	.uleb128 0x1
	.uleb128 .LEHB18-.LFB10866
	.uleb128 .LEHE18-.LEHB18
	.uleb128 0
	.uleb128 0
	.uleb128 .LEHB19-.LFB10866
	.uleb128 .LEHE19-.LEHB19
	.uleb128 .L126-.LFB10866
	.uleb128 0
	.uleb128 .LEHB20-.LFB10866
	.uleb128 .LEHE20-.LEHB20
	.uleb128 0
	.uleb128 0
.LLSDACSE10866:
	.byte	0x1
	.byte	0
	.align	2
	.4byte	0

.LLSDATT10866:
	.section	.text._ZNSt6vectorIS_IiSaIiEESaIS1_EE14_M_fill_insertEN9__gnu_cxx17__normal_iteratorIPS1_S3_EEmRKS1_,"axG",@progbits,_ZNSt6vectorIS_IiSaIiEESaIS1_EE14_M_fill_insertEN9__gnu_cxx17__normal_iteratorIPS1_S3_EEmRKS1_,comdat
	.size	_ZNSt6vectorIS_IiSaIiEESaIS1_EE14_M_fill_insertEN9__gnu_cxx17__normal_iteratorIPS1_S3_EEmRKS1_, .-_ZNSt6vectorIS_IiSaIiEESaIS1_EE14_M_fill_insertEN9__gnu_cxx17__normal_iteratorIPS1_S3_EEmRKS1_
	.section	.text._ZNSt6vectorIS_IiSaIiEESaIS1_EE3endEv,"axG",@progbits,_ZNSt6vectorIS_IiSaIiEESaIS1_EE3endEv,comdat
	.align	2
	.weak	_ZNSt6vectorIS_IiSaIiEESaIS1_EE3endEv
	.type	_ZNSt6vectorIS_IiSaIiEESaIS1_EE3endEv, %function
_ZNSt6vectorIS_IiSaIiEESaIS1_EE3endEv:
.LFB10867:
	.cfi_startproc
	stp	x29, x30, [sp, -48]!
	.cfi_def_cfa_offset 48
	.cfi_offset 29, -48
	.cfi_offset 30, -40
	mov	x29, sp
	str	x0, [sp, 24]
	ldr	x0, [sp, 24]
	add	x1, x0, 8
	add	x0, sp, 40
	bl	_ZN9__gnu_cxx17__normal_iteratorIPSt6vectorIiSaIiEES1_IS3_SaIS3_EEEC1ERKS4_
	ldr	x0, [sp, 40]
	ldp	x29, x30, [sp], 48
	.cfi_restore 30
	.cfi_restore 29
	.cfi_def_cfa_offset 0
	ret
	.cfi_endproc
.LFE10867:
	.size	_ZNSt6vectorIS_IiSaIiEESaIS1_EE3endEv, .-_ZNSt6vectorIS_IiSaIiEESaIS1_EE3endEv
	.section	.text._ZNSt6vectorIS_IiSaIiEESaIS1_EE15_M_erase_at_endEPS1_,"axG",@progbits,_ZNSt6vectorIS_IiSaIiEESaIS1_EE15_M_erase_at_endEPS1_,comdat
	.align	2
	.weak	_ZNSt6vectorIS_IiSaIiEESaIS1_EE15_M_erase_at_endEPS1_
	.type	_ZNSt6vectorIS_IiSaIiEESaIS1_EE15_M_erase_at_endEPS1_, %function
_ZNSt6vectorIS_IiSaIiEESaIS1_EE15_M_erase_at_endEPS1_:
.LFB10868:
	.cfi_startproc
	.cfi_personality 0x9b,DW.ref.__gxx_personality_v0
	.cfi_lsda 0x1b,.LLSDA10868
	stp	x29, x30, [sp, -64]!
	.cfi_def_cfa_offset 64
	.cfi_offset 29, -64
	.cfi_offset 30, -56
	mov	x29, sp
	str	x19, [sp, 16]
	.cfi_offset 19, -48
	str	x0, [sp, 40]
	str	x1, [sp, 32]
	ldr	x0, [sp, 40]
	ldr	x1, [x0, 8]
	ldr	x0, [sp, 32]
	sub	x0, x1, x0
	asr	x1, x0, 3
	mov	x0, -6148914691236517206
	movk	x0, 0xaaab, lsl 0
	mul	x0, x1, x0
	str	x0, [sp, 56]
	ldr	x0, [sp, 56]
	cmp	x0, 0
	beq	.L132
	ldr	x0, [sp, 40]
	ldr	x19, [x0, 8]
	ldr	x0, [sp, 40]
	bl	_ZNSt12_Vector_baseISt6vectorIiSaIiEESaIS2_EE19_M_get_Tp_allocatorEv
	mov	x2, x0
	mov	x1, x19
	ldr	x0, [sp, 32]
	bl	_ZSt8_DestroyIPSt6vectorIiSaIiEES2_EvT_S4_RSaIT0_E
	ldr	x0, [sp, 40]
	ldr	x1, [sp, 32]
	str	x1, [x0, 8]
.L132:
	nop
	ldr	x19, [sp, 16]
	ldp	x29, x30, [sp], 64
	.cfi_restore 30
	.cfi_restore 29
	.cfi_restore 19
	.cfi_def_cfa_offset 0
	ret
	.cfi_endproc
.LFE10868:
	.section	.gcc_except_table
.LLSDA10868:
	.byte	0xff
	.byte	0xff
	.byte	0x1
	.uleb128 .LLSDACSE10868-.LLSDACSB10868
.LLSDACSB10868:
.LLSDACSE10868:
	.section	.text._ZNSt6vectorIS_IiSaIiEESaIS1_EE15_M_erase_at_endEPS1_,"axG",@progbits,_ZNSt6vectorIS_IiSaIiEESaIS1_EE15_M_erase_at_endEPS1_,comdat
	.size	_ZNSt6vectorIS_IiSaIiEESaIS1_EE15_M_erase_at_endEPS1_, .-_ZNSt6vectorIS_IiSaIiEESaIS1_EE15_M_erase_at_endEPS1_
	.section	.text._ZNSt16allocator_traitsISaIiEE10deallocateERS0_Pim,"axG",@progbits,_ZNSt16allocator_traitsISaIiEE10deallocateERS0_Pim,comdat
	.align	2
	.weak	_ZNSt16allocator_traitsISaIiEE10deallocateERS0_Pim
	.type	_ZNSt16allocator_traitsISaIiEE10deallocateERS0_Pim, %function
_ZNSt16allocator_traitsISaIiEE10deallocateERS0_Pim:
.LFB11065:
	.cfi_startproc
	stp	x29, x30, [sp, -48]!
	.cfi_def_cfa_offset 48
	.cfi_offset 29, -48
	.cfi_offset 30, -40
	mov	x29, sp
	str	x0, [sp, 40]
	str	x1, [sp, 32]
	str	x2, [sp, 24]
	ldr	x2, [sp, 24]
	ldr	x1, [sp, 32]
	ldr	x0, [sp, 40]
	bl	_ZN9__gnu_cxx13new_allocatorIiE10deallocateEPim
	nop
	ldp	x29, x30, [sp], 48
	.cfi_restore 30
	.cfi_restore 29
	.cfi_def_cfa_offset 0
	ret
	.cfi_endproc
.LFE11065:
	.size	_ZNSt16allocator_traitsISaIiEE10deallocateERS0_Pim, .-_ZNSt16allocator_traitsISaIiEE10deallocateERS0_Pim
	.section	.text._ZN9__gnu_cxx13new_allocatorISt6vectorIiSaIiEEEC2Ev,"axG",@progbits,_ZN9__gnu_cxx13new_allocatorISt6vectorIiSaIiEEEC5Ev,comdat
	.align	2
	.weak	_ZN9__gnu_cxx13new_allocatorISt6vectorIiSaIiEEEC2Ev
	.type	_ZN9__gnu_cxx13new_allocatorISt6vectorIiSaIiEEEC2Ev, %function
_ZN9__gnu_cxx13new_allocatorISt6vectorIiSaIiEEEC2Ev:
.LFB11067:
	.cfi_startproc
	sub	sp, sp, #16
	.cfi_def_cfa_offset 16
	str	x0, [sp, 8]
	nop
	add	sp, sp, 16
	.cfi_def_cfa_offset 0
	ret
	.cfi_endproc
.LFE11067:
	.size	_ZN9__gnu_cxx13new_allocatorISt6vectorIiSaIiEEEC2Ev, .-_ZN9__gnu_cxx13new_allocatorISt6vectorIiSaIiEEEC2Ev
	.weak	_ZN9__gnu_cxx13new_allocatorISt6vectorIiSaIiEEEC1Ev
	.set	_ZN9__gnu_cxx13new_allocatorISt6vectorIiSaIiEEEC1Ev,_ZN9__gnu_cxx13new_allocatorISt6vectorIiSaIiEEEC2Ev
	.section	.text._ZNSt16allocator_traitsISaISt6vectorIiSaIiEEEE10deallocateERS3_PS2_m,"axG",@progbits,_ZNSt16allocator_traitsISaISt6vectorIiSaIiEEEE10deallocateERS3_PS2_m,comdat
	.align	2
	.weak	_ZNSt16allocator_traitsISaISt6vectorIiSaIiEEEE10deallocateERS3_PS2_m
	.type	_ZNSt16allocator_traitsISaISt6vectorIiSaIiEEEE10deallocateERS3_PS2_m, %function
_ZNSt16allocator_traitsISaISt6vectorIiSaIiEEEE10deallocateERS3_PS2_m:
.LFB11069:
	.cfi_startproc
	stp	x29, x30, [sp, -48]!
	.cfi_def_cfa_offset 48
	.cfi_offset 29, -48
	.cfi_offset 30, -40
	mov	x29, sp
	str	x0, [sp, 40]
	str	x1, [sp, 32]
	str	x2, [sp, 24]
	ldr	x2, [sp, 24]
	ldr	x1, [sp, 32]
	ldr	x0, [sp, 40]
	bl	_ZN9__gnu_cxx13new_allocatorISt6vectorIiSaIiEEE10deallocateEPS3_m
	nop
	ldp	x29, x30, [sp], 48
	.cfi_restore 30
	.cfi_restore 29
	.cfi_def_cfa_offset 0
	ret
	.cfi_endproc
.LFE11069:
	.size	_ZNSt16allocator_traitsISaISt6vectorIiSaIiEEEE10deallocateERS3_PS2_m, .-_ZNSt16allocator_traitsISaISt6vectorIiSaIiEEEE10deallocateERS3_PS2_m
	.section	.text._ZNKSt6vectorIiSaIiEE8max_sizeEv,"axG",@progbits,_ZNKSt6vectorIiSaIiEE8max_sizeEv,comdat
	.align	2
	.weak	_ZNKSt6vectorIiSaIiEE8max_sizeEv
	.type	_ZNKSt6vectorIiSaIiEE8max_sizeEv, %function
_ZNKSt6vectorIiSaIiEE8max_sizeEv:
.LFB11070:
	.cfi_startproc
	stp	x29, x30, [sp, -32]!
	.cfi_def_cfa_offset 32
	.cfi_offset 29, -32
	.cfi_offset 30, -24
	mov	x29, sp
	str	x0, [sp, 24]
	ldr	x0, [sp, 24]
	bl	_ZNKSt12_Vector_baseIiSaIiEE19_M_get_Tp_allocatorEv
	bl	_ZNSt6vectorIiSaIiEE11_S_max_sizeERKS0_
	ldp	x29, x30, [sp], 32
	.cfi_restore 30
	.cfi_restore 29
	.cfi_def_cfa_offset 0
	ret
	.cfi_endproc
.LFE11070:
	.size	_ZNKSt6vectorIiSaIiEE8max_sizeEv, .-_ZNKSt6vectorIiSaIiEE8max_sizeEv
	.section	.text._ZSt27__uninitialized_default_n_aIPimiET_S1_T0_RSaIT1_E,"axG",@progbits,_ZSt27__uninitialized_default_n_aIPimiET_S1_T0_RSaIT1_E,comdat
	.align	2
	.weak	_ZSt27__uninitialized_default_n_aIPimiET_S1_T0_RSaIT1_E
	.type	_ZSt27__uninitialized_default_n_aIPimiET_S1_T0_RSaIT1_E, %function
_ZSt27__uninitialized_default_n_aIPimiET_S1_T0_RSaIT1_E:
.LFB11071:
	.cfi_startproc
	stp	x29, x30, [sp, -48]!
	.cfi_def_cfa_offset 48
	.cfi_offset 29, -48
	.cfi_offset 30, -40
	mov	x29, sp
	str	x0, [sp, 40]
	str	x1, [sp, 32]
	str	x2, [sp, 24]
	ldr	x1, [sp, 32]
	ldr	x0, [sp, 40]
	bl	_ZSt25__uninitialized_default_nIPimET_S1_T0_
	ldp	x29, x30, [sp], 48
	.cfi_restore 30
	.cfi_restore 29
	.cfi_def_cfa_offset 0
	ret
	.cfi_endproc
.LFE11071:
	.size	_ZSt27__uninitialized_default_n_aIPimiET_S1_T0_RSaIT1_E, .-_ZSt27__uninitialized_default_n_aIPimiET_S1_T0_RSaIT1_E
	.section	.text._ZNKSt6vectorIiSaIiEE12_M_check_lenEmPKc,"axG",@progbits,_ZNKSt6vectorIiSaIiEE12_M_check_lenEmPKc,comdat
	.align	2
	.weak	_ZNKSt6vectorIiSaIiEE12_M_check_lenEmPKc
	.type	_ZNKSt6vectorIiSaIiEE12_M_check_lenEmPKc, %function
_ZNKSt6vectorIiSaIiEE12_M_check_lenEmPKc:
.LFB11072:
	.cfi_startproc
	stp	x29, x30, [sp, -80]!
	.cfi_def_cfa_offset 80
	.cfi_offset 29, -80
	.cfi_offset 30, -72
	mov	x29, sp
	str	x19, [sp, 16]
	.cfi_offset 19, -64
	str	x0, [sp, 56]
	str	x1, [sp, 48]
	str	x2, [sp, 40]
	ldr	x0, [sp, 56]
	bl	_ZNKSt6vectorIiSaIiEE8max_sizeEv
	mov	x19, x0
	ldr	x0, [sp, 56]
	bl	_ZNKSt6vectorIiSaIiEE4sizeEv
	sub	x1, x19, x0
	ldr	x0, [sp, 48]
	cmp	x1, x0
	cset	w0, cc
	and	w0, w0, 255
	cmp	w0, 0
	beq	.L141
	ldr	x0, [sp, 40]
	bl	_ZSt20__throw_length_errorPKc
.L141:
	ldr	x0, [sp, 56]
	bl	_ZNKSt6vectorIiSaIiEE4sizeEv
	mov	x19, x0
	ldr	x0, [sp, 56]
	bl	_ZNKSt6vectorIiSaIiEE4sizeEv
	str	x0, [sp, 64]
	add	x1, sp, 48
	add	x0, sp, 64
	bl	_ZSt3maxImERKT_S2_S2_
	ldr	x0, [x0]
	add	x0, x19, x0
	str	x0, [sp, 72]
	ldr	x0, [sp, 56]
	bl	_ZNKSt6vectorIiSaIiEE4sizeEv
	mov	x1, x0
	ldr	x0, [sp, 72]
	cmp	x0, x1
	bcc	.L142
	ldr	x0, [sp, 56]
	bl	_ZNKSt6vectorIiSaIiEE8max_sizeEv
	mov	x1, x0
	ldr	x0, [sp, 72]
	cmp	x0, x1
	bls	.L143
.L142:
	ldr	x0, [sp, 56]
	bl	_ZNKSt6vectorIiSaIiEE8max_sizeEv
	b	.L144
.L143:
	ldr	x0, [sp, 72]
.L144:
	ldr	x19, [sp, 16]
	ldp	x29, x30, [sp], 80
	.cfi_restore 30
	.cfi_restore 29
	.cfi_restore 19
	.cfi_def_cfa_offset 0
	ret
	.cfi_endproc
.LFE11072:
	.size	_ZNKSt6vectorIiSaIiEE12_M_check_lenEmPKc, .-_ZNKSt6vectorIiSaIiEE12_M_check_lenEmPKc
	.section	.text._ZNSt12_Vector_baseIiSaIiEE11_M_allocateEm,"axG",@progbits,_ZNSt12_Vector_baseIiSaIiEE11_M_allocateEm,comdat
	.align	2
	.weak	_ZNSt12_Vector_baseIiSaIiEE11_M_allocateEm
	.type	_ZNSt12_Vector_baseIiSaIiEE11_M_allocateEm, %function
_ZNSt12_Vector_baseIiSaIiEE11_M_allocateEm:
.LFB11073:
	.cfi_startproc
	stp	x29, x30, [sp, -32]!
	.cfi_def_cfa_offset 32
	.cfi_offset 29, -32
	.cfi_offset 30, -24
	mov	x29, sp
	str	x0, [sp, 24]
	str	x1, [sp, 16]
	ldr	x0, [sp, 16]
	cmp	x0, 0
	beq	.L147
	ldr	x0, [sp, 24]
	ldr	x1, [sp, 16]
	bl	_ZNSt16allocator_traitsISaIiEE8allocateERS0_m
	b	.L149
.L147:
	mov	x0, 0
.L149:
	ldp	x29, x30, [sp], 32
	.cfi_restore 30
	.cfi_restore 29
	.cfi_def_cfa_offset 0
	ret
	.cfi_endproc
.LFE11073:
	.size	_ZNSt12_Vector_baseIiSaIiEE11_M_allocateEm, .-_ZNSt12_Vector_baseIiSaIiEE11_M_allocateEm
	.section	.text._ZNSt6vectorIiSaIiEE11_S_relocateEPiS2_S2_RS0_,"axG",@progbits,_ZNSt6vectorIiSaIiEE11_S_relocateEPiS2_S2_RS0_,comdat
	.align	2
	.weak	_ZNSt6vectorIiSaIiEE11_S_relocateEPiS2_S2_RS0_
	.type	_ZNSt6vectorIiSaIiEE11_S_relocateEPiS2_S2_RS0_, %function
_ZNSt6vectorIiSaIiEE11_S_relocateEPiS2_S2_RS0_:
.LFB11074:
	.cfi_startproc
	stp	x29, x30, [sp, -48]!
	.cfi_def_cfa_offset 48
	.cfi_offset 29, -48
	.cfi_offset 30, -40
	mov	x29, sp
	str	x0, [sp, 40]
	str	x1, [sp, 32]
	str	x2, [sp, 24]
	str	x3, [sp, 16]
	ldr	x3, [sp, 16]
	ldr	x2, [sp, 24]
	ldr	x1, [sp, 32]
	ldr	x0, [sp, 40]
	bl	_ZNSt6vectorIiSaIiEE14_S_do_relocateEPiS2_S2_RS0_St17integral_constantIbLb1EE
	ldp	x29, x30, [sp], 48
	.cfi_restore 30
	.cfi_restore 29
	.cfi_def_cfa_offset 0
	ret
	.cfi_endproc
.LFE11074:
	.size	_ZNSt6vectorIiSaIiEE11_S_relocateEPiS2_S2_RS0_, .-_ZNSt6vectorIiSaIiEE11_S_relocateEPiS2_S2_RS0_
	.section	.text._ZNSt6vectorIiSaIiEE11_S_max_sizeERKS0_,"axG",@progbits,_ZNSt6vectorIiSaIiEE11_S_max_sizeERKS0_,comdat
	.align	2
	.weak	_ZNSt6vectorIiSaIiEE11_S_max_sizeERKS0_
	.type	_ZNSt6vectorIiSaIiEE11_S_max_sizeERKS0_, %function
_ZNSt6vectorIiSaIiEE11_S_max_sizeERKS0_:
.LFB11075:
	.cfi_startproc
	stp	x29, x30, [sp, -48]!
	.cfi_def_cfa_offset 48
	.cfi_offset 29, -48
	.cfi_offset 30, -40
	mov	x29, sp
	str	x0, [sp, 24]
	mov	x0, 2305843009213693951
	str	x0, [sp, 40]
	ldr	x0, [sp, 24]
	bl	_ZNSt16allocator_traitsISaIiEE8max_sizeERKS0_
	str	x0, [sp, 32]
	add	x1, sp, 32
	add	x0, sp, 40
	bl	_ZSt3minImERKT_S2_S2_
	ldr	x0, [x0]
	ldp	x29, x30, [sp], 48
	.cfi_restore 30
	.cfi_restore 29
	.cfi_def_cfa_offset 0
	ret
	.cfi_endproc
.LFE11075:
	.size	_ZNSt6vectorIiSaIiEE11_S_max_sizeERKS0_, .-_ZNSt6vectorIiSaIiEE11_S_max_sizeERKS0_
	.section	.text._ZNSaIiEC2ERKS_,"axG",@progbits,_ZNSaIiEC5ERKS_,comdat
	.align	2
	.weak	_ZNSaIiEC2ERKS_
	.type	_ZNSaIiEC2ERKS_, %function
_ZNSaIiEC2ERKS_:
.LFB11077:
	.cfi_startproc
	stp	x29, x30, [sp, -32]!
	.cfi_def_cfa_offset 32
	.cfi_offset 29, -32
	.cfi_offset 30, -24
	mov	x29, sp
	str	x0, [sp, 24]
	str	x1, [sp, 16]
	ldr	x1, [sp, 16]
	ldr	x0, [sp, 24]
	bl	_ZN9__gnu_cxx13new_allocatorIiEC2ERKS1_
	nop
	ldp	x29, x30, [sp], 32
	.cfi_restore 30
	.cfi_restore 29
	.cfi_def_cfa_offset 0
	ret
	.cfi_endproc
.LFE11077:
	.size	_ZNSaIiEC2ERKS_, .-_ZNSaIiEC2ERKS_
	.weak	_ZNSaIiEC1ERKS_
	.set	_ZNSaIiEC1ERKS_,_ZNSaIiEC2ERKS_
	.section	.text._ZNSt12_Vector_baseIiSaIiEE12_Vector_implC2ERKS0_,"axG",@progbits,_ZNSt12_Vector_baseIiSaIiEE12_Vector_implC5ERKS0_,comdat
	.align	2
	.weak	_ZNSt12_Vector_baseIiSaIiEE12_Vector_implC2ERKS0_
	.type	_ZNSt12_Vector_baseIiSaIiEE12_Vector_implC2ERKS0_, %function
_ZNSt12_Vector_baseIiSaIiEE12_Vector_implC2ERKS0_:
.LFB11080:
	.cfi_startproc
	stp	x29, x30, [sp, -32]!
	.cfi_def_cfa_offset 32
	.cfi_offset 29, -32
	.cfi_offset 30, -24
	mov	x29, sp
	str	x0, [sp, 24]
	str	x1, [sp, 16]
	ldr	x1, [sp, 16]
	ldr	x0, [sp, 24]
	bl	_ZNSaIiEC2ERKS_
	ldr	x0, [sp, 24]
	bl	_ZNSt12_Vector_baseIiSaIiEE17_Vector_impl_dataC2Ev
	nop
	ldp	x29, x30, [sp], 32
	.cfi_restore 30
	.cfi_restore 29
	.cfi_def_cfa_offset 0
	ret
	.cfi_endproc
.LFE11080:
	.size	_ZNSt12_Vector_baseIiSaIiEE12_Vector_implC2ERKS0_, .-_ZNSt12_Vector_baseIiSaIiEE12_Vector_implC2ERKS0_
	.weak	_ZNSt12_Vector_baseIiSaIiEE12_Vector_implC1ERKS0_
	.set	_ZNSt12_Vector_baseIiSaIiEE12_Vector_implC1ERKS0_,_ZNSt12_Vector_baseIiSaIiEE12_Vector_implC2ERKS0_
	.section	.text._ZNSt12_Vector_baseIiSaIiEE17_M_create_storageEm,"axG",@progbits,_ZNSt12_Vector_baseIiSaIiEE17_M_create_storageEm,comdat
	.align	2
	.weak	_ZNSt12_Vector_baseIiSaIiEE17_M_create_storageEm
	.type	_ZNSt12_Vector_baseIiSaIiEE17_M_create_storageEm, %function
_ZNSt12_Vector_baseIiSaIiEE17_M_create_storageEm:
.LFB11082:
	.cfi_startproc
	stp	x29, x30, [sp, -32]!
	.cfi_def_cfa_offset 32
	.cfi_offset 29, -32
	.cfi_offset 30, -24
	mov	x29, sp
	str	x0, [sp, 24]
	str	x1, [sp, 16]
	ldr	x1, [sp, 16]
	ldr	x0, [sp, 24]
	bl	_ZNSt12_Vector_baseIiSaIiEE11_M_allocateEm
	mov	x1, x0
	ldr	x0, [sp, 24]
	str	x1, [x0]
	ldr	x0, [sp, 24]
	ldr	x1, [x0]
	ldr	x0, [sp, 24]
	str	x1, [x0, 8]
	ldr	x0, [sp, 24]
	ldr	x1, [x0]
	ldr	x0, [sp, 16]
	lsl	x0, x0, 2
	add	x1, x1, x0
	ldr	x0, [sp, 24]
	str	x1, [x0, 16]
	nop
	ldp	x29, x30, [sp], 32
	.cfi_restore 30
	.cfi_restore 29
	.cfi_def_cfa_offset 0
	ret
	.cfi_endproc
.LFE11082:
	.size	_ZNSt12_Vector_baseIiSaIiEE17_M_create_storageEm, .-_ZNSt12_Vector_baseIiSaIiEE17_M_create_storageEm
	.section	.text._ZSt8_DestroyIPiEvT_S1_,"axG",@progbits,_ZSt8_DestroyIPiEvT_S1_,comdat
	.align	2
	.weak	_ZSt8_DestroyIPiEvT_S1_
	.type	_ZSt8_DestroyIPiEvT_S1_, %function
_ZSt8_DestroyIPiEvT_S1_:
.LFB11083:
	.cfi_startproc
	stp	x29, x30, [sp, -32]!
	.cfi_def_cfa_offset 32
	.cfi_offset 29, -32
	.cfi_offset 30, -24
	mov	x29, sp
	str	x0, [sp, 24]
	str	x1, [sp, 16]
	ldr	x1, [sp, 16]
	ldr	x0, [sp, 24]
	bl	_ZNSt12_Destroy_auxILb1EE9__destroyIPiEEvT_S3_
	nop
	ldp	x29, x30, [sp], 32
	.cfi_restore 30
	.cfi_restore 29
	.cfi_def_cfa_offset 0
	ret
	.cfi_endproc
.LFE11083:
	.size	_ZSt8_DestroyIPiEvT_S1_, .-_ZSt8_DestroyIPiEvT_S1_
	.section	.text._ZNSt6vectorIS_IiSaIiEESaIS1_EE16_Temporary_valueC2IJRKS1_EEEPS3_DpOT_,"axG",@progbits,_ZNSt6vectorIS_IiSaIiEESaIS1_EE16_Temporary_valueC5IJRKS1_EEEPS3_DpOT_,comdat
	.align	2
	.weak	_ZNSt6vectorIS_IiSaIiEESaIS1_EE16_Temporary_valueC2IJRKS1_EEEPS3_DpOT_
	.type	_ZNSt6vectorIS_IiSaIiEESaIS1_EE16_Temporary_valueC2IJRKS1_EEEPS3_DpOT_, %function
_ZNSt6vectorIS_IiSaIiEESaIS1_EE16_Temporary_valueC2IJRKS1_EEEPS3_DpOT_:
.LFB11086:
	.cfi_startproc
	stp	x29, x30, [sp, -64]!
	.cfi_def_cfa_offset 64
	.cfi_offset 29, -64
	.cfi_offset 30, -56
	mov	x29, sp
	stp	x19, x20, [sp, 16]
	.cfi_offset 19, -48
	.cfi_offset 20, -40
	str	x0, [sp, 56]
	str	x1, [sp, 48]
	str	x2, [sp, 40]
	ldr	x0, [sp, 56]
	ldr	x1, [sp, 48]
	str	x1, [x0]
	ldr	x0, [sp, 56]
	ldr	x0, [x0]
	mov	x20, x0
	ldr	x0, [sp, 56]
	bl	_ZNSt6vectorIS_IiSaIiEESaIS1_EE16_Temporary_value6_M_ptrEv
	mov	x19, x0
	ldr	x0, [sp, 40]
	bl	_ZSt7forwardIRKSt6vectorIiSaIiEEEOT_RNSt16remove_referenceIS5_E4typeE
	mov	x2, x0
	mov	x1, x19
	mov	x0, x20
	bl	_ZNSt16allocator_traitsISaISt6vectorIiSaIiEEEE9constructIS2_JRKS2_EEEvRS3_PT_DpOT0_
	nop
	ldp	x19, x20, [sp, 16]
	ldp	x29, x30, [sp], 64
	.cfi_restore 30
	.cfi_restore 29
	.cfi_restore 19
	.cfi_restore 20
	.cfi_def_cfa_offset 0
	ret
	.cfi_endproc
.LFE11086:
	.size	_ZNSt6vectorIS_IiSaIiEESaIS1_EE16_Temporary_valueC2IJRKS1_EEEPS3_DpOT_, .-_ZNSt6vectorIS_IiSaIiEESaIS1_EE16_Temporary_valueC2IJRKS1_EEEPS3_DpOT_
	.weak	_ZNSt6vectorIS_IiSaIiEESaIS1_EE16_Temporary_valueC1IJRKS1_EEEPS3_DpOT_
	.set	_ZNSt6vectorIS_IiSaIiEESaIS1_EE16_Temporary_valueC1IJRKS1_EEEPS3_DpOT_,_ZNSt6vectorIS_IiSaIiEESaIS1_EE16_Temporary_valueC2IJRKS1_EEEPS3_DpOT_
	.section	.text._ZNSt6vectorIS_IiSaIiEESaIS1_EE16_Temporary_valueD2Ev,"axG",@progbits,_ZNSt6vectorIS_IiSaIiEESaIS1_EE16_Temporary_valueD5Ev,comdat
	.align	2
	.weak	_ZNSt6vectorIS_IiSaIiEESaIS1_EE16_Temporary_valueD2Ev
	.type	_ZNSt6vectorIS_IiSaIiEESaIS1_EE16_Temporary_valueD2Ev, %function
_ZNSt6vectorIS_IiSaIiEESaIS1_EE16_Temporary_valueD2Ev:
.LFB11089:
	.cfi_startproc
	stp	x29, x30, [sp, -48]!
	.cfi_def_cfa_offset 48
	.cfi_offset 29, -48
	.cfi_offset 30, -40
	mov	x29, sp
	str	x19, [sp, 16]
	.cfi_offset 19, -32
	str	x0, [sp, 40]
	ldr	x0, [sp, 40]
	ldr	x0, [x0]
	mov	x19, x0
	ldr	x0, [sp, 40]
	bl	_ZNSt6vectorIS_IiSaIiEESaIS1_EE16_Temporary_value6_M_ptrEv
	mov	x1, x0
	mov	x0, x19
	bl	_ZNSt16allocator_traitsISaISt6vectorIiSaIiEEEE7destroyIS2_EEvRS3_PT_
	nop
	ldr	x19, [sp, 16]
	ldp	x29, x30, [sp], 48
	.cfi_restore 30
	.cfi_restore 29
	.cfi_restore 19
	.cfi_def_cfa_offset 0
	ret
	.cfi_endproc
.LFE11089:
	.size	_ZNSt6vectorIS_IiSaIiEESaIS1_EE16_Temporary_valueD2Ev, .-_ZNSt6vectorIS_IiSaIiEESaIS1_EE16_Temporary_valueD2Ev
	.weak	_ZNSt6vectorIS_IiSaIiEESaIS1_EE16_Temporary_valueD1Ev
	.set	_ZNSt6vectorIS_IiSaIiEESaIS1_EE16_Temporary_valueD1Ev,_ZNSt6vectorIS_IiSaIiEESaIS1_EE16_Temporary_valueD2Ev
	.section	.text._ZNSt6vectorIS_IiSaIiEESaIS1_EE16_Temporary_value6_M_valEv,"axG",@progbits,_ZNSt6vectorIS_IiSaIiEESaIS1_EE16_Temporary_value6_M_valEv,comdat
	.align	2
	.weak	_ZNSt6vectorIS_IiSaIiEESaIS1_EE16_Temporary_value6_M_valEv
	.type	_ZNSt6vectorIS_IiSaIiEESaIS1_EE16_Temporary_value6_M_valEv, %function
_ZNSt6vectorIS_IiSaIiEESaIS1_EE16_Temporary_value6_M_valEv:
.LFB11091:
	.cfi_startproc
	stp	x29, x30, [sp, -32]!
	.cfi_def_cfa_offset 32
	.cfi_offset 29, -32
	.cfi_offset 30, -24
	mov	x29, sp
	str	x0, [sp, 24]
	ldr	x0, [sp, 24]
	bl	_ZNSt6vectorIS_IiSaIiEESaIS1_EE16_Temporary_value6_M_ptrEv
	ldp	x29, x30, [sp], 32
	.cfi_restore 30
	.cfi_restore 29
	.cfi_def_cfa_offset 0
	ret
	.cfi_endproc
.LFE11091:
	.size	_ZNSt6vectorIS_IiSaIiEESaIS1_EE16_Temporary_value6_M_valEv, .-_ZNSt6vectorIS_IiSaIiEESaIS1_EE16_Temporary_value6_M_valEv
	.section	.text._ZN9__gnu_cxxmiIPSt6vectorIiSaIiEES1_IS3_SaIS3_EEEENS_17__normal_iteratorIT_T0_E15difference_typeERKSA_SD_,"axG",@progbits,_ZN9__gnu_cxxmiIPSt6vectorIiSaIiEES1_IS3_SaIS3_EEEENS_17__normal_iteratorIT_T0_E15difference_typeERKSA_SD_,comdat
	.align	2
	.weak	_ZN9__gnu_cxxmiIPSt6vectorIiSaIiEES1_IS3_SaIS3_EEEENS_17__normal_iteratorIT_T0_E15difference_typeERKSA_SD_
	.type	_ZN9__gnu_cxxmiIPSt6vectorIiSaIiEES1_IS3_SaIS3_EEEENS_17__normal_iteratorIT_T0_E15difference_typeERKSA_SD_, %function
_ZN9__gnu_cxxmiIPSt6vectorIiSaIiEES1_IS3_SaIS3_EEEENS_17__normal_iteratorIT_T0_E15difference_typeERKSA_SD_:
.LFB11092:
	.cfi_startproc
	stp	x29, x30, [sp, -48]!
	.cfi_def_cfa_offset 48
	.cfi_offset 29, -48
	.cfi_offset 30, -40
	mov	x29, sp
	str	x19, [sp, 16]
	.cfi_offset 19, -32
	str	x0, [sp, 40]
	str	x1, [sp, 32]
	ldr	x0, [sp, 40]
	bl	_ZNK9__gnu_cxx17__normal_iteratorIPSt6vectorIiSaIiEES1_IS3_SaIS3_EEE4baseEv
	ldr	x19, [x0]
	ldr	x0, [sp, 32]
	bl	_ZNK9__gnu_cxx17__normal_iteratorIPSt6vectorIiSaIiEES1_IS3_SaIS3_EEE4baseEv
	ldr	x0, [x0]
	sub	x0, x19, x0
	asr	x1, x0, 3
	mov	x0, -6148914691236517206
	movk	x0, 0xaaab, lsl 0
	mul	x0, x1, x0
	ldr	x19, [sp, 16]
	ldp	x29, x30, [sp], 48
	.cfi_restore 30
	.cfi_restore 29
	.cfi_restore 19
	.cfi_def_cfa_offset 0
	ret
	.cfi_endproc
.LFE11092:
	.size	_ZN9__gnu_cxxmiIPSt6vectorIiSaIiEES1_IS3_SaIS3_EEEENS_17__normal_iteratorIT_T0_E15difference_typeERKSA_SD_, .-_ZN9__gnu_cxxmiIPSt6vectorIiSaIiEES1_IS3_SaIS3_EEEENS_17__normal_iteratorIT_T0_E15difference_typeERKSA_SD_
	.section	.text._ZNSt12_Vector_baseISt6vectorIiSaIiEESaIS2_EE19_M_get_Tp_allocatorEv,"axG",@progbits,_ZNSt12_Vector_baseISt6vectorIiSaIiEESaIS2_EE19_M_get_Tp_allocatorEv,comdat
	.align	2
	.weak	_ZNSt12_Vector_baseISt6vectorIiSaIiEESaIS2_EE19_M_get_Tp_allocatorEv
	.type	_ZNSt12_Vector_baseISt6vectorIiSaIiEESaIS2_EE19_M_get_Tp_allocatorEv, %function
_ZNSt12_Vector_baseISt6vectorIiSaIiEESaIS2_EE19_M_get_Tp_allocatorEv:
.LFB11093:
	.cfi_startproc
	sub	sp, sp, #16
	.cfi_def_cfa_offset 16
	str	x0, [sp, 8]
	ldr	x0, [sp, 8]
	add	sp, sp, 16
	.cfi_def_cfa_offset 0
	ret
	.cfi_endproc
.LFE11093:
	.size	_ZNSt12_Vector_baseISt6vectorIiSaIiEESaIS2_EE19_M_get_Tp_allocatorEv, .-_ZNSt12_Vector_baseISt6vectorIiSaIiEESaIS2_EE19_M_get_Tp_allocatorEv
	.section	.text._ZSt22__uninitialized_move_aIPSt6vectorIiSaIiEES3_SaIS2_EET0_T_S6_S5_RT1_,"axG",@progbits,_ZSt22__uninitialized_move_aIPSt6vectorIiSaIiEES3_SaIS2_EET0_T_S6_S5_RT1_,comdat
	.align	2
	.weak	_ZSt22__uninitialized_move_aIPSt6vectorIiSaIiEES3_SaIS2_EET0_T_S6_S5_RT1_
	.type	_ZSt22__uninitialized_move_aIPSt6vectorIiSaIiEES3_SaIS2_EET0_T_S6_S5_RT1_, %function
_ZSt22__uninitialized_move_aIPSt6vectorIiSaIiEES3_SaIS2_EET0_T_S6_S5_RT1_:
.LFB11094:
	.cfi_startproc
	stp	x29, x30, [sp, -64]!
	.cfi_def_cfa_offset 64
	.cfi_offset 29, -64
	.cfi_offset 30, -56
	mov	x29, sp
	str	x19, [sp, 16]
	.cfi_offset 19, -48
	str	x0, [sp, 56]
	str	x1, [sp, 48]
	str	x2, [sp, 40]
	str	x3, [sp, 32]
	ldr	x0, [sp, 56]
	bl	_ZSt18make_move_iteratorIPSt6vectorIiSaIiEEESt13move_iteratorIT_ES5_
	mov	x19, x0
	ldr	x0, [sp, 48]
	bl	_ZSt18make_move_iteratorIPSt6vectorIiSaIiEEESt13move_iteratorIT_ES5_
	ldr	x3, [sp, 32]
	ldr	x2, [sp, 40]
	mov	x1, x0
	mov	x0, x19
	bl	_ZSt22__uninitialized_copy_aISt13move_iteratorIPSt6vectorIiSaIiEEES4_S3_ET0_T_S7_S6_RSaIT1_E
	ldr	x19, [sp, 16]
	ldp	x29, x30, [sp], 64
	.cfi_restore 30
	.cfi_restore 29
	.cfi_restore 19
	.cfi_def_cfa_offset 0
	ret
	.cfi_endproc
.LFE11094:
	.size	_ZSt22__uninitialized_move_aIPSt6vectorIiSaIiEES3_SaIS2_EET0_T_S6_S5_RT1_, .-_ZSt22__uninitialized_move_aIPSt6vectorIiSaIiEES3_SaIS2_EET0_T_S6_S5_RT1_
	.section	.text._ZNK9__gnu_cxx17__normal_iteratorIPSt6vectorIiSaIiEES1_IS3_SaIS3_EEE4baseEv,"axG",@progbits,_ZNK9__gnu_cxx17__normal_iteratorIPSt6vectorIiSaIiEES1_IS3_SaIS3_EEE4baseEv,comdat
	.align	2
	.weak	_ZNK9__gnu_cxx17__normal_iteratorIPSt6vectorIiSaIiEES1_IS3_SaIS3_EEE4baseEv
	.type	_ZNK9__gnu_cxx17__normal_iteratorIPSt6vectorIiSaIiEES1_IS3_SaIS3_EEE4baseEv, %function
_ZNK9__gnu_cxx17__normal_iteratorIPSt6vectorIiSaIiEES1_IS3_SaIS3_EEE4baseEv:
.LFB11095:
	.cfi_startproc
	sub	sp, sp, #16
	.cfi_def_cfa_offset 16
	str	x0, [sp, 8]
	ldr	x0, [sp, 8]
	add	sp, sp, 16
	.cfi_def_cfa_offset 0
	ret
	.cfi_endproc
.LFE11095:
	.size	_ZNK9__gnu_cxx17__normal_iteratorIPSt6vectorIiSaIiEES1_IS3_SaIS3_EEE4baseEv, .-_ZNK9__gnu_cxx17__normal_iteratorIPSt6vectorIiSaIiEES1_IS3_SaIS3_EEE4baseEv
	.section	.text._ZSt13move_backwardIPSt6vectorIiSaIiEES3_ET0_T_S5_S4_,"axG",@progbits,_ZSt13move_backwardIPSt6vectorIiSaIiEES3_ET0_T_S5_S4_,comdat
	.align	2
	.weak	_ZSt13move_backwardIPSt6vectorIiSaIiEES3_ET0_T_S5_S4_
	.type	_ZSt13move_backwardIPSt6vectorIiSaIiEES3_ET0_T_S5_S4_, %function
_ZSt13move_backwardIPSt6vectorIiSaIiEES3_ET0_T_S5_S4_:
.LFB11096:
	.cfi_startproc
	stp	x29, x30, [sp, -64]!
	.cfi_def_cfa_offset 64
	.cfi_offset 29, -64
	.cfi_offset 30, -56
	mov	x29, sp
	str	x19, [sp, 16]
	.cfi_offset 19, -48
	str	x0, [sp, 56]
	str	x1, [sp, 48]
	str	x2, [sp, 40]
	ldr	x0, [sp, 56]
	bl	_ZSt12__miter_baseIPSt6vectorIiSaIiEEET_S4_
	mov	x19, x0
	ldr	x0, [sp, 48]
	bl	_ZSt12__miter_baseIPSt6vectorIiSaIiEEET_S4_
	ldr	x2, [sp, 40]
	mov	x1, x0
	mov	x0, x19
	bl	_ZSt22__copy_move_backward_aILb1EPSt6vectorIiSaIiEES3_ET1_T0_S5_S4_
	ldr	x19, [sp, 16]
	ldp	x29, x30, [sp], 64
	.cfi_restore 30
	.cfi_restore 29
	.cfi_restore 19
	.cfi_def_cfa_offset 0
	ret
	.cfi_endproc
.LFE11096:
	.size	_ZSt13move_backwardIPSt6vectorIiSaIiEES3_ET0_T_S5_S4_, .-_ZSt13move_backwardIPSt6vectorIiSaIiEES3_ET0_T_S5_S4_
	.section	.text._ZSt4fillIPSt6vectorIiSaIiEES2_EvT_S4_RKT0_,"axG",@progbits,_ZSt4fillIPSt6vectorIiSaIiEES2_EvT_S4_RKT0_,comdat
	.align	2
	.weak	_ZSt4fillIPSt6vectorIiSaIiEES2_EvT_S4_RKT0_
	.type	_ZSt4fillIPSt6vectorIiSaIiEES2_EvT_S4_RKT0_, %function
_ZSt4fillIPSt6vectorIiSaIiEES2_EvT_S4_RKT0_:
.LFB11097:
	.cfi_startproc
	stp	x29, x30, [sp, -48]!
	.cfi_def_cfa_offset 48
	.cfi_offset 29, -48
	.cfi_offset 30, -40
	mov	x29, sp
	str	x0, [sp, 40]
	str	x1, [sp, 32]
	str	x2, [sp, 24]
	ldr	x2, [sp, 24]
	ldr	x1, [sp, 32]
	ldr	x0, [sp, 40]
	bl	_ZSt8__fill_aIPSt6vectorIiSaIiEES2_EvT_S4_RKT0_
	nop
	ldp	x29, x30, [sp], 48
	.cfi_restore 30
	.cfi_restore 29
	.cfi_def_cfa_offset 0
	ret
	.cfi_endproc
.LFE11097:
	.size	_ZSt4fillIPSt6vectorIiSaIiEES2_EvT_S4_RKT0_, .-_ZSt4fillIPSt6vectorIiSaIiEES2_EvT_S4_RKT0_
	.section	.text._ZSt24__uninitialized_fill_n_aIPSt6vectorIiSaIiEEmS2_S2_ET_S4_T0_RKT1_RSaIT2_E,"axG",@progbits,_ZSt24__uninitialized_fill_n_aIPSt6vectorIiSaIiEEmS2_S2_ET_S4_T0_RKT1_RSaIT2_E,comdat
	.align	2
	.weak	_ZSt24__uninitialized_fill_n_aIPSt6vectorIiSaIiEEmS2_S2_ET_S4_T0_RKT1_RSaIT2_E
	.type	_ZSt24__uninitialized_fill_n_aIPSt6vectorIiSaIiEEmS2_S2_ET_S4_T0_RKT1_RSaIT2_E, %function
_ZSt24__uninitialized_fill_n_aIPSt6vectorIiSaIiEEmS2_S2_ET_S4_T0_RKT1_RSaIT2_E:
.LFB11098:
	.cfi_startproc
	stp	x29, x30, [sp, -48]!
	.cfi_def_cfa_offset 48
	.cfi_offset 29, -48
	.cfi_offset 30, -40
	mov	x29, sp
	str	x0, [sp, 40]
	str	x1, [sp, 32]
	str	x2, [sp, 24]
	str	x3, [sp, 16]
	ldr	x2, [sp, 24]
	ldr	x1, [sp, 32]
	ldr	x0, [sp, 40]
	bl	_ZSt20uninitialized_fill_nIPSt6vectorIiSaIiEEmS2_ET_S4_T0_RKT1_
	ldp	x29, x30, [sp], 48
	.cfi_restore 30
	.cfi_restore 29
	.cfi_def_cfa_offset 0
	ret
	.cfi_endproc
.LFE11098:
	.size	_ZSt24__uninitialized_fill_n_aIPSt6vectorIiSaIiEEmS2_S2_ET_S4_T0_RKT1_RSaIT2_E, .-_ZSt24__uninitialized_fill_n_aIPSt6vectorIiSaIiEEmS2_S2_ET_S4_T0_RKT1_RSaIT2_E
	.section	.text._ZNKSt6vectorIS_IiSaIiEESaIS1_EE12_M_check_lenEmPKc,"axG",@progbits,_ZNKSt6vectorIS_IiSaIiEESaIS1_EE12_M_check_lenEmPKc,comdat
	.align	2
	.weak	_ZNKSt6vectorIS_IiSaIiEESaIS1_EE12_M_check_lenEmPKc
	.type	_ZNKSt6vectorIS_IiSaIiEESaIS1_EE12_M_check_lenEmPKc, %function
_ZNKSt6vectorIS_IiSaIiEESaIS1_EE12_M_check_lenEmPKc:
.LFB11099:
	.cfi_startproc
	stp	x29, x30, [sp, -80]!
	.cfi_def_cfa_offset 80
	.cfi_offset 29, -80
	.cfi_offset 30, -72
	mov	x29, sp
	str	x19, [sp, 16]
	.cfi_offset 19, -64
	str	x0, [sp, 56]
	str	x1, [sp, 48]
	str	x2, [sp, 40]
	ldr	x0, [sp, 56]
	bl	_ZNKSt6vectorIS_IiSaIiEESaIS1_EE8max_sizeEv
	mov	x19, x0
	ldr	x0, [sp, 56]
	bl	_ZNKSt6vectorIS_IiSaIiEESaIS1_EE4sizeEv
	sub	x1, x19, x0
	ldr	x0, [sp, 48]
	cmp	x1, x0
	cset	w0, cc
	and	w0, w0, 255
	cmp	w0, 0
	beq	.L176
	ldr	x0, [sp, 40]
	bl	_ZSt20__throw_length_errorPKc
.L176:
	ldr	x0, [sp, 56]
	bl	_ZNKSt6vectorIS_IiSaIiEESaIS1_EE4sizeEv
	mov	x19, x0
	ldr	x0, [sp, 56]
	bl	_ZNKSt6vectorIS_IiSaIiEESaIS1_EE4sizeEv
	str	x0, [sp, 64]
	add	x1, sp, 48
	add	x0, sp, 64
	bl	_ZSt3maxImERKT_S2_S2_
	ldr	x0, [x0]
	add	x0, x19, x0
	str	x0, [sp, 72]
	ldr	x0, [sp, 56]
	bl	_ZNKSt6vectorIS_IiSaIiEESaIS1_EE4sizeEv
	mov	x1, x0
	ldr	x0, [sp, 72]
	cmp	x0, x1
	bcc	.L177
	ldr	x0, [sp, 56]
	bl	_ZNKSt6vectorIS_IiSaIiEESaIS1_EE8max_sizeEv
	mov	x1, x0
	ldr	x0, [sp, 72]
	cmp	x0, x1
	bls	.L178
.L177:
	ldr	x0, [sp, 56]
	bl	_ZNKSt6vectorIS_IiSaIiEESaIS1_EE8max_sizeEv
	b	.L179
.L178:
	ldr	x0, [sp, 72]
.L179:
	ldr	x19, [sp, 16]
	ldp	x29, x30, [sp], 80
	.cfi_restore 30
	.cfi_restore 29
	.cfi_restore 19
	.cfi_def_cfa_offset 0
	ret
	.cfi_endproc
.LFE11099:
	.size	_ZNKSt6vectorIS_IiSaIiEESaIS1_EE12_M_check_lenEmPKc, .-_ZNKSt6vectorIS_IiSaIiEESaIS1_EE12_M_check_lenEmPKc
	.section	.text._ZNSt6vectorIS_IiSaIiEESaIS1_EE5beginEv,"axG",@progbits,_ZNSt6vectorIS_IiSaIiEESaIS1_EE5beginEv,comdat
	.align	2
	.weak	_ZNSt6vectorIS_IiSaIiEESaIS1_EE5beginEv
	.type	_ZNSt6vectorIS_IiSaIiEESaIS1_EE5beginEv, %function
_ZNSt6vectorIS_IiSaIiEESaIS1_EE5beginEv:
.LFB11100:
	.cfi_startproc
	stp	x29, x30, [sp, -48]!
	.cfi_def_cfa_offset 48
	.cfi_offset 29, -48
	.cfi_offset 30, -40
	mov	x29, sp
	str	x0, [sp, 24]
	ldr	x1, [sp, 24]
	add	x0, sp, 40
	bl	_ZN9__gnu_cxx17__normal_iteratorIPSt6vectorIiSaIiEES1_IS3_SaIS3_EEEC1ERKS4_
	ldr	x0, [sp, 40]
	ldp	x29, x30, [sp], 48
	.cfi_restore 30
	.cfi_restore 29
	.cfi_def_cfa_offset 0
	ret
	.cfi_endproc
.LFE11100:
	.size	_ZNSt6vectorIS_IiSaIiEESaIS1_EE5beginEv, .-_ZNSt6vectorIS_IiSaIiEESaIS1_EE5beginEv
	.section	.text._ZNSt12_Vector_baseISt6vectorIiSaIiEESaIS2_EE11_M_allocateEm,"axG",@progbits,_ZNSt12_Vector_baseISt6vectorIiSaIiEESaIS2_EE11_M_allocateEm,comdat
	.align	2
	.weak	_ZNSt12_Vector_baseISt6vectorIiSaIiEESaIS2_EE11_M_allocateEm
	.type	_ZNSt12_Vector_baseISt6vectorIiSaIiEESaIS2_EE11_M_allocateEm, %function
_ZNSt12_Vector_baseISt6vectorIiSaIiEESaIS2_EE11_M_allocateEm:
.LFB11101:
	.cfi_startproc
	stp	x29, x30, [sp, -32]!
	.cfi_def_cfa_offset 32
	.cfi_offset 29, -32
	.cfi_offset 30, -24
	mov	x29, sp
	str	x0, [sp, 24]
	str	x1, [sp, 16]
	ldr	x0, [sp, 16]
	cmp	x0, 0
	beq	.L184
	ldr	x0, [sp, 24]
	ldr	x1, [sp, 16]
	bl	_ZNSt16allocator_traitsISaISt6vectorIiSaIiEEEE8allocateERS3_m
	b	.L186
.L184:
	mov	x0, 0
.L186:
	ldp	x29, x30, [sp], 32
	.cfi_restore 30
	.cfi_restore 29
	.cfi_def_cfa_offset 0
	ret
	.cfi_endproc
.LFE11101:
	.size	_ZNSt12_Vector_baseISt6vectorIiSaIiEESaIS2_EE11_M_allocateEm, .-_ZNSt12_Vector_baseISt6vectorIiSaIiEESaIS2_EE11_M_allocateEm
	.section	.text._ZSt34__uninitialized_move_if_noexcept_aIPSt6vectorIiSaIiEES3_SaIS2_EET0_T_S6_S5_RT1_,"axG",@progbits,_ZSt34__uninitialized_move_if_noexcept_aIPSt6vectorIiSaIiEES3_SaIS2_EET0_T_S6_S5_RT1_,comdat
	.align	2
	.weak	_ZSt34__uninitialized_move_if_noexcept_aIPSt6vectorIiSaIiEES3_SaIS2_EET0_T_S6_S5_RT1_
	.type	_ZSt34__uninitialized_move_if_noexcept_aIPSt6vectorIiSaIiEES3_SaIS2_EET0_T_S6_S5_RT1_, %function
_ZSt34__uninitialized_move_if_noexcept_aIPSt6vectorIiSaIiEES3_SaIS2_EET0_T_S6_S5_RT1_:
.LFB11102:
	.cfi_startproc
	stp	x29, x30, [sp, -64]!
	.cfi_def_cfa_offset 64
	.cfi_offset 29, -64
	.cfi_offset 30, -56
	mov	x29, sp
	str	x19, [sp, 16]
	.cfi_offset 19, -48
	str	x0, [sp, 56]
	str	x1, [sp, 48]
	str	x2, [sp, 40]
	str	x3, [sp, 32]
	ldr	x0, [sp, 56]
	bl	_ZSt32__make_move_if_noexcept_iteratorISt6vectorIiSaIiEESt13move_iteratorIPS2_EET0_PT_
	mov	x19, x0
	ldr	x0, [sp, 48]
	bl	_ZSt32__make_move_if_noexcept_iteratorISt6vectorIiSaIiEESt13move_iteratorIPS2_EET0_PT_
	ldr	x3, [sp, 32]
	ldr	x2, [sp, 40]
	mov	x1, x0
	mov	x0, x19
	bl	_ZSt22__uninitialized_copy_aISt13move_iteratorIPSt6vectorIiSaIiEEES4_S3_ET0_T_S7_S6_RSaIT1_E
	ldr	x19, [sp, 16]
	ldp	x29, x30, [sp], 64
	.cfi_restore 30
	.cfi_restore 29
	.cfi_restore 19
	.cfi_def_cfa_offset 0
	ret
	.cfi_endproc
.LFE11102:
	.size	_ZSt34__uninitialized_move_if_noexcept_aIPSt6vectorIiSaIiEES3_SaIS2_EET0_T_S6_S5_RT1_, .-_ZSt34__uninitialized_move_if_noexcept_aIPSt6vectorIiSaIiEES3_SaIS2_EET0_T_S6_S5_RT1_
	.section	.text._ZSt8_DestroyIPSt6vectorIiSaIiEES2_EvT_S4_RSaIT0_E,"axG",@progbits,_ZSt8_DestroyIPSt6vectorIiSaIiEES2_EvT_S4_RSaIT0_E,comdat
	.align	2
	.weak	_ZSt8_DestroyIPSt6vectorIiSaIiEES2_EvT_S4_RSaIT0_E
	.type	_ZSt8_DestroyIPSt6vectorIiSaIiEES2_EvT_S4_RSaIT0_E, %function
_ZSt8_DestroyIPSt6vectorIiSaIiEES2_EvT_S4_RSaIT0_E:
.LFB11103:
	.cfi_startproc
	stp	x29, x30, [sp, -48]!
	.cfi_def_cfa_offset 48
	.cfi_offset 29, -48
	.cfi_offset 30, -40
	mov	x29, sp
	str	x0, [sp, 40]
	str	x1, [sp, 32]
	str	x2, [sp, 24]
	ldr	x1, [sp, 32]
	ldr	x0, [sp, 40]
	bl	_ZSt8_DestroyIPSt6vectorIiSaIiEEEvT_S4_
	nop
	ldp	x29, x30, [sp], 48
	.cfi_restore 30
	.cfi_restore 29
	.cfi_def_cfa_offset 0
	ret
	.cfi_endproc
.LFE11103:
	.size	_ZSt8_DestroyIPSt6vectorIiSaIiEES2_EvT_S4_RSaIT0_E, .-_ZSt8_DestroyIPSt6vectorIiSaIiEES2_EvT_S4_RSaIT0_E
	.section	.text._ZN9__gnu_cxx17__normal_iteratorIPSt6vectorIiSaIiEES1_IS3_SaIS3_EEEC2ERKS4_,"axG",@progbits,_ZN9__gnu_cxx17__normal_iteratorIPSt6vectorIiSaIiEES1_IS3_SaIS3_EEEC5ERKS4_,comdat
	.align	2
	.weak	_ZN9__gnu_cxx17__normal_iteratorIPSt6vectorIiSaIiEES1_IS3_SaIS3_EEEC2ERKS4_
	.type	_ZN9__gnu_cxx17__normal_iteratorIPSt6vectorIiSaIiEES1_IS3_SaIS3_EEEC2ERKS4_, %function
_ZN9__gnu_cxx17__normal_iteratorIPSt6vectorIiSaIiEES1_IS3_SaIS3_EEEC2ERKS4_:
.LFB11105:
	.cfi_startproc
	sub	sp, sp, #16
	.cfi_def_cfa_offset 16
	str	x0, [sp, 8]
	str	x1, [sp]
	ldr	x0, [sp]
	ldr	x1, [x0]
	ldr	x0, [sp, 8]
	str	x1, [x0]
	nop
	add	sp, sp, 16
	.cfi_def_cfa_offset 0
	ret
	.cfi_endproc
.LFE11105:
	.size	_ZN9__gnu_cxx17__normal_iteratorIPSt6vectorIiSaIiEES1_IS3_SaIS3_EEEC2ERKS4_, .-_ZN9__gnu_cxx17__normal_iteratorIPSt6vectorIiSaIiEES1_IS3_SaIS3_EEEC2ERKS4_
	.weak	_ZN9__gnu_cxx17__normal_iteratorIPSt6vectorIiSaIiEES1_IS3_SaIS3_EEEC1ERKS4_
	.set	_ZN9__gnu_cxx17__normal_iteratorIPSt6vectorIiSaIiEES1_IS3_SaIS3_EEEC1ERKS4_,_ZN9__gnu_cxx17__normal_iteratorIPSt6vectorIiSaIiEES1_IS3_SaIS3_EEEC2ERKS4_
	.section	.text._ZN9__gnu_cxx13new_allocatorIiE10deallocateEPim,"axG",@progbits,_ZN9__gnu_cxx13new_allocatorIiE10deallocateEPim,comdat
	.align	2
	.weak	_ZN9__gnu_cxx13new_allocatorIiE10deallocateEPim
	.type	_ZN9__gnu_cxx13new_allocatorIiE10deallocateEPim, %function
_ZN9__gnu_cxx13new_allocatorIiE10deallocateEPim:
.LFB11243:
	.cfi_startproc
	stp	x29, x30, [sp, -48]!
	.cfi_def_cfa_offset 48
	.cfi_offset 29, -48
	.cfi_offset 30, -40
	mov	x29, sp
	str	x0, [sp, 40]
	str	x1, [sp, 32]
	str	x2, [sp, 24]
	ldr	x0, [sp, 24]
	lsl	x0, x0, 2
	mov	x1, x0
	ldr	x0, [sp, 32]
	bl	_ZdlPvm
	ldp	x29, x30, [sp], 48
	.cfi_restore 30
	.cfi_restore 29
	.cfi_def_cfa_offset 0
	ret
	.cfi_endproc
.LFE11243:
	.size	_ZN9__gnu_cxx13new_allocatorIiE10deallocateEPim, .-_ZN9__gnu_cxx13new_allocatorIiE10deallocateEPim
	.section	.text._ZN9__gnu_cxx13new_allocatorISt6vectorIiSaIiEEE10deallocateEPS3_m,"axG",@progbits,_ZN9__gnu_cxx13new_allocatorISt6vectorIiSaIiEEE10deallocateEPS3_m,comdat
	.align	2
	.weak	_ZN9__gnu_cxx13new_allocatorISt6vectorIiSaIiEEE10deallocateEPS3_m
	.type	_ZN9__gnu_cxx13new_allocatorISt6vectorIiSaIiEEE10deallocateEPS3_m, %function
_ZN9__gnu_cxx13new_allocatorISt6vectorIiSaIiEEE10deallocateEPS3_m:
.LFB11244:
	.cfi_startproc
	stp	x29, x30, [sp, -48]!
	.cfi_def_cfa_offset 48
	.cfi_offset 29, -48
	.cfi_offset 30, -40
	mov	x29, sp
	str	x0, [sp, 40]
	str	x1, [sp, 32]
	str	x2, [sp, 24]
	ldr	x1, [sp, 24]
	mov	x0, x1
	lsl	x0, x0, 1
	add	x0, x0, x1
	lsl	x0, x0, 3
	mov	x1, x0
	ldr	x0, [sp, 32]
	bl	_ZdlPvm
	ldp	x29, x30, [sp], 48
	.cfi_restore 30
	.cfi_restore 29
	.cfi_def_cfa_offset 0
	ret
	.cfi_endproc
.LFE11244:
	.size	_ZN9__gnu_cxx13new_allocatorISt6vectorIiSaIiEEE10deallocateEPS3_m, .-_ZN9__gnu_cxx13new_allocatorISt6vectorIiSaIiEEE10deallocateEPS3_m
	.section	.text._ZNKSt12_Vector_baseIiSaIiEE19_M_get_Tp_allocatorEv,"axG",@progbits,_ZNKSt12_Vector_baseIiSaIiEE19_M_get_Tp_allocatorEv,comdat
	.align	2
	.weak	_ZNKSt12_Vector_baseIiSaIiEE19_M_get_Tp_allocatorEv
	.type	_ZNKSt12_Vector_baseIiSaIiEE19_M_get_Tp_allocatorEv, %function
_ZNKSt12_Vector_baseIiSaIiEE19_M_get_Tp_allocatorEv:
.LFB11245:
	.cfi_startproc
	sub	sp, sp, #16
	.cfi_def_cfa_offset 16
	str	x0, [sp, 8]
	ldr	x0, [sp, 8]
	add	sp, sp, 16
	.cfi_def_cfa_offset 0
	ret
	.cfi_endproc
.LFE11245:
	.size	_ZNKSt12_Vector_baseIiSaIiEE19_M_get_Tp_allocatorEv, .-_ZNKSt12_Vector_baseIiSaIiEE19_M_get_Tp_allocatorEv
	.section	.text._ZSt25__uninitialized_default_nIPimET_S1_T0_,"axG",@progbits,_ZSt25__uninitialized_default_nIPimET_S1_T0_,comdat
	.align	2
	.weak	_ZSt25__uninitialized_default_nIPimET_S1_T0_
	.type	_ZSt25__uninitialized_default_nIPimET_S1_T0_, %function
_ZSt25__uninitialized_default_nIPimET_S1_T0_:
.LFB11246:
	.cfi_startproc
	stp	x29, x30, [sp, -48]!
	.cfi_def_cfa_offset 48
	.cfi_offset 29, -48
	.cfi_offset 30, -40
	mov	x29, sp
	str	x0, [sp, 24]
	str	x1, [sp, 16]
	mov	w0, 1
	strb	w0, [sp, 47]
	ldr	x1, [sp, 16]
	ldr	x0, [sp, 24]
	bl	_ZNSt27__uninitialized_default_n_1ILb1EE18__uninit_default_nIPimEET_S3_T0_
	ldp	x29, x30, [sp], 48
	.cfi_restore 30
	.cfi_restore 29
	.cfi_def_cfa_offset 0
	ret
	.cfi_endproc
.LFE11246:
	.size	_ZSt25__uninitialized_default_nIPimET_S1_T0_, .-_ZSt25__uninitialized_default_nIPimET_S1_T0_
	.section	.text._ZNSt16allocator_traitsISaIiEE8allocateERS0_m,"axG",@progbits,_ZNSt16allocator_traitsISaIiEE8allocateERS0_m,comdat
	.align	2
	.weak	_ZNSt16allocator_traitsISaIiEE8allocateERS0_m
	.type	_ZNSt16allocator_traitsISaIiEE8allocateERS0_m, %function
_ZNSt16allocator_traitsISaIiEE8allocateERS0_m:
.LFB11247:
	.cfi_startproc
	stp	x29, x30, [sp, -32]!
	.cfi_def_cfa_offset 32
	.cfi_offset 29, -32
	.cfi_offset 30, -24
	mov	x29, sp
	str	x0, [sp, 24]
	str	x1, [sp, 16]
	mov	x2, 0
	ldr	x1, [sp, 16]
	ldr	x0, [sp, 24]
	bl	_ZN9__gnu_cxx13new_allocatorIiE8allocateEmPKv
	ldp	x29, x30, [sp], 32
	.cfi_restore 30
	.cfi_restore 29
	.cfi_def_cfa_offset 0
	ret
	.cfi_endproc
.LFE11247:
	.size	_ZNSt16allocator_traitsISaIiEE8allocateERS0_m, .-_ZNSt16allocator_traitsISaIiEE8allocateERS0_m
	.section	.text._ZNSt6vectorIiSaIiEE14_S_do_relocateEPiS2_S2_RS0_St17integral_constantIbLb1EE,"axG",@progbits,_ZNSt6vectorIiSaIiEE14_S_do_relocateEPiS2_S2_RS0_St17integral_constantIbLb1EE,comdat
	.align	2
	.weak	_ZNSt6vectorIiSaIiEE14_S_do_relocateEPiS2_S2_RS0_St17integral_constantIbLb1EE
	.type	_ZNSt6vectorIiSaIiEE14_S_do_relocateEPiS2_S2_RS0_St17integral_constantIbLb1EE, %function
_ZNSt6vectorIiSaIiEE14_S_do_relocateEPiS2_S2_RS0_St17integral_constantIbLb1EE:
.LFB11248:
	.cfi_startproc
	stp	x29, x30, [sp, -64]!
	.cfi_def_cfa_offset 64
	.cfi_offset 29, -64
	.cfi_offset 30, -56
	mov	x29, sp
	str	x0, [sp, 56]
	str	x1, [sp, 48]
	str	x2, [sp, 40]
	str	x3, [sp, 32]
	strb	w4, [sp, 24]
	ldr	x3, [sp, 32]
	ldr	x2, [sp, 40]
	ldr	x1, [sp, 48]
	ldr	x0, [sp, 56]
	bl	_ZSt12__relocate_aIPiS0_SaIiEET0_T_S3_S2_RT1_
	ldp	x29, x30, [sp], 64
	.cfi_restore 30
	.cfi_restore 29
	.cfi_def_cfa_offset 0
	ret
	.cfi_endproc
.LFE11248:
	.size	_ZNSt6vectorIiSaIiEE14_S_do_relocateEPiS2_S2_RS0_St17integral_constantIbLb1EE, .-_ZNSt6vectorIiSaIiEE14_S_do_relocateEPiS2_S2_RS0_St17integral_constantIbLb1EE
	.section	.text._ZNSt16allocator_traitsISaIiEE8max_sizeERKS0_,"axG",@progbits,_ZNSt16allocator_traitsISaIiEE8max_sizeERKS0_,comdat
	.align	2
	.weak	_ZNSt16allocator_traitsISaIiEE8max_sizeERKS0_
	.type	_ZNSt16allocator_traitsISaIiEE8max_sizeERKS0_, %function
_ZNSt16allocator_traitsISaIiEE8max_sizeERKS0_:
.LFB11249:
	.cfi_startproc
	stp	x29, x30, [sp, -32]!
	.cfi_def_cfa_offset 32
	.cfi_offset 29, -32
	.cfi_offset 30, -24
	mov	x29, sp
	str	x0, [sp, 24]
	ldr	x0, [sp, 24]
	bl	_ZNK9__gnu_cxx13new_allocatorIiE8max_sizeEv
	ldp	x29, x30, [sp], 32
	.cfi_restore 30
	.cfi_restore 29
	.cfi_def_cfa_offset 0
	ret
	.cfi_endproc
.LFE11249:
	.size	_ZNSt16allocator_traitsISaIiEE8max_sizeERKS0_, .-_ZNSt16allocator_traitsISaIiEE8max_sizeERKS0_
	.section	.text._ZN9__gnu_cxx13new_allocatorIiEC2ERKS1_,"axG",@progbits,_ZN9__gnu_cxx13new_allocatorIiEC5ERKS1_,comdat
	.align	2
	.weak	_ZN9__gnu_cxx13new_allocatorIiEC2ERKS1_
	.type	_ZN9__gnu_cxx13new_allocatorIiEC2ERKS1_, %function
_ZN9__gnu_cxx13new_allocatorIiEC2ERKS1_:
.LFB11251:
	.cfi_startproc
	sub	sp, sp, #16
	.cfi_def_cfa_offset 16
	str	x0, [sp, 8]
	str	x1, [sp]
	nop
	add	sp, sp, 16
	.cfi_def_cfa_offset 0
	ret
	.cfi_endproc
.LFE11251:
	.size	_ZN9__gnu_cxx13new_allocatorIiEC2ERKS1_, .-_ZN9__gnu_cxx13new_allocatorIiEC2ERKS1_
	.weak	_ZN9__gnu_cxx13new_allocatorIiEC1ERKS1_
	.set	_ZN9__gnu_cxx13new_allocatorIiEC1ERKS1_,_ZN9__gnu_cxx13new_allocatorIiEC2ERKS1_
	.section	.text._ZNSt12_Destroy_auxILb1EE9__destroyIPiEEvT_S3_,"axG",@progbits,_ZNSt12_Destroy_auxILb1EE9__destroyIPiEEvT_S3_,comdat
	.align	2
	.weak	_ZNSt12_Destroy_auxILb1EE9__destroyIPiEEvT_S3_
	.type	_ZNSt12_Destroy_auxILb1EE9__destroyIPiEEvT_S3_, %function
_ZNSt12_Destroy_auxILb1EE9__destroyIPiEEvT_S3_:
.LFB11253:
	.cfi_startproc
	sub	sp, sp, #16
	.cfi_def_cfa_offset 16
	str	x0, [sp, 8]
	str	x1, [sp]
	nop
	add	sp, sp, 16
	.cfi_def_cfa_offset 0
	ret
	.cfi_endproc
.LFE11253:
	.size	_ZNSt12_Destroy_auxILb1EE9__destroyIPiEEvT_S3_, .-_ZNSt12_Destroy_auxILb1EE9__destroyIPiEEvT_S3_
	.section	.text._ZNSt6vectorIS_IiSaIiEESaIS1_EE16_Temporary_value6_M_ptrEv,"axG",@progbits,_ZNSt6vectorIS_IiSaIiEESaIS1_EE16_Temporary_value6_M_ptrEv,comdat
	.align	2
	.weak	_ZNSt6vectorIS_IiSaIiEESaIS1_EE16_Temporary_value6_M_ptrEv
	.type	_ZNSt6vectorIS_IiSaIiEESaIS1_EE16_Temporary_value6_M_ptrEv, %function
_ZNSt6vectorIS_IiSaIiEESaIS1_EE16_Temporary_value6_M_ptrEv:
.LFB11254:
	.cfi_startproc
	sub	sp, sp, #16
	.cfi_def_cfa_offset 16
	str	x0, [sp, 8]
	ldr	x0, [sp, 8]
	add	x0, x0, 8
	add	sp, sp, 16
	.cfi_def_cfa_offset 0
	ret
	.cfi_endproc
.LFE11254:
	.size	_ZNSt6vectorIS_IiSaIiEESaIS1_EE16_Temporary_value6_M_ptrEv, .-_ZNSt6vectorIS_IiSaIiEESaIS1_EE16_Temporary_value6_M_ptrEv
	.section	.text._ZSt7forwardIRKSt6vectorIiSaIiEEEOT_RNSt16remove_referenceIS5_E4typeE,"axG",@progbits,_ZSt7forwardIRKSt6vectorIiSaIiEEEOT_RNSt16remove_referenceIS5_E4typeE,comdat
	.align	2
	.weak	_ZSt7forwardIRKSt6vectorIiSaIiEEEOT_RNSt16remove_referenceIS5_E4typeE
	.type	_ZSt7forwardIRKSt6vectorIiSaIiEEEOT_RNSt16remove_referenceIS5_E4typeE, %function
_ZSt7forwardIRKSt6vectorIiSaIiEEEOT_RNSt16remove_referenceIS5_E4typeE:
.LFB11255:
	.cfi_startproc
	sub	sp, sp, #16
	.cfi_def_cfa_offset 16
	str	x0, [sp, 8]
	ldr	x0, [sp, 8]
	add	sp, sp, 16
	.cfi_def_cfa_offset 0
	ret
	.cfi_endproc
.LFE11255:
	.size	_ZSt7forwardIRKSt6vectorIiSaIiEEEOT_RNSt16remove_referenceIS5_E4typeE, .-_ZSt7forwardIRKSt6vectorIiSaIiEEEOT_RNSt16remove_referenceIS5_E4typeE
	.section	.text._ZNSt16allocator_traitsISaISt6vectorIiSaIiEEEE9constructIS2_JRKS2_EEEvRS3_PT_DpOT0_,"axG",@progbits,_ZNSt16allocator_traitsISaISt6vectorIiSaIiEEEE9constructIS2_JRKS2_EEEvRS3_PT_DpOT0_,comdat
	.align	2
	.weak	_ZNSt16allocator_traitsISaISt6vectorIiSaIiEEEE9constructIS2_JRKS2_EEEvRS3_PT_DpOT0_
	.type	_ZNSt16allocator_traitsISaISt6vectorIiSaIiEEEE9constructIS2_JRKS2_EEEvRS3_PT_DpOT0_, %function
_ZNSt16allocator_traitsISaISt6vectorIiSaIiEEEE9constructIS2_JRKS2_EEEvRS3_PT_DpOT0_:
.LFB11256:
	.cfi_startproc
	stp	x29, x30, [sp, -48]!
	.cfi_def_cfa_offset 48
	.cfi_offset 29, -48
	.cfi_offset 30, -40
	mov	x29, sp
	str	x0, [sp, 40]
	str	x1, [sp, 32]
	str	x2, [sp, 24]
	ldr	x0, [sp, 24]
	bl	_ZSt7forwardIRKSt6vectorIiSaIiEEEOT_RNSt16remove_referenceIS5_E4typeE
	mov	x2, x0
	ldr	x1, [sp, 32]
	ldr	x0, [sp, 40]
	bl	_ZN9__gnu_cxx13new_allocatorISt6vectorIiSaIiEEE9constructIS3_JRKS3_EEEvPT_DpOT0_
	nop
	ldp	x29, x30, [sp], 48
	.cfi_restore 30
	.cfi_restore 29
	.cfi_def_cfa_offset 0
	ret
	.cfi_endproc
.LFE11256:
	.size	_ZNSt16allocator_traitsISaISt6vectorIiSaIiEEEE9constructIS2_JRKS2_EEEvRS3_PT_DpOT0_, .-_ZNSt16allocator_traitsISaISt6vectorIiSaIiEEEE9constructIS2_JRKS2_EEEvRS3_PT_DpOT0_
	.section	.text._ZNSt16allocator_traitsISaISt6vectorIiSaIiEEEE7destroyIS2_EEvRS3_PT_,"axG",@progbits,_ZNSt16allocator_traitsISaISt6vectorIiSaIiEEEE7destroyIS2_EEvRS3_PT_,comdat
	.align	2
	.weak	_ZNSt16allocator_traitsISaISt6vectorIiSaIiEEEE7destroyIS2_EEvRS3_PT_
	.type	_ZNSt16allocator_traitsISaISt6vectorIiSaIiEEEE7destroyIS2_EEvRS3_PT_, %function
_ZNSt16allocator_traitsISaISt6vectorIiSaIiEEEE7destroyIS2_EEvRS3_PT_:
.LFB11257:
	.cfi_startproc
	stp	x29, x30, [sp, -32]!
	.cfi_def_cfa_offset 32
	.cfi_offset 29, -32
	.cfi_offset 30, -24
	mov	x29, sp
	str	x0, [sp, 24]
	str	x1, [sp, 16]
	ldr	x1, [sp, 16]
	ldr	x0, [sp, 24]
	bl	_ZN9__gnu_cxx13new_allocatorISt6vectorIiSaIiEEE7destroyIS3_EEvPT_
	nop
	ldp	x29, x30, [sp], 32
	.cfi_restore 30
	.cfi_restore 29
	.cfi_def_cfa_offset 0
	ret
	.cfi_endproc
.LFE11257:
	.size	_ZNSt16allocator_traitsISaISt6vectorIiSaIiEEEE7destroyIS2_EEvRS3_PT_, .-_ZNSt16allocator_traitsISaISt6vectorIiSaIiEEEE7destroyIS2_EEvRS3_PT_
	.section	.text._ZSt18make_move_iteratorIPSt6vectorIiSaIiEEESt13move_iteratorIT_ES5_,"axG",@progbits,_ZSt18make_move_iteratorIPSt6vectorIiSaIiEEESt13move_iteratorIT_ES5_,comdat
	.align	2
	.weak	_ZSt18make_move_iteratorIPSt6vectorIiSaIiEEESt13move_iteratorIT_ES5_
	.type	_ZSt18make_move_iteratorIPSt6vectorIiSaIiEEESt13move_iteratorIT_ES5_, %function
_ZSt18make_move_iteratorIPSt6vectorIiSaIiEEESt13move_iteratorIT_ES5_:
.LFB11258:
	.cfi_startproc
	stp	x29, x30, [sp, -48]!
	.cfi_def_cfa_offset 48
	.cfi_offset 29, -48
	.cfi_offset 30, -40
	mov	x29, sp
	str	x0, [sp, 24]
	add	x0, sp, 24
	bl	_ZSt4moveIRPSt6vectorIiSaIiEEEONSt16remove_referenceIT_E4typeEOS6_
	ldr	x1, [x0]
	add	x0, sp, 40
	bl	_ZNSt13move_iteratorIPSt6vectorIiSaIiEEEC1ES3_
	ldr	x0, [sp, 40]
	ldp	x29, x30, [sp], 48
	.cfi_restore 30
	.cfi_restore 29
	.cfi_def_cfa_offset 0
	ret
	.cfi_endproc
.LFE11258:
	.size	_ZSt18make_move_iteratorIPSt6vectorIiSaIiEEESt13move_iteratorIT_ES5_, .-_ZSt18make_move_iteratorIPSt6vectorIiSaIiEEESt13move_iteratorIT_ES5_
	.section	.text._ZSt22__uninitialized_copy_aISt13move_iteratorIPSt6vectorIiSaIiEEES4_S3_ET0_T_S7_S6_RSaIT1_E,"axG",@progbits,_ZSt22__uninitialized_copy_aISt13move_iteratorIPSt6vectorIiSaIiEEES4_S3_ET0_T_S7_S6_RSaIT1_E,comdat
	.align	2
	.weak	_ZSt22__uninitialized_copy_aISt13move_iteratorIPSt6vectorIiSaIiEEES4_S3_ET0_T_S7_S6_RSaIT1_E
	.type	_ZSt22__uninitialized_copy_aISt13move_iteratorIPSt6vectorIiSaIiEEES4_S3_ET0_T_S7_S6_RSaIT1_E, %function
_ZSt22__uninitialized_copy_aISt13move_iteratorIPSt6vectorIiSaIiEEES4_S3_ET0_T_S7_S6_RSaIT1_E:
.LFB11259:
	.cfi_startproc
	stp	x29, x30, [sp, -48]!
	.cfi_def_cfa_offset 48
	.cfi_offset 29, -48
	.cfi_offset 30, -40
	mov	x29, sp
	str	x0, [sp, 40]
	str	x1, [sp, 32]
	str	x2, [sp, 24]
	str	x3, [sp, 16]
	ldr	x2, [sp, 24]
	ldr	x1, [sp, 32]
	ldr	x0, [sp, 40]
	bl	_ZSt18uninitialized_copyISt13move_iteratorIPSt6vectorIiSaIiEEES4_ET0_T_S7_S6_
	ldp	x29, x30, [sp], 48
	.cfi_restore 30
	.cfi_restore 29
	.cfi_def_cfa_offset 0
	ret
	.cfi_endproc
.LFE11259:
	.size	_ZSt22__uninitialized_copy_aISt13move_iteratorIPSt6vectorIiSaIiEEES4_S3_ET0_T_S7_S6_RSaIT1_E, .-_ZSt22__uninitialized_copy_aISt13move_iteratorIPSt6vectorIiSaIiEEES4_S3_ET0_T_S7_S6_RSaIT1_E
	.section	.text._ZSt12__miter_baseIPSt6vectorIiSaIiEEET_S4_,"axG",@progbits,_ZSt12__miter_baseIPSt6vectorIiSaIiEEET_S4_,comdat
	.align	2
	.weak	_ZSt12__miter_baseIPSt6vectorIiSaIiEEET_S4_
	.type	_ZSt12__miter_baseIPSt6vectorIiSaIiEEET_S4_, %function
_ZSt12__miter_baseIPSt6vectorIiSaIiEEET_S4_:
.LFB11260:
	.cfi_startproc
	sub	sp, sp, #16
	.cfi_def_cfa_offset 16
	str	x0, [sp, 8]
	ldr	x0, [sp, 8]
	add	sp, sp, 16
	.cfi_def_cfa_offset 0
	ret
	.cfi_endproc
.LFE11260:
	.size	_ZSt12__miter_baseIPSt6vectorIiSaIiEEET_S4_, .-_ZSt12__miter_baseIPSt6vectorIiSaIiEEET_S4_
	.section	.text._ZSt22__copy_move_backward_aILb1EPSt6vectorIiSaIiEES3_ET1_T0_S5_S4_,"axG",@progbits,_ZSt22__copy_move_backward_aILb1EPSt6vectorIiSaIiEES3_ET1_T0_S5_S4_,comdat
	.align	2
	.weak	_ZSt22__copy_move_backward_aILb1EPSt6vectorIiSaIiEES3_ET1_T0_S5_S4_
	.type	_ZSt22__copy_move_backward_aILb1EPSt6vectorIiSaIiEES3_ET1_T0_S5_S4_, %function
_ZSt22__copy_move_backward_aILb1EPSt6vectorIiSaIiEES3_ET1_T0_S5_S4_:
.LFB11261:
	.cfi_startproc
	stp	x29, x30, [sp, -64]!
	.cfi_def_cfa_offset 64
	.cfi_offset 29, -64
	.cfi_offset 30, -56
	mov	x29, sp
	stp	x19, x20, [sp, 16]
	.cfi_offset 19, -48
	.cfi_offset 20, -40
	str	x0, [sp, 56]
	str	x1, [sp, 48]
	str	x2, [sp, 40]
	ldr	x0, [sp, 56]
	bl	_ZSt12__niter_baseIPSt6vectorIiSaIiEEET_S4_
	mov	x19, x0
	ldr	x0, [sp, 48]
	bl	_ZSt12__niter_baseIPSt6vectorIiSaIiEEET_S4_
	mov	x20, x0
	ldr	x0, [sp, 40]
	bl	_ZSt12__niter_baseIPSt6vectorIiSaIiEEET_S4_
	mov	x2, x0
	mov	x1, x20
	mov	x0, x19
	bl	_ZSt23__copy_move_backward_a1ILb1EPSt6vectorIiSaIiEES3_ET1_T0_S5_S4_
	mov	x1, x0
	add	x0, sp, 40
	bl	_ZSt12__niter_wrapIPSt6vectorIiSaIiEEET_RKS4_S4_
	ldp	x19, x20, [sp, 16]
	ldp	x29, x30, [sp], 64
	.cfi_restore 30
	.cfi_restore 29
	.cfi_restore 19
	.cfi_restore 20
	.cfi_def_cfa_offset 0
	ret
	.cfi_endproc
.LFE11261:
	.size	_ZSt22__copy_move_backward_aILb1EPSt6vectorIiSaIiEES3_ET1_T0_S5_S4_, .-_ZSt22__copy_move_backward_aILb1EPSt6vectorIiSaIiEES3_ET1_T0_S5_S4_
	.section	.text._ZSt8__fill_aIPSt6vectorIiSaIiEES2_EvT_S4_RKT0_,"axG",@progbits,_ZSt8__fill_aIPSt6vectorIiSaIiEES2_EvT_S4_RKT0_,comdat
	.align	2
	.weak	_ZSt8__fill_aIPSt6vectorIiSaIiEES2_EvT_S4_RKT0_
	.type	_ZSt8__fill_aIPSt6vectorIiSaIiEES2_EvT_S4_RKT0_, %function
_ZSt8__fill_aIPSt6vectorIiSaIiEES2_EvT_S4_RKT0_:
.LFB11263:
	.cfi_startproc
	stp	x29, x30, [sp, -48]!
	.cfi_def_cfa_offset 48
	.cfi_offset 29, -48
	.cfi_offset 30, -40
	mov	x29, sp
	str	x0, [sp, 40]
	str	x1, [sp, 32]
	str	x2, [sp, 24]
	ldr	x2, [sp, 24]
	ldr	x1, [sp, 32]
	ldr	x0, [sp, 40]
	bl	_ZSt9__fill_a1IPSt6vectorIiSaIiEES2_EN9__gnu_cxx11__enable_ifIXntsrSt11__is_scalarIT0_E7__valueEvE6__typeET_SB_RKS7_
	nop
	ldp	x29, x30, [sp], 48
	.cfi_restore 30
	.cfi_restore 29
	.cfi_def_cfa_offset 0
	ret
	.cfi_endproc
.LFE11263:
	.size	_ZSt8__fill_aIPSt6vectorIiSaIiEES2_EvT_S4_RKT0_, .-_ZSt8__fill_aIPSt6vectorIiSaIiEES2_EvT_S4_RKT0_
	.section	.text._ZSt20uninitialized_fill_nIPSt6vectorIiSaIiEEmS2_ET_S4_T0_RKT1_,"axG",@progbits,_ZSt20uninitialized_fill_nIPSt6vectorIiSaIiEEmS2_ET_S4_T0_RKT1_,comdat
	.align	2
	.weak	_ZSt20uninitialized_fill_nIPSt6vectorIiSaIiEEmS2_ET_S4_T0_RKT1_
	.type	_ZSt20uninitialized_fill_nIPSt6vectorIiSaIiEEmS2_ET_S4_T0_RKT1_, %function
_ZSt20uninitialized_fill_nIPSt6vectorIiSaIiEEmS2_ET_S4_T0_RKT1_:
.LFB11264:
	.cfi_startproc
	stp	x29, x30, [sp, -64]!
	.cfi_def_cfa_offset 64
	.cfi_offset 29, -64
	.cfi_offset 30, -56
	mov	x29, sp
	str	x0, [sp, 40]
	str	x1, [sp, 32]
	str	x2, [sp, 24]
	mov	w0, 1
	strb	w0, [sp, 63]
	ldr	x2, [sp, 24]
	ldr	x1, [sp, 32]
	ldr	x0, [sp, 40]
	bl	_ZNSt22__uninitialized_fill_nILb0EE15__uninit_fill_nIPSt6vectorIiSaIiEEmS4_EET_S6_T0_RKT1_
	ldp	x29, x30, [sp], 64
	.cfi_restore 30
	.cfi_restore 29
	.cfi_def_cfa_offset 0
	ret
	.cfi_endproc
.LFE11264:
	.size	_ZSt20uninitialized_fill_nIPSt6vectorIiSaIiEEmS2_ET_S4_T0_RKT1_, .-_ZSt20uninitialized_fill_nIPSt6vectorIiSaIiEEmS2_ET_S4_T0_RKT1_
	.section	.text._ZNKSt6vectorIS_IiSaIiEESaIS1_EE8max_sizeEv,"axG",@progbits,_ZNKSt6vectorIS_IiSaIiEESaIS1_EE8max_sizeEv,comdat
	.align	2
	.weak	_ZNKSt6vectorIS_IiSaIiEESaIS1_EE8max_sizeEv
	.type	_ZNKSt6vectorIS_IiSaIiEESaIS1_EE8max_sizeEv, %function
_ZNKSt6vectorIS_IiSaIiEESaIS1_EE8max_sizeEv:
.LFB11265:
	.cfi_startproc
	stp	x29, x30, [sp, -32]!
	.cfi_def_cfa_offset 32
	.cfi_offset 29, -32
	.cfi_offset 30, -24
	mov	x29, sp
	str	x0, [sp, 24]
	ldr	x0, [sp, 24]
	bl	_ZNKSt12_Vector_baseISt6vectorIiSaIiEESaIS2_EE19_M_get_Tp_allocatorEv
	bl	_ZNSt6vectorIS_IiSaIiEESaIS1_EE11_S_max_sizeERKS2_
	ldp	x29, x30, [sp], 32
	.cfi_restore 30
	.cfi_restore 29
	.cfi_def_cfa_offset 0
	ret
	.cfi_endproc
.LFE11265:
	.size	_ZNKSt6vectorIS_IiSaIiEESaIS1_EE8max_sizeEv, .-_ZNKSt6vectorIS_IiSaIiEESaIS1_EE8max_sizeEv
	.section	.text._ZNSt16allocator_traitsISaISt6vectorIiSaIiEEEE8allocateERS3_m,"axG",@progbits,_ZNSt16allocator_traitsISaISt6vectorIiSaIiEEEE8allocateERS3_m,comdat
	.align	2
	.weak	_ZNSt16allocator_traitsISaISt6vectorIiSaIiEEEE8allocateERS3_m
	.type	_ZNSt16allocator_traitsISaISt6vectorIiSaIiEEEE8allocateERS3_m, %function
_ZNSt16allocator_traitsISaISt6vectorIiSaIiEEEE8allocateERS3_m:
.LFB11266:
	.cfi_startproc
	stp	x29, x30, [sp, -32]!
	.cfi_def_cfa_offset 32
	.cfi_offset 29, -32
	.cfi_offset 30, -24
	mov	x29, sp
	str	x0, [sp, 24]
	str	x1, [sp, 16]
	mov	x2, 0
	ldr	x1, [sp, 16]
	ldr	x0, [sp, 24]
	bl	_ZN9__gnu_cxx13new_allocatorISt6vectorIiSaIiEEE8allocateEmPKv
	ldp	x29, x30, [sp], 32
	.cfi_restore 30
	.cfi_restore 29
	.cfi_def_cfa_offset 0
	ret
	.cfi_endproc
.LFE11266:
	.size	_ZNSt16allocator_traitsISaISt6vectorIiSaIiEEEE8allocateERS3_m, .-_ZNSt16allocator_traitsISaISt6vectorIiSaIiEEEE8allocateERS3_m
	.section	.text._ZSt32__make_move_if_noexcept_iteratorISt6vectorIiSaIiEESt13move_iteratorIPS2_EET0_PT_,"axG",@progbits,_ZSt32__make_move_if_noexcept_iteratorISt6vectorIiSaIiEESt13move_iteratorIPS2_EET0_PT_,comdat
	.align	2
	.weak	_ZSt32__make_move_if_noexcept_iteratorISt6vectorIiSaIiEESt13move_iteratorIPS2_EET0_PT_
	.type	_ZSt32__make_move_if_noexcept_iteratorISt6vectorIiSaIiEESt13move_iteratorIPS2_EET0_PT_, %function
_ZSt32__make_move_if_noexcept_iteratorISt6vectorIiSaIiEESt13move_iteratorIPS2_EET0_PT_:
.LFB11267:
	.cfi_startproc
	stp	x29, x30, [sp, -48]!
	.cfi_def_cfa_offset 48
	.cfi_offset 29, -48
	.cfi_offset 30, -40
	mov	x29, sp
	str	x0, [sp, 24]
	add	x0, sp, 40
	ldr	x1, [sp, 24]
	bl	_ZNSt13move_iteratorIPSt6vectorIiSaIiEEEC1ES3_
	ldr	x0, [sp, 40]
	ldp	x29, x30, [sp], 48
	.cfi_restore 30
	.cfi_restore 29
	.cfi_def_cfa_offset 0
	ret
	.cfi_endproc
.LFE11267:
	.size	_ZSt32__make_move_if_noexcept_iteratorISt6vectorIiSaIiEESt13move_iteratorIPS2_EET0_PT_, .-_ZSt32__make_move_if_noexcept_iteratorISt6vectorIiSaIiEESt13move_iteratorIPS2_EET0_PT_
	.section	.text._ZSt8_DestroyIPSt6vectorIiSaIiEEEvT_S4_,"axG",@progbits,_ZSt8_DestroyIPSt6vectorIiSaIiEEEvT_S4_,comdat
	.align	2
	.weak	_ZSt8_DestroyIPSt6vectorIiSaIiEEEvT_S4_
	.type	_ZSt8_DestroyIPSt6vectorIiSaIiEEEvT_S4_, %function
_ZSt8_DestroyIPSt6vectorIiSaIiEEEvT_S4_:
.LFB11268:
	.cfi_startproc
	stp	x29, x30, [sp, -32]!
	.cfi_def_cfa_offset 32
	.cfi_offset 29, -32
	.cfi_offset 30, -24
	mov	x29, sp
	str	x0, [sp, 24]
	str	x1, [sp, 16]
	ldr	x1, [sp, 16]
	ldr	x0, [sp, 24]
	bl	_ZNSt12_Destroy_auxILb0EE9__destroyIPSt6vectorIiSaIiEEEEvT_S6_
	nop
	ldp	x29, x30, [sp], 32
	.cfi_restore 30
	.cfi_restore 29
	.cfi_def_cfa_offset 0
	ret
	.cfi_endproc
.LFE11268:
	.size	_ZSt8_DestroyIPSt6vectorIiSaIiEEEvT_S4_, .-_ZSt8_DestroyIPSt6vectorIiSaIiEEEvT_S4_
	.section	.text._ZSt11__addressofIiEPT_RS0_,"axG",@progbits,_ZSt11__addressofIiEPT_RS0_,comdat
	.align	2
	.weak	_ZSt11__addressofIiEPT_RS0_
	.type	_ZSt11__addressofIiEPT_RS0_, %function
_ZSt11__addressofIiEPT_RS0_:
.LFB11354:
	.cfi_startproc
	sub	sp, sp, #16
	.cfi_def_cfa_offset 16
	str	x0, [sp, 8]
	ldr	x0, [sp, 8]
	add	sp, sp, 16
	.cfi_def_cfa_offset 0
	ret
	.cfi_endproc
.LFE11354:
	.size	_ZSt11__addressofIiEPT_RS0_, .-_ZSt11__addressofIiEPT_RS0_
	.section	.text._ZNSt27__uninitialized_default_n_1ILb1EE18__uninit_default_nIPimEET_S3_T0_,"axG",@progbits,_ZNSt27__uninitialized_default_n_1ILb1EE18__uninit_default_nIPimEET_S3_T0_,comdat
	.align	2
	.weak	_ZNSt27__uninitialized_default_n_1ILb1EE18__uninit_default_nIPimEET_S3_T0_
	.type	_ZNSt27__uninitialized_default_n_1ILb1EE18__uninit_default_nIPimEET_S3_T0_, %function
_ZNSt27__uninitialized_default_n_1ILb1EE18__uninit_default_nIPimEET_S3_T0_:
.LFB11353:
	.cfi_startproc
	stp	x29, x30, [sp, -48]!
	.cfi_def_cfa_offset 48
	.cfi_offset 29, -48
	.cfi_offset 30, -40
	mov	x29, sp
	str	x0, [sp, 24]
	str	x1, [sp, 16]
	ldr	x0, [sp, 16]
	cmp	x0, 0
	beq	.L234
	ldr	x0, [sp, 24]
	bl	_ZSt11__addressofIiEPT_RS0_
	str	x0, [sp, 40]
	ldr	x0, [sp, 40]
	bl	_ZSt10_ConstructIiJEEvPT_DpOT0_
	ldr	x0, [sp, 24]
	add	x0, x0, 4
	str	x0, [sp, 24]
	ldr	x0, [sp, 16]
	sub	x0, x0, #1
	ldr	x2, [sp, 40]
	mov	x1, x0
	ldr	x0, [sp, 24]
	bl	_ZSt6fill_nIPimiET_S1_T0_RKT1_
	str	x0, [sp, 24]
.L234:
	ldr	x0, [sp, 24]
	ldp	x29, x30, [sp], 48
	.cfi_restore 30
	.cfi_restore 29
	.cfi_def_cfa_offset 0
	ret
	.cfi_endproc
.LFE11353:
	.size	_ZNSt27__uninitialized_default_n_1ILb1EE18__uninit_default_nIPimEET_S3_T0_, .-_ZNSt27__uninitialized_default_n_1ILb1EE18__uninit_default_nIPimEET_S3_T0_
	.section	.text._ZNK9__gnu_cxx13new_allocatorIiE11_M_max_sizeEv,"axG",@progbits,_ZNK9__gnu_cxx13new_allocatorIiE11_M_max_sizeEv,comdat
	.align	2
	.weak	_ZNK9__gnu_cxx13new_allocatorIiE11_M_max_sizeEv
	.type	_ZNK9__gnu_cxx13new_allocatorIiE11_M_max_sizeEv, %function
_ZNK9__gnu_cxx13new_allocatorIiE11_M_max_sizeEv:
.LFB11356:
	.cfi_startproc
	sub	sp, sp, #16
	.cfi_def_cfa_offset 16
	str	x0, [sp, 8]
	mov	x0, 2305843009213693951
	add	sp, sp, 16
	.cfi_def_cfa_offset 0
	ret
	.cfi_endproc
.LFE11356:
	.size	_ZNK9__gnu_cxx13new_allocatorIiE11_M_max_sizeEv, .-_ZNK9__gnu_cxx13new_allocatorIiE11_M_max_sizeEv
	.section	.text._ZN9__gnu_cxx13new_allocatorIiE8allocateEmPKv,"axG",@progbits,_ZN9__gnu_cxx13new_allocatorIiE8allocateEmPKv,comdat
	.align	2
	.weak	_ZN9__gnu_cxx13new_allocatorIiE8allocateEmPKv
	.type	_ZN9__gnu_cxx13new_allocatorIiE8allocateEmPKv, %function
_ZN9__gnu_cxx13new_allocatorIiE8allocateEmPKv:
.LFB11355:
	.cfi_startproc
	stp	x29, x30, [sp, -48]!
	.cfi_def_cfa_offset 48
	.cfi_offset 29, -48
	.cfi_offset 30, -40
	mov	x29, sp
	str	x0, [sp, 40]
	str	x1, [sp, 32]
	str	x2, [sp, 24]
	ldr	x0, [sp, 40]
	bl	_ZNK9__gnu_cxx13new_allocatorIiE11_M_max_sizeEv
	mov	x1, x0
	ldr	x0, [sp, 32]
	cmp	x0, x1
	cset	w0, hi
	and	w0, w0, 255
	and	x0, x0, 255
	cmp	x0, 0
	cset	w0, ne
	and	w0, w0, 255
	cmp	w0, 0
	beq	.L239
	ldr	x1, [sp, 32]
	mov	x0, 4611686018427387903
	cmp	x1, x0
	bls	.L240
	bl	_ZSt28__throw_bad_array_new_lengthv
.L240:
	bl	_ZSt17__throw_bad_allocv
.L239:
	ldr	x0, [sp, 32]
	lsl	x0, x0, 2
	bl	_Znwm
	nop
	ldp	x29, x30, [sp], 48
	.cfi_restore 30
	.cfi_restore 29
	.cfi_def_cfa_offset 0
	ret
	.cfi_endproc
.LFE11355:
	.size	_ZN9__gnu_cxx13new_allocatorIiE8allocateEmPKv, .-_ZN9__gnu_cxx13new_allocatorIiE8allocateEmPKv
	.section	.text._ZSt12__relocate_aIPiS0_SaIiEET0_T_S3_S2_RT1_,"axG",@progbits,_ZSt12__relocate_aIPiS0_SaIiEET0_T_S3_S2_RT1_,comdat
	.align	2
	.weak	_ZSt12__relocate_aIPiS0_SaIiEET0_T_S3_S2_RT1_
	.type	_ZSt12__relocate_aIPiS0_SaIiEET0_T_S3_S2_RT1_, %function
_ZSt12__relocate_aIPiS0_SaIiEET0_T_S3_S2_RT1_:
.LFB11357:
	.cfi_startproc
	stp	x29, x30, [sp, -64]!
	.cfi_def_cfa_offset 64
	.cfi_offset 29, -64
	.cfi_offset 30, -56
	mov	x29, sp
	stp	x19, x20, [sp, 16]
	.cfi_offset 19, -48
	.cfi_offset 20, -40
	str	x0, [sp, 56]
	str	x1, [sp, 48]
	str	x2, [sp, 40]
	str	x3, [sp, 32]
	ldr	x0, [sp, 56]
	bl	_ZSt12__niter_baseIPiET_S1_
	mov	x19, x0
	ldr	x0, [sp, 48]
	bl	_ZSt12__niter_baseIPiET_S1_
	mov	x20, x0
	ldr	x0, [sp, 40]
	bl	_ZSt12__niter_baseIPiET_S1_
	ldr	x3, [sp, 32]
	mov	x2, x0
	mov	x1, x20
	mov	x0, x19
	bl	_ZSt14__relocate_a_1IiiENSt9enable_ifIXsrSt24__is_bitwise_relocatableIT_vE5valueEPS2_E4typeES4_S4_S4_RSaIT0_E
	ldp	x19, x20, [sp, 16]
	ldp	x29, x30, [sp], 64
	.cfi_restore 30
	.cfi_restore 29
	.cfi_restore 19
	.cfi_restore 20
	.cfi_def_cfa_offset 0
	ret
	.cfi_endproc
.LFE11357:
	.size	_ZSt12__relocate_aIPiS0_SaIiEET0_T_S3_S2_RT1_, .-_ZSt12__relocate_aIPiS0_SaIiEET0_T_S3_S2_RT1_
	.section	.text._ZNK9__gnu_cxx13new_allocatorIiE8max_sizeEv,"axG",@progbits,_ZNK9__gnu_cxx13new_allocatorIiE8max_sizeEv,comdat
	.align	2
	.weak	_ZNK9__gnu_cxx13new_allocatorIiE8max_sizeEv
	.type	_ZNK9__gnu_cxx13new_allocatorIiE8max_sizeEv, %function
_ZNK9__gnu_cxx13new_allocatorIiE8max_sizeEv:
.LFB11358:
	.cfi_startproc
	stp	x29, x30, [sp, -32]!
	.cfi_def_cfa_offset 32
	.cfi_offset 29, -32
	.cfi_offset 30, -24
	mov	x29, sp
	str	x0, [sp, 24]
	ldr	x0, [sp, 24]
	bl	_ZNK9__gnu_cxx13new_allocatorIiE11_M_max_sizeEv
	ldp	x29, x30, [sp], 32
	.cfi_restore 30
	.cfi_restore 29
	.cfi_def_cfa_offset 0
	ret
	.cfi_endproc
.LFE11358:
	.size	_ZNK9__gnu_cxx13new_allocatorIiE8max_sizeEv, .-_ZNK9__gnu_cxx13new_allocatorIiE8max_sizeEv
	.section	.text._ZN9__gnu_cxx13new_allocatorISt6vectorIiSaIiEEE9constructIS3_JRKS3_EEEvPT_DpOT0_,"axG",@progbits,_ZN9__gnu_cxx13new_allocatorISt6vectorIiSaIiEEE9constructIS3_JRKS3_EEEvPT_DpOT0_,comdat
	.align	2
	.weak	_ZN9__gnu_cxx13new_allocatorISt6vectorIiSaIiEEE9constructIS3_JRKS3_EEEvPT_DpOT0_
	.type	_ZN9__gnu_cxx13new_allocatorISt6vectorIiSaIiEEE9constructIS3_JRKS3_EEEvPT_DpOT0_, %function
_ZN9__gnu_cxx13new_allocatorISt6vectorIiSaIiEEE9constructIS3_JRKS3_EEEvPT_DpOT0_:
.LFB11359:
	.cfi_startproc
	.cfi_personality 0x9b,DW.ref.__gxx_personality_v0
	.cfi_lsda 0x1b,.LLSDA11359
	stp	x29, x30, [sp, -80]!
	.cfi_def_cfa_offset 80
	.cfi_offset 29, -80
	.cfi_offset 30, -72
	mov	x29, sp
	stp	x19, x20, [sp, 16]
	str	x21, [sp, 32]
	.cfi_offset 19, -64
	.cfi_offset 20, -56
	.cfi_offset 21, -48
	str	x0, [sp, 72]
	str	x1, [sp, 64]
	str	x2, [sp, 56]
	ldr	x0, [sp, 56]
	bl	_ZSt7forwardIRKSt6vectorIiSaIiEEEOT_RNSt16remove_referenceIS5_E4typeE
	mov	x21, x0
	ldr	x19, [sp, 64]
	mov	x1, x19
	mov	x0, 24
	bl	_ZnwmPv
	mov	x20, x0
	mov	x1, x21
	mov	x0, x20
.LEHB21:
	bl	_ZNSt6vectorIiSaIiEEC1ERKS1_
.LEHE21:
	b	.L249
.L248:
	mov	x21, x0
	mov	x1, x19
	mov	x0, x20
	bl	_ZdlPvS_
	mov	x0, x21
.LEHB22:
	bl	_Unwind_Resume
.LEHE22:
.L249:
	ldp	x19, x20, [sp, 16]
	ldr	x21, [sp, 32]
	ldp	x29, x30, [sp], 80
	.cfi_restore 30
	.cfi_restore 29
	.cfi_restore 21
	.cfi_restore 19
	.cfi_restore 20
	.cfi_def_cfa_offset 0
	ret
	.cfi_endproc
.LFE11359:
	.section	.gcc_except_table
.LLSDA11359:
	.byte	0xff
	.byte	0xff
	.byte	0x1
	.uleb128 .LLSDACSE11359-.LLSDACSB11359
.LLSDACSB11359:
	.uleb128 .LEHB21-.LFB11359
	.uleb128 .LEHE21-.LEHB21
	.uleb128 .L248-.LFB11359
	.uleb128 0
	.uleb128 .LEHB22-.LFB11359
	.uleb128 .LEHE22-.LEHB22
	.uleb128 0
	.uleb128 0
.LLSDACSE11359:
	.section	.text._ZN9__gnu_cxx13new_allocatorISt6vectorIiSaIiEEE9constructIS3_JRKS3_EEEvPT_DpOT0_,"axG",@progbits,_ZN9__gnu_cxx13new_allocatorISt6vectorIiSaIiEEE9constructIS3_JRKS3_EEEvPT_DpOT0_,comdat
	.size	_ZN9__gnu_cxx13new_allocatorISt6vectorIiSaIiEEE9constructIS3_JRKS3_EEEvPT_DpOT0_, .-_ZN9__gnu_cxx13new_allocatorISt6vectorIiSaIiEEE9constructIS3_JRKS3_EEEvPT_DpOT0_
	.section	.text._ZN9__gnu_cxx13new_allocatorISt6vectorIiSaIiEEE7destroyIS3_EEvPT_,"axG",@progbits,_ZN9__gnu_cxx13new_allocatorISt6vectorIiSaIiEEE7destroyIS3_EEvPT_,comdat
	.align	2
	.weak	_ZN9__gnu_cxx13new_allocatorISt6vectorIiSaIiEEE7destroyIS3_EEvPT_
	.type	_ZN9__gnu_cxx13new_allocatorISt6vectorIiSaIiEEE7destroyIS3_EEvPT_, %function
_ZN9__gnu_cxx13new_allocatorISt6vectorIiSaIiEEE7destroyIS3_EEvPT_:
.LFB11360:
	.cfi_startproc
	stp	x29, x30, [sp, -32]!
	.cfi_def_cfa_offset 32
	.cfi_offset 29, -32
	.cfi_offset 30, -24
	mov	x29, sp
	str	x0, [sp, 24]
	str	x1, [sp, 16]
	ldr	x0, [sp, 16]
	bl	_ZNSt6vectorIiSaIiEED1Ev
	nop
	ldp	x29, x30, [sp], 32
	.cfi_restore 30
	.cfi_restore 29
	.cfi_def_cfa_offset 0
	ret
	.cfi_endproc
.LFE11360:
	.size	_ZN9__gnu_cxx13new_allocatorISt6vectorIiSaIiEEE7destroyIS3_EEvPT_, .-_ZN9__gnu_cxx13new_allocatorISt6vectorIiSaIiEEE7destroyIS3_EEvPT_
	.section	.text._ZSt4moveIRPSt6vectorIiSaIiEEEONSt16remove_referenceIT_E4typeEOS6_,"axG",@progbits,_ZSt4moveIRPSt6vectorIiSaIiEEEONSt16remove_referenceIT_E4typeEOS6_,comdat
	.align	2
	.weak	_ZSt4moveIRPSt6vectorIiSaIiEEEONSt16remove_referenceIT_E4typeEOS6_
	.type	_ZSt4moveIRPSt6vectorIiSaIiEEEONSt16remove_referenceIT_E4typeEOS6_, %function
_ZSt4moveIRPSt6vectorIiSaIiEEEONSt16remove_referenceIT_E4typeEOS6_:
.LFB11361:
	.cfi_startproc
	sub	sp, sp, #16
	.cfi_def_cfa_offset 16
	str	x0, [sp, 8]
	ldr	x0, [sp, 8]
	add	sp, sp, 16
	.cfi_def_cfa_offset 0
	ret
	.cfi_endproc
.LFE11361:
	.size	_ZSt4moveIRPSt6vectorIiSaIiEEEONSt16remove_referenceIT_E4typeEOS6_, .-_ZSt4moveIRPSt6vectorIiSaIiEEEONSt16remove_referenceIT_E4typeEOS6_
	.section	.text._ZNSt13move_iteratorIPSt6vectorIiSaIiEEEC2ES3_,"axG",@progbits,_ZNSt13move_iteratorIPSt6vectorIiSaIiEEEC5ES3_,comdat
	.align	2
	.weak	_ZNSt13move_iteratorIPSt6vectorIiSaIiEEEC2ES3_
	.type	_ZNSt13move_iteratorIPSt6vectorIiSaIiEEEC2ES3_, %function
_ZNSt13move_iteratorIPSt6vectorIiSaIiEEEC2ES3_:
.LFB11363:
	.cfi_startproc
	stp	x29, x30, [sp, -32]!
	.cfi_def_cfa_offset 32
	.cfi_offset 29, -32
	.cfi_offset 30, -24
	mov	x29, sp
	str	x0, [sp, 24]
	str	x1, [sp, 16]
	add	x0, sp, 16
	bl	_ZSt4moveIRPSt6vectorIiSaIiEEEONSt16remove_referenceIT_E4typeEOS6_
	ldr	x1, [x0]
	ldr	x0, [sp, 24]
	str	x1, [x0]
	nop
	ldp	x29, x30, [sp], 32
	.cfi_restore 30
	.cfi_restore 29
	.cfi_def_cfa_offset 0
	ret
	.cfi_endproc
.LFE11363:
	.size	_ZNSt13move_iteratorIPSt6vectorIiSaIiEEEC2ES3_, .-_ZNSt13move_iteratorIPSt6vectorIiSaIiEEEC2ES3_
	.weak	_ZNSt13move_iteratorIPSt6vectorIiSaIiEEEC1ES3_
	.set	_ZNSt13move_iteratorIPSt6vectorIiSaIiEEEC1ES3_,_ZNSt13move_iteratorIPSt6vectorIiSaIiEEEC2ES3_
	.section	.text._ZN9__gnu_cxx14__alloc_traitsISaIiEiE15_S_always_equalEv,"axG",@progbits,_ZN9__gnu_cxx14__alloc_traitsISaIiEiE15_S_always_equalEv,comdat
	.align	2
	.weak	_ZN9__gnu_cxx14__alloc_traitsISaIiEiE15_S_always_equalEv
	.type	_ZN9__gnu_cxx14__alloc_traitsISaIiEiE15_S_always_equalEv, %function
_ZN9__gnu_cxx14__alloc_traitsISaIiEiE15_S_always_equalEv:
.LFB11368:
	.cfi_startproc
	mov	w0, 1
	ret
	.cfi_endproc
.LFE11368:
	.size	_ZN9__gnu_cxx14__alloc_traitsISaIiEiE15_S_always_equalEv, .-_ZN9__gnu_cxx14__alloc_traitsISaIiEiE15_S_always_equalEv
	.section	.text._ZSt18uninitialized_copyISt13move_iteratorIPSt6vectorIiSaIiEEES4_ET0_T_S7_S6_,"axG",@progbits,_ZSt18uninitialized_copyISt13move_iteratorIPSt6vectorIiSaIiEEES4_ET0_T_S7_S6_,comdat
	.align	2
	.weak	_ZSt18uninitialized_copyISt13move_iteratorIPSt6vectorIiSaIiEEES4_ET0_T_S7_S6_
	.type	_ZSt18uninitialized_copyISt13move_iteratorIPSt6vectorIiSaIiEEES4_ET0_T_S7_S6_, %function
_ZSt18uninitialized_copyISt13move_iteratorIPSt6vectorIiSaIiEEES4_ET0_T_S7_S6_:
.LFB11365:
	.cfi_startproc
	stp	x29, x30, [sp, -64]!
	.cfi_def_cfa_offset 64
	.cfi_offset 29, -64
	.cfi_offset 30, -56
	mov	x29, sp
	str	x0, [sp, 40]
	str	x1, [sp, 32]
	str	x2, [sp, 24]
	mov	w0, 1
	strb	w0, [sp, 63]
	ldr	x2, [sp, 24]
	ldr	x1, [sp, 32]
	ldr	x0, [sp, 40]
	bl	_ZNSt20__uninitialized_copyILb0EE13__uninit_copyISt13move_iteratorIPSt6vectorIiSaIiEEES6_EET0_T_S9_S8_
	ldp	x29, x30, [sp], 64
	.cfi_restore 30
	.cfi_restore 29
	.cfi_def_cfa_offset 0
	ret
	.cfi_endproc
.LFE11365:
	.size	_ZSt18uninitialized_copyISt13move_iteratorIPSt6vectorIiSaIiEEES4_ET0_T_S7_S6_, .-_ZSt18uninitialized_copyISt13move_iteratorIPSt6vectorIiSaIiEEES4_ET0_T_S7_S6_
	.section	.text._ZSt12__niter_baseIPSt6vectorIiSaIiEEET_S4_,"axG",@progbits,_ZSt12__niter_baseIPSt6vectorIiSaIiEEET_S4_,comdat
	.align	2
	.weak	_ZSt12__niter_baseIPSt6vectorIiSaIiEEET_S4_
	.type	_ZSt12__niter_baseIPSt6vectorIiSaIiEEET_S4_, %function
_ZSt12__niter_baseIPSt6vectorIiSaIiEEET_S4_:
.LFB11370:
	.cfi_startproc
	sub	sp, sp, #16
	.cfi_def_cfa_offset 16
	str	x0, [sp, 8]
	ldr	x0, [sp, 8]
	add	sp, sp, 16
	.cfi_def_cfa_offset 0
	ret
	.cfi_endproc
.LFE11370:
	.size	_ZSt12__niter_baseIPSt6vectorIiSaIiEEET_S4_, .-_ZSt12__niter_baseIPSt6vectorIiSaIiEEET_S4_
	.section	.text._ZSt23__copy_move_backward_a1ILb1EPSt6vectorIiSaIiEES3_ET1_T0_S5_S4_,"axG",@progbits,_ZSt23__copy_move_backward_a1ILb1EPSt6vectorIiSaIiEES3_ET1_T0_S5_S4_,comdat
	.align	2
	.weak	_ZSt23__copy_move_backward_a1ILb1EPSt6vectorIiSaIiEES3_ET1_T0_S5_S4_
	.type	_ZSt23__copy_move_backward_a1ILb1EPSt6vectorIiSaIiEES3_ET1_T0_S5_S4_, %function
_ZSt23__copy_move_backward_a1ILb1EPSt6vectorIiSaIiEES3_ET1_T0_S5_S4_:
.LFB11371:
	.cfi_startproc
	stp	x29, x30, [sp, -48]!
	.cfi_def_cfa_offset 48
	.cfi_offset 29, -48
	.cfi_offset 30, -40
	mov	x29, sp
	str	x0, [sp, 40]
	str	x1, [sp, 32]
	str	x2, [sp, 24]
	ldr	x2, [sp, 24]
	ldr	x1, [sp, 32]
	ldr	x0, [sp, 40]
	bl	_ZSt23__copy_move_backward_a2ILb1EPSt6vectorIiSaIiEES3_ET1_T0_S5_S4_
	ldp	x29, x30, [sp], 48
	.cfi_restore 30
	.cfi_restore 29
	.cfi_def_cfa_offset 0
	ret
	.cfi_endproc
.LFE11371:
	.size	_ZSt23__copy_move_backward_a1ILb1EPSt6vectorIiSaIiEES3_ET1_T0_S5_S4_, .-_ZSt23__copy_move_backward_a1ILb1EPSt6vectorIiSaIiEES3_ET1_T0_S5_S4_
	.section	.text._ZSt12__niter_wrapIPSt6vectorIiSaIiEEET_RKS4_S4_,"axG",@progbits,_ZSt12__niter_wrapIPSt6vectorIiSaIiEEET_RKS4_S4_,comdat
	.align	2
	.weak	_ZSt12__niter_wrapIPSt6vectorIiSaIiEEET_RKS4_S4_
	.type	_ZSt12__niter_wrapIPSt6vectorIiSaIiEEET_RKS4_S4_, %function
_ZSt12__niter_wrapIPSt6vectorIiSaIiEEET_RKS4_S4_:
.LFB11372:
	.cfi_startproc
	sub	sp, sp, #16
	.cfi_def_cfa_offset 16
	str	x0, [sp, 8]
	str	x1, [sp]
	ldr	x0, [sp]
	add	sp, sp, 16
	.cfi_def_cfa_offset 0
	ret
	.cfi_endproc
.LFE11372:
	.size	_ZSt12__niter_wrapIPSt6vectorIiSaIiEEET_RKS4_S4_, .-_ZSt12__niter_wrapIPSt6vectorIiSaIiEEET_RKS4_S4_
	.section	.text._ZSt9__fill_a1IPSt6vectorIiSaIiEES2_EN9__gnu_cxx11__enable_ifIXntsrSt11__is_scalarIT0_E7__valueEvE6__typeET_SB_RKS7_,"axG",@progbits,_ZSt9__fill_a1IPSt6vectorIiSaIiEES2_EN9__gnu_cxx11__enable_ifIXntsrSt11__is_scalarIT0_E7__valueEvE6__typeET_SB_RKS7_,comdat
	.align	2
	.weak	_ZSt9__fill_a1IPSt6vectorIiSaIiEES2_EN9__gnu_cxx11__enable_ifIXntsrSt11__is_scalarIT0_E7__valueEvE6__typeET_SB_RKS7_
	.type	_ZSt9__fill_a1IPSt6vectorIiSaIiEES2_EN9__gnu_cxx11__enable_ifIXntsrSt11__is_scalarIT0_E7__valueEvE6__typeET_SB_RKS7_, %function
_ZSt9__fill_a1IPSt6vectorIiSaIiEES2_EN9__gnu_cxx11__enable_ifIXntsrSt11__is_scalarIT0_E7__valueEvE6__typeET_SB_RKS7_:
.LFB11373:
	.cfi_startproc
	stp	x29, x30, [sp, -48]!
	.cfi_def_cfa_offset 48
	.cfi_offset 29, -48
	.cfi_offset 30, -40
	mov	x29, sp
	str	x0, [sp, 40]
	str	x1, [sp, 32]
	str	x2, [sp, 24]
	b	.L265
.L266:
	ldr	x1, [sp, 24]
	ldr	x0, [sp, 40]
	bl	_ZNSt6vectorIiSaIiEEaSERKS1_
	ldr	x0, [sp, 40]
	add	x0, x0, 24
	str	x0, [sp, 40]
.L265:
	ldr	x1, [sp, 40]
	ldr	x0, [sp, 32]
	cmp	x1, x0
	bne	.L266
	nop
	nop
	ldp	x29, x30, [sp], 48
	.cfi_restore 30
	.cfi_restore 29
	.cfi_def_cfa_offset 0
	ret
	.cfi_endproc
.LFE11373:
	.size	_ZSt9__fill_a1IPSt6vectorIiSaIiEES2_EN9__gnu_cxx11__enable_ifIXntsrSt11__is_scalarIT0_E7__valueEvE6__typeET_SB_RKS7_, .-_ZSt9__fill_a1IPSt6vectorIiSaIiEES2_EN9__gnu_cxx11__enable_ifIXntsrSt11__is_scalarIT0_E7__valueEvE6__typeET_SB_RKS7_
	.section	.text._ZNSt22__uninitialized_fill_nILb0EE15__uninit_fill_nIPSt6vectorIiSaIiEEmS4_EET_S6_T0_RKT1_,"axG",@progbits,_ZNSt22__uninitialized_fill_nILb0EE15__uninit_fill_nIPSt6vectorIiSaIiEEmS4_EET_S6_T0_RKT1_,comdat
	.align	2
	.weak	_ZNSt22__uninitialized_fill_nILb0EE15__uninit_fill_nIPSt6vectorIiSaIiEEmS4_EET_S6_T0_RKT1_
	.type	_ZNSt22__uninitialized_fill_nILb0EE15__uninit_fill_nIPSt6vectorIiSaIiEEmS4_EET_S6_T0_RKT1_, %function
_ZNSt22__uninitialized_fill_nILb0EE15__uninit_fill_nIPSt6vectorIiSaIiEEmS4_EET_S6_T0_RKT1_:
.LFB11374:
	.cfi_startproc
	.cfi_personality 0x9b,DW.ref.__gxx_personality_v0
	.cfi_lsda 0x1b,.LLSDA11374
	stp	x29, x30, [sp, -80]!
	.cfi_def_cfa_offset 80
	.cfi_offset 29, -80
	.cfi_offset 30, -72
	mov	x29, sp
	str	x19, [sp, 16]
	.cfi_offset 19, -64
	str	x0, [sp, 56]
	str	x1, [sp, 48]
	str	x2, [sp, 40]
	ldr	x0, [sp, 56]
	str	x0, [sp, 72]
	b	.L268
.L269:
	ldr	x0, [sp, 72]
	bl	_ZSt11__addressofISt6vectorIiSaIiEEEPT_RS3_
	ldr	x1, [sp, 40]
.LEHB23:
	bl	_ZSt10_ConstructISt6vectorIiSaIiEEJRKS2_EEvPT_DpOT0_
.LEHE23:
	ldr	x0, [sp, 48]
	sub	x0, x0, #1
	str	x0, [sp, 48]
	ldr	x0, [sp, 72]
	add	x0, x0, 24
	str	x0, [sp, 72]
.L268:
	ldr	x0, [sp, 48]
	cmp	x0, 0
	bne	.L269
	ldr	x0, [sp, 72]
	b	.L275
.L273:
	bl	__cxa_begin_catch
	ldr	x1, [sp, 72]
	ldr	x0, [sp, 56]
.LEHB24:
	bl	_ZSt8_DestroyIPSt6vectorIiSaIiEEEvT_S4_
	bl	__cxa_rethrow
.LEHE24:
.L274:
	mov	x19, x0
	bl	__cxa_end_catch
	mov	x0, x19
.LEHB25:
	bl	_Unwind_Resume
.LEHE25:
.L275:
	ldr	x19, [sp, 16]
	ldp	x29, x30, [sp], 80
	.cfi_restore 30
	.cfi_restore 29
	.cfi_restore 19
	.cfi_def_cfa_offset 0
	ret
	.cfi_endproc
.LFE11374:
	.section	.gcc_except_table
	.align	2
.LLSDA11374:
	.byte	0xff
	.byte	0x9b
	.uleb128 .LLSDATT11374-.LLSDATTD11374
.LLSDATTD11374:
	.byte	0x1
	.uleb128 .LLSDACSE11374-.LLSDACSB11374
.LLSDACSB11374:
	.uleb128 .LEHB23-.LFB11374
	.uleb128 .LEHE23-.LEHB23
	.uleb128 .L273-.LFB11374
	.uleb128 0x1
	.uleb128 .LEHB24-.LFB11374
	.uleb128 .LEHE24-.LEHB24
	.uleb128 .L274-.LFB11374
	.uleb128 0
	.uleb128 .LEHB25-.LFB11374
	.uleb128 .LEHE25-.LEHB25
	.uleb128 0
	.uleb128 0
.LLSDACSE11374:
	.byte	0x1
	.byte	0
	.align	2
	.4byte	0

.LLSDATT11374:
	.section	.text._ZNSt22__uninitialized_fill_nILb0EE15__uninit_fill_nIPSt6vectorIiSaIiEEmS4_EET_S6_T0_RKT1_,"axG",@progbits,_ZNSt22__uninitialized_fill_nILb0EE15__uninit_fill_nIPSt6vectorIiSaIiEEmS4_EET_S6_T0_RKT1_,comdat
	.size	_ZNSt22__uninitialized_fill_nILb0EE15__uninit_fill_nIPSt6vectorIiSaIiEEmS4_EET_S6_T0_RKT1_, .-_ZNSt22__uninitialized_fill_nILb0EE15__uninit_fill_nIPSt6vectorIiSaIiEEmS4_EET_S6_T0_RKT1_
	.section	.text._ZNSt6vectorIS_IiSaIiEESaIS1_EE11_S_max_sizeERKS2_,"axG",@progbits,_ZNSt6vectorIS_IiSaIiEESaIS1_EE11_S_max_sizeERKS2_,comdat
	.align	2
	.weak	_ZNSt6vectorIS_IiSaIiEESaIS1_EE11_S_max_sizeERKS2_
	.type	_ZNSt6vectorIS_IiSaIiEESaIS1_EE11_S_max_sizeERKS2_, %function
_ZNSt6vectorIS_IiSaIiEESaIS1_EE11_S_max_sizeERKS2_:
.LFB11375:
	.cfi_startproc
	stp	x29, x30, [sp, -48]!
	.cfi_def_cfa_offset 48
	.cfi_offset 29, -48
	.cfi_offset 30, -40
	mov	x29, sp
	str	x0, [sp, 24]
	mov	x0, 6148914691236517205
	movk	x0, 0x555, lsl 48
	str	x0, [sp, 40]
	ldr	x0, [sp, 24]
	bl	_ZNSt16allocator_traitsISaISt6vectorIiSaIiEEEE8max_sizeERKS3_
	str	x0, [sp, 32]
	add	x1, sp, 32
	add	x0, sp, 40
	bl	_ZSt3minImERKT_S2_S2_
	ldr	x0, [x0]
	ldp	x29, x30, [sp], 48
	.cfi_restore 30
	.cfi_restore 29
	.cfi_def_cfa_offset 0
	ret
	.cfi_endproc
.LFE11375:
	.size	_ZNSt6vectorIS_IiSaIiEESaIS1_EE11_S_max_sizeERKS2_, .-_ZNSt6vectorIS_IiSaIiEESaIS1_EE11_S_max_sizeERKS2_
	.section	.text._ZNKSt12_Vector_baseISt6vectorIiSaIiEESaIS2_EE19_M_get_Tp_allocatorEv,"axG",@progbits,_ZNKSt12_Vector_baseISt6vectorIiSaIiEESaIS2_EE19_M_get_Tp_allocatorEv,comdat
	.align	2
	.weak	_ZNKSt12_Vector_baseISt6vectorIiSaIiEESaIS2_EE19_M_get_Tp_allocatorEv
	.type	_ZNKSt12_Vector_baseISt6vectorIiSaIiEESaIS2_EE19_M_get_Tp_allocatorEv, %function
_ZNKSt12_Vector_baseISt6vectorIiSaIiEESaIS2_EE19_M_get_Tp_allocatorEv:
.LFB11376:
	.cfi_startproc
	sub	sp, sp, #16
	.cfi_def_cfa_offset 16
	str	x0, [sp, 8]
	ldr	x0, [sp, 8]
	add	sp, sp, 16
	.cfi_def_cfa_offset 0
	ret
	.cfi_endproc
.LFE11376:
	.size	_ZNKSt12_Vector_baseISt6vectorIiSaIiEESaIS2_EE19_M_get_Tp_allocatorEv, .-_ZNKSt12_Vector_baseISt6vectorIiSaIiEESaIS2_EE19_M_get_Tp_allocatorEv
	.section	.text._ZNK9__gnu_cxx13new_allocatorISt6vectorIiSaIiEEE11_M_max_sizeEv,"axG",@progbits,_ZNK9__gnu_cxx13new_allocatorISt6vectorIiSaIiEEE11_M_max_sizeEv,comdat
	.align	2
	.weak	_ZNK9__gnu_cxx13new_allocatorISt6vectorIiSaIiEEE11_M_max_sizeEv
	.type	_ZNK9__gnu_cxx13new_allocatorISt6vectorIiSaIiEEE11_M_max_sizeEv, %function
_ZNK9__gnu_cxx13new_allocatorISt6vectorIiSaIiEEE11_M_max_sizeEv:
.LFB11378:
	.cfi_startproc
	sub	sp, sp, #16
	.cfi_def_cfa_offset 16
	str	x0, [sp, 8]
	mov	x0, 6148914691236517205
	movk	x0, 0x555, lsl 48
	add	sp, sp, 16
	.cfi_def_cfa_offset 0
	ret
	.cfi_endproc
.LFE11378:
	.size	_ZNK9__gnu_cxx13new_allocatorISt6vectorIiSaIiEEE11_M_max_sizeEv, .-_ZNK9__gnu_cxx13new_allocatorISt6vectorIiSaIiEEE11_M_max_sizeEv
	.section	.text._ZN9__gnu_cxx13new_allocatorISt6vectorIiSaIiEEE8allocateEmPKv,"axG",@progbits,_ZN9__gnu_cxx13new_allocatorISt6vectorIiSaIiEEE8allocateEmPKv,comdat
	.align	2
	.weak	_ZN9__gnu_cxx13new_allocatorISt6vectorIiSaIiEEE8allocateEmPKv
	.type	_ZN9__gnu_cxx13new_allocatorISt6vectorIiSaIiEEE8allocateEmPKv, %function
_ZN9__gnu_cxx13new_allocatorISt6vectorIiSaIiEEE8allocateEmPKv:
.LFB11377:
	.cfi_startproc
	stp	x29, x30, [sp, -48]!
	.cfi_def_cfa_offset 48
	.cfi_offset 29, -48
	.cfi_offset 30, -40
	mov	x29, sp
	str	x0, [sp, 40]
	str	x1, [sp, 32]
	str	x2, [sp, 24]
	ldr	x0, [sp, 40]
	bl	_ZNK9__gnu_cxx13new_allocatorISt6vectorIiSaIiEEE11_M_max_sizeEv
	mov	x1, x0
	ldr	x0, [sp, 32]
	cmp	x0, x1
	cset	w0, hi
	and	w0, w0, 255
	and	x0, x0, 255
	cmp	x0, 0
	cset	w0, ne
	and	w0, w0, 255
	cmp	w0, 0
	beq	.L283
	ldr	x1, [sp, 32]
	mov	x0, -6148914691236517206
	movk	x0, 0xaaa, lsl 48
	cmp	x1, x0
	bls	.L284
	bl	_ZSt28__throw_bad_array_new_lengthv
.L284:
	bl	_ZSt17__throw_bad_allocv
.L283:
	ldr	x1, [sp, 32]
	mov	x0, x1
	lsl	x0, x0, 1
	add	x0, x0, x1
	lsl	x0, x0, 3
	bl	_Znwm
	nop
	ldp	x29, x30, [sp], 48
	.cfi_restore 30
	.cfi_restore 29
	.cfi_def_cfa_offset 0
	ret
	.cfi_endproc
.LFE11377:
	.size	_ZN9__gnu_cxx13new_allocatorISt6vectorIiSaIiEEE8allocateEmPKv, .-_ZN9__gnu_cxx13new_allocatorISt6vectorIiSaIiEEE8allocateEmPKv
	.section	.text._ZNSt12_Destroy_auxILb0EE9__destroyIPSt6vectorIiSaIiEEEEvT_S6_,"axG",@progbits,_ZNSt12_Destroy_auxILb0EE9__destroyIPSt6vectorIiSaIiEEEEvT_S6_,comdat
	.align	2
	.weak	_ZNSt12_Destroy_auxILb0EE9__destroyIPSt6vectorIiSaIiEEEEvT_S6_
	.type	_ZNSt12_Destroy_auxILb0EE9__destroyIPSt6vectorIiSaIiEEEEvT_S6_, %function
_ZNSt12_Destroy_auxILb0EE9__destroyIPSt6vectorIiSaIiEEEEvT_S6_:
.LFB11379:
	.cfi_startproc
	stp	x29, x30, [sp, -32]!
	.cfi_def_cfa_offset 32
	.cfi_offset 29, -32
	.cfi_offset 30, -24
	mov	x29, sp
	str	x0, [sp, 24]
	str	x1, [sp, 16]
	b	.L287
.L288:
	ldr	x0, [sp, 24]
	bl	_ZSt11__addressofISt6vectorIiSaIiEEEPT_RS3_
	bl	_ZSt8_DestroyISt6vectorIiSaIiEEEvPT_
	ldr	x0, [sp, 24]
	add	x0, x0, 24
	str	x0, [sp, 24]
.L287:
	ldr	x1, [sp, 24]
	ldr	x0, [sp, 16]
	cmp	x1, x0
	bne	.L288
	nop
	nop
	ldp	x29, x30, [sp], 32
	.cfi_restore 30
	.cfi_restore 29
	.cfi_def_cfa_offset 0
	ret
	.cfi_endproc
.LFE11379:
	.size	_ZNSt12_Destroy_auxILb0EE9__destroyIPSt6vectorIiSaIiEEEEvT_S6_, .-_ZNSt12_Destroy_auxILb0EE9__destroyIPSt6vectorIiSaIiEEEEvT_S6_
	.section	.text._ZSt10_ConstructIiJEEvPT_DpOT0_,"axG",@progbits,_ZSt10_ConstructIiJEEvPT_DpOT0_,comdat
	.align	2
	.weak	_ZSt10_ConstructIiJEEvPT_DpOT0_
	.type	_ZSt10_ConstructIiJEEvPT_DpOT0_, %function
_ZSt10_ConstructIiJEEvPT_DpOT0_:
.LFB11485:
	.cfi_startproc
	stp	x29, x30, [sp, -32]!
	.cfi_def_cfa_offset 32
	.cfi_offset 29, -32
	.cfi_offset 30, -24
	mov	x29, sp
	str	x0, [sp, 24]
	ldr	x0, [sp, 24]
	mov	x1, x0
	mov	x0, 4
	bl	_ZnwmPv
	str	wzr, [x0]
	nop
	ldp	x29, x30, [sp], 32
	.cfi_restore 30
	.cfi_restore 29
	.cfi_def_cfa_offset 0
	ret
	.cfi_endproc
.LFE11485:
	.size	_ZSt10_ConstructIiJEEvPT_DpOT0_, .-_ZSt10_ConstructIiJEEvPT_DpOT0_
	.section	.text._ZSt6fill_nIPimiET_S1_T0_RKT1_,"axG",@progbits,_ZSt6fill_nIPimiET_S1_T0_RKT1_,comdat
	.align	2
	.weak	_ZSt6fill_nIPimiET_S1_T0_RKT1_
	.type	_ZSt6fill_nIPimiET_S1_T0_RKT1_, %function
_ZSt6fill_nIPimiET_S1_T0_RKT1_:
.LFB11486:
	.cfi_startproc
	stp	x29, x30, [sp, -80]!
	.cfi_def_cfa_offset 80
	.cfi_offset 29, -80
	.cfi_offset 30, -72
	mov	x29, sp
	stp	x19, x20, [sp, 16]
	str	x21, [sp, 32]
	.cfi_offset 19, -64
	.cfi_offset 20, -56
	.cfi_offset 21, -48
	str	x0, [sp, 72]
	str	x1, [sp, 64]
	str	x2, [sp, 56]
	ldr	x19, [sp, 72]
	ldr	x0, [sp, 64]
	bl	_ZSt17__size_to_integerm
	mov	x20, x0
	add	x0, sp, 72
	bl	_ZSt19__iterator_categoryIPiENSt15iterator_traitsIT_E17iterator_categoryERKS2_
	mov	w3, w21
	ldr	x2, [sp, 56]
	mov	x1, x20
	mov	x0, x19
	bl	_ZSt10__fill_n_aIPimiET_S1_T0_RKT1_St26random_access_iterator_tag
	ldp	x19, x20, [sp, 16]
	ldr	x21, [sp, 32]
	ldp	x29, x30, [sp], 80
	.cfi_restore 30
	.cfi_restore 29
	.cfi_restore 21
	.cfi_restore 19
	.cfi_restore 20
	.cfi_def_cfa_offset 0
	ret
	.cfi_endproc
.LFE11486:
	.size	_ZSt6fill_nIPimiET_S1_T0_RKT1_, .-_ZSt6fill_nIPimiET_S1_T0_RKT1_
	.section	.text._ZSt12__niter_baseIPiET_S1_,"axG",@progbits,_ZSt12__niter_baseIPiET_S1_,comdat
	.align	2
	.weak	_ZSt12__niter_baseIPiET_S1_
	.type	_ZSt12__niter_baseIPiET_S1_, %function
_ZSt12__niter_baseIPiET_S1_:
.LFB11487:
	.cfi_startproc
	sub	sp, sp, #16
	.cfi_def_cfa_offset 16
	str	x0, [sp, 8]
	ldr	x0, [sp, 8]
	add	sp, sp, 16
	.cfi_def_cfa_offset 0
	ret
	.cfi_endproc
.LFE11487:
	.size	_ZSt12__niter_baseIPiET_S1_, .-_ZSt12__niter_baseIPiET_S1_
	.section	.text._ZSt14__relocate_a_1IiiENSt9enable_ifIXsrSt24__is_bitwise_relocatableIT_vE5valueEPS2_E4typeES4_S4_S4_RSaIT0_E,"axG",@progbits,_ZSt14__relocate_a_1IiiENSt9enable_ifIXsrSt24__is_bitwise_relocatableIT_vE5valueEPS2_E4typeES4_S4_S4_RSaIT0_E,comdat
	.align	2
	.weak	_ZSt14__relocate_a_1IiiENSt9enable_ifIXsrSt24__is_bitwise_relocatableIT_vE5valueEPS2_E4typeES4_S4_S4_RSaIT0_E
	.type	_ZSt14__relocate_a_1IiiENSt9enable_ifIXsrSt24__is_bitwise_relocatableIT_vE5valueEPS2_E4typeES4_S4_S4_RSaIT0_E, %function
_ZSt14__relocate_a_1IiiENSt9enable_ifIXsrSt24__is_bitwise_relocatableIT_vE5valueEPS2_E4typeES4_S4_S4_RSaIT0_E:
.LFB11488:
	.cfi_startproc
	stp	x29, x30, [sp, -64]!
	.cfi_def_cfa_offset 64
	.cfi_offset 29, -64
	.cfi_offset 30, -56
	mov	x29, sp
	str	x0, [sp, 40]
	str	x1, [sp, 32]
	str	x2, [sp, 24]
	str	x3, [sp, 16]
	ldr	x1, [sp, 32]
	ldr	x0, [sp, 40]
	sub	x0, x1, x0
	asr	x0, x0, 2
	str	x0, [sp, 56]
	ldr	x0, [sp, 56]
	cmp	x0, 0
	ble	.L295
	ldr	x0, [sp, 56]
	lsl	x0, x0, 2
	mov	x2, x0
	ldr	x1, [sp, 40]
	ldr	x0, [sp, 24]
	bl	memmove
.L295:
	ldr	x0, [sp, 56]
	lsl	x0, x0, 2
	ldr	x1, [sp, 24]
	add	x0, x1, x0
	ldp	x29, x30, [sp], 64
	.cfi_restore 30
	.cfi_restore 29
	.cfi_def_cfa_offset 0
	ret
	.cfi_endproc
.LFE11488:
	.size	_ZSt14__relocate_a_1IiiENSt9enable_ifIXsrSt24__is_bitwise_relocatableIT_vE5valueEPS2_E4typeES4_S4_S4_RSaIT0_E, .-_ZSt14__relocate_a_1IiiENSt9enable_ifIXsrSt24__is_bitwise_relocatableIT_vE5valueEPS2_E4typeES4_S4_S4_RSaIT0_E
	.section	.text._ZNSt6vectorIiSaIiEEC2ERKS1_,"axG",@progbits,_ZNSt6vectorIiSaIiEEC5ERKS1_,comdat
	.align	2
	.weak	_ZNSt6vectorIiSaIiEEC2ERKS1_
	.type	_ZNSt6vectorIiSaIiEEC2ERKS1_, %function
_ZNSt6vectorIiSaIiEEC2ERKS1_:
.LFB11490:
	.cfi_startproc
	.cfi_personality 0x9b,DW.ref.__gxx_personality_v0
	.cfi_lsda 0x1b,.LLSDA11490
	stp	x29, x30, [sp, -80]!
	.cfi_def_cfa_offset 80
	.cfi_offset 29, -80
	.cfi_offset 30, -72
	mov	x29, sp
	stp	x19, x20, [sp, 16]
	str	x21, [sp, 32]
	.cfi_offset 19, -64
	.cfi_offset 20, -56
	.cfi_offset 21, -48
	str	x0, [sp, 56]
	str	x1, [sp, 48]
	ldr	x19, [sp, 56]
	ldr	x0, [sp, 48]
	bl	_ZNKSt6vectorIiSaIiEE4sizeEv
	mov	x20, x0
	ldr	x0, [sp, 48]
	bl	_ZNKSt12_Vector_baseIiSaIiEE19_M_get_Tp_allocatorEv
	mov	x1, x0
	add	x0, sp, 72
	mov	x8, x0
	mov	x0, x1
.LEHB26:
	bl	_ZN9__gnu_cxx14__alloc_traitsISaIiEiE17_S_select_on_copyERKS1_
.LEHE26:
	add	x0, sp, 72
	mov	x2, x0
	mov	x1, x20
	mov	x0, x19
.LEHB27:
	bl	_ZNSt12_Vector_baseIiSaIiEEC2EmRKS0_
.LEHE27:
	add	x0, sp, 72
	bl	_ZNSaIiED1Ev
	ldr	x0, [sp, 48]
	bl	_ZNKSt6vectorIiSaIiEE5beginEv
	mov	x20, x0
	ldr	x0, [sp, 48]
	bl	_ZNKSt6vectorIiSaIiEE3endEv
	mov	x21, x0
	ldr	x0, [sp, 56]
	ldr	x19, [x0]
	ldr	x0, [sp, 56]
	bl	_ZNSt12_Vector_baseIiSaIiEE19_M_get_Tp_allocatorEv
	mov	x3, x0
	mov	x2, x19
	mov	x1, x21
	mov	x0, x20
.LEHB28:
	bl	_ZSt22__uninitialized_copy_aIN9__gnu_cxx17__normal_iteratorIPKiSt6vectorIiSaIiEEEEPiiET0_T_SA_S9_RSaIT1_E
.LEHE28:
	mov	x1, x0
	ldr	x0, [sp, 56]
	str	x1, [x0, 8]
	b	.L302
.L300:
	mov	x19, x0
	add	x0, sp, 72
	bl	_ZNSaIiED1Ev
	mov	x0, x19
.LEHB29:
	bl	_Unwind_Resume
.L301:
	mov	x19, x0
	ldr	x0, [sp, 56]
	bl	_ZNSt12_Vector_baseIiSaIiEED2Ev
	mov	x0, x19
	bl	_Unwind_Resume
.LEHE29:
.L302:
	ldp	x19, x20, [sp, 16]
	ldr	x21, [sp, 32]
	ldp	x29, x30, [sp], 80
	.cfi_restore 30
	.cfi_restore 29
	.cfi_restore 21
	.cfi_restore 19
	.cfi_restore 20
	.cfi_def_cfa_offset 0
	ret
	.cfi_endproc
.LFE11490:
	.section	.gcc_except_table
.LLSDA11490:
	.byte	0xff
	.byte	0xff
	.byte	0x1
	.uleb128 .LLSDACSE11490-.LLSDACSB11490
.LLSDACSB11490:
	.uleb128 .LEHB26-.LFB11490
	.uleb128 .LEHE26-.LEHB26
	.uleb128 0
	.uleb128 0
	.uleb128 .LEHB27-.LFB11490
	.uleb128 .LEHE27-.LEHB27
	.uleb128 .L300-.LFB11490
	.uleb128 0
	.uleb128 .LEHB28-.LFB11490
	.uleb128 .LEHE28-.LEHB28
	.uleb128 .L301-.LFB11490
	.uleb128 0
	.uleb128 .LEHB29-.LFB11490
	.uleb128 .LEHE29-.LEHB29
	.uleb128 0
	.uleb128 0
.LLSDACSE11490:
	.section	.text._ZNSt6vectorIiSaIiEEC2ERKS1_,"axG",@progbits,_ZNSt6vectorIiSaIiEEC5ERKS1_,comdat
	.size	_ZNSt6vectorIiSaIiEEC2ERKS1_, .-_ZNSt6vectorIiSaIiEEC2ERKS1_
	.weak	_ZNSt6vectorIiSaIiEEC1ERKS1_
	.set	_ZNSt6vectorIiSaIiEEC1ERKS1_,_ZNSt6vectorIiSaIiEEC2ERKS1_
	.section	.text._ZNSt13move_iteratorIPSt6vectorIiSaIiEEEppEv,"axG",@progbits,_ZNSt13move_iteratorIPSt6vectorIiSaIiEEEppEv,comdat
	.align	2
	.weak	_ZNSt13move_iteratorIPSt6vectorIiSaIiEEEppEv
	.type	_ZNSt13move_iteratorIPSt6vectorIiSaIiEEEppEv, %function
_ZNSt13move_iteratorIPSt6vectorIiSaIiEEEppEv:
.LFB11493:
	.cfi_startproc
	sub	sp, sp, #16
	.cfi_def_cfa_offset 16
	str	x0, [sp, 8]
	ldr	x0, [sp, 8]
	ldr	x0, [x0]
	add	x1, x0, 24
	ldr	x0, [sp, 8]
	str	x1, [x0]
	ldr	x0, [sp, 8]
	add	sp, sp, 16
	.cfi_def_cfa_offset 0
	ret
	.cfi_endproc
.LFE11493:
	.size	_ZNSt13move_iteratorIPSt6vectorIiSaIiEEEppEv, .-_ZNSt13move_iteratorIPSt6vectorIiSaIiEEEppEv
	.section	.text._ZNSt20__uninitialized_copyILb0EE13__uninit_copyISt13move_iteratorIPSt6vectorIiSaIiEEES6_EET0_T_S9_S8_,"axG",@progbits,_ZNSt20__uninitialized_copyILb0EE13__uninit_copyISt13move_iteratorIPSt6vectorIiSaIiEEES6_EET0_T_S9_S8_,comdat
	.align	2
	.weak	_ZNSt20__uninitialized_copyILb0EE13__uninit_copyISt13move_iteratorIPSt6vectorIiSaIiEEES6_EET0_T_S9_S8_
	.type	_ZNSt20__uninitialized_copyILb0EE13__uninit_copyISt13move_iteratorIPSt6vectorIiSaIiEEES6_EET0_T_S9_S8_, %function
_ZNSt20__uninitialized_copyILb0EE13__uninit_copyISt13move_iteratorIPSt6vectorIiSaIiEEES6_EET0_T_S9_S8_:
.LFB11492:
	.cfi_startproc
	.cfi_personality 0x9b,DW.ref.__gxx_personality_v0
	.cfi_lsda 0x1b,.LLSDA11492
	stp	x29, x30, [sp, -80]!
	.cfi_def_cfa_offset 80
	.cfi_offset 29, -80
	.cfi_offset 30, -72
	mov	x29, sp
	str	x19, [sp, 16]
	.cfi_offset 19, -64
	str	x0, [sp, 56]
	str	x1, [sp, 48]
	str	x2, [sp, 40]
	ldr	x0, [sp, 40]
	str	x0, [sp, 72]
	b	.L306
.L307:
	ldr	x0, [sp, 72]
	bl	_ZSt11__addressofISt6vectorIiSaIiEEEPT_RS3_
	mov	x19, x0
	add	x0, sp, 56
	bl	_ZNKSt13move_iteratorIPSt6vectorIiSaIiEEEdeEv
	mov	x1, x0
	mov	x0, x19
	bl	_ZSt10_ConstructISt6vectorIiSaIiEEJS2_EEvPT_DpOT0_
	add	x0, sp, 56
	bl	_ZNSt13move_iteratorIPSt6vectorIiSaIiEEEppEv
	ldr	x0, [sp, 72]
	add	x0, x0, 24
	str	x0, [sp, 72]
.L306:
	add	x1, sp, 48
	add	x0, sp, 56
.LEHB30:
	bl	_ZStneIPSt6vectorIiSaIiEEEbRKSt13move_iteratorIT_ES8_
.LEHE30:
	and	w0, w0, 255
	cmp	w0, 0
	bne	.L307
	ldr	x0, [sp, 72]
	b	.L313
.L311:
	bl	__cxa_begin_catch
	ldr	x1, [sp, 72]
	ldr	x0, [sp, 40]
.LEHB31:
	bl	_ZSt8_DestroyIPSt6vectorIiSaIiEEEvT_S4_
	bl	__cxa_rethrow
.LEHE31:
.L312:
	mov	x19, x0
	bl	__cxa_end_catch
	mov	x0, x19
.LEHB32:
	bl	_Unwind_Resume
.LEHE32:
.L313:
	ldr	x19, [sp, 16]
	ldp	x29, x30, [sp], 80
	.cfi_restore 30
	.cfi_restore 29
	.cfi_restore 19
	.cfi_def_cfa_offset 0
	ret
	.cfi_endproc
.LFE11492:
	.section	.gcc_except_table
	.align	2
.LLSDA11492:
	.byte	0xff
	.byte	0x9b
	.uleb128 .LLSDATT11492-.LLSDATTD11492
.LLSDATTD11492:
	.byte	0x1
	.uleb128 .LLSDACSE11492-.LLSDACSB11492
.LLSDACSB11492:
	.uleb128 .LEHB30-.LFB11492
	.uleb128 .LEHE30-.LEHB30
	.uleb128 .L311-.LFB11492
	.uleb128 0x1
	.uleb128 .LEHB31-.LFB11492
	.uleb128 .LEHE31-.LEHB31
	.uleb128 .L312-.LFB11492
	.uleb128 0
	.uleb128 .LEHB32-.LFB11492
	.uleb128 .LEHE32-.LEHB32
	.uleb128 0
	.uleb128 0
.LLSDACSE11492:
	.byte	0x1
	.byte	0
	.align	2
	.4byte	0

.LLSDATT11492:
	.section	.text._ZNSt20__uninitialized_copyILb0EE13__uninit_copyISt13move_iteratorIPSt6vectorIiSaIiEEES6_EET0_T_S9_S8_,"axG",@progbits,_ZNSt20__uninitialized_copyILb0EE13__uninit_copyISt13move_iteratorIPSt6vectorIiSaIiEEES6_EET0_T_S9_S8_,comdat
	.size	_ZNSt20__uninitialized_copyILb0EE13__uninit_copyISt13move_iteratorIPSt6vectorIiSaIiEEES6_EET0_T_S9_S8_, .-_ZNSt20__uninitialized_copyILb0EE13__uninit_copyISt13move_iteratorIPSt6vectorIiSaIiEEES6_EET0_T_S9_S8_
	.section	.text._ZSt23__copy_move_backward_a2ILb1EPSt6vectorIiSaIiEES3_ET1_T0_S5_S4_,"axG",@progbits,_ZSt23__copy_move_backward_a2ILb1EPSt6vectorIiSaIiEES3_ET1_T0_S5_S4_,comdat
	.align	2
	.weak	_ZSt23__copy_move_backward_a2ILb1EPSt6vectorIiSaIiEES3_ET1_T0_S5_S4_
	.type	_ZSt23__copy_move_backward_a2ILb1EPSt6vectorIiSaIiEES3_ET1_T0_S5_S4_, %function
_ZSt23__copy_move_backward_a2ILb1EPSt6vectorIiSaIiEES3_ET1_T0_S5_S4_:
.LFB11494:
	.cfi_startproc
	stp	x29, x30, [sp, -48]!
	.cfi_def_cfa_offset 48
	.cfi_offset 29, -48
	.cfi_offset 30, -40
	mov	x29, sp
	str	x0, [sp, 40]
	str	x1, [sp, 32]
	str	x2, [sp, 24]
	ldr	x2, [sp, 24]
	ldr	x1, [sp, 32]
	ldr	x0, [sp, 40]
	bl	_ZNSt20__copy_move_backwardILb1ELb0ESt26random_access_iterator_tagE13__copy_move_bIPSt6vectorIiSaIiEES6_EET0_T_S8_S7_
	ldp	x29, x30, [sp], 48
	.cfi_restore 30
	.cfi_restore 29
	.cfi_def_cfa_offset 0
	ret
	.cfi_endproc
.LFE11494:
	.size	_ZSt23__copy_move_backward_a2ILb1EPSt6vectorIiSaIiEES3_ET1_T0_S5_S4_, .-_ZSt23__copy_move_backward_a2ILb1EPSt6vectorIiSaIiEES3_ET1_T0_S5_S4_
	.section	.text._ZN9__gnu_cxx14__alloc_traitsISaIiEiE27_S_propagate_on_copy_assignEv,"axG",@progbits,_ZN9__gnu_cxx14__alloc_traitsISaIiEiE27_S_propagate_on_copy_assignEv,comdat
	.align	2
	.weak	_ZN9__gnu_cxx14__alloc_traitsISaIiEiE27_S_propagate_on_copy_assignEv
	.type	_ZN9__gnu_cxx14__alloc_traitsISaIiEiE27_S_propagate_on_copy_assignEv, %function
_ZN9__gnu_cxx14__alloc_traitsISaIiEiE27_S_propagate_on_copy_assignEv:
.LFB11496:
	.cfi_startproc
	mov	w0, 0
	ret
	.cfi_endproc
.LFE11496:
	.size	_ZN9__gnu_cxx14__alloc_traitsISaIiEiE27_S_propagate_on_copy_assignEv, .-_ZN9__gnu_cxx14__alloc_traitsISaIiEiE27_S_propagate_on_copy_assignEv
	.section	.text._ZNSt6vectorIiSaIiEEaSERKS1_,"axG",@progbits,_ZNSt6vectorIiSaIiEEaSERKS1_,comdat
	.align	2
	.weak	_ZNSt6vectorIiSaIiEEaSERKS1_
	.type	_ZNSt6vectorIiSaIiEEaSERKS1_, %function
_ZNSt6vectorIiSaIiEEaSERKS1_:
.LFB11495:
	.cfi_startproc
	stp	x29, x30, [sp, -80]!
	.cfi_def_cfa_offset 80
	.cfi_offset 29, -80
	.cfi_offset 30, -72
	mov	x29, sp
	stp	x19, x20, [sp, 16]
	str	x21, [sp, 32]
	.cfi_offset 19, -64
	.cfi_offset 20, -56
	.cfi_offset 21, -48
	str	x0, [sp, 56]
	str	x1, [sp, 48]
	ldr	x1, [sp, 48]
	ldr	x0, [sp, 56]
	cmp	x1, x0
	beq	.L319
	bl	_ZN9__gnu_cxx14__alloc_traitsISaIiEiE27_S_propagate_on_copy_assignEv
	and	w0, w0, 255
	cmp	w0, 0
	beq	.L320
	bl	_ZN9__gnu_cxx14__alloc_traitsISaIiEiE15_S_always_equalEv
	and	w0, w0, 255
	eor	w0, w0, 1
	and	w0, w0, 255
	cmp	w0, 0
	beq	.L321
	ldr	x0, [sp, 56]
	bl	_ZNSt12_Vector_baseIiSaIiEE19_M_get_Tp_allocatorEv
	mov	x19, x0
	ldr	x0, [sp, 48]
	bl	_ZNKSt12_Vector_baseIiSaIiEE19_M_get_Tp_allocatorEv
	mov	x1, x0
	mov	x0, x19
	bl	_ZStneRKSaIiES1_
	and	w0, w0, 255
	cmp	w0, 0
	beq	.L321
	mov	w0, 1
	b	.L322
.L321:
	mov	w0, 0
.L322:
	cmp	w0, 0
	beq	.L323
	ldr	x0, [sp, 56]
	bl	_ZNSt6vectorIiSaIiEE5clearEv
	ldr	x3, [sp, 56]
	ldr	x0, [sp, 56]
	ldr	x4, [x0]
	ldr	x0, [sp, 56]
	ldr	x1, [x0, 16]
	ldr	x0, [sp, 56]
	ldr	x0, [x0]
	sub	x0, x1, x0
	asr	x0, x0, 2
	mov	x2, x0
	mov	x1, x4
	mov	x0, x3
	bl	_ZNSt12_Vector_baseIiSaIiEE13_M_deallocateEPim
	ldr	x0, [sp, 56]
	str	xzr, [x0]
	ldr	x0, [sp, 56]
	str	xzr, [x0, 8]
	ldr	x0, [sp, 56]
	str	xzr, [x0, 16]
.L323:
	ldr	x0, [sp, 56]
	bl	_ZNSt12_Vector_baseIiSaIiEE19_M_get_Tp_allocatorEv
	mov	x19, x0
	ldr	x0, [sp, 48]
	bl	_ZNKSt12_Vector_baseIiSaIiEE19_M_get_Tp_allocatorEv
	mov	x1, x0
	mov	x0, x19
	bl	_ZSt15__alloc_on_copyISaIiEEvRT_RKS1_
.L320:
	ldr	x0, [sp, 48]
	bl	_ZNKSt6vectorIiSaIiEE4sizeEv
	str	x0, [sp, 72]
	ldr	x0, [sp, 56]
	bl	_ZNKSt6vectorIiSaIiEE8capacityEv
	mov	x1, x0
	ldr	x0, [sp, 72]
	cmp	x0, x1
	cset	w0, hi
	and	w0, w0, 255
	cmp	w0, 0
	beq	.L324
	ldr	x0, [sp, 48]
	bl	_ZNKSt6vectorIiSaIiEE5beginEv
	mov	x19, x0
	ldr	x0, [sp, 48]
	bl	_ZNKSt6vectorIiSaIiEE3endEv
	mov	x3, x0
	mov	x2, x19
	ldr	x1, [sp, 72]
	ldr	x0, [sp, 56]
	bl	_ZNSt6vectorIiSaIiEE20_M_allocate_and_copyIN9__gnu_cxx17__normal_iteratorIPKiS1_EEEEPimT_S9_
	str	x0, [sp, 64]
	ldr	x0, [sp, 56]
	ldr	x19, [x0]
	ldr	x0, [sp, 56]
	ldr	x20, [x0, 8]
	ldr	x0, [sp, 56]
	bl	_ZNSt12_Vector_baseIiSaIiEE19_M_get_Tp_allocatorEv
	mov	x2, x0
	mov	x1, x20
	mov	x0, x19
	bl	_ZSt8_DestroyIPiiEvT_S1_RSaIT0_E
	ldr	x3, [sp, 56]
	ldr	x0, [sp, 56]
	ldr	x4, [x0]
	ldr	x0, [sp, 56]
	ldr	x1, [x0, 16]
	ldr	x0, [sp, 56]
	ldr	x0, [x0]
	sub	x0, x1, x0
	asr	x0, x0, 2
	mov	x2, x0
	mov	x1, x4
	mov	x0, x3
	bl	_ZNSt12_Vector_baseIiSaIiEE13_M_deallocateEPim
	ldr	x0, [sp, 56]
	ldr	x1, [sp, 64]
	str	x1, [x0]
	ldr	x0, [sp, 56]
	ldr	x1, [x0]
	ldr	x0, [sp, 72]
	lsl	x0, x0, 2
	add	x1, x1, x0
	ldr	x0, [sp, 56]
	str	x1, [x0, 16]
	b	.L325
.L324:
	ldr	x0, [sp, 56]
	bl	_ZNKSt6vectorIiSaIiEE4sizeEv
	mov	x1, x0
	ldr	x0, [sp, 72]
	cmp	x0, x1
	cset	w0, ls
	and	w0, w0, 255
	cmp	w0, 0
	beq	.L326
	ldr	x0, [sp, 48]
	bl	_ZNKSt6vectorIiSaIiEE5beginEv
	mov	x19, x0
	ldr	x0, [sp, 48]
	bl	_ZNKSt6vectorIiSaIiEE3endEv
	mov	x20, x0
	ldr	x0, [sp, 56]
	bl	_ZNSt6vectorIiSaIiEE5beginEv
	mov	x2, x0
	mov	x1, x20
	mov	x0, x19
	bl	_ZSt4copyIN9__gnu_cxx17__normal_iteratorIPKiSt6vectorIiSaIiEEEENS1_IPiS6_EEET0_T_SB_SA_
	mov	x19, x0
	ldr	x0, [sp, 56]
	bl	_ZNSt6vectorIiSaIiEE3endEv
	mov	x20, x0
	ldr	x0, [sp, 56]
	bl	_ZNSt12_Vector_baseIiSaIiEE19_M_get_Tp_allocatorEv
	mov	x2, x0
	mov	x1, x20
	mov	x0, x19
	bl	_ZSt8_DestroyIN9__gnu_cxx17__normal_iteratorIPiSt6vectorIiSaIiEEEEiEvT_S7_RSaIT0_E
	b	.L325
.L326:
	ldr	x0, [sp, 48]
	ldr	x20, [x0]
	ldr	x0, [sp, 48]
	ldr	x19, [x0]
	ldr	x0, [sp, 56]
	bl	_ZNKSt6vectorIiSaIiEE4sizeEv
	lsl	x0, x0, 2
	add	x1, x19, x0
	ldr	x0, [sp, 56]
	ldr	x0, [x0]
	mov	x2, x0
	mov	x0, x20
	bl	_ZSt4copyIPiS0_ET0_T_S2_S1_
	ldr	x0, [sp, 48]
	ldr	x19, [x0]
	ldr	x0, [sp, 56]
	bl	_ZNKSt6vectorIiSaIiEE4sizeEv
	lsl	x0, x0, 2
	add	x19, x19, x0
	ldr	x0, [sp, 48]
	ldr	x20, [x0, 8]
	ldr	x0, [sp, 56]
	ldr	x21, [x0, 8]
	ldr	x0, [sp, 56]
	bl	_ZNSt12_Vector_baseIiSaIiEE19_M_get_Tp_allocatorEv
	mov	x3, x0
	mov	x2, x21
	mov	x1, x20
	mov	x0, x19
	bl	_ZSt22__uninitialized_copy_aIPiS0_iET0_T_S2_S1_RSaIT1_E
.L325:
	ldr	x0, [sp, 56]
	ldr	x1, [x0]
	ldr	x0, [sp, 72]
	lsl	x0, x0, 2
	add	x1, x1, x0
	ldr	x0, [sp, 56]
	str	x1, [x0, 8]
.L319:
	ldr	x0, [sp, 56]
	ldp	x19, x20, [sp, 16]
	ldr	x21, [sp, 32]
	ldp	x29, x30, [sp], 80
	.cfi_restore 30
	.cfi_restore 29
	.cfi_restore 21
	.cfi_restore 19
	.cfi_restore 20
	.cfi_def_cfa_offset 0
	ret
	.cfi_endproc
.LFE11495:
	.size	_ZNSt6vectorIiSaIiEEaSERKS1_, .-_ZNSt6vectorIiSaIiEEaSERKS1_
	.section	.text._ZSt11__addressofISt6vectorIiSaIiEEEPT_RS3_,"axG",@progbits,_ZSt11__addressofISt6vectorIiSaIiEEEPT_RS3_,comdat
	.align	2
	.weak	_ZSt11__addressofISt6vectorIiSaIiEEEPT_RS3_
	.type	_ZSt11__addressofISt6vectorIiSaIiEEEPT_RS3_, %function
_ZSt11__addressofISt6vectorIiSaIiEEEPT_RS3_:
.LFB11497:
	.cfi_startproc
	sub	sp, sp, #16
	.cfi_def_cfa_offset 16
	str	x0, [sp, 8]
	ldr	x0, [sp, 8]
	add	sp, sp, 16
	.cfi_def_cfa_offset 0
	ret
	.cfi_endproc
.LFE11497:
	.size	_ZSt11__addressofISt6vectorIiSaIiEEEPT_RS3_, .-_ZSt11__addressofISt6vectorIiSaIiEEEPT_RS3_
	.section	.text._ZSt10_ConstructISt6vectorIiSaIiEEJRKS2_EEvPT_DpOT0_,"axG",@progbits,_ZSt10_ConstructISt6vectorIiSaIiEEJRKS2_EEvPT_DpOT0_,comdat
	.align	2
	.weak	_ZSt10_ConstructISt6vectorIiSaIiEEJRKS2_EEvPT_DpOT0_
	.type	_ZSt10_ConstructISt6vectorIiSaIiEEJRKS2_EEvPT_DpOT0_, %function
_ZSt10_ConstructISt6vectorIiSaIiEEJRKS2_EEvPT_DpOT0_:
.LFB11498:
	.cfi_startproc
	.cfi_personality 0x9b,DW.ref.__gxx_personality_v0
	.cfi_lsda 0x1b,.LLSDA11498
	stp	x29, x30, [sp, -64]!
	.cfi_def_cfa_offset 64
	.cfi_offset 29, -64
	.cfi_offset 30, -56
	mov	x29, sp
	stp	x19, x20, [sp, 16]
	str	x21, [sp, 32]
	.cfi_offset 19, -48
	.cfi_offset 20, -40
	.cfi_offset 21, -32
	str	x0, [sp, 56]
	str	x1, [sp, 48]
	ldr	x0, [sp, 48]
	bl	_ZSt7forwardIRKSt6vectorIiSaIiEEEOT_RNSt16remove_referenceIS5_E4typeE
	mov	x21, x0
	ldr	x19, [sp, 56]
	mov	x1, x19
	mov	x0, 24
	bl	_ZnwmPv
	mov	x20, x0
	mov	x1, x21
	mov	x0, x20
.LEHB33:
	bl	_ZNSt6vectorIiSaIiEEC1ERKS1_
.LEHE33:
	b	.L333
.L332:
	mov	x21, x0
	mov	x1, x19
	mov	x0, x20
	bl	_ZdlPvS_
	mov	x0, x21
.LEHB34:
	bl	_Unwind_Resume
.LEHE34:
.L333:
	ldp	x19, x20, [sp, 16]
	ldr	x21, [sp, 32]
	ldp	x29, x30, [sp], 64
	.cfi_restore 30
	.cfi_restore 29
	.cfi_restore 21
	.cfi_restore 19
	.cfi_restore 20
	.cfi_def_cfa_offset 0
	ret
	.cfi_endproc
.LFE11498:
	.section	.gcc_except_table
.LLSDA11498:
	.byte	0xff
	.byte	0xff
	.byte	0x1
	.uleb128 .LLSDACSE11498-.LLSDACSB11498
.LLSDACSB11498:
	.uleb128 .LEHB33-.LFB11498
	.uleb128 .LEHE33-.LEHB33
	.uleb128 .L332-.LFB11498
	.uleb128 0
	.uleb128 .LEHB34-.LFB11498
	.uleb128 .LEHE34-.LEHB34
	.uleb128 0
	.uleb128 0
.LLSDACSE11498:
	.section	.text._ZSt10_ConstructISt6vectorIiSaIiEEJRKS2_EEvPT_DpOT0_,"axG",@progbits,_ZSt10_ConstructISt6vectorIiSaIiEEJRKS2_EEvPT_DpOT0_,comdat
	.size	_ZSt10_ConstructISt6vectorIiSaIiEEJRKS2_EEvPT_DpOT0_, .-_ZSt10_ConstructISt6vectorIiSaIiEEJRKS2_EEvPT_DpOT0_
	.section	.text._ZNSt16allocator_traitsISaISt6vectorIiSaIiEEEE8max_sizeERKS3_,"axG",@progbits,_ZNSt16allocator_traitsISaISt6vectorIiSaIiEEEE8max_sizeERKS3_,comdat
	.align	2
	.weak	_ZNSt16allocator_traitsISaISt6vectorIiSaIiEEEE8max_sizeERKS3_
	.type	_ZNSt16allocator_traitsISaISt6vectorIiSaIiEEEE8max_sizeERKS3_, %function
_ZNSt16allocator_traitsISaISt6vectorIiSaIiEEEE8max_sizeERKS3_:
.LFB11499:
	.cfi_startproc
	stp	x29, x30, [sp, -32]!
	.cfi_def_cfa_offset 32
	.cfi_offset 29, -32
	.cfi_offset 30, -24
	mov	x29, sp
	str	x0, [sp, 24]
	ldr	x0, [sp, 24]
	bl	_ZNK9__gnu_cxx13new_allocatorISt6vectorIiSaIiEEE8max_sizeEv
	ldp	x29, x30, [sp], 32
	.cfi_restore 30
	.cfi_restore 29
	.cfi_def_cfa_offset 0
	ret
	.cfi_endproc
.LFE11499:
	.size	_ZNSt16allocator_traitsISaISt6vectorIiSaIiEEEE8max_sizeERKS3_, .-_ZNSt16allocator_traitsISaISt6vectorIiSaIiEEEE8max_sizeERKS3_
	.section	.text._ZSt8_DestroyISt6vectorIiSaIiEEEvPT_,"axG",@progbits,_ZSt8_DestroyISt6vectorIiSaIiEEEvPT_,comdat
	.align	2
	.weak	_ZSt8_DestroyISt6vectorIiSaIiEEEvPT_
	.type	_ZSt8_DestroyISt6vectorIiSaIiEEEvPT_, %function
_ZSt8_DestroyISt6vectorIiSaIiEEEvPT_:
.LFB11500:
	.cfi_startproc
	stp	x29, x30, [sp, -32]!
	.cfi_def_cfa_offset 32
	.cfi_offset 29, -32
	.cfi_offset 30, -24
	mov	x29, sp
	str	x0, [sp, 24]
	ldr	x0, [sp, 24]
	bl	_ZNSt6vectorIiSaIiEED1Ev
	nop
	ldp	x29, x30, [sp], 32
	.cfi_restore 30
	.cfi_restore 29
	.cfi_def_cfa_offset 0
	ret
	.cfi_endproc
.LFE11500:
	.size	_ZSt8_DestroyISt6vectorIiSaIiEEEvPT_, .-_ZSt8_DestroyISt6vectorIiSaIiEEEvPT_
	.section	.text._ZSt19__iterator_categoryIPiENSt15iterator_traitsIT_E17iterator_categoryERKS2_,"axG",@progbits,_ZSt19__iterator_categoryIPiENSt15iterator_traitsIT_E17iterator_categoryERKS2_,comdat
	.align	2
	.weak	_ZSt19__iterator_categoryIPiENSt15iterator_traitsIT_E17iterator_categoryERKS2_
	.type	_ZSt19__iterator_categoryIPiENSt15iterator_traitsIT_E17iterator_categoryERKS2_, %function
_ZSt19__iterator_categoryIPiENSt15iterator_traitsIT_E17iterator_categoryERKS2_:
.LFB11568:
	.cfi_startproc
	sub	sp, sp, #16
	.cfi_def_cfa_offset 16
	str	x0, [sp, 8]
	mov	w0, w1
	add	sp, sp, 16
	.cfi_def_cfa_offset 0
	ret
	.cfi_endproc
.LFE11568:
	.size	_ZSt19__iterator_categoryIPiENSt15iterator_traitsIT_E17iterator_categoryERKS2_, .-_ZSt19__iterator_categoryIPiENSt15iterator_traitsIT_E17iterator_categoryERKS2_
	.section	.text._ZSt10__fill_n_aIPimiET_S1_T0_RKT1_St26random_access_iterator_tag,"axG",@progbits,_ZSt10__fill_n_aIPimiET_S1_T0_RKT1_St26random_access_iterator_tag,comdat
	.align	2
	.weak	_ZSt10__fill_n_aIPimiET_S1_T0_RKT1_St26random_access_iterator_tag
	.type	_ZSt10__fill_n_aIPimiET_S1_T0_RKT1_St26random_access_iterator_tag, %function
_ZSt10__fill_n_aIPimiET_S1_T0_RKT1_St26random_access_iterator_tag:
.LFB11569:
	.cfi_startproc
	stp	x29, x30, [sp, -48]!
	.cfi_def_cfa_offset 48
	.cfi_offset 29, -48
	.cfi_offset 30, -40
	mov	x29, sp
	str	x0, [sp, 40]
	str	x1, [sp, 32]
	str	x2, [sp, 24]
	strb	w3, [sp, 16]
	ldr	x0, [sp, 32]
	cmp	x0, 0
	bne	.L340
	ldr	x0, [sp, 40]
	b	.L341
.L340:
	ldr	x0, [sp, 32]
	lsl	x0, x0, 2
	ldr	x1, [sp, 40]
	add	x0, x1, x0
	ldr	x2, [sp, 24]
	mov	x1, x0
	ldr	x0, [sp, 40]
	bl	_ZSt8__fill_aIPiiEvT_S1_RKT0_
	ldr	x0, [sp, 32]
	lsl	x0, x0, 2
	ldr	x1, [sp, 40]
	add	x0, x1, x0
.L341:
	ldp	x29, x30, [sp], 48
	.cfi_restore 30
	.cfi_restore 29
	.cfi_def_cfa_offset 0
	ret
	.cfi_endproc
.LFE11569:
	.size	_ZSt10__fill_n_aIPimiET_S1_T0_RKT1_St26random_access_iterator_tag, .-_ZSt10__fill_n_aIPimiET_S1_T0_RKT1_St26random_access_iterator_tag
	.section	.text._ZN9__gnu_cxx14__alloc_traitsISaIiEiE17_S_select_on_copyERKS1_,"axG",@progbits,_ZN9__gnu_cxx14__alloc_traitsISaIiEiE17_S_select_on_copyERKS1_,comdat
	.align	2
	.weak	_ZN9__gnu_cxx14__alloc_traitsISaIiEiE17_S_select_on_copyERKS1_
	.type	_ZN9__gnu_cxx14__alloc_traitsISaIiEiE17_S_select_on_copyERKS1_, %function
_ZN9__gnu_cxx14__alloc_traitsISaIiEiE17_S_select_on_copyERKS1_:
.LFB11570:
	.cfi_startproc
	stp	x29, x30, [sp, -48]!
	.cfi_def_cfa_offset 48
	.cfi_offset 29, -48
	.cfi_offset 30, -40
	mov	x29, sp
	str	x19, [sp, 16]
	.cfi_offset 19, -32
	mov	x19, x8
	str	x0, [sp, 40]
	mov	x8, x19
	ldr	x0, [sp, 40]
	bl	_ZNSt16allocator_traitsISaIiEE37select_on_container_copy_constructionERKS0_
	mov	x0, x19
	ldr	x19, [sp, 16]
	ldp	x29, x30, [sp], 48
	.cfi_restore 30
	.cfi_restore 29
	.cfi_restore 19
	.cfi_def_cfa_offset 0
	ret
	.cfi_endproc
.LFE11570:
	.size	_ZN9__gnu_cxx14__alloc_traitsISaIiEiE17_S_select_on_copyERKS1_, .-_ZN9__gnu_cxx14__alloc_traitsISaIiEiE17_S_select_on_copyERKS1_
	.section	.text._ZNKSt6vectorIiSaIiEE5beginEv,"axG",@progbits,_ZNKSt6vectorIiSaIiEE5beginEv,comdat
	.align	2
	.weak	_ZNKSt6vectorIiSaIiEE5beginEv
	.type	_ZNKSt6vectorIiSaIiEE5beginEv, %function
_ZNKSt6vectorIiSaIiEE5beginEv:
.LFB11571:
	.cfi_startproc
	stp	x29, x30, [sp, -48]!
	.cfi_def_cfa_offset 48
	.cfi_offset 29, -48
	.cfi_offset 30, -40
	mov	x29, sp
	str	x0, [sp, 24]
	ldr	x1, [sp, 24]
	add	x0, sp, 40
	bl	_ZN9__gnu_cxx17__normal_iteratorIPKiSt6vectorIiSaIiEEEC1ERKS2_
	ldr	x0, [sp, 40]
	ldp	x29, x30, [sp], 48
	.cfi_restore 30
	.cfi_restore 29
	.cfi_def_cfa_offset 0
	ret
	.cfi_endproc
.LFE11571:
	.size	_ZNKSt6vectorIiSaIiEE5beginEv, .-_ZNKSt6vectorIiSaIiEE5beginEv
	.section	.text._ZNKSt6vectorIiSaIiEE3endEv,"axG",@progbits,_ZNKSt6vectorIiSaIiEE3endEv,comdat
	.align	2
	.weak	_ZNKSt6vectorIiSaIiEE3endEv
	.type	_ZNKSt6vectorIiSaIiEE3endEv, %function
_ZNKSt6vectorIiSaIiEE3endEv:
.LFB11572:
	.cfi_startproc
	stp	x29, x30, [sp, -48]!
	.cfi_def_cfa_offset 48
	.cfi_offset 29, -48
	.cfi_offset 30, -40
	mov	x29, sp
	str	x0, [sp, 24]
	ldr	x0, [sp, 24]
	add	x1, x0, 8
	add	x0, sp, 40
	bl	_ZN9__gnu_cxx17__normal_iteratorIPKiSt6vectorIiSaIiEEEC1ERKS2_
	ldr	x0, [sp, 40]
	ldp	x29, x30, [sp], 48
	.cfi_restore 30
	.cfi_restore 29
	.cfi_def_cfa_offset 0
	ret
	.cfi_endproc
.LFE11572:
	.size	_ZNKSt6vectorIiSaIiEE3endEv, .-_ZNKSt6vectorIiSaIiEE3endEv
	.section	.text._ZSt22__uninitialized_copy_aIN9__gnu_cxx17__normal_iteratorIPKiSt6vectorIiSaIiEEEEPiiET0_T_SA_S9_RSaIT1_E,"axG",@progbits,_ZSt22__uninitialized_copy_aIN9__gnu_cxx17__normal_iteratorIPKiSt6vectorIiSaIiEEEEPiiET0_T_SA_S9_RSaIT1_E,comdat
	.align	2
	.weak	_ZSt22__uninitialized_copy_aIN9__gnu_cxx17__normal_iteratorIPKiSt6vectorIiSaIiEEEEPiiET0_T_SA_S9_RSaIT1_E
	.type	_ZSt22__uninitialized_copy_aIN9__gnu_cxx17__normal_iteratorIPKiSt6vectorIiSaIiEEEEPiiET0_T_SA_S9_RSaIT1_E, %function
_ZSt22__uninitialized_copy_aIN9__gnu_cxx17__normal_iteratorIPKiSt6vectorIiSaIiEEEEPiiET0_T_SA_S9_RSaIT1_E:
.LFB11573:
	.cfi_startproc
	stp	x29, x30, [sp, -48]!
	.cfi_def_cfa_offset 48
	.cfi_offset 29, -48
	.cfi_offset 30, -40
	mov	x29, sp
	str	x0, [sp, 40]
	str	x1, [sp, 32]
	str	x2, [sp, 24]
	str	x3, [sp, 16]
	ldr	x2, [sp, 24]
	ldr	x1, [sp, 32]
	ldr	x0, [sp, 40]
	bl	_ZSt18uninitialized_copyIN9__gnu_cxx17__normal_iteratorIPKiSt6vectorIiSaIiEEEEPiET0_T_SA_S9_
	ldp	x29, x30, [sp], 48
	.cfi_restore 30
	.cfi_restore 29
	.cfi_def_cfa_offset 0
	ret
	.cfi_endproc
.LFE11573:
	.size	_ZSt22__uninitialized_copy_aIN9__gnu_cxx17__normal_iteratorIPKiSt6vectorIiSaIiEEEEPiiET0_T_SA_S9_RSaIT1_E, .-_ZSt22__uninitialized_copy_aIN9__gnu_cxx17__normal_iteratorIPKiSt6vectorIiSaIiEEEEPiiET0_T_SA_S9_RSaIT1_E
	.section	.text._ZStneIPSt6vectorIiSaIiEEEbRKSt13move_iteratorIT_ES8_,"axG",@progbits,_ZStneIPSt6vectorIiSaIiEEEbRKSt13move_iteratorIT_ES8_,comdat
	.align	2
	.weak	_ZStneIPSt6vectorIiSaIiEEEbRKSt13move_iteratorIT_ES8_
	.type	_ZStneIPSt6vectorIiSaIiEEEbRKSt13move_iteratorIT_ES8_, %function
_ZStneIPSt6vectorIiSaIiEEEbRKSt13move_iteratorIT_ES8_:
.LFB11574:
	.cfi_startproc
	stp	x29, x30, [sp, -32]!
	.cfi_def_cfa_offset 32
	.cfi_offset 29, -32
	.cfi_offset 30, -24
	mov	x29, sp
	str	x0, [sp, 24]
	str	x1, [sp, 16]
	ldr	x1, [sp, 16]
	ldr	x0, [sp, 24]
	bl	_ZSteqIPSt6vectorIiSaIiEEEbRKSt13move_iteratorIT_ES8_
	and	w0, w0, 255
	eor	w0, w0, 1
	and	w0, w0, 255
	ldp	x29, x30, [sp], 32
	.cfi_restore 30
	.cfi_restore 29
	.cfi_def_cfa_offset 0
	ret
	.cfi_endproc
.LFE11574:
	.size	_ZStneIPSt6vectorIiSaIiEEEbRKSt13move_iteratorIT_ES8_, .-_ZStneIPSt6vectorIiSaIiEEEbRKSt13move_iteratorIT_ES8_
	.section	.text._ZNKSt13move_iteratorIPSt6vectorIiSaIiEEEdeEv,"axG",@progbits,_ZNKSt13move_iteratorIPSt6vectorIiSaIiEEEdeEv,comdat
	.align	2
	.weak	_ZNKSt13move_iteratorIPSt6vectorIiSaIiEEEdeEv
	.type	_ZNKSt13move_iteratorIPSt6vectorIiSaIiEEEdeEv, %function
_ZNKSt13move_iteratorIPSt6vectorIiSaIiEEEdeEv:
.LFB11575:
	.cfi_startproc
	sub	sp, sp, #16
	.cfi_def_cfa_offset 16
	str	x0, [sp, 8]
	ldr	x0, [sp, 8]
	ldr	x0, [x0]
	add	sp, sp, 16
	.cfi_def_cfa_offset 0
	ret
	.cfi_endproc
.LFE11575:
	.size	_ZNKSt13move_iteratorIPSt6vectorIiSaIiEEEdeEv, .-_ZNKSt13move_iteratorIPSt6vectorIiSaIiEEEdeEv
	.section	.text._ZNSt12_Vector_baseIiSaIiEEC2EOS1_,"axG",@progbits,_ZNSt12_Vector_baseIiSaIiEEC5EOS1_,comdat
	.align	2
	.weak	_ZNSt12_Vector_baseIiSaIiEEC2EOS1_
	.type	_ZNSt12_Vector_baseIiSaIiEEC2EOS1_, %function
_ZNSt12_Vector_baseIiSaIiEEC2EOS1_:
.LFB11579:
	.cfi_startproc
	stp	x29, x30, [sp, -32]!
	.cfi_def_cfa_offset 32
	.cfi_offset 29, -32
	.cfi_offset 30, -24
	mov	x29, sp
	str	x0, [sp, 24]
	str	x1, [sp, 16]
	ldr	x0, [sp, 24]
	ldr	x1, [sp, 16]
	bl	_ZNSt12_Vector_baseIiSaIiEE12_Vector_implC1EOS2_
	nop
	ldp	x29, x30, [sp], 32
	.cfi_restore 30
	.cfi_restore 29
	.cfi_def_cfa_offset 0
	ret
	.cfi_endproc
.LFE11579:
	.size	_ZNSt12_Vector_baseIiSaIiEEC2EOS1_, .-_ZNSt12_Vector_baseIiSaIiEEC2EOS1_
	.weak	_ZNSt12_Vector_baseIiSaIiEEC1EOS1_
	.set	_ZNSt12_Vector_baseIiSaIiEEC1EOS1_,_ZNSt12_Vector_baseIiSaIiEEC2EOS1_
	.section	.text._ZNSt6vectorIiSaIiEEC2EOS1_,"axG",@progbits,_ZNSt6vectorIiSaIiEEC5EOS1_,comdat
	.align	2
	.weak	_ZNSt6vectorIiSaIiEEC2EOS1_
	.type	_ZNSt6vectorIiSaIiEEC2EOS1_, %function
_ZNSt6vectorIiSaIiEEC2EOS1_:
.LFB11581:
	.cfi_startproc
	stp	x29, x30, [sp, -32]!
	.cfi_def_cfa_offset 32
	.cfi_offset 29, -32
	.cfi_offset 30, -24
	mov	x29, sp
	str	x0, [sp, 24]
	str	x1, [sp, 16]
	ldr	x0, [sp, 24]
	ldr	x1, [sp, 16]
	bl	_ZNSt12_Vector_baseIiSaIiEEC2EOS1_
	nop
	ldp	x29, x30, [sp], 32
	.cfi_restore 30
	.cfi_restore 29
	.cfi_def_cfa_offset 0
	ret
	.cfi_endproc
.LFE11581:
	.size	_ZNSt6vectorIiSaIiEEC2EOS1_, .-_ZNSt6vectorIiSaIiEEC2EOS1_
	.weak	_ZNSt6vectorIiSaIiEEC1EOS1_
	.set	_ZNSt6vectorIiSaIiEEC1EOS1_,_ZNSt6vectorIiSaIiEEC2EOS1_
	.section	.text._ZSt10_ConstructISt6vectorIiSaIiEEJS2_EEvPT_DpOT0_,"axG",@progbits,_ZSt10_ConstructISt6vectorIiSaIiEEJS2_EEvPT_DpOT0_,comdat
	.align	2
	.weak	_ZSt10_ConstructISt6vectorIiSaIiEEJS2_EEvPT_DpOT0_
	.type	_ZSt10_ConstructISt6vectorIiSaIiEEJS2_EEvPT_DpOT0_, %function
_ZSt10_ConstructISt6vectorIiSaIiEEJS2_EEvPT_DpOT0_:
.LFB11576:
	.cfi_startproc
	stp	x29, x30, [sp, -48]!
	.cfi_def_cfa_offset 48
	.cfi_offset 29, -48
	.cfi_offset 30, -40
	mov	x29, sp
	str	x19, [sp, 16]
	.cfi_offset 19, -32
	str	x0, [sp, 40]
	str	x1, [sp, 32]
	ldr	x0, [sp, 32]
	bl	_ZSt7forwardISt6vectorIiSaIiEEEOT_RNSt16remove_referenceIS3_E4typeE
	mov	x19, x0
	ldr	x0, [sp, 40]
	mov	x1, x0
	mov	x0, 24
	bl	_ZnwmPv
	mov	x1, x19
	bl	_ZNSt6vectorIiSaIiEEC1EOS1_
	nop
	ldr	x19, [sp, 16]
	ldp	x29, x30, [sp], 48
	.cfi_restore 30
	.cfi_restore 29
	.cfi_restore 19
	.cfi_def_cfa_offset 0
	ret
	.cfi_endproc
.LFE11576:
	.size	_ZSt10_ConstructISt6vectorIiSaIiEEJS2_EEvPT_DpOT0_, .-_ZSt10_ConstructISt6vectorIiSaIiEEJS2_EEvPT_DpOT0_
	.section	.text._ZNSt20__copy_move_backwardILb1ELb0ESt26random_access_iterator_tagE13__copy_move_bIPSt6vectorIiSaIiEES6_EET0_T_S8_S7_,"axG",@progbits,_ZNSt20__copy_move_backwardILb1ELb0ESt26random_access_iterator_tagE13__copy_move_bIPSt6vectorIiSaIiEES6_EET0_T_S8_S7_,comdat
	.align	2
	.weak	_ZNSt20__copy_move_backwardILb1ELb0ESt26random_access_iterator_tagE13__copy_move_bIPSt6vectorIiSaIiEES6_EET0_T_S8_S7_
	.type	_ZNSt20__copy_move_backwardILb1ELb0ESt26random_access_iterator_tagE13__copy_move_bIPSt6vectorIiSaIiEES6_EET0_T_S8_S7_, %function
_ZNSt20__copy_move_backwardILb1ELb0ESt26random_access_iterator_tagE13__copy_move_bIPSt6vectorIiSaIiEES6_EET0_T_S8_S7_:
.LFB11583:
	.cfi_startproc
	stp	x29, x30, [sp, -64]!
	.cfi_def_cfa_offset 64
	.cfi_offset 29, -64
	.cfi_offset 30, -56
	mov	x29, sp
	str	x0, [sp, 40]
	str	x1, [sp, 32]
	str	x2, [sp, 24]
	ldr	x1, [sp, 32]
	ldr	x0, [sp, 40]
	sub	x0, x1, x0
	asr	x1, x0, 3
	mov	x0, -6148914691236517206
	movk	x0, 0xaaab, lsl 0
	mul	x0, x1, x0
	str	x0, [sp, 56]
	b	.L358
.L359:
	ldr	x0, [sp, 32]
	sub	x0, x0, #24
	str	x0, [sp, 32]
	ldr	x0, [sp, 32]
	bl	_ZSt4moveIRSt6vectorIiSaIiEEEONSt16remove_referenceIT_E4typeEOS5_
	mov	x1, x0
	ldr	x0, [sp, 24]
	sub	x0, x0, #24
	str	x0, [sp, 24]
	ldr	x0, [sp, 24]
	bl	_ZNSt6vectorIiSaIiEEaSEOS1_
	ldr	x0, [sp, 56]
	sub	x0, x0, #1
	str	x0, [sp, 56]
.L358:
	ldr	x0, [sp, 56]
	cmp	x0, 0
	bgt	.L359
	ldr	x0, [sp, 24]
	ldp	x29, x30, [sp], 64
	.cfi_restore 30
	.cfi_restore 29
	.cfi_def_cfa_offset 0
	ret
	.cfi_endproc
.LFE11583:
	.size	_ZNSt20__copy_move_backwardILb1ELb0ESt26random_access_iterator_tagE13__copy_move_bIPSt6vectorIiSaIiEES6_EET0_T_S8_S7_, .-_ZNSt20__copy_move_backwardILb1ELb0ESt26random_access_iterator_tagE13__copy_move_bIPSt6vectorIiSaIiEES6_EET0_T_S8_S7_
	.section	.text._ZStneRKSaIiES1_,"axG",@progbits,_ZStneRKSaIiES1_,comdat
	.align	2
	.weak	_ZStneRKSaIiES1_
	.type	_ZStneRKSaIiES1_, %function
_ZStneRKSaIiES1_:
.LFB11584:
	.cfi_startproc
	sub	sp, sp, #16
	.cfi_def_cfa_offset 16
	str	x0, [sp, 8]
	str	x1, [sp]
	mov	w0, 0
	add	sp, sp, 16
	.cfi_def_cfa_offset 0
	ret
	.cfi_endproc
.LFE11584:
	.size	_ZStneRKSaIiES1_, .-_ZStneRKSaIiES1_
	.section	.text._ZNSt6vectorIiSaIiEE5clearEv,"axG",@progbits,_ZNSt6vectorIiSaIiEE5clearEv,comdat
	.align	2
	.weak	_ZNSt6vectorIiSaIiEE5clearEv
	.type	_ZNSt6vectorIiSaIiEE5clearEv, %function
_ZNSt6vectorIiSaIiEE5clearEv:
.LFB11585:
	.cfi_startproc
	stp	x29, x30, [sp, -32]!
	.cfi_def_cfa_offset 32
	.cfi_offset 29, -32
	.cfi_offset 30, -24
	mov	x29, sp
	str	x0, [sp, 24]
	ldr	x0, [sp, 24]
	ldr	x0, [x0]
	mov	x1, x0
	ldr	x0, [sp, 24]
	bl	_ZNSt6vectorIiSaIiEE15_M_erase_at_endEPi
	nop
	ldp	x29, x30, [sp], 32
	.cfi_restore 30
	.cfi_restore 29
	.cfi_def_cfa_offset 0
	ret
	.cfi_endproc
.LFE11585:
	.size	_ZNSt6vectorIiSaIiEE5clearEv, .-_ZNSt6vectorIiSaIiEE5clearEv
	.section	.text._ZSt15__alloc_on_copyISaIiEEvRT_RKS1_,"axG",@progbits,_ZSt15__alloc_on_copyISaIiEEvRT_RKS1_,comdat
	.align	2
	.weak	_ZSt15__alloc_on_copyISaIiEEvRT_RKS1_
	.type	_ZSt15__alloc_on_copyISaIiEEvRT_RKS1_, %function
_ZSt15__alloc_on_copyISaIiEEvRT_RKS1_:
.LFB11586:
	.cfi_startproc
	sub	sp, sp, #16
	.cfi_def_cfa_offset 16
	str	x0, [sp, 8]
	str	x1, [sp]
	nop
	add	sp, sp, 16
	.cfi_def_cfa_offset 0
	ret
	.cfi_endproc
.LFE11586:
	.size	_ZSt15__alloc_on_copyISaIiEEvRT_RKS1_, .-_ZSt15__alloc_on_copyISaIiEEvRT_RKS1_
	.section	.text._ZNKSt6vectorIiSaIiEE8capacityEv,"axG",@progbits,_ZNKSt6vectorIiSaIiEE8capacityEv,comdat
	.align	2
	.weak	_ZNKSt6vectorIiSaIiEE8capacityEv
	.type	_ZNKSt6vectorIiSaIiEE8capacityEv, %function
_ZNKSt6vectorIiSaIiEE8capacityEv:
.LFB11587:
	.cfi_startproc
	sub	sp, sp, #16
	.cfi_def_cfa_offset 16
	str	x0, [sp, 8]
	ldr	x0, [sp, 8]
	ldr	x1, [x0, 16]
	ldr	x0, [sp, 8]
	ldr	x0, [x0]
	sub	x0, x1, x0
	asr	x0, x0, 2
	add	sp, sp, 16
	.cfi_def_cfa_offset 0
	ret
	.cfi_endproc
.LFE11587:
	.size	_ZNKSt6vectorIiSaIiEE8capacityEv, .-_ZNKSt6vectorIiSaIiEE8capacityEv
	.section	.text._ZNSt6vectorIiSaIiEE20_M_allocate_and_copyIN9__gnu_cxx17__normal_iteratorIPKiS1_EEEEPimT_S9_,"axG",@progbits,_ZNSt6vectorIiSaIiEE20_M_allocate_and_copyIN9__gnu_cxx17__normal_iteratorIPKiS1_EEEEPimT_S9_,comdat
	.align	2
	.weak	_ZNSt6vectorIiSaIiEE20_M_allocate_and_copyIN9__gnu_cxx17__normal_iteratorIPKiS1_EEEEPimT_S9_
	.type	_ZNSt6vectorIiSaIiEE20_M_allocate_and_copyIN9__gnu_cxx17__normal_iteratorIPKiS1_EEEEPimT_S9_, %function
_ZNSt6vectorIiSaIiEE20_M_allocate_and_copyIN9__gnu_cxx17__normal_iteratorIPKiS1_EEEEPimT_S9_:
.LFB11588:
	.cfi_startproc
	.cfi_personality 0x9b,DW.ref.__gxx_personality_v0
	.cfi_lsda 0x1b,.LLSDA11588
	stp	x29, x30, [sp, -80]!
	.cfi_def_cfa_offset 80
	.cfi_offset 29, -80
	.cfi_offset 30, -72
	mov	x29, sp
	str	x19, [sp, 16]
	.cfi_offset 19, -64
	str	x0, [sp, 56]
	str	x1, [sp, 48]
	str	x2, [sp, 40]
	str	x3, [sp, 32]
	ldr	x0, [sp, 56]
	ldr	x1, [sp, 48]
.LEHB35:
	bl	_ZNSt12_Vector_baseIiSaIiEE11_M_allocateEm
.LEHE35:
	str	x0, [sp, 72]
	ldr	x0, [sp, 56]
	bl	_ZNSt12_Vector_baseIiSaIiEE19_M_get_Tp_allocatorEv
	mov	x3, x0
	ldr	x2, [sp, 72]
	ldr	x1, [sp, 32]
	ldr	x0, [sp, 40]
.LEHB36:
	bl	_ZSt22__uninitialized_copy_aIN9__gnu_cxx17__normal_iteratorIPKiSt6vectorIiSaIiEEEEPiiET0_T_SA_S9_RSaIT1_E
.LEHE36:
	ldr	x0, [sp, 72]
	b	.L373
.L371:
	bl	__cxa_begin_catch
	ldr	x0, [sp, 56]
	ldr	x2, [sp, 48]
	ldr	x1, [sp, 72]
.LEHB37:
	bl	_ZNSt12_Vector_baseIiSaIiEE13_M_deallocateEPim
	bl	__cxa_rethrow
.LEHE37:
.L372:
	mov	x19, x0
	bl	__cxa_end_catch
	mov	x0, x19
.LEHB38:
	bl	_Unwind_Resume
.LEHE38:
.L373:
	ldr	x19, [sp, 16]
	ldp	x29, x30, [sp], 80
	.cfi_restore 30
	.cfi_restore 29
	.cfi_restore 19
	.cfi_def_cfa_offset 0
	ret
	.cfi_endproc
.LFE11588:
	.section	.gcc_except_table
	.align	2
.LLSDA11588:
	.byte	0xff
	.byte	0x9b
	.uleb128 .LLSDATT11588-.LLSDATTD11588
.LLSDATTD11588:
	.byte	0x1
	.uleb128 .LLSDACSE11588-.LLSDACSB11588
.LLSDACSB11588:
	.uleb128 .LEHB35-.LFB11588
	.uleb128 .LEHE35-.LEHB35
	.uleb128 0
	.uleb128 0
	.uleb128 .LEHB36-.LFB11588
	.uleb128 .LEHE36-.LEHB36
	.uleb128 .L371-.LFB11588
	.uleb128 0x1
	.uleb128 .LEHB37-.LFB11588
	.uleb128 .LEHE37-.LEHB37
	.uleb128 .L372-.LFB11588
	.uleb128 0
	.uleb128 .LEHB38-.LFB11588
	.uleb128 .LEHE38-.LEHB38
	.uleb128 0
	.uleb128 0
.LLSDACSE11588:
	.byte	0x1
	.byte	0
	.align	2
	.4byte	0

.LLSDATT11588:
	.section	.text._ZNSt6vectorIiSaIiEE20_M_allocate_and_copyIN9__gnu_cxx17__normal_iteratorIPKiS1_EEEEPimT_S9_,"axG",@progbits,_ZNSt6vectorIiSaIiEE20_M_allocate_and_copyIN9__gnu_cxx17__normal_iteratorIPKiS1_EEEEPimT_S9_,comdat
	.size	_ZNSt6vectorIiSaIiEE20_M_allocate_and_copyIN9__gnu_cxx17__normal_iteratorIPKiS1_EEEEPimT_S9_, .-_ZNSt6vectorIiSaIiEE20_M_allocate_and_copyIN9__gnu_cxx17__normal_iteratorIPKiS1_EEEEPimT_S9_
	.section	.text._ZNSt6vectorIiSaIiEE5beginEv,"axG",@progbits,_ZNSt6vectorIiSaIiEE5beginEv,comdat
	.align	2
	.weak	_ZNSt6vectorIiSaIiEE5beginEv
	.type	_ZNSt6vectorIiSaIiEE5beginEv, %function
_ZNSt6vectorIiSaIiEE5beginEv:
.LFB11589:
	.cfi_startproc
	stp	x29, x30, [sp, -48]!
	.cfi_def_cfa_offset 48
	.cfi_offset 29, -48
	.cfi_offset 30, -40
	mov	x29, sp
	str	x0, [sp, 24]
	ldr	x1, [sp, 24]
	add	x0, sp, 40
	bl	_ZN9__gnu_cxx17__normal_iteratorIPiSt6vectorIiSaIiEEEC1ERKS1_
	ldr	x0, [sp, 40]
	ldp	x29, x30, [sp], 48
	.cfi_restore 30
	.cfi_restore 29
	.cfi_def_cfa_offset 0
	ret
	.cfi_endproc
.LFE11589:
	.size	_ZNSt6vectorIiSaIiEE5beginEv, .-_ZNSt6vectorIiSaIiEE5beginEv
	.section	.text._ZSt4copyIN9__gnu_cxx17__normal_iteratorIPKiSt6vectorIiSaIiEEEENS1_IPiS6_EEET0_T_SB_SA_,"axG",@progbits,_ZSt4copyIN9__gnu_cxx17__normal_iteratorIPKiSt6vectorIiSaIiEEEENS1_IPiS6_EEET0_T_SB_SA_,comdat
	.align	2
	.weak	_ZSt4copyIN9__gnu_cxx17__normal_iteratorIPKiSt6vectorIiSaIiEEEENS1_IPiS6_EEET0_T_SB_SA_
	.type	_ZSt4copyIN9__gnu_cxx17__normal_iteratorIPKiSt6vectorIiSaIiEEEENS1_IPiS6_EEET0_T_SB_SA_, %function
_ZSt4copyIN9__gnu_cxx17__normal_iteratorIPKiSt6vectorIiSaIiEEEENS1_IPiS6_EEET0_T_SB_SA_:
.LFB11590:
	.cfi_startproc
	stp	x29, x30, [sp, -64]!
	.cfi_def_cfa_offset 64
	.cfi_offset 29, -64
	.cfi_offset 30, -56
	mov	x29, sp
	str	x19, [sp, 16]
	.cfi_offset 19, -48
	str	x0, [sp, 56]
	str	x1, [sp, 48]
	str	x2, [sp, 40]
	ldr	x0, [sp, 56]
	bl	_ZSt12__miter_baseIN9__gnu_cxx17__normal_iteratorIPKiSt6vectorIiSaIiEEEEET_S8_
	mov	x19, x0
	ldr	x0, [sp, 48]
	bl	_ZSt12__miter_baseIN9__gnu_cxx17__normal_iteratorIPKiSt6vectorIiSaIiEEEEET_S8_
	ldr	x2, [sp, 40]
	mov	x1, x0
	mov	x0, x19
	bl	_ZSt13__copy_move_aILb0EN9__gnu_cxx17__normal_iteratorIPKiSt6vectorIiSaIiEEEENS1_IPiS6_EEET1_T0_SB_SA_
	ldr	x19, [sp, 16]
	ldp	x29, x30, [sp], 64
	.cfi_restore 30
	.cfi_restore 29
	.cfi_restore 19
	.cfi_def_cfa_offset 0
	ret
	.cfi_endproc
.LFE11590:
	.size	_ZSt4copyIN9__gnu_cxx17__normal_iteratorIPKiSt6vectorIiSaIiEEEENS1_IPiS6_EEET0_T_SB_SA_, .-_ZSt4copyIN9__gnu_cxx17__normal_iteratorIPKiSt6vectorIiSaIiEEEENS1_IPiS6_EEET0_T_SB_SA_
	.section	.text._ZNSt6vectorIiSaIiEE3endEv,"axG",@progbits,_ZNSt6vectorIiSaIiEE3endEv,comdat
	.align	2
	.weak	_ZNSt6vectorIiSaIiEE3endEv
	.type	_ZNSt6vectorIiSaIiEE3endEv, %function
_ZNSt6vectorIiSaIiEE3endEv:
.LFB11591:
	.cfi_startproc
	stp	x29, x30, [sp, -48]!
	.cfi_def_cfa_offset 48
	.cfi_offset 29, -48
	.cfi_offset 30, -40
	mov	x29, sp
	str	x0, [sp, 24]
	ldr	x0, [sp, 24]
	add	x1, x0, 8
	add	x0, sp, 40
	bl	_ZN9__gnu_cxx17__normal_iteratorIPiSt6vectorIiSaIiEEEC1ERKS1_
	ldr	x0, [sp, 40]
	ldp	x29, x30, [sp], 48
	.cfi_restore 30
	.cfi_restore 29
	.cfi_def_cfa_offset 0
	ret
	.cfi_endproc
.LFE11591:
	.size	_ZNSt6vectorIiSaIiEE3endEv, .-_ZNSt6vectorIiSaIiEE3endEv
	.section	.text._ZSt8_DestroyIN9__gnu_cxx17__normal_iteratorIPiSt6vectorIiSaIiEEEEiEvT_S7_RSaIT0_E,"axG",@progbits,_ZSt8_DestroyIN9__gnu_cxx17__normal_iteratorIPiSt6vectorIiSaIiEEEEiEvT_S7_RSaIT0_E,comdat
	.align	2
	.weak	_ZSt8_DestroyIN9__gnu_cxx17__normal_iteratorIPiSt6vectorIiSaIiEEEEiEvT_S7_RSaIT0_E
	.type	_ZSt8_DestroyIN9__gnu_cxx17__normal_iteratorIPiSt6vectorIiSaIiEEEEiEvT_S7_RSaIT0_E, %function
_ZSt8_DestroyIN9__gnu_cxx17__normal_iteratorIPiSt6vectorIiSaIiEEEEiEvT_S7_RSaIT0_E:
.LFB11592:
	.cfi_startproc
	stp	x29, x30, [sp, -48]!
	.cfi_def_cfa_offset 48
	.cfi_offset 29, -48
	.cfi_offset 30, -40
	mov	x29, sp
	str	x0, [sp, 40]
	str	x1, [sp, 32]
	str	x2, [sp, 24]
	ldr	x1, [sp, 32]
	ldr	x0, [sp, 40]
	bl	_ZSt8_DestroyIN9__gnu_cxx17__normal_iteratorIPiSt6vectorIiSaIiEEEEEvT_S7_
	nop
	ldp	x29, x30, [sp], 48
	.cfi_restore 30
	.cfi_restore 29
	.cfi_def_cfa_offset 0
	ret
	.cfi_endproc
.LFE11592:
	.size	_ZSt8_DestroyIN9__gnu_cxx17__normal_iteratorIPiSt6vectorIiSaIiEEEEiEvT_S7_RSaIT0_E, .-_ZSt8_DestroyIN9__gnu_cxx17__normal_iteratorIPiSt6vectorIiSaIiEEEEiEvT_S7_RSaIT0_E
	.section	.text._ZSt4copyIPiS0_ET0_T_S2_S1_,"axG",@progbits,_ZSt4copyIPiS0_ET0_T_S2_S1_,comdat
	.align	2
	.weak	_ZSt4copyIPiS0_ET0_T_S2_S1_
	.type	_ZSt4copyIPiS0_ET0_T_S2_S1_, %function
_ZSt4copyIPiS0_ET0_T_S2_S1_:
.LFB11593:
	.cfi_startproc
	stp	x29, x30, [sp, -64]!
	.cfi_def_cfa_offset 64
	.cfi_offset 29, -64
	.cfi_offset 30, -56
	mov	x29, sp
	str	x19, [sp, 16]
	.cfi_offset 19, -48
	str	x0, [sp, 56]
	str	x1, [sp, 48]
	str	x2, [sp, 40]
	ldr	x0, [sp, 56]
	bl	_ZSt12__miter_baseIPiET_S1_
	mov	x19, x0
	ldr	x0, [sp, 48]
	bl	_ZSt12__miter_baseIPiET_S1_
	ldr	x2, [sp, 40]
	mov	x1, x0
	mov	x0, x19
	bl	_ZSt13__copy_move_aILb0EPiS0_ET1_T0_S2_S1_
	ldr	x19, [sp, 16]
	ldp	x29, x30, [sp], 64
	.cfi_restore 30
	.cfi_restore 29
	.cfi_restore 19
	.cfi_def_cfa_offset 0
	ret
	.cfi_endproc
.LFE11593:
	.size	_ZSt4copyIPiS0_ET0_T_S2_S1_, .-_ZSt4copyIPiS0_ET0_T_S2_S1_
	.section	.text._ZSt22__uninitialized_copy_aIPiS0_iET0_T_S2_S1_RSaIT1_E,"axG",@progbits,_ZSt22__uninitialized_copy_aIPiS0_iET0_T_S2_S1_RSaIT1_E,comdat
	.align	2
	.weak	_ZSt22__uninitialized_copy_aIPiS0_iET0_T_S2_S1_RSaIT1_E
	.type	_ZSt22__uninitialized_copy_aIPiS0_iET0_T_S2_S1_RSaIT1_E, %function
_ZSt22__uninitialized_copy_aIPiS0_iET0_T_S2_S1_RSaIT1_E:
.LFB11594:
	.cfi_startproc
	stp	x29, x30, [sp, -48]!
	.cfi_def_cfa_offset 48
	.cfi_offset 29, -48
	.cfi_offset 30, -40
	mov	x29, sp
	str	x0, [sp, 40]
	str	x1, [sp, 32]
	str	x2, [sp, 24]
	str	x3, [sp, 16]
	ldr	x2, [sp, 24]
	ldr	x1, [sp, 32]
	ldr	x0, [sp, 40]
	bl	_ZSt18uninitialized_copyIPiS0_ET0_T_S2_S1_
	ldp	x29, x30, [sp], 48
	.cfi_restore 30
	.cfi_restore 29
	.cfi_def_cfa_offset 0
	ret
	.cfi_endproc
.LFE11594:
	.size	_ZSt22__uninitialized_copy_aIPiS0_iET0_T_S2_S1_RSaIT1_E, .-_ZSt22__uninitialized_copy_aIPiS0_iET0_T_S2_S1_RSaIT1_E
	.section	.text._ZNK9__gnu_cxx13new_allocatorISt6vectorIiSaIiEEE8max_sizeEv,"axG",@progbits,_ZNK9__gnu_cxx13new_allocatorISt6vectorIiSaIiEEE8max_sizeEv,comdat
	.align	2
	.weak	_ZNK9__gnu_cxx13new_allocatorISt6vectorIiSaIiEEE8max_sizeEv
	.type	_ZNK9__gnu_cxx13new_allocatorISt6vectorIiSaIiEEE8max_sizeEv, %function
_ZNK9__gnu_cxx13new_allocatorISt6vectorIiSaIiEEE8max_sizeEv:
.LFB11595:
	.cfi_startproc
	stp	x29, x30, [sp, -32]!
	.cfi_def_cfa_offset 32
	.cfi_offset 29, -32
	.cfi_offset 30, -24
	mov	x29, sp
	str	x0, [sp, 24]
	ldr	x0, [sp, 24]
	bl	_ZNK9__gnu_cxx13new_allocatorISt6vectorIiSaIiEEE11_M_max_sizeEv
	ldp	x29, x30, [sp], 32
	.cfi_restore 30
	.cfi_restore 29
	.cfi_def_cfa_offset 0
	ret
	.cfi_endproc
.LFE11595:
	.size	_ZNK9__gnu_cxx13new_allocatorISt6vectorIiSaIiEEE8max_sizeEv, .-_ZNK9__gnu_cxx13new_allocatorISt6vectorIiSaIiEEE8max_sizeEv
	.section	.text._ZSt8__fill_aIPiiEvT_S1_RKT0_,"axG",@progbits,_ZSt8__fill_aIPiiEvT_S1_RKT0_,comdat
	.align	2
	.weak	_ZSt8__fill_aIPiiEvT_S1_RKT0_
	.type	_ZSt8__fill_aIPiiEvT_S1_RKT0_, %function
_ZSt8__fill_aIPiiEvT_S1_RKT0_:
.LFB11625:
	.cfi_startproc
	stp	x29, x30, [sp, -48]!
	.cfi_def_cfa_offset 48
	.cfi_offset 29, -48
	.cfi_offset 30, -40
	mov	x29, sp
	str	x0, [sp, 40]
	str	x1, [sp, 32]
	str	x2, [sp, 24]
	ldr	x2, [sp, 24]
	ldr	x1, [sp, 32]
	ldr	x0, [sp, 40]
	bl	_ZSt9__fill_a1IPiiEN9__gnu_cxx11__enable_ifIXsrSt11__is_scalarIT0_E7__valueEvE6__typeET_S8_RKS4_
	nop
	ldp	x29, x30, [sp], 48
	.cfi_restore 30
	.cfi_restore 29
	.cfi_def_cfa_offset 0
	ret
	.cfi_endproc
.LFE11625:
	.size	_ZSt8__fill_aIPiiEvT_S1_RKT0_, .-_ZSt8__fill_aIPiiEvT_S1_RKT0_
	.section	.text._ZNSt16allocator_traitsISaIiEE37select_on_container_copy_constructionERKS0_,"axG",@progbits,_ZNSt16allocator_traitsISaIiEE37select_on_container_copy_constructionERKS0_,comdat
	.align	2
	.weak	_ZNSt16allocator_traitsISaIiEE37select_on_container_copy_constructionERKS0_
	.type	_ZNSt16allocator_traitsISaIiEE37select_on_container_copy_constructionERKS0_, %function
_ZNSt16allocator_traitsISaIiEE37select_on_container_copy_constructionERKS0_:
.LFB11626:
	.cfi_startproc
	stp	x29, x30, [sp, -48]!
	.cfi_def_cfa_offset 48
	.cfi_offset 29, -48
	.cfi_offset 30, -40
	mov	x29, sp
	str	x19, [sp, 16]
	.cfi_offset 19, -32
	mov	x19, x8
	str	x0, [sp, 40]
	ldr	x1, [sp, 40]
	mov	x0, x19
	bl	_ZNSaIiEC1ERKS_
	mov	x0, x19
	ldr	x19, [sp, 16]
	ldp	x29, x30, [sp], 48
	.cfi_restore 30
	.cfi_restore 29
	.cfi_restore 19
	.cfi_def_cfa_offset 0
	ret
	.cfi_endproc
.LFE11626:
	.size	_ZNSt16allocator_traitsISaIiEE37select_on_container_copy_constructionERKS0_, .-_ZNSt16allocator_traitsISaIiEE37select_on_container_copy_constructionERKS0_
	.section	.text._ZN9__gnu_cxx17__normal_iteratorIPKiSt6vectorIiSaIiEEEC2ERKS2_,"axG",@progbits,_ZN9__gnu_cxx17__normal_iteratorIPKiSt6vectorIiSaIiEEEC5ERKS2_,comdat
	.align	2
	.weak	_ZN9__gnu_cxx17__normal_iteratorIPKiSt6vectorIiSaIiEEEC2ERKS2_
	.type	_ZN9__gnu_cxx17__normal_iteratorIPKiSt6vectorIiSaIiEEEC2ERKS2_, %function
_ZN9__gnu_cxx17__normal_iteratorIPKiSt6vectorIiSaIiEEEC2ERKS2_:
.LFB11628:
	.cfi_startproc
	sub	sp, sp, #16
	.cfi_def_cfa_offset 16
	str	x0, [sp, 8]
	str	x1, [sp]
	ldr	x0, [sp]
	ldr	x1, [x0]
	ldr	x0, [sp, 8]
	str	x1, [x0]
	nop
	add	sp, sp, 16
	.cfi_def_cfa_offset 0
	ret
	.cfi_endproc
.LFE11628:
	.size	_ZN9__gnu_cxx17__normal_iteratorIPKiSt6vectorIiSaIiEEEC2ERKS2_, .-_ZN9__gnu_cxx17__normal_iteratorIPKiSt6vectorIiSaIiEEEC2ERKS2_
	.weak	_ZN9__gnu_cxx17__normal_iteratorIPKiSt6vectorIiSaIiEEEC1ERKS2_
	.set	_ZN9__gnu_cxx17__normal_iteratorIPKiSt6vectorIiSaIiEEEC1ERKS2_,_ZN9__gnu_cxx17__normal_iteratorIPKiSt6vectorIiSaIiEEEC2ERKS2_
	.section	.text._ZSt18uninitialized_copyIN9__gnu_cxx17__normal_iteratorIPKiSt6vectorIiSaIiEEEEPiET0_T_SA_S9_,"axG",@progbits,_ZSt18uninitialized_copyIN9__gnu_cxx17__normal_iteratorIPKiSt6vectorIiSaIiEEEEPiET0_T_SA_S9_,comdat
	.align	2
	.weak	_ZSt18uninitialized_copyIN9__gnu_cxx17__normal_iteratorIPKiSt6vectorIiSaIiEEEEPiET0_T_SA_S9_
	.type	_ZSt18uninitialized_copyIN9__gnu_cxx17__normal_iteratorIPKiSt6vectorIiSaIiEEEEPiET0_T_SA_S9_, %function
_ZSt18uninitialized_copyIN9__gnu_cxx17__normal_iteratorIPKiSt6vectorIiSaIiEEEEPiET0_T_SA_S9_:
.LFB11630:
	.cfi_startproc
	stp	x29, x30, [sp, -64]!
	.cfi_def_cfa_offset 64
	.cfi_offset 29, -64
	.cfi_offset 30, -56
	mov	x29, sp
	str	x0, [sp, 40]
	str	x1, [sp, 32]
	str	x2, [sp, 24]
	mov	w0, 1
	strb	w0, [sp, 63]
	ldr	x2, [sp, 24]
	ldr	x1, [sp, 32]
	ldr	x0, [sp, 40]
	bl	_ZNSt20__uninitialized_copyILb1EE13__uninit_copyIN9__gnu_cxx17__normal_iteratorIPKiSt6vectorIiSaIiEEEEPiEET0_T_SC_SB_
	ldp	x29, x30, [sp], 64
	.cfi_restore 30
	.cfi_restore 29
	.cfi_def_cfa_offset 0
	ret
	.cfi_endproc
.LFE11630:
	.size	_ZSt18uninitialized_copyIN9__gnu_cxx17__normal_iteratorIPKiSt6vectorIiSaIiEEEEPiET0_T_SA_S9_, .-_ZSt18uninitialized_copyIN9__gnu_cxx17__normal_iteratorIPKiSt6vectorIiSaIiEEEEPiET0_T_SA_S9_
	.section	.text._ZNKSt13move_iteratorIPSt6vectorIiSaIiEEE4baseEv,"axG",@progbits,_ZNKSt13move_iteratorIPSt6vectorIiSaIiEEE4baseEv,comdat
	.align	2
	.weak	_ZNKSt13move_iteratorIPSt6vectorIiSaIiEEE4baseEv
	.type	_ZNKSt13move_iteratorIPSt6vectorIiSaIiEEE4baseEv, %function
_ZNKSt13move_iteratorIPSt6vectorIiSaIiEEE4baseEv:
.LFB11633:
	.cfi_startproc
	sub	sp, sp, #16
	.cfi_def_cfa_offset 16
	str	x0, [sp, 8]
	ldr	x0, [sp, 8]
	ldr	x0, [x0]
	add	sp, sp, 16
	.cfi_def_cfa_offset 0
	ret
	.cfi_endproc
.LFE11633:
	.size	_ZNKSt13move_iteratorIPSt6vectorIiSaIiEEE4baseEv, .-_ZNKSt13move_iteratorIPSt6vectorIiSaIiEEE4baseEv
	.section	.text._ZSteqIPSt6vectorIiSaIiEEEbRKSt13move_iteratorIT_ES8_,"axG",@progbits,_ZSteqIPSt6vectorIiSaIiEEEbRKSt13move_iteratorIT_ES8_,comdat
	.align	2
	.weak	_ZSteqIPSt6vectorIiSaIiEEEbRKSt13move_iteratorIT_ES8_
	.type	_ZSteqIPSt6vectorIiSaIiEEEbRKSt13move_iteratorIT_ES8_, %function
_ZSteqIPSt6vectorIiSaIiEEEbRKSt13move_iteratorIT_ES8_:
.LFB11632:
	.cfi_startproc
	stp	x29, x30, [sp, -48]!
	.cfi_def_cfa_offset 48
	.cfi_offset 29, -48
	.cfi_offset 30, -40
	mov	x29, sp
	str	x19, [sp, 16]
	.cfi_offset 19, -32
	str	x0, [sp, 40]
	str	x1, [sp, 32]
	ldr	x0, [sp, 40]
	bl	_ZNKSt13move_iteratorIPSt6vectorIiSaIiEEE4baseEv
	mov	x19, x0
	ldr	x0, [sp, 32]
	bl	_ZNKSt13move_iteratorIPSt6vectorIiSaIiEEE4baseEv
	cmp	x19, x0
	cset	w0, eq
	and	w0, w0, 255
	ldr	x19, [sp, 16]
	ldp	x29, x30, [sp], 48
	.cfi_restore 30
	.cfi_restore 29
	.cfi_restore 19
	.cfi_def_cfa_offset 0
	ret
	.cfi_endproc
.LFE11632:
	.size	_ZSteqIPSt6vectorIiSaIiEEEbRKSt13move_iteratorIT_ES8_, .-_ZSteqIPSt6vectorIiSaIiEEEbRKSt13move_iteratorIT_ES8_
	.section	.text._ZSt7forwardISt6vectorIiSaIiEEEOT_RNSt16remove_referenceIS3_E4typeE,"axG",@progbits,_ZSt7forwardISt6vectorIiSaIiEEEOT_RNSt16remove_referenceIS3_E4typeE,comdat
	.align	2
	.weak	_ZSt7forwardISt6vectorIiSaIiEEEOT_RNSt16remove_referenceIS3_E4typeE
	.type	_ZSt7forwardISt6vectorIiSaIiEEEOT_RNSt16remove_referenceIS3_E4typeE, %function
_ZSt7forwardISt6vectorIiSaIiEEEOT_RNSt16remove_referenceIS3_E4typeE:
.LFB11634:
	.cfi_startproc
	sub	sp, sp, #16
	.cfi_def_cfa_offset 16
	str	x0, [sp, 8]
	ldr	x0, [sp, 8]
	add	sp, sp, 16
	.cfi_def_cfa_offset 0
	ret
	.cfi_endproc
.LFE11634:
	.size	_ZSt7forwardISt6vectorIiSaIiEEEOT_RNSt16remove_referenceIS3_E4typeE, .-_ZSt7forwardISt6vectorIiSaIiEEEOT_RNSt16remove_referenceIS3_E4typeE
	.section	.text._ZNSt12_Vector_baseIiSaIiEE12_Vector_implC2EOS2_,"axG",@progbits,_ZNSt12_Vector_baseIiSaIiEE12_Vector_implC5EOS2_,comdat
	.align	2
	.weak	_ZNSt12_Vector_baseIiSaIiEE12_Vector_implC2EOS2_
	.type	_ZNSt12_Vector_baseIiSaIiEE12_Vector_implC2EOS2_, %function
_ZNSt12_Vector_baseIiSaIiEE12_Vector_implC2EOS2_:
.LFB11636:
	.cfi_startproc
	stp	x29, x30, [sp, -48]!
	.cfi_def_cfa_offset 48
	.cfi_offset 29, -48
	.cfi_offset 30, -40
	mov	x29, sp
	str	x19, [sp, 16]
	.cfi_offset 19, -32
	str	x0, [sp, 40]
	str	x1, [sp, 32]
	ldr	x0, [sp, 32]
	bl	_ZSt4moveIRNSt12_Vector_baseIiSaIiEE12_Vector_implEEONSt16remove_referenceIT_E4typeEOS6_
	mov	x1, x0
	ldr	x0, [sp, 40]
	bl	_ZNSaIiEC2ERKS_
	ldr	x19, [sp, 40]
	ldr	x0, [sp, 32]
	bl	_ZSt4moveIRNSt12_Vector_baseIiSaIiEE12_Vector_implEEONSt16remove_referenceIT_E4typeEOS6_
	mov	x1, x0
	mov	x0, x19
	bl	_ZNSt12_Vector_baseIiSaIiEE17_Vector_impl_dataC2EOS2_
	nop
	ldr	x19, [sp, 16]
	ldp	x29, x30, [sp], 48
	.cfi_restore 30
	.cfi_restore 29
	.cfi_restore 19
	.cfi_def_cfa_offset 0
	ret
	.cfi_endproc
.LFE11636:
	.size	_ZNSt12_Vector_baseIiSaIiEE12_Vector_implC2EOS2_, .-_ZNSt12_Vector_baseIiSaIiEE12_Vector_implC2EOS2_
	.weak	_ZNSt12_Vector_baseIiSaIiEE12_Vector_implC1EOS2_
	.set	_ZNSt12_Vector_baseIiSaIiEE12_Vector_implC1EOS2_,_ZNSt12_Vector_baseIiSaIiEE12_Vector_implC2EOS2_
	.section	.text._ZSt4moveIRSt6vectorIiSaIiEEEONSt16remove_referenceIT_E4typeEOS5_,"axG",@progbits,_ZSt4moveIRSt6vectorIiSaIiEEEONSt16remove_referenceIT_E4typeEOS5_,comdat
	.align	2
	.weak	_ZSt4moveIRSt6vectorIiSaIiEEEONSt16remove_referenceIT_E4typeEOS5_
	.type	_ZSt4moveIRSt6vectorIiSaIiEEEONSt16remove_referenceIT_E4typeEOS5_, %function
_ZSt4moveIRSt6vectorIiSaIiEEEONSt16remove_referenceIT_E4typeEOS5_:
.LFB11638:
	.cfi_startproc
	sub	sp, sp, #16
	.cfi_def_cfa_offset 16
	str	x0, [sp, 8]
	ldr	x0, [sp, 8]
	add	sp, sp, 16
	.cfi_def_cfa_offset 0
	ret
	.cfi_endproc
.LFE11638:
	.size	_ZSt4moveIRSt6vectorIiSaIiEEEONSt16remove_referenceIT_E4typeEOS5_, .-_ZSt4moveIRSt6vectorIiSaIiEEEONSt16remove_referenceIT_E4typeEOS5_
	.section	.text._ZNSt6vectorIiSaIiEEaSEOS1_,"axG",@progbits,_ZNSt6vectorIiSaIiEEaSEOS1_,comdat
	.align	2
	.weak	_ZNSt6vectorIiSaIiEEaSEOS1_
	.type	_ZNSt6vectorIiSaIiEEaSEOS1_, %function
_ZNSt6vectorIiSaIiEEaSEOS1_:
.LFB11639:
	.cfi_startproc
	stp	x29, x30, [sp, -64]!
	.cfi_def_cfa_offset 64
	.cfi_offset 29, -64
	.cfi_offset 30, -56
	mov	x29, sp
	str	x19, [sp, 16]
	.cfi_offset 19, -48
	str	x0, [sp, 40]
	str	x1, [sp, 32]
	mov	w0, 1
	strb	w0, [sp, 63]
	ldr	x0, [sp, 32]
	bl	_ZSt4moveIRSt6vectorIiSaIiEEEONSt16remove_referenceIT_E4typeEOS5_
	mov	w2, w19
	mov	x1, x0
	ldr	x0, [sp, 40]
	bl	_ZNSt6vectorIiSaIiEE14_M_move_assignEOS1_St17integral_constantIbLb1EE
	ldr	x0, [sp, 40]
	ldr	x19, [sp, 16]
	ldp	x29, x30, [sp], 64
	.cfi_restore 30
	.cfi_restore 29
	.cfi_restore 19
	.cfi_def_cfa_offset 0
	ret
	.cfi_endproc
.LFE11639:
	.size	_ZNSt6vectorIiSaIiEEaSEOS1_, .-_ZNSt6vectorIiSaIiEEaSEOS1_
	.section	.text._ZN9__gnu_cxx17__normal_iteratorIPiSt6vectorIiSaIiEEEC2ERKS1_,"axG",@progbits,_ZN9__gnu_cxx17__normal_iteratorIPiSt6vectorIiSaIiEEEC5ERKS1_,comdat
	.align	2
	.weak	_ZN9__gnu_cxx17__normal_iteratorIPiSt6vectorIiSaIiEEEC2ERKS1_
	.type	_ZN9__gnu_cxx17__normal_iteratorIPiSt6vectorIiSaIiEEEC2ERKS1_, %function
_ZN9__gnu_cxx17__normal_iteratorIPiSt6vectorIiSaIiEEEC2ERKS1_:
.LFB11641:
	.cfi_startproc
	sub	sp, sp, #16
	.cfi_def_cfa_offset 16
	str	x0, [sp, 8]
	str	x1, [sp]
	ldr	x0, [sp]
	ldr	x1, [x0]
	ldr	x0, [sp, 8]
	str	x1, [x0]
	nop
	add	sp, sp, 16
	.cfi_def_cfa_offset 0
	ret
	.cfi_endproc
.LFE11641:
	.size	_ZN9__gnu_cxx17__normal_iteratorIPiSt6vectorIiSaIiEEEC2ERKS1_, .-_ZN9__gnu_cxx17__normal_iteratorIPiSt6vectorIiSaIiEEEC2ERKS1_
	.weak	_ZN9__gnu_cxx17__normal_iteratorIPiSt6vectorIiSaIiEEEC1ERKS1_
	.set	_ZN9__gnu_cxx17__normal_iteratorIPiSt6vectorIiSaIiEEEC1ERKS1_,_ZN9__gnu_cxx17__normal_iteratorIPiSt6vectorIiSaIiEEEC2ERKS1_
	.section	.text._ZSt12__miter_baseIN9__gnu_cxx17__normal_iteratorIPKiSt6vectorIiSaIiEEEEET_S8_,"axG",@progbits,_ZSt12__miter_baseIN9__gnu_cxx17__normal_iteratorIPKiSt6vectorIiSaIiEEEEET_S8_,comdat
	.align	2
	.weak	_ZSt12__miter_baseIN9__gnu_cxx17__normal_iteratorIPKiSt6vectorIiSaIiEEEEET_S8_
	.type	_ZSt12__miter_baseIN9__gnu_cxx17__normal_iteratorIPKiSt6vectorIiSaIiEEEEET_S8_, %function
_ZSt12__miter_baseIN9__gnu_cxx17__normal_iteratorIPKiSt6vectorIiSaIiEEEEET_S8_:
.LFB11643:
	.cfi_startproc
	sub	sp, sp, #16
	.cfi_def_cfa_offset 16
	str	x0, [sp, 8]
	ldr	x0, [sp, 8]
	add	sp, sp, 16
	.cfi_def_cfa_offset 0
	ret
	.cfi_endproc
.LFE11643:
	.size	_ZSt12__miter_baseIN9__gnu_cxx17__normal_iteratorIPKiSt6vectorIiSaIiEEEEET_S8_, .-_ZSt12__miter_baseIN9__gnu_cxx17__normal_iteratorIPKiSt6vectorIiSaIiEEEEET_S8_
	.section	.text._ZSt13__copy_move_aILb0EN9__gnu_cxx17__normal_iteratorIPKiSt6vectorIiSaIiEEEENS1_IPiS6_EEET1_T0_SB_SA_,"axG",@progbits,_ZSt13__copy_move_aILb0EN9__gnu_cxx17__normal_iteratorIPKiSt6vectorIiSaIiEEEENS1_IPiS6_EEET1_T0_SB_SA_,comdat
	.align	2
	.weak	_ZSt13__copy_move_aILb0EN9__gnu_cxx17__normal_iteratorIPKiSt6vectorIiSaIiEEEENS1_IPiS6_EEET1_T0_SB_SA_
	.type	_ZSt13__copy_move_aILb0EN9__gnu_cxx17__normal_iteratorIPKiSt6vectorIiSaIiEEEENS1_IPiS6_EEET1_T0_SB_SA_, %function
_ZSt13__copy_move_aILb0EN9__gnu_cxx17__normal_iteratorIPKiSt6vectorIiSaIiEEEENS1_IPiS6_EEET1_T0_SB_SA_:
.LFB11644:
	.cfi_startproc
	stp	x29, x30, [sp, -64]!
	.cfi_def_cfa_offset 64
	.cfi_offset 29, -64
	.cfi_offset 30, -56
	mov	x29, sp
	stp	x19, x20, [sp, 16]
	.cfi_offset 19, -48
	.cfi_offset 20, -40
	str	x0, [sp, 56]
	str	x1, [sp, 48]
	str	x2, [sp, 40]
	ldr	x0, [sp, 56]
	bl	_ZSt12__niter_baseIPKiSt6vectorIiSaIiEEET_N9__gnu_cxx17__normal_iteratorIS5_T0_EE
	mov	x19, x0
	ldr	x0, [sp, 48]
	bl	_ZSt12__niter_baseIPKiSt6vectorIiSaIiEEET_N9__gnu_cxx17__normal_iteratorIS5_T0_EE
	mov	x20, x0
	ldr	x0, [sp, 40]
	bl	_ZSt12__niter_baseIPiSt6vectorIiSaIiEEET_N9__gnu_cxx17__normal_iteratorIS4_T0_EE
	mov	x2, x0
	mov	x1, x20
	mov	x0, x19
	bl	_ZSt14__copy_move_a1ILb0EPKiPiET1_T0_S4_S3_
	mov	x1, x0
	ldr	x0, [sp, 40]
	bl	_ZSt12__niter_wrapIN9__gnu_cxx17__normal_iteratorIPiSt6vectorIiSaIiEEEES2_ET_S7_T0_
	ldp	x19, x20, [sp, 16]
	ldp	x29, x30, [sp], 64
	.cfi_restore 30
	.cfi_restore 29
	.cfi_restore 19
	.cfi_restore 20
	.cfi_def_cfa_offset 0
	ret
	.cfi_endproc
.LFE11644:
	.size	_ZSt13__copy_move_aILb0EN9__gnu_cxx17__normal_iteratorIPKiSt6vectorIiSaIiEEEENS1_IPiS6_EEET1_T0_SB_SA_, .-_ZSt13__copy_move_aILb0EN9__gnu_cxx17__normal_iteratorIPKiSt6vectorIiSaIiEEEENS1_IPiS6_EEET1_T0_SB_SA_
	.section	.text._ZSt8_DestroyIN9__gnu_cxx17__normal_iteratorIPiSt6vectorIiSaIiEEEEEvT_S7_,"axG",@progbits,_ZSt8_DestroyIN9__gnu_cxx17__normal_iteratorIPiSt6vectorIiSaIiEEEEEvT_S7_,comdat
	.align	2
	.weak	_ZSt8_DestroyIN9__gnu_cxx17__normal_iteratorIPiSt6vectorIiSaIiEEEEEvT_S7_
	.type	_ZSt8_DestroyIN9__gnu_cxx17__normal_iteratorIPiSt6vectorIiSaIiEEEEEvT_S7_, %function
_ZSt8_DestroyIN9__gnu_cxx17__normal_iteratorIPiSt6vectorIiSaIiEEEEEvT_S7_:
.LFB11646:
	.cfi_startproc
	stp	x29, x30, [sp, -32]!
	.cfi_def_cfa_offset 32
	.cfi_offset 29, -32
	.cfi_offset 30, -24
	mov	x29, sp
	str	x0, [sp, 24]
	str	x1, [sp, 16]
	ldr	x1, [sp, 16]
	ldr	x0, [sp, 24]
	bl	_ZNSt12_Destroy_auxILb1EE9__destroyIN9__gnu_cxx17__normal_iteratorIPiSt6vectorIiSaIiEEEEEEvT_S9_
	nop
	ldp	x29, x30, [sp], 32
	.cfi_restore 30
	.cfi_restore 29
	.cfi_def_cfa_offset 0
	ret
	.cfi_endproc
.LFE11646:
	.size	_ZSt8_DestroyIN9__gnu_cxx17__normal_iteratorIPiSt6vectorIiSaIiEEEEEvT_S7_, .-_ZSt8_DestroyIN9__gnu_cxx17__normal_iteratorIPiSt6vectorIiSaIiEEEEEvT_S7_
	.section	.text._ZSt12__miter_baseIPiET_S1_,"axG",@progbits,_ZSt12__miter_baseIPiET_S1_,comdat
	.align	2
	.weak	_ZSt12__miter_baseIPiET_S1_
	.type	_ZSt12__miter_baseIPiET_S1_, %function
_ZSt12__miter_baseIPiET_S1_:
.LFB11647:
	.cfi_startproc
	sub	sp, sp, #16
	.cfi_def_cfa_offset 16
	str	x0, [sp, 8]
	ldr	x0, [sp, 8]
	add	sp, sp, 16
	.cfi_def_cfa_offset 0
	ret
	.cfi_endproc
.LFE11647:
	.size	_ZSt12__miter_baseIPiET_S1_, .-_ZSt12__miter_baseIPiET_S1_
	.section	.text._ZSt13__copy_move_aILb0EPiS0_ET1_T0_S2_S1_,"axG",@progbits,_ZSt13__copy_move_aILb0EPiS0_ET1_T0_S2_S1_,comdat
	.align	2
	.weak	_ZSt13__copy_move_aILb0EPiS0_ET1_T0_S2_S1_
	.type	_ZSt13__copy_move_aILb0EPiS0_ET1_T0_S2_S1_, %function
_ZSt13__copy_move_aILb0EPiS0_ET1_T0_S2_S1_:
.LFB11648:
	.cfi_startproc
	stp	x29, x30, [sp, -64]!
	.cfi_def_cfa_offset 64
	.cfi_offset 29, -64
	.cfi_offset 30, -56
	mov	x29, sp
	stp	x19, x20, [sp, 16]
	.cfi_offset 19, -48
	.cfi_offset 20, -40
	str	x0, [sp, 56]
	str	x1, [sp, 48]
	str	x2, [sp, 40]
	ldr	x0, [sp, 56]
	bl	_ZSt12__niter_baseIPiET_S1_
	mov	x19, x0
	ldr	x0, [sp, 48]
	bl	_ZSt12__niter_baseIPiET_S1_
	mov	x20, x0
	ldr	x0, [sp, 40]
	bl	_ZSt12__niter_baseIPiET_S1_
	mov	x2, x0
	mov	x1, x20
	mov	x0, x19
	bl	_ZSt14__copy_move_a1ILb0EPiS0_ET1_T0_S2_S1_
	mov	x1, x0
	add	x0, sp, 40
	bl	_ZSt12__niter_wrapIPiET_RKS1_S1_
	ldp	x19, x20, [sp, 16]
	ldp	x29, x30, [sp], 64
	.cfi_restore 30
	.cfi_restore 29
	.cfi_restore 19
	.cfi_restore 20
	.cfi_def_cfa_offset 0
	ret
	.cfi_endproc
.LFE11648:
	.size	_ZSt13__copy_move_aILb0EPiS0_ET1_T0_S2_S1_, .-_ZSt13__copy_move_aILb0EPiS0_ET1_T0_S2_S1_
	.section	.text._ZSt18uninitialized_copyIPiS0_ET0_T_S2_S1_,"axG",@progbits,_ZSt18uninitialized_copyIPiS0_ET0_T_S2_S1_,comdat
	.align	2
	.weak	_ZSt18uninitialized_copyIPiS0_ET0_T_S2_S1_
	.type	_ZSt18uninitialized_copyIPiS0_ET0_T_S2_S1_, %function
_ZSt18uninitialized_copyIPiS0_ET0_T_S2_S1_:
.LFB11649:
	.cfi_startproc
	stp	x29, x30, [sp, -64]!
	.cfi_def_cfa_offset 64
	.cfi_offset 29, -64
	.cfi_offset 30, -56
	mov	x29, sp
	str	x0, [sp, 40]
	str	x1, [sp, 32]
	str	x2, [sp, 24]
	mov	w0, 1
	strb	w0, [sp, 63]
	ldr	x2, [sp, 24]
	ldr	x1, [sp, 32]
	ldr	x0, [sp, 40]
	bl	_ZNSt20__uninitialized_copyILb1EE13__uninit_copyIPiS2_EET0_T_S4_S3_
	ldp	x29, x30, [sp], 64
	.cfi_restore 30
	.cfi_restore 29
	.cfi_def_cfa_offset 0
	ret
	.cfi_endproc
.LFE11649:
	.size	_ZSt18uninitialized_copyIPiS0_ET0_T_S2_S1_, .-_ZSt18uninitialized_copyIPiS0_ET0_T_S2_S1_
	.section	.text._ZSt9__fill_a1IPiiEN9__gnu_cxx11__enable_ifIXsrSt11__is_scalarIT0_E7__valueEvE6__typeET_S8_RKS4_,"axG",@progbits,_ZSt9__fill_a1IPiiEN9__gnu_cxx11__enable_ifIXsrSt11__is_scalarIT0_E7__valueEvE6__typeET_S8_RKS4_,comdat
	.align	2
	.weak	_ZSt9__fill_a1IPiiEN9__gnu_cxx11__enable_ifIXsrSt11__is_scalarIT0_E7__valueEvE6__typeET_S8_RKS4_
	.type	_ZSt9__fill_a1IPiiEN9__gnu_cxx11__enable_ifIXsrSt11__is_scalarIT0_E7__valueEvE6__typeET_S8_RKS4_, %function
_ZSt9__fill_a1IPiiEN9__gnu_cxx11__enable_ifIXsrSt11__is_scalarIT0_E7__valueEvE6__typeET_S8_RKS4_:
.LFB11653:
	.cfi_startproc
	sub	sp, sp, #48
	.cfi_def_cfa_offset 48
	str	x0, [sp, 24]
	str	x1, [sp, 16]
	str	x2, [sp, 8]
	ldr	x0, [sp, 8]
	ldr	w0, [x0]
	str	w0, [sp, 44]
	b	.L417
.L418:
	ldr	x0, [sp, 24]
	ldr	w1, [sp, 44]
	str	w1, [x0]
	ldr	x0, [sp, 24]
	add	x0, x0, 4
	str	x0, [sp, 24]
.L417:
	ldr	x1, [sp, 24]
	ldr	x0, [sp, 16]
	cmp	x1, x0
	bne	.L418
	nop
	nop
	add	sp, sp, 48
	.cfi_def_cfa_offset 0
	ret
	.cfi_endproc
.LFE11653:
	.size	_ZSt9__fill_a1IPiiEN9__gnu_cxx11__enable_ifIXsrSt11__is_scalarIT0_E7__valueEvE6__typeET_S8_RKS4_, .-_ZSt9__fill_a1IPiiEN9__gnu_cxx11__enable_ifIXsrSt11__is_scalarIT0_E7__valueEvE6__typeET_S8_RKS4_
	.section	.text._ZNSt20__uninitialized_copyILb1EE13__uninit_copyIN9__gnu_cxx17__normal_iteratorIPKiSt6vectorIiSaIiEEEEPiEET0_T_SC_SB_,"axG",@progbits,_ZNSt20__uninitialized_copyILb1EE13__uninit_copyIN9__gnu_cxx17__normal_iteratorIPKiSt6vectorIiSaIiEEEEPiEET0_T_SC_SB_,comdat
	.align	2
	.weak	_ZNSt20__uninitialized_copyILb1EE13__uninit_copyIN9__gnu_cxx17__normal_iteratorIPKiSt6vectorIiSaIiEEEEPiEET0_T_SC_SB_
	.type	_ZNSt20__uninitialized_copyILb1EE13__uninit_copyIN9__gnu_cxx17__normal_iteratorIPKiSt6vectorIiSaIiEEEEPiEET0_T_SC_SB_, %function
_ZNSt20__uninitialized_copyILb1EE13__uninit_copyIN9__gnu_cxx17__normal_iteratorIPKiSt6vectorIiSaIiEEEEPiEET0_T_SC_SB_:
.LFB11654:
	.cfi_startproc
	stp	x29, x30, [sp, -48]!
	.cfi_def_cfa_offset 48
	.cfi_offset 29, -48
	.cfi_offset 30, -40
	mov	x29, sp
	str	x0, [sp, 40]
	str	x1, [sp, 32]
	str	x2, [sp, 24]
	ldr	x2, [sp, 24]
	ldr	x1, [sp, 32]
	ldr	x0, [sp, 40]
	bl	_ZSt4copyIN9__gnu_cxx17__normal_iteratorIPKiSt6vectorIiSaIiEEEEPiET0_T_SA_S9_
	ldp	x29, x30, [sp], 48
	.cfi_restore 30
	.cfi_restore 29
	.cfi_def_cfa_offset 0
	ret
	.cfi_endproc
.LFE11654:
	.size	_ZNSt20__uninitialized_copyILb1EE13__uninit_copyIN9__gnu_cxx17__normal_iteratorIPKiSt6vectorIiSaIiEEEEPiEET0_T_SC_SB_, .-_ZNSt20__uninitialized_copyILb1EE13__uninit_copyIN9__gnu_cxx17__normal_iteratorIPKiSt6vectorIiSaIiEEEEPiEET0_T_SC_SB_
	.section	.text._ZSt4moveIRNSt12_Vector_baseIiSaIiEE12_Vector_implEEONSt16remove_referenceIT_E4typeEOS6_,"axG",@progbits,_ZSt4moveIRNSt12_Vector_baseIiSaIiEE12_Vector_implEEONSt16remove_referenceIT_E4typeEOS6_,comdat
	.align	2
	.weak	_ZSt4moveIRNSt12_Vector_baseIiSaIiEE12_Vector_implEEONSt16remove_referenceIT_E4typeEOS6_
	.type	_ZSt4moveIRNSt12_Vector_baseIiSaIiEE12_Vector_implEEONSt16remove_referenceIT_E4typeEOS6_, %function
_ZSt4moveIRNSt12_Vector_baseIiSaIiEE12_Vector_implEEONSt16remove_referenceIT_E4typeEOS6_:
.LFB11655:
	.cfi_startproc
	sub	sp, sp, #16
	.cfi_def_cfa_offset 16
	str	x0, [sp, 8]
	ldr	x0, [sp, 8]
	add	sp, sp, 16
	.cfi_def_cfa_offset 0
	ret
	.cfi_endproc
.LFE11655:
	.size	_ZSt4moveIRNSt12_Vector_baseIiSaIiEE12_Vector_implEEONSt16remove_referenceIT_E4typeEOS6_, .-_ZSt4moveIRNSt12_Vector_baseIiSaIiEE12_Vector_implEEONSt16remove_referenceIT_E4typeEOS6_
	.section	.text._ZNSt12_Vector_baseIiSaIiEE17_Vector_impl_dataC2EOS2_,"axG",@progbits,_ZNSt12_Vector_baseIiSaIiEE17_Vector_impl_dataC5EOS2_,comdat
	.align	2
	.weak	_ZNSt12_Vector_baseIiSaIiEE17_Vector_impl_dataC2EOS2_
	.type	_ZNSt12_Vector_baseIiSaIiEE17_Vector_impl_dataC2EOS2_, %function
_ZNSt12_Vector_baseIiSaIiEE17_Vector_impl_dataC2EOS2_:
.LFB11657:
	.cfi_startproc
	sub	sp, sp, #16
	.cfi_def_cfa_offset 16
	str	x0, [sp, 8]
	str	x1, [sp]
	ldr	x0, [sp]
	ldr	x1, [x0]
	ldr	x0, [sp, 8]
	str	x1, [x0]
	ldr	x0, [sp]
	ldr	x1, [x0, 8]
	ldr	x0, [sp, 8]
	str	x1, [x0, 8]
	ldr	x0, [sp]
	ldr	x1, [x0, 16]
	ldr	x0, [sp, 8]
	str	x1, [x0, 16]
	ldr	x0, [sp]
	str	xzr, [x0, 16]
	ldr	x0, [sp]
	ldr	x1, [x0, 16]
	ldr	x0, [sp]
	str	x1, [x0, 8]
	ldr	x0, [sp]
	ldr	x1, [x0, 8]
	ldr	x0, [sp]
	str	x1, [x0]
	nop
	add	sp, sp, 16
	.cfi_def_cfa_offset 0
	ret
	.cfi_endproc
.LFE11657:
	.size	_ZNSt12_Vector_baseIiSaIiEE17_Vector_impl_dataC2EOS2_, .-_ZNSt12_Vector_baseIiSaIiEE17_Vector_impl_dataC2EOS2_
	.weak	_ZNSt12_Vector_baseIiSaIiEE17_Vector_impl_dataC1EOS2_
	.set	_ZNSt12_Vector_baseIiSaIiEE17_Vector_impl_dataC1EOS2_,_ZNSt12_Vector_baseIiSaIiEE17_Vector_impl_dataC2EOS2_
	.section	.text._ZNSt6vectorIiSaIiEE14_M_move_assignEOS1_St17integral_constantIbLb1EE,"axG",@progbits,_ZNSt6vectorIiSaIiEE14_M_move_assignEOS1_St17integral_constantIbLb1EE,comdat
	.align	2
	.weak	_ZNSt6vectorIiSaIiEE14_M_move_assignEOS1_St17integral_constantIbLb1EE
	.type	_ZNSt6vectorIiSaIiEE14_M_move_assignEOS1_St17integral_constantIbLb1EE, %function
_ZNSt6vectorIiSaIiEE14_M_move_assignEOS1_St17integral_constantIbLb1EE:
.LFB11659:
	.cfi_startproc
	stp	x29, x30, [sp, -96]!
	.cfi_def_cfa_offset 96
	.cfi_offset 29, -96
	.cfi_offset 30, -88
	mov	x29, sp
	str	x19, [sp, 16]
	.cfi_offset 19, -80
	str	x0, [sp, 56]
	str	x1, [sp, 48]
	strb	w2, [sp, 40]
	ldr	x0, [sp, 56]
	add	x1, sp, 88
	mov	x8, x1
	bl	_ZNKSt12_Vector_baseIiSaIiEE13get_allocatorEv
	add	x1, sp, 88
	add	x0, sp, 64
	bl	_ZNSt6vectorIiSaIiEEC1ERKS0_
	add	x0, sp, 88
	bl	_ZNSaIiED1Ev
	ldr	x0, [sp, 56]
	ldr	x1, [sp, 48]
	bl	_ZNSt12_Vector_baseIiSaIiEE17_Vector_impl_data12_M_swap_dataERS2_
	ldr	x1, [sp, 48]
	add	x0, sp, 64
	bl	_ZNSt12_Vector_baseIiSaIiEE17_Vector_impl_data12_M_swap_dataERS2_
	ldr	x0, [sp, 56]
	bl	_ZNSt12_Vector_baseIiSaIiEE19_M_get_Tp_allocatorEv
	mov	x19, x0
	ldr	x0, [sp, 48]
	bl	_ZNSt12_Vector_baseIiSaIiEE19_M_get_Tp_allocatorEv
	mov	x1, x0
	mov	x0, x19
	bl	_ZSt15__alloc_on_moveISaIiEEvRT_S2_
	add	x0, sp, 64
	bl	_ZNSt6vectorIiSaIiEED1Ev
	ldr	x19, [sp, 16]
	ldp	x29, x30, [sp], 96
	.cfi_restore 30
	.cfi_restore 29
	.cfi_restore 19
	.cfi_def_cfa_offset 0
	ret
	.cfi_endproc
.LFE11659:
	.size	_ZNSt6vectorIiSaIiEE14_M_move_assignEOS1_St17integral_constantIbLb1EE, .-_ZNSt6vectorIiSaIiEE14_M_move_assignEOS1_St17integral_constantIbLb1EE
	.section	.text._ZSt12__niter_baseIPKiSt6vectorIiSaIiEEET_N9__gnu_cxx17__normal_iteratorIS5_T0_EE,"axG",@progbits,_ZSt12__niter_baseIPKiSt6vectorIiSaIiEEET_N9__gnu_cxx17__normal_iteratorIS5_T0_EE,comdat
	.align	2
	.weak	_ZSt12__niter_baseIPKiSt6vectorIiSaIiEEET_N9__gnu_cxx17__normal_iteratorIS5_T0_EE
	.type	_ZSt12__niter_baseIPKiSt6vectorIiSaIiEEET_N9__gnu_cxx17__normal_iteratorIS5_T0_EE, %function
_ZSt12__niter_baseIPKiSt6vectorIiSaIiEEET_N9__gnu_cxx17__normal_iteratorIS5_T0_EE:
.LFB11660:
	.cfi_startproc
	stp	x29, x30, [sp, -32]!
	.cfi_def_cfa_offset 32
	.cfi_offset 29, -32
	.cfi_offset 30, -24
	mov	x29, sp
	str	x0, [sp, 24]
	add	x0, sp, 24
	bl	_ZNK9__gnu_cxx17__normal_iteratorIPKiSt6vectorIiSaIiEEE4baseEv
	ldr	x0, [x0]
	ldp	x29, x30, [sp], 32
	.cfi_restore 30
	.cfi_restore 29
	.cfi_def_cfa_offset 0
	ret
	.cfi_endproc
.LFE11660:
	.size	_ZSt12__niter_baseIPKiSt6vectorIiSaIiEEET_N9__gnu_cxx17__normal_iteratorIS5_T0_EE, .-_ZSt12__niter_baseIPKiSt6vectorIiSaIiEEET_N9__gnu_cxx17__normal_iteratorIS5_T0_EE
	.section	.text._ZSt12__niter_baseIPiSt6vectorIiSaIiEEET_N9__gnu_cxx17__normal_iteratorIS4_T0_EE,"axG",@progbits,_ZSt12__niter_baseIPiSt6vectorIiSaIiEEET_N9__gnu_cxx17__normal_iteratorIS4_T0_EE,comdat
	.align	2
	.weak	_ZSt12__niter_baseIPiSt6vectorIiSaIiEEET_N9__gnu_cxx17__normal_iteratorIS4_T0_EE
	.type	_ZSt12__niter_baseIPiSt6vectorIiSaIiEEET_N9__gnu_cxx17__normal_iteratorIS4_T0_EE, %function
_ZSt12__niter_baseIPiSt6vectorIiSaIiEEET_N9__gnu_cxx17__normal_iteratorIS4_T0_EE:
.LFB11661:
	.cfi_startproc
	stp	x29, x30, [sp, -32]!
	.cfi_def_cfa_offset 32
	.cfi_offset 29, -32
	.cfi_offset 30, -24
	mov	x29, sp
	str	x0, [sp, 24]
	add	x0, sp, 24
	bl	_ZNK9__gnu_cxx17__normal_iteratorIPiSt6vectorIiSaIiEEE4baseEv
	ldr	x0, [x0]
	ldp	x29, x30, [sp], 32
	.cfi_restore 30
	.cfi_restore 29
	.cfi_def_cfa_offset 0
	ret
	.cfi_endproc
.LFE11661:
	.size	_ZSt12__niter_baseIPiSt6vectorIiSaIiEEET_N9__gnu_cxx17__normal_iteratorIS4_T0_EE, .-_ZSt12__niter_baseIPiSt6vectorIiSaIiEEET_N9__gnu_cxx17__normal_iteratorIS4_T0_EE
	.section	.text._ZSt14__copy_move_a1ILb0EPKiPiET1_T0_S4_S3_,"axG",@progbits,_ZSt14__copy_move_a1ILb0EPKiPiET1_T0_S4_S3_,comdat
	.align	2
	.weak	_ZSt14__copy_move_a1ILb0EPKiPiET1_T0_S4_S3_
	.type	_ZSt14__copy_move_a1ILb0EPKiPiET1_T0_S4_S3_, %function
_ZSt14__copy_move_a1ILb0EPKiPiET1_T0_S4_S3_:
.LFB11662:
	.cfi_startproc
	stp	x29, x30, [sp, -48]!
	.cfi_def_cfa_offset 48
	.cfi_offset 29, -48
	.cfi_offset 30, -40
	mov	x29, sp
	str	x0, [sp, 40]
	str	x1, [sp, 32]
	str	x2, [sp, 24]
	ldr	x2, [sp, 24]
	ldr	x1, [sp, 32]
	ldr	x0, [sp, 40]
	bl	_ZSt14__copy_move_a2ILb0EPKiPiET1_T0_S4_S3_
	ldp	x29, x30, [sp], 48
	.cfi_restore 30
	.cfi_restore 29
	.cfi_def_cfa_offset 0
	ret
	.cfi_endproc
.LFE11662:
	.size	_ZSt14__copy_move_a1ILb0EPKiPiET1_T0_S4_S3_, .-_ZSt14__copy_move_a1ILb0EPKiPiET1_T0_S4_S3_
	.section	.text._ZSt12__niter_wrapIN9__gnu_cxx17__normal_iteratorIPiSt6vectorIiSaIiEEEES2_ET_S7_T0_,"axG",@progbits,_ZSt12__niter_wrapIN9__gnu_cxx17__normal_iteratorIPiSt6vectorIiSaIiEEEES2_ET_S7_T0_,comdat
	.align	2
	.weak	_ZSt12__niter_wrapIN9__gnu_cxx17__normal_iteratorIPiSt6vectorIiSaIiEEEES2_ET_S7_T0_
	.type	_ZSt12__niter_wrapIN9__gnu_cxx17__normal_iteratorIPiSt6vectorIiSaIiEEEES2_ET_S7_T0_, %function
_ZSt12__niter_wrapIN9__gnu_cxx17__normal_iteratorIPiSt6vectorIiSaIiEEEES2_ET_S7_T0_:
.LFB11663:
	.cfi_startproc
	stp	x29, x30, [sp, -32]!
	.cfi_def_cfa_offset 32
	.cfi_offset 29, -32
	.cfi_offset 30, -24
	mov	x29, sp
	str	x0, [sp, 24]
	str	x1, [sp, 16]
	ldr	x0, [sp, 24]
	bl	_ZSt12__niter_baseIPiSt6vectorIiSaIiEEET_N9__gnu_cxx17__normal_iteratorIS4_T0_EE
	mov	x1, x0
	ldr	x0, [sp, 16]
	sub	x0, x0, x1
	asr	x0, x0, 2
	mov	x1, x0
	add	x0, sp, 24
	bl	_ZNK9__gnu_cxx17__normal_iteratorIPiSt6vectorIiSaIiEEEplEl
	ldp	x29, x30, [sp], 32
	.cfi_restore 30
	.cfi_restore 29
	.cfi_def_cfa_offset 0
	ret
	.cfi_endproc
.LFE11663:
	.size	_ZSt12__niter_wrapIN9__gnu_cxx17__normal_iteratorIPiSt6vectorIiSaIiEEEES2_ET_S7_T0_, .-_ZSt12__niter_wrapIN9__gnu_cxx17__normal_iteratorIPiSt6vectorIiSaIiEEEES2_ET_S7_T0_
	.section	.text._ZNSt12_Destroy_auxILb1EE9__destroyIN9__gnu_cxx17__normal_iteratorIPiSt6vectorIiSaIiEEEEEEvT_S9_,"axG",@progbits,_ZNSt12_Destroy_auxILb1EE9__destroyIN9__gnu_cxx17__normal_iteratorIPiSt6vectorIiSaIiEEEEEEvT_S9_,comdat
	.align	2
	.weak	_ZNSt12_Destroy_auxILb1EE9__destroyIN9__gnu_cxx17__normal_iteratorIPiSt6vectorIiSaIiEEEEEEvT_S9_
	.type	_ZNSt12_Destroy_auxILb1EE9__destroyIN9__gnu_cxx17__normal_iteratorIPiSt6vectorIiSaIiEEEEEEvT_S9_, %function
_ZNSt12_Destroy_auxILb1EE9__destroyIN9__gnu_cxx17__normal_iteratorIPiSt6vectorIiSaIiEEEEEEvT_S9_:
.LFB11664:
	.cfi_startproc
	sub	sp, sp, #16
	.cfi_def_cfa_offset 16
	str	x0, [sp, 8]
	str	x1, [sp]
	nop
	add	sp, sp, 16
	.cfi_def_cfa_offset 0
	ret
	.cfi_endproc
.LFE11664:
	.size	_ZNSt12_Destroy_auxILb1EE9__destroyIN9__gnu_cxx17__normal_iteratorIPiSt6vectorIiSaIiEEEEEEvT_S9_, .-_ZNSt12_Destroy_auxILb1EE9__destroyIN9__gnu_cxx17__normal_iteratorIPiSt6vectorIiSaIiEEEEEEvT_S9_
	.section	.text._ZSt14__copy_move_a1ILb0EPiS0_ET1_T0_S2_S1_,"axG",@progbits,_ZSt14__copy_move_a1ILb0EPiS0_ET1_T0_S2_S1_,comdat
	.align	2
	.weak	_ZSt14__copy_move_a1ILb0EPiS0_ET1_T0_S2_S1_
	.type	_ZSt14__copy_move_a1ILb0EPiS0_ET1_T0_S2_S1_, %function
_ZSt14__copy_move_a1ILb0EPiS0_ET1_T0_S2_S1_:
.LFB11665:
	.cfi_startproc
	stp	x29, x30, [sp, -48]!
	.cfi_def_cfa_offset 48
	.cfi_offset 29, -48
	.cfi_offset 30, -40
	mov	x29, sp
	str	x0, [sp, 40]
	str	x1, [sp, 32]
	str	x2, [sp, 24]
	ldr	x2, [sp, 24]
	ldr	x1, [sp, 32]
	ldr	x0, [sp, 40]
	bl	_ZSt14__copy_move_a2ILb0EPiS0_ET1_T0_S2_S1_
	ldp	x29, x30, [sp], 48
	.cfi_restore 30
	.cfi_restore 29
	.cfi_def_cfa_offset 0
	ret
	.cfi_endproc
.LFE11665:
	.size	_ZSt14__copy_move_a1ILb0EPiS0_ET1_T0_S2_S1_, .-_ZSt14__copy_move_a1ILb0EPiS0_ET1_T0_S2_S1_
	.section	.text._ZSt12__niter_wrapIPiET_RKS1_S1_,"axG",@progbits,_ZSt12__niter_wrapIPiET_RKS1_S1_,comdat
	.align	2
	.weak	_ZSt12__niter_wrapIPiET_RKS1_S1_
	.type	_ZSt12__niter_wrapIPiET_RKS1_S1_, %function
_ZSt12__niter_wrapIPiET_RKS1_S1_:
.LFB11666:
	.cfi_startproc
	sub	sp, sp, #16
	.cfi_def_cfa_offset 16
	str	x0, [sp, 8]
	str	x1, [sp]
	ldr	x0, [sp]
	add	sp, sp, 16
	.cfi_def_cfa_offset 0
	ret
	.cfi_endproc
.LFE11666:
	.size	_ZSt12__niter_wrapIPiET_RKS1_S1_, .-_ZSt12__niter_wrapIPiET_RKS1_S1_
	.section	.text._ZNSt20__uninitialized_copyILb1EE13__uninit_copyIPiS2_EET0_T_S4_S3_,"axG",@progbits,_ZNSt20__uninitialized_copyILb1EE13__uninit_copyIPiS2_EET0_T_S4_S3_,comdat
	.align	2
	.weak	_ZNSt20__uninitialized_copyILb1EE13__uninit_copyIPiS2_EET0_T_S4_S3_
	.type	_ZNSt20__uninitialized_copyILb1EE13__uninit_copyIPiS2_EET0_T_S4_S3_, %function
_ZNSt20__uninitialized_copyILb1EE13__uninit_copyIPiS2_EET0_T_S4_S3_:
.LFB11667:
	.cfi_startproc
	stp	x29, x30, [sp, -48]!
	.cfi_def_cfa_offset 48
	.cfi_offset 29, -48
	.cfi_offset 30, -40
	mov	x29, sp
	str	x0, [sp, 40]
	str	x1, [sp, 32]
	str	x2, [sp, 24]
	ldr	x2, [sp, 24]
	ldr	x1, [sp, 32]
	ldr	x0, [sp, 40]
	bl	_ZSt4copyIPiS0_ET0_T_S2_S1_
	ldp	x29, x30, [sp], 48
	.cfi_restore 30
	.cfi_restore 29
	.cfi_def_cfa_offset 0
	ret
	.cfi_endproc
.LFE11667:
	.size	_ZNSt20__uninitialized_copyILb1EE13__uninit_copyIPiS2_EET0_T_S4_S3_, .-_ZNSt20__uninitialized_copyILb1EE13__uninit_copyIPiS2_EET0_T_S4_S3_
	.section	.text._ZSt4copyIN9__gnu_cxx17__normal_iteratorIPKiSt6vectorIiSaIiEEEEPiET0_T_SA_S9_,"axG",@progbits,_ZSt4copyIN9__gnu_cxx17__normal_iteratorIPKiSt6vectorIiSaIiEEEEPiET0_T_SA_S9_,comdat
	.align	2
	.weak	_ZSt4copyIN9__gnu_cxx17__normal_iteratorIPKiSt6vectorIiSaIiEEEEPiET0_T_SA_S9_
	.type	_ZSt4copyIN9__gnu_cxx17__normal_iteratorIPKiSt6vectorIiSaIiEEEEPiET0_T_SA_S9_, %function
_ZSt4copyIN9__gnu_cxx17__normal_iteratorIPKiSt6vectorIiSaIiEEEEPiET0_T_SA_S9_:
.LFB11679:
	.cfi_startproc
	stp	x29, x30, [sp, -64]!
	.cfi_def_cfa_offset 64
	.cfi_offset 29, -64
	.cfi_offset 30, -56
	mov	x29, sp
	str	x19, [sp, 16]
	.cfi_offset 19, -48
	str	x0, [sp, 56]
	str	x1, [sp, 48]
	str	x2, [sp, 40]
	ldr	x0, [sp, 56]
	bl	_ZSt12__miter_baseIN9__gnu_cxx17__normal_iteratorIPKiSt6vectorIiSaIiEEEEET_S8_
	mov	x19, x0
	ldr	x0, [sp, 48]
	bl	_ZSt12__miter_baseIN9__gnu_cxx17__normal_iteratorIPKiSt6vectorIiSaIiEEEEET_S8_
	ldr	x2, [sp, 40]
	mov	x1, x0
	mov	x0, x19
	bl	_ZSt13__copy_move_aILb0EN9__gnu_cxx17__normal_iteratorIPKiSt6vectorIiSaIiEEEEPiET1_T0_SA_S9_
	ldr	x19, [sp, 16]
	ldp	x29, x30, [sp], 64
	.cfi_restore 30
	.cfi_restore 29
	.cfi_restore 19
	.cfi_def_cfa_offset 0
	ret
	.cfi_endproc
.LFE11679:
	.size	_ZSt4copyIN9__gnu_cxx17__normal_iteratorIPKiSt6vectorIiSaIiEEEEPiET0_T_SA_S9_, .-_ZSt4copyIN9__gnu_cxx17__normal_iteratorIPKiSt6vectorIiSaIiEEEEPiET0_T_SA_S9_
	.section	.text._ZNKSt12_Vector_baseIiSaIiEE13get_allocatorEv,"axG",@progbits,_ZNKSt12_Vector_baseIiSaIiEE13get_allocatorEv,comdat
	.align	2
	.weak	_ZNKSt12_Vector_baseIiSaIiEE13get_allocatorEv
	.type	_ZNKSt12_Vector_baseIiSaIiEE13get_allocatorEv, %function
_ZNKSt12_Vector_baseIiSaIiEE13get_allocatorEv:
.LFB11680:
	.cfi_startproc
	stp	x29, x30, [sp, -48]!
	.cfi_def_cfa_offset 48
	.cfi_offset 29, -48
	.cfi_offset 30, -40
	mov	x29, sp
	str	x19, [sp, 16]
	.cfi_offset 19, -32
	mov	x19, x8
	str	x0, [sp, 40]
	ldr	x0, [sp, 40]
	bl	_ZNKSt12_Vector_baseIiSaIiEE19_M_get_Tp_allocatorEv
	mov	x1, x0
	mov	x0, x19
	bl	_ZNSaIiEC1ERKS_
	mov	x0, x19
	ldr	x19, [sp, 16]
	ldp	x29, x30, [sp], 48
	.cfi_restore 30
	.cfi_restore 29
	.cfi_restore 19
	.cfi_def_cfa_offset 0
	ret
	.cfi_endproc
.LFE11680:
	.size	_ZNKSt12_Vector_baseIiSaIiEE13get_allocatorEv, .-_ZNKSt12_Vector_baseIiSaIiEE13get_allocatorEv
	.section	.text._ZNSt6vectorIiSaIiEEC2ERKS0_,"axG",@progbits,_ZNSt6vectorIiSaIiEEC5ERKS0_,comdat
	.align	2
	.weak	_ZNSt6vectorIiSaIiEEC2ERKS0_
	.type	_ZNSt6vectorIiSaIiEEC2ERKS0_, %function
_ZNSt6vectorIiSaIiEEC2ERKS0_:
.LFB11682:
	.cfi_startproc
	stp	x29, x30, [sp, -32]!
	.cfi_def_cfa_offset 32
	.cfi_offset 29, -32
	.cfi_offset 30, -24
	mov	x29, sp
	str	x0, [sp, 24]
	str	x1, [sp, 16]
	ldr	x0, [sp, 24]
	ldr	x1, [sp, 16]
	bl	_ZNSt12_Vector_baseIiSaIiEEC2ERKS0_
	nop
	ldp	x29, x30, [sp], 32
	.cfi_restore 30
	.cfi_restore 29
	.cfi_def_cfa_offset 0
	ret
	.cfi_endproc
.LFE11682:
	.size	_ZNSt6vectorIiSaIiEEC2ERKS0_, .-_ZNSt6vectorIiSaIiEEC2ERKS0_
	.weak	_ZNSt6vectorIiSaIiEEC1ERKS0_
	.set	_ZNSt6vectorIiSaIiEEC1ERKS0_,_ZNSt6vectorIiSaIiEEC2ERKS0_
	.section	.text._ZNSt12_Vector_baseIiSaIiEE17_Vector_impl_data12_M_swap_dataERS2_,"axG",@progbits,_ZNSt12_Vector_baseIiSaIiEE17_Vector_impl_data12_M_swap_dataERS2_,comdat
	.align	2
	.weak	_ZNSt12_Vector_baseIiSaIiEE17_Vector_impl_data12_M_swap_dataERS2_
	.type	_ZNSt12_Vector_baseIiSaIiEE17_Vector_impl_data12_M_swap_dataERS2_, %function
_ZNSt12_Vector_baseIiSaIiEE17_Vector_impl_data12_M_swap_dataERS2_:
.LFB11684:
	.cfi_startproc
	stp	x29, x30, [sp, -64]!
	.cfi_def_cfa_offset 64
	.cfi_offset 29, -64
	.cfi_offset 30, -56
	mov	x29, sp
	str	x0, [sp, 24]
	str	x1, [sp, 16]
	add	x0, sp, 40
	bl	_ZNSt12_Vector_baseIiSaIiEE17_Vector_impl_dataC1Ev
	add	x0, sp, 40
	ldr	x1, [sp, 24]
	bl	_ZNSt12_Vector_baseIiSaIiEE17_Vector_impl_data12_M_copy_dataERKS2_
	ldr	x1, [sp, 16]
	ldr	x0, [sp, 24]
	bl	_ZNSt12_Vector_baseIiSaIiEE17_Vector_impl_data12_M_copy_dataERKS2_
	add	x0, sp, 40
	mov	x1, x0
	ldr	x0, [sp, 16]
	bl	_ZNSt12_Vector_baseIiSaIiEE17_Vector_impl_data12_M_copy_dataERKS2_
	nop
	ldp	x29, x30, [sp], 64
	.cfi_restore 30
	.cfi_restore 29
	.cfi_def_cfa_offset 0
	ret
	.cfi_endproc
.LFE11684:
	.size	_ZNSt12_Vector_baseIiSaIiEE17_Vector_impl_data12_M_swap_dataERS2_, .-_ZNSt12_Vector_baseIiSaIiEE17_Vector_impl_data12_M_swap_dataERS2_
	.section	.text._ZSt15__alloc_on_moveISaIiEEvRT_S2_,"axG",@progbits,_ZSt15__alloc_on_moveISaIiEEvRT_S2_,comdat
	.align	2
	.weak	_ZSt15__alloc_on_moveISaIiEEvRT_S2_
	.type	_ZSt15__alloc_on_moveISaIiEEvRT_S2_, %function
_ZSt15__alloc_on_moveISaIiEEvRT_S2_:
.LFB11685:
	.cfi_startproc
	stp	x29, x30, [sp, -32]!
	.cfi_def_cfa_offset 32
	.cfi_offset 29, -32
	.cfi_offset 30, -24
	mov	x29, sp
	str	x0, [sp, 24]
	str	x1, [sp, 16]
	ldr	x0, [sp, 16]
	bl	_ZSt4moveIRSaIiEEONSt16remove_referenceIT_E4typeEOS3_
	nop
	ldp	x29, x30, [sp], 32
	.cfi_restore 30
	.cfi_restore 29
	.cfi_def_cfa_offset 0
	ret
	.cfi_endproc
.LFE11685:
	.size	_ZSt15__alloc_on_moveISaIiEEvRT_S2_, .-_ZSt15__alloc_on_moveISaIiEEvRT_S2_
	.section	.text._ZNK9__gnu_cxx17__normal_iteratorIPKiSt6vectorIiSaIiEEE4baseEv,"axG",@progbits,_ZNK9__gnu_cxx17__normal_iteratorIPKiSt6vectorIiSaIiEEE4baseEv,comdat
	.align	2
	.weak	_ZNK9__gnu_cxx17__normal_iteratorIPKiSt6vectorIiSaIiEEE4baseEv
	.type	_ZNK9__gnu_cxx17__normal_iteratorIPKiSt6vectorIiSaIiEEE4baseEv, %function
_ZNK9__gnu_cxx17__normal_iteratorIPKiSt6vectorIiSaIiEEE4baseEv:
.LFB11686:
	.cfi_startproc
	sub	sp, sp, #16
	.cfi_def_cfa_offset 16
	str	x0, [sp, 8]
	ldr	x0, [sp, 8]
	add	sp, sp, 16
	.cfi_def_cfa_offset 0
	ret
	.cfi_endproc
.LFE11686:
	.size	_ZNK9__gnu_cxx17__normal_iteratorIPKiSt6vectorIiSaIiEEE4baseEv, .-_ZNK9__gnu_cxx17__normal_iteratorIPKiSt6vectorIiSaIiEEE4baseEv
	.section	.text._ZNK9__gnu_cxx17__normal_iteratorIPiSt6vectorIiSaIiEEE4baseEv,"axG",@progbits,_ZNK9__gnu_cxx17__normal_iteratorIPiSt6vectorIiSaIiEEE4baseEv,comdat
	.align	2
	.weak	_ZNK9__gnu_cxx17__normal_iteratorIPiSt6vectorIiSaIiEEE4baseEv
	.type	_ZNK9__gnu_cxx17__normal_iteratorIPiSt6vectorIiSaIiEEE4baseEv, %function
_ZNK9__gnu_cxx17__normal_iteratorIPiSt6vectorIiSaIiEEE4baseEv:
.LFB11687:
	.cfi_startproc
	sub	sp, sp, #16
	.cfi_def_cfa_offset 16
	str	x0, [sp, 8]
	ldr	x0, [sp, 8]
	add	sp, sp, 16
	.cfi_def_cfa_offset 0
	ret
	.cfi_endproc
.LFE11687:
	.size	_ZNK9__gnu_cxx17__normal_iteratorIPiSt6vectorIiSaIiEEE4baseEv, .-_ZNK9__gnu_cxx17__normal_iteratorIPiSt6vectorIiSaIiEEE4baseEv
	.section	.text._ZSt14__copy_move_a2ILb0EPKiPiET1_T0_S4_S3_,"axG",@progbits,_ZSt14__copy_move_a2ILb0EPKiPiET1_T0_S4_S3_,comdat
	.align	2
	.weak	_ZSt14__copy_move_a2ILb0EPKiPiET1_T0_S4_S3_
	.type	_ZSt14__copy_move_a2ILb0EPKiPiET1_T0_S4_S3_, %function
_ZSt14__copy_move_a2ILb0EPKiPiET1_T0_S4_S3_:
.LFB11688:
	.cfi_startproc
	stp	x29, x30, [sp, -48]!
	.cfi_def_cfa_offset 48
	.cfi_offset 29, -48
	.cfi_offset 30, -40
	mov	x29, sp
	str	x0, [sp, 40]
	str	x1, [sp, 32]
	str	x2, [sp, 24]
	ldr	x2, [sp, 24]
	ldr	x1, [sp, 32]
	ldr	x0, [sp, 40]
	bl	_ZNSt11__copy_moveILb0ELb1ESt26random_access_iterator_tagE8__copy_mIiEEPT_PKS3_S6_S4_
	ldp	x29, x30, [sp], 48
	.cfi_restore 30
	.cfi_restore 29
	.cfi_def_cfa_offset 0
	ret
	.cfi_endproc
.LFE11688:
	.size	_ZSt14__copy_move_a2ILb0EPKiPiET1_T0_S4_S3_, .-_ZSt14__copy_move_a2ILb0EPKiPiET1_T0_S4_S3_
	.section	.text._ZNK9__gnu_cxx17__normal_iteratorIPiSt6vectorIiSaIiEEEplEl,"axG",@progbits,_ZNK9__gnu_cxx17__normal_iteratorIPiSt6vectorIiSaIiEEEplEl,comdat
	.align	2
	.weak	_ZNK9__gnu_cxx17__normal_iteratorIPiSt6vectorIiSaIiEEEplEl
	.type	_ZNK9__gnu_cxx17__normal_iteratorIPiSt6vectorIiSaIiEEEplEl, %function
_ZNK9__gnu_cxx17__normal_iteratorIPiSt6vectorIiSaIiEEEplEl:
.LFB11689:
	.cfi_startproc
	stp	x29, x30, [sp, -48]!
	.cfi_def_cfa_offset 48
	.cfi_offset 29, -48
	.cfi_offset 30, -40
	mov	x29, sp
	str	x0, [sp, 24]
	str	x1, [sp, 16]
	ldr	x0, [sp, 24]
	ldr	x1, [x0]
	ldr	x0, [sp, 16]
	lsl	x0, x0, 2
	add	x0, x1, x0
	str	x0, [sp, 40]
	add	x1, sp, 40
	add	x0, sp, 32
	bl	_ZN9__gnu_cxx17__normal_iteratorIPiSt6vectorIiSaIiEEEC1ERKS1_
	ldr	x0, [sp, 32]
	ldp	x29, x30, [sp], 48
	.cfi_restore 30
	.cfi_restore 29
	.cfi_def_cfa_offset 0
	ret
	.cfi_endproc
.LFE11689:
	.size	_ZNK9__gnu_cxx17__normal_iteratorIPiSt6vectorIiSaIiEEEplEl, .-_ZNK9__gnu_cxx17__normal_iteratorIPiSt6vectorIiSaIiEEEplEl
	.section	.text._ZSt14__copy_move_a2ILb0EPiS0_ET1_T0_S2_S1_,"axG",@progbits,_ZSt14__copy_move_a2ILb0EPiS0_ET1_T0_S2_S1_,comdat
	.align	2
	.weak	_ZSt14__copy_move_a2ILb0EPiS0_ET1_T0_S2_S1_
	.type	_ZSt14__copy_move_a2ILb0EPiS0_ET1_T0_S2_S1_, %function
_ZSt14__copy_move_a2ILb0EPiS0_ET1_T0_S2_S1_:
.LFB11690:
	.cfi_startproc
	stp	x29, x30, [sp, -48]!
	.cfi_def_cfa_offset 48
	.cfi_offset 29, -48
	.cfi_offset 30, -40
	mov	x29, sp
	str	x0, [sp, 40]
	str	x1, [sp, 32]
	str	x2, [sp, 24]
	ldr	x2, [sp, 24]
	ldr	x1, [sp, 32]
	ldr	x0, [sp, 40]
	bl	_ZNSt11__copy_moveILb0ELb1ESt26random_access_iterator_tagE8__copy_mIiEEPT_PKS3_S6_S4_
	ldp	x29, x30, [sp], 48
	.cfi_restore 30
	.cfi_restore 29
	.cfi_def_cfa_offset 0
	ret
	.cfi_endproc
.LFE11690:
	.size	_ZSt14__copy_move_a2ILb0EPiS0_ET1_T0_S2_S1_, .-_ZSt14__copy_move_a2ILb0EPiS0_ET1_T0_S2_S1_
	.section	.text._ZSt13__copy_move_aILb0EN9__gnu_cxx17__normal_iteratorIPKiSt6vectorIiSaIiEEEEPiET1_T0_SA_S9_,"axG",@progbits,_ZSt13__copy_move_aILb0EN9__gnu_cxx17__normal_iteratorIPKiSt6vectorIiSaIiEEEEPiET1_T0_SA_S9_,comdat
	.align	2
	.weak	_ZSt13__copy_move_aILb0EN9__gnu_cxx17__normal_iteratorIPKiSt6vectorIiSaIiEEEEPiET1_T0_SA_S9_
	.type	_ZSt13__copy_move_aILb0EN9__gnu_cxx17__normal_iteratorIPKiSt6vectorIiSaIiEEEEPiET1_T0_SA_S9_, %function
_ZSt13__copy_move_aILb0EN9__gnu_cxx17__normal_iteratorIPKiSt6vectorIiSaIiEEEEPiET1_T0_SA_S9_:
.LFB11692:
	.cfi_startproc
	stp	x29, x30, [sp, -64]!
	.cfi_def_cfa_offset 64
	.cfi_offset 29, -64
	.cfi_offset 30, -56
	mov	x29, sp
	stp	x19, x20, [sp, 16]
	.cfi_offset 19, -48
	.cfi_offset 20, -40
	str	x0, [sp, 56]
	str	x1, [sp, 48]
	str	x2, [sp, 40]
	ldr	x0, [sp, 56]
	bl	_ZSt12__niter_baseIPKiSt6vectorIiSaIiEEET_N9__gnu_cxx17__normal_iteratorIS5_T0_EE
	mov	x19, x0
	ldr	x0, [sp, 48]
	bl	_ZSt12__niter_baseIPKiSt6vectorIiSaIiEEET_N9__gnu_cxx17__normal_iteratorIS5_T0_EE
	mov	x20, x0
	ldr	x0, [sp, 40]
	bl	_ZSt12__niter_baseIPiET_S1_
	mov	x2, x0
	mov	x1, x20
	mov	x0, x19
	bl	_ZSt14__copy_move_a1ILb0EPKiPiET1_T0_S4_S3_
	mov	x1, x0
	add	x0, sp, 40
	bl	_ZSt12__niter_wrapIPiET_RKS1_S1_
	ldp	x19, x20, [sp, 16]
	ldp	x29, x30, [sp], 64
	.cfi_restore 30
	.cfi_restore 29
	.cfi_restore 19
	.cfi_restore 20
	.cfi_def_cfa_offset 0
	ret
	.cfi_endproc
.LFE11692:
	.size	_ZSt13__copy_move_aILb0EN9__gnu_cxx17__normal_iteratorIPKiSt6vectorIiSaIiEEEEPiET1_T0_SA_S9_, .-_ZSt13__copy_move_aILb0EN9__gnu_cxx17__normal_iteratorIPKiSt6vectorIiSaIiEEEEPiET1_T0_SA_S9_
	.section	.text._ZNSt12_Vector_baseIiSaIiEEC2ERKS0_,"axG",@progbits,_ZNSt12_Vector_baseIiSaIiEEC5ERKS0_,comdat
	.align	2
	.weak	_ZNSt12_Vector_baseIiSaIiEEC2ERKS0_
	.type	_ZNSt12_Vector_baseIiSaIiEEC2ERKS0_, %function
_ZNSt12_Vector_baseIiSaIiEEC2ERKS0_:
.LFB11694:
	.cfi_startproc
	stp	x29, x30, [sp, -32]!
	.cfi_def_cfa_offset 32
	.cfi_offset 29, -32
	.cfi_offset 30, -24
	mov	x29, sp
	str	x0, [sp, 24]
	str	x1, [sp, 16]
	ldr	x0, [sp, 24]
	ldr	x1, [sp, 16]
	bl	_ZNSt12_Vector_baseIiSaIiEE12_Vector_implC1ERKS0_
	nop
	ldp	x29, x30, [sp], 32
	.cfi_restore 30
	.cfi_restore 29
	.cfi_def_cfa_offset 0
	ret
	.cfi_endproc
.LFE11694:
	.size	_ZNSt12_Vector_baseIiSaIiEEC2ERKS0_, .-_ZNSt12_Vector_baseIiSaIiEEC2ERKS0_
	.weak	_ZNSt12_Vector_baseIiSaIiEEC1ERKS0_
	.set	_ZNSt12_Vector_baseIiSaIiEEC1ERKS0_,_ZNSt12_Vector_baseIiSaIiEEC2ERKS0_
	.section	.text._ZNSt12_Vector_baseIiSaIiEE17_Vector_impl_data12_M_copy_dataERKS2_,"axG",@progbits,_ZNSt12_Vector_baseIiSaIiEE17_Vector_impl_data12_M_copy_dataERKS2_,comdat
	.align	2
	.weak	_ZNSt12_Vector_baseIiSaIiEE17_Vector_impl_data12_M_copy_dataERKS2_
	.type	_ZNSt12_Vector_baseIiSaIiEE17_Vector_impl_data12_M_copy_dataERKS2_, %function
_ZNSt12_Vector_baseIiSaIiEE17_Vector_impl_data12_M_copy_dataERKS2_:
.LFB11696:
	.cfi_startproc
	sub	sp, sp, #16
	.cfi_def_cfa_offset 16
	str	x0, [sp, 8]
	str	x1, [sp]
	ldr	x0, [sp]
	ldr	x1, [x0]
	ldr	x0, [sp, 8]
	str	x1, [x0]
	ldr	x0, [sp]
	ldr	x1, [x0, 8]
	ldr	x0, [sp, 8]
	str	x1, [x0, 8]
	ldr	x0, [sp]
	ldr	x1, [x0, 16]
	ldr	x0, [sp, 8]
	str	x1, [x0, 16]
	nop
	add	sp, sp, 16
	.cfi_def_cfa_offset 0
	ret
	.cfi_endproc
.LFE11696:
	.size	_ZNSt12_Vector_baseIiSaIiEE17_Vector_impl_data12_M_copy_dataERKS2_, .-_ZNSt12_Vector_baseIiSaIiEE17_Vector_impl_data12_M_copy_dataERKS2_
	.section	.text._ZSt4moveIRSaIiEEONSt16remove_referenceIT_E4typeEOS3_,"axG",@progbits,_ZSt4moveIRSaIiEEONSt16remove_referenceIT_E4typeEOS3_,comdat
	.align	2
	.weak	_ZSt4moveIRSaIiEEONSt16remove_referenceIT_E4typeEOS3_
	.type	_ZSt4moveIRSaIiEEONSt16remove_referenceIT_E4typeEOS3_, %function
_ZSt4moveIRSaIiEEONSt16remove_referenceIT_E4typeEOS3_:
.LFB11697:
	.cfi_startproc
	sub	sp, sp, #16
	.cfi_def_cfa_offset 16
	str	x0, [sp, 8]
	ldr	x0, [sp, 8]
	add	sp, sp, 16
	.cfi_def_cfa_offset 0
	ret
	.cfi_endproc
.LFE11697:
	.size	_ZSt4moveIRSaIiEEONSt16remove_referenceIT_E4typeEOS3_, .-_ZSt4moveIRSaIiEEONSt16remove_referenceIT_E4typeEOS3_
	.section	.text._ZNSt11__copy_moveILb0ELb1ESt26random_access_iterator_tagE8__copy_mIiEEPT_PKS3_S6_S4_,"axG",@progbits,_ZNSt11__copy_moveILb0ELb1ESt26random_access_iterator_tagE8__copy_mIiEEPT_PKS3_S6_S4_,comdat
	.align	2
	.weak	_ZNSt11__copy_moveILb0ELb1ESt26random_access_iterator_tagE8__copy_mIiEEPT_PKS3_S6_S4_
	.type	_ZNSt11__copy_moveILb0ELb1ESt26random_access_iterator_tagE8__copy_mIiEEPT_PKS3_S6_S4_, %function
_ZNSt11__copy_moveILb0ELb1ESt26random_access_iterator_tagE8__copy_mIiEEPT_PKS3_S6_S4_:
.LFB11698:
	.cfi_startproc
	stp	x29, x30, [sp, -64]!
	.cfi_def_cfa_offset 64
	.cfi_offset 29, -64
	.cfi_offset 30, -56
	mov	x29, sp
	str	x0, [sp, 40]
	str	x1, [sp, 32]
	str	x2, [sp, 24]
	ldr	x1, [sp, 32]
	ldr	x0, [sp, 40]
	sub	x0, x1, x0
	asr	x0, x0, 2
	str	x0, [sp, 56]
	ldr	x0, [sp, 56]
	cmp	x0, 0
	beq	.L464
	ldr	x0, [sp, 56]
	lsl	x0, x0, 2
	mov	x2, x0
	ldr	x1, [sp, 40]
	ldr	x0, [sp, 24]
	bl	memmove
.L464:
	ldr	x0, [sp, 56]
	lsl	x0, x0, 2
	ldr	x1, [sp, 24]
	add	x0, x1, x0
	ldp	x29, x30, [sp], 64
	.cfi_restore 30
	.cfi_restore 29
	.cfi_def_cfa_offset 0
	ret
	.cfi_endproc
.LFE11698:
	.size	_ZNSt11__copy_moveILb0ELb1ESt26random_access_iterator_tagE8__copy_mIiEEPT_PKS3_S6_S4_, .-_ZNSt11__copy_moveILb0ELb1ESt26random_access_iterator_tagE8__copy_mIiEEPT_PKS3_S6_S4_
	.text
	.align	2
	.type	_Z41__static_initialization_and_destruction_0ii, %function
_Z41__static_initialization_and_destruction_0ii:
.LFB11736:
	.cfi_startproc
	stp	x29, x30, [sp, -32]!
	.cfi_def_cfa_offset 32
	.cfi_offset 29, -32
	.cfi_offset 30, -24
	mov	x29, sp
	str	w0, [sp, 28]
	str	w1, [sp, 24]
	ldr	w0, [sp, 28]
	cmp	w0, 1
	bne	.L468
	ldr	w1, [sp, 24]
	mov	w0, 65535
	cmp	w1, w0
	bne	.L468
	adrp	x0, _ZStL8__ioinit
	add	x0, x0, :lo12:_ZStL8__ioinit
	bl	_ZNSt8ios_base4InitC1Ev
	adrp	x0, __dso_handle
	add	x2, x0, :lo12:__dso_handle
	adrp	x0, _ZStL8__ioinit
	add	x1, x0, :lo12:_ZStL8__ioinit
	adrp	x0, :got:_ZNSt8ios_base4InitD1Ev
	ldr	x0, [x0, #:got_lo12:_ZNSt8ios_base4InitD1Ev]
	bl	__cxa_atexit
	adrp	x0, arr
	add	x0, x0, :lo12:arr
	bl	_ZNSt6vectorIiSaIiEEC1Ev
	adrp	x0, __dso_handle
	add	x2, x0, :lo12:__dso_handle
	adrp	x0, arr
	add	x1, x0, :lo12:arr
	adrp	x0, _ZNSt6vectorIiSaIiEED1Ev
	add	x0, x0, :lo12:_ZNSt6vectorIiSaIiEED1Ev
	bl	__cxa_atexit
	adrp	x0, price
	add	x0, x0, :lo12:price
	bl	_ZNSt6vectorIS_IiSaIiEESaIS1_EEC1Ev
	adrp	x0, __dso_handle
	add	x2, x0, :lo12:__dso_handle
	adrp	x0, price
	add	x1, x0, :lo12:price
	adrp	x0, _ZNSt6vectorIS_IiSaIiEESaIS1_EED1Ev
	add	x0, x0, :lo12:_ZNSt6vectorIS_IiSaIiEESaIS1_EED1Ev
	bl	__cxa_atexit
.L468:
	nop
	ldp	x29, x30, [sp], 32
	.cfi_restore 30
	.cfi_restore 29
	.cfi_def_cfa_offset 0
	ret
	.cfi_endproc
.LFE11736:
	.size	_Z41__static_initialization_and_destruction_0ii, .-_Z41__static_initialization_and_destruction_0ii
	.section	.text._ZNSt6vectorIS_IiSaIiEESaIS1_EED2Ev,"axG",@progbits,_ZNSt6vectorIS_IiSaIiEESaIS1_EED5Ev,comdat
	.align	2
	.weak	_ZNSt6vectorIS_IiSaIiEESaIS1_EED2Ev
	.type	_ZNSt6vectorIS_IiSaIiEESaIS1_EED2Ev, %function
_ZNSt6vectorIS_IiSaIiEESaIS1_EED2Ev:
.LFB11752:
	.cfi_startproc
	.cfi_personality 0x9b,DW.ref.__gxx_personality_v0
	.cfi_lsda 0x1b,.LLSDA11752
	stp	x29, x30, [sp, -48]!
	.cfi_def_cfa_offset 48
	.cfi_offset 29, -48
	.cfi_offset 30, -40
	mov	x29, sp
	stp	x19, x20, [sp, 16]
	.cfi_offset 19, -32
	.cfi_offset 20, -24
	str	x0, [sp, 40]
	ldr	x0, [sp, 40]
	ldr	x19, [x0]
	ldr	x0, [sp, 40]
	ldr	x20, [x0, 8]
	ldr	x0, [sp, 40]
	bl	_ZNSt12_Vector_baseISt6vectorIiSaIiEESaIS2_EE19_M_get_Tp_allocatorEv
	mov	x2, x0
	mov	x1, x20
	mov	x0, x19
	bl	_ZSt8_DestroyIPSt6vectorIiSaIiEES2_EvT_S4_RSaIT0_E
	ldr	x0, [sp, 40]
	bl	_ZNSt12_Vector_baseISt6vectorIiSaIiEESaIS2_EED2Ev
	nop
	ldp	x19, x20, [sp, 16]
	ldp	x29, x30, [sp], 48
	.cfi_restore 30
	.cfi_restore 29
	.cfi_restore 19
	.cfi_restore 20
	.cfi_def_cfa_offset 0
	ret
	.cfi_endproc
.LFE11752:
	.section	.gcc_except_table
.LLSDA11752:
	.byte	0xff
	.byte	0xff
	.byte	0x1
	.uleb128 .LLSDACSE11752-.LLSDACSB11752
.LLSDACSB11752:
.LLSDACSE11752:
	.section	.text._ZNSt6vectorIS_IiSaIiEESaIS1_EED2Ev,"axG",@progbits,_ZNSt6vectorIS_IiSaIiEESaIS1_EED5Ev,comdat
	.size	_ZNSt6vectorIS_IiSaIiEESaIS1_EED2Ev, .-_ZNSt6vectorIS_IiSaIiEESaIS1_EED2Ev
	.weak	_ZNSt6vectorIS_IiSaIiEESaIS1_EED1Ev
	.set	_ZNSt6vectorIS_IiSaIiEESaIS1_EED1Ev,_ZNSt6vectorIS_IiSaIiEESaIS1_EED2Ev
	.text
	.align	2
	.type	_GLOBAL__sub_I__Z5setupv, %function
_GLOBAL__sub_I__Z5setupv:
.LFB11762:
	.cfi_startproc
	stp	x29, x30, [sp, -16]!
	.cfi_def_cfa_offset 16
	.cfi_offset 29, -16
	.cfi_offset 30, -8
	mov	x29, sp
	mov	w1, 65535
	mov	w0, 1
	bl	_Z41__static_initialization_and_destruction_0ii
	ldp	x29, x30, [sp], 16
	.cfi_restore 30
	.cfi_restore 29
	.cfi_def_cfa_offset 0
	ret
	.cfi_endproc
.LFE11762:
	.size	_GLOBAL__sub_I__Z5setupv, .-_GLOBAL__sub_I__Z5setupv
	.section	.init_array,"aw",%init_array
	.align	3
	.xword	_GLOBAL__sub_I__Z5setupv
	.section	.rodata
	.align	3
.LC4:
	.word	1733216256
	.word	1135329645
	.hidden	DW.ref.__gxx_personality_v0
	.weak	DW.ref.__gxx_personality_v0
	.section	.data.rel.local.DW.ref.__gxx_personality_v0,"awG",@progbits,DW.ref.__gxx_personality_v0,comdat
	.align	3
	.type	DW.ref.__gxx_personality_v0, %object
	.size	DW.ref.__gxx_personality_v0, 8
DW.ref.__gxx_personality_v0:
	.xword	__gxx_personality_v0
	.hidden	__dso_handle
	.ident	"GCC: (Ubuntu 11.4.0-1ubuntu1~22.04) 11.4.0"
	.section	.note.GNU-stack,"",@progbits
