	.arch armv8-a
	.file	"President's Office.cpp"
	.text
	.section	.text._ZnwmPv,"axG",@progbits,_ZnwmPv,comdat
	.align	2
	.weak	_ZnwmPv
	.type	_ZnwmPv, %function
_ZnwmPv:
.LFB38:
	.cfi_startproc
	sub	sp, sp, #16
	.cfi_def_cfa_offset 16
	str	x0, [sp, 8]
	str	x1, [sp]
	ldr	x0, [sp]
	add	sp, sp, 16
	.cfi_def_cfa_offset 0
	ret
	.cfi_endproc
.LFE38:
	.size	_ZnwmPv, .-_ZnwmPv
	.section	.text._ZdlPvS_,"axG",@progbits,_ZdlPvS_,comdat
	.align	2
	.weak	_ZdlPvS_
	.type	_ZdlPvS_, %function
_ZdlPvS_:
.LFB40:
	.cfi_startproc
	sub	sp, sp, #16
	.cfi_def_cfa_offset 16
	str	x0, [sp, 8]
	str	x1, [sp]
	nop
	add	sp, sp, 16
	.cfi_def_cfa_offset 0
	ret
	.cfi_endproc
.LFE40:
	.size	_ZdlPvS_, .-_ZdlPvS_
	.section	.text._ZSt17__size_to_integerm,"axG",@progbits,_ZSt17__size_to_integerm,comdat
	.align	2
	.weak	_ZSt17__size_to_integerm
	.type	_ZSt17__size_to_integerm, %function
_ZSt17__size_to_integerm:
.LFB371:
	.cfi_startproc
	sub	sp, sp, #16
	.cfi_def_cfa_offset 16
	str	x0, [sp, 8]
	ldr	x0, [sp, 8]
	add	sp, sp, 16
	.cfi_def_cfa_offset 0
	ret
	.cfi_endproc
.LFE371:
	.size	_ZSt17__size_to_integerm, .-_ZSt17__size_to_integerm
	.local	_ZStL8__ioinit
	.comm	_ZStL8__ioinit,1,8
	.section	.text._ZSt3minImERKT_S2_S2_,"axG",@progbits,_ZSt3minImERKT_S2_S2_,comdat
	.align	2
	.weak	_ZSt3minImERKT_S2_S2_
	.type	_ZSt3minImERKT_S2_S2_, %function
_ZSt3minImERKT_S2_S2_:
.LFB3247:
	.cfi_startproc
	sub	sp, sp, #16
	.cfi_def_cfa_offset 16
	str	x0, [sp, 8]
	str	x1, [sp]
	ldr	x0, [sp]
	ldr	x1, [x0]
	ldr	x0, [sp, 8]
	ldr	x0, [x0]
	cmp	x1, x0
	bcs	.L7
	ldr	x0, [sp]
	b	.L8
.L7:
	ldr	x0, [sp, 8]
.L8:
	add	sp, sp, 16
	.cfi_def_cfa_offset 0
	ret
	.cfi_endproc
.LFE3247:
	.size	_ZSt3minImERKT_S2_S2_, .-_ZSt3minImERKT_S2_S2_
	.section	.rodata
	.align	3
	.type	_ZN6__pstl9execution2v1L3seqE, %object
	.size	_ZN6__pstl9execution2v1L3seqE, 1
_ZN6__pstl9execution2v1L3seqE:
	.zero	1
	.align	3
	.type	_ZN6__pstl9execution2v1L3parE, %object
	.size	_ZN6__pstl9execution2v1L3parE, 1
_ZN6__pstl9execution2v1L3parE:
	.zero	1
	.align	3
	.type	_ZN6__pstl9execution2v1L9par_unseqE, %object
	.size	_ZN6__pstl9execution2v1L9par_unseqE, 1
_ZN6__pstl9execution2v1L9par_unseqE:
	.zero	1
	.align	3
	.type	_ZN6__pstl9execution2v1L5unseqE, %object
	.size	_ZN6__pstl9execution2v1L5unseqE, 1
_ZN6__pstl9execution2v1L5unseqE:
	.zero	1
	.section	.text._ZNSt15_Rb_tree_headerC2Ev,"axG",@progbits,_ZNSt15_Rb_tree_headerC5Ev,comdat
	.align	2
	.weak	_ZNSt15_Rb_tree_headerC2Ev
	.type	_ZNSt15_Rb_tree_headerC2Ev, %function
_ZNSt15_Rb_tree_headerC2Ev:
.LFB5001:
	.cfi_startproc
	stp	x29, x30, [sp, -32]!
	.cfi_def_cfa_offset 32
	.cfi_offset 29, -32
	.cfi_offset 30, -24
	mov	x29, sp
	str	x0, [sp, 24]
	ldr	x0, [sp, 24]
	str	wzr, [x0]
	ldr	x0, [sp, 24]
	bl	_ZNSt15_Rb_tree_header8_M_resetEv
	nop
	ldp	x29, x30, [sp], 32
	.cfi_restore 30
	.cfi_restore 29
	.cfi_def_cfa_offset 0
	ret
	.cfi_endproc
.LFE5001:
	.size	_ZNSt15_Rb_tree_headerC2Ev, .-_ZNSt15_Rb_tree_headerC2Ev
	.weak	_ZNSt15_Rb_tree_headerC1Ev
	.set	_ZNSt15_Rb_tree_headerC1Ev,_ZNSt15_Rb_tree_headerC2Ev
	.section	.text._ZNSt15_Rb_tree_header8_M_resetEv,"axG",@progbits,_ZNSt15_Rb_tree_header8_M_resetEv,comdat
	.align	2
	.weak	_ZNSt15_Rb_tree_header8_M_resetEv
	.type	_ZNSt15_Rb_tree_header8_M_resetEv, %function
_ZNSt15_Rb_tree_header8_M_resetEv:
.LFB5007:
	.cfi_startproc
	sub	sp, sp, #16
	.cfi_def_cfa_offset 16
	str	x0, [sp, 8]
	ldr	x0, [sp, 8]
	str	xzr, [x0, 8]
	ldr	x1, [sp, 8]
	ldr	x0, [sp, 8]
	str	x1, [x0, 16]
	ldr	x1, [sp, 8]
	ldr	x0, [sp, 8]
	str	x1, [x0, 24]
	ldr	x0, [sp, 8]
	str	xzr, [x0, 32]
	nop
	add	sp, sp, 16
	.cfi_def_cfa_offset 0
	ret
	.cfi_endproc
.LFE5007:
	.size	_ZNSt15_Rb_tree_header8_M_resetEv, .-_ZNSt15_Rb_tree_header8_M_resetEv
	.section	.rodata
	.align	2
	.type	_ZN9__gnu_cxxL21__default_lock_policyE, %object
	.size	_ZN9__gnu_cxxL21__default_lock_policyE, 4
_ZN9__gnu_cxxL21__default_lock_policyE:
	.word	2
	.align	2
	.type	_ZNSt15regex_constantsL13error_collateE, %object
	.size	_ZNSt15regex_constantsL13error_collateE, 4
_ZNSt15regex_constantsL13error_collateE:
	.zero	4
	.align	2
	.type	_ZNSt15regex_constantsL11error_ctypeE, %object
	.size	_ZNSt15regex_constantsL11error_ctypeE, 4
_ZNSt15regex_constantsL11error_ctypeE:
	.word	1
	.align	2
	.type	_ZNSt15regex_constantsL12error_escapeE, %object
	.size	_ZNSt15regex_constantsL12error_escapeE, 4
_ZNSt15regex_constantsL12error_escapeE:
	.word	2
	.align	2
	.type	_ZNSt15regex_constantsL13error_backrefE, %object
	.size	_ZNSt15regex_constantsL13error_backrefE, 4
_ZNSt15regex_constantsL13error_backrefE:
	.word	3
	.align	2
	.type	_ZNSt15regex_constantsL11error_brackE, %object
	.size	_ZNSt15regex_constantsL11error_brackE, 4
_ZNSt15regex_constantsL11error_brackE:
	.word	4
	.align	2
	.type	_ZNSt15regex_constantsL11error_parenE, %object
	.size	_ZNSt15regex_constantsL11error_parenE, 4
_ZNSt15regex_constantsL11error_parenE:
	.word	5
	.align	2
	.type	_ZNSt15regex_constantsL11error_braceE, %object
	.size	_ZNSt15regex_constantsL11error_braceE, 4
_ZNSt15regex_constantsL11error_braceE:
	.word	6
	.align	2
	.type	_ZNSt15regex_constantsL14error_badbraceE, %object
	.size	_ZNSt15regex_constantsL14error_badbraceE, 4
_ZNSt15regex_constantsL14error_badbraceE:
	.word	7
	.align	2
	.type	_ZNSt15regex_constantsL11error_rangeE, %object
	.size	_ZNSt15regex_constantsL11error_rangeE, 4
_ZNSt15regex_constantsL11error_rangeE:
	.word	8
	.align	2
	.type	_ZNSt15regex_constantsL11error_spaceE, %object
	.size	_ZNSt15regex_constantsL11error_spaceE, 4
_ZNSt15regex_constantsL11error_spaceE:
	.word	9
	.align	2
	.type	_ZNSt15regex_constantsL15error_badrepeatE, %object
	.size	_ZNSt15regex_constantsL15error_badrepeatE, 4
_ZNSt15regex_constantsL15error_badrepeatE:
	.word	10
	.align	2
	.type	_ZNSt15regex_constantsL16error_complexityE, %object
	.size	_ZNSt15regex_constantsL16error_complexityE, 4
_ZNSt15regex_constantsL16error_complexityE:
	.word	11
	.align	2
	.type	_ZNSt15regex_constantsL11error_stackE, %object
	.size	_ZNSt15regex_constantsL11error_stackE, 4
_ZNSt15regex_constantsL11error_stackE:
	.word	12
	.align	3
	.type	_ZNSt8__detailL19_S_invalid_state_idE, %object
	.size	_ZNSt8__detailL19_S_invalid_state_idE, 8
_ZNSt8__detailL19_S_invalid_state_idE:
	.xword	-1
	.section	.text._ZNSt8_Rb_treeIccSt9_IdentityIcESt4lessIcESaIcEE13_Rb_tree_implIS3_Lb1EED2Ev,"axG",@progbits,_ZNSt8_Rb_treeIccSt9_IdentityIcESt4lessIcESaIcEE13_Rb_tree_implIS3_Lb1EED5Ev,comdat
	.align	2
	.weak	_ZNSt8_Rb_treeIccSt9_IdentityIcESt4lessIcESaIcEE13_Rb_tree_implIS3_Lb1EED2Ev
	.type	_ZNSt8_Rb_treeIccSt9_IdentityIcESt4lessIcESaIcEE13_Rb_tree_implIS3_Lb1EED2Ev, %function
_ZNSt8_Rb_treeIccSt9_IdentityIcESt4lessIcESaIcEE13_Rb_tree_implIS3_Lb1EED2Ev:
.LFB9703:
	.cfi_startproc
	stp	x29, x30, [sp, -32]!
	.cfi_def_cfa_offset 32
	.cfi_offset 29, -32
	.cfi_offset 30, -24
	mov	x29, sp
	str	x0, [sp, 24]
	ldr	x0, [sp, 24]
	bl	_ZNSaISt13_Rb_tree_nodeIcEED2Ev
	nop
	ldp	x29, x30, [sp], 32
	.cfi_restore 30
	.cfi_restore 29
	.cfi_def_cfa_offset 0
	ret
	.cfi_endproc
.LFE9703:
	.size	_ZNSt8_Rb_treeIccSt9_IdentityIcESt4lessIcESaIcEE13_Rb_tree_implIS3_Lb1EED2Ev, .-_ZNSt8_Rb_treeIccSt9_IdentityIcESt4lessIcESaIcEE13_Rb_tree_implIS3_Lb1EED2Ev
	.weak	_ZNSt8_Rb_treeIccSt9_IdentityIcESt4lessIcESaIcEE13_Rb_tree_implIS3_Lb1EED1Ev
	.set	_ZNSt8_Rb_treeIccSt9_IdentityIcESt4lessIcESaIcEE13_Rb_tree_implIS3_Lb1EED1Ev,_ZNSt8_Rb_treeIccSt9_IdentityIcESt4lessIcESaIcEE13_Rb_tree_implIS3_Lb1EED2Ev
	.section	.text._ZNSt8_Rb_treeIccSt9_IdentityIcESt4lessIcESaIcEEC2Ev,"axG",@progbits,_ZNSt8_Rb_treeIccSt9_IdentityIcESt4lessIcESaIcEEC5Ev,comdat
	.align	2
	.weak	_ZNSt8_Rb_treeIccSt9_IdentityIcESt4lessIcESaIcEEC2Ev
	.type	_ZNSt8_Rb_treeIccSt9_IdentityIcESt4lessIcESaIcEEC2Ev, %function
_ZNSt8_Rb_treeIccSt9_IdentityIcESt4lessIcESaIcEEC2Ev:
.LFB9705:
	.cfi_startproc
	stp	x29, x30, [sp, -32]!
	.cfi_def_cfa_offset 32
	.cfi_offset 29, -32
	.cfi_offset 30, -24
	mov	x29, sp
	str	x0, [sp, 24]
	ldr	x0, [sp, 24]
	bl	_ZNSt8_Rb_treeIccSt9_IdentityIcESt4lessIcESaIcEE13_Rb_tree_implIS3_Lb1EEC1Ev
	nop
	ldp	x29, x30, [sp], 32
	.cfi_restore 30
	.cfi_restore 29
	.cfi_def_cfa_offset 0
	ret
	.cfi_endproc
.LFE9705:
	.size	_ZNSt8_Rb_treeIccSt9_IdentityIcESt4lessIcESaIcEEC2Ev, .-_ZNSt8_Rb_treeIccSt9_IdentityIcESt4lessIcESaIcEEC2Ev
	.weak	_ZNSt8_Rb_treeIccSt9_IdentityIcESt4lessIcESaIcEEC1Ev
	.set	_ZNSt8_Rb_treeIccSt9_IdentityIcESt4lessIcESaIcEEC1Ev,_ZNSt8_Rb_treeIccSt9_IdentityIcESt4lessIcESaIcEEC2Ev
	.section	.text._ZNSt3setIcSt4lessIcESaIcEEC2Ev,"axG",@progbits,_ZNSt3setIcSt4lessIcESaIcEEC5Ev,comdat
	.align	2
	.weak	_ZNSt3setIcSt4lessIcESaIcEEC2Ev
	.type	_ZNSt3setIcSt4lessIcESaIcEEC2Ev, %function
_ZNSt3setIcSt4lessIcESaIcEEC2Ev:
.LFB9707:
	.cfi_startproc
	stp	x29, x30, [sp, -32]!
	.cfi_def_cfa_offset 32
	.cfi_offset 29, -32
	.cfi_offset 30, -24
	mov	x29, sp
	str	x0, [sp, 24]
	ldr	x0, [sp, 24]
	bl	_ZNSt8_Rb_treeIccSt9_IdentityIcESt4lessIcESaIcEEC1Ev
	nop
	ldp	x29, x30, [sp], 32
	.cfi_restore 30
	.cfi_restore 29
	.cfi_def_cfa_offset 0
	ret
	.cfi_endproc
.LFE9707:
	.size	_ZNSt3setIcSt4lessIcESaIcEEC2Ev, .-_ZNSt3setIcSt4lessIcESaIcEEC2Ev
	.weak	_ZNSt3setIcSt4lessIcESaIcEEC1Ev
	.set	_ZNSt3setIcSt4lessIcESaIcEEC1Ev,_ZNSt3setIcSt4lessIcESaIcEEC2Ev
	.section	.text._ZNSt3setIcSt4lessIcESaIcEED2Ev,"axG",@progbits,_ZNSt3setIcSt4lessIcESaIcEED5Ev,comdat
	.align	2
	.weak	_ZNSt3setIcSt4lessIcESaIcEED2Ev
	.type	_ZNSt3setIcSt4lessIcESaIcEED2Ev, %function
_ZNSt3setIcSt4lessIcESaIcEED2Ev:
.LFB9710:
	.cfi_startproc
	stp	x29, x30, [sp, -32]!
	.cfi_def_cfa_offset 32
	.cfi_offset 29, -32
	.cfi_offset 30, -24
	mov	x29, sp
	str	x0, [sp, 24]
	ldr	x0, [sp, 24]
	bl	_ZNSt8_Rb_treeIccSt9_IdentityIcESt4lessIcESaIcEED1Ev
	nop
	ldp	x29, x30, [sp], 32
	.cfi_restore 30
	.cfi_restore 29
	.cfi_def_cfa_offset 0
	ret
	.cfi_endproc
.LFE9710:
	.size	_ZNSt3setIcSt4lessIcESaIcEED2Ev, .-_ZNSt3setIcSt4lessIcESaIcEED2Ev
	.weak	_ZNSt3setIcSt4lessIcESaIcEED1Ev
	.set	_ZNSt3setIcSt4lessIcESaIcEED1Ev,_ZNSt3setIcSt4lessIcESaIcEED2Ev
	.text
	.align	2
	.global	main
	.type	main, %function
main:
.LFB9696:
	.cfi_startproc
	.cfi_personality 0x9b,DW.ref.__gxx_personality_v0
	.cfi_lsda 0x1b,.LLSDA9696
	stp	x29, x30, [sp, -384]!
	.cfi_def_cfa_offset 384
	.cfi_offset 29, -384
	.cfi_offset 30, -376
	mov	x29, sp
	stp	x19, x20, [sp, 16]
	stp	x21, x22, [sp, 32]
	stp	x23, x24, [sp, 48]
	.cfi_offset 19, -368
	.cfi_offset 20, -360
	.cfi_offset 21, -352
	.cfi_offset 22, -344
	.cfi_offset 23, -336
	.cfi_offset 24, -328
	mov	w0, 0
.LEHB0:
	bl	_ZNSt8ios_base15sync_with_stdioEb
	mov	x1, 0
	adrp	x0, :got:_ZSt3cin
	ldr	x0, [x0, #:got_lo12:_ZSt3cin]
	add	x0, x0, 16
	bl	_ZNSt9basic_iosIcSt11char_traitsIcEE3tieEPSo
	mov	x1, 0
	adrp	x0, :got:_ZSt4cout
	ldr	x0, [x0, #:got_lo12:_ZSt4cout]
	add	x0, x0, 8
	bl	_ZNSt9basic_iosIcSt11char_traitsIcEE3tieEPSo
	add	x0, sp, 228
	mov	x1, x0
	adrp	x0, :got:_ZSt3cin
	ldr	x0, [x0, #:got_lo12:_ZSt3cin]
	bl	_ZNSirsERi
	mov	x2, x0
	add	x0, sp, 224
	mov	x1, x0
	mov	x0, x2
	bl	_ZNSirsERi
	mov	x2, x0
	add	x0, sp, 223
	mov	x1, x0
	mov	x0, x2
	bl	_ZStrsIcSt11char_traitsIcEERSt13basic_istreamIT_T0_ES6_RS3_
.LEHE0:
	ldr	w0, [sp, 228]
	sxtw	x19, w0
	ldr	w0, [sp, 224]
	sxtw	x24, w0
	add	x0, sp, 256
	bl	_ZNSaIcEC1Ev
	add	x1, sp, 256
	add	x0, sp, 232
	mov	x2, x1
	mov	x1, x24
.LEHB1:
	bl	_ZNSt6vectorIcSaIcEEC1EmRKS0_
.LEHE1:
	add	x0, sp, 264
	bl	_ZNSaISt6vectorIcSaIcEEEC1Ev
	add	x2, sp, 264
	add	x1, sp, 232
	add	x0, sp, 192
	mov	x3, x2
	mov	x2, x1
	mov	x1, x19
.LEHB2:
	bl	_ZNSt6vectorIS_IcSaIcEESaIS1_EEC1EmRKS1_RKS2_
.LEHE2:
	add	x0, sp, 264
	bl	_ZNSaISt6vectorIcSaIcEEED1Ev
	add	x0, sp, 232
	bl	_ZNSt6vectorIcSaIcEED1Ev
	add	x0, sp, 256
	bl	_ZNSaIcED1Ev
	ldr	w0, [sp, 228]
	sxtw	x19, w0
	ldr	w0, [sp, 224]
	sxtw	x24, w0
	add	x0, sp, 296
	bl	_ZNSaIcEC1Ev
	add	x1, sp, 296
	add	x0, sp, 272
	mov	x2, x1
	mov	x1, x24
.LEHB3:
	bl	_ZNSt6vectorIcSaIcEEC1EmRKS0_
.LEHE3:
	add	x0, sp, 304
	bl	_ZNSaISt6vectorIcSaIcEEEC1Ev
	add	x2, sp, 304
	add	x1, sp, 272
	add	x0, sp, 168
	mov	x3, x2
	mov	x2, x1
	mov	x1, x19
.LEHB4:
	bl	_ZNSt6vectorIS_IcSaIcEESaIS1_EEC1EmRKS1_RKS2_
.LEHE4:
	add	x0, sp, 304
	bl	_ZNSaISt6vectorIcSaIcEEED1Ev
	add	x0, sp, 272
	bl	_ZNSt6vectorIcSaIcEED1Ev
	add	x0, sp, 296
	bl	_ZNSaIcED1Ev
	mov	w0, -1
	str	w0, [sp, 312]
	str	wzr, [sp, 316]
	mov	w0, 1
	str	w0, [sp, 320]
	str	wzr, [sp, 324]
	add	x0, sp, 312
	mov	x22, x0
	mov	x23, 4
	add	x0, sp, 328
	bl	_ZNSaIiEC1Ev
	add	x1, sp, 328
	add	x0, sp, 144
	mov	x3, x1
	mov	x1, x22
	mov	x2, x23
.LEHB5:
	bl	_ZNSt6vectorIiSaIiEEC1ESt16initializer_listIiERKS0_
.LEHE5:
	add	x0, sp, 328
	bl	_ZNSaIiED1Ev
	str	wzr, [sp, 336]
	mov	w0, 1
	str	w0, [sp, 340]
	str	wzr, [sp, 344]
	mov	w0, -1
	str	w0, [sp, 348]
	add	x0, sp, 336
	mov	x20, x0
	mov	x21, 4
	add	x0, sp, 352
	bl	_ZNSaIiEC1Ev
	add	x1, sp, 352
	add	x0, sp, 120
	mov	x3, x1
	mov	x1, x20
	mov	x2, x21
.LEHB6:
	bl	_ZNSt6vectorIiSaIiEEC1ESt16initializer_listIiERKS0_
.LEHE6:
	add	x0, sp, 352
	bl	_ZNSaIiED1Ev
	add	x0, sp, 72
	bl	_ZNSt3setIcSt4lessIcESaIcEEC1Ev
	str	wzr, [sp, 380]
	b	.L16
.L19:
	str	wzr, [sp, 376]
	b	.L17
.L18:
	ldrsw	x1, [sp, 380]
	add	x0, sp, 192
	bl	_ZNSt6vectorIS_IcSaIcEESaIS1_EEixEm
	mov	x2, x0
	ldrsw	x0, [sp, 376]
	mov	x1, x0
	mov	x0, x2
	bl	_ZNSt6vectorIcSaIcEEixEm
	mov	x1, x0
	adrp	x0, :got:_ZSt3cin
	ldr	x0, [x0, #:got_lo12:_ZSt3cin]
.LEHB7:
	bl	_ZStrsIcSt11char_traitsIcEERSt13basic_istreamIT_T0_ES6_RS3_
	ldr	w0, [sp, 376]
	add	w0, w0, 1
	str	w0, [sp, 376]
.L17:
	ldr	w0, [sp, 224]
	ldr	w1, [sp, 376]
	cmp	w1, w0
	blt	.L18
	ldr	w0, [sp, 380]
	add	w0, w0, 1
	str	w0, [sp, 380]
.L16:
	ldr	w0, [sp, 228]
	ldr	w1, [sp, 380]
	cmp	w1, w0
	blt	.L19
	str	wzr, [sp, 372]
	b	.L20
.L29:
	str	wzr, [sp, 368]
	b	.L21
.L28:
	ldrsw	x1, [sp, 372]
	add	x0, sp, 192
	bl	_ZNSt6vectorIS_IcSaIcEESaIS1_EEixEm
	mov	x2, x0
	ldrsw	x0, [sp, 368]
	mov	x1, x0
	mov	x0, x2
	bl	_ZNSt6vectorIcSaIcEEixEm
	ldrb	w1, [x0]
	ldrb	w0, [sp, 223]
	cmp	w1, w0
	cset	w0, eq
	and	w0, w0, 255
	cmp	w0, 0
	beq	.L22
	str	wzr, [sp, 364]
	b	.L23
.L27:
	ldrsw	x1, [sp, 364]
	add	x0, sp, 144
	bl	_ZNSt6vectorIiSaIiEEixEm
	ldr	w0, [x0]
	ldr	w1, [sp, 372]
	add	w0, w1, w0
	str	w0, [sp, 360]
	ldrsw	x1, [sp, 364]
	add	x0, sp, 120
	bl	_ZNSt6vectorIiSaIiEEixEm
	ldr	w0, [x0]
	ldr	w1, [sp, 368]
	add	w0, w1, w0
	str	w0, [sp, 356]
	ldr	w0, [sp, 360]
	cmp	w0, 0
	blt	.L24
	ldr	w0, [sp, 228]
	ldr	w1, [sp, 360]
	cmp	w1, w0
	bge	.L24
	ldr	w0, [sp, 356]
	cmp	w0, 0
	blt	.L24
	ldr	w0, [sp, 224]
	ldr	w1, [sp, 356]
	cmp	w1, w0
	bge	.L24
	ldrsw	x1, [sp, 360]
	add	x0, sp, 192
	bl	_ZNSt6vectorIS_IcSaIcEESaIS1_EEixEm
	mov	x2, x0
	ldrsw	x0, [sp, 356]
	mov	x1, x0
	mov	x0, x2
	bl	_ZNSt6vectorIcSaIcEEixEm
	ldrb	w1, [x0]
	ldrb	w0, [sp, 223]
	cmp	w1, w0
	beq	.L25
	ldrsw	x1, [sp, 360]
	add	x0, sp, 192
	bl	_ZNSt6vectorIS_IcSaIcEESaIS1_EEixEm
	mov	x2, x0
	ldrsw	x0, [sp, 356]
	mov	x1, x0
	mov	x0, x2
	bl	_ZNSt6vectorIcSaIcEEixEm
	ldrb	w0, [x0]
	cmp	w0, 46
	beq	.L25
	mov	w0, 1
	b	.L26
.L25:
	mov	w0, 0
.L26:
	cmp	w0, 0
	beq	.L24
	ldrsw	x1, [sp, 360]
	add	x0, sp, 192
	bl	_ZNSt6vectorIS_IcSaIcEESaIS1_EEixEm
	mov	x2, x0
	ldrsw	x0, [sp, 356]
	mov	x1, x0
	mov	x0, x2
	bl	_ZNSt6vectorIcSaIcEEixEm
	mov	x1, x0
	add	x0, sp, 72
	bl	_ZNSt3setIcSt4lessIcESaIcEE6insertERKc
.L24:
	ldr	w0, [sp, 364]
	add	w0, w0, 1
	str	w0, [sp, 364]
.L23:
	ldr	w0, [sp, 364]
	cmp	w0, 3
	ble	.L27
.L22:
	ldr	w0, [sp, 368]
	add	w0, w0, 1
	str	w0, [sp, 368]
.L21:
	ldr	w0, [sp, 224]
	ldr	w1, [sp, 368]
	cmp	w1, w0
	blt	.L28
	ldr	w0, [sp, 372]
	add	w0, w0, 1
	str	w0, [sp, 372]
.L20:
	ldr	w0, [sp, 228]
	ldr	w1, [sp, 372]
	cmp	w1, w0
	blt	.L29
	add	x0, sp, 72
	bl	_ZNKSt3setIcSt4lessIcESaIcEE4sizeEv
	mov	x1, x0
	adrp	x0, :got:_ZSt4cout
	ldr	x0, [x0, #:got_lo12:_ZSt4cout]
	bl	_ZNSolsEm
.LEHE7:
	add	x0, sp, 72
	bl	_ZNSt3setIcSt4lessIcESaIcEED1Ev
	add	x0, sp, 120
	bl	_ZNSt6vectorIiSaIiEED1Ev
	add	x0, sp, 144
	bl	_ZNSt6vectorIiSaIiEED1Ev
	add	x0, sp, 168
	bl	_ZNSt6vectorIS_IcSaIcEESaIS1_EED1Ev
	add	x0, sp, 192
	bl	_ZNSt6vectorIS_IcSaIcEESaIS1_EED1Ev
	mov	w0, 0
	b	.L48
.L42:
	mov	x19, x0
	add	x0, sp, 264
	bl	_ZNSaISt6vectorIcSaIcEEED1Ev
	add	x0, sp, 232
	bl	_ZNSt6vectorIcSaIcEED1Ev
	b	.L32
.L41:
	mov	x19, x0
.L32:
	add	x0, sp, 256
	bl	_ZNSaIcED1Ev
	mov	x0, x19
.LEHB8:
	bl	_Unwind_Resume
.L44:
	mov	x19, x0
	add	x0, sp, 304
	bl	_ZNSaISt6vectorIcSaIcEEED1Ev
	add	x0, sp, 272
	bl	_ZNSt6vectorIcSaIcEED1Ev
	b	.L34
.L43:
	mov	x19, x0
.L34:
	add	x0, sp, 296
	bl	_ZNSaIcED1Ev
	b	.L35
.L45:
	mov	x19, x0
	add	x0, sp, 328
	bl	_ZNSaIiED1Ev
	b	.L37
.L46:
	mov	x19, x0
	add	x0, sp, 352
	bl	_ZNSaIiED1Ev
	b	.L39
.L47:
	mov	x19, x0
	add	x0, sp, 72
	bl	_ZNSt3setIcSt4lessIcESaIcEED1Ev
	add	x0, sp, 120
	bl	_ZNSt6vectorIiSaIiEED1Ev
.L39:
	add	x0, sp, 144
	bl	_ZNSt6vectorIiSaIiEED1Ev
.L37:
	add	x0, sp, 168
	bl	_ZNSt6vectorIS_IcSaIcEESaIS1_EED1Ev
.L35:
	add	x0, sp, 192
	bl	_ZNSt6vectorIS_IcSaIcEESaIS1_EED1Ev
	mov	x0, x19
	bl	_Unwind_Resume
.LEHE8:
.L48:
	ldp	x19, x20, [sp, 16]
	ldp	x21, x22, [sp, 32]
	ldp	x23, x24, [sp, 48]
	ldp	x29, x30, [sp], 384
	.cfi_restore 30
	.cfi_restore 29
	.cfi_restore 23
	.cfi_restore 24
	.cfi_restore 21
	.cfi_restore 22
	.cfi_restore 19
	.cfi_restore 20
	.cfi_def_cfa_offset 0
	ret
	.cfi_endproc
.LFE9696:
	.global	__gxx_personality_v0
	.section	.gcc_except_table,"a",@progbits
.LLSDA9696:
	.byte	0xff
	.byte	0xff
	.byte	0x1
	.uleb128 .LLSDACSE9696-.LLSDACSB9696
.LLSDACSB9696:
	.uleb128 .LEHB0-.LFB9696
	.uleb128 .LEHE0-.LEHB0
	.uleb128 0
	.uleb128 0
	.uleb128 .LEHB1-.LFB9696
	.uleb128 .LEHE1-.LEHB1
	.uleb128 .L41-.LFB9696
	.uleb128 0
	.uleb128 .LEHB2-.LFB9696
	.uleb128 .LEHE2-.LEHB2
	.uleb128 .L42-.LFB9696
	.uleb128 0
	.uleb128 .LEHB3-.LFB9696
	.uleb128 .LEHE3-.LEHB3
	.uleb128 .L43-.LFB9696
	.uleb128 0
	.uleb128 .LEHB4-.LFB9696
	.uleb128 .LEHE4-.LEHB4
	.uleb128 .L44-.LFB9696
	.uleb128 0
	.uleb128 .LEHB5-.LFB9696
	.uleb128 .LEHE5-.LEHB5
	.uleb128 .L45-.LFB9696
	.uleb128 0
	.uleb128 .LEHB6-.LFB9696
	.uleb128 .LEHE6-.LEHB6
	.uleb128 .L46-.LFB9696
	.uleb128 0
	.uleb128 .LEHB7-.LFB9696
	.uleb128 .LEHE7-.LEHB7
	.uleb128 .L47-.LFB9696
	.uleb128 0
	.uleb128 .LEHB8-.LFB9696
	.uleb128 .LEHE8-.LEHB8
	.uleb128 0
	.uleb128 0
.LLSDACSE9696:
	.text
	.size	main, .-main
	.section	.text._ZNSt6vectorIcSaIcEEC2EmRKS0_,"axG",@progbits,_ZNSt6vectorIcSaIcEEC5EmRKS0_,comdat
	.align	2
	.weak	_ZNSt6vectorIcSaIcEEC2EmRKS0_
	.type	_ZNSt6vectorIcSaIcEEC2EmRKS0_, %function
_ZNSt6vectorIcSaIcEEC2EmRKS0_:
.LFB10402:
	.cfi_startproc
	.cfi_personality 0x9b,DW.ref.__gxx_personality_v0
	.cfi_lsda 0x1b,.LLSDA10402
	stp	x29, x30, [sp, -64]!
	.cfi_def_cfa_offset 64
	.cfi_offset 29, -64
	.cfi_offset 30, -56
	mov	x29, sp
	str	x19, [sp, 16]
	.cfi_offset 19, -48
	str	x0, [sp, 56]
	str	x1, [sp, 48]
	str	x2, [sp, 40]
	ldr	x19, [sp, 56]
	ldr	x1, [sp, 40]
	ldr	x0, [sp, 48]
.LEHB9:
	bl	_ZNSt6vectorIcSaIcEE17_S_check_init_lenEmRKS0_
	ldr	x2, [sp, 40]
	mov	x1, x0
	mov	x0, x19
	bl	_ZNSt12_Vector_baseIcSaIcEEC2EmRKS0_
.LEHE9:
	ldr	x1, [sp, 48]
	ldr	x0, [sp, 56]
.LEHB10:
	bl	_ZNSt6vectorIcSaIcEE21_M_default_initializeEm
.LEHE10:
	b	.L52
.L51:
	mov	x19, x0
	ldr	x0, [sp, 56]
	bl	_ZNSt12_Vector_baseIcSaIcEED2Ev
	mov	x0, x19
.LEHB11:
	bl	_Unwind_Resume
.LEHE11:
.L52:
	ldr	x19, [sp, 16]
	ldp	x29, x30, [sp], 64
	.cfi_restore 30
	.cfi_restore 29
	.cfi_restore 19
	.cfi_def_cfa_offset 0
	ret
	.cfi_endproc
.LFE10402:
	.section	.gcc_except_table
.LLSDA10402:
	.byte	0xff
	.byte	0xff
	.byte	0x1
	.uleb128 .LLSDACSE10402-.LLSDACSB10402
.LLSDACSB10402:
	.uleb128 .LEHB9-.LFB10402
	.uleb128 .LEHE9-.LEHB9
	.uleb128 0
	.uleb128 0
	.uleb128 .LEHB10-.LFB10402
	.uleb128 .LEHE10-.LEHB10
	.uleb128 .L51-.LFB10402
	.uleb128 0
	.uleb128 .LEHB11-.LFB10402
	.uleb128 .LEHE11-.LEHB11
	.uleb128 0
	.uleb128 0
.LLSDACSE10402:
	.section	.text._ZNSt6vectorIcSaIcEEC2EmRKS0_,"axG",@progbits,_ZNSt6vectorIcSaIcEEC5EmRKS0_,comdat
	.size	_ZNSt6vectorIcSaIcEEC2EmRKS0_, .-_ZNSt6vectorIcSaIcEEC2EmRKS0_
	.weak	_ZNSt6vectorIcSaIcEEC1EmRKS0_
	.set	_ZNSt6vectorIcSaIcEEC1EmRKS0_,_ZNSt6vectorIcSaIcEEC2EmRKS0_
	.section	.text._ZNSt6vectorIcSaIcEED2Ev,"axG",@progbits,_ZNSt6vectorIcSaIcEED5Ev,comdat
	.align	2
	.weak	_ZNSt6vectorIcSaIcEED2Ev
	.type	_ZNSt6vectorIcSaIcEED2Ev, %function
_ZNSt6vectorIcSaIcEED2Ev:
.LFB10405:
	.cfi_startproc
	.cfi_personality 0x9b,DW.ref.__gxx_personality_v0
	.cfi_lsda 0x1b,.LLSDA10405
	stp	x29, x30, [sp, -48]!
	.cfi_def_cfa_offset 48
	.cfi_offset 29, -48
	.cfi_offset 30, -40
	mov	x29, sp
	stp	x19, x20, [sp, 16]
	.cfi_offset 19, -32
	.cfi_offset 20, -24
	str	x0, [sp, 40]
	ldr	x0, [sp, 40]
	ldr	x19, [x0]
	ldr	x0, [sp, 40]
	ldr	x20, [x0, 8]
	ldr	x0, [sp, 40]
	bl	_ZNSt12_Vector_baseIcSaIcEE19_M_get_Tp_allocatorEv
	mov	x2, x0
	mov	x1, x20
	mov	x0, x19
	bl	_ZSt8_DestroyIPccEvT_S1_RSaIT0_E
	ldr	x0, [sp, 40]
	bl	_ZNSt12_Vector_baseIcSaIcEED2Ev
	nop
	ldp	x19, x20, [sp, 16]
	ldp	x29, x30, [sp], 48
	.cfi_restore 30
	.cfi_restore 29
	.cfi_restore 19
	.cfi_restore 20
	.cfi_def_cfa_offset 0
	ret
	.cfi_endproc
.LFE10405:
	.section	.gcc_except_table
.LLSDA10405:
	.byte	0xff
	.byte	0xff
	.byte	0x1
	.uleb128 .LLSDACSE10405-.LLSDACSB10405
.LLSDACSB10405:
.LLSDACSE10405:
	.section	.text._ZNSt6vectorIcSaIcEED2Ev,"axG",@progbits,_ZNSt6vectorIcSaIcEED5Ev,comdat
	.size	_ZNSt6vectorIcSaIcEED2Ev, .-_ZNSt6vectorIcSaIcEED2Ev
	.weak	_ZNSt6vectorIcSaIcEED1Ev
	.set	_ZNSt6vectorIcSaIcEED1Ev,_ZNSt6vectorIcSaIcEED2Ev
	.section	.text._ZNSaISt6vectorIcSaIcEEEC2Ev,"axG",@progbits,_ZNSaISt6vectorIcSaIcEEEC5Ev,comdat
	.align	2
	.weak	_ZNSaISt6vectorIcSaIcEEEC2Ev
	.type	_ZNSaISt6vectorIcSaIcEEEC2Ev, %function
_ZNSaISt6vectorIcSaIcEEEC2Ev:
.LFB10408:
	.cfi_startproc
	stp	x29, x30, [sp, -32]!
	.cfi_def_cfa_offset 32
	.cfi_offset 29, -32
	.cfi_offset 30, -24
	mov	x29, sp
	str	x0, [sp, 24]
	ldr	x0, [sp, 24]
	bl	_ZN9__gnu_cxx13new_allocatorISt6vectorIcSaIcEEEC2Ev
	nop
	ldp	x29, x30, [sp], 32
	.cfi_restore 30
	.cfi_restore 29
	.cfi_def_cfa_offset 0
	ret
	.cfi_endproc
.LFE10408:
	.size	_ZNSaISt6vectorIcSaIcEEEC2Ev, .-_ZNSaISt6vectorIcSaIcEEEC2Ev
	.weak	_ZNSaISt6vectorIcSaIcEEEC1Ev
	.set	_ZNSaISt6vectorIcSaIcEEEC1Ev,_ZNSaISt6vectorIcSaIcEEEC2Ev
	.section	.text._ZNSaISt6vectorIcSaIcEEED2Ev,"axG",@progbits,_ZNSaISt6vectorIcSaIcEEED5Ev,comdat
	.align	2
	.weak	_ZNSaISt6vectorIcSaIcEEED2Ev
	.type	_ZNSaISt6vectorIcSaIcEEED2Ev, %function
_ZNSaISt6vectorIcSaIcEEED2Ev:
.LFB10411:
	.cfi_startproc
	stp	x29, x30, [sp, -32]!
	.cfi_def_cfa_offset 32
	.cfi_offset 29, -32
	.cfi_offset 30, -24
	mov	x29, sp
	str	x0, [sp, 24]
	ldr	x0, [sp, 24]
	bl	_ZN9__gnu_cxx13new_allocatorISt6vectorIcSaIcEEED2Ev
	nop
	ldp	x29, x30, [sp], 32
	.cfi_restore 30
	.cfi_restore 29
	.cfi_def_cfa_offset 0
	ret
	.cfi_endproc
.LFE10411:
	.size	_ZNSaISt6vectorIcSaIcEEED2Ev, .-_ZNSaISt6vectorIcSaIcEEED2Ev
	.weak	_ZNSaISt6vectorIcSaIcEEED1Ev
	.set	_ZNSaISt6vectorIcSaIcEEED1Ev,_ZNSaISt6vectorIcSaIcEEED2Ev
	.section	.text._ZNSt6vectorIS_IcSaIcEESaIS1_EEC2EmRKS1_RKS2_,"axG",@progbits,_ZNSt6vectorIS_IcSaIcEESaIS1_EEC5EmRKS1_RKS2_,comdat
	.align	2
	.weak	_ZNSt6vectorIS_IcSaIcEESaIS1_EEC2EmRKS1_RKS2_
	.type	_ZNSt6vectorIS_IcSaIcEESaIS1_EEC2EmRKS1_RKS2_, %function
_ZNSt6vectorIS_IcSaIcEESaIS1_EEC2EmRKS1_RKS2_:
.LFB10414:
	.cfi_startproc
	.cfi_personality 0x9b,DW.ref.__gxx_personality_v0
	.cfi_lsda 0x1b,.LLSDA10414
	stp	x29, x30, [sp, -64]!
	.cfi_def_cfa_offset 64
	.cfi_offset 29, -64
	.cfi_offset 30, -56
	mov	x29, sp
	str	x19, [sp, 16]
	.cfi_offset 19, -48
	str	x0, [sp, 56]
	str	x1, [sp, 48]
	str	x2, [sp, 40]
	str	x3, [sp, 32]
	ldr	x19, [sp, 56]
	ldr	x1, [sp, 32]
	ldr	x0, [sp, 48]
.LEHB12:
	bl	_ZNSt6vectorIS_IcSaIcEESaIS1_EE17_S_check_init_lenEmRKS2_
	ldr	x2, [sp, 32]
	mov	x1, x0
	mov	x0, x19
	bl	_ZNSt12_Vector_baseISt6vectorIcSaIcEESaIS2_EEC2EmRKS3_
.LEHE12:
	ldr	x2, [sp, 40]
	ldr	x1, [sp, 48]
	ldr	x0, [sp, 56]
.LEHB13:
	bl	_ZNSt6vectorIS_IcSaIcEESaIS1_EE18_M_fill_initializeEmRKS1_
.LEHE13:
	b	.L59
.L58:
	mov	x19, x0
	ldr	x0, [sp, 56]
	bl	_ZNSt12_Vector_baseISt6vectorIcSaIcEESaIS2_EED2Ev
	mov	x0, x19
.LEHB14:
	bl	_Unwind_Resume
.LEHE14:
.L59:
	ldr	x19, [sp, 16]
	ldp	x29, x30, [sp], 64
	.cfi_restore 30
	.cfi_restore 29
	.cfi_restore 19
	.cfi_def_cfa_offset 0
	ret
	.cfi_endproc
.LFE10414:
	.section	.gcc_except_table
.LLSDA10414:
	.byte	0xff
	.byte	0xff
	.byte	0x1
	.uleb128 .LLSDACSE10414-.LLSDACSB10414
.LLSDACSB10414:
	.uleb128 .LEHB12-.LFB10414
	.uleb128 .LEHE12-.LEHB12
	.uleb128 0
	.uleb128 0
	.uleb128 .LEHB13-.LFB10414
	.uleb128 .LEHE13-.LEHB13
	.uleb128 .L58-.LFB10414
	.uleb128 0
	.uleb128 .LEHB14-.LFB10414
	.uleb128 .LEHE14-.LEHB14
	.uleb128 0
	.uleb128 0
.LLSDACSE10414:
	.section	.text._ZNSt6vectorIS_IcSaIcEESaIS1_EEC2EmRKS1_RKS2_,"axG",@progbits,_ZNSt6vectorIS_IcSaIcEESaIS1_EEC5EmRKS1_RKS2_,comdat
	.size	_ZNSt6vectorIS_IcSaIcEESaIS1_EEC2EmRKS1_RKS2_, .-_ZNSt6vectorIS_IcSaIcEESaIS1_EEC2EmRKS1_RKS2_
	.weak	_ZNSt6vectorIS_IcSaIcEESaIS1_EEC1EmRKS1_RKS2_
	.set	_ZNSt6vectorIS_IcSaIcEESaIS1_EEC1EmRKS1_RKS2_,_ZNSt6vectorIS_IcSaIcEESaIS1_EEC2EmRKS1_RKS2_
	.section	.text._ZNSt6vectorIS_IcSaIcEESaIS1_EED2Ev,"axG",@progbits,_ZNSt6vectorIS_IcSaIcEESaIS1_EED5Ev,comdat
	.align	2
	.weak	_ZNSt6vectorIS_IcSaIcEESaIS1_EED2Ev
	.type	_ZNSt6vectorIS_IcSaIcEESaIS1_EED2Ev, %function
_ZNSt6vectorIS_IcSaIcEESaIS1_EED2Ev:
.LFB10417:
	.cfi_startproc
	.cfi_personality 0x9b,DW.ref.__gxx_personality_v0
	.cfi_lsda 0x1b,.LLSDA10417
	stp	x29, x30, [sp, -48]!
	.cfi_def_cfa_offset 48
	.cfi_offset 29, -48
	.cfi_offset 30, -40
	mov	x29, sp
	stp	x19, x20, [sp, 16]
	.cfi_offset 19, -32
	.cfi_offset 20, -24
	str	x0, [sp, 40]
	ldr	x0, [sp, 40]
	ldr	x19, [x0]
	ldr	x0, [sp, 40]
	ldr	x20, [x0, 8]
	ldr	x0, [sp, 40]
	bl	_ZNSt12_Vector_baseISt6vectorIcSaIcEESaIS2_EE19_M_get_Tp_allocatorEv
	mov	x2, x0
	mov	x1, x20
	mov	x0, x19
	bl	_ZSt8_DestroyIPSt6vectorIcSaIcEES2_EvT_S4_RSaIT0_E
	ldr	x0, [sp, 40]
	bl	_ZNSt12_Vector_baseISt6vectorIcSaIcEESaIS2_EED2Ev
	nop
	ldp	x19, x20, [sp, 16]
	ldp	x29, x30, [sp], 48
	.cfi_restore 30
	.cfi_restore 29
	.cfi_restore 19
	.cfi_restore 20
	.cfi_def_cfa_offset 0
	ret
	.cfi_endproc
.LFE10417:
	.section	.gcc_except_table
.LLSDA10417:
	.byte	0xff
	.byte	0xff
	.byte	0x1
	.uleb128 .LLSDACSE10417-.LLSDACSB10417
.LLSDACSB10417:
.LLSDACSE10417:
	.section	.text._ZNSt6vectorIS_IcSaIcEESaIS1_EED2Ev,"axG",@progbits,_ZNSt6vectorIS_IcSaIcEESaIS1_EED5Ev,comdat
	.size	_ZNSt6vectorIS_IcSaIcEESaIS1_EED2Ev, .-_ZNSt6vectorIS_IcSaIcEESaIS1_EED2Ev
	.weak	_ZNSt6vectorIS_IcSaIcEESaIS1_EED1Ev
	.set	_ZNSt6vectorIS_IcSaIcEESaIS1_EED1Ev,_ZNSt6vectorIS_IcSaIcEESaIS1_EED2Ev
	.section	.text._ZNSaIiEC2Ev,"axG",@progbits,_ZNSaIiEC5Ev,comdat
	.align	2
	.weak	_ZNSaIiEC2Ev
	.type	_ZNSaIiEC2Ev, %function
_ZNSaIiEC2Ev:
.LFB10420:
	.cfi_startproc
	stp	x29, x30, [sp, -32]!
	.cfi_def_cfa_offset 32
	.cfi_offset 29, -32
	.cfi_offset 30, -24
	mov	x29, sp
	str	x0, [sp, 24]
	ldr	x0, [sp, 24]
	bl	_ZN9__gnu_cxx13new_allocatorIiEC2Ev
	nop
	ldp	x29, x30, [sp], 32
	.cfi_restore 30
	.cfi_restore 29
	.cfi_def_cfa_offset 0
	ret
	.cfi_endproc
.LFE10420:
	.size	_ZNSaIiEC2Ev, .-_ZNSaIiEC2Ev
	.weak	_ZNSaIiEC1Ev
	.set	_ZNSaIiEC1Ev,_ZNSaIiEC2Ev
	.section	.text._ZNSaIiED2Ev,"axG",@progbits,_ZNSaIiED5Ev,comdat
	.align	2
	.weak	_ZNSaIiED2Ev
	.type	_ZNSaIiED2Ev, %function
_ZNSaIiED2Ev:
.LFB10423:
	.cfi_startproc
	stp	x29, x30, [sp, -32]!
	.cfi_def_cfa_offset 32
	.cfi_offset 29, -32
	.cfi_offset 30, -24
	mov	x29, sp
	str	x0, [sp, 24]
	ldr	x0, [sp, 24]
	bl	_ZN9__gnu_cxx13new_allocatorIiED2Ev
	nop
	ldp	x29, x30, [sp], 32
	.cfi_restore 30
	.cfi_restore 29
	.cfi_def_cfa_offset 0
	ret
	.cfi_endproc
.LFE10423:
	.size	_ZNSaIiED2Ev, .-_ZNSaIiED2Ev
	.weak	_ZNSaIiED1Ev
	.set	_ZNSaIiED1Ev,_ZNSaIiED2Ev
	.section	.text._ZNSt6vectorIiSaIiEEC2ESt16initializer_listIiERKS0_,"axG",@progbits,_ZNSt6vectorIiSaIiEEC5ESt16initializer_listIiERKS0_,comdat
	.align	2
	.weak	_ZNSt6vectorIiSaIiEEC2ESt16initializer_listIiERKS0_
	.type	_ZNSt6vectorIiSaIiEEC2ESt16initializer_listIiERKS0_, %function
_ZNSt6vectorIiSaIiEEC2ESt16initializer_listIiERKS0_:
.LFB10426:
	.cfi_startproc
	.cfi_personality 0x9b,DW.ref.__gxx_personality_v0
	.cfi_lsda 0x1b,.LLSDA10426
	stp	x29, x30, [sp, -80]!
	.cfi_def_cfa_offset 80
	.cfi_offset 29, -80
	.cfi_offset 30, -72
	mov	x29, sp
	stp	x19, x20, [sp, 16]
	.cfi_offset 19, -64
	.cfi_offset 20, -56
	str	x0, [sp, 56]
	stp	x1, x2, [sp, 40]
	str	x3, [sp, 32]
	ldr	x0, [sp, 56]
	ldr	x1, [sp, 32]
	bl	_ZNSt12_Vector_baseIiSaIiEEC2ERKS0_
	add	x0, sp, 40
	bl	_ZNKSt16initializer_listIiE5beginEv
	mov	x19, x0
	add	x0, sp, 40
	bl	_ZNKSt16initializer_listIiE3endEv
	mov	w3, w20
	mov	x2, x0
	mov	x1, x19
	ldr	x0, [sp, 56]
.LEHB15:
	bl	_ZNSt6vectorIiSaIiEE19_M_range_initializeIPKiEEvT_S5_St20forward_iterator_tag
.LEHE15:
	b	.L66
.L65:
	mov	x19, x0
	ldr	x0, [sp, 56]
	bl	_ZNSt12_Vector_baseIiSaIiEED2Ev
	mov	x0, x19
.LEHB16:
	bl	_Unwind_Resume
.LEHE16:
.L66:
	ldp	x19, x20, [sp, 16]
	ldp	x29, x30, [sp], 80
	.cfi_restore 30
	.cfi_restore 29
	.cfi_restore 19
	.cfi_restore 20
	.cfi_def_cfa_offset 0
	ret
	.cfi_endproc
.LFE10426:
	.section	.gcc_except_table
.LLSDA10426:
	.byte	0xff
	.byte	0xff
	.byte	0x1
	.uleb128 .LLSDACSE10426-.LLSDACSB10426
.LLSDACSB10426:
	.uleb128 .LEHB15-.LFB10426
	.uleb128 .LEHE15-.LEHB15
	.uleb128 .L65-.LFB10426
	.uleb128 0
	.uleb128 .LEHB16-.LFB10426
	.uleb128 .LEHE16-.LEHB16
	.uleb128 0
	.uleb128 0
.LLSDACSE10426:
	.section	.text._ZNSt6vectorIiSaIiEEC2ESt16initializer_listIiERKS0_,"axG",@progbits,_ZNSt6vectorIiSaIiEEC5ESt16initializer_listIiERKS0_,comdat
	.size	_ZNSt6vectorIiSaIiEEC2ESt16initializer_listIiERKS0_, .-_ZNSt6vectorIiSaIiEEC2ESt16initializer_listIiERKS0_
	.weak	_ZNSt6vectorIiSaIiEEC1ESt16initializer_listIiERKS0_
	.set	_ZNSt6vectorIiSaIiEEC1ESt16initializer_listIiERKS0_,_ZNSt6vectorIiSaIiEEC2ESt16initializer_listIiERKS0_
	.section	.text._ZNSt6vectorIiSaIiEED2Ev,"axG",@progbits,_ZNSt6vectorIiSaIiEED5Ev,comdat
	.align	2
	.weak	_ZNSt6vectorIiSaIiEED2Ev
	.type	_ZNSt6vectorIiSaIiEED2Ev, %function
_ZNSt6vectorIiSaIiEED2Ev:
.LFB10429:
	.cfi_startproc
	.cfi_personality 0x9b,DW.ref.__gxx_personality_v0
	.cfi_lsda 0x1b,.LLSDA10429
	stp	x29, x30, [sp, -48]!
	.cfi_def_cfa_offset 48
	.cfi_offset 29, -48
	.cfi_offset 30, -40
	mov	x29, sp
	stp	x19, x20, [sp, 16]
	.cfi_offset 19, -32
	.cfi_offset 20, -24
	str	x0, [sp, 40]
	ldr	x0, [sp, 40]
	ldr	x19, [x0]
	ldr	x0, [sp, 40]
	ldr	x20, [x0, 8]
	ldr	x0, [sp, 40]
	bl	_ZNSt12_Vector_baseIiSaIiEE19_M_get_Tp_allocatorEv
	mov	x2, x0
	mov	x1, x20
	mov	x0, x19
	bl	_ZSt8_DestroyIPiiEvT_S1_RSaIT0_E
	ldr	x0, [sp, 40]
	bl	_ZNSt12_Vector_baseIiSaIiEED2Ev
	nop
	ldp	x19, x20, [sp, 16]
	ldp	x29, x30, [sp], 48
	.cfi_restore 30
	.cfi_restore 29
	.cfi_restore 19
	.cfi_restore 20
	.cfi_def_cfa_offset 0
	ret
	.cfi_endproc
.LFE10429:
	.section	.gcc_except_table
.LLSDA10429:
	.byte	0xff
	.byte	0xff
	.byte	0x1
	.uleb128 .LLSDACSE10429-.LLSDACSB10429
.LLSDACSB10429:
.LLSDACSE10429:
	.section	.text._ZNSt6vectorIiSaIiEED2Ev,"axG",@progbits,_ZNSt6vectorIiSaIiEED5Ev,comdat
	.size	_ZNSt6vectorIiSaIiEED2Ev, .-_ZNSt6vectorIiSaIiEED2Ev
	.weak	_ZNSt6vectorIiSaIiEED1Ev
	.set	_ZNSt6vectorIiSaIiEED1Ev,_ZNSt6vectorIiSaIiEED2Ev
	.section	.text._ZNSt8_Rb_treeIccSt9_IdentityIcESt4lessIcESaIcEE13_Rb_tree_implIS3_Lb1EEC2Ev,"axG",@progbits,_ZNSt8_Rb_treeIccSt9_IdentityIcESt4lessIcESaIcEE13_Rb_tree_implIS3_Lb1EEC5Ev,comdat
	.align	2
	.weak	_ZNSt8_Rb_treeIccSt9_IdentityIcESt4lessIcESaIcEE13_Rb_tree_implIS3_Lb1EEC2Ev
	.type	_ZNSt8_Rb_treeIccSt9_IdentityIcESt4lessIcESaIcEE13_Rb_tree_implIS3_Lb1EEC2Ev, %function
_ZNSt8_Rb_treeIccSt9_IdentityIcESt4lessIcESaIcEE13_Rb_tree_implIS3_Lb1EEC2Ev:
.LFB10432:
	.cfi_startproc
	stp	x29, x30, [sp, -32]!
	.cfi_def_cfa_offset 32
	.cfi_offset 29, -32
	.cfi_offset 30, -24
	mov	x29, sp
	str	x0, [sp, 24]
	ldr	x0, [sp, 24]
	bl	_ZNSaISt13_Rb_tree_nodeIcEEC2Ev
	ldr	x0, [sp, 24]
	bl	_ZNSt20_Rb_tree_key_compareISt4lessIcEEC2Ev
	ldr	x0, [sp, 24]
	add	x0, x0, 8
	bl	_ZNSt15_Rb_tree_headerC2Ev
	nop
	ldp	x29, x30, [sp], 32
	.cfi_restore 30
	.cfi_restore 29
	.cfi_def_cfa_offset 0
	ret
	.cfi_endproc
.LFE10432:
	.size	_ZNSt8_Rb_treeIccSt9_IdentityIcESt4lessIcESaIcEE13_Rb_tree_implIS3_Lb1EEC2Ev, .-_ZNSt8_Rb_treeIccSt9_IdentityIcESt4lessIcESaIcEE13_Rb_tree_implIS3_Lb1EEC2Ev
	.weak	_ZNSt8_Rb_treeIccSt9_IdentityIcESt4lessIcESaIcEE13_Rb_tree_implIS3_Lb1EEC1Ev
	.set	_ZNSt8_Rb_treeIccSt9_IdentityIcESt4lessIcESaIcEE13_Rb_tree_implIS3_Lb1EEC1Ev,_ZNSt8_Rb_treeIccSt9_IdentityIcESt4lessIcESaIcEE13_Rb_tree_implIS3_Lb1EEC2Ev
	.section	.text._ZNSaISt13_Rb_tree_nodeIcEED2Ev,"axG",@progbits,_ZNSaISt13_Rb_tree_nodeIcEED5Ev,comdat
	.align	2
	.weak	_ZNSaISt13_Rb_tree_nodeIcEED2Ev
	.type	_ZNSaISt13_Rb_tree_nodeIcEED2Ev, %function
_ZNSaISt13_Rb_tree_nodeIcEED2Ev:
.LFB10435:
	.cfi_startproc
	stp	x29, x30, [sp, -32]!
	.cfi_def_cfa_offset 32
	.cfi_offset 29, -32
	.cfi_offset 30, -24
	mov	x29, sp
	str	x0, [sp, 24]
	ldr	x0, [sp, 24]
	bl	_ZN9__gnu_cxx13new_allocatorISt13_Rb_tree_nodeIcEED2Ev
	nop
	ldp	x29, x30, [sp], 32
	.cfi_restore 30
	.cfi_restore 29
	.cfi_def_cfa_offset 0
	ret
	.cfi_endproc
.LFE10435:
	.size	_ZNSaISt13_Rb_tree_nodeIcEED2Ev, .-_ZNSaISt13_Rb_tree_nodeIcEED2Ev
	.weak	_ZNSaISt13_Rb_tree_nodeIcEED1Ev
	.set	_ZNSaISt13_Rb_tree_nodeIcEED1Ev,_ZNSaISt13_Rb_tree_nodeIcEED2Ev
	.section	.text._ZNSt8_Rb_treeIccSt9_IdentityIcESt4lessIcESaIcEED2Ev,"axG",@progbits,_ZNSt8_Rb_treeIccSt9_IdentityIcESt4lessIcESaIcEED5Ev,comdat
	.align	2
	.weak	_ZNSt8_Rb_treeIccSt9_IdentityIcESt4lessIcESaIcEED2Ev
	.type	_ZNSt8_Rb_treeIccSt9_IdentityIcESt4lessIcESaIcEED2Ev, %function
_ZNSt8_Rb_treeIccSt9_IdentityIcESt4lessIcESaIcEED2Ev:
.LFB10438:
	.cfi_startproc
	.cfi_personality 0x9b,DW.ref.__gxx_personality_v0
	.cfi_lsda 0x1b,.LLSDA10438
	stp	x29, x30, [sp, -32]!
	.cfi_def_cfa_offset 32
	.cfi_offset 29, -32
	.cfi_offset 30, -24
	mov	x29, sp
	str	x0, [sp, 24]
	ldr	x0, [sp, 24]
	bl	_ZNSt8_Rb_treeIccSt9_IdentityIcESt4lessIcESaIcEE8_M_beginEv
	mov	x1, x0
	ldr	x0, [sp, 24]
	bl	_ZNSt8_Rb_treeIccSt9_IdentityIcESt4lessIcESaIcEE8_M_eraseEPSt13_Rb_tree_nodeIcE
	ldr	x0, [sp, 24]
	bl	_ZNSt8_Rb_treeIccSt9_IdentityIcESt4lessIcESaIcEE13_Rb_tree_implIS3_Lb1EED1Ev
	nop
	ldp	x29, x30, [sp], 32
	.cfi_restore 30
	.cfi_restore 29
	.cfi_def_cfa_offset 0
	ret
	.cfi_endproc
.LFE10438:
	.section	.gcc_except_table
.LLSDA10438:
	.byte	0xff
	.byte	0xff
	.byte	0x1
	.uleb128 .LLSDACSE10438-.LLSDACSB10438
.LLSDACSB10438:
.LLSDACSE10438:
	.section	.text._ZNSt8_Rb_treeIccSt9_IdentityIcESt4lessIcESaIcEED2Ev,"axG",@progbits,_ZNSt8_Rb_treeIccSt9_IdentityIcESt4lessIcESaIcEED5Ev,comdat
	.size	_ZNSt8_Rb_treeIccSt9_IdentityIcESt4lessIcESaIcEED2Ev, .-_ZNSt8_Rb_treeIccSt9_IdentityIcESt4lessIcESaIcEED2Ev
	.weak	_ZNSt8_Rb_treeIccSt9_IdentityIcESt4lessIcESaIcEED1Ev
	.set	_ZNSt8_Rb_treeIccSt9_IdentityIcESt4lessIcESaIcEED1Ev,_ZNSt8_Rb_treeIccSt9_IdentityIcESt4lessIcESaIcEED2Ev
	.section	.text._ZNSt6vectorIS_IcSaIcEESaIS1_EEixEm,"axG",@progbits,_ZNSt6vectorIS_IcSaIcEESaIS1_EEixEm,comdat
	.align	2
	.weak	_ZNSt6vectorIS_IcSaIcEESaIS1_EEixEm
	.type	_ZNSt6vectorIS_IcSaIcEESaIS1_EEixEm, %function
_ZNSt6vectorIS_IcSaIcEESaIS1_EEixEm:
.LFB10440:
	.cfi_startproc
	sub	sp, sp, #16
	.cfi_def_cfa_offset 16
	str	x0, [sp, 8]
	str	x1, [sp]
	ldr	x0, [sp, 8]
	ldr	x2, [x0]
	ldr	x1, [sp]
	mov	x0, x1
	lsl	x0, x0, 1
	add	x0, x0, x1
	lsl	x0, x0, 3
	add	x0, x2, x0
	add	sp, sp, 16
	.cfi_def_cfa_offset 0
	ret
	.cfi_endproc
.LFE10440:
	.size	_ZNSt6vectorIS_IcSaIcEESaIS1_EEixEm, .-_ZNSt6vectorIS_IcSaIcEESaIS1_EEixEm
	.section	.text._ZNSt6vectorIcSaIcEEixEm,"axG",@progbits,_ZNSt6vectorIcSaIcEEixEm,comdat
	.align	2
	.weak	_ZNSt6vectorIcSaIcEEixEm
	.type	_ZNSt6vectorIcSaIcEEixEm, %function
_ZNSt6vectorIcSaIcEEixEm:
.LFB10441:
	.cfi_startproc
	sub	sp, sp, #16
	.cfi_def_cfa_offset 16
	str	x0, [sp, 8]
	str	x1, [sp]
	ldr	x0, [sp, 8]
	ldr	x1, [x0]
	ldr	x0, [sp]
	add	x0, x1, x0
	add	sp, sp, 16
	.cfi_def_cfa_offset 0
	ret
	.cfi_endproc
.LFE10441:
	.size	_ZNSt6vectorIcSaIcEEixEm, .-_ZNSt6vectorIcSaIcEEixEm
	.section	.text._ZNSt6vectorIiSaIiEEixEm,"axG",@progbits,_ZNSt6vectorIiSaIiEEixEm,comdat
	.align	2
	.weak	_ZNSt6vectorIiSaIiEEixEm
	.type	_ZNSt6vectorIiSaIiEEixEm, %function
_ZNSt6vectorIiSaIiEEixEm:
.LFB10442:
	.cfi_startproc
	sub	sp, sp, #16
	.cfi_def_cfa_offset 16
	str	x0, [sp, 8]
	str	x1, [sp]
	ldr	x0, [sp, 8]
	ldr	x1, [x0]
	ldr	x0, [sp]
	lsl	x0, x0, 2
	add	x0, x1, x0
	add	sp, sp, 16
	.cfi_def_cfa_offset 0
	ret
	.cfi_endproc
.LFE10442:
	.size	_ZNSt6vectorIiSaIiEEixEm, .-_ZNSt6vectorIiSaIiEEixEm
	.section	.text._ZNSt3setIcSt4lessIcESaIcEE6insertERKc,"axG",@progbits,_ZNSt3setIcSt4lessIcESaIcEE6insertERKc,comdat
	.align	2
	.weak	_ZNSt3setIcSt4lessIcESaIcEE6insertERKc
	.type	_ZNSt3setIcSt4lessIcESaIcEE6insertERKc, %function
_ZNSt3setIcSt4lessIcESaIcEE6insertERKc:
.LFB10443:
	.cfi_startproc
	stp	x29, x30, [sp, -64]!
	.cfi_def_cfa_offset 64
	.cfi_offset 29, -64
	.cfi_offset 30, -56
	mov	x29, sp
	str	x0, [sp, 24]
	str	x1, [sp, 16]
	ldr	x0, [sp, 24]
	ldr	x1, [sp, 16]
	bl	_ZNSt8_Rb_treeIccSt9_IdentityIcESt4lessIcESaIcEE16_M_insert_uniqueIRKcEESt4pairISt17_Rb_tree_iteratorIcEbEOT_
	stp	x0, x1, [sp, 32]
	add	x0, sp, 32
	add	x2, x0, 8
	add	x1, sp, 32
	add	x0, sp, 48
	bl	_ZNSt4pairISt23_Rb_tree_const_iteratorIcEbEC1IRSt17_Rb_tree_iteratorIcERbLb1EEEOT_OT0_
	ldp	x0, x1, [sp, 48]
	ldp	x29, x30, [sp], 64
	.cfi_restore 30
	.cfi_restore 29
	.cfi_def_cfa_offset 0
	ret
	.cfi_endproc
.LFE10443:
	.size	_ZNSt3setIcSt4lessIcESaIcEE6insertERKc, .-_ZNSt3setIcSt4lessIcESaIcEE6insertERKc
	.section	.text._ZNKSt3setIcSt4lessIcESaIcEE4sizeEv,"axG",@progbits,_ZNKSt3setIcSt4lessIcESaIcEE4sizeEv,comdat
	.align	2
	.weak	_ZNKSt3setIcSt4lessIcESaIcEE4sizeEv
	.type	_ZNKSt3setIcSt4lessIcESaIcEE4sizeEv, %function
_ZNKSt3setIcSt4lessIcESaIcEE4sizeEv:
.LFB10453:
	.cfi_startproc
	stp	x29, x30, [sp, -32]!
	.cfi_def_cfa_offset 32
	.cfi_offset 29, -32
	.cfi_offset 30, -24
	mov	x29, sp
	str	x0, [sp, 24]
	ldr	x0, [sp, 24]
	bl	_ZNKSt8_Rb_treeIccSt9_IdentityIcESt4lessIcESaIcEE4sizeEv
	ldp	x29, x30, [sp], 32
	.cfi_restore 30
	.cfi_restore 29
	.cfi_def_cfa_offset 0
	ret
	.cfi_endproc
.LFE10453:
	.size	_ZNKSt3setIcSt4lessIcESaIcEE4sizeEv, .-_ZNKSt3setIcSt4lessIcESaIcEE4sizeEv
	.section	.text._ZSt7forwardIbEOT_RNSt16remove_referenceIS0_E4typeE,"axG",@progbits,_ZSt7forwardIbEOT_RNSt16remove_referenceIS0_E4typeE,comdat
	.align	2
	.weak	_ZSt7forwardIbEOT_RNSt16remove_referenceIS0_E4typeE
	.type	_ZSt7forwardIbEOT_RNSt16remove_referenceIS0_E4typeE, %function
_ZSt7forwardIbEOT_RNSt16remove_referenceIS0_E4typeE:
.LFB10578:
	.cfi_startproc
	sub	sp, sp, #16
	.cfi_def_cfa_offset 16
	str	x0, [sp, 8]
	ldr	x0, [sp, 8]
	add	sp, sp, 16
	.cfi_def_cfa_offset 0
	ret
	.cfi_endproc
.LFE10578:
	.size	_ZSt7forwardIbEOT_RNSt16remove_referenceIS0_E4typeE, .-_ZSt7forwardIbEOT_RNSt16remove_referenceIS0_E4typeE
	.section	.text._ZN9__gnu_cxx14__alloc_traitsISaIcEcE17_S_select_on_copyERKS1_,"axG",@progbits,_ZN9__gnu_cxx14__alloc_traitsISaIcEcE17_S_select_on_copyERKS1_,comdat
	.align	2
	.weak	_ZN9__gnu_cxx14__alloc_traitsISaIcEcE17_S_select_on_copyERKS1_
	.type	_ZN9__gnu_cxx14__alloc_traitsISaIcEcE17_S_select_on_copyERKS1_, %function
_ZN9__gnu_cxx14__alloc_traitsISaIcEcE17_S_select_on_copyERKS1_:
.LFB10781:
	.cfi_startproc
	stp	x29, x30, [sp, -48]!
	.cfi_def_cfa_offset 48
	.cfi_offset 29, -48
	.cfi_offset 30, -40
	mov	x29, sp
	str	x19, [sp, 16]
	.cfi_offset 19, -32
	mov	x19, x8
	str	x0, [sp, 40]
	mov	x8, x19
	ldr	x0, [sp, 40]
	bl	_ZNSt16allocator_traitsISaIcEE37select_on_container_copy_constructionERKS0_
	mov	x0, x19
	ldr	x19, [sp, 16]
	ldp	x29, x30, [sp], 48
	.cfi_restore 30
	.cfi_restore 29
	.cfi_restore 19
	.cfi_def_cfa_offset 0
	ret
	.cfi_endproc
.LFE10781:
	.size	_ZN9__gnu_cxx14__alloc_traitsISaIcEcE17_S_select_on_copyERKS1_, .-_ZN9__gnu_cxx14__alloc_traitsISaIcEcE17_S_select_on_copyERKS1_
	.section	.rodata
	.align	3
.LC0:
	.string	"cannot create std::vector larger than max_size()"
	.section	.text._ZNSt6vectorIcSaIcEE17_S_check_init_lenEmRKS0_,"axG",@progbits,_ZNSt6vectorIcSaIcEE17_S_check_init_lenEmRKS0_,comdat
	.align	2
	.weak	_ZNSt6vectorIcSaIcEE17_S_check_init_lenEmRKS0_
	.type	_ZNSt6vectorIcSaIcEE17_S_check_init_lenEmRKS0_, %function
_ZNSt6vectorIcSaIcEE17_S_check_init_lenEmRKS0_:
.LFB10846:
	.cfi_startproc
	stp	x29, x30, [sp, -64]!
	.cfi_def_cfa_offset 64
	.cfi_offset 29, -64
	.cfi_offset 30, -56
	mov	x29, sp
	str	x19, [sp, 16]
	.cfi_offset 19, -48
	str	x0, [sp, 40]
	str	x1, [sp, 32]
	add	x0, sp, 56
	ldr	x1, [sp, 32]
	bl	_ZNSaIcEC1ERKS_
	add	x0, sp, 56
	bl	_ZNSt6vectorIcSaIcEE11_S_max_sizeERKS0_
	mov	x1, x0
	ldr	x0, [sp, 40]
	cmp	x0, x1
	cset	w0, hi
	and	w19, w0, 255
	add	x0, sp, 56
	bl	_ZNSaIcED1Ev
	cmp	w19, 0
	beq	.L86
	adrp	x0, .LC0
	add	x0, x0, :lo12:.LC0
	bl	_ZSt20__throw_length_errorPKc
.L86:
	ldr	x0, [sp, 40]
	ldr	x19, [sp, 16]
	ldp	x29, x30, [sp], 64
	.cfi_restore 30
	.cfi_restore 29
	.cfi_restore 19
	.cfi_def_cfa_offset 0
	ret
	.cfi_endproc
.LFE10846:
	.size	_ZNSt6vectorIcSaIcEE17_S_check_init_lenEmRKS0_, .-_ZNSt6vectorIcSaIcEE17_S_check_init_lenEmRKS0_
	.section	.text._ZNSt12_Vector_baseIcSaIcEE12_Vector_implD2Ev,"axG",@progbits,_ZNSt12_Vector_baseIcSaIcEE12_Vector_implD5Ev,comdat
	.align	2
	.weak	_ZNSt12_Vector_baseIcSaIcEE12_Vector_implD2Ev
	.type	_ZNSt12_Vector_baseIcSaIcEE12_Vector_implD2Ev, %function
_ZNSt12_Vector_baseIcSaIcEE12_Vector_implD2Ev:
.LFB10849:
	.cfi_startproc
	stp	x29, x30, [sp, -32]!
	.cfi_def_cfa_offset 32
	.cfi_offset 29, -32
	.cfi_offset 30, -24
	mov	x29, sp
	str	x0, [sp, 24]
	ldr	x0, [sp, 24]
	bl	_ZNSaIcED2Ev
	nop
	ldp	x29, x30, [sp], 32
	.cfi_restore 30
	.cfi_restore 29
	.cfi_def_cfa_offset 0
	ret
	.cfi_endproc
.LFE10849:
	.size	_ZNSt12_Vector_baseIcSaIcEE12_Vector_implD2Ev, .-_ZNSt12_Vector_baseIcSaIcEE12_Vector_implD2Ev
	.weak	_ZNSt12_Vector_baseIcSaIcEE12_Vector_implD1Ev
	.set	_ZNSt12_Vector_baseIcSaIcEE12_Vector_implD1Ev,_ZNSt12_Vector_baseIcSaIcEE12_Vector_implD2Ev
	.section	.text._ZNSt12_Vector_baseIcSaIcEEC2EmRKS0_,"axG",@progbits,_ZNSt12_Vector_baseIcSaIcEEC5EmRKS0_,comdat
	.align	2
	.weak	_ZNSt12_Vector_baseIcSaIcEEC2EmRKS0_
	.type	_ZNSt12_Vector_baseIcSaIcEEC2EmRKS0_, %function
_ZNSt12_Vector_baseIcSaIcEEC2EmRKS0_:
.LFB10851:
	.cfi_startproc
	.cfi_personality 0x9b,DW.ref.__gxx_personality_v0
	.cfi_lsda 0x1b,.LLSDA10851
	stp	x29, x30, [sp, -64]!
	.cfi_def_cfa_offset 64
	.cfi_offset 29, -64
	.cfi_offset 30, -56
	mov	x29, sp
	str	x19, [sp, 16]
	.cfi_offset 19, -48
	str	x0, [sp, 56]
	str	x1, [sp, 48]
	str	x2, [sp, 40]
	ldr	x0, [sp, 56]
	ldr	x1, [sp, 40]
	bl	_ZNSt12_Vector_baseIcSaIcEE12_Vector_implC1ERKS0_
	ldr	x1, [sp, 48]
	ldr	x0, [sp, 56]
.LEHB17:
	bl	_ZNSt12_Vector_baseIcSaIcEE17_M_create_storageEm
.LEHE17:
	b	.L92
.L91:
	mov	x19, x0
	ldr	x0, [sp, 56]
	bl	_ZNSt12_Vector_baseIcSaIcEE12_Vector_implD1Ev
	mov	x0, x19
.LEHB18:
	bl	_Unwind_Resume
.LEHE18:
.L92:
	ldr	x19, [sp, 16]
	ldp	x29, x30, [sp], 64
	.cfi_restore 30
	.cfi_restore 29
	.cfi_restore 19
	.cfi_def_cfa_offset 0
	ret
	.cfi_endproc
.LFE10851:
	.section	.gcc_except_table
.LLSDA10851:
	.byte	0xff
	.byte	0xff
	.byte	0x1
	.uleb128 .LLSDACSE10851-.LLSDACSB10851
.LLSDACSB10851:
	.uleb128 .LEHB17-.LFB10851
	.uleb128 .LEHE17-.LEHB17
	.uleb128 .L91-.LFB10851
	.uleb128 0
	.uleb128 .LEHB18-.LFB10851
	.uleb128 .LEHE18-.LEHB18
	.uleb128 0
	.uleb128 0
.LLSDACSE10851:
	.section	.text._ZNSt12_Vector_baseIcSaIcEEC2EmRKS0_,"axG",@progbits,_ZNSt12_Vector_baseIcSaIcEEC5EmRKS0_,comdat
	.size	_ZNSt12_Vector_baseIcSaIcEEC2EmRKS0_, .-_ZNSt12_Vector_baseIcSaIcEEC2EmRKS0_
	.weak	_ZNSt12_Vector_baseIcSaIcEEC1EmRKS0_
	.set	_ZNSt12_Vector_baseIcSaIcEEC1EmRKS0_,_ZNSt12_Vector_baseIcSaIcEEC2EmRKS0_
	.section	.text._ZNSt12_Vector_baseIcSaIcEED2Ev,"axG",@progbits,_ZNSt12_Vector_baseIcSaIcEED5Ev,comdat
	.align	2
	.weak	_ZNSt12_Vector_baseIcSaIcEED2Ev
	.type	_ZNSt12_Vector_baseIcSaIcEED2Ev, %function
_ZNSt12_Vector_baseIcSaIcEED2Ev:
.LFB10854:
	.cfi_startproc
	.cfi_personality 0x9b,DW.ref.__gxx_personality_v0
	.cfi_lsda 0x1b,.LLSDA10854
	stp	x29, x30, [sp, -32]!
	.cfi_def_cfa_offset 32
	.cfi_offset 29, -32
	.cfi_offset 30, -24
	mov	x29, sp
	str	x0, [sp, 24]
	ldr	x0, [sp, 24]
	ldr	x3, [x0]
	ldr	x0, [sp, 24]
	ldr	x1, [x0, 16]
	ldr	x0, [sp, 24]
	ldr	x0, [x0]
	sub	x0, x1, x0
	mov	x2, x0
	mov	x1, x3
	ldr	x0, [sp, 24]
	bl	_ZNSt12_Vector_baseIcSaIcEE13_M_deallocateEPcm
	ldr	x0, [sp, 24]
	bl	_ZNSt12_Vector_baseIcSaIcEE12_Vector_implD1Ev
	nop
	ldp	x29, x30, [sp], 32
	.cfi_restore 30
	.cfi_restore 29
	.cfi_def_cfa_offset 0
	ret
	.cfi_endproc
.LFE10854:
	.section	.gcc_except_table
.LLSDA10854:
	.byte	0xff
	.byte	0xff
	.byte	0x1
	.uleb128 .LLSDACSE10854-.LLSDACSB10854
.LLSDACSB10854:
.LLSDACSE10854:
	.section	.text._ZNSt12_Vector_baseIcSaIcEED2Ev,"axG",@progbits,_ZNSt12_Vector_baseIcSaIcEED5Ev,comdat
	.size	_ZNSt12_Vector_baseIcSaIcEED2Ev, .-_ZNSt12_Vector_baseIcSaIcEED2Ev
	.weak	_ZNSt12_Vector_baseIcSaIcEED1Ev
	.set	_ZNSt12_Vector_baseIcSaIcEED1Ev,_ZNSt12_Vector_baseIcSaIcEED2Ev
	.section	.text._ZNSt6vectorIcSaIcEE21_M_default_initializeEm,"axG",@progbits,_ZNSt6vectorIcSaIcEE21_M_default_initializeEm,comdat
	.align	2
	.weak	_ZNSt6vectorIcSaIcEE21_M_default_initializeEm
	.type	_ZNSt6vectorIcSaIcEE21_M_default_initializeEm, %function
_ZNSt6vectorIcSaIcEE21_M_default_initializeEm:
.LFB10856:
	.cfi_startproc
	stp	x29, x30, [sp, -48]!
	.cfi_def_cfa_offset 48
	.cfi_offset 29, -48
	.cfi_offset 30, -40
	mov	x29, sp
	str	x19, [sp, 16]
	.cfi_offset 19, -32
	str	x0, [sp, 40]
	str	x1, [sp, 32]
	ldr	x0, [sp, 40]
	ldr	x19, [x0]
	ldr	x0, [sp, 40]
	bl	_ZNSt12_Vector_baseIcSaIcEE19_M_get_Tp_allocatorEv
	mov	x2, x0
	ldr	x1, [sp, 32]
	mov	x0, x19
	bl	_ZSt27__uninitialized_default_n_aIPcmcET_S1_T0_RSaIT1_E
	mov	x1, x0
	ldr	x0, [sp, 40]
	str	x1, [x0, 8]
	nop
	ldr	x19, [sp, 16]
	ldp	x29, x30, [sp], 48
	.cfi_restore 30
	.cfi_restore 29
	.cfi_restore 19
	.cfi_def_cfa_offset 0
	ret
	.cfi_endproc
.LFE10856:
	.size	_ZNSt6vectorIcSaIcEE21_M_default_initializeEm, .-_ZNSt6vectorIcSaIcEE21_M_default_initializeEm
	.section	.text._ZNSt12_Vector_baseIcSaIcEE19_M_get_Tp_allocatorEv,"axG",@progbits,_ZNSt12_Vector_baseIcSaIcEE19_M_get_Tp_allocatorEv,comdat
	.align	2
	.weak	_ZNSt12_Vector_baseIcSaIcEE19_M_get_Tp_allocatorEv
	.type	_ZNSt12_Vector_baseIcSaIcEE19_M_get_Tp_allocatorEv, %function
_ZNSt12_Vector_baseIcSaIcEE19_M_get_Tp_allocatorEv:
.LFB10857:
	.cfi_startproc
	sub	sp, sp, #16
	.cfi_def_cfa_offset 16
	str	x0, [sp, 8]
	ldr	x0, [sp, 8]
	add	sp, sp, 16
	.cfi_def_cfa_offset 0
	ret
	.cfi_endproc
.LFE10857:
	.size	_ZNSt12_Vector_baseIcSaIcEE19_M_get_Tp_allocatorEv, .-_ZNSt12_Vector_baseIcSaIcEE19_M_get_Tp_allocatorEv
	.section	.text._ZSt8_DestroyIPccEvT_S1_RSaIT0_E,"axG",@progbits,_ZSt8_DestroyIPccEvT_S1_RSaIT0_E,comdat
	.align	2
	.weak	_ZSt8_DestroyIPccEvT_S1_RSaIT0_E
	.type	_ZSt8_DestroyIPccEvT_S1_RSaIT0_E, %function
_ZSt8_DestroyIPccEvT_S1_RSaIT0_E:
.LFB10858:
	.cfi_startproc
	stp	x29, x30, [sp, -48]!
	.cfi_def_cfa_offset 48
	.cfi_offset 29, -48
	.cfi_offset 30, -40
	mov	x29, sp
	str	x0, [sp, 40]
	str	x1, [sp, 32]
	str	x2, [sp, 24]
	ldr	x1, [sp, 32]
	ldr	x0, [sp, 40]
	bl	_ZSt8_DestroyIPcEvT_S1_
	nop
	ldp	x29, x30, [sp], 48
	.cfi_restore 30
	.cfi_restore 29
	.cfi_def_cfa_offset 0
	ret
	.cfi_endproc
.LFE10858:
	.size	_ZSt8_DestroyIPccEvT_S1_RSaIT0_E, .-_ZSt8_DestroyIPccEvT_S1_RSaIT0_E
	.section	.text._ZN9__gnu_cxx13new_allocatorISt6vectorIcSaIcEEEC2Ev,"axG",@progbits,_ZN9__gnu_cxx13new_allocatorISt6vectorIcSaIcEEEC5Ev,comdat
	.align	2
	.weak	_ZN9__gnu_cxx13new_allocatorISt6vectorIcSaIcEEEC2Ev
	.type	_ZN9__gnu_cxx13new_allocatorISt6vectorIcSaIcEEEC2Ev, %function
_ZN9__gnu_cxx13new_allocatorISt6vectorIcSaIcEEEC2Ev:
.LFB10860:
	.cfi_startproc
	sub	sp, sp, #16
	.cfi_def_cfa_offset 16
	str	x0, [sp, 8]
	nop
	add	sp, sp, 16
	.cfi_def_cfa_offset 0
	ret
	.cfi_endproc
.LFE10860:
	.size	_ZN9__gnu_cxx13new_allocatorISt6vectorIcSaIcEEEC2Ev, .-_ZN9__gnu_cxx13new_allocatorISt6vectorIcSaIcEEEC2Ev
	.weak	_ZN9__gnu_cxx13new_allocatorISt6vectorIcSaIcEEEC1Ev
	.set	_ZN9__gnu_cxx13new_allocatorISt6vectorIcSaIcEEEC1Ev,_ZN9__gnu_cxx13new_allocatorISt6vectorIcSaIcEEEC2Ev
	.section	.text._ZN9__gnu_cxx13new_allocatorISt6vectorIcSaIcEEED2Ev,"axG",@progbits,_ZN9__gnu_cxx13new_allocatorISt6vectorIcSaIcEEED5Ev,comdat
	.align	2
	.weak	_ZN9__gnu_cxx13new_allocatorISt6vectorIcSaIcEEED2Ev
	.type	_ZN9__gnu_cxx13new_allocatorISt6vectorIcSaIcEEED2Ev, %function
_ZN9__gnu_cxx13new_allocatorISt6vectorIcSaIcEEED2Ev:
.LFB10863:
	.cfi_startproc
	sub	sp, sp, #16
	.cfi_def_cfa_offset 16
	str	x0, [sp, 8]
	nop
	add	sp, sp, 16
	.cfi_def_cfa_offset 0
	ret
	.cfi_endproc
.LFE10863:
	.size	_ZN9__gnu_cxx13new_allocatorISt6vectorIcSaIcEEED2Ev, .-_ZN9__gnu_cxx13new_allocatorISt6vectorIcSaIcEEED2Ev
	.weak	_ZN9__gnu_cxx13new_allocatorISt6vectorIcSaIcEEED1Ev
	.set	_ZN9__gnu_cxx13new_allocatorISt6vectorIcSaIcEEED1Ev,_ZN9__gnu_cxx13new_allocatorISt6vectorIcSaIcEEED2Ev
	.section	.text._ZNSt6vectorIS_IcSaIcEESaIS1_EE17_S_check_init_lenEmRKS2_,"axG",@progbits,_ZNSt6vectorIS_IcSaIcEESaIS1_EE17_S_check_init_lenEmRKS2_,comdat
	.align	2
	.weak	_ZNSt6vectorIS_IcSaIcEESaIS1_EE17_S_check_init_lenEmRKS2_
	.type	_ZNSt6vectorIS_IcSaIcEESaIS1_EE17_S_check_init_lenEmRKS2_, %function
_ZNSt6vectorIS_IcSaIcEESaIS1_EE17_S_check_init_lenEmRKS2_:
.LFB10865:
	.cfi_startproc
	stp	x29, x30, [sp, -64]!
	.cfi_def_cfa_offset 64
	.cfi_offset 29, -64
	.cfi_offset 30, -56
	mov	x29, sp
	str	x19, [sp, 16]
	.cfi_offset 19, -48
	str	x0, [sp, 40]
	str	x1, [sp, 32]
	add	x0, sp, 56
	ldr	x1, [sp, 32]
	bl	_ZNSaISt6vectorIcSaIcEEEC1ERKS2_
	add	x0, sp, 56
	bl	_ZNSt6vectorIS_IcSaIcEESaIS1_EE11_S_max_sizeERKS2_
	mov	x1, x0
	ldr	x0, [sp, 40]
	cmp	x0, x1
	cset	w0, hi
	and	w19, w0, 255
	add	x0, sp, 56
	bl	_ZNSaISt6vectorIcSaIcEEED1Ev
	cmp	w19, 0
	beq	.L101
	adrp	x0, .LC0
	add	x0, x0, :lo12:.LC0
	bl	_ZSt20__throw_length_errorPKc
.L101:
	ldr	x0, [sp, 40]
	ldr	x19, [sp, 16]
	ldp	x29, x30, [sp], 64
	.cfi_restore 30
	.cfi_restore 29
	.cfi_restore 19
	.cfi_def_cfa_offset 0
	ret
	.cfi_endproc
.LFE10865:
	.size	_ZNSt6vectorIS_IcSaIcEESaIS1_EE17_S_check_init_lenEmRKS2_, .-_ZNSt6vectorIS_IcSaIcEESaIS1_EE17_S_check_init_lenEmRKS2_
	.section	.text._ZNSt12_Vector_baseISt6vectorIcSaIcEESaIS2_EE12_Vector_implD2Ev,"axG",@progbits,_ZNSt12_Vector_baseISt6vectorIcSaIcEESaIS2_EE12_Vector_implD5Ev,comdat
	.align	2
	.weak	_ZNSt12_Vector_baseISt6vectorIcSaIcEESaIS2_EE12_Vector_implD2Ev
	.type	_ZNSt12_Vector_baseISt6vectorIcSaIcEESaIS2_EE12_Vector_implD2Ev, %function
_ZNSt12_Vector_baseISt6vectorIcSaIcEESaIS2_EE12_Vector_implD2Ev:
.LFB10868:
	.cfi_startproc
	stp	x29, x30, [sp, -32]!
	.cfi_def_cfa_offset 32
	.cfi_offset 29, -32
	.cfi_offset 30, -24
	mov	x29, sp
	str	x0, [sp, 24]
	ldr	x0, [sp, 24]
	bl	_ZNSaISt6vectorIcSaIcEEED2Ev
	nop
	ldp	x29, x30, [sp], 32
	.cfi_restore 30
	.cfi_restore 29
	.cfi_def_cfa_offset 0
	ret
	.cfi_endproc
.LFE10868:
	.size	_ZNSt12_Vector_baseISt6vectorIcSaIcEESaIS2_EE12_Vector_implD2Ev, .-_ZNSt12_Vector_baseISt6vectorIcSaIcEESaIS2_EE12_Vector_implD2Ev
	.weak	_ZNSt12_Vector_baseISt6vectorIcSaIcEESaIS2_EE12_Vector_implD1Ev
	.set	_ZNSt12_Vector_baseISt6vectorIcSaIcEESaIS2_EE12_Vector_implD1Ev,_ZNSt12_Vector_baseISt6vectorIcSaIcEESaIS2_EE12_Vector_implD2Ev
	.section	.text._ZNSt12_Vector_baseISt6vectorIcSaIcEESaIS2_EEC2EmRKS3_,"axG",@progbits,_ZNSt12_Vector_baseISt6vectorIcSaIcEESaIS2_EEC5EmRKS3_,comdat
	.align	2
	.weak	_ZNSt12_Vector_baseISt6vectorIcSaIcEESaIS2_EEC2EmRKS3_
	.type	_ZNSt12_Vector_baseISt6vectorIcSaIcEESaIS2_EEC2EmRKS3_, %function
_ZNSt12_Vector_baseISt6vectorIcSaIcEESaIS2_EEC2EmRKS3_:
.LFB10870:
	.cfi_startproc
	.cfi_personality 0x9b,DW.ref.__gxx_personality_v0
	.cfi_lsda 0x1b,.LLSDA10870
	stp	x29, x30, [sp, -64]!
	.cfi_def_cfa_offset 64
	.cfi_offset 29, -64
	.cfi_offset 30, -56
	mov	x29, sp
	str	x19, [sp, 16]
	.cfi_offset 19, -48
	str	x0, [sp, 56]
	str	x1, [sp, 48]
	str	x2, [sp, 40]
	ldr	x0, [sp, 56]
	ldr	x1, [sp, 40]
	bl	_ZNSt12_Vector_baseISt6vectorIcSaIcEESaIS2_EE12_Vector_implC1ERKS3_
	ldr	x1, [sp, 48]
	ldr	x0, [sp, 56]
.LEHB19:
	bl	_ZNSt12_Vector_baseISt6vectorIcSaIcEESaIS2_EE17_M_create_storageEm
.LEHE19:
	b	.L107
.L106:
	mov	x19, x0
	ldr	x0, [sp, 56]
	bl	_ZNSt12_Vector_baseISt6vectorIcSaIcEESaIS2_EE12_Vector_implD1Ev
	mov	x0, x19
.LEHB20:
	bl	_Unwind_Resume
.LEHE20:
.L107:
	ldr	x19, [sp, 16]
	ldp	x29, x30, [sp], 64
	.cfi_restore 30
	.cfi_restore 29
	.cfi_restore 19
	.cfi_def_cfa_offset 0
	ret
	.cfi_endproc
.LFE10870:
	.section	.gcc_except_table
.LLSDA10870:
	.byte	0xff
	.byte	0xff
	.byte	0x1
	.uleb128 .LLSDACSE10870-.LLSDACSB10870
.LLSDACSB10870:
	.uleb128 .LEHB19-.LFB10870
	.uleb128 .LEHE19-.LEHB19
	.uleb128 .L106-.LFB10870
	.uleb128 0
	.uleb128 .LEHB20-.LFB10870
	.uleb128 .LEHE20-.LEHB20
	.uleb128 0
	.uleb128 0
.LLSDACSE10870:
	.section	.text._ZNSt12_Vector_baseISt6vectorIcSaIcEESaIS2_EEC2EmRKS3_,"axG",@progbits,_ZNSt12_Vector_baseISt6vectorIcSaIcEESaIS2_EEC5EmRKS3_,comdat
	.size	_ZNSt12_Vector_baseISt6vectorIcSaIcEESaIS2_EEC2EmRKS3_, .-_ZNSt12_Vector_baseISt6vectorIcSaIcEESaIS2_EEC2EmRKS3_
	.weak	_ZNSt12_Vector_baseISt6vectorIcSaIcEESaIS2_EEC1EmRKS3_
	.set	_ZNSt12_Vector_baseISt6vectorIcSaIcEESaIS2_EEC1EmRKS3_,_ZNSt12_Vector_baseISt6vectorIcSaIcEESaIS2_EEC2EmRKS3_
	.section	.text._ZNSt12_Vector_baseISt6vectorIcSaIcEESaIS2_EED2Ev,"axG",@progbits,_ZNSt12_Vector_baseISt6vectorIcSaIcEESaIS2_EED5Ev,comdat
	.align	2
	.weak	_ZNSt12_Vector_baseISt6vectorIcSaIcEESaIS2_EED2Ev
	.type	_ZNSt12_Vector_baseISt6vectorIcSaIcEESaIS2_EED2Ev, %function
_ZNSt12_Vector_baseISt6vectorIcSaIcEESaIS2_EED2Ev:
.LFB10873:
	.cfi_startproc
	.cfi_personality 0x9b,DW.ref.__gxx_personality_v0
	.cfi_lsda 0x1b,.LLSDA10873
	stp	x29, x30, [sp, -32]!
	.cfi_def_cfa_offset 32
	.cfi_offset 29, -32
	.cfi_offset 30, -24
	mov	x29, sp
	str	x0, [sp, 24]
	ldr	x0, [sp, 24]
	ldr	x3, [x0]
	ldr	x0, [sp, 24]
	ldr	x1, [x0, 16]
	ldr	x0, [sp, 24]
	ldr	x0, [x0]
	sub	x0, x1, x0
	asr	x1, x0, 3
	mov	x0, -6148914691236517206
	movk	x0, 0xaaab, lsl 0
	mul	x0, x1, x0
	mov	x2, x0
	mov	x1, x3
	ldr	x0, [sp, 24]
	bl	_ZNSt12_Vector_baseISt6vectorIcSaIcEESaIS2_EE13_M_deallocateEPS2_m
	ldr	x0, [sp, 24]
	bl	_ZNSt12_Vector_baseISt6vectorIcSaIcEESaIS2_EE12_Vector_implD1Ev
	nop
	ldp	x29, x30, [sp], 32
	.cfi_restore 30
	.cfi_restore 29
	.cfi_def_cfa_offset 0
	ret
	.cfi_endproc
.LFE10873:
	.section	.gcc_except_table
.LLSDA10873:
	.byte	0xff
	.byte	0xff
	.byte	0x1
	.uleb128 .LLSDACSE10873-.LLSDACSB10873
.LLSDACSB10873:
.LLSDACSE10873:
	.section	.text._ZNSt12_Vector_baseISt6vectorIcSaIcEESaIS2_EED2Ev,"axG",@progbits,_ZNSt12_Vector_baseISt6vectorIcSaIcEESaIS2_EED5Ev,comdat
	.size	_ZNSt12_Vector_baseISt6vectorIcSaIcEESaIS2_EED2Ev, .-_ZNSt12_Vector_baseISt6vectorIcSaIcEESaIS2_EED2Ev
	.weak	_ZNSt12_Vector_baseISt6vectorIcSaIcEESaIS2_EED1Ev
	.set	_ZNSt12_Vector_baseISt6vectorIcSaIcEESaIS2_EED1Ev,_ZNSt12_Vector_baseISt6vectorIcSaIcEESaIS2_EED2Ev
	.section	.text._ZNSt6vectorIS_IcSaIcEESaIS1_EE18_M_fill_initializeEmRKS1_,"axG",@progbits,_ZNSt6vectorIS_IcSaIcEESaIS1_EE18_M_fill_initializeEmRKS1_,comdat
	.align	2
	.weak	_ZNSt6vectorIS_IcSaIcEESaIS1_EE18_M_fill_initializeEmRKS1_
	.type	_ZNSt6vectorIS_IcSaIcEESaIS1_EE18_M_fill_initializeEmRKS1_, %function
_ZNSt6vectorIS_IcSaIcEESaIS1_EE18_M_fill_initializeEmRKS1_:
.LFB10875:
	.cfi_startproc
	stp	x29, x30, [sp, -64]!
	.cfi_def_cfa_offset 64
	.cfi_offset 29, -64
	.cfi_offset 30, -56
	mov	x29, sp
	str	x19, [sp, 16]
	.cfi_offset 19, -48
	str	x0, [sp, 56]
	str	x1, [sp, 48]
	str	x2, [sp, 40]
	ldr	x0, [sp, 56]
	ldr	x19, [x0]
	ldr	x0, [sp, 56]
	bl	_ZNSt12_Vector_baseISt6vectorIcSaIcEESaIS2_EE19_M_get_Tp_allocatorEv
	mov	x3, x0
	ldr	x2, [sp, 40]
	ldr	x1, [sp, 48]
	mov	x0, x19
	bl	_ZSt24__uninitialized_fill_n_aIPSt6vectorIcSaIcEEmS2_S2_ET_S4_T0_RKT1_RSaIT2_E
	mov	x1, x0
	ldr	x0, [sp, 56]
	str	x1, [x0, 8]
	nop
	ldr	x19, [sp, 16]
	ldp	x29, x30, [sp], 64
	.cfi_restore 30
	.cfi_restore 29
	.cfi_restore 19
	.cfi_def_cfa_offset 0
	ret
	.cfi_endproc
.LFE10875:
	.size	_ZNSt6vectorIS_IcSaIcEESaIS1_EE18_M_fill_initializeEmRKS1_, .-_ZNSt6vectorIS_IcSaIcEESaIS1_EE18_M_fill_initializeEmRKS1_
	.section	.text._ZNSt12_Vector_baseISt6vectorIcSaIcEESaIS2_EE19_M_get_Tp_allocatorEv,"axG",@progbits,_ZNSt12_Vector_baseISt6vectorIcSaIcEESaIS2_EE19_M_get_Tp_allocatorEv,comdat
	.align	2
	.weak	_ZNSt12_Vector_baseISt6vectorIcSaIcEESaIS2_EE19_M_get_Tp_allocatorEv
	.type	_ZNSt12_Vector_baseISt6vectorIcSaIcEESaIS2_EE19_M_get_Tp_allocatorEv, %function
_ZNSt12_Vector_baseISt6vectorIcSaIcEESaIS2_EE19_M_get_Tp_allocatorEv:
.LFB10876:
	.cfi_startproc
	sub	sp, sp, #16
	.cfi_def_cfa_offset 16
	str	x0, [sp, 8]
	ldr	x0, [sp, 8]
	add	sp, sp, 16
	.cfi_def_cfa_offset 0
	ret
	.cfi_endproc
.LFE10876:
	.size	_ZNSt12_Vector_baseISt6vectorIcSaIcEESaIS2_EE19_M_get_Tp_allocatorEv, .-_ZNSt12_Vector_baseISt6vectorIcSaIcEESaIS2_EE19_M_get_Tp_allocatorEv
	.section	.text._ZSt8_DestroyIPSt6vectorIcSaIcEES2_EvT_S4_RSaIT0_E,"axG",@progbits,_ZSt8_DestroyIPSt6vectorIcSaIcEES2_EvT_S4_RSaIT0_E,comdat
	.align	2
	.weak	_ZSt8_DestroyIPSt6vectorIcSaIcEES2_EvT_S4_RSaIT0_E
	.type	_ZSt8_DestroyIPSt6vectorIcSaIcEES2_EvT_S4_RSaIT0_E, %function
_ZSt8_DestroyIPSt6vectorIcSaIcEES2_EvT_S4_RSaIT0_E:
.LFB10877:
	.cfi_startproc
	stp	x29, x30, [sp, -48]!
	.cfi_def_cfa_offset 48
	.cfi_offset 29, -48
	.cfi_offset 30, -40
	mov	x29, sp
	str	x0, [sp, 40]
	str	x1, [sp, 32]
	str	x2, [sp, 24]
	ldr	x1, [sp, 32]
	ldr	x0, [sp, 40]
	bl	_ZSt8_DestroyIPSt6vectorIcSaIcEEEvT_S4_
	nop
	ldp	x29, x30, [sp], 48
	.cfi_restore 30
	.cfi_restore 29
	.cfi_def_cfa_offset 0
	ret
	.cfi_endproc
.LFE10877:
	.size	_ZSt8_DestroyIPSt6vectorIcSaIcEES2_EvT_S4_RSaIT0_E, .-_ZSt8_DestroyIPSt6vectorIcSaIcEES2_EvT_S4_RSaIT0_E
	.section	.text._ZN9__gnu_cxx13new_allocatorIiEC2Ev,"axG",@progbits,_ZN9__gnu_cxx13new_allocatorIiEC5Ev,comdat
	.align	2
	.weak	_ZN9__gnu_cxx13new_allocatorIiEC2Ev
	.type	_ZN9__gnu_cxx13new_allocatorIiEC2Ev, %function
_ZN9__gnu_cxx13new_allocatorIiEC2Ev:
.LFB10879:
	.cfi_startproc
	sub	sp, sp, #16
	.cfi_def_cfa_offset 16
	str	x0, [sp, 8]
	nop
	add	sp, sp, 16
	.cfi_def_cfa_offset 0
	ret
	.cfi_endproc
.LFE10879:
	.size	_ZN9__gnu_cxx13new_allocatorIiEC2Ev, .-_ZN9__gnu_cxx13new_allocatorIiEC2Ev
	.weak	_ZN9__gnu_cxx13new_allocatorIiEC1Ev
	.set	_ZN9__gnu_cxx13new_allocatorIiEC1Ev,_ZN9__gnu_cxx13new_allocatorIiEC2Ev
	.section	.text._ZN9__gnu_cxx13new_allocatorIiED2Ev,"axG",@progbits,_ZN9__gnu_cxx13new_allocatorIiED5Ev,comdat
	.align	2
	.weak	_ZN9__gnu_cxx13new_allocatorIiED2Ev
	.type	_ZN9__gnu_cxx13new_allocatorIiED2Ev, %function
_ZN9__gnu_cxx13new_allocatorIiED2Ev:
.LFB10882:
	.cfi_startproc
	sub	sp, sp, #16
	.cfi_def_cfa_offset 16
	str	x0, [sp, 8]
	nop
	add	sp, sp, 16
	.cfi_def_cfa_offset 0
	ret
	.cfi_endproc
.LFE10882:
	.size	_ZN9__gnu_cxx13new_allocatorIiED2Ev, .-_ZN9__gnu_cxx13new_allocatorIiED2Ev
	.weak	_ZN9__gnu_cxx13new_allocatorIiED1Ev
	.set	_ZN9__gnu_cxx13new_allocatorIiED1Ev,_ZN9__gnu_cxx13new_allocatorIiED2Ev
	.section	.text._ZNSt12_Vector_baseIiSaIiEE12_Vector_implD2Ev,"axG",@progbits,_ZNSt12_Vector_baseIiSaIiEE12_Vector_implD5Ev,comdat
	.align	2
	.weak	_ZNSt12_Vector_baseIiSaIiEE12_Vector_implD2Ev
	.type	_ZNSt12_Vector_baseIiSaIiEE12_Vector_implD2Ev, %function
_ZNSt12_Vector_baseIiSaIiEE12_Vector_implD2Ev:
.LFB10886:
	.cfi_startproc
	stp	x29, x30, [sp, -32]!
	.cfi_def_cfa_offset 32
	.cfi_offset 29, -32
	.cfi_offset 30, -24
	mov	x29, sp
	str	x0, [sp, 24]
	ldr	x0, [sp, 24]
	bl	_ZNSaIiED2Ev
	nop
	ldp	x29, x30, [sp], 32
	.cfi_restore 30
	.cfi_restore 29
	.cfi_def_cfa_offset 0
	ret
	.cfi_endproc
.LFE10886:
	.size	_ZNSt12_Vector_baseIiSaIiEE12_Vector_implD2Ev, .-_ZNSt12_Vector_baseIiSaIiEE12_Vector_implD2Ev
	.weak	_ZNSt12_Vector_baseIiSaIiEE12_Vector_implD1Ev
	.set	_ZNSt12_Vector_baseIiSaIiEE12_Vector_implD1Ev,_ZNSt12_Vector_baseIiSaIiEE12_Vector_implD2Ev
	.section	.text._ZNSt12_Vector_baseIiSaIiEEC2ERKS0_,"axG",@progbits,_ZNSt12_Vector_baseIiSaIiEEC5ERKS0_,comdat
	.align	2
	.weak	_ZNSt12_Vector_baseIiSaIiEEC2ERKS0_
	.type	_ZNSt12_Vector_baseIiSaIiEEC2ERKS0_, %function
_ZNSt12_Vector_baseIiSaIiEEC2ERKS0_:
.LFB10888:
	.cfi_startproc
	stp	x29, x30, [sp, -32]!
	.cfi_def_cfa_offset 32
	.cfi_offset 29, -32
	.cfi_offset 30, -24
	mov	x29, sp
	str	x0, [sp, 24]
	str	x1, [sp, 16]
	ldr	x0, [sp, 24]
	ldr	x1, [sp, 16]
	bl	_ZNSt12_Vector_baseIiSaIiEE12_Vector_implC1ERKS0_
	nop
	ldp	x29, x30, [sp], 32
	.cfi_restore 30
	.cfi_restore 29
	.cfi_def_cfa_offset 0
	ret
	.cfi_endproc
.LFE10888:
	.size	_ZNSt12_Vector_baseIiSaIiEEC2ERKS0_, .-_ZNSt12_Vector_baseIiSaIiEEC2ERKS0_
	.weak	_ZNSt12_Vector_baseIiSaIiEEC1ERKS0_
	.set	_ZNSt12_Vector_baseIiSaIiEEC1ERKS0_,_ZNSt12_Vector_baseIiSaIiEEC2ERKS0_
	.section	.text._ZNSt12_Vector_baseIiSaIiEED2Ev,"axG",@progbits,_ZNSt12_Vector_baseIiSaIiEED5Ev,comdat
	.align	2
	.weak	_ZNSt12_Vector_baseIiSaIiEED2Ev
	.type	_ZNSt12_Vector_baseIiSaIiEED2Ev, %function
_ZNSt12_Vector_baseIiSaIiEED2Ev:
.LFB10891:
	.cfi_startproc
	.cfi_personality 0x9b,DW.ref.__gxx_personality_v0
	.cfi_lsda 0x1b,.LLSDA10891
	stp	x29, x30, [sp, -32]!
	.cfi_def_cfa_offset 32
	.cfi_offset 29, -32
	.cfi_offset 30, -24
	mov	x29, sp
	str	x0, [sp, 24]
	ldr	x0, [sp, 24]
	ldr	x3, [x0]
	ldr	x0, [sp, 24]
	ldr	x1, [x0, 16]
	ldr	x0, [sp, 24]
	ldr	x0, [x0]
	sub	x0, x1, x0
	asr	x0, x0, 2
	mov	x2, x0
	mov	x1, x3
	ldr	x0, [sp, 24]
	bl	_ZNSt12_Vector_baseIiSaIiEE13_M_deallocateEPim
	ldr	x0, [sp, 24]
	bl	_ZNSt12_Vector_baseIiSaIiEE12_Vector_implD1Ev
	nop
	ldp	x29, x30, [sp], 32
	.cfi_restore 30
	.cfi_restore 29
	.cfi_def_cfa_offset 0
	ret
	.cfi_endproc
.LFE10891:
	.section	.gcc_except_table
.LLSDA10891:
	.byte	0xff
	.byte	0xff
	.byte	0x1
	.uleb128 .LLSDACSE10891-.LLSDACSB10891
.LLSDACSB10891:
.LLSDACSE10891:
	.section	.text._ZNSt12_Vector_baseIiSaIiEED2Ev,"axG",@progbits,_ZNSt12_Vector_baseIiSaIiEED5Ev,comdat
	.size	_ZNSt12_Vector_baseIiSaIiEED2Ev, .-_ZNSt12_Vector_baseIiSaIiEED2Ev
	.weak	_ZNSt12_Vector_baseIiSaIiEED1Ev
	.set	_ZNSt12_Vector_baseIiSaIiEED1Ev,_ZNSt12_Vector_baseIiSaIiEED2Ev
	.section	.text._ZNKSt16initializer_listIiE5beginEv,"axG",@progbits,_ZNKSt16initializer_listIiE5beginEv,comdat
	.align	2
	.weak	_ZNKSt16initializer_listIiE5beginEv
	.type	_ZNKSt16initializer_listIiE5beginEv, %function
_ZNKSt16initializer_listIiE5beginEv:
.LFB10893:
	.cfi_startproc
	sub	sp, sp, #16
	.cfi_def_cfa_offset 16
	str	x0, [sp, 8]
	ldr	x0, [sp, 8]
	ldr	x0, [x0]
	add	sp, sp, 16
	.cfi_def_cfa_offset 0
	ret
	.cfi_endproc
.LFE10893:
	.size	_ZNKSt16initializer_listIiE5beginEv, .-_ZNKSt16initializer_listIiE5beginEv
	.section	.text._ZNKSt16initializer_listIiE3endEv,"axG",@progbits,_ZNKSt16initializer_listIiE3endEv,comdat
	.align	2
	.weak	_ZNKSt16initializer_listIiE3endEv
	.type	_ZNKSt16initializer_listIiE3endEv, %function
_ZNKSt16initializer_listIiE3endEv:
.LFB10894:
	.cfi_startproc
	stp	x29, x30, [sp, -48]!
	.cfi_def_cfa_offset 48
	.cfi_offset 29, -48
	.cfi_offset 30, -40
	mov	x29, sp
	str	x19, [sp, 16]
	.cfi_offset 19, -32
	str	x0, [sp, 40]
	ldr	x0, [sp, 40]
	bl	_ZNKSt16initializer_listIiE5beginEv
	mov	x19, x0
	ldr	x0, [sp, 40]
	bl	_ZNKSt16initializer_listIiE4sizeEv
	lsl	x0, x0, 2
	add	x0, x19, x0
	ldr	x19, [sp, 16]
	ldp	x29, x30, [sp], 48
	.cfi_restore 30
	.cfi_restore 29
	.cfi_restore 19
	.cfi_def_cfa_offset 0
	ret
	.cfi_endproc
.LFE10894:
	.size	_ZNKSt16initializer_listIiE3endEv, .-_ZNKSt16initializer_listIiE3endEv
	.section	.text._ZSt8distanceIPKiENSt15iterator_traitsIT_E15difference_typeES3_S3_,"axG",@progbits,_ZSt8distanceIPKiENSt15iterator_traitsIT_E15difference_typeES3_S3_,comdat
	.align	2
	.weak	_ZSt8distanceIPKiENSt15iterator_traitsIT_E15difference_typeES3_S3_
	.type	_ZSt8distanceIPKiENSt15iterator_traitsIT_E15difference_typeES3_S3_, %function
_ZSt8distanceIPKiENSt15iterator_traitsIT_E15difference_typeES3_S3_:
.LFB10896:
	.cfi_startproc
	stp	x29, x30, [sp, -48]!
	.cfi_def_cfa_offset 48
	.cfi_offset 29, -48
	.cfi_offset 30, -40
	mov	x29, sp
	stp	x19, x20, [sp, 16]
	.cfi_offset 19, -32
	.cfi_offset 20, -24
	str	x0, [sp, 40]
	str	x1, [sp, 32]
	ldr	x19, [sp, 40]
	add	x0, sp, 40
	bl	_ZSt19__iterator_categoryIPKiENSt15iterator_traitsIT_E17iterator_categoryERKS3_
	mov	w2, w20
	ldr	x1, [sp, 32]
	mov	x0, x19
	bl	_ZSt10__distanceIPKiENSt15iterator_traitsIT_E15difference_typeES3_S3_St26random_access_iterator_tag
	ldp	x19, x20, [sp, 16]
	ldp	x29, x30, [sp], 48
	.cfi_restore 30
	.cfi_restore 29
	.cfi_restore 19
	.cfi_restore 20
	.cfi_def_cfa_offset 0
	ret
	.cfi_endproc
.LFE10896:
	.size	_ZSt8distanceIPKiENSt15iterator_traitsIT_E15difference_typeES3_S3_, .-_ZSt8distanceIPKiENSt15iterator_traitsIT_E15difference_typeES3_S3_
	.section	.text._ZNSt6vectorIiSaIiEE19_M_range_initializeIPKiEEvT_S5_St20forward_iterator_tag,"axG",@progbits,_ZNSt6vectorIiSaIiEE19_M_range_initializeIPKiEEvT_S5_St20forward_iterator_tag,comdat
	.align	2
	.weak	_ZNSt6vectorIiSaIiEE19_M_range_initializeIPKiEEvT_S5_St20forward_iterator_tag
	.type	_ZNSt6vectorIiSaIiEE19_M_range_initializeIPKiEEvT_S5_St20forward_iterator_tag, %function
_ZNSt6vectorIiSaIiEE19_M_range_initializeIPKiEEvT_S5_St20forward_iterator_tag:
.LFB10895:
	.cfi_startproc
	stp	x29, x30, [sp, -80]!
	.cfi_def_cfa_offset 80
	.cfi_offset 29, -80
	.cfi_offset 30, -72
	mov	x29, sp
	str	x19, [sp, 16]
	.cfi_offset 19, -64
	str	x0, [sp, 56]
	str	x1, [sp, 48]
	str	x2, [sp, 40]
	strb	w3, [sp, 32]
	ldr	x1, [sp, 40]
	ldr	x0, [sp, 48]
	bl	_ZSt8distanceIPKiENSt15iterator_traitsIT_E15difference_typeES3_S3_
	str	x0, [sp, 72]
	ldr	x19, [sp, 56]
	ldr	x0, [sp, 56]
	bl	_ZNSt12_Vector_baseIiSaIiEE19_M_get_Tp_allocatorEv
	mov	x1, x0
	ldr	x0, [sp, 72]
	bl	_ZNSt6vectorIiSaIiEE17_S_check_init_lenEmRKS0_
	mov	x1, x0
	mov	x0, x19
	bl	_ZNSt12_Vector_baseIiSaIiEE11_M_allocateEm
	mov	x1, x0
	ldr	x0, [sp, 56]
	str	x1, [x0]
	ldr	x0, [sp, 56]
	ldr	x1, [x0]
	ldr	x0, [sp, 72]
	lsl	x0, x0, 2
	add	x1, x1, x0
	ldr	x0, [sp, 56]
	str	x1, [x0, 16]
	ldr	x0, [sp, 56]
	ldr	x19, [x0]
	ldr	x0, [sp, 56]
	bl	_ZNSt12_Vector_baseIiSaIiEE19_M_get_Tp_allocatorEv
	mov	x3, x0
	mov	x2, x19
	ldr	x1, [sp, 40]
	ldr	x0, [sp, 48]
	bl	_ZSt22__uninitialized_copy_aIPKiPiiET0_T_S4_S3_RSaIT1_E
	mov	x1, x0
	ldr	x0, [sp, 56]
	str	x1, [x0, 8]
	nop
	ldr	x19, [sp, 16]
	ldp	x29, x30, [sp], 80
	.cfi_restore 30
	.cfi_restore 29
	.cfi_restore 19
	.cfi_def_cfa_offset 0
	ret
	.cfi_endproc
.LFE10895:
	.size	_ZNSt6vectorIiSaIiEE19_M_range_initializeIPKiEEvT_S5_St20forward_iterator_tag, .-_ZNSt6vectorIiSaIiEE19_M_range_initializeIPKiEEvT_S5_St20forward_iterator_tag
	.section	.text._ZNSt12_Vector_baseIiSaIiEE19_M_get_Tp_allocatorEv,"axG",@progbits,_ZNSt12_Vector_baseIiSaIiEE19_M_get_Tp_allocatorEv,comdat
	.align	2
	.weak	_ZNSt12_Vector_baseIiSaIiEE19_M_get_Tp_allocatorEv
	.type	_ZNSt12_Vector_baseIiSaIiEE19_M_get_Tp_allocatorEv, %function
_ZNSt12_Vector_baseIiSaIiEE19_M_get_Tp_allocatorEv:
.LFB10897:
	.cfi_startproc
	sub	sp, sp, #16
	.cfi_def_cfa_offset 16
	str	x0, [sp, 8]
	ldr	x0, [sp, 8]
	add	sp, sp, 16
	.cfi_def_cfa_offset 0
	ret
	.cfi_endproc
.LFE10897:
	.size	_ZNSt12_Vector_baseIiSaIiEE19_M_get_Tp_allocatorEv, .-_ZNSt12_Vector_baseIiSaIiEE19_M_get_Tp_allocatorEv
	.section	.text._ZSt8_DestroyIPiiEvT_S1_RSaIT0_E,"axG",@progbits,_ZSt8_DestroyIPiiEvT_S1_RSaIT0_E,comdat
	.align	2
	.weak	_ZSt8_DestroyIPiiEvT_S1_RSaIT0_E
	.type	_ZSt8_DestroyIPiiEvT_S1_RSaIT0_E, %function
_ZSt8_DestroyIPiiEvT_S1_RSaIT0_E:
.LFB10898:
	.cfi_startproc
	stp	x29, x30, [sp, -48]!
	.cfi_def_cfa_offset 48
	.cfi_offset 29, -48
	.cfi_offset 30, -40
	mov	x29, sp
	str	x0, [sp, 40]
	str	x1, [sp, 32]
	str	x2, [sp, 24]
	ldr	x1, [sp, 32]
	ldr	x0, [sp, 40]
	bl	_ZSt8_DestroyIPiEvT_S1_
	nop
	ldp	x29, x30, [sp], 48
	.cfi_restore 30
	.cfi_restore 29
	.cfi_def_cfa_offset 0
	ret
	.cfi_endproc
.LFE10898:
	.size	_ZSt8_DestroyIPiiEvT_S1_RSaIT0_E, .-_ZSt8_DestroyIPiiEvT_S1_RSaIT0_E
	.section	.text._ZNSaISt13_Rb_tree_nodeIcEEC2Ev,"axG",@progbits,_ZNSaISt13_Rb_tree_nodeIcEEC5Ev,comdat
	.align	2
	.weak	_ZNSaISt13_Rb_tree_nodeIcEEC2Ev
	.type	_ZNSaISt13_Rb_tree_nodeIcEEC2Ev, %function
_ZNSaISt13_Rb_tree_nodeIcEEC2Ev:
.LFB10900:
	.cfi_startproc
	stp	x29, x30, [sp, -32]!
	.cfi_def_cfa_offset 32
	.cfi_offset 29, -32
	.cfi_offset 30, -24
	mov	x29, sp
	str	x0, [sp, 24]
	ldr	x0, [sp, 24]
	bl	_ZN9__gnu_cxx13new_allocatorISt13_Rb_tree_nodeIcEEC2Ev
	nop
	ldp	x29, x30, [sp], 32
	.cfi_restore 30
	.cfi_restore 29
	.cfi_def_cfa_offset 0
	ret
	.cfi_endproc
.LFE10900:
	.size	_ZNSaISt13_Rb_tree_nodeIcEEC2Ev, .-_ZNSaISt13_Rb_tree_nodeIcEEC2Ev
	.weak	_ZNSaISt13_Rb_tree_nodeIcEEC1Ev
	.set	_ZNSaISt13_Rb_tree_nodeIcEEC1Ev,_ZNSaISt13_Rb_tree_nodeIcEEC2Ev
	.section	.text._ZNSt20_Rb_tree_key_compareISt4lessIcEEC2Ev,"axG",@progbits,_ZNSt20_Rb_tree_key_compareISt4lessIcEEC5Ev,comdat
	.align	2
	.weak	_ZNSt20_Rb_tree_key_compareISt4lessIcEEC2Ev
	.type	_ZNSt20_Rb_tree_key_compareISt4lessIcEEC2Ev, %function
_ZNSt20_Rb_tree_key_compareISt4lessIcEEC2Ev:
.LFB10903:
	.cfi_startproc
	sub	sp, sp, #16
	.cfi_def_cfa_offset 16
	str	x0, [sp, 8]
	nop
	add	sp, sp, 16
	.cfi_def_cfa_offset 0
	ret
	.cfi_endproc
.LFE10903:
	.size	_ZNSt20_Rb_tree_key_compareISt4lessIcEEC2Ev, .-_ZNSt20_Rb_tree_key_compareISt4lessIcEEC2Ev
	.weak	_ZNSt20_Rb_tree_key_compareISt4lessIcEEC1Ev
	.set	_ZNSt20_Rb_tree_key_compareISt4lessIcEEC1Ev,_ZNSt20_Rb_tree_key_compareISt4lessIcEEC2Ev
	.section	.text._ZN9__gnu_cxx13new_allocatorISt13_Rb_tree_nodeIcEED2Ev,"axG",@progbits,_ZN9__gnu_cxx13new_allocatorISt13_Rb_tree_nodeIcEED5Ev,comdat
	.align	2
	.weak	_ZN9__gnu_cxx13new_allocatorISt13_Rb_tree_nodeIcEED2Ev
	.type	_ZN9__gnu_cxx13new_allocatorISt13_Rb_tree_nodeIcEED2Ev, %function
_ZN9__gnu_cxx13new_allocatorISt13_Rb_tree_nodeIcEED2Ev:
.LFB10906:
	.cfi_startproc
	sub	sp, sp, #16
	.cfi_def_cfa_offset 16
	str	x0, [sp, 8]
	nop
	add	sp, sp, 16
	.cfi_def_cfa_offset 0
	ret
	.cfi_endproc
.LFE10906:
	.size	_ZN9__gnu_cxx13new_allocatorISt13_Rb_tree_nodeIcEED2Ev, .-_ZN9__gnu_cxx13new_allocatorISt13_Rb_tree_nodeIcEED2Ev
	.weak	_ZN9__gnu_cxx13new_allocatorISt13_Rb_tree_nodeIcEED1Ev
	.set	_ZN9__gnu_cxx13new_allocatorISt13_Rb_tree_nodeIcEED1Ev,_ZN9__gnu_cxx13new_allocatorISt13_Rb_tree_nodeIcEED2Ev
	.section	.text._ZNSt8_Rb_treeIccSt9_IdentityIcESt4lessIcESaIcEE8_M_eraseEPSt13_Rb_tree_nodeIcE,"axG",@progbits,_ZNSt8_Rb_treeIccSt9_IdentityIcESt4lessIcESaIcEE8_M_eraseEPSt13_Rb_tree_nodeIcE,comdat
	.align	2
	.weak	_ZNSt8_Rb_treeIccSt9_IdentityIcESt4lessIcESaIcEE8_M_eraseEPSt13_Rb_tree_nodeIcE
	.type	_ZNSt8_Rb_treeIccSt9_IdentityIcESt4lessIcESaIcEE8_M_eraseEPSt13_Rb_tree_nodeIcE, %function
_ZNSt8_Rb_treeIccSt9_IdentityIcESt4lessIcESaIcEE8_M_eraseEPSt13_Rb_tree_nodeIcE:
.LFB10908:
	.cfi_startproc
	stp	x29, x30, [sp, -48]!
	.cfi_def_cfa_offset 48
	.cfi_offset 29, -48
	.cfi_offset 30, -40
	mov	x29, sp
	str	x0, [sp, 24]
	str	x1, [sp, 16]
	b	.L132
.L133:
	ldr	x0, [sp, 16]
	bl	_ZNSt8_Rb_treeIccSt9_IdentityIcESt4lessIcESaIcEE8_S_rightEPSt18_Rb_tree_node_base
	mov	x1, x0
	ldr	x0, [sp, 24]
	bl	_ZNSt8_Rb_treeIccSt9_IdentityIcESt4lessIcESaIcEE8_M_eraseEPSt13_Rb_tree_nodeIcE
	ldr	x0, [sp, 16]
	bl	_ZNSt8_Rb_treeIccSt9_IdentityIcESt4lessIcESaIcEE7_S_leftEPSt18_Rb_tree_node_base
	str	x0, [sp, 40]
	ldr	x1, [sp, 16]
	ldr	x0, [sp, 24]
	bl	_ZNSt8_Rb_treeIccSt9_IdentityIcESt4lessIcESaIcEE12_M_drop_nodeEPSt13_Rb_tree_nodeIcE
	ldr	x0, [sp, 40]
	str	x0, [sp, 16]
.L132:
	ldr	x0, [sp, 16]
	cmp	x0, 0
	bne	.L133
	nop
	nop
	ldp	x29, x30, [sp], 48
	.cfi_restore 30
	.cfi_restore 29
	.cfi_def_cfa_offset 0
	ret
	.cfi_endproc
.LFE10908:
	.size	_ZNSt8_Rb_treeIccSt9_IdentityIcESt4lessIcESaIcEE8_M_eraseEPSt13_Rb_tree_nodeIcE, .-_ZNSt8_Rb_treeIccSt9_IdentityIcESt4lessIcESaIcEE8_M_eraseEPSt13_Rb_tree_nodeIcE
	.section	.text._ZNSt8_Rb_treeIccSt9_IdentityIcESt4lessIcESaIcEE8_M_beginEv,"axG",@progbits,_ZNSt8_Rb_treeIccSt9_IdentityIcESt4lessIcESaIcEE8_M_beginEv,comdat
	.align	2
	.weak	_ZNSt8_Rb_treeIccSt9_IdentityIcESt4lessIcESaIcEE8_M_beginEv
	.type	_ZNSt8_Rb_treeIccSt9_IdentityIcESt4lessIcESaIcEE8_M_beginEv, %function
_ZNSt8_Rb_treeIccSt9_IdentityIcESt4lessIcESaIcEE8_M_beginEv:
.LFB10909:
	.cfi_startproc
	stp	x29, x30, [sp, -32]!
	.cfi_def_cfa_offset 32
	.cfi_offset 29, -32
	.cfi_offset 30, -24
	mov	x29, sp
	str	x0, [sp, 24]
	ldr	x0, [sp, 24]
	bl	_ZNKSt8_Rb_treeIccSt9_IdentityIcESt4lessIcESaIcEE9_M_mbeginEv
	ldp	x29, x30, [sp], 32
	.cfi_restore 30
	.cfi_restore 29
	.cfi_def_cfa_offset 0
	ret
	.cfi_endproc
.LFE10909:
	.size	_ZNSt8_Rb_treeIccSt9_IdentityIcESt4lessIcESaIcEE8_M_beginEv, .-_ZNSt8_Rb_treeIccSt9_IdentityIcESt4lessIcESaIcEE8_M_beginEv
	.section	.text._ZNSt8_Rb_treeIccSt9_IdentityIcESt4lessIcESaIcEE16_M_insert_uniqueIRKcEESt4pairISt17_Rb_tree_iteratorIcEbEOT_,"axG",@progbits,_ZNSt8_Rb_treeIccSt9_IdentityIcESt4lessIcESaIcEE16_M_insert_uniqueIRKcEESt4pairISt17_Rb_tree_iteratorIcEbEOT_,comdat
	.align	2
	.weak	_ZNSt8_Rb_treeIccSt9_IdentityIcESt4lessIcESaIcEE16_M_insert_uniqueIRKcEESt4pairISt17_Rb_tree_iteratorIcEbEOT_
	.type	_ZNSt8_Rb_treeIccSt9_IdentityIcESt4lessIcESaIcEE16_M_insert_uniqueIRKcEESt4pairISt17_Rb_tree_iteratorIcEbEOT_, %function
_ZNSt8_Rb_treeIccSt9_IdentityIcESt4lessIcESaIcEE16_M_insert_uniqueIRKcEESt4pairISt17_Rb_tree_iteratorIcEbEOT_:
.LFB10910:
	.cfi_startproc
	stp	x29, x30, [sp, -144]!
	.cfi_def_cfa_offset 144
	.cfi_offset 29, -144
	.cfi_offset 30, -136
	mov	x29, sp
	stp	x19, x20, [sp, 16]
	.cfi_offset 19, -128
	.cfi_offset 20, -120
	str	x0, [sp, 40]
	str	x1, [sp, 32]
	add	x0, sp, 72
	ldr	x1, [sp, 32]
	bl	_ZNKSt9_IdentityIcEclERKc
	mov	x1, x0
	ldr	x0, [sp, 40]
	bl	_ZNSt8_Rb_treeIccSt9_IdentityIcESt4lessIcESaIcEE24_M_get_insert_unique_posERKc
	stp	x0, x1, [sp, 56]
	ldr	x0, [sp, 64]
	cmp	x0, 0
	beq	.L137
	add	x0, sp, 48
	ldr	x1, [sp, 40]
	bl	_ZNSt8_Rb_treeIccSt9_IdentityIcESt4lessIcESaIcEE11_Alloc_nodeC1ERS5_
	ldr	x19, [sp, 56]
	ldr	x20, [sp, 64]
	ldr	x0, [sp, 32]
	bl	_ZSt7forwardIRKcEOT_RNSt16remove_referenceIS2_E4typeE
	mov	x1, x0
	add	x0, sp, 48
	mov	x4, x0
	mov	x3, x1
	mov	x2, x20
	mov	x1, x19
	ldr	x0, [sp, 40]
	bl	_ZNSt8_Rb_treeIccSt9_IdentityIcESt4lessIcESaIcEE10_M_insert_IRKcNS5_11_Alloc_nodeEEESt17_Rb_tree_iteratorIcEPSt18_Rb_tree_node_baseSD_OT_RT0_
	str	x0, [sp, 96]
	mov	w0, 1
	strb	w0, [sp, 111]
	add	x2, sp, 111
	add	x1, sp, 96
	add	x0, sp, 80
	bl	_ZNSt4pairISt17_Rb_tree_iteratorIcEbEC1IS1_bLb1EEEOT_OT0_
	ldp	x0, x1, [sp, 80]
	b	.L139
.L137:
	ldr	x1, [sp, 56]
	add	x0, sp, 128
	bl	_ZNSt17_Rb_tree_iteratorIcEC1EPSt18_Rb_tree_node_base
	strb	wzr, [sp, 143]
	add	x2, sp, 143
	add	x1, sp, 128
	add	x0, sp, 112
	bl	_ZNSt4pairISt17_Rb_tree_iteratorIcEbEC1IS1_bLb1EEEOT_OT0_
	ldp	x0, x1, [sp, 112]
.L139:
	ldp	x19, x20, [sp, 16]
	ldp	x29, x30, [sp], 144
	.cfi_restore 30
	.cfi_restore 29
	.cfi_restore 19
	.cfi_restore 20
	.cfi_def_cfa_offset 0
	ret
	.cfi_endproc
.LFE10910:
	.size	_ZNSt8_Rb_treeIccSt9_IdentityIcESt4lessIcESaIcEE16_M_insert_uniqueIRKcEESt4pairISt17_Rb_tree_iteratorIcEbEOT_, .-_ZNSt8_Rb_treeIccSt9_IdentityIcESt4lessIcESaIcEE16_M_insert_uniqueIRKcEESt4pairISt17_Rb_tree_iteratorIcEbEOT_
	.section	.text._ZNSt4pairISt23_Rb_tree_const_iteratorIcEbEC2IRSt17_Rb_tree_iteratorIcERbLb1EEEOT_OT0_,"axG",@progbits,_ZNSt4pairISt23_Rb_tree_const_iteratorIcEbEC5IRSt17_Rb_tree_iteratorIcERbLb1EEEOT_OT0_,comdat
	.align	2
	.weak	_ZNSt4pairISt23_Rb_tree_const_iteratorIcEbEC2IRSt17_Rb_tree_iteratorIcERbLb1EEEOT_OT0_
	.type	_ZNSt4pairISt23_Rb_tree_const_iteratorIcEbEC2IRSt17_Rb_tree_iteratorIcERbLb1EEEOT_OT0_, %function
_ZNSt4pairISt23_Rb_tree_const_iteratorIcEbEC2IRSt17_Rb_tree_iteratorIcERbLb1EEEOT_OT0_:
.LFB10920:
	.cfi_startproc
	stp	x29, x30, [sp, -64]!
	.cfi_def_cfa_offset 64
	.cfi_offset 29, -64
	.cfi_offset 30, -56
	mov	x29, sp
	str	x19, [sp, 16]
	.cfi_offset 19, -48
	str	x0, [sp, 56]
	str	x1, [sp, 48]
	str	x2, [sp, 40]
	ldr	x19, [sp, 56]
	ldr	x0, [sp, 48]
	bl	_ZSt7forwardIRSt17_Rb_tree_iteratorIcEEOT_RNSt16remove_referenceIS3_E4typeE
	mov	x1, x0
	mov	x0, x19
	bl	_ZNSt23_Rb_tree_const_iteratorIcEC1ERKSt17_Rb_tree_iteratorIcE
	ldr	x0, [sp, 40]
	bl	_ZSt7forwardIRbEOT_RNSt16remove_referenceIS1_E4typeE
	ldrb	w1, [x0]
	ldr	x0, [sp, 56]
	strb	w1, [x0, 8]
	nop
	ldr	x19, [sp, 16]
	ldp	x29, x30, [sp], 64
	.cfi_restore 30
	.cfi_restore 29
	.cfi_restore 19
	.cfi_def_cfa_offset 0
	ret
	.cfi_endproc
.LFE10920:
	.size	_ZNSt4pairISt23_Rb_tree_const_iteratorIcEbEC2IRSt17_Rb_tree_iteratorIcERbLb1EEEOT_OT0_, .-_ZNSt4pairISt23_Rb_tree_const_iteratorIcEbEC2IRSt17_Rb_tree_iteratorIcERbLb1EEEOT_OT0_
	.weak	_ZNSt4pairISt23_Rb_tree_const_iteratorIcEbEC1IRSt17_Rb_tree_iteratorIcERbLb1EEEOT_OT0_
	.set	_ZNSt4pairISt23_Rb_tree_const_iteratorIcEbEC1IRSt17_Rb_tree_iteratorIcERbLb1EEEOT_OT0_,_ZNSt4pairISt23_Rb_tree_const_iteratorIcEbEC2IRSt17_Rb_tree_iteratorIcERbLb1EEEOT_OT0_
	.section	.text._ZNKSt8_Rb_treeIccSt9_IdentityIcESt4lessIcESaIcEE4sizeEv,"axG",@progbits,_ZNKSt8_Rb_treeIccSt9_IdentityIcESt4lessIcESaIcEE4sizeEv,comdat
	.align	2
	.weak	_ZNKSt8_Rb_treeIccSt9_IdentityIcESt4lessIcESaIcEE4sizeEv
	.type	_ZNKSt8_Rb_treeIccSt9_IdentityIcESt4lessIcESaIcEE4sizeEv, %function
_ZNKSt8_Rb_treeIccSt9_IdentityIcESt4lessIcESaIcEE4sizeEv:
.LFB10922:
	.cfi_startproc
	sub	sp, sp, #16
	.cfi_def_cfa_offset 16
	str	x0, [sp, 8]
	ldr	x0, [sp, 8]
	ldr	x0, [x0, 40]
	add	sp, sp, 16
	.cfi_def_cfa_offset 0
	ret
	.cfi_endproc
.LFE10922:
	.size	_ZNKSt8_Rb_treeIccSt9_IdentityIcESt4lessIcESaIcEE4sizeEv, .-_ZNKSt8_Rb_treeIccSt9_IdentityIcESt4lessIcESaIcEE4sizeEv
	.section	.text._ZNSt16allocator_traitsISaIcEE37select_on_container_copy_constructionERKS0_,"axG",@progbits,_ZNSt16allocator_traitsISaIcEE37select_on_container_copy_constructionERKS0_,comdat
	.align	2
	.weak	_ZNSt16allocator_traitsISaIcEE37select_on_container_copy_constructionERKS0_
	.type	_ZNSt16allocator_traitsISaIcEE37select_on_container_copy_constructionERKS0_, %function
_ZNSt16allocator_traitsISaIcEE37select_on_container_copy_constructionERKS0_:
.LFB11084:
	.cfi_startproc
	stp	x29, x30, [sp, -48]!
	.cfi_def_cfa_offset 48
	.cfi_offset 29, -48
	.cfi_offset 30, -40
	mov	x29, sp
	str	x19, [sp, 16]
	.cfi_offset 19, -32
	mov	x19, x8
	str	x0, [sp, 40]
	ldr	x1, [sp, 40]
	mov	x0, x19
	bl	_ZNSaIcEC1ERKS_
	mov	x0, x19
	ldr	x19, [sp, 16]
	ldp	x29, x30, [sp], 48
	.cfi_restore 30
	.cfi_restore 29
	.cfi_restore 19
	.cfi_def_cfa_offset 0
	ret
	.cfi_endproc
.LFE11084:
	.size	_ZNSt16allocator_traitsISaIcEE37select_on_container_copy_constructionERKS0_, .-_ZNSt16allocator_traitsISaIcEE37select_on_container_copy_constructionERKS0_
	.section	.text._ZNSt16allocator_traitsISaIcEE10deallocateERS0_Pcm,"axG",@progbits,_ZNSt16allocator_traitsISaIcEE10deallocateERS0_Pcm,comdat
	.align	2
	.weak	_ZNSt16allocator_traitsISaIcEE10deallocateERS0_Pcm
	.type	_ZNSt16allocator_traitsISaIcEE10deallocateERS0_Pcm, %function
_ZNSt16allocator_traitsISaIcEE10deallocateERS0_Pcm:
.LFB11090:
	.cfi_startproc
	stp	x29, x30, [sp, -48]!
	.cfi_def_cfa_offset 48
	.cfi_offset 29, -48
	.cfi_offset 30, -40
	mov	x29, sp
	str	x0, [sp, 40]
	str	x1, [sp, 32]
	str	x2, [sp, 24]
	ldr	x2, [sp, 24]
	ldr	x1, [sp, 32]
	ldr	x0, [sp, 40]
	bl	_ZN9__gnu_cxx13new_allocatorIcE10deallocateEPcm
	nop
	ldp	x29, x30, [sp], 48
	.cfi_restore 30
	.cfi_restore 29
	.cfi_def_cfa_offset 0
	ret
	.cfi_endproc
.LFE11090:
	.size	_ZNSt16allocator_traitsISaIcEE10deallocateERS0_Pcm, .-_ZNSt16allocator_traitsISaIcEE10deallocateERS0_Pcm
	.section	.text._ZNSt16allocator_traitsISaIcEE8allocateERS0_m,"axG",@progbits,_ZNSt16allocator_traitsISaIcEE8allocateERS0_m,comdat
	.align	2
	.weak	_ZNSt16allocator_traitsISaIcEE8allocateERS0_m
	.type	_ZNSt16allocator_traitsISaIcEE8allocateERS0_m, %function
_ZNSt16allocator_traitsISaIcEE8allocateERS0_m:
.LFB11091:
	.cfi_startproc
	stp	x29, x30, [sp, -32]!
	.cfi_def_cfa_offset 32
	.cfi_offset 29, -32
	.cfi_offset 30, -24
	mov	x29, sp
	str	x0, [sp, 24]
	str	x1, [sp, 16]
	mov	x2, 0
	ldr	x1, [sp, 16]
	ldr	x0, [sp, 24]
	bl	_ZN9__gnu_cxx13new_allocatorIcE8allocateEmPKv
	ldp	x29, x30, [sp], 32
	.cfi_restore 30
	.cfi_restore 29
	.cfi_def_cfa_offset 0
	ret
	.cfi_endproc
.LFE11091:
	.size	_ZNSt16allocator_traitsISaIcEE8allocateERS0_m, .-_ZNSt16allocator_traitsISaIcEE8allocateERS0_m
	.section	.text._ZNSt6vectorIcSaIcEE11_S_max_sizeERKS0_,"axG",@progbits,_ZNSt6vectorIcSaIcEE11_S_max_sizeERKS0_,comdat
	.align	2
	.weak	_ZNSt6vectorIcSaIcEE11_S_max_sizeERKS0_
	.type	_ZNSt6vectorIcSaIcEE11_S_max_sizeERKS0_, %function
_ZNSt6vectorIcSaIcEE11_S_max_sizeERKS0_:
.LFB11119:
	.cfi_startproc
	stp	x29, x30, [sp, -48]!
	.cfi_def_cfa_offset 48
	.cfi_offset 29, -48
	.cfi_offset 30, -40
	mov	x29, sp
	str	x0, [sp, 24]
	mov	x0, 9223372036854775807
	str	x0, [sp, 40]
	ldr	x0, [sp, 24]
	bl	_ZNSt16allocator_traitsISaIcEE8max_sizeERKS0_
	str	x0, [sp, 32]
	add	x1, sp, 32
	add	x0, sp, 40
	bl	_ZSt3minImERKT_S2_S2_
	ldr	x0, [x0]
	ldp	x29, x30, [sp], 48
	.cfi_restore 30
	.cfi_restore 29
	.cfi_def_cfa_offset 0
	ret
	.cfi_endproc
.LFE11119:
	.size	_ZNSt6vectorIcSaIcEE11_S_max_sizeERKS0_, .-_ZNSt6vectorIcSaIcEE11_S_max_sizeERKS0_
	.section	.text._ZNSt12_Vector_baseIcSaIcEE12_Vector_implC2ERKS0_,"axG",@progbits,_ZNSt12_Vector_baseIcSaIcEE12_Vector_implC5ERKS0_,comdat
	.align	2
	.weak	_ZNSt12_Vector_baseIcSaIcEE12_Vector_implC2ERKS0_
	.type	_ZNSt12_Vector_baseIcSaIcEE12_Vector_implC2ERKS0_, %function
_ZNSt12_Vector_baseIcSaIcEE12_Vector_implC2ERKS0_:
.LFB11121:
	.cfi_startproc
	stp	x29, x30, [sp, -32]!
	.cfi_def_cfa_offset 32
	.cfi_offset 29, -32
	.cfi_offset 30, -24
	mov	x29, sp
	str	x0, [sp, 24]
	str	x1, [sp, 16]
	ldr	x1, [sp, 16]
	ldr	x0, [sp, 24]
	bl	_ZNSaIcEC2ERKS_
	ldr	x0, [sp, 24]
	bl	_ZNSt12_Vector_baseIcSaIcEE17_Vector_impl_dataC2Ev
	nop
	ldp	x29, x30, [sp], 32
	.cfi_restore 30
	.cfi_restore 29
	.cfi_def_cfa_offset 0
	ret
	.cfi_endproc
.LFE11121:
	.size	_ZNSt12_Vector_baseIcSaIcEE12_Vector_implC2ERKS0_, .-_ZNSt12_Vector_baseIcSaIcEE12_Vector_implC2ERKS0_
	.weak	_ZNSt12_Vector_baseIcSaIcEE12_Vector_implC1ERKS0_
	.set	_ZNSt12_Vector_baseIcSaIcEE12_Vector_implC1ERKS0_,_ZNSt12_Vector_baseIcSaIcEE12_Vector_implC2ERKS0_
	.section	.text._ZNSt12_Vector_baseIcSaIcEE17_M_create_storageEm,"axG",@progbits,_ZNSt12_Vector_baseIcSaIcEE17_M_create_storageEm,comdat
	.align	2
	.weak	_ZNSt12_Vector_baseIcSaIcEE17_M_create_storageEm
	.type	_ZNSt12_Vector_baseIcSaIcEE17_M_create_storageEm, %function
_ZNSt12_Vector_baseIcSaIcEE17_M_create_storageEm:
.LFB11123:
	.cfi_startproc
	stp	x29, x30, [sp, -32]!
	.cfi_def_cfa_offset 32
	.cfi_offset 29, -32
	.cfi_offset 30, -24
	mov	x29, sp
	str	x0, [sp, 24]
	str	x1, [sp, 16]
	ldr	x1, [sp, 16]
	ldr	x0, [sp, 24]
	bl	_ZNSt12_Vector_baseIcSaIcEE11_M_allocateEm
	mov	x1, x0
	ldr	x0, [sp, 24]
	str	x1, [x0]
	ldr	x0, [sp, 24]
	ldr	x1, [x0]
	ldr	x0, [sp, 24]
	str	x1, [x0, 8]
	ldr	x0, [sp, 24]
	ldr	x1, [x0]
	ldr	x0, [sp, 16]
	add	x1, x1, x0
	ldr	x0, [sp, 24]
	str	x1, [x0, 16]
	nop
	ldp	x29, x30, [sp], 32
	.cfi_restore 30
	.cfi_restore 29
	.cfi_def_cfa_offset 0
	ret
	.cfi_endproc
.LFE11123:
	.size	_ZNSt12_Vector_baseIcSaIcEE17_M_create_storageEm, .-_ZNSt12_Vector_baseIcSaIcEE17_M_create_storageEm
	.section	.text._ZNSt12_Vector_baseIcSaIcEE13_M_deallocateEPcm,"axG",@progbits,_ZNSt12_Vector_baseIcSaIcEE13_M_deallocateEPcm,comdat
	.align	2
	.weak	_ZNSt12_Vector_baseIcSaIcEE13_M_deallocateEPcm
	.type	_ZNSt12_Vector_baseIcSaIcEE13_M_deallocateEPcm, %function
_ZNSt12_Vector_baseIcSaIcEE13_M_deallocateEPcm:
.LFB11124:
	.cfi_startproc
	stp	x29, x30, [sp, -48]!
	.cfi_def_cfa_offset 48
	.cfi_offset 29, -48
	.cfi_offset 30, -40
	mov	x29, sp
	str	x0, [sp, 40]
	str	x1, [sp, 32]
	str	x2, [sp, 24]
	ldr	x0, [sp, 32]
	cmp	x0, 0
	beq	.L154
	ldr	x0, [sp, 40]
	ldr	x2, [sp, 24]
	ldr	x1, [sp, 32]
	bl	_ZNSt16allocator_traitsISaIcEE10deallocateERS0_Pcm
.L154:
	nop
	ldp	x29, x30, [sp], 48
	.cfi_restore 30
	.cfi_restore 29
	.cfi_def_cfa_offset 0
	ret
	.cfi_endproc
.LFE11124:
	.size	_ZNSt12_Vector_baseIcSaIcEE13_M_deallocateEPcm, .-_ZNSt12_Vector_baseIcSaIcEE13_M_deallocateEPcm
	.section	.text._ZSt27__uninitialized_default_n_aIPcmcET_S1_T0_RSaIT1_E,"axG",@progbits,_ZSt27__uninitialized_default_n_aIPcmcET_S1_T0_RSaIT1_E,comdat
	.align	2
	.weak	_ZSt27__uninitialized_default_n_aIPcmcET_S1_T0_RSaIT1_E
	.type	_ZSt27__uninitialized_default_n_aIPcmcET_S1_T0_RSaIT1_E, %function
_ZSt27__uninitialized_default_n_aIPcmcET_S1_T0_RSaIT1_E:
.LFB11125:
	.cfi_startproc
	stp	x29, x30, [sp, -48]!
	.cfi_def_cfa_offset 48
	.cfi_offset 29, -48
	.cfi_offset 30, -40
	mov	x29, sp
	str	x0, [sp, 40]
	str	x1, [sp, 32]
	str	x2, [sp, 24]
	ldr	x1, [sp, 32]
	ldr	x0, [sp, 40]
	bl	_ZSt25__uninitialized_default_nIPcmET_S1_T0_
	ldp	x29, x30, [sp], 48
	.cfi_restore 30
	.cfi_restore 29
	.cfi_def_cfa_offset 0
	ret
	.cfi_endproc
.LFE11125:
	.size	_ZSt27__uninitialized_default_n_aIPcmcET_S1_T0_RSaIT1_E, .-_ZSt27__uninitialized_default_n_aIPcmcET_S1_T0_RSaIT1_E
	.section	.text._ZSt8_DestroyIPcEvT_S1_,"axG",@progbits,_ZSt8_DestroyIPcEvT_S1_,comdat
	.align	2
	.weak	_ZSt8_DestroyIPcEvT_S1_
	.type	_ZSt8_DestroyIPcEvT_S1_, %function
_ZSt8_DestroyIPcEvT_S1_:
.LFB11126:
	.cfi_startproc
	stp	x29, x30, [sp, -32]!
	.cfi_def_cfa_offset 32
	.cfi_offset 29, -32
	.cfi_offset 30, -24
	mov	x29, sp
	str	x0, [sp, 24]
	str	x1, [sp, 16]
	ldr	x1, [sp, 16]
	ldr	x0, [sp, 24]
	bl	_ZNSt12_Destroy_auxILb1EE9__destroyIPcEEvT_S3_
	nop
	ldp	x29, x30, [sp], 32
	.cfi_restore 30
	.cfi_restore 29
	.cfi_def_cfa_offset 0
	ret
	.cfi_endproc
.LFE11126:
	.size	_ZSt8_DestroyIPcEvT_S1_, .-_ZSt8_DestroyIPcEvT_S1_
	.section	.text._ZNSt6vectorIS_IcSaIcEESaIS1_EE11_S_max_sizeERKS2_,"axG",@progbits,_ZNSt6vectorIS_IcSaIcEESaIS1_EE11_S_max_sizeERKS2_,comdat
	.align	2
	.weak	_ZNSt6vectorIS_IcSaIcEESaIS1_EE11_S_max_sizeERKS2_
	.type	_ZNSt6vectorIS_IcSaIcEESaIS1_EE11_S_max_sizeERKS2_, %function
_ZNSt6vectorIS_IcSaIcEESaIS1_EE11_S_max_sizeERKS2_:
.LFB11127:
	.cfi_startproc
	stp	x29, x30, [sp, -48]!
	.cfi_def_cfa_offset 48
	.cfi_offset 29, -48
	.cfi_offset 30, -40
	mov	x29, sp
	str	x0, [sp, 24]
	mov	x0, 6148914691236517205
	movk	x0, 0x555, lsl 48
	str	x0, [sp, 40]
	ldr	x0, [sp, 24]
	bl	_ZNSt16allocator_traitsISaISt6vectorIcSaIcEEEE8max_sizeERKS3_
	str	x0, [sp, 32]
	add	x1, sp, 32
	add	x0, sp, 40
	bl	_ZSt3minImERKT_S2_S2_
	ldr	x0, [x0]
	ldp	x29, x30, [sp], 48
	.cfi_restore 30
	.cfi_restore 29
	.cfi_def_cfa_offset 0
	ret
	.cfi_endproc
.LFE11127:
	.size	_ZNSt6vectorIS_IcSaIcEESaIS1_EE11_S_max_sizeERKS2_, .-_ZNSt6vectorIS_IcSaIcEESaIS1_EE11_S_max_sizeERKS2_
	.section	.text._ZNSaISt6vectorIcSaIcEEEC2ERKS2_,"axG",@progbits,_ZNSaISt6vectorIcSaIcEEEC5ERKS2_,comdat
	.align	2
	.weak	_ZNSaISt6vectorIcSaIcEEEC2ERKS2_
	.type	_ZNSaISt6vectorIcSaIcEEEC2ERKS2_, %function
_ZNSaISt6vectorIcSaIcEEEC2ERKS2_:
.LFB11129:
	.cfi_startproc
	stp	x29, x30, [sp, -32]!
	.cfi_def_cfa_offset 32
	.cfi_offset 29, -32
	.cfi_offset 30, -24
	mov	x29, sp
	str	x0, [sp, 24]
	str	x1, [sp, 16]
	ldr	x1, [sp, 16]
	ldr	x0, [sp, 24]
	bl	_ZN9__gnu_cxx13new_allocatorISt6vectorIcSaIcEEEC2ERKS4_
	nop
	ldp	x29, x30, [sp], 32
	.cfi_restore 30
	.cfi_restore 29
	.cfi_def_cfa_offset 0
	ret
	.cfi_endproc
.LFE11129:
	.size	_ZNSaISt6vectorIcSaIcEEEC2ERKS2_, .-_ZNSaISt6vectorIcSaIcEEEC2ERKS2_
	.weak	_ZNSaISt6vectorIcSaIcEEEC1ERKS2_
	.set	_ZNSaISt6vectorIcSaIcEEEC1ERKS2_,_ZNSaISt6vectorIcSaIcEEEC2ERKS2_
	.section	.text._ZNSt12_Vector_baseISt6vectorIcSaIcEESaIS2_EE12_Vector_implC2ERKS3_,"axG",@progbits,_ZNSt12_Vector_baseISt6vectorIcSaIcEESaIS2_EE12_Vector_implC5ERKS3_,comdat
	.align	2
	.weak	_ZNSt12_Vector_baseISt6vectorIcSaIcEESaIS2_EE12_Vector_implC2ERKS3_
	.type	_ZNSt12_Vector_baseISt6vectorIcSaIcEESaIS2_EE12_Vector_implC2ERKS3_, %function
_ZNSt12_Vector_baseISt6vectorIcSaIcEESaIS2_EE12_Vector_implC2ERKS3_:
.LFB11132:
	.cfi_startproc
	stp	x29, x30, [sp, -32]!
	.cfi_def_cfa_offset 32
	.cfi_offset 29, -32
	.cfi_offset 30, -24
	mov	x29, sp
	str	x0, [sp, 24]
	str	x1, [sp, 16]
	ldr	x1, [sp, 16]
	ldr	x0, [sp, 24]
	bl	_ZNSaISt6vectorIcSaIcEEEC2ERKS2_
	ldr	x0, [sp, 24]
	bl	_ZNSt12_Vector_baseISt6vectorIcSaIcEESaIS2_EE17_Vector_impl_dataC2Ev
	nop
	ldp	x29, x30, [sp], 32
	.cfi_restore 30
	.cfi_restore 29
	.cfi_def_cfa_offset 0
	ret
	.cfi_endproc
.LFE11132:
	.size	_ZNSt12_Vector_baseISt6vectorIcSaIcEESaIS2_EE12_Vector_implC2ERKS3_, .-_ZNSt12_Vector_baseISt6vectorIcSaIcEESaIS2_EE12_Vector_implC2ERKS3_
	.weak	_ZNSt12_Vector_baseISt6vectorIcSaIcEESaIS2_EE12_Vector_implC1ERKS3_
	.set	_ZNSt12_Vector_baseISt6vectorIcSaIcEESaIS2_EE12_Vector_implC1ERKS3_,_ZNSt12_Vector_baseISt6vectorIcSaIcEESaIS2_EE12_Vector_implC2ERKS3_
	.section	.text._ZNSt12_Vector_baseISt6vectorIcSaIcEESaIS2_EE17_M_create_storageEm,"axG",@progbits,_ZNSt12_Vector_baseISt6vectorIcSaIcEESaIS2_EE17_M_create_storageEm,comdat
	.align	2
	.weak	_ZNSt12_Vector_baseISt6vectorIcSaIcEESaIS2_EE17_M_create_storageEm
	.type	_ZNSt12_Vector_baseISt6vectorIcSaIcEESaIS2_EE17_M_create_storageEm, %function
_ZNSt12_Vector_baseISt6vectorIcSaIcEESaIS2_EE17_M_create_storageEm:
.LFB11134:
	.cfi_startproc
	stp	x29, x30, [sp, -32]!
	.cfi_def_cfa_offset 32
	.cfi_offset 29, -32
	.cfi_offset 30, -24
	mov	x29, sp
	str	x0, [sp, 24]
	str	x1, [sp, 16]
	ldr	x1, [sp, 16]
	ldr	x0, [sp, 24]
	bl	_ZNSt12_Vector_baseISt6vectorIcSaIcEESaIS2_EE11_M_allocateEm
	mov	x1, x0
	ldr	x0, [sp, 24]
	str	x1, [x0]
	ldr	x0, [sp, 24]
	ldr	x1, [x0]
	ldr	x0, [sp, 24]
	str	x1, [x0, 8]
	ldr	x0, [sp, 24]
	ldr	x2, [x0]
	ldr	x1, [sp, 16]
	mov	x0, x1
	lsl	x0, x0, 1
	add	x0, x0, x1
	lsl	x0, x0, 3
	add	x1, x2, x0
	ldr	x0, [sp, 24]
	str	x1, [x0, 16]
	nop
	ldp	x29, x30, [sp], 32
	.cfi_restore 30
	.cfi_restore 29
	.cfi_def_cfa_offset 0
	ret
	.cfi_endproc
.LFE11134:
	.size	_ZNSt12_Vector_baseISt6vectorIcSaIcEESaIS2_EE17_M_create_storageEm, .-_ZNSt12_Vector_baseISt6vectorIcSaIcEESaIS2_EE17_M_create_storageEm
	.section	.text._ZNSt12_Vector_baseISt6vectorIcSaIcEESaIS2_EE13_M_deallocateEPS2_m,"axG",@progbits,_ZNSt12_Vector_baseISt6vectorIcSaIcEESaIS2_EE13_M_deallocateEPS2_m,comdat
	.align	2
	.weak	_ZNSt12_Vector_baseISt6vectorIcSaIcEESaIS2_EE13_M_deallocateEPS2_m
	.type	_ZNSt12_Vector_baseISt6vectorIcSaIcEESaIS2_EE13_M_deallocateEPS2_m, %function
_ZNSt12_Vector_baseISt6vectorIcSaIcEESaIS2_EE13_M_deallocateEPS2_m:
.LFB11135:
	.cfi_startproc
	stp	x29, x30, [sp, -48]!
	.cfi_def_cfa_offset 48
	.cfi_offset 29, -48
	.cfi_offset 30, -40
	mov	x29, sp
	str	x0, [sp, 40]
	str	x1, [sp, 32]
	str	x2, [sp, 24]
	ldr	x0, [sp, 32]
	cmp	x0, 0
	beq	.L165
	ldr	x0, [sp, 40]
	ldr	x2, [sp, 24]
	ldr	x1, [sp, 32]
	bl	_ZNSt16allocator_traitsISaISt6vectorIcSaIcEEEE10deallocateERS3_PS2_m
.L165:
	nop
	ldp	x29, x30, [sp], 48
	.cfi_restore 30
	.cfi_restore 29
	.cfi_def_cfa_offset 0
	ret
	.cfi_endproc
.LFE11135:
	.size	_ZNSt12_Vector_baseISt6vectorIcSaIcEESaIS2_EE13_M_deallocateEPS2_m, .-_ZNSt12_Vector_baseISt6vectorIcSaIcEESaIS2_EE13_M_deallocateEPS2_m
	.section	.text._ZSt24__uninitialized_fill_n_aIPSt6vectorIcSaIcEEmS2_S2_ET_S4_T0_RKT1_RSaIT2_E,"axG",@progbits,_ZSt24__uninitialized_fill_n_aIPSt6vectorIcSaIcEEmS2_S2_ET_S4_T0_RKT1_RSaIT2_E,comdat
	.align	2
	.weak	_ZSt24__uninitialized_fill_n_aIPSt6vectorIcSaIcEEmS2_S2_ET_S4_T0_RKT1_RSaIT2_E
	.type	_ZSt24__uninitialized_fill_n_aIPSt6vectorIcSaIcEEmS2_S2_ET_S4_T0_RKT1_RSaIT2_E, %function
_ZSt24__uninitialized_fill_n_aIPSt6vectorIcSaIcEEmS2_S2_ET_S4_T0_RKT1_RSaIT2_E:
.LFB11136:
	.cfi_startproc
	stp	x29, x30, [sp, -48]!
	.cfi_def_cfa_offset 48
	.cfi_offset 29, -48
	.cfi_offset 30, -40
	mov	x29, sp
	str	x0, [sp, 40]
	str	x1, [sp, 32]
	str	x2, [sp, 24]
	str	x3, [sp, 16]
	ldr	x2, [sp, 24]
	ldr	x1, [sp, 32]
	ldr	x0, [sp, 40]
	bl	_ZSt20uninitialized_fill_nIPSt6vectorIcSaIcEEmS2_ET_S4_T0_RKT1_
	ldp	x29, x30, [sp], 48
	.cfi_restore 30
	.cfi_restore 29
	.cfi_def_cfa_offset 0
	ret
	.cfi_endproc
.LFE11136:
	.size	_ZSt24__uninitialized_fill_n_aIPSt6vectorIcSaIcEEmS2_S2_ET_S4_T0_RKT1_RSaIT2_E, .-_ZSt24__uninitialized_fill_n_aIPSt6vectorIcSaIcEEmS2_S2_ET_S4_T0_RKT1_RSaIT2_E
	.section	.text._ZSt8_DestroyIPSt6vectorIcSaIcEEEvT_S4_,"axG",@progbits,_ZSt8_DestroyIPSt6vectorIcSaIcEEEvT_S4_,comdat
	.align	2
	.weak	_ZSt8_DestroyIPSt6vectorIcSaIcEEEvT_S4_
	.type	_ZSt8_DestroyIPSt6vectorIcSaIcEEEvT_S4_, %function
_ZSt8_DestroyIPSt6vectorIcSaIcEEEvT_S4_:
.LFB11137:
	.cfi_startproc
	stp	x29, x30, [sp, -32]!
	.cfi_def_cfa_offset 32
	.cfi_offset 29, -32
	.cfi_offset 30, -24
	mov	x29, sp
	str	x0, [sp, 24]
	str	x1, [sp, 16]
	ldr	x1, [sp, 16]
	ldr	x0, [sp, 24]
	bl	_ZNSt12_Destroy_auxILb0EE9__destroyIPSt6vectorIcSaIcEEEEvT_S6_
	nop
	ldp	x29, x30, [sp], 32
	.cfi_restore 30
	.cfi_restore 29
	.cfi_def_cfa_offset 0
	ret
	.cfi_endproc
.LFE11137:
	.size	_ZSt8_DestroyIPSt6vectorIcSaIcEEEvT_S4_, .-_ZSt8_DestroyIPSt6vectorIcSaIcEEEvT_S4_
	.section	.text._ZNSt12_Vector_baseIiSaIiEE12_Vector_implC2ERKS0_,"axG",@progbits,_ZNSt12_Vector_baseIiSaIiEE12_Vector_implC5ERKS0_,comdat
	.align	2
	.weak	_ZNSt12_Vector_baseIiSaIiEE12_Vector_implC2ERKS0_
	.type	_ZNSt12_Vector_baseIiSaIiEE12_Vector_implC2ERKS0_, %function
_ZNSt12_Vector_baseIiSaIiEE12_Vector_implC2ERKS0_:
.LFB11140:
	.cfi_startproc
	stp	x29, x30, [sp, -32]!
	.cfi_def_cfa_offset 32
	.cfi_offset 29, -32
	.cfi_offset 30, -24
	mov	x29, sp
	str	x0, [sp, 24]
	str	x1, [sp, 16]
	ldr	x1, [sp, 16]
	ldr	x0, [sp, 24]
	bl	_ZNSaIiEC2ERKS_
	ldr	x0, [sp, 24]
	bl	_ZNSt12_Vector_baseIiSaIiEE17_Vector_impl_dataC2Ev
	nop
	ldp	x29, x30, [sp], 32
	.cfi_restore 30
	.cfi_restore 29
	.cfi_def_cfa_offset 0
	ret
	.cfi_endproc
.LFE11140:
	.size	_ZNSt12_Vector_baseIiSaIiEE12_Vector_implC2ERKS0_, .-_ZNSt12_Vector_baseIiSaIiEE12_Vector_implC2ERKS0_
	.weak	_ZNSt12_Vector_baseIiSaIiEE12_Vector_implC1ERKS0_
	.set	_ZNSt12_Vector_baseIiSaIiEE12_Vector_implC1ERKS0_,_ZNSt12_Vector_baseIiSaIiEE12_Vector_implC2ERKS0_
	.section	.text._ZNSt12_Vector_baseIiSaIiEE13_M_deallocateEPim,"axG",@progbits,_ZNSt12_Vector_baseIiSaIiEE13_M_deallocateEPim,comdat
	.align	2
	.weak	_ZNSt12_Vector_baseIiSaIiEE13_M_deallocateEPim
	.type	_ZNSt12_Vector_baseIiSaIiEE13_M_deallocateEPim, %function
_ZNSt12_Vector_baseIiSaIiEE13_M_deallocateEPim:
.LFB11142:
	.cfi_startproc
	stp	x29, x30, [sp, -48]!
	.cfi_def_cfa_offset 48
	.cfi_offset 29, -48
	.cfi_offset 30, -40
	mov	x29, sp
	str	x0, [sp, 40]
	str	x1, [sp, 32]
	str	x2, [sp, 24]
	ldr	x0, [sp, 32]
	cmp	x0, 0
	beq	.L172
	ldr	x0, [sp, 40]
	ldr	x2, [sp, 24]
	ldr	x1, [sp, 32]
	bl	_ZNSt16allocator_traitsISaIiEE10deallocateERS0_Pim
.L172:
	nop
	ldp	x29, x30, [sp], 48
	.cfi_restore 30
	.cfi_restore 29
	.cfi_def_cfa_offset 0
	ret
	.cfi_endproc
.LFE11142:
	.size	_ZNSt12_Vector_baseIiSaIiEE13_M_deallocateEPim, .-_ZNSt12_Vector_baseIiSaIiEE13_M_deallocateEPim
	.section	.text._ZNKSt16initializer_listIiE4sizeEv,"axG",@progbits,_ZNKSt16initializer_listIiE4sizeEv,comdat
	.align	2
	.weak	_ZNKSt16initializer_listIiE4sizeEv
	.type	_ZNKSt16initializer_listIiE4sizeEv, %function
_ZNKSt16initializer_listIiE4sizeEv:
.LFB11143:
	.cfi_startproc
	sub	sp, sp, #16
	.cfi_def_cfa_offset 16
	str	x0, [sp, 8]
	ldr	x0, [sp, 8]
	ldr	x0, [x0, 8]
	add	sp, sp, 16
	.cfi_def_cfa_offset 0
	ret
	.cfi_endproc
.LFE11143:
	.size	_ZNKSt16initializer_listIiE4sizeEv, .-_ZNKSt16initializer_listIiE4sizeEv
	.section	.text._ZSt19__iterator_categoryIPKiENSt15iterator_traitsIT_E17iterator_categoryERKS3_,"axG",@progbits,_ZSt19__iterator_categoryIPKiENSt15iterator_traitsIT_E17iterator_categoryERKS3_,comdat
	.align	2
	.weak	_ZSt19__iterator_categoryIPKiENSt15iterator_traitsIT_E17iterator_categoryERKS3_
	.type	_ZSt19__iterator_categoryIPKiENSt15iterator_traitsIT_E17iterator_categoryERKS3_, %function
_ZSt19__iterator_categoryIPKiENSt15iterator_traitsIT_E17iterator_categoryERKS3_:
.LFB11144:
	.cfi_startproc
	sub	sp, sp, #16
	.cfi_def_cfa_offset 16
	str	x0, [sp, 8]
	mov	w0, w1
	add	sp, sp, 16
	.cfi_def_cfa_offset 0
	ret
	.cfi_endproc
.LFE11144:
	.size	_ZSt19__iterator_categoryIPKiENSt15iterator_traitsIT_E17iterator_categoryERKS3_, .-_ZSt19__iterator_categoryIPKiENSt15iterator_traitsIT_E17iterator_categoryERKS3_
	.section	.text._ZSt10__distanceIPKiENSt15iterator_traitsIT_E15difference_typeES3_S3_St26random_access_iterator_tag,"axG",@progbits,_ZSt10__distanceIPKiENSt15iterator_traitsIT_E15difference_typeES3_S3_St26random_access_iterator_tag,comdat
	.align	2
	.weak	_ZSt10__distanceIPKiENSt15iterator_traitsIT_E15difference_typeES3_S3_St26random_access_iterator_tag
	.type	_ZSt10__distanceIPKiENSt15iterator_traitsIT_E15difference_typeES3_S3_St26random_access_iterator_tag, %function
_ZSt10__distanceIPKiENSt15iterator_traitsIT_E15difference_typeES3_S3_St26random_access_iterator_tag:
.LFB11145:
	.cfi_startproc
	sub	sp, sp, #32
	.cfi_def_cfa_offset 32
	str	x0, [sp, 24]
	str	x1, [sp, 16]
	strb	w2, [sp, 8]
	ldr	x1, [sp, 16]
	ldr	x0, [sp, 24]
	sub	x0, x1, x0
	asr	x0, x0, 2
	add	sp, sp, 32
	.cfi_def_cfa_offset 0
	ret
	.cfi_endproc
.LFE11145:
	.size	_ZSt10__distanceIPKiENSt15iterator_traitsIT_E15difference_typeES3_S3_St26random_access_iterator_tag, .-_ZSt10__distanceIPKiENSt15iterator_traitsIT_E15difference_typeES3_S3_St26random_access_iterator_tag
	.section	.text._ZNSt6vectorIiSaIiEE17_S_check_init_lenEmRKS0_,"axG",@progbits,_ZNSt6vectorIiSaIiEE17_S_check_init_lenEmRKS0_,comdat
	.align	2
	.weak	_ZNSt6vectorIiSaIiEE17_S_check_init_lenEmRKS0_
	.type	_ZNSt6vectorIiSaIiEE17_S_check_init_lenEmRKS0_, %function
_ZNSt6vectorIiSaIiEE17_S_check_init_lenEmRKS0_:
.LFB11146:
	.cfi_startproc
	stp	x29, x30, [sp, -64]!
	.cfi_def_cfa_offset 64
	.cfi_offset 29, -64
	.cfi_offset 30, -56
	mov	x29, sp
	str	x19, [sp, 16]
	.cfi_offset 19, -48
	str	x0, [sp, 40]
	str	x1, [sp, 32]
	add	x0, sp, 56
	ldr	x1, [sp, 32]
	bl	_ZNSaIiEC1ERKS_
	add	x0, sp, 56
	bl	_ZNSt6vectorIiSaIiEE11_S_max_sizeERKS0_
	mov	x1, x0
	ldr	x0, [sp, 40]
	cmp	x0, x1
	cset	w0, hi
	and	w19, w0, 255
	add	x0, sp, 56
	bl	_ZNSaIiED1Ev
	cmp	w19, 0
	beq	.L180
	adrp	x0, .LC0
	add	x0, x0, :lo12:.LC0
	bl	_ZSt20__throw_length_errorPKc
.L180:
	ldr	x0, [sp, 40]
	ldr	x19, [sp, 16]
	ldp	x29, x30, [sp], 64
	.cfi_restore 30
	.cfi_restore 29
	.cfi_restore 19
	.cfi_def_cfa_offset 0
	ret
	.cfi_endproc
.LFE11146:
	.size	_ZNSt6vectorIiSaIiEE17_S_check_init_lenEmRKS0_, .-_ZNSt6vectorIiSaIiEE17_S_check_init_lenEmRKS0_
	.section	.text._ZNSt12_Vector_baseIiSaIiEE11_M_allocateEm,"axG",@progbits,_ZNSt12_Vector_baseIiSaIiEE11_M_allocateEm,comdat
	.align	2
	.weak	_ZNSt12_Vector_baseIiSaIiEE11_M_allocateEm
	.type	_ZNSt12_Vector_baseIiSaIiEE11_M_allocateEm, %function
_ZNSt12_Vector_baseIiSaIiEE11_M_allocateEm:
.LFB11147:
	.cfi_startproc
	stp	x29, x30, [sp, -32]!
	.cfi_def_cfa_offset 32
	.cfi_offset 29, -32
	.cfi_offset 30, -24
	mov	x29, sp
	str	x0, [sp, 24]
	str	x1, [sp, 16]
	ldr	x0, [sp, 16]
	cmp	x0, 0
	beq	.L183
	ldr	x0, [sp, 24]
	ldr	x1, [sp, 16]
	bl	_ZNSt16allocator_traitsISaIiEE8allocateERS0_m
	b	.L185
.L183:
	mov	x0, 0
.L185:
	ldp	x29, x30, [sp], 32
	.cfi_restore 30
	.cfi_restore 29
	.cfi_def_cfa_offset 0
	ret
	.cfi_endproc
.LFE11147:
	.size	_ZNSt12_Vector_baseIiSaIiEE11_M_allocateEm, .-_ZNSt12_Vector_baseIiSaIiEE11_M_allocateEm
	.section	.text._ZSt22__uninitialized_copy_aIPKiPiiET0_T_S4_S3_RSaIT1_E,"axG",@progbits,_ZSt22__uninitialized_copy_aIPKiPiiET0_T_S4_S3_RSaIT1_E,comdat
	.align	2
	.weak	_ZSt22__uninitialized_copy_aIPKiPiiET0_T_S4_S3_RSaIT1_E
	.type	_ZSt22__uninitialized_copy_aIPKiPiiET0_T_S4_S3_RSaIT1_E, %function
_ZSt22__uninitialized_copy_aIPKiPiiET0_T_S4_S3_RSaIT1_E:
.LFB11148:
	.cfi_startproc
	stp	x29, x30, [sp, -48]!
	.cfi_def_cfa_offset 48
	.cfi_offset 29, -48
	.cfi_offset 30, -40
	mov	x29, sp
	str	x0, [sp, 40]
	str	x1, [sp, 32]
	str	x2, [sp, 24]
	str	x3, [sp, 16]
	ldr	x2, [sp, 24]
	ldr	x1, [sp, 32]
	ldr	x0, [sp, 40]
	bl	_ZSt18uninitialized_copyIPKiPiET0_T_S4_S3_
	ldp	x29, x30, [sp], 48
	.cfi_restore 30
	.cfi_restore 29
	.cfi_def_cfa_offset 0
	ret
	.cfi_endproc
.LFE11148:
	.size	_ZSt22__uninitialized_copy_aIPKiPiiET0_T_S4_S3_RSaIT1_E, .-_ZSt22__uninitialized_copy_aIPKiPiiET0_T_S4_S3_RSaIT1_E
	.section	.text._ZSt8_DestroyIPiEvT_S1_,"axG",@progbits,_ZSt8_DestroyIPiEvT_S1_,comdat
	.align	2
	.weak	_ZSt8_DestroyIPiEvT_S1_
	.type	_ZSt8_DestroyIPiEvT_S1_, %function
_ZSt8_DestroyIPiEvT_S1_:
.LFB11149:
	.cfi_startproc
	stp	x29, x30, [sp, -32]!
	.cfi_def_cfa_offset 32
	.cfi_offset 29, -32
	.cfi_offset 30, -24
	mov	x29, sp
	str	x0, [sp, 24]
	str	x1, [sp, 16]
	ldr	x1, [sp, 16]
	ldr	x0, [sp, 24]
	bl	_ZNSt12_Destroy_auxILb1EE9__destroyIPiEEvT_S3_
	nop
	ldp	x29, x30, [sp], 32
	.cfi_restore 30
	.cfi_restore 29
	.cfi_def_cfa_offset 0
	ret
	.cfi_endproc
.LFE11149:
	.size	_ZSt8_DestroyIPiEvT_S1_, .-_ZSt8_DestroyIPiEvT_S1_
	.section	.text._ZN9__gnu_cxx13new_allocatorISt13_Rb_tree_nodeIcEEC2Ev,"axG",@progbits,_ZN9__gnu_cxx13new_allocatorISt13_Rb_tree_nodeIcEEC5Ev,comdat
	.align	2
	.weak	_ZN9__gnu_cxx13new_allocatorISt13_Rb_tree_nodeIcEEC2Ev
	.type	_ZN9__gnu_cxx13new_allocatorISt13_Rb_tree_nodeIcEEC2Ev, %function
_ZN9__gnu_cxx13new_allocatorISt13_Rb_tree_nodeIcEEC2Ev:
.LFB11152:
	.cfi_startproc
	sub	sp, sp, #16
	.cfi_def_cfa_offset 16
	str	x0, [sp, 8]
	nop
	add	sp, sp, 16
	.cfi_def_cfa_offset 0
	ret
	.cfi_endproc
.LFE11152:
	.size	_ZN9__gnu_cxx13new_allocatorISt13_Rb_tree_nodeIcEEC2Ev, .-_ZN9__gnu_cxx13new_allocatorISt13_Rb_tree_nodeIcEEC2Ev
	.weak	_ZN9__gnu_cxx13new_allocatorISt13_Rb_tree_nodeIcEEC1Ev
	.set	_ZN9__gnu_cxx13new_allocatorISt13_Rb_tree_nodeIcEEC1Ev,_ZN9__gnu_cxx13new_allocatorISt13_Rb_tree_nodeIcEEC2Ev
	.section	.text._ZNSt8_Rb_treeIccSt9_IdentityIcESt4lessIcESaIcEE8_S_rightEPSt18_Rb_tree_node_base,"axG",@progbits,_ZNSt8_Rb_treeIccSt9_IdentityIcESt4lessIcESaIcEE8_S_rightEPSt18_Rb_tree_node_base,comdat
	.align	2
	.weak	_ZNSt8_Rb_treeIccSt9_IdentityIcESt4lessIcESaIcEE8_S_rightEPSt18_Rb_tree_node_base
	.type	_ZNSt8_Rb_treeIccSt9_IdentityIcESt4lessIcESaIcEE8_S_rightEPSt18_Rb_tree_node_base, %function
_ZNSt8_Rb_treeIccSt9_IdentityIcESt4lessIcESaIcEE8_S_rightEPSt18_Rb_tree_node_base:
.LFB11154:
	.cfi_startproc
	sub	sp, sp, #16
	.cfi_def_cfa_offset 16
	str	x0, [sp, 8]
	ldr	x0, [sp, 8]
	ldr	x0, [x0, 24]
	add	sp, sp, 16
	.cfi_def_cfa_offset 0
	ret
	.cfi_endproc
.LFE11154:
	.size	_ZNSt8_Rb_treeIccSt9_IdentityIcESt4lessIcESaIcEE8_S_rightEPSt18_Rb_tree_node_base, .-_ZNSt8_Rb_treeIccSt9_IdentityIcESt4lessIcESaIcEE8_S_rightEPSt18_Rb_tree_node_base
	.section	.text._ZNSt8_Rb_treeIccSt9_IdentityIcESt4lessIcESaIcEE7_S_leftEPSt18_Rb_tree_node_base,"axG",@progbits,_ZNSt8_Rb_treeIccSt9_IdentityIcESt4lessIcESaIcEE7_S_leftEPSt18_Rb_tree_node_base,comdat
	.align	2
	.weak	_ZNSt8_Rb_treeIccSt9_IdentityIcESt4lessIcESaIcEE7_S_leftEPSt18_Rb_tree_node_base
	.type	_ZNSt8_Rb_treeIccSt9_IdentityIcESt4lessIcESaIcEE7_S_leftEPSt18_Rb_tree_node_base, %function
_ZNSt8_Rb_treeIccSt9_IdentityIcESt4lessIcESaIcEE7_S_leftEPSt18_Rb_tree_node_base:
.LFB11155:
	.cfi_startproc
	sub	sp, sp, #16
	.cfi_def_cfa_offset 16
	str	x0, [sp, 8]
	ldr	x0, [sp, 8]
	ldr	x0, [x0, 16]
	add	sp, sp, 16
	.cfi_def_cfa_offset 0
	ret
	.cfi_endproc
.LFE11155:
	.size	_ZNSt8_Rb_treeIccSt9_IdentityIcESt4lessIcESaIcEE7_S_leftEPSt18_Rb_tree_node_base, .-_ZNSt8_Rb_treeIccSt9_IdentityIcESt4lessIcESaIcEE7_S_leftEPSt18_Rb_tree_node_base
	.section	.text._ZNSt8_Rb_treeIccSt9_IdentityIcESt4lessIcESaIcEE12_M_drop_nodeEPSt13_Rb_tree_nodeIcE,"axG",@progbits,_ZNSt8_Rb_treeIccSt9_IdentityIcESt4lessIcESaIcEE12_M_drop_nodeEPSt13_Rb_tree_nodeIcE,comdat
	.align	2
	.weak	_ZNSt8_Rb_treeIccSt9_IdentityIcESt4lessIcESaIcEE12_M_drop_nodeEPSt13_Rb_tree_nodeIcE
	.type	_ZNSt8_Rb_treeIccSt9_IdentityIcESt4lessIcESaIcEE12_M_drop_nodeEPSt13_Rb_tree_nodeIcE, %function
_ZNSt8_Rb_treeIccSt9_IdentityIcESt4lessIcESaIcEE12_M_drop_nodeEPSt13_Rb_tree_nodeIcE:
.LFB11156:
	.cfi_startproc
	stp	x29, x30, [sp, -32]!
	.cfi_def_cfa_offset 32
	.cfi_offset 29, -32
	.cfi_offset 30, -24
	mov	x29, sp
	str	x0, [sp, 24]
	str	x1, [sp, 16]
	ldr	x1, [sp, 16]
	ldr	x0, [sp, 24]
	bl	_ZNSt8_Rb_treeIccSt9_IdentityIcESt4lessIcESaIcEE15_M_destroy_nodeEPSt13_Rb_tree_nodeIcE
	ldr	x1, [sp, 16]
	ldr	x0, [sp, 24]
	bl	_ZNSt8_Rb_treeIccSt9_IdentityIcESt4lessIcESaIcEE11_M_put_nodeEPSt13_Rb_tree_nodeIcE
	nop
	ldp	x29, x30, [sp], 32
	.cfi_restore 30
	.cfi_restore 29
	.cfi_def_cfa_offset 0
	ret
	.cfi_endproc
.LFE11156:
	.size	_ZNSt8_Rb_treeIccSt9_IdentityIcESt4lessIcESaIcEE12_M_drop_nodeEPSt13_Rb_tree_nodeIcE, .-_ZNSt8_Rb_treeIccSt9_IdentityIcESt4lessIcESaIcEE12_M_drop_nodeEPSt13_Rb_tree_nodeIcE
	.section	.text._ZNKSt8_Rb_treeIccSt9_IdentityIcESt4lessIcESaIcEE9_M_mbeginEv,"axG",@progbits,_ZNKSt8_Rb_treeIccSt9_IdentityIcESt4lessIcESaIcEE9_M_mbeginEv,comdat
	.align	2
	.weak	_ZNKSt8_Rb_treeIccSt9_IdentityIcESt4lessIcESaIcEE9_M_mbeginEv
	.type	_ZNKSt8_Rb_treeIccSt9_IdentityIcESt4lessIcESaIcEE9_M_mbeginEv, %function
_ZNKSt8_Rb_treeIccSt9_IdentityIcESt4lessIcESaIcEE9_M_mbeginEv:
.LFB11157:
	.cfi_startproc
	sub	sp, sp, #16
	.cfi_def_cfa_offset 16
	str	x0, [sp, 8]
	ldr	x0, [sp, 8]
	ldr	x0, [x0, 16]
	add	sp, sp, 16
	.cfi_def_cfa_offset 0
	ret
	.cfi_endproc
.LFE11157:
	.size	_ZNKSt8_Rb_treeIccSt9_IdentityIcESt4lessIcESaIcEE9_M_mbeginEv, .-_ZNKSt8_Rb_treeIccSt9_IdentityIcESt4lessIcESaIcEE9_M_mbeginEv
	.section	.text._ZNSt8_Rb_treeIccSt9_IdentityIcESt4lessIcESaIcEE24_M_get_insert_unique_posERKc,"axG",@progbits,_ZNSt8_Rb_treeIccSt9_IdentityIcESt4lessIcESaIcEE24_M_get_insert_unique_posERKc,comdat
	.align	2
	.weak	_ZNSt8_Rb_treeIccSt9_IdentityIcESt4lessIcESaIcEE24_M_get_insert_unique_posERKc
	.type	_ZNSt8_Rb_treeIccSt9_IdentityIcESt4lessIcESaIcEE24_M_get_insert_unique_posERKc, %function
_ZNSt8_Rb_treeIccSt9_IdentityIcESt4lessIcESaIcEE24_M_get_insert_unique_posERKc:
.LFB11158:
	.cfi_startproc
	stp	x29, x30, [sp, -144]!
	.cfi_def_cfa_offset 144
	.cfi_offset 29, -144
	.cfi_offset 30, -136
	mov	x29, sp
	str	x19, [sp, 16]
	.cfi_offset 19, -128
	str	x0, [sp, 40]
	str	x1, [sp, 32]
	ldr	x0, [sp, 40]
	bl	_ZNSt8_Rb_treeIccSt9_IdentityIcESt4lessIcESaIcEE8_M_beginEv
	str	x0, [sp, 64]
	ldr	x0, [sp, 40]
	bl	_ZNSt8_Rb_treeIccSt9_IdentityIcESt4lessIcESaIcEE6_M_endEv
	str	x0, [sp, 56]
	mov	w0, 1
	strb	w0, [sp, 143]
	b	.L198
.L201:
	ldr	x0, [sp, 64]
	str	x0, [sp, 56]
	ldr	x19, [sp, 40]
	ldr	x0, [sp, 64]
	bl	_ZNSt8_Rb_treeIccSt9_IdentityIcESt4lessIcESaIcEE6_S_keyEPKSt13_Rb_tree_nodeIcE
	mov	x2, x0
	ldr	x1, [sp, 32]
	mov	x0, x19
	bl	_ZNKSt4lessIcEclERKcS2_
	strb	w0, [sp, 143]
	ldrb	w0, [sp, 143]
	cmp	w0, 0
	beq	.L199
	ldr	x0, [sp, 64]
	bl	_ZNSt8_Rb_treeIccSt9_IdentityIcESt4lessIcESaIcEE7_S_leftEPSt18_Rb_tree_node_base
	b	.L200
.L199:
	ldr	x0, [sp, 64]
	bl	_ZNSt8_Rb_treeIccSt9_IdentityIcESt4lessIcESaIcEE8_S_rightEPSt18_Rb_tree_node_base
.L200:
	str	x0, [sp, 64]
.L198:
	ldr	x0, [sp, 64]
	cmp	x0, 0
	bne	.L201
	ldr	x1, [sp, 56]
	add	x0, sp, 48
	bl	_ZNSt17_Rb_tree_iteratorIcEC1EPSt18_Rb_tree_node_base
	ldrb	w0, [sp, 143]
	cmp	w0, 0
	beq	.L202
	ldr	x0, [sp, 40]
	bl	_ZNSt8_Rb_treeIccSt9_IdentityIcESt4lessIcESaIcEE5beginEv
	str	x0, [sp, 72]
	add	x1, sp, 72
	add	x0, sp, 48
	bl	_ZSteqRKSt17_Rb_tree_iteratorIcES2_
	and	w0, w0, 255
	cmp	w0, 0
	beq	.L203
	add	x2, sp, 56
	add	x1, sp, 64
	add	x0, sp, 80
	bl	_ZNSt4pairIPSt18_Rb_tree_node_baseS1_EC1IRPSt13_Rb_tree_nodeIcERS1_Lb1EEEOT_OT0_
	ldp	x0, x1, [sp, 80]
	b	.L206
.L203:
	add	x0, sp, 48
	bl	_ZNSt17_Rb_tree_iteratorIcEmmEv
.L202:
	ldr	x19, [sp, 40]
	ldr	x0, [sp, 48]
	bl	_ZNSt8_Rb_treeIccSt9_IdentityIcESt4lessIcESaIcEE6_S_keyEPKSt18_Rb_tree_node_base
	ldr	x2, [sp, 32]
	mov	x1, x0
	mov	x0, x19
	bl	_ZNKSt4lessIcEclERKcS2_
	and	w0, w0, 255
	cmp	w0, 0
	beq	.L205
	add	x2, sp, 56
	add	x1, sp, 64
	add	x0, sp, 96
	bl	_ZNSt4pairIPSt18_Rb_tree_node_baseS1_EC1IRPSt13_Rb_tree_nodeIcERS1_Lb1EEEOT_OT0_
	ldp	x0, x1, [sp, 96]
	b	.L206
.L205:
	str	xzr, [sp, 128]
	add	x2, sp, 128
	add	x1, sp, 48
	add	x0, sp, 112
	bl	_ZNSt4pairIPSt18_Rb_tree_node_baseS1_EC1IRS1_Lb1EEEOT_RKS1_
	ldp	x0, x1, [sp, 112]
.L206:
	ldr	x19, [sp, 16]
	ldp	x29, x30, [sp], 144
	.cfi_restore 30
	.cfi_restore 29
	.cfi_restore 19
	.cfi_def_cfa_offset 0
	ret
	.cfi_endproc
.LFE11158:
	.size	_ZNSt8_Rb_treeIccSt9_IdentityIcESt4lessIcESaIcEE24_M_get_insert_unique_posERKc, .-_ZNSt8_Rb_treeIccSt9_IdentityIcESt4lessIcESaIcEE24_M_get_insert_unique_posERKc
	.section	.text._ZNKSt9_IdentityIcEclERKc,"axG",@progbits,_ZNKSt9_IdentityIcEclERKc,comdat
	.align	2
	.weak	_ZNKSt9_IdentityIcEclERKc
	.type	_ZNKSt9_IdentityIcEclERKc, %function
_ZNKSt9_IdentityIcEclERKc:
.LFB11173:
	.cfi_startproc
	sub	sp, sp, #16
	.cfi_def_cfa_offset 16
	str	x0, [sp, 8]
	str	x1, [sp]
	ldr	x0, [sp]
	add	sp, sp, 16
	.cfi_def_cfa_offset 0
	ret
	.cfi_endproc
.LFE11173:
	.size	_ZNKSt9_IdentityIcEclERKc, .-_ZNKSt9_IdentityIcEclERKc
	.section	.text._ZNSt8_Rb_treeIccSt9_IdentityIcESt4lessIcESaIcEE11_Alloc_nodeC2ERS5_,"axG",@progbits,_ZNSt8_Rb_treeIccSt9_IdentityIcESt4lessIcESaIcEE11_Alloc_nodeC5ERS5_,comdat
	.align	2
	.weak	_ZNSt8_Rb_treeIccSt9_IdentityIcESt4lessIcESaIcEE11_Alloc_nodeC2ERS5_
	.type	_ZNSt8_Rb_treeIccSt9_IdentityIcESt4lessIcESaIcEE11_Alloc_nodeC2ERS5_, %function
_ZNSt8_Rb_treeIccSt9_IdentityIcESt4lessIcESaIcEE11_Alloc_nodeC2ERS5_:
.LFB11175:
	.cfi_startproc
	sub	sp, sp, #16
	.cfi_def_cfa_offset 16
	str	x0, [sp, 8]
	str	x1, [sp]
	ldr	x0, [sp, 8]
	ldr	x1, [sp]
	str	x1, [x0]
	nop
	add	sp, sp, 16
	.cfi_def_cfa_offset 0
	ret
	.cfi_endproc
.LFE11175:
	.size	_ZNSt8_Rb_treeIccSt9_IdentityIcESt4lessIcESaIcEE11_Alloc_nodeC2ERS5_, .-_ZNSt8_Rb_treeIccSt9_IdentityIcESt4lessIcESaIcEE11_Alloc_nodeC2ERS5_
	.weak	_ZNSt8_Rb_treeIccSt9_IdentityIcESt4lessIcESaIcEE11_Alloc_nodeC1ERS5_
	.set	_ZNSt8_Rb_treeIccSt9_IdentityIcESt4lessIcESaIcEE11_Alloc_nodeC1ERS5_,_ZNSt8_Rb_treeIccSt9_IdentityIcESt4lessIcESaIcEE11_Alloc_nodeC2ERS5_
	.section	.text._ZSt7forwardIRKcEOT_RNSt16remove_referenceIS2_E4typeE,"axG",@progbits,_ZSt7forwardIRKcEOT_RNSt16remove_referenceIS2_E4typeE,comdat
	.align	2
	.weak	_ZSt7forwardIRKcEOT_RNSt16remove_referenceIS2_E4typeE
	.type	_ZSt7forwardIRKcEOT_RNSt16remove_referenceIS2_E4typeE, %function
_ZSt7forwardIRKcEOT_RNSt16remove_referenceIS2_E4typeE:
.LFB11177:
	.cfi_startproc
	sub	sp, sp, #16
	.cfi_def_cfa_offset 16
	str	x0, [sp, 8]
	ldr	x0, [sp, 8]
	add	sp, sp, 16
	.cfi_def_cfa_offset 0
	ret
	.cfi_endproc
.LFE11177:
	.size	_ZSt7forwardIRKcEOT_RNSt16remove_referenceIS2_E4typeE, .-_ZSt7forwardIRKcEOT_RNSt16remove_referenceIS2_E4typeE
	.section	.text._ZNSt8_Rb_treeIccSt9_IdentityIcESt4lessIcESaIcEE10_M_insert_IRKcNS5_11_Alloc_nodeEEESt17_Rb_tree_iteratorIcEPSt18_Rb_tree_node_baseSD_OT_RT0_,"axG",@progbits,_ZNSt8_Rb_treeIccSt9_IdentityIcESt4lessIcESaIcEE10_M_insert_IRKcNS5_11_Alloc_nodeEEESt17_Rb_tree_iteratorIcEPSt18_Rb_tree_node_baseSD_OT_RT0_,comdat
	.align	2
	.weak	_ZNSt8_Rb_treeIccSt9_IdentityIcESt4lessIcESaIcEE10_M_insert_IRKcNS5_11_Alloc_nodeEEESt17_Rb_tree_iteratorIcEPSt18_Rb_tree_node_baseSD_OT_RT0_
	.type	_ZNSt8_Rb_treeIccSt9_IdentityIcESt4lessIcESaIcEE10_M_insert_IRKcNS5_11_Alloc_nodeEEESt17_Rb_tree_iteratorIcEPSt18_Rb_tree_node_baseSD_OT_RT0_, %function
_ZNSt8_Rb_treeIccSt9_IdentityIcESt4lessIcESaIcEE10_M_insert_IRKcNS5_11_Alloc_nodeEEESt17_Rb_tree_iteratorIcEPSt18_Rb_tree_node_baseSD_OT_RT0_:
.LFB11178:
	.cfi_startproc
	stp	x29, x30, [sp, -112]!
	.cfi_def_cfa_offset 112
	.cfi_offset 29, -112
	.cfi_offset 30, -104
	mov	x29, sp
	stp	x19, x20, [sp, 16]
	.cfi_offset 19, -96
	.cfi_offset 20, -88
	str	x0, [sp, 72]
	str	x1, [sp, 64]
	str	x2, [sp, 56]
	str	x3, [sp, 48]
	str	x4, [sp, 40]
	ldr	x0, [sp, 64]
	cmp	x0, 0
	bne	.L213
	ldr	x0, [sp, 72]
	bl	_ZNSt8_Rb_treeIccSt9_IdentityIcESt4lessIcESaIcEE6_M_endEv
	mov	x1, x0
	ldr	x0, [sp, 56]
	cmp	x0, x1
	beq	.L213
	ldr	x19, [sp, 72]
	add	x0, sp, 80
	ldr	x1, [sp, 48]
	bl	_ZNKSt9_IdentityIcEclERKc
	mov	x20, x0
	ldr	x0, [sp, 56]
	bl	_ZNSt8_Rb_treeIccSt9_IdentityIcESt4lessIcESaIcEE6_S_keyEPKSt18_Rb_tree_node_base
	mov	x2, x0
	mov	x1, x20
	mov	x0, x19
	bl	_ZNKSt4lessIcEclERKcS2_
	and	w0, w0, 255
	cmp	w0, 0
	beq	.L214
.L213:
	mov	w0, 1
	b	.L215
.L214:
	mov	w0, 0
.L215:
	strb	w0, [sp, 111]
	ldr	x0, [sp, 48]
	bl	_ZSt7forwardIRKcEOT_RNSt16remove_referenceIS2_E4typeE
	mov	x1, x0
	ldr	x0, [sp, 40]
	bl	_ZNKSt8_Rb_treeIccSt9_IdentityIcESt4lessIcESaIcEE11_Alloc_nodeclIRKcEEPSt13_Rb_tree_nodeIcEOT_
	str	x0, [sp, 96]
	ldr	x0, [sp, 72]
	add	x0, x0, 8
	mov	x3, x0
	ldr	x2, [sp, 56]
	ldr	x1, [sp, 96]
	ldrb	w0, [sp, 111]
	bl	_ZSt29_Rb_tree_insert_and_rebalancebPSt18_Rb_tree_node_baseS0_RS_
	ldr	x0, [sp, 72]
	ldr	x0, [x0, 40]
	add	x1, x0, 1
	ldr	x0, [sp, 72]
	str	x1, [x0, 40]
	add	x0, sp, 88
	ldr	x1, [sp, 96]
	bl	_ZNSt17_Rb_tree_iteratorIcEC1EPSt18_Rb_tree_node_base
	ldr	x0, [sp, 88]
	ldp	x19, x20, [sp, 16]
	ldp	x29, x30, [sp], 112
	.cfi_restore 30
	.cfi_restore 29
	.cfi_restore 19
	.cfi_restore 20
	.cfi_def_cfa_offset 0
	ret
	.cfi_endproc
.LFE11178:
	.size	_ZNSt8_Rb_treeIccSt9_IdentityIcESt4lessIcESaIcEE10_M_insert_IRKcNS5_11_Alloc_nodeEEESt17_Rb_tree_iteratorIcEPSt18_Rb_tree_node_baseSD_OT_RT0_, .-_ZNSt8_Rb_treeIccSt9_IdentityIcESt4lessIcESaIcEE10_M_insert_IRKcNS5_11_Alloc_nodeEEESt17_Rb_tree_iteratorIcEPSt18_Rb_tree_node_baseSD_OT_RT0_
	.section	.text._ZNSt4pairISt17_Rb_tree_iteratorIcEbEC2IS1_bLb1EEEOT_OT0_,"axG",@progbits,_ZNSt4pairISt17_Rb_tree_iteratorIcEbEC5IS1_bLb1EEEOT_OT0_,comdat
	.align	2
	.weak	_ZNSt4pairISt17_Rb_tree_iteratorIcEbEC2IS1_bLb1EEEOT_OT0_
	.type	_ZNSt4pairISt17_Rb_tree_iteratorIcEbEC2IS1_bLb1EEEOT_OT0_, %function
_ZNSt4pairISt17_Rb_tree_iteratorIcEbEC2IS1_bLb1EEEOT_OT0_:
.LFB11180:
	.cfi_startproc
	stp	x29, x30, [sp, -48]!
	.cfi_def_cfa_offset 48
	.cfi_offset 29, -48
	.cfi_offset 30, -40
	mov	x29, sp
	str	x0, [sp, 40]
	str	x1, [sp, 32]
	str	x2, [sp, 24]
	ldr	x0, [sp, 32]
	bl	_ZSt7forwardISt17_Rb_tree_iteratorIcEEOT_RNSt16remove_referenceIS2_E4typeE
	mov	x1, x0
	ldr	x0, [sp, 40]
	ldr	x1, [x1]
	str	x1, [x0]
	ldr	x0, [sp, 24]
	bl	_ZSt7forwardIbEOT_RNSt16remove_referenceIS0_E4typeE
	ldrb	w1, [x0]
	ldr	x0, [sp, 40]
	strb	w1, [x0, 8]
	nop
	ldp	x29, x30, [sp], 48
	.cfi_restore 30
	.cfi_restore 29
	.cfi_def_cfa_offset 0
	ret
	.cfi_endproc
.LFE11180:
	.size	_ZNSt4pairISt17_Rb_tree_iteratorIcEbEC2IS1_bLb1EEEOT_OT0_, .-_ZNSt4pairISt17_Rb_tree_iteratorIcEbEC2IS1_bLb1EEEOT_OT0_
	.weak	_ZNSt4pairISt17_Rb_tree_iteratorIcEbEC1IS1_bLb1EEEOT_OT0_
	.set	_ZNSt4pairISt17_Rb_tree_iteratorIcEbEC1IS1_bLb1EEEOT_OT0_,_ZNSt4pairISt17_Rb_tree_iteratorIcEbEC2IS1_bLb1EEEOT_OT0_
	.section	.text._ZNSt17_Rb_tree_iteratorIcEC2EPSt18_Rb_tree_node_base,"axG",@progbits,_ZNSt17_Rb_tree_iteratorIcEC5EPSt18_Rb_tree_node_base,comdat
	.align	2
	.weak	_ZNSt17_Rb_tree_iteratorIcEC2EPSt18_Rb_tree_node_base
	.type	_ZNSt17_Rb_tree_iteratorIcEC2EPSt18_Rb_tree_node_base, %function
_ZNSt17_Rb_tree_iteratorIcEC2EPSt18_Rb_tree_node_base:
.LFB11183:
	.cfi_startproc
	sub	sp, sp, #16
	.cfi_def_cfa_offset 16
	str	x0, [sp, 8]
	str	x1, [sp]
	ldr	x0, [sp, 8]
	ldr	x1, [sp]
	str	x1, [x0]
	nop
	add	sp, sp, 16
	.cfi_def_cfa_offset 0
	ret
	.cfi_endproc
.LFE11183:
	.size	_ZNSt17_Rb_tree_iteratorIcEC2EPSt18_Rb_tree_node_base, .-_ZNSt17_Rb_tree_iteratorIcEC2EPSt18_Rb_tree_node_base
	.weak	_ZNSt17_Rb_tree_iteratorIcEC1EPSt18_Rb_tree_node_base
	.set	_ZNSt17_Rb_tree_iteratorIcEC1EPSt18_Rb_tree_node_base,_ZNSt17_Rb_tree_iteratorIcEC2EPSt18_Rb_tree_node_base
	.section	.text._ZSt7forwardIRSt17_Rb_tree_iteratorIcEEOT_RNSt16remove_referenceIS3_E4typeE,"axG",@progbits,_ZSt7forwardIRSt17_Rb_tree_iteratorIcEEOT_RNSt16remove_referenceIS3_E4typeE,comdat
	.align	2
	.weak	_ZSt7forwardIRSt17_Rb_tree_iteratorIcEEOT_RNSt16remove_referenceIS3_E4typeE
	.type	_ZSt7forwardIRSt17_Rb_tree_iteratorIcEEOT_RNSt16remove_referenceIS3_E4typeE, %function
_ZSt7forwardIRSt17_Rb_tree_iteratorIcEEOT_RNSt16remove_referenceIS3_E4typeE:
.LFB11185:
	.cfi_startproc
	sub	sp, sp, #16
	.cfi_def_cfa_offset 16
	str	x0, [sp, 8]
	ldr	x0, [sp, 8]
	add	sp, sp, 16
	.cfi_def_cfa_offset 0
	ret
	.cfi_endproc
.LFE11185:
	.size	_ZSt7forwardIRSt17_Rb_tree_iteratorIcEEOT_RNSt16remove_referenceIS3_E4typeE, .-_ZSt7forwardIRSt17_Rb_tree_iteratorIcEEOT_RNSt16remove_referenceIS3_E4typeE
	.section	.text._ZSt7forwardIRbEOT_RNSt16remove_referenceIS1_E4typeE,"axG",@progbits,_ZSt7forwardIRbEOT_RNSt16remove_referenceIS1_E4typeE,comdat
	.align	2
	.weak	_ZSt7forwardIRbEOT_RNSt16remove_referenceIS1_E4typeE
	.type	_ZSt7forwardIRbEOT_RNSt16remove_referenceIS1_E4typeE, %function
_ZSt7forwardIRbEOT_RNSt16remove_referenceIS1_E4typeE:
.LFB11186:
	.cfi_startproc
	sub	sp, sp, #16
	.cfi_def_cfa_offset 16
	str	x0, [sp, 8]
	ldr	x0, [sp, 8]
	add	sp, sp, 16
	.cfi_def_cfa_offset 0
	ret
	.cfi_endproc
.LFE11186:
	.size	_ZSt7forwardIRbEOT_RNSt16remove_referenceIS1_E4typeE, .-_ZSt7forwardIRbEOT_RNSt16remove_referenceIS1_E4typeE
	.section	.text._ZNSt23_Rb_tree_const_iteratorIcEC2ERKSt17_Rb_tree_iteratorIcE,"axG",@progbits,_ZNSt23_Rb_tree_const_iteratorIcEC5ERKSt17_Rb_tree_iteratorIcE,comdat
	.align	2
	.weak	_ZNSt23_Rb_tree_const_iteratorIcEC2ERKSt17_Rb_tree_iteratorIcE
	.type	_ZNSt23_Rb_tree_const_iteratorIcEC2ERKSt17_Rb_tree_iteratorIcE, %function
_ZNSt23_Rb_tree_const_iteratorIcEC2ERKSt17_Rb_tree_iteratorIcE:
.LFB11188:
	.cfi_startproc
	sub	sp, sp, #16
	.cfi_def_cfa_offset 16
	str	x0, [sp, 8]
	str	x1, [sp]
	ldr	x0, [sp]
	ldr	x1, [x0]
	ldr	x0, [sp, 8]
	str	x1, [x0]
	nop
	add	sp, sp, 16
	.cfi_def_cfa_offset 0
	ret
	.cfi_endproc
.LFE11188:
	.size	_ZNSt23_Rb_tree_const_iteratorIcEC2ERKSt17_Rb_tree_iteratorIcE, .-_ZNSt23_Rb_tree_const_iteratorIcEC2ERKSt17_Rb_tree_iteratorIcE
	.weak	_ZNSt23_Rb_tree_const_iteratorIcEC1ERKSt17_Rb_tree_iteratorIcE
	.set	_ZNSt23_Rb_tree_const_iteratorIcEC1ERKSt17_Rb_tree_iteratorIcE,_ZNSt23_Rb_tree_const_iteratorIcEC2ERKSt17_Rb_tree_iteratorIcE
	.section	.text._ZN9__gnu_cxx13new_allocatorIcE10deallocateEPcm,"axG",@progbits,_ZN9__gnu_cxx13new_allocatorIcE10deallocateEPcm,comdat
	.align	2
	.weak	_ZN9__gnu_cxx13new_allocatorIcE10deallocateEPcm
	.type	_ZN9__gnu_cxx13new_allocatorIcE10deallocateEPcm, %function
_ZN9__gnu_cxx13new_allocatorIcE10deallocateEPcm:
.LFB11294:
	.cfi_startproc
	stp	x29, x30, [sp, -48]!
	.cfi_def_cfa_offset 48
	.cfi_offset 29, -48
	.cfi_offset 30, -40
	mov	x29, sp
	str	x0, [sp, 40]
	str	x1, [sp, 32]
	str	x2, [sp, 24]
	ldr	x1, [sp, 24]
	ldr	x0, [sp, 32]
	bl	_ZdlPvm
	ldp	x29, x30, [sp], 48
	.cfi_restore 30
	.cfi_restore 29
	.cfi_def_cfa_offset 0
	ret
	.cfi_endproc
.LFE11294:
	.size	_ZN9__gnu_cxx13new_allocatorIcE10deallocateEPcm, .-_ZN9__gnu_cxx13new_allocatorIcE10deallocateEPcm
	.section	.text._ZNK9__gnu_cxx13new_allocatorIcE11_M_max_sizeEv,"axG",@progbits,_ZNK9__gnu_cxx13new_allocatorIcE11_M_max_sizeEv,comdat
	.align	2
	.weak	_ZNK9__gnu_cxx13new_allocatorIcE11_M_max_sizeEv
	.type	_ZNK9__gnu_cxx13new_allocatorIcE11_M_max_sizeEv, %function
_ZNK9__gnu_cxx13new_allocatorIcE11_M_max_sizeEv:
.LFB11296:
	.cfi_startproc
	sub	sp, sp, #16
	.cfi_def_cfa_offset 16
	str	x0, [sp, 8]
	mov	x0, 9223372036854775807
	add	sp, sp, 16
	.cfi_def_cfa_offset 0
	ret
	.cfi_endproc
.LFE11296:
	.size	_ZNK9__gnu_cxx13new_allocatorIcE11_M_max_sizeEv, .-_ZNK9__gnu_cxx13new_allocatorIcE11_M_max_sizeEv
	.section	.text._ZN9__gnu_cxx13new_allocatorIcE8allocateEmPKv,"axG",@progbits,_ZN9__gnu_cxx13new_allocatorIcE8allocateEmPKv,comdat
	.align	2
	.weak	_ZN9__gnu_cxx13new_allocatorIcE8allocateEmPKv
	.type	_ZN9__gnu_cxx13new_allocatorIcE8allocateEmPKv, %function
_ZN9__gnu_cxx13new_allocatorIcE8allocateEmPKv:
.LFB11295:
	.cfi_startproc
	stp	x29, x30, [sp, -48]!
	.cfi_def_cfa_offset 48
	.cfi_offset 29, -48
	.cfi_offset 30, -40
	mov	x29, sp
	str	x0, [sp, 40]
	str	x1, [sp, 32]
	str	x2, [sp, 24]
	ldr	x0, [sp, 40]
	bl	_ZNK9__gnu_cxx13new_allocatorIcE11_M_max_sizeEv
	mov	x1, x0
	ldr	x0, [sp, 32]
	cmp	x0, x1
	cset	w0, hi
	and	w0, w0, 255
	and	x0, x0, 255
	cmp	x0, 0
	cset	w0, ne
	and	w0, w0, 255
	cmp	w0, 0
	beq	.L229
	bl	_ZSt17__throw_bad_allocv
.L229:
	ldr	x0, [sp, 32]
	bl	_Znwm
	nop
	ldp	x29, x30, [sp], 48
	.cfi_restore 30
	.cfi_restore 29
	.cfi_def_cfa_offset 0
	ret
	.cfi_endproc
.LFE11295:
	.size	_ZN9__gnu_cxx13new_allocatorIcE8allocateEmPKv, .-_ZN9__gnu_cxx13new_allocatorIcE8allocateEmPKv
	.section	.text._ZNSt16allocator_traitsISaIcEE8max_sizeERKS0_,"axG",@progbits,_ZNSt16allocator_traitsISaIcEE8max_sizeERKS0_,comdat
	.align	2
	.weak	_ZNSt16allocator_traitsISaIcEE8max_sizeERKS0_
	.type	_ZNSt16allocator_traitsISaIcEE8max_sizeERKS0_, %function
_ZNSt16allocator_traitsISaIcEE8max_sizeERKS0_:
.LFB11326:
	.cfi_startproc
	stp	x29, x30, [sp, -32]!
	.cfi_def_cfa_offset 32
	.cfi_offset 29, -32
	.cfi_offset 30, -24
	mov	x29, sp
	str	x0, [sp, 24]
	ldr	x0, [sp, 24]
	bl	_ZNK9__gnu_cxx13new_allocatorIcE8max_sizeEv
	ldp	x29, x30, [sp], 32
	.cfi_restore 30
	.cfi_restore 29
	.cfi_def_cfa_offset 0
	ret
	.cfi_endproc
.LFE11326:
	.size	_ZNSt16allocator_traitsISaIcEE8max_sizeERKS0_, .-_ZNSt16allocator_traitsISaIcEE8max_sizeERKS0_
	.section	.text._ZNSt12_Vector_baseIcSaIcEE17_Vector_impl_dataC2Ev,"axG",@progbits,_ZNSt12_Vector_baseIcSaIcEE17_Vector_impl_dataC5Ev,comdat
	.align	2
	.weak	_ZNSt12_Vector_baseIcSaIcEE17_Vector_impl_dataC2Ev
	.type	_ZNSt12_Vector_baseIcSaIcEE17_Vector_impl_dataC2Ev, %function
_ZNSt12_Vector_baseIcSaIcEE17_Vector_impl_dataC2Ev:
.LFB11328:
	.cfi_startproc
	sub	sp, sp, #16
	.cfi_def_cfa_offset 16
	str	x0, [sp, 8]
	ldr	x0, [sp, 8]
	str	xzr, [x0]
	ldr	x0, [sp, 8]
	str	xzr, [x0, 8]
	ldr	x0, [sp, 8]
	str	xzr, [x0, 16]
	nop
	add	sp, sp, 16
	.cfi_def_cfa_offset 0
	ret
	.cfi_endproc
.LFE11328:
	.size	_ZNSt12_Vector_baseIcSaIcEE17_Vector_impl_dataC2Ev, .-_ZNSt12_Vector_baseIcSaIcEE17_Vector_impl_dataC2Ev
	.weak	_ZNSt12_Vector_baseIcSaIcEE17_Vector_impl_dataC1Ev
	.set	_ZNSt12_Vector_baseIcSaIcEE17_Vector_impl_dataC1Ev,_ZNSt12_Vector_baseIcSaIcEE17_Vector_impl_dataC2Ev
	.section	.text._ZNSt12_Vector_baseIcSaIcEE11_M_allocateEm,"axG",@progbits,_ZNSt12_Vector_baseIcSaIcEE11_M_allocateEm,comdat
	.align	2
	.weak	_ZNSt12_Vector_baseIcSaIcEE11_M_allocateEm
	.type	_ZNSt12_Vector_baseIcSaIcEE11_M_allocateEm, %function
_ZNSt12_Vector_baseIcSaIcEE11_M_allocateEm:
.LFB11330:
	.cfi_startproc
	stp	x29, x30, [sp, -32]!
	.cfi_def_cfa_offset 32
	.cfi_offset 29, -32
	.cfi_offset 30, -24
	mov	x29, sp
	str	x0, [sp, 24]
	str	x1, [sp, 16]
	ldr	x0, [sp, 16]
	cmp	x0, 0
	beq	.L235
	ldr	x0, [sp, 24]
	ldr	x1, [sp, 16]
	bl	_ZNSt16allocator_traitsISaIcEE8allocateERS0_m
	b	.L237
.L235:
	mov	x0, 0
.L237:
	ldp	x29, x30, [sp], 32
	.cfi_restore 30
	.cfi_restore 29
	.cfi_def_cfa_offset 0
	ret
	.cfi_endproc
.LFE11330:
	.size	_ZNSt12_Vector_baseIcSaIcEE11_M_allocateEm, .-_ZNSt12_Vector_baseIcSaIcEE11_M_allocateEm
	.section	.text._ZSt25__uninitialized_default_nIPcmET_S1_T0_,"axG",@progbits,_ZSt25__uninitialized_default_nIPcmET_S1_T0_,comdat
	.align	2
	.weak	_ZSt25__uninitialized_default_nIPcmET_S1_T0_
	.type	_ZSt25__uninitialized_default_nIPcmET_S1_T0_, %function
_ZSt25__uninitialized_default_nIPcmET_S1_T0_:
.LFB11331:
	.cfi_startproc
	stp	x29, x30, [sp, -48]!
	.cfi_def_cfa_offset 48
	.cfi_offset 29, -48
	.cfi_offset 30, -40
	mov	x29, sp
	str	x0, [sp, 24]
	str	x1, [sp, 16]
	mov	w0, 1
	strb	w0, [sp, 47]
	ldr	x1, [sp, 16]
	ldr	x0, [sp, 24]
	bl	_ZNSt27__uninitialized_default_n_1ILb1EE18__uninit_default_nIPcmEET_S3_T0_
	ldp	x29, x30, [sp], 48
	.cfi_restore 30
	.cfi_restore 29
	.cfi_def_cfa_offset 0
	ret
	.cfi_endproc
.LFE11331:
	.size	_ZSt25__uninitialized_default_nIPcmET_S1_T0_, .-_ZSt25__uninitialized_default_nIPcmET_S1_T0_
	.section	.text._ZNSt12_Destroy_auxILb1EE9__destroyIPcEEvT_S3_,"axG",@progbits,_ZNSt12_Destroy_auxILb1EE9__destroyIPcEEvT_S3_,comdat
	.align	2
	.weak	_ZNSt12_Destroy_auxILb1EE9__destroyIPcEEvT_S3_
	.type	_ZNSt12_Destroy_auxILb1EE9__destroyIPcEEvT_S3_, %function
_ZNSt12_Destroy_auxILb1EE9__destroyIPcEEvT_S3_:
.LFB11332:
	.cfi_startproc
	sub	sp, sp, #16
	.cfi_def_cfa_offset 16
	str	x0, [sp, 8]
	str	x1, [sp]
	nop
	add	sp, sp, 16
	.cfi_def_cfa_offset 0
	ret
	.cfi_endproc
.LFE11332:
	.size	_ZNSt12_Destroy_auxILb1EE9__destroyIPcEEvT_S3_, .-_ZNSt12_Destroy_auxILb1EE9__destroyIPcEEvT_S3_
	.section	.text._ZNSt16allocator_traitsISaISt6vectorIcSaIcEEEE8max_sizeERKS3_,"axG",@progbits,_ZNSt16allocator_traitsISaISt6vectorIcSaIcEEEE8max_sizeERKS3_,comdat
	.align	2
	.weak	_ZNSt16allocator_traitsISaISt6vectorIcSaIcEEEE8max_sizeERKS3_
	.type	_ZNSt16allocator_traitsISaISt6vectorIcSaIcEEEE8max_sizeERKS3_, %function
_ZNSt16allocator_traitsISaISt6vectorIcSaIcEEEE8max_sizeERKS3_:
.LFB11333:
	.cfi_startproc
	stp	x29, x30, [sp, -32]!
	.cfi_def_cfa_offset 32
	.cfi_offset 29, -32
	.cfi_offset 30, -24
	mov	x29, sp
	str	x0, [sp, 24]
	ldr	x0, [sp, 24]
	bl	_ZNK9__gnu_cxx13new_allocatorISt6vectorIcSaIcEEE8max_sizeEv
	ldp	x29, x30, [sp], 32
	.cfi_restore 30
	.cfi_restore 29
	.cfi_def_cfa_offset 0
	ret
	.cfi_endproc
.LFE11333:
	.size	_ZNSt16allocator_traitsISaISt6vectorIcSaIcEEEE8max_sizeERKS3_, .-_ZNSt16allocator_traitsISaISt6vectorIcSaIcEEEE8max_sizeERKS3_
	.section	.text._ZN9__gnu_cxx13new_allocatorISt6vectorIcSaIcEEEC2ERKS4_,"axG",@progbits,_ZN9__gnu_cxx13new_allocatorISt6vectorIcSaIcEEEC5ERKS4_,comdat
	.align	2
	.weak	_ZN9__gnu_cxx13new_allocatorISt6vectorIcSaIcEEEC2ERKS4_
	.type	_ZN9__gnu_cxx13new_allocatorISt6vectorIcSaIcEEEC2ERKS4_, %function
_ZN9__gnu_cxx13new_allocatorISt6vectorIcSaIcEEEC2ERKS4_:
.LFB11335:
	.cfi_startproc
	sub	sp, sp, #16
	.cfi_def_cfa_offset 16
	str	x0, [sp, 8]
	str	x1, [sp]
	nop
	add	sp, sp, 16
	.cfi_def_cfa_offset 0
	ret
	.cfi_endproc
.LFE11335:
	.size	_ZN9__gnu_cxx13new_allocatorISt6vectorIcSaIcEEEC2ERKS4_, .-_ZN9__gnu_cxx13new_allocatorISt6vectorIcSaIcEEEC2ERKS4_
	.weak	_ZN9__gnu_cxx13new_allocatorISt6vectorIcSaIcEEEC1ERKS4_
	.set	_ZN9__gnu_cxx13new_allocatorISt6vectorIcSaIcEEEC1ERKS4_,_ZN9__gnu_cxx13new_allocatorISt6vectorIcSaIcEEEC2ERKS4_
	.section	.text._ZNSt12_Vector_baseISt6vectorIcSaIcEESaIS2_EE17_Vector_impl_dataC2Ev,"axG",@progbits,_ZNSt12_Vector_baseISt6vectorIcSaIcEESaIS2_EE17_Vector_impl_dataC5Ev,comdat
	.align	2
	.weak	_ZNSt12_Vector_baseISt6vectorIcSaIcEESaIS2_EE17_Vector_impl_dataC2Ev
	.type	_ZNSt12_Vector_baseISt6vectorIcSaIcEESaIS2_EE17_Vector_impl_dataC2Ev, %function
_ZNSt12_Vector_baseISt6vectorIcSaIcEESaIS2_EE17_Vector_impl_dataC2Ev:
.LFB11338:
	.cfi_startproc
	sub	sp, sp, #16
	.cfi_def_cfa_offset 16
	str	x0, [sp, 8]
	ldr	x0, [sp, 8]
	str	xzr, [x0]
	ldr	x0, [sp, 8]
	str	xzr, [x0, 8]
	ldr	x0, [sp, 8]
	str	xzr, [x0, 16]
	nop
	add	sp, sp, 16
	.cfi_def_cfa_offset 0
	ret
	.cfi_endproc
.LFE11338:
	.size	_ZNSt12_Vector_baseISt6vectorIcSaIcEESaIS2_EE17_Vector_impl_dataC2Ev, .-_ZNSt12_Vector_baseISt6vectorIcSaIcEESaIS2_EE17_Vector_impl_dataC2Ev
	.weak	_ZNSt12_Vector_baseISt6vectorIcSaIcEESaIS2_EE17_Vector_impl_dataC1Ev
	.set	_ZNSt12_Vector_baseISt6vectorIcSaIcEESaIS2_EE17_Vector_impl_dataC1Ev,_ZNSt12_Vector_baseISt6vectorIcSaIcEESaIS2_EE17_Vector_impl_dataC2Ev
	.section	.text._ZNSt12_Vector_baseISt6vectorIcSaIcEESaIS2_EE11_M_allocateEm,"axG",@progbits,_ZNSt12_Vector_baseISt6vectorIcSaIcEESaIS2_EE11_M_allocateEm,comdat
	.align	2
	.weak	_ZNSt12_Vector_baseISt6vectorIcSaIcEESaIS2_EE11_M_allocateEm
	.type	_ZNSt12_Vector_baseISt6vectorIcSaIcEESaIS2_EE11_M_allocateEm, %function
_ZNSt12_Vector_baseISt6vectorIcSaIcEESaIS2_EE11_M_allocateEm:
.LFB11340:
	.cfi_startproc
	stp	x29, x30, [sp, -32]!
	.cfi_def_cfa_offset 32
	.cfi_offset 29, -32
	.cfi_offset 30, -24
	mov	x29, sp
	str	x0, [sp, 24]
	str	x1, [sp, 16]
	ldr	x0, [sp, 16]
	cmp	x0, 0
	beq	.L246
	ldr	x0, [sp, 24]
	ldr	x1, [sp, 16]
	bl	_ZNSt16allocator_traitsISaISt6vectorIcSaIcEEEE8allocateERS3_m
	b	.L248
.L246:
	mov	x0, 0
.L248:
	ldp	x29, x30, [sp], 32
	.cfi_restore 30
	.cfi_restore 29
	.cfi_def_cfa_offset 0
	ret
	.cfi_endproc
.LFE11340:
	.size	_ZNSt12_Vector_baseISt6vectorIcSaIcEESaIS2_EE11_M_allocateEm, .-_ZNSt12_Vector_baseISt6vectorIcSaIcEESaIS2_EE11_M_allocateEm
	.section	.text._ZNSt16allocator_traitsISaISt6vectorIcSaIcEEEE10deallocateERS3_PS2_m,"axG",@progbits,_ZNSt16allocator_traitsISaISt6vectorIcSaIcEEEE10deallocateERS3_PS2_m,comdat
	.align	2
	.weak	_ZNSt16allocator_traitsISaISt6vectorIcSaIcEEEE10deallocateERS3_PS2_m
	.type	_ZNSt16allocator_traitsISaISt6vectorIcSaIcEEEE10deallocateERS3_PS2_m, %function
_ZNSt16allocator_traitsISaISt6vectorIcSaIcEEEE10deallocateERS3_PS2_m:
.LFB11341:
	.cfi_startproc
	stp	x29, x30, [sp, -48]!
	.cfi_def_cfa_offset 48
	.cfi_offset 29, -48
	.cfi_offset 30, -40
	mov	x29, sp
	str	x0, [sp, 40]
	str	x1, [sp, 32]
	str	x2, [sp, 24]
	ldr	x2, [sp, 24]
	ldr	x1, [sp, 32]
	ldr	x0, [sp, 40]
	bl	_ZN9__gnu_cxx13new_allocatorISt6vectorIcSaIcEEE10deallocateEPS3_m
	nop
	ldp	x29, x30, [sp], 48
	.cfi_restore 30
	.cfi_restore 29
	.cfi_def_cfa_offset 0
	ret
	.cfi_endproc
.LFE11341:
	.size	_ZNSt16allocator_traitsISaISt6vectorIcSaIcEEEE10deallocateERS3_PS2_m, .-_ZNSt16allocator_traitsISaISt6vectorIcSaIcEEEE10deallocateERS3_PS2_m
	.section	.text._ZSt20uninitialized_fill_nIPSt6vectorIcSaIcEEmS2_ET_S4_T0_RKT1_,"axG",@progbits,_ZSt20uninitialized_fill_nIPSt6vectorIcSaIcEEmS2_ET_S4_T0_RKT1_,comdat
	.align	2
	.weak	_ZSt20uninitialized_fill_nIPSt6vectorIcSaIcEEmS2_ET_S4_T0_RKT1_
	.type	_ZSt20uninitialized_fill_nIPSt6vectorIcSaIcEEmS2_ET_S4_T0_RKT1_, %function
_ZSt20uninitialized_fill_nIPSt6vectorIcSaIcEEmS2_ET_S4_T0_RKT1_:
.LFB11342:
	.cfi_startproc
	stp	x29, x30, [sp, -64]!
	.cfi_def_cfa_offset 64
	.cfi_offset 29, -64
	.cfi_offset 30, -56
	mov	x29, sp
	str	x0, [sp, 40]
	str	x1, [sp, 32]
	str	x2, [sp, 24]
	mov	w0, 1
	strb	w0, [sp, 63]
	ldr	x2, [sp, 24]
	ldr	x1, [sp, 32]
	ldr	x0, [sp, 40]
	bl	_ZNSt22__uninitialized_fill_nILb0EE15__uninit_fill_nIPSt6vectorIcSaIcEEmS4_EET_S6_T0_RKT1_
	ldp	x29, x30, [sp], 64
	.cfi_restore 30
	.cfi_restore 29
	.cfi_def_cfa_offset 0
	ret
	.cfi_endproc
.LFE11342:
	.size	_ZSt20uninitialized_fill_nIPSt6vectorIcSaIcEEmS2_ET_S4_T0_RKT1_, .-_ZSt20uninitialized_fill_nIPSt6vectorIcSaIcEEmS2_ET_S4_T0_RKT1_
	.section	.text._ZNSt12_Destroy_auxILb0EE9__destroyIPSt6vectorIcSaIcEEEEvT_S6_,"axG",@progbits,_ZNSt12_Destroy_auxILb0EE9__destroyIPSt6vectorIcSaIcEEEEvT_S6_,comdat
	.align	2
	.weak	_ZNSt12_Destroy_auxILb0EE9__destroyIPSt6vectorIcSaIcEEEEvT_S6_
	.type	_ZNSt12_Destroy_auxILb0EE9__destroyIPSt6vectorIcSaIcEEEEvT_S6_, %function
_ZNSt12_Destroy_auxILb0EE9__destroyIPSt6vectorIcSaIcEEEEvT_S6_:
.LFB11343:
	.cfi_startproc
	stp	x29, x30, [sp, -32]!
	.cfi_def_cfa_offset 32
	.cfi_offset 29, -32
	.cfi_offset 30, -24
	mov	x29, sp
	str	x0, [sp, 24]
	str	x1, [sp, 16]
	b	.L253
.L254:
	ldr	x0, [sp, 24]
	bl	_ZSt11__addressofISt6vectorIcSaIcEEEPT_RS3_
	bl	_ZSt8_DestroyISt6vectorIcSaIcEEEvPT_
	ldr	x0, [sp, 24]
	add	x0, x0, 24
	str	x0, [sp, 24]
.L253:
	ldr	x1, [sp, 24]
	ldr	x0, [sp, 16]
	cmp	x1, x0
	bne	.L254
	nop
	nop
	ldp	x29, x30, [sp], 32
	.cfi_restore 30
	.cfi_restore 29
	.cfi_def_cfa_offset 0
	ret
	.cfi_endproc
.LFE11343:
	.size	_ZNSt12_Destroy_auxILb0EE9__destroyIPSt6vectorIcSaIcEEEEvT_S6_, .-_ZNSt12_Destroy_auxILb0EE9__destroyIPSt6vectorIcSaIcEEEEvT_S6_
	.section	.text._ZNSaIiEC2ERKS_,"axG",@progbits,_ZNSaIiEC5ERKS_,comdat
	.align	2
	.weak	_ZNSaIiEC2ERKS_
	.type	_ZNSaIiEC2ERKS_, %function
_ZNSaIiEC2ERKS_:
.LFB11345:
	.cfi_startproc
	stp	x29, x30, [sp, -32]!
	.cfi_def_cfa_offset 32
	.cfi_offset 29, -32
	.cfi_offset 30, -24
	mov	x29, sp
	str	x0, [sp, 24]
	str	x1, [sp, 16]
	ldr	x1, [sp, 16]
	ldr	x0, [sp, 24]
	bl	_ZN9__gnu_cxx13new_allocatorIiEC2ERKS1_
	nop
	ldp	x29, x30, [sp], 32
	.cfi_restore 30
	.cfi_restore 29
	.cfi_def_cfa_offset 0
	ret
	.cfi_endproc
.LFE11345:
	.size	_ZNSaIiEC2ERKS_, .-_ZNSaIiEC2ERKS_
	.weak	_ZNSaIiEC1ERKS_
	.set	_ZNSaIiEC1ERKS_,_ZNSaIiEC2ERKS_
	.section	.text._ZNSt12_Vector_baseIiSaIiEE17_Vector_impl_dataC2Ev,"axG",@progbits,_ZNSt12_Vector_baseIiSaIiEE17_Vector_impl_dataC5Ev,comdat
	.align	2
	.weak	_ZNSt12_Vector_baseIiSaIiEE17_Vector_impl_dataC2Ev
	.type	_ZNSt12_Vector_baseIiSaIiEE17_Vector_impl_dataC2Ev, %function
_ZNSt12_Vector_baseIiSaIiEE17_Vector_impl_dataC2Ev:
.LFB11348:
	.cfi_startproc
	sub	sp, sp, #16
	.cfi_def_cfa_offset 16
	str	x0, [sp, 8]
	ldr	x0, [sp, 8]
	str	xzr, [x0]
	ldr	x0, [sp, 8]
	str	xzr, [x0, 8]
	ldr	x0, [sp, 8]
	str	xzr, [x0, 16]
	nop
	add	sp, sp, 16
	.cfi_def_cfa_offset 0
	ret
	.cfi_endproc
.LFE11348:
	.size	_ZNSt12_Vector_baseIiSaIiEE17_Vector_impl_dataC2Ev, .-_ZNSt12_Vector_baseIiSaIiEE17_Vector_impl_dataC2Ev
	.weak	_ZNSt12_Vector_baseIiSaIiEE17_Vector_impl_dataC1Ev
	.set	_ZNSt12_Vector_baseIiSaIiEE17_Vector_impl_dataC1Ev,_ZNSt12_Vector_baseIiSaIiEE17_Vector_impl_dataC2Ev
	.section	.text._ZNSt16allocator_traitsISaIiEE10deallocateERS0_Pim,"axG",@progbits,_ZNSt16allocator_traitsISaIiEE10deallocateERS0_Pim,comdat
	.align	2
	.weak	_ZNSt16allocator_traitsISaIiEE10deallocateERS0_Pim
	.type	_ZNSt16allocator_traitsISaIiEE10deallocateERS0_Pim, %function
_ZNSt16allocator_traitsISaIiEE10deallocateERS0_Pim:
.LFB11350:
	.cfi_startproc
	stp	x29, x30, [sp, -48]!
	.cfi_def_cfa_offset 48
	.cfi_offset 29, -48
	.cfi_offset 30, -40
	mov	x29, sp
	str	x0, [sp, 40]
	str	x1, [sp, 32]
	str	x2, [sp, 24]
	ldr	x2, [sp, 24]
	ldr	x1, [sp, 32]
	ldr	x0, [sp, 40]
	bl	_ZN9__gnu_cxx13new_allocatorIiE10deallocateEPim
	nop
	ldp	x29, x30, [sp], 48
	.cfi_restore 30
	.cfi_restore 29
	.cfi_def_cfa_offset 0
	ret
	.cfi_endproc
.LFE11350:
	.size	_ZNSt16allocator_traitsISaIiEE10deallocateERS0_Pim, .-_ZNSt16allocator_traitsISaIiEE10deallocateERS0_Pim
	.section	.text._ZNSt6vectorIiSaIiEE11_S_max_sizeERKS0_,"axG",@progbits,_ZNSt6vectorIiSaIiEE11_S_max_sizeERKS0_,comdat
	.align	2
	.weak	_ZNSt6vectorIiSaIiEE11_S_max_sizeERKS0_
	.type	_ZNSt6vectorIiSaIiEE11_S_max_sizeERKS0_, %function
_ZNSt6vectorIiSaIiEE11_S_max_sizeERKS0_:
.LFB11351:
	.cfi_startproc
	stp	x29, x30, [sp, -48]!
	.cfi_def_cfa_offset 48
	.cfi_offset 29, -48
	.cfi_offset 30, -40
	mov	x29, sp
	str	x0, [sp, 24]
	mov	x0, 2305843009213693951
	str	x0, [sp, 40]
	ldr	x0, [sp, 24]
	bl	_ZNSt16allocator_traitsISaIiEE8max_sizeERKS0_
	str	x0, [sp, 32]
	add	x1, sp, 32
	add	x0, sp, 40
	bl	_ZSt3minImERKT_S2_S2_
	ldr	x0, [x0]
	ldp	x29, x30, [sp], 48
	.cfi_restore 30
	.cfi_restore 29
	.cfi_def_cfa_offset 0
	ret
	.cfi_endproc
.LFE11351:
	.size	_ZNSt6vectorIiSaIiEE11_S_max_sizeERKS0_, .-_ZNSt6vectorIiSaIiEE11_S_max_sizeERKS0_
	.section	.text._ZNSt16allocator_traitsISaIiEE8allocateERS0_m,"axG",@progbits,_ZNSt16allocator_traitsISaIiEE8allocateERS0_m,comdat
	.align	2
	.weak	_ZNSt16allocator_traitsISaIiEE8allocateERS0_m
	.type	_ZNSt16allocator_traitsISaIiEE8allocateERS0_m, %function
_ZNSt16allocator_traitsISaIiEE8allocateERS0_m:
.LFB11352:
	.cfi_startproc
	stp	x29, x30, [sp, -32]!
	.cfi_def_cfa_offset 32
	.cfi_offset 29, -32
	.cfi_offset 30, -24
	mov	x29, sp
	str	x0, [sp, 24]
	str	x1, [sp, 16]
	mov	x2, 0
	ldr	x1, [sp, 16]
	ldr	x0, [sp, 24]
	bl	_ZN9__gnu_cxx13new_allocatorIiE8allocateEmPKv
	ldp	x29, x30, [sp], 32
	.cfi_restore 30
	.cfi_restore 29
	.cfi_def_cfa_offset 0
	ret
	.cfi_endproc
.LFE11352:
	.size	_ZNSt16allocator_traitsISaIiEE8allocateERS0_m, .-_ZNSt16allocator_traitsISaIiEE8allocateERS0_m
	.section	.text._ZSt18uninitialized_copyIPKiPiET0_T_S4_S3_,"axG",@progbits,_ZSt18uninitialized_copyIPKiPiET0_T_S4_S3_,comdat
	.align	2
	.weak	_ZSt18uninitialized_copyIPKiPiET0_T_S4_S3_
	.type	_ZSt18uninitialized_copyIPKiPiET0_T_S4_S3_, %function
_ZSt18uninitialized_copyIPKiPiET0_T_S4_S3_:
.LFB11353:
	.cfi_startproc
	stp	x29, x30, [sp, -64]!
	.cfi_def_cfa_offset 64
	.cfi_offset 29, -64
	.cfi_offset 30, -56
	mov	x29, sp
	str	x0, [sp, 40]
	str	x1, [sp, 32]
	str	x2, [sp, 24]
	mov	w0, 1
	strb	w0, [sp, 63]
	ldr	x2, [sp, 24]
	ldr	x1, [sp, 32]
	ldr	x0, [sp, 40]
	bl	_ZNSt20__uninitialized_copyILb1EE13__uninit_copyIPKiPiEET0_T_S6_S5_
	ldp	x29, x30, [sp], 64
	.cfi_restore 30
	.cfi_restore 29
	.cfi_def_cfa_offset 0
	ret
	.cfi_endproc
.LFE11353:
	.size	_ZSt18uninitialized_copyIPKiPiET0_T_S4_S3_, .-_ZSt18uninitialized_copyIPKiPiET0_T_S4_S3_
	.section	.text._ZNSt12_Destroy_auxILb1EE9__destroyIPiEEvT_S3_,"axG",@progbits,_ZNSt12_Destroy_auxILb1EE9__destroyIPiEEvT_S3_,comdat
	.align	2
	.weak	_ZNSt12_Destroy_auxILb1EE9__destroyIPiEEvT_S3_
	.type	_ZNSt12_Destroy_auxILb1EE9__destroyIPiEEvT_S3_, %function
_ZNSt12_Destroy_auxILb1EE9__destroyIPiEEvT_S3_:
.LFB11355:
	.cfi_startproc
	sub	sp, sp, #16
	.cfi_def_cfa_offset 16
	str	x0, [sp, 8]
	str	x1, [sp]
	nop
	add	sp, sp, 16
	.cfi_def_cfa_offset 0
	ret
	.cfi_endproc
.LFE11355:
	.size	_ZNSt12_Destroy_auxILb1EE9__destroyIPiEEvT_S3_, .-_ZNSt12_Destroy_auxILb1EE9__destroyIPiEEvT_S3_
	.section	.text._ZNSt8_Rb_treeIccSt9_IdentityIcESt4lessIcESaIcEE15_M_destroy_nodeEPSt13_Rb_tree_nodeIcE,"axG",@progbits,_ZNSt8_Rb_treeIccSt9_IdentityIcESt4lessIcESaIcEE15_M_destroy_nodeEPSt13_Rb_tree_nodeIcE,comdat
	.align	2
	.weak	_ZNSt8_Rb_treeIccSt9_IdentityIcESt4lessIcESaIcEE15_M_destroy_nodeEPSt13_Rb_tree_nodeIcE
	.type	_ZNSt8_Rb_treeIccSt9_IdentityIcESt4lessIcESaIcEE15_M_destroy_nodeEPSt13_Rb_tree_nodeIcE, %function
_ZNSt8_Rb_treeIccSt9_IdentityIcESt4lessIcESaIcEE15_M_destroy_nodeEPSt13_Rb_tree_nodeIcE:
.LFB11356:
	.cfi_startproc
	stp	x29, x30, [sp, -48]!
	.cfi_def_cfa_offset 48
	.cfi_offset 29, -48
	.cfi_offset 30, -40
	mov	x29, sp
	str	x19, [sp, 16]
	.cfi_offset 19, -32
	str	x0, [sp, 40]
	str	x1, [sp, 32]
	ldr	x0, [sp, 40]
	bl	_ZNSt8_Rb_treeIccSt9_IdentityIcESt4lessIcESaIcEE21_M_get_Node_allocatorEv
	mov	x19, x0
	ldr	x0, [sp, 32]
	bl	_ZNSt13_Rb_tree_nodeIcE9_M_valptrEv
	mov	x1, x0
	mov	x0, x19
	bl	_ZNSt16allocator_traitsISaISt13_Rb_tree_nodeIcEEE7destroyIcEEvRS2_PT_
	nop
	ldr	x19, [sp, 16]
	ldp	x29, x30, [sp], 48
	.cfi_restore 30
	.cfi_restore 29
	.cfi_restore 19
	.cfi_def_cfa_offset 0
	ret
	.cfi_endproc
.LFE11356:
	.size	_ZNSt8_Rb_treeIccSt9_IdentityIcESt4lessIcESaIcEE15_M_destroy_nodeEPSt13_Rb_tree_nodeIcE, .-_ZNSt8_Rb_treeIccSt9_IdentityIcESt4lessIcESaIcEE15_M_destroy_nodeEPSt13_Rb_tree_nodeIcE
	.section	.text._ZNSt8_Rb_treeIccSt9_IdentityIcESt4lessIcESaIcEE11_M_put_nodeEPSt13_Rb_tree_nodeIcE,"axG",@progbits,_ZNSt8_Rb_treeIccSt9_IdentityIcESt4lessIcESaIcEE11_M_put_nodeEPSt13_Rb_tree_nodeIcE,comdat
	.align	2
	.weak	_ZNSt8_Rb_treeIccSt9_IdentityIcESt4lessIcESaIcEE11_M_put_nodeEPSt13_Rb_tree_nodeIcE
	.type	_ZNSt8_Rb_treeIccSt9_IdentityIcESt4lessIcESaIcEE11_M_put_nodeEPSt13_Rb_tree_nodeIcE, %function
_ZNSt8_Rb_treeIccSt9_IdentityIcESt4lessIcESaIcEE11_M_put_nodeEPSt13_Rb_tree_nodeIcE:
.LFB11357:
	.cfi_startproc
	.cfi_personality 0x9b,DW.ref.__gxx_personality_v0
	.cfi_lsda 0x1b,.LLSDA11357
	stp	x29, x30, [sp, -32]!
	.cfi_def_cfa_offset 32
	.cfi_offset 29, -32
	.cfi_offset 30, -24
	mov	x29, sp
	str	x0, [sp, 24]
	str	x1, [sp, 16]
	ldr	x0, [sp, 24]
	bl	_ZNSt8_Rb_treeIccSt9_IdentityIcESt4lessIcESaIcEE21_M_get_Node_allocatorEv
	mov	x2, 1
	ldr	x1, [sp, 16]
	bl	_ZNSt16allocator_traitsISaISt13_Rb_tree_nodeIcEEE10deallocateERS2_PS1_m
	nop
	ldp	x29, x30, [sp], 32
	.cfi_restore 30
	.cfi_restore 29
	.cfi_def_cfa_offset 0
	ret
	.cfi_endproc
.LFE11357:
	.section	.gcc_except_table
.LLSDA11357:
	.byte	0xff
	.byte	0xff
	.byte	0x1
	.uleb128 .LLSDACSE11357-.LLSDACSB11357
.LLSDACSB11357:
.LLSDACSE11357:
	.section	.text._ZNSt8_Rb_treeIccSt9_IdentityIcESt4lessIcESaIcEE11_M_put_nodeEPSt13_Rb_tree_nodeIcE,"axG",@progbits,_ZNSt8_Rb_treeIccSt9_IdentityIcESt4lessIcESaIcEE11_M_put_nodeEPSt13_Rb_tree_nodeIcE,comdat
	.size	_ZNSt8_Rb_treeIccSt9_IdentityIcESt4lessIcESaIcEE11_M_put_nodeEPSt13_Rb_tree_nodeIcE, .-_ZNSt8_Rb_treeIccSt9_IdentityIcESt4lessIcESaIcEE11_M_put_nodeEPSt13_Rb_tree_nodeIcE
	.section	.text._ZNSt8_Rb_treeIccSt9_IdentityIcESt4lessIcESaIcEE6_M_endEv,"axG",@progbits,_ZNSt8_Rb_treeIccSt9_IdentityIcESt4lessIcESaIcEE6_M_endEv,comdat
	.align	2
	.weak	_ZNSt8_Rb_treeIccSt9_IdentityIcESt4lessIcESaIcEE6_M_endEv
	.type	_ZNSt8_Rb_treeIccSt9_IdentityIcESt4lessIcESaIcEE6_M_endEv, %function
_ZNSt8_Rb_treeIccSt9_IdentityIcESt4lessIcESaIcEE6_M_endEv:
.LFB11358:
	.cfi_startproc
	sub	sp, sp, #16
	.cfi_def_cfa_offset 16
	str	x0, [sp, 8]
	ldr	x0, [sp, 8]
	add	x0, x0, 8
	add	sp, sp, 16
	.cfi_def_cfa_offset 0
	ret
	.cfi_endproc
.LFE11358:
	.size	_ZNSt8_Rb_treeIccSt9_IdentityIcESt4lessIcESaIcEE6_M_endEv, .-_ZNSt8_Rb_treeIccSt9_IdentityIcESt4lessIcESaIcEE6_M_endEv
	.section	.text._ZNSt8_Rb_treeIccSt9_IdentityIcESt4lessIcESaIcEE6_S_keyEPKSt13_Rb_tree_nodeIcE,"axG",@progbits,_ZNSt8_Rb_treeIccSt9_IdentityIcESt4lessIcESaIcEE6_S_keyEPKSt13_Rb_tree_nodeIcE,comdat
	.align	2
	.weak	_ZNSt8_Rb_treeIccSt9_IdentityIcESt4lessIcESaIcEE6_S_keyEPKSt13_Rb_tree_nodeIcE
	.type	_ZNSt8_Rb_treeIccSt9_IdentityIcESt4lessIcESaIcEE6_S_keyEPKSt13_Rb_tree_nodeIcE, %function
_ZNSt8_Rb_treeIccSt9_IdentityIcESt4lessIcESaIcEE6_S_keyEPKSt13_Rb_tree_nodeIcE:
.LFB11359:
	.cfi_startproc
	stp	x29, x30, [sp, -48]!
	.cfi_def_cfa_offset 48
	.cfi_offset 29, -48
	.cfi_offset 30, -40
	mov	x29, sp
	str	x0, [sp, 24]
	ldr	x0, [sp, 24]
	bl	_ZNKSt13_Rb_tree_nodeIcE9_M_valptrEv
	mov	x1, x0
	add	x0, sp, 40
	bl	_ZNKSt9_IdentityIcEclERKc
	ldp	x29, x30, [sp], 48
	.cfi_restore 30
	.cfi_restore 29
	.cfi_def_cfa_offset 0
	ret
	.cfi_endproc
.LFE11359:
	.size	_ZNSt8_Rb_treeIccSt9_IdentityIcESt4lessIcESaIcEE6_S_keyEPKSt13_Rb_tree_nodeIcE, .-_ZNSt8_Rb_treeIccSt9_IdentityIcESt4lessIcESaIcEE6_S_keyEPKSt13_Rb_tree_nodeIcE
	.section	.text._ZNKSt4lessIcEclERKcS2_,"axG",@progbits,_ZNKSt4lessIcEclERKcS2_,comdat
	.align	2
	.weak	_ZNKSt4lessIcEclERKcS2_
	.type	_ZNKSt4lessIcEclERKcS2_, %function
_ZNKSt4lessIcEclERKcS2_:
.LFB11362:
	.cfi_startproc
	sub	sp, sp, #32
	.cfi_def_cfa_offset 32
	str	x0, [sp, 24]
	str	x1, [sp, 16]
	str	x2, [sp, 8]
	ldr	x0, [sp, 16]
	ldrb	w1, [x0]
	ldr	x0, [sp, 8]
	ldrb	w0, [x0]
	cmp	w1, w0
	cset	w0, cc
	and	w0, w0, 255
	add	sp, sp, 32
	.cfi_def_cfa_offset 0
	ret
	.cfi_endproc
.LFE11362:
	.size	_ZNKSt4lessIcEclERKcS2_, .-_ZNKSt4lessIcEclERKcS2_
	.section	.text._ZNSt8_Rb_treeIccSt9_IdentityIcESt4lessIcESaIcEE5beginEv,"axG",@progbits,_ZNSt8_Rb_treeIccSt9_IdentityIcESt4lessIcESaIcEE5beginEv,comdat
	.align	2
	.weak	_ZNSt8_Rb_treeIccSt9_IdentityIcESt4lessIcESaIcEE5beginEv
	.type	_ZNSt8_Rb_treeIccSt9_IdentityIcESt4lessIcESaIcEE5beginEv, %function
_ZNSt8_Rb_treeIccSt9_IdentityIcESt4lessIcESaIcEE5beginEv:
.LFB11363:
	.cfi_startproc
	stp	x29, x30, [sp, -48]!
	.cfi_def_cfa_offset 48
	.cfi_offset 29, -48
	.cfi_offset 30, -40
	mov	x29, sp
	str	x0, [sp, 24]
	ldr	x0, [sp, 24]
	ldr	x1, [x0, 24]
	add	x0, sp, 40
	bl	_ZNSt17_Rb_tree_iteratorIcEC1EPSt18_Rb_tree_node_base
	ldr	x0, [sp, 40]
	ldp	x29, x30, [sp], 48
	.cfi_restore 30
	.cfi_restore 29
	.cfi_def_cfa_offset 0
	ret
	.cfi_endproc
.LFE11363:
	.size	_ZNSt8_Rb_treeIccSt9_IdentityIcESt4lessIcESaIcEE5beginEv, .-_ZNSt8_Rb_treeIccSt9_IdentityIcESt4lessIcESaIcEE5beginEv
	.section	.text._ZSteqRKSt17_Rb_tree_iteratorIcES2_,"axG",@progbits,_ZSteqRKSt17_Rb_tree_iteratorIcES2_,comdat
	.align	2
	.weak	_ZSteqRKSt17_Rb_tree_iteratorIcES2_
	.type	_ZSteqRKSt17_Rb_tree_iteratorIcES2_, %function
_ZSteqRKSt17_Rb_tree_iteratorIcES2_:
.LFB11364:
	.cfi_startproc
	sub	sp, sp, #16
	.cfi_def_cfa_offset 16
	str	x0, [sp, 8]
	str	x1, [sp]
	ldr	x0, [sp, 8]
	ldr	x1, [x0]
	ldr	x0, [sp]
	ldr	x0, [x0]
	cmp	x1, x0
	cset	w0, eq
	and	w0, w0, 255
	add	sp, sp, 16
	.cfi_def_cfa_offset 0
	ret
	.cfi_endproc
.LFE11364:
	.size	_ZSteqRKSt17_Rb_tree_iteratorIcES2_, .-_ZSteqRKSt17_Rb_tree_iteratorIcES2_
	.section	.text._ZNSt4pairIPSt18_Rb_tree_node_baseS1_EC2IRPSt13_Rb_tree_nodeIcERS1_Lb1EEEOT_OT0_,"axG",@progbits,_ZNSt4pairIPSt18_Rb_tree_node_baseS1_EC5IRPSt13_Rb_tree_nodeIcERS1_Lb1EEEOT_OT0_,comdat
	.align	2
	.weak	_ZNSt4pairIPSt18_Rb_tree_node_baseS1_EC2IRPSt13_Rb_tree_nodeIcERS1_Lb1EEEOT_OT0_
	.type	_ZNSt4pairIPSt18_Rb_tree_node_baseS1_EC2IRPSt13_Rb_tree_nodeIcERS1_Lb1EEEOT_OT0_, %function
_ZNSt4pairIPSt18_Rb_tree_node_baseS1_EC2IRPSt13_Rb_tree_nodeIcERS1_Lb1EEEOT_OT0_:
.LFB11366:
	.cfi_startproc
	stp	x29, x30, [sp, -48]!
	.cfi_def_cfa_offset 48
	.cfi_offset 29, -48
	.cfi_offset 30, -40
	mov	x29, sp
	str	x0, [sp, 40]
	str	x1, [sp, 32]
	str	x2, [sp, 24]
	ldr	x0, [sp, 32]
	bl	_ZSt7forwardIRPSt13_Rb_tree_nodeIcEEOT_RNSt16remove_referenceIS4_E4typeE
	ldr	x1, [x0]
	ldr	x0, [sp, 40]
	str	x1, [x0]
	ldr	x0, [sp, 24]
	bl	_ZSt7forwardIRPSt18_Rb_tree_node_baseEOT_RNSt16remove_referenceIS3_E4typeE
	ldr	x1, [x0]
	ldr	x0, [sp, 40]
	str	x1, [x0, 8]
	nop
	ldp	x29, x30, [sp], 48
	.cfi_restore 30
	.cfi_restore 29
	.cfi_def_cfa_offset 0
	ret
	.cfi_endproc
.LFE11366:
	.size	_ZNSt4pairIPSt18_Rb_tree_node_baseS1_EC2IRPSt13_Rb_tree_nodeIcERS1_Lb1EEEOT_OT0_, .-_ZNSt4pairIPSt18_Rb_tree_node_baseS1_EC2IRPSt13_Rb_tree_nodeIcERS1_Lb1EEEOT_OT0_
	.weak	_ZNSt4pairIPSt18_Rb_tree_node_baseS1_EC1IRPSt13_Rb_tree_nodeIcERS1_Lb1EEEOT_OT0_
	.set	_ZNSt4pairIPSt18_Rb_tree_node_baseS1_EC1IRPSt13_Rb_tree_nodeIcERS1_Lb1EEEOT_OT0_,_ZNSt4pairIPSt18_Rb_tree_node_baseS1_EC2IRPSt13_Rb_tree_nodeIcERS1_Lb1EEEOT_OT0_
	.section	.text._ZNSt17_Rb_tree_iteratorIcEmmEv,"axG",@progbits,_ZNSt17_Rb_tree_iteratorIcEmmEv,comdat
	.align	2
	.weak	_ZNSt17_Rb_tree_iteratorIcEmmEv
	.type	_ZNSt17_Rb_tree_iteratorIcEmmEv, %function
_ZNSt17_Rb_tree_iteratorIcEmmEv:
.LFB11368:
	.cfi_startproc
	stp	x29, x30, [sp, -32]!
	.cfi_def_cfa_offset 32
	.cfi_offset 29, -32
	.cfi_offset 30, -24
	mov	x29, sp
	str	x0, [sp, 24]
	ldr	x0, [sp, 24]
	ldr	x0, [x0]
	bl	_ZSt18_Rb_tree_decrementPSt18_Rb_tree_node_base
	mov	x1, x0
	ldr	x0, [sp, 24]
	str	x1, [x0]
	ldr	x0, [sp, 24]
	ldp	x29, x30, [sp], 32
	.cfi_restore 30
	.cfi_restore 29
	.cfi_def_cfa_offset 0
	ret
	.cfi_endproc
.LFE11368:
	.size	_ZNSt17_Rb_tree_iteratorIcEmmEv, .-_ZNSt17_Rb_tree_iteratorIcEmmEv
	.section	.text._ZNSt8_Rb_treeIccSt9_IdentityIcESt4lessIcESaIcEE6_S_keyEPKSt18_Rb_tree_node_base,"axG",@progbits,_ZNSt8_Rb_treeIccSt9_IdentityIcESt4lessIcESaIcEE6_S_keyEPKSt18_Rb_tree_node_base,comdat
	.align	2
	.weak	_ZNSt8_Rb_treeIccSt9_IdentityIcESt4lessIcESaIcEE6_S_keyEPKSt18_Rb_tree_node_base
	.type	_ZNSt8_Rb_treeIccSt9_IdentityIcESt4lessIcESaIcEE6_S_keyEPKSt18_Rb_tree_node_base, %function
_ZNSt8_Rb_treeIccSt9_IdentityIcESt4lessIcESaIcEE6_S_keyEPKSt18_Rb_tree_node_base:
.LFB11369:
	.cfi_startproc
	stp	x29, x30, [sp, -32]!
	.cfi_def_cfa_offset 32
	.cfi_offset 29, -32
	.cfi_offset 30, -24
	mov	x29, sp
	str	x0, [sp, 24]
	ldr	x0, [sp, 24]
	bl	_ZNSt8_Rb_treeIccSt9_IdentityIcESt4lessIcESaIcEE6_S_keyEPKSt13_Rb_tree_nodeIcE
	ldp	x29, x30, [sp], 32
	.cfi_restore 30
	.cfi_restore 29
	.cfi_def_cfa_offset 0
	ret
	.cfi_endproc
.LFE11369:
	.size	_ZNSt8_Rb_treeIccSt9_IdentityIcESt4lessIcESaIcEE6_S_keyEPKSt18_Rb_tree_node_base, .-_ZNSt8_Rb_treeIccSt9_IdentityIcESt4lessIcESaIcEE6_S_keyEPKSt18_Rb_tree_node_base
	.section	.text._ZNSt4pairIPSt18_Rb_tree_node_baseS1_EC2IRS1_Lb1EEEOT_RKS1_,"axG",@progbits,_ZNSt4pairIPSt18_Rb_tree_node_baseS1_EC5IRS1_Lb1EEEOT_RKS1_,comdat
	.align	2
	.weak	_ZNSt4pairIPSt18_Rb_tree_node_baseS1_EC2IRS1_Lb1EEEOT_RKS1_
	.type	_ZNSt4pairIPSt18_Rb_tree_node_baseS1_EC2IRS1_Lb1EEEOT_RKS1_, %function
_ZNSt4pairIPSt18_Rb_tree_node_baseS1_EC2IRS1_Lb1EEEOT_RKS1_:
.LFB11371:
	.cfi_startproc
	stp	x29, x30, [sp, -48]!
	.cfi_def_cfa_offset 48
	.cfi_offset 29, -48
	.cfi_offset 30, -40
	mov	x29, sp
	str	x0, [sp, 40]
	str	x1, [sp, 32]
	str	x2, [sp, 24]
	ldr	x0, [sp, 32]
	bl	_ZSt7forwardIRPSt18_Rb_tree_node_baseEOT_RNSt16remove_referenceIS3_E4typeE
	ldr	x1, [x0]
	ldr	x0, [sp, 40]
	str	x1, [x0]
	ldr	x0, [sp, 24]
	ldr	x1, [x0]
	ldr	x0, [sp, 40]
	str	x1, [x0, 8]
	nop
	ldp	x29, x30, [sp], 48
	.cfi_restore 30
	.cfi_restore 29
	.cfi_def_cfa_offset 0
	ret
	.cfi_endproc
.LFE11371:
	.size	_ZNSt4pairIPSt18_Rb_tree_node_baseS1_EC2IRS1_Lb1EEEOT_RKS1_, .-_ZNSt4pairIPSt18_Rb_tree_node_baseS1_EC2IRS1_Lb1EEEOT_RKS1_
	.weak	_ZNSt4pairIPSt18_Rb_tree_node_baseS1_EC1IRS1_Lb1EEEOT_RKS1_
	.set	_ZNSt4pairIPSt18_Rb_tree_node_baseS1_EC1IRS1_Lb1EEEOT_RKS1_,_ZNSt4pairIPSt18_Rb_tree_node_baseS1_EC2IRS1_Lb1EEEOT_RKS1_
	.section	.text._ZNKSt8_Rb_treeIccSt9_IdentityIcESt4lessIcESaIcEE11_Alloc_nodeclIRKcEEPSt13_Rb_tree_nodeIcEOT_,"axG",@progbits,_ZNKSt8_Rb_treeIccSt9_IdentityIcESt4lessIcESaIcEE11_Alloc_nodeclIRKcEEPSt13_Rb_tree_nodeIcEOT_,comdat
	.align	2
	.weak	_ZNKSt8_Rb_treeIccSt9_IdentityIcESt4lessIcESaIcEE11_Alloc_nodeclIRKcEEPSt13_Rb_tree_nodeIcEOT_
	.type	_ZNKSt8_Rb_treeIccSt9_IdentityIcESt4lessIcESaIcEE11_Alloc_nodeclIRKcEEPSt13_Rb_tree_nodeIcEOT_, %function
_ZNKSt8_Rb_treeIccSt9_IdentityIcESt4lessIcESaIcEE11_Alloc_nodeclIRKcEEPSt13_Rb_tree_nodeIcEOT_:
.LFB11373:
	.cfi_startproc
	stp	x29, x30, [sp, -48]!
	.cfi_def_cfa_offset 48
	.cfi_offset 29, -48
	.cfi_offset 30, -40
	mov	x29, sp
	str	x19, [sp, 16]
	.cfi_offset 19, -32
	str	x0, [sp, 40]
	str	x1, [sp, 32]
	ldr	x0, [sp, 40]
	ldr	x19, [x0]
	ldr	x0, [sp, 32]
	bl	_ZSt7forwardIRKcEOT_RNSt16remove_referenceIS2_E4typeE
	mov	x1, x0
	mov	x0, x19
	bl	_ZNSt8_Rb_treeIccSt9_IdentityIcESt4lessIcESaIcEE14_M_create_nodeIJRKcEEEPSt13_Rb_tree_nodeIcEDpOT_
	ldr	x19, [sp, 16]
	ldp	x29, x30, [sp], 48
	.cfi_restore 30
	.cfi_restore 29
	.cfi_restore 19
	.cfi_def_cfa_offset 0
	ret
	.cfi_endproc
.LFE11373:
	.size	_ZNKSt8_Rb_treeIccSt9_IdentityIcESt4lessIcESaIcEE11_Alloc_nodeclIRKcEEPSt13_Rb_tree_nodeIcEOT_, .-_ZNKSt8_Rb_treeIccSt9_IdentityIcESt4lessIcESaIcEE11_Alloc_nodeclIRKcEEPSt13_Rb_tree_nodeIcEOT_
	.section	.text._ZSt7forwardISt17_Rb_tree_iteratorIcEEOT_RNSt16remove_referenceIS2_E4typeE,"axG",@progbits,_ZSt7forwardISt17_Rb_tree_iteratorIcEEOT_RNSt16remove_referenceIS2_E4typeE,comdat
	.align	2
	.weak	_ZSt7forwardISt17_Rb_tree_iteratorIcEEOT_RNSt16remove_referenceIS2_E4typeE
	.type	_ZSt7forwardISt17_Rb_tree_iteratorIcEEOT_RNSt16remove_referenceIS2_E4typeE, %function
_ZSt7forwardISt17_Rb_tree_iteratorIcEEOT_RNSt16remove_referenceIS2_E4typeE:
.LFB11374:
	.cfi_startproc
	sub	sp, sp, #16
	.cfi_def_cfa_offset 16
	str	x0, [sp, 8]
	ldr	x0, [sp, 8]
	add	sp, sp, 16
	.cfi_def_cfa_offset 0
	ret
	.cfi_endproc
.LFE11374:
	.size	_ZSt7forwardISt17_Rb_tree_iteratorIcEEOT_RNSt16remove_referenceIS2_E4typeE, .-_ZSt7forwardISt17_Rb_tree_iteratorIcEEOT_RNSt16remove_referenceIS2_E4typeE
	.section	.text._ZSt11__addressofIcEPT_RS0_,"axG",@progbits,_ZSt11__addressofIcEPT_RS0_,comdat
	.align	2
	.weak	_ZSt11__addressofIcEPT_RS0_
	.type	_ZSt11__addressofIcEPT_RS0_, %function
_ZSt11__addressofIcEPT_RS0_:
.LFB11375:
	.cfi_startproc
	sub	sp, sp, #16
	.cfi_def_cfa_offset 16
	str	x0, [sp, 8]
	ldr	x0, [sp, 8]
	add	sp, sp, 16
	.cfi_def_cfa_offset 0
	ret
	.cfi_endproc
.LFE11375:
	.size	_ZSt11__addressofIcEPT_RS0_, .-_ZSt11__addressofIcEPT_RS0_
	.section	.text._ZSt19__iterator_categoryIPcENSt15iterator_traitsIT_E17iterator_categoryERKS2_,"axG",@progbits,_ZSt19__iterator_categoryIPcENSt15iterator_traitsIT_E17iterator_categoryERKS2_,comdat
	.align	2
	.weak	_ZSt19__iterator_categoryIPcENSt15iterator_traitsIT_E17iterator_categoryERKS2_
	.type	_ZSt19__iterator_categoryIPcENSt15iterator_traitsIT_E17iterator_categoryERKS2_, %function
_ZSt19__iterator_categoryIPcENSt15iterator_traitsIT_E17iterator_categoryERKS2_:
.LFB11446:
	.cfi_startproc
	sub	sp, sp, #16
	.cfi_def_cfa_offset 16
	str	x0, [sp, 8]
	mov	w0, w1
	add	sp, sp, 16
	.cfi_def_cfa_offset 0
	ret
	.cfi_endproc
.LFE11446:
	.size	_ZSt19__iterator_categoryIPcENSt15iterator_traitsIT_E17iterator_categoryERKS2_, .-_ZSt19__iterator_categoryIPcENSt15iterator_traitsIT_E17iterator_categoryERKS2_
	.section	.text._ZNK9__gnu_cxx13new_allocatorIcE8max_sizeEv,"axG",@progbits,_ZNK9__gnu_cxx13new_allocatorIcE8max_sizeEv,comdat
	.align	2
	.weak	_ZNK9__gnu_cxx13new_allocatorIcE8max_sizeEv
	.type	_ZNK9__gnu_cxx13new_allocatorIcE8max_sizeEv, %function
_ZNK9__gnu_cxx13new_allocatorIcE8max_sizeEv:
.LFB11458:
	.cfi_startproc
	stp	x29, x30, [sp, -32]!
	.cfi_def_cfa_offset 32
	.cfi_offset 29, -32
	.cfi_offset 30, -24
	mov	x29, sp
	str	x0, [sp, 24]
	ldr	x0, [sp, 24]
	bl	_ZNK9__gnu_cxx13new_allocatorIcE11_M_max_sizeEv
	ldp	x29, x30, [sp], 32
	.cfi_restore 30
	.cfi_restore 29
	.cfi_def_cfa_offset 0
	ret
	.cfi_endproc
.LFE11458:
	.size	_ZNK9__gnu_cxx13new_allocatorIcE8max_sizeEv, .-_ZNK9__gnu_cxx13new_allocatorIcE8max_sizeEv
	.section	.text._ZNSt27__uninitialized_default_n_1ILb1EE18__uninit_default_nIPcmEET_S3_T0_,"axG",@progbits,_ZNSt27__uninitialized_default_n_1ILb1EE18__uninit_default_nIPcmEET_S3_T0_,comdat
	.align	2
	.weak	_ZNSt27__uninitialized_default_n_1ILb1EE18__uninit_default_nIPcmEET_S3_T0_
	.type	_ZNSt27__uninitialized_default_n_1ILb1EE18__uninit_default_nIPcmEET_S3_T0_, %function
_ZNSt27__uninitialized_default_n_1ILb1EE18__uninit_default_nIPcmEET_S3_T0_:
.LFB11459:
	.cfi_startproc
	stp	x29, x30, [sp, -48]!
	.cfi_def_cfa_offset 48
	.cfi_offset 29, -48
	.cfi_offset 30, -40
	mov	x29, sp
	str	x0, [sp, 24]
	str	x1, [sp, 16]
	ldr	x0, [sp, 16]
	cmp	x0, 0
	beq	.L294
	ldr	x0, [sp, 24]
	bl	_ZSt11__addressofIcEPT_RS0_
	str	x0, [sp, 40]
	ldr	x0, [sp, 40]
	bl	_ZSt10_ConstructIcJEEvPT_DpOT0_
	ldr	x0, [sp, 24]
	add	x0, x0, 1
	str	x0, [sp, 24]
	ldr	x0, [sp, 16]
	sub	x0, x0, #1
	ldr	x2, [sp, 40]
	mov	x1, x0
	ldr	x0, [sp, 24]
	bl	_ZSt6fill_nIPcmcET_S1_T0_RKT1_
	str	x0, [sp, 24]
.L294:
	ldr	x0, [sp, 24]
	ldp	x29, x30, [sp], 48
	.cfi_restore 30
	.cfi_restore 29
	.cfi_def_cfa_offset 0
	ret
	.cfi_endproc
.LFE11459:
	.size	_ZNSt27__uninitialized_default_n_1ILb1EE18__uninit_default_nIPcmEET_S3_T0_, .-_ZNSt27__uninitialized_default_n_1ILb1EE18__uninit_default_nIPcmEET_S3_T0_
	.section	.text._ZNK9__gnu_cxx13new_allocatorISt6vectorIcSaIcEEE8max_sizeEv,"axG",@progbits,_ZNK9__gnu_cxx13new_allocatorISt6vectorIcSaIcEEE8max_sizeEv,comdat
	.align	2
	.weak	_ZNK9__gnu_cxx13new_allocatorISt6vectorIcSaIcEEE8max_sizeEv
	.type	_ZNK9__gnu_cxx13new_allocatorISt6vectorIcSaIcEEE8max_sizeEv, %function
_ZNK9__gnu_cxx13new_allocatorISt6vectorIcSaIcEEE8max_sizeEv:
.LFB11460:
	.cfi_startproc
	stp	x29, x30, [sp, -32]!
	.cfi_def_cfa_offset 32
	.cfi_offset 29, -32
	.cfi_offset 30, -24
	mov	x29, sp
	str	x0, [sp, 24]
	ldr	x0, [sp, 24]
	bl	_ZNK9__gnu_cxx13new_allocatorISt6vectorIcSaIcEEE11_M_max_sizeEv
	ldp	x29, x30, [sp], 32
	.cfi_restore 30
	.cfi_restore 29
	.cfi_def_cfa_offset 0
	ret
	.cfi_endproc
.LFE11460:
	.size	_ZNK9__gnu_cxx13new_allocatorISt6vectorIcSaIcEEE8max_sizeEv, .-_ZNK9__gnu_cxx13new_allocatorISt6vectorIcSaIcEEE8max_sizeEv
	.section	.text._ZNSt16allocator_traitsISaISt6vectorIcSaIcEEEE8allocateERS3_m,"axG",@progbits,_ZNSt16allocator_traitsISaISt6vectorIcSaIcEEEE8allocateERS3_m,comdat
	.align	2
	.weak	_ZNSt16allocator_traitsISaISt6vectorIcSaIcEEEE8allocateERS3_m
	.type	_ZNSt16allocator_traitsISaISt6vectorIcSaIcEEEE8allocateERS3_m, %function
_ZNSt16allocator_traitsISaISt6vectorIcSaIcEEEE8allocateERS3_m:
.LFB11461:
	.cfi_startproc
	stp	x29, x30, [sp, -32]!
	.cfi_def_cfa_offset 32
	.cfi_offset 29, -32
	.cfi_offset 30, -24
	mov	x29, sp
	str	x0, [sp, 24]
	str	x1, [sp, 16]
	mov	x2, 0
	ldr	x1, [sp, 16]
	ldr	x0, [sp, 24]
	bl	_ZN9__gnu_cxx13new_allocatorISt6vectorIcSaIcEEE8allocateEmPKv
	ldp	x29, x30, [sp], 32
	.cfi_restore 30
	.cfi_restore 29
	.cfi_def_cfa_offset 0
	ret
	.cfi_endproc
.LFE11461:
	.size	_ZNSt16allocator_traitsISaISt6vectorIcSaIcEEEE8allocateERS3_m, .-_ZNSt16allocator_traitsISaISt6vectorIcSaIcEEEE8allocateERS3_m
	.section	.text._ZN9__gnu_cxx13new_allocatorISt6vectorIcSaIcEEE10deallocateEPS3_m,"axG",@progbits,_ZN9__gnu_cxx13new_allocatorISt6vectorIcSaIcEEE10deallocateEPS3_m,comdat
	.align	2
	.weak	_ZN9__gnu_cxx13new_allocatorISt6vectorIcSaIcEEE10deallocateEPS3_m
	.type	_ZN9__gnu_cxx13new_allocatorISt6vectorIcSaIcEEE10deallocateEPS3_m, %function
_ZN9__gnu_cxx13new_allocatorISt6vectorIcSaIcEEE10deallocateEPS3_m:
.LFB11462:
	.cfi_startproc
	stp	x29, x30, [sp, -48]!
	.cfi_def_cfa_offset 48
	.cfi_offset 29, -48
	.cfi_offset 30, -40
	mov	x29, sp
	str	x0, [sp, 40]
	str	x1, [sp, 32]
	str	x2, [sp, 24]
	ldr	x1, [sp, 24]
	mov	x0, x1
	lsl	x0, x0, 1
	add	x0, x0, x1
	lsl	x0, x0, 3
	mov	x1, x0
	ldr	x0, [sp, 32]
	bl	_ZdlPvm
	ldp	x29, x30, [sp], 48
	.cfi_restore 30
	.cfi_restore 29
	.cfi_def_cfa_offset 0
	ret
	.cfi_endproc
.LFE11462:
	.size	_ZN9__gnu_cxx13new_allocatorISt6vectorIcSaIcEEE10deallocateEPS3_m, .-_ZN9__gnu_cxx13new_allocatorISt6vectorIcSaIcEEE10deallocateEPS3_m
	.section	.text._ZNSt22__uninitialized_fill_nILb0EE15__uninit_fill_nIPSt6vectorIcSaIcEEmS4_EET_S6_T0_RKT1_,"axG",@progbits,_ZNSt22__uninitialized_fill_nILb0EE15__uninit_fill_nIPSt6vectorIcSaIcEEmS4_EET_S6_T0_RKT1_,comdat
	.align	2
	.weak	_ZNSt22__uninitialized_fill_nILb0EE15__uninit_fill_nIPSt6vectorIcSaIcEEmS4_EET_S6_T0_RKT1_
	.type	_ZNSt22__uninitialized_fill_nILb0EE15__uninit_fill_nIPSt6vectorIcSaIcEEmS4_EET_S6_T0_RKT1_, %function
_ZNSt22__uninitialized_fill_nILb0EE15__uninit_fill_nIPSt6vectorIcSaIcEEmS4_EET_S6_T0_RKT1_:
.LFB11463:
	.cfi_startproc
	.cfi_personality 0x9b,DW.ref.__gxx_personality_v0
	.cfi_lsda 0x1b,.LLSDA11463
	stp	x29, x30, [sp, -80]!
	.cfi_def_cfa_offset 80
	.cfi_offset 29, -80
	.cfi_offset 30, -72
	mov	x29, sp
	str	x19, [sp, 16]
	.cfi_offset 19, -64
	str	x0, [sp, 56]
	str	x1, [sp, 48]
	str	x2, [sp, 40]
	ldr	x0, [sp, 56]
	str	x0, [sp, 72]
	b	.L303
.L304:
	ldr	x0, [sp, 72]
	bl	_ZSt11__addressofISt6vectorIcSaIcEEEPT_RS3_
	ldr	x1, [sp, 40]
.LEHB21:
	bl	_ZSt10_ConstructISt6vectorIcSaIcEEJRKS2_EEvPT_DpOT0_
.LEHE21:
	ldr	x0, [sp, 48]
	sub	x0, x0, #1
	str	x0, [sp, 48]
	ldr	x0, [sp, 72]
	add	x0, x0, 24
	str	x0, [sp, 72]
.L303:
	ldr	x0, [sp, 48]
	cmp	x0, 0
	bne	.L304
	ldr	x0, [sp, 72]
	b	.L310
.L308:
	bl	__cxa_begin_catch
	ldr	x1, [sp, 72]
	ldr	x0, [sp, 56]
.LEHB22:
	bl	_ZSt8_DestroyIPSt6vectorIcSaIcEEEvT_S4_
	bl	__cxa_rethrow
.LEHE22:
.L309:
	mov	x19, x0
	bl	__cxa_end_catch
	mov	x0, x19
.LEHB23:
	bl	_Unwind_Resume
.LEHE23:
.L310:
	ldr	x19, [sp, 16]
	ldp	x29, x30, [sp], 80
	.cfi_restore 30
	.cfi_restore 29
	.cfi_restore 19
	.cfi_def_cfa_offset 0
	ret
	.cfi_endproc
.LFE11463:
	.section	.gcc_except_table
	.align	2
.LLSDA11463:
	.byte	0xff
	.byte	0x9b
	.uleb128 .LLSDATT11463-.LLSDATTD11463
.LLSDATTD11463:
	.byte	0x1
	.uleb128 .LLSDACSE11463-.LLSDACSB11463
.LLSDACSB11463:
	.uleb128 .LEHB21-.LFB11463
	.uleb128 .LEHE21-.LEHB21
	.uleb128 .L308-.LFB11463
	.uleb128 0x1
	.uleb128 .LEHB22-.LFB11463
	.uleb128 .LEHE22-.LEHB22
	.uleb128 .L309-.LFB11463
	.uleb128 0
	.uleb128 .LEHB23-.LFB11463
	.uleb128 .LEHE23-.LEHB23
	.uleb128 0
	.uleb128 0
.LLSDACSE11463:
	.byte	0x1
	.byte	0
	.align	2
	.4byte	0

.LLSDATT11463:
	.section	.text._ZNSt22__uninitialized_fill_nILb0EE15__uninit_fill_nIPSt6vectorIcSaIcEEmS4_EET_S6_T0_RKT1_,"axG",@progbits,_ZNSt22__uninitialized_fill_nILb0EE15__uninit_fill_nIPSt6vectorIcSaIcEEmS4_EET_S6_T0_RKT1_,comdat
	.size	_ZNSt22__uninitialized_fill_nILb0EE15__uninit_fill_nIPSt6vectorIcSaIcEEmS4_EET_S6_T0_RKT1_, .-_ZNSt22__uninitialized_fill_nILb0EE15__uninit_fill_nIPSt6vectorIcSaIcEEmS4_EET_S6_T0_RKT1_
	.section	.text._ZSt11__addressofISt6vectorIcSaIcEEEPT_RS3_,"axG",@progbits,_ZSt11__addressofISt6vectorIcSaIcEEEPT_RS3_,comdat
	.align	2
	.weak	_ZSt11__addressofISt6vectorIcSaIcEEEPT_RS3_
	.type	_ZSt11__addressofISt6vectorIcSaIcEEEPT_RS3_, %function
_ZSt11__addressofISt6vectorIcSaIcEEEPT_RS3_:
.LFB11464:
	.cfi_startproc
	sub	sp, sp, #16
	.cfi_def_cfa_offset 16
	str	x0, [sp, 8]
	ldr	x0, [sp, 8]
	add	sp, sp, 16
	.cfi_def_cfa_offset 0
	ret
	.cfi_endproc
.LFE11464:
	.size	_ZSt11__addressofISt6vectorIcSaIcEEEPT_RS3_, .-_ZSt11__addressofISt6vectorIcSaIcEEEPT_RS3_
	.section	.text._ZSt8_DestroyISt6vectorIcSaIcEEEvPT_,"axG",@progbits,_ZSt8_DestroyISt6vectorIcSaIcEEEvPT_,comdat
	.align	2
	.weak	_ZSt8_DestroyISt6vectorIcSaIcEEEvPT_
	.type	_ZSt8_DestroyISt6vectorIcSaIcEEEvPT_, %function
_ZSt8_DestroyISt6vectorIcSaIcEEEvPT_:
.LFB11465:
	.cfi_startproc
	stp	x29, x30, [sp, -32]!
	.cfi_def_cfa_offset 32
	.cfi_offset 29, -32
	.cfi_offset 30, -24
	mov	x29, sp
	str	x0, [sp, 24]
	ldr	x0, [sp, 24]
	bl	_ZNSt6vectorIcSaIcEED1Ev
	nop
	ldp	x29, x30, [sp], 32
	.cfi_restore 30
	.cfi_restore 29
	.cfi_def_cfa_offset 0
	ret
	.cfi_endproc
.LFE11465:
	.size	_ZSt8_DestroyISt6vectorIcSaIcEEEvPT_, .-_ZSt8_DestroyISt6vectorIcSaIcEEEvPT_
	.section	.text._ZN9__gnu_cxx13new_allocatorIiEC2ERKS1_,"axG",@progbits,_ZN9__gnu_cxx13new_allocatorIiEC5ERKS1_,comdat
	.align	2
	.weak	_ZN9__gnu_cxx13new_allocatorIiEC2ERKS1_
	.type	_ZN9__gnu_cxx13new_allocatorIiEC2ERKS1_, %function
_ZN9__gnu_cxx13new_allocatorIiEC2ERKS1_:
.LFB11467:
	.cfi_startproc
	sub	sp, sp, #16
	.cfi_def_cfa_offset 16
	str	x0, [sp, 8]
	str	x1, [sp]
	nop
	add	sp, sp, 16
	.cfi_def_cfa_offset 0
	ret
	.cfi_endproc
.LFE11467:
	.size	_ZN9__gnu_cxx13new_allocatorIiEC2ERKS1_, .-_ZN9__gnu_cxx13new_allocatorIiEC2ERKS1_
	.weak	_ZN9__gnu_cxx13new_allocatorIiEC1ERKS1_
	.set	_ZN9__gnu_cxx13new_allocatorIiEC1ERKS1_,_ZN9__gnu_cxx13new_allocatorIiEC2ERKS1_
	.section	.text._ZN9__gnu_cxx13new_allocatorIiE10deallocateEPim,"axG",@progbits,_ZN9__gnu_cxx13new_allocatorIiE10deallocateEPim,comdat
	.align	2
	.weak	_ZN9__gnu_cxx13new_allocatorIiE10deallocateEPim
	.type	_ZN9__gnu_cxx13new_allocatorIiE10deallocateEPim, %function
_ZN9__gnu_cxx13new_allocatorIiE10deallocateEPim:
.LFB11469:
	.cfi_startproc
	stp	x29, x30, [sp, -48]!
	.cfi_def_cfa_offset 48
	.cfi_offset 29, -48
	.cfi_offset 30, -40
	mov	x29, sp
	str	x0, [sp, 40]
	str	x1, [sp, 32]
	str	x2, [sp, 24]
	ldr	x0, [sp, 24]
	lsl	x0, x0, 2
	mov	x1, x0
	ldr	x0, [sp, 32]
	bl	_ZdlPvm
	ldp	x29, x30, [sp], 48
	.cfi_restore 30
	.cfi_restore 29
	.cfi_def_cfa_offset 0
	ret
	.cfi_endproc
.LFE11469:
	.size	_ZN9__gnu_cxx13new_allocatorIiE10deallocateEPim, .-_ZN9__gnu_cxx13new_allocatorIiE10deallocateEPim
	.section	.text._ZNSt16allocator_traitsISaIiEE8max_sizeERKS0_,"axG",@progbits,_ZNSt16allocator_traitsISaIiEE8max_sizeERKS0_,comdat
	.align	2
	.weak	_ZNSt16allocator_traitsISaIiEE8max_sizeERKS0_
	.type	_ZNSt16allocator_traitsISaIiEE8max_sizeERKS0_, %function
_ZNSt16allocator_traitsISaIiEE8max_sizeERKS0_:
.LFB11470:
	.cfi_startproc
	stp	x29, x30, [sp, -32]!
	.cfi_def_cfa_offset 32
	.cfi_offset 29, -32
	.cfi_offset 30, -24
	mov	x29, sp
	str	x0, [sp, 24]
	ldr	x0, [sp, 24]
	bl	_ZNK9__gnu_cxx13new_allocatorIiE8max_sizeEv
	ldp	x29, x30, [sp], 32
	.cfi_restore 30
	.cfi_restore 29
	.cfi_def_cfa_offset 0
	ret
	.cfi_endproc
.LFE11470:
	.size	_ZNSt16allocator_traitsISaIiEE8max_sizeERKS0_, .-_ZNSt16allocator_traitsISaIiEE8max_sizeERKS0_
	.section	.text._ZNK9__gnu_cxx13new_allocatorIiE11_M_max_sizeEv,"axG",@progbits,_ZNK9__gnu_cxx13new_allocatorIiE11_M_max_sizeEv,comdat
	.align	2
	.weak	_ZNK9__gnu_cxx13new_allocatorIiE11_M_max_sizeEv
	.type	_ZNK9__gnu_cxx13new_allocatorIiE11_M_max_sizeEv, %function
_ZNK9__gnu_cxx13new_allocatorIiE11_M_max_sizeEv:
.LFB11472:
	.cfi_startproc
	sub	sp, sp, #16
	.cfi_def_cfa_offset 16
	str	x0, [sp, 8]
	mov	x0, 2305843009213693951
	add	sp, sp, 16
	.cfi_def_cfa_offset 0
	ret
	.cfi_endproc
.LFE11472:
	.size	_ZNK9__gnu_cxx13new_allocatorIiE11_M_max_sizeEv, .-_ZNK9__gnu_cxx13new_allocatorIiE11_M_max_sizeEv
	.section	.text._ZN9__gnu_cxx13new_allocatorIiE8allocateEmPKv,"axG",@progbits,_ZN9__gnu_cxx13new_allocatorIiE8allocateEmPKv,comdat
	.align	2
	.weak	_ZN9__gnu_cxx13new_allocatorIiE8allocateEmPKv
	.type	_ZN9__gnu_cxx13new_allocatorIiE8allocateEmPKv, %function
_ZN9__gnu_cxx13new_allocatorIiE8allocateEmPKv:
.LFB11471:
	.cfi_startproc
	stp	x29, x30, [sp, -48]!
	.cfi_def_cfa_offset 48
	.cfi_offset 29, -48
	.cfi_offset 30, -40
	mov	x29, sp
	str	x0, [sp, 40]
	str	x1, [sp, 32]
	str	x2, [sp, 24]
	ldr	x0, [sp, 40]
	bl	_ZNK9__gnu_cxx13new_allocatorIiE11_M_max_sizeEv
	mov	x1, x0
	ldr	x0, [sp, 32]
	cmp	x0, x1
	cset	w0, hi
	and	w0, w0, 255
	and	x0, x0, 255
	cmp	x0, 0
	cset	w0, ne
	and	w0, w0, 255
	cmp	w0, 0
	beq	.L322
	ldr	x1, [sp, 32]
	mov	x0, 4611686018427387903
	cmp	x1, x0
	bls	.L323
	bl	_ZSt28__throw_bad_array_new_lengthv
.L323:
	bl	_ZSt17__throw_bad_allocv
.L322:
	ldr	x0, [sp, 32]
	lsl	x0, x0, 2
	bl	_Znwm
	nop
	ldp	x29, x30, [sp], 48
	.cfi_restore 30
	.cfi_restore 29
	.cfi_def_cfa_offset 0
	ret
	.cfi_endproc
.LFE11471:
	.size	_ZN9__gnu_cxx13new_allocatorIiE8allocateEmPKv, .-_ZN9__gnu_cxx13new_allocatorIiE8allocateEmPKv
	.section	.text._ZNSt20__uninitialized_copyILb1EE13__uninit_copyIPKiPiEET0_T_S6_S5_,"axG",@progbits,_ZNSt20__uninitialized_copyILb1EE13__uninit_copyIPKiPiEET0_T_S6_S5_,comdat
	.align	2
	.weak	_ZNSt20__uninitialized_copyILb1EE13__uninit_copyIPKiPiEET0_T_S6_S5_
	.type	_ZNSt20__uninitialized_copyILb1EE13__uninit_copyIPKiPiEET0_T_S6_S5_, %function
_ZNSt20__uninitialized_copyILb1EE13__uninit_copyIPKiPiEET0_T_S6_S5_:
.LFB11473:
	.cfi_startproc
	stp	x29, x30, [sp, -48]!
	.cfi_def_cfa_offset 48
	.cfi_offset 29, -48
	.cfi_offset 30, -40
	mov	x29, sp
	str	x0, [sp, 40]
	str	x1, [sp, 32]
	str	x2, [sp, 24]
	ldr	x2, [sp, 24]
	ldr	x1, [sp, 32]
	ldr	x0, [sp, 40]
	bl	_ZSt4copyIPKiPiET0_T_S4_S3_
	ldp	x29, x30, [sp], 48
	.cfi_restore 30
	.cfi_restore 29
	.cfi_def_cfa_offset 0
	ret
	.cfi_endproc
.LFE11473:
	.size	_ZNSt20__uninitialized_copyILb1EE13__uninit_copyIPKiPiEET0_T_S6_S5_, .-_ZNSt20__uninitialized_copyILb1EE13__uninit_copyIPKiPiEET0_T_S6_S5_
	.section	.text._ZNSt8_Rb_treeIccSt9_IdentityIcESt4lessIcESaIcEE21_M_get_Node_allocatorEv,"axG",@progbits,_ZNSt8_Rb_treeIccSt9_IdentityIcESt4lessIcESaIcEE21_M_get_Node_allocatorEv,comdat
	.align	2
	.weak	_ZNSt8_Rb_treeIccSt9_IdentityIcESt4lessIcESaIcEE21_M_get_Node_allocatorEv
	.type	_ZNSt8_Rb_treeIccSt9_IdentityIcESt4lessIcESaIcEE21_M_get_Node_allocatorEv, %function
_ZNSt8_Rb_treeIccSt9_IdentityIcESt4lessIcESaIcEE21_M_get_Node_allocatorEv:
.LFB11474:
	.cfi_startproc
	sub	sp, sp, #16
	.cfi_def_cfa_offset 16
	str	x0, [sp, 8]
	ldr	x0, [sp, 8]
	add	sp, sp, 16
	.cfi_def_cfa_offset 0
	ret
	.cfi_endproc
.LFE11474:
	.size	_ZNSt8_Rb_treeIccSt9_IdentityIcESt4lessIcESaIcEE21_M_get_Node_allocatorEv, .-_ZNSt8_Rb_treeIccSt9_IdentityIcESt4lessIcESaIcEE21_M_get_Node_allocatorEv
	.section	.text._ZNSt13_Rb_tree_nodeIcE9_M_valptrEv,"axG",@progbits,_ZNSt13_Rb_tree_nodeIcE9_M_valptrEv,comdat
	.align	2
	.weak	_ZNSt13_Rb_tree_nodeIcE9_M_valptrEv
	.type	_ZNSt13_Rb_tree_nodeIcE9_M_valptrEv, %function
_ZNSt13_Rb_tree_nodeIcE9_M_valptrEv:
.LFB11475:
	.cfi_startproc
	stp	x29, x30, [sp, -32]!
	.cfi_def_cfa_offset 32
	.cfi_offset 29, -32
	.cfi_offset 30, -24
	mov	x29, sp
	str	x0, [sp, 24]
	ldr	x0, [sp, 24]
	add	x0, x0, 32
	bl	_ZN9__gnu_cxx16__aligned_membufIcE6_M_ptrEv
	ldp	x29, x30, [sp], 32
	.cfi_restore 30
	.cfi_restore 29
	.cfi_def_cfa_offset 0
	ret
	.cfi_endproc
.LFE11475:
	.size	_ZNSt13_Rb_tree_nodeIcE9_M_valptrEv, .-_ZNSt13_Rb_tree_nodeIcE9_M_valptrEv
	.section	.text._ZNSt16allocator_traitsISaISt13_Rb_tree_nodeIcEEE7destroyIcEEvRS2_PT_,"axG",@progbits,_ZNSt16allocator_traitsISaISt13_Rb_tree_nodeIcEEE7destroyIcEEvRS2_PT_,comdat
	.align	2
	.weak	_ZNSt16allocator_traitsISaISt13_Rb_tree_nodeIcEEE7destroyIcEEvRS2_PT_
	.type	_ZNSt16allocator_traitsISaISt13_Rb_tree_nodeIcEEE7destroyIcEEvRS2_PT_, %function
_ZNSt16allocator_traitsISaISt13_Rb_tree_nodeIcEEE7destroyIcEEvRS2_PT_:
.LFB11476:
	.cfi_startproc
	stp	x29, x30, [sp, -32]!
	.cfi_def_cfa_offset 32
	.cfi_offset 29, -32
	.cfi_offset 30, -24
	mov	x29, sp
	str	x0, [sp, 24]
	str	x1, [sp, 16]
	ldr	x1, [sp, 16]
	ldr	x0, [sp, 24]
	bl	_ZN9__gnu_cxx13new_allocatorISt13_Rb_tree_nodeIcEE7destroyIcEEvPT_
	nop
	ldp	x29, x30, [sp], 32
	.cfi_restore 30
	.cfi_restore 29
	.cfi_def_cfa_offset 0
	ret
	.cfi_endproc
.LFE11476:
	.size	_ZNSt16allocator_traitsISaISt13_Rb_tree_nodeIcEEE7destroyIcEEvRS2_PT_, .-_ZNSt16allocator_traitsISaISt13_Rb_tree_nodeIcEEE7destroyIcEEvRS2_PT_
	.section	.text._ZNSt16allocator_traitsISaISt13_Rb_tree_nodeIcEEE10deallocateERS2_PS1_m,"axG",@progbits,_ZNSt16allocator_traitsISaISt13_Rb_tree_nodeIcEEE10deallocateERS2_PS1_m,comdat
	.align	2
	.weak	_ZNSt16allocator_traitsISaISt13_Rb_tree_nodeIcEEE10deallocateERS2_PS1_m
	.type	_ZNSt16allocator_traitsISaISt13_Rb_tree_nodeIcEEE10deallocateERS2_PS1_m, %function
_ZNSt16allocator_traitsISaISt13_Rb_tree_nodeIcEEE10deallocateERS2_PS1_m:
.LFB11477:
	.cfi_startproc
	stp	x29, x30, [sp, -48]!
	.cfi_def_cfa_offset 48
	.cfi_offset 29, -48
	.cfi_offset 30, -40
	mov	x29, sp
	str	x0, [sp, 40]
	str	x1, [sp, 32]
	str	x2, [sp, 24]
	ldr	x2, [sp, 24]
	ldr	x1, [sp, 32]
	ldr	x0, [sp, 40]
	bl	_ZN9__gnu_cxx13new_allocatorISt13_Rb_tree_nodeIcEE10deallocateEPS2_m
	nop
	ldp	x29, x30, [sp], 48
	.cfi_restore 30
	.cfi_restore 29
	.cfi_def_cfa_offset 0
	ret
	.cfi_endproc
.LFE11477:
	.size	_ZNSt16allocator_traitsISaISt13_Rb_tree_nodeIcEEE10deallocateERS2_PS1_m, .-_ZNSt16allocator_traitsISaISt13_Rb_tree_nodeIcEEE10deallocateERS2_PS1_m
	.section	.text._ZNKSt13_Rb_tree_nodeIcE9_M_valptrEv,"axG",@progbits,_ZNKSt13_Rb_tree_nodeIcE9_M_valptrEv,comdat
	.align	2
	.weak	_ZNKSt13_Rb_tree_nodeIcE9_M_valptrEv
	.type	_ZNKSt13_Rb_tree_nodeIcE9_M_valptrEv, %function
_ZNKSt13_Rb_tree_nodeIcE9_M_valptrEv:
.LFB11478:
	.cfi_startproc
	stp	x29, x30, [sp, -32]!
	.cfi_def_cfa_offset 32
	.cfi_offset 29, -32
	.cfi_offset 30, -24
	mov	x29, sp
	str	x0, [sp, 24]
	ldr	x0, [sp, 24]
	add	x0, x0, 32
	bl	_ZNK9__gnu_cxx16__aligned_membufIcE6_M_ptrEv
	ldp	x29, x30, [sp], 32
	.cfi_restore 30
	.cfi_restore 29
	.cfi_def_cfa_offset 0
	ret
	.cfi_endproc
.LFE11478:
	.size	_ZNKSt13_Rb_tree_nodeIcE9_M_valptrEv, .-_ZNKSt13_Rb_tree_nodeIcE9_M_valptrEv
	.section	.text._ZSt7forwardIRPSt13_Rb_tree_nodeIcEEOT_RNSt16remove_referenceIS4_E4typeE,"axG",@progbits,_ZSt7forwardIRPSt13_Rb_tree_nodeIcEEOT_RNSt16remove_referenceIS4_E4typeE,comdat
	.align	2
	.weak	_ZSt7forwardIRPSt13_Rb_tree_nodeIcEEOT_RNSt16remove_referenceIS4_E4typeE
	.type	_ZSt7forwardIRPSt13_Rb_tree_nodeIcEEOT_RNSt16remove_referenceIS4_E4typeE, %function
_ZSt7forwardIRPSt13_Rb_tree_nodeIcEEOT_RNSt16remove_referenceIS4_E4typeE:
.LFB11479:
	.cfi_startproc
	sub	sp, sp, #16
	.cfi_def_cfa_offset 16
	str	x0, [sp, 8]
	ldr	x0, [sp, 8]
	add	sp, sp, 16
	.cfi_def_cfa_offset 0
	ret
	.cfi_endproc
.LFE11479:
	.size	_ZSt7forwardIRPSt13_Rb_tree_nodeIcEEOT_RNSt16remove_referenceIS4_E4typeE, .-_ZSt7forwardIRPSt13_Rb_tree_nodeIcEEOT_RNSt16remove_referenceIS4_E4typeE
	.section	.text._ZSt7forwardIRPSt18_Rb_tree_node_baseEOT_RNSt16remove_referenceIS3_E4typeE,"axG",@progbits,_ZSt7forwardIRPSt18_Rb_tree_node_baseEOT_RNSt16remove_referenceIS3_E4typeE,comdat
	.align	2
	.weak	_ZSt7forwardIRPSt18_Rb_tree_node_baseEOT_RNSt16remove_referenceIS3_E4typeE
	.type	_ZSt7forwardIRPSt18_Rb_tree_node_baseEOT_RNSt16remove_referenceIS3_E4typeE, %function
_ZSt7forwardIRPSt18_Rb_tree_node_baseEOT_RNSt16remove_referenceIS3_E4typeE:
.LFB11480:
	.cfi_startproc
	sub	sp, sp, #16
	.cfi_def_cfa_offset 16
	str	x0, [sp, 8]
	ldr	x0, [sp, 8]
	add	sp, sp, 16
	.cfi_def_cfa_offset 0
	ret
	.cfi_endproc
.LFE11480:
	.size	_ZSt7forwardIRPSt18_Rb_tree_node_baseEOT_RNSt16remove_referenceIS3_E4typeE, .-_ZSt7forwardIRPSt18_Rb_tree_node_baseEOT_RNSt16remove_referenceIS3_E4typeE
	.section	.text._ZNSt8_Rb_treeIccSt9_IdentityIcESt4lessIcESaIcEE14_M_create_nodeIJRKcEEEPSt13_Rb_tree_nodeIcEDpOT_,"axG",@progbits,_ZNSt8_Rb_treeIccSt9_IdentityIcESt4lessIcESaIcEE14_M_create_nodeIJRKcEEEPSt13_Rb_tree_nodeIcEDpOT_,comdat
	.align	2
	.weak	_ZNSt8_Rb_treeIccSt9_IdentityIcESt4lessIcESaIcEE14_M_create_nodeIJRKcEEEPSt13_Rb_tree_nodeIcEDpOT_
	.type	_ZNSt8_Rb_treeIccSt9_IdentityIcESt4lessIcESaIcEE14_M_create_nodeIJRKcEEEPSt13_Rb_tree_nodeIcEDpOT_, %function
_ZNSt8_Rb_treeIccSt9_IdentityIcESt4lessIcESaIcEE14_M_create_nodeIJRKcEEEPSt13_Rb_tree_nodeIcEDpOT_:
.LFB11481:
	.cfi_startproc
	stp	x29, x30, [sp, -48]!
	.cfi_def_cfa_offset 48
	.cfi_offset 29, -48
	.cfi_offset 30, -40
	mov	x29, sp
	str	x0, [sp, 24]
	str	x1, [sp, 16]
	ldr	x0, [sp, 24]
	bl	_ZNSt8_Rb_treeIccSt9_IdentityIcESt4lessIcESaIcEE11_M_get_nodeEv
	str	x0, [sp, 40]
	ldr	x0, [sp, 16]
	bl	_ZSt7forwardIRKcEOT_RNSt16remove_referenceIS2_E4typeE
	mov	x2, x0
	ldr	x1, [sp, 40]
	ldr	x0, [sp, 24]
	bl	_ZNSt8_Rb_treeIccSt9_IdentityIcESt4lessIcESaIcEE17_M_construct_nodeIJRKcEEEvPSt13_Rb_tree_nodeIcEDpOT_
	ldr	x0, [sp, 40]
	ldp	x29, x30, [sp], 48
	.cfi_restore 30
	.cfi_restore 29
	.cfi_def_cfa_offset 0
	ret
	.cfi_endproc
.LFE11481:
	.size	_ZNSt8_Rb_treeIccSt9_IdentityIcESt4lessIcESaIcEE14_M_create_nodeIJRKcEEEPSt13_Rb_tree_nodeIcEDpOT_, .-_ZNSt8_Rb_treeIccSt9_IdentityIcESt4lessIcESaIcEE14_M_create_nodeIJRKcEEEPSt13_Rb_tree_nodeIcEDpOT_
	.section	.text._ZSt10_ConstructIcJEEvPT_DpOT0_,"axG",@progbits,_ZSt10_ConstructIcJEEvPT_DpOT0_,comdat
	.align	2
	.weak	_ZSt10_ConstructIcJEEvPT_DpOT0_
	.type	_ZSt10_ConstructIcJEEvPT_DpOT0_, %function
_ZSt10_ConstructIcJEEvPT_DpOT0_:
.LFB11586:
	.cfi_startproc
	stp	x29, x30, [sp, -32]!
	.cfi_def_cfa_offset 32
	.cfi_offset 29, -32
	.cfi_offset 30, -24
	mov	x29, sp
	str	x0, [sp, 24]
	ldr	x0, [sp, 24]
	mov	x1, x0
	mov	x0, 1
	bl	_ZnwmPv
	strb	wzr, [x0]
	nop
	ldp	x29, x30, [sp], 32
	.cfi_restore 30
	.cfi_restore 29
	.cfi_def_cfa_offset 0
	ret
	.cfi_endproc
.LFE11586:
	.size	_ZSt10_ConstructIcJEEvPT_DpOT0_, .-_ZSt10_ConstructIcJEEvPT_DpOT0_
	.section	.text._ZSt6fill_nIPcmcET_S1_T0_RKT1_,"axG",@progbits,_ZSt6fill_nIPcmcET_S1_T0_RKT1_,comdat
	.align	2
	.weak	_ZSt6fill_nIPcmcET_S1_T0_RKT1_
	.type	_ZSt6fill_nIPcmcET_S1_T0_RKT1_, %function
_ZSt6fill_nIPcmcET_S1_T0_RKT1_:
.LFB11587:
	.cfi_startproc
	stp	x29, x30, [sp, -80]!
	.cfi_def_cfa_offset 80
	.cfi_offset 29, -80
	.cfi_offset 30, -72
	mov	x29, sp
	stp	x19, x20, [sp, 16]
	str	x21, [sp, 32]
	.cfi_offset 19, -64
	.cfi_offset 20, -56
	.cfi_offset 21, -48
	str	x0, [sp, 72]
	str	x1, [sp, 64]
	str	x2, [sp, 56]
	ldr	x19, [sp, 72]
	ldr	x0, [sp, 64]
	bl	_ZSt17__size_to_integerm
	mov	x20, x0
	add	x0, sp, 72
	bl	_ZSt19__iterator_categoryIPcENSt15iterator_traitsIT_E17iterator_categoryERKS2_
	mov	w3, w21
	ldr	x2, [sp, 56]
	mov	x1, x20
	mov	x0, x19
	bl	_ZSt10__fill_n_aIPcmcET_S1_T0_RKT1_St26random_access_iterator_tag
	ldp	x19, x20, [sp, 16]
	ldr	x21, [sp, 32]
	ldp	x29, x30, [sp], 80
	.cfi_restore 30
	.cfi_restore 29
	.cfi_restore 21
	.cfi_restore 19
	.cfi_restore 20
	.cfi_def_cfa_offset 0
	ret
	.cfi_endproc
.LFE11587:
	.size	_ZSt6fill_nIPcmcET_S1_T0_RKT1_, .-_ZSt6fill_nIPcmcET_S1_T0_RKT1_
	.section	.text._ZNK9__gnu_cxx13new_allocatorISt6vectorIcSaIcEEE11_M_max_sizeEv,"axG",@progbits,_ZNK9__gnu_cxx13new_allocatorISt6vectorIcSaIcEEE11_M_max_sizeEv,comdat
	.align	2
	.weak	_ZNK9__gnu_cxx13new_allocatorISt6vectorIcSaIcEEE11_M_max_sizeEv
	.type	_ZNK9__gnu_cxx13new_allocatorISt6vectorIcSaIcEEE11_M_max_sizeEv, %function
_ZNK9__gnu_cxx13new_allocatorISt6vectorIcSaIcEEE11_M_max_sizeEv:
.LFB11588:
	.cfi_startproc
	sub	sp, sp, #16
	.cfi_def_cfa_offset 16
	str	x0, [sp, 8]
	mov	x0, 6148914691236517205
	movk	x0, 0x555, lsl 48
	add	sp, sp, 16
	.cfi_def_cfa_offset 0
	ret
	.cfi_endproc
.LFE11588:
	.size	_ZNK9__gnu_cxx13new_allocatorISt6vectorIcSaIcEEE11_M_max_sizeEv, .-_ZNK9__gnu_cxx13new_allocatorISt6vectorIcSaIcEEE11_M_max_sizeEv
	.section	.text._ZN9__gnu_cxx13new_allocatorISt6vectorIcSaIcEEE8allocateEmPKv,"axG",@progbits,_ZN9__gnu_cxx13new_allocatorISt6vectorIcSaIcEEE8allocateEmPKv,comdat
	.align	2
	.weak	_ZN9__gnu_cxx13new_allocatorISt6vectorIcSaIcEEE8allocateEmPKv
	.type	_ZN9__gnu_cxx13new_allocatorISt6vectorIcSaIcEEE8allocateEmPKv, %function
_ZN9__gnu_cxx13new_allocatorISt6vectorIcSaIcEEE8allocateEmPKv:
.LFB11589:
	.cfi_startproc
	stp	x29, x30, [sp, -48]!
	.cfi_def_cfa_offset 48
	.cfi_offset 29, -48
	.cfi_offset 30, -40
	mov	x29, sp
	str	x0, [sp, 40]
	str	x1, [sp, 32]
	str	x2, [sp, 24]
	ldr	x0, [sp, 40]
	bl	_ZNK9__gnu_cxx13new_allocatorISt6vectorIcSaIcEEE11_M_max_sizeEv
	mov	x1, x0
	ldr	x0, [sp, 32]
	cmp	x0, x1
	cset	w0, hi
	and	w0, w0, 255
	and	x0, x0, 255
	cmp	x0, 0
	cset	w0, ne
	and	w0, w0, 255
	cmp	w0, 0
	beq	.L347
	ldr	x1, [sp, 32]
	mov	x0, -6148914691236517206
	movk	x0, 0xaaa, lsl 48
	cmp	x1, x0
	bls	.L348
	bl	_ZSt28__throw_bad_array_new_lengthv
.L348:
	bl	_ZSt17__throw_bad_allocv
.L347:
	ldr	x1, [sp, 32]
	mov	x0, x1
	lsl	x0, x0, 1
	add	x0, x0, x1
	lsl	x0, x0, 3
	bl	_Znwm
	nop
	ldp	x29, x30, [sp], 48
	.cfi_restore 30
	.cfi_restore 29
	.cfi_def_cfa_offset 0
	ret
	.cfi_endproc
.LFE11589:
	.size	_ZN9__gnu_cxx13new_allocatorISt6vectorIcSaIcEEE8allocateEmPKv, .-_ZN9__gnu_cxx13new_allocatorISt6vectorIcSaIcEEE8allocateEmPKv
	.section	.text._ZSt10_ConstructISt6vectorIcSaIcEEJRKS2_EEvPT_DpOT0_,"axG",@progbits,_ZSt10_ConstructISt6vectorIcSaIcEEJRKS2_EEvPT_DpOT0_,comdat
	.align	2
	.weak	_ZSt10_ConstructISt6vectorIcSaIcEEJRKS2_EEvPT_DpOT0_
	.type	_ZSt10_ConstructISt6vectorIcSaIcEEJRKS2_EEvPT_DpOT0_, %function
_ZSt10_ConstructISt6vectorIcSaIcEEJRKS2_EEvPT_DpOT0_:
.LFB11590:
	.cfi_startproc
	.cfi_personality 0x9b,DW.ref.__gxx_personality_v0
	.cfi_lsda 0x1b,.LLSDA11590
	stp	x29, x30, [sp, -64]!
	.cfi_def_cfa_offset 64
	.cfi_offset 29, -64
	.cfi_offset 30, -56
	mov	x29, sp
	stp	x19, x20, [sp, 16]
	str	x21, [sp, 32]
	.cfi_offset 19, -48
	.cfi_offset 20, -40
	.cfi_offset 21, -32
	str	x0, [sp, 56]
	str	x1, [sp, 48]
	ldr	x0, [sp, 48]
	bl	_ZSt7forwardIRKSt6vectorIcSaIcEEEOT_RNSt16remove_referenceIS5_E4typeE
	mov	x21, x0
	ldr	x19, [sp, 56]
	mov	x1, x19
	mov	x0, 24
	bl	_ZnwmPv
	mov	x20, x0
	mov	x1, x21
	mov	x0, x20
.LEHB24:
	bl	_ZNSt6vectorIcSaIcEEC1ERKS1_
.LEHE24:
	b	.L353
.L352:
	mov	x21, x0
	mov	x1, x19
	mov	x0, x20
	bl	_ZdlPvS_
	mov	x0, x21
.LEHB25:
	bl	_Unwind_Resume
.LEHE25:
.L353:
	ldp	x19, x20, [sp, 16]
	ldr	x21, [sp, 32]
	ldp	x29, x30, [sp], 64
	.cfi_restore 30
	.cfi_restore 29
	.cfi_restore 21
	.cfi_restore 19
	.cfi_restore 20
	.cfi_def_cfa_offset 0
	ret
	.cfi_endproc
.LFE11590:
	.section	.gcc_except_table
.LLSDA11590:
	.byte	0xff
	.byte	0xff
	.byte	0x1
	.uleb128 .LLSDACSE11590-.LLSDACSB11590
.LLSDACSB11590:
	.uleb128 .LEHB24-.LFB11590
	.uleb128 .LEHE24-.LEHB24
	.uleb128 .L352-.LFB11590
	.uleb128 0
	.uleb128 .LEHB25-.LFB11590
	.uleb128 .LEHE25-.LEHB25
	.uleb128 0
	.uleb128 0
.LLSDACSE11590:
	.section	.text._ZSt10_ConstructISt6vectorIcSaIcEEJRKS2_EEvPT_DpOT0_,"axG",@progbits,_ZSt10_ConstructISt6vectorIcSaIcEEJRKS2_EEvPT_DpOT0_,comdat
	.size	_ZSt10_ConstructISt6vectorIcSaIcEEJRKS2_EEvPT_DpOT0_, .-_ZSt10_ConstructISt6vectorIcSaIcEEJRKS2_EEvPT_DpOT0_
	.section	.text._ZNK9__gnu_cxx13new_allocatorIiE8max_sizeEv,"axG",@progbits,_ZNK9__gnu_cxx13new_allocatorIiE8max_sizeEv,comdat
	.align	2
	.weak	_ZNK9__gnu_cxx13new_allocatorIiE8max_sizeEv
	.type	_ZNK9__gnu_cxx13new_allocatorIiE8max_sizeEv, %function
_ZNK9__gnu_cxx13new_allocatorIiE8max_sizeEv:
.LFB11591:
	.cfi_startproc
	stp	x29, x30, [sp, -32]!
	.cfi_def_cfa_offset 32
	.cfi_offset 29, -32
	.cfi_offset 30, -24
	mov	x29, sp
	str	x0, [sp, 24]
	ldr	x0, [sp, 24]
	bl	_ZNK9__gnu_cxx13new_allocatorIiE11_M_max_sizeEv
	ldp	x29, x30, [sp], 32
	.cfi_restore 30
	.cfi_restore 29
	.cfi_def_cfa_offset 0
	ret
	.cfi_endproc
.LFE11591:
	.size	_ZNK9__gnu_cxx13new_allocatorIiE8max_sizeEv, .-_ZNK9__gnu_cxx13new_allocatorIiE8max_sizeEv
	.section	.text._ZSt4copyIPKiPiET0_T_S4_S3_,"axG",@progbits,_ZSt4copyIPKiPiET0_T_S4_S3_,comdat
	.align	2
	.weak	_ZSt4copyIPKiPiET0_T_S4_S3_
	.type	_ZSt4copyIPKiPiET0_T_S4_S3_, %function
_ZSt4copyIPKiPiET0_T_S4_S3_:
.LFB11592:
	.cfi_startproc
	stp	x29, x30, [sp, -64]!
	.cfi_def_cfa_offset 64
	.cfi_offset 29, -64
	.cfi_offset 30, -56
	mov	x29, sp
	str	x19, [sp, 16]
	.cfi_offset 19, -48
	str	x0, [sp, 56]
	str	x1, [sp, 48]
	str	x2, [sp, 40]
	ldr	x0, [sp, 56]
	bl	_ZSt12__miter_baseIPKiET_S2_
	mov	x19, x0
	ldr	x0, [sp, 48]
	bl	_ZSt12__miter_baseIPKiET_S2_
	ldr	x2, [sp, 40]
	mov	x1, x0
	mov	x0, x19
	bl	_ZSt13__copy_move_aILb0EPKiPiET1_T0_S4_S3_
	ldr	x19, [sp, 16]
	ldp	x29, x30, [sp], 64
	.cfi_restore 30
	.cfi_restore 29
	.cfi_restore 19
	.cfi_def_cfa_offset 0
	ret
	.cfi_endproc
.LFE11592:
	.size	_ZSt4copyIPKiPiET0_T_S4_S3_, .-_ZSt4copyIPKiPiET0_T_S4_S3_
	.section	.text._ZN9__gnu_cxx16__aligned_membufIcE6_M_ptrEv,"axG",@progbits,_ZN9__gnu_cxx16__aligned_membufIcE6_M_ptrEv,comdat
	.align	2
	.weak	_ZN9__gnu_cxx16__aligned_membufIcE6_M_ptrEv
	.type	_ZN9__gnu_cxx16__aligned_membufIcE6_M_ptrEv, %function
_ZN9__gnu_cxx16__aligned_membufIcE6_M_ptrEv:
.LFB11593:
	.cfi_startproc
	stp	x29, x30, [sp, -32]!
	.cfi_def_cfa_offset 32
	.cfi_offset 29, -32
	.cfi_offset 30, -24
	mov	x29, sp
	str	x0, [sp, 24]
	ldr	x0, [sp, 24]
	bl	_ZN9__gnu_cxx16__aligned_membufIcE7_M_addrEv
	ldp	x29, x30, [sp], 32
	.cfi_restore 30
	.cfi_restore 29
	.cfi_def_cfa_offset 0
	ret
	.cfi_endproc
.LFE11593:
	.size	_ZN9__gnu_cxx16__aligned_membufIcE6_M_ptrEv, .-_ZN9__gnu_cxx16__aligned_membufIcE6_M_ptrEv
	.section	.text._ZN9__gnu_cxx13new_allocatorISt13_Rb_tree_nodeIcEE7destroyIcEEvPT_,"axG",@progbits,_ZN9__gnu_cxx13new_allocatorISt13_Rb_tree_nodeIcEE7destroyIcEEvPT_,comdat
	.align	2
	.weak	_ZN9__gnu_cxx13new_allocatorISt13_Rb_tree_nodeIcEE7destroyIcEEvPT_
	.type	_ZN9__gnu_cxx13new_allocatorISt13_Rb_tree_nodeIcEE7destroyIcEEvPT_, %function
_ZN9__gnu_cxx13new_allocatorISt13_Rb_tree_nodeIcEE7destroyIcEEvPT_:
.LFB11594:
	.cfi_startproc
	sub	sp, sp, #16
	.cfi_def_cfa_offset 16
	str	x0, [sp, 8]
	str	x1, [sp]
	nop
	add	sp, sp, 16
	.cfi_def_cfa_offset 0
	ret
	.cfi_endproc
.LFE11594:
	.size	_ZN9__gnu_cxx13new_allocatorISt13_Rb_tree_nodeIcEE7destroyIcEEvPT_, .-_ZN9__gnu_cxx13new_allocatorISt13_Rb_tree_nodeIcEE7destroyIcEEvPT_
	.section	.text._ZN9__gnu_cxx13new_allocatorISt13_Rb_tree_nodeIcEE10deallocateEPS2_m,"axG",@progbits,_ZN9__gnu_cxx13new_allocatorISt13_Rb_tree_nodeIcEE10deallocateEPS2_m,comdat
	.align	2
	.weak	_ZN9__gnu_cxx13new_allocatorISt13_Rb_tree_nodeIcEE10deallocateEPS2_m
	.type	_ZN9__gnu_cxx13new_allocatorISt13_Rb_tree_nodeIcEE10deallocateEPS2_m, %function
_ZN9__gnu_cxx13new_allocatorISt13_Rb_tree_nodeIcEE10deallocateEPS2_m:
.LFB11595:
	.cfi_startproc
	stp	x29, x30, [sp, -48]!
	.cfi_def_cfa_offset 48
	.cfi_offset 29, -48
	.cfi_offset 30, -40
	mov	x29, sp
	str	x0, [sp, 40]
	str	x1, [sp, 32]
	str	x2, [sp, 24]
	ldr	x1, [sp, 24]
	mov	x0, x1
	lsl	x0, x0, 2
	add	x0, x0, x1
	lsl	x0, x0, 3
	mov	x1, x0
	ldr	x0, [sp, 32]
	bl	_ZdlPvm
	ldp	x29, x30, [sp], 48
	.cfi_restore 30
	.cfi_restore 29
	.cfi_def_cfa_offset 0
	ret
	.cfi_endproc
.LFE11595:
	.size	_ZN9__gnu_cxx13new_allocatorISt13_Rb_tree_nodeIcEE10deallocateEPS2_m, .-_ZN9__gnu_cxx13new_allocatorISt13_Rb_tree_nodeIcEE10deallocateEPS2_m
	.section	.text._ZNK9__gnu_cxx16__aligned_membufIcE6_M_ptrEv,"axG",@progbits,_ZNK9__gnu_cxx16__aligned_membufIcE6_M_ptrEv,comdat
	.align	2
	.weak	_ZNK9__gnu_cxx16__aligned_membufIcE6_M_ptrEv
	.type	_ZNK9__gnu_cxx16__aligned_membufIcE6_M_ptrEv, %function
_ZNK9__gnu_cxx16__aligned_membufIcE6_M_ptrEv:
.LFB11596:
	.cfi_startproc
	stp	x29, x30, [sp, -32]!
	.cfi_def_cfa_offset 32
	.cfi_offset 29, -32
	.cfi_offset 30, -24
	mov	x29, sp
	str	x0, [sp, 24]
	ldr	x0, [sp, 24]
	bl	_ZNK9__gnu_cxx16__aligned_membufIcE7_M_addrEv
	ldp	x29, x30, [sp], 32
	.cfi_restore 30
	.cfi_restore 29
	.cfi_def_cfa_offset 0
	ret
	.cfi_endproc
.LFE11596:
	.size	_ZNK9__gnu_cxx16__aligned_membufIcE6_M_ptrEv, .-_ZNK9__gnu_cxx16__aligned_membufIcE6_M_ptrEv
	.section	.text._ZNSt8_Rb_treeIccSt9_IdentityIcESt4lessIcESaIcEE11_M_get_nodeEv,"axG",@progbits,_ZNSt8_Rb_treeIccSt9_IdentityIcESt4lessIcESaIcEE11_M_get_nodeEv,comdat
	.align	2
	.weak	_ZNSt8_Rb_treeIccSt9_IdentityIcESt4lessIcESaIcEE11_M_get_nodeEv
	.type	_ZNSt8_Rb_treeIccSt9_IdentityIcESt4lessIcESaIcEE11_M_get_nodeEv, %function
_ZNSt8_Rb_treeIccSt9_IdentityIcESt4lessIcESaIcEE11_M_get_nodeEv:
.LFB11597:
	.cfi_startproc
	stp	x29, x30, [sp, -32]!
	.cfi_def_cfa_offset 32
	.cfi_offset 29, -32
	.cfi_offset 30, -24
	mov	x29, sp
	str	x0, [sp, 24]
	ldr	x0, [sp, 24]
	bl	_ZNSt8_Rb_treeIccSt9_IdentityIcESt4lessIcESaIcEE21_M_get_Node_allocatorEv
	mov	x1, 1
	bl	_ZNSt16allocator_traitsISaISt13_Rb_tree_nodeIcEEE8allocateERS2_m
	ldp	x29, x30, [sp], 32
	.cfi_restore 30
	.cfi_restore 29
	.cfi_def_cfa_offset 0
	ret
	.cfi_endproc
.LFE11597:
	.size	_ZNSt8_Rb_treeIccSt9_IdentityIcESt4lessIcESaIcEE11_M_get_nodeEv, .-_ZNSt8_Rb_treeIccSt9_IdentityIcESt4lessIcESaIcEE11_M_get_nodeEv
	.section	.text._ZNSt8_Rb_treeIccSt9_IdentityIcESt4lessIcESaIcEE17_M_construct_nodeIJRKcEEEvPSt13_Rb_tree_nodeIcEDpOT_,"axG",@progbits,_ZNSt8_Rb_treeIccSt9_IdentityIcESt4lessIcESaIcEE17_M_construct_nodeIJRKcEEEvPSt13_Rb_tree_nodeIcEDpOT_,comdat
	.align	2
	.weak	_ZNSt8_Rb_treeIccSt9_IdentityIcESt4lessIcESaIcEE17_M_construct_nodeIJRKcEEEvPSt13_Rb_tree_nodeIcEDpOT_
	.type	_ZNSt8_Rb_treeIccSt9_IdentityIcESt4lessIcESaIcEE17_M_construct_nodeIJRKcEEEvPSt13_Rb_tree_nodeIcEDpOT_, %function
_ZNSt8_Rb_treeIccSt9_IdentityIcESt4lessIcESaIcEE17_M_construct_nodeIJRKcEEEvPSt13_Rb_tree_nodeIcEDpOT_:
.LFB11598:
	.cfi_startproc
	stp	x29, x30, [sp, -64]!
	.cfi_def_cfa_offset 64
	.cfi_offset 29, -64
	.cfi_offset 30, -56
	mov	x29, sp
	stp	x19, x20, [sp, 16]
	.cfi_offset 19, -48
	.cfi_offset 20, -40
	str	x0, [sp, 56]
	str	x1, [sp, 48]
	str	x2, [sp, 40]
	ldr	x0, [sp, 48]
	mov	x1, x0
	mov	x0, 40
	bl	_ZnwmPv
	ldr	x0, [sp, 56]
	bl	_ZNSt8_Rb_treeIccSt9_IdentityIcESt4lessIcESaIcEE21_M_get_Node_allocatorEv
	mov	x19, x0
	ldr	x0, [sp, 48]
	bl	_ZNSt13_Rb_tree_nodeIcE9_M_valptrEv
	mov	x20, x0
	ldr	x0, [sp, 40]
	bl	_ZSt7forwardIRKcEOT_RNSt16remove_referenceIS2_E4typeE
	mov	x2, x0
	mov	x1, x20
	mov	x0, x19
	bl	_ZNSt16allocator_traitsISaISt13_Rb_tree_nodeIcEEE9constructIcJRKcEEEvRS2_PT_DpOT0_
	nop
	ldp	x19, x20, [sp, 16]
	ldp	x29, x30, [sp], 64
	.cfi_restore 30
	.cfi_restore 29
	.cfi_restore 19
	.cfi_restore 20
	.cfi_def_cfa_offset 0
	ret
	.cfi_endproc
.LFE11598:
	.size	_ZNSt8_Rb_treeIccSt9_IdentityIcESt4lessIcESaIcEE17_M_construct_nodeIJRKcEEEvPSt13_Rb_tree_nodeIcEDpOT_, .-_ZNSt8_Rb_treeIccSt9_IdentityIcESt4lessIcESaIcEE17_M_construct_nodeIJRKcEEEvPSt13_Rb_tree_nodeIcEDpOT_
	.section	.text._ZSt10__fill_n_aIPcmcET_S1_T0_RKT1_St26random_access_iterator_tag,"axG",@progbits,_ZSt10__fill_n_aIPcmcET_S1_T0_RKT1_St26random_access_iterator_tag,comdat
	.align	2
	.weak	_ZSt10__fill_n_aIPcmcET_S1_T0_RKT1_St26random_access_iterator_tag
	.type	_ZSt10__fill_n_aIPcmcET_S1_T0_RKT1_St26random_access_iterator_tag, %function
_ZSt10__fill_n_aIPcmcET_S1_T0_RKT1_St26random_access_iterator_tag:
.LFB11666:
	.cfi_startproc
	stp	x29, x30, [sp, -48]!
	.cfi_def_cfa_offset 48
	.cfi_offset 29, -48
	.cfi_offset 30, -40
	mov	x29, sp
	str	x0, [sp, 40]
	str	x1, [sp, 32]
	str	x2, [sp, 24]
	strb	w3, [sp, 16]
	ldr	x0, [sp, 32]
	cmp	x0, 0
	bne	.L369
	ldr	x0, [sp, 40]
	b	.L370
.L369:
	ldr	x1, [sp, 40]
	ldr	x0, [sp, 32]
	add	x0, x1, x0
	ldr	x2, [sp, 24]
	mov	x1, x0
	ldr	x0, [sp, 40]
	bl	_ZSt8__fill_aIPccEvT_S1_RKT0_
	ldr	x1, [sp, 40]
	ldr	x0, [sp, 32]
	add	x0, x1, x0
.L370:
	ldp	x29, x30, [sp], 48
	.cfi_restore 30
	.cfi_restore 29
	.cfi_def_cfa_offset 0
	ret
	.cfi_endproc
.LFE11666:
	.size	_ZSt10__fill_n_aIPcmcET_S1_T0_RKT1_St26random_access_iterator_tag, .-_ZSt10__fill_n_aIPcmcET_S1_T0_RKT1_St26random_access_iterator_tag
	.section	.text._ZSt7forwardIRKSt6vectorIcSaIcEEEOT_RNSt16remove_referenceIS5_E4typeE,"axG",@progbits,_ZSt7forwardIRKSt6vectorIcSaIcEEEOT_RNSt16remove_referenceIS5_E4typeE,comdat
	.align	2
	.weak	_ZSt7forwardIRKSt6vectorIcSaIcEEEOT_RNSt16remove_referenceIS5_E4typeE
	.type	_ZSt7forwardIRKSt6vectorIcSaIcEEEOT_RNSt16remove_referenceIS5_E4typeE, %function
_ZSt7forwardIRKSt6vectorIcSaIcEEEOT_RNSt16remove_referenceIS5_E4typeE:
.LFB11667:
	.cfi_startproc
	sub	sp, sp, #16
	.cfi_def_cfa_offset 16
	str	x0, [sp, 8]
	ldr	x0, [sp, 8]
	add	sp, sp, 16
	.cfi_def_cfa_offset 0
	ret
	.cfi_endproc
.LFE11667:
	.size	_ZSt7forwardIRKSt6vectorIcSaIcEEEOT_RNSt16remove_referenceIS5_E4typeE, .-_ZSt7forwardIRKSt6vectorIcSaIcEEEOT_RNSt16remove_referenceIS5_E4typeE
	.section	.text._ZNSt6vectorIcSaIcEEC2ERKS1_,"axG",@progbits,_ZNSt6vectorIcSaIcEEC5ERKS1_,comdat
	.align	2
	.weak	_ZNSt6vectorIcSaIcEEC2ERKS1_
	.type	_ZNSt6vectorIcSaIcEEC2ERKS1_, %function
_ZNSt6vectorIcSaIcEEC2ERKS1_:
.LFB11669:
	.cfi_startproc
	.cfi_personality 0x9b,DW.ref.__gxx_personality_v0
	.cfi_lsda 0x1b,.LLSDA11669
	stp	x29, x30, [sp, -80]!
	.cfi_def_cfa_offset 80
	.cfi_offset 29, -80
	.cfi_offset 30, -72
	mov	x29, sp
	stp	x19, x20, [sp, 16]
	str	x21, [sp, 32]
	.cfi_offset 19, -64
	.cfi_offset 20, -56
	.cfi_offset 21, -48
	str	x0, [sp, 56]
	str	x1, [sp, 48]
	ldr	x19, [sp, 56]
	ldr	x0, [sp, 48]
	bl	_ZNKSt6vectorIcSaIcEE4sizeEv
	mov	x20, x0
	ldr	x0, [sp, 48]
	bl	_ZNKSt12_Vector_baseIcSaIcEE19_M_get_Tp_allocatorEv
	mov	x1, x0
	add	x0, sp, 72
	mov	x8, x0
	mov	x0, x1
	bl	_ZN9__gnu_cxx14__alloc_traitsISaIcEcE17_S_select_on_copyERKS1_
	add	x0, sp, 72
	mov	x2, x0
	mov	x1, x20
	mov	x0, x19
.LEHB26:
	bl	_ZNSt12_Vector_baseIcSaIcEEC2EmRKS0_
.LEHE26:
	add	x0, sp, 72
	bl	_ZNSaIcED1Ev
	ldr	x0, [sp, 48]
	bl	_ZNKSt6vectorIcSaIcEE5beginEv
	mov	x20, x0
	ldr	x0, [sp, 48]
	bl	_ZNKSt6vectorIcSaIcEE3endEv
	mov	x21, x0
	ldr	x0, [sp, 56]
	ldr	x19, [x0]
	ldr	x0, [sp, 56]
	bl	_ZNSt12_Vector_baseIcSaIcEE19_M_get_Tp_allocatorEv
	mov	x3, x0
	mov	x2, x19
	mov	x1, x21
	mov	x0, x20
.LEHB27:
	bl	_ZSt22__uninitialized_copy_aIN9__gnu_cxx17__normal_iteratorIPKcSt6vectorIcSaIcEEEEPccET0_T_SA_S9_RSaIT1_E
.LEHE27:
	mov	x1, x0
	ldr	x0, [sp, 56]
	str	x1, [x0, 8]
	b	.L378
.L376:
	mov	x19, x0
	add	x0, sp, 72
	bl	_ZNSaIcED1Ev
	mov	x0, x19
.LEHB28:
	bl	_Unwind_Resume
.L377:
	mov	x19, x0
	ldr	x0, [sp, 56]
	bl	_ZNSt12_Vector_baseIcSaIcEED2Ev
	mov	x0, x19
	bl	_Unwind_Resume
.LEHE28:
.L378:
	ldp	x19, x20, [sp, 16]
	ldr	x21, [sp, 32]
	ldp	x29, x30, [sp], 80
	.cfi_restore 30
	.cfi_restore 29
	.cfi_restore 21
	.cfi_restore 19
	.cfi_restore 20
	.cfi_def_cfa_offset 0
	ret
	.cfi_endproc
.LFE11669:
	.section	.gcc_except_table
.LLSDA11669:
	.byte	0xff
	.byte	0xff
	.byte	0x1
	.uleb128 .LLSDACSE11669-.LLSDACSB11669
.LLSDACSB11669:
	.uleb128 .LEHB26-.LFB11669
	.uleb128 .LEHE26-.LEHB26
	.uleb128 .L376-.LFB11669
	.uleb128 0
	.uleb128 .LEHB27-.LFB11669
	.uleb128 .LEHE27-.LEHB27
	.uleb128 .L377-.LFB11669
	.uleb128 0
	.uleb128 .LEHB28-.LFB11669
	.uleb128 .LEHE28-.LEHB28
	.uleb128 0
	.uleb128 0
.LLSDACSE11669:
	.section	.text._ZNSt6vectorIcSaIcEEC2ERKS1_,"axG",@progbits,_ZNSt6vectorIcSaIcEEC5ERKS1_,comdat
	.size	_ZNSt6vectorIcSaIcEEC2ERKS1_, .-_ZNSt6vectorIcSaIcEEC2ERKS1_
	.weak	_ZNSt6vectorIcSaIcEEC1ERKS1_
	.set	_ZNSt6vectorIcSaIcEEC1ERKS1_,_ZNSt6vectorIcSaIcEEC2ERKS1_
	.section	.text._ZSt12__miter_baseIPKiET_S2_,"axG",@progbits,_ZSt12__miter_baseIPKiET_S2_,comdat
	.align	2
	.weak	_ZSt12__miter_baseIPKiET_S2_
	.type	_ZSt12__miter_baseIPKiET_S2_, %function
_ZSt12__miter_baseIPKiET_S2_:
.LFB11671:
	.cfi_startproc
	sub	sp, sp, #16
	.cfi_def_cfa_offset 16
	str	x0, [sp, 8]
	ldr	x0, [sp, 8]
	add	sp, sp, 16
	.cfi_def_cfa_offset 0
	ret
	.cfi_endproc
.LFE11671:
	.size	_ZSt12__miter_baseIPKiET_S2_, .-_ZSt12__miter_baseIPKiET_S2_
	.section	.text._ZSt13__copy_move_aILb0EPKiPiET1_T0_S4_S3_,"axG",@progbits,_ZSt13__copy_move_aILb0EPKiPiET1_T0_S4_S3_,comdat
	.align	2
	.weak	_ZSt13__copy_move_aILb0EPKiPiET1_T0_S4_S3_
	.type	_ZSt13__copy_move_aILb0EPKiPiET1_T0_S4_S3_, %function
_ZSt13__copy_move_aILb0EPKiPiET1_T0_S4_S3_:
.LFB11672:
	.cfi_startproc
	stp	x29, x30, [sp, -64]!
	.cfi_def_cfa_offset 64
	.cfi_offset 29, -64
	.cfi_offset 30, -56
	mov	x29, sp
	stp	x19, x20, [sp, 16]
	.cfi_offset 19, -48
	.cfi_offset 20, -40
	str	x0, [sp, 56]
	str	x1, [sp, 48]
	str	x2, [sp, 40]
	ldr	x0, [sp, 56]
	bl	_ZSt12__niter_baseIPKiET_S2_
	mov	x19, x0
	ldr	x0, [sp, 48]
	bl	_ZSt12__niter_baseIPKiET_S2_
	mov	x20, x0
	ldr	x0, [sp, 40]
	bl	_ZSt12__niter_baseIPiET_S1_
	mov	x2, x0
	mov	x1, x20
	mov	x0, x19
	bl	_ZSt14__copy_move_a1ILb0EPKiPiET1_T0_S4_S3_
	mov	x1, x0
	add	x0, sp, 40
	bl	_ZSt12__niter_wrapIPiET_RKS1_S1_
	ldp	x19, x20, [sp, 16]
	ldp	x29, x30, [sp], 64
	.cfi_restore 30
	.cfi_restore 29
	.cfi_restore 19
	.cfi_restore 20
	.cfi_def_cfa_offset 0
	ret
	.cfi_endproc
.LFE11672:
	.size	_ZSt13__copy_move_aILb0EPKiPiET1_T0_S4_S3_, .-_ZSt13__copy_move_aILb0EPKiPiET1_T0_S4_S3_
	.section	.text._ZN9__gnu_cxx16__aligned_membufIcE7_M_addrEv,"axG",@progbits,_ZN9__gnu_cxx16__aligned_membufIcE7_M_addrEv,comdat
	.align	2
	.weak	_ZN9__gnu_cxx16__aligned_membufIcE7_M_addrEv
	.type	_ZN9__gnu_cxx16__aligned_membufIcE7_M_addrEv, %function
_ZN9__gnu_cxx16__aligned_membufIcE7_M_addrEv:
.LFB11675:
	.cfi_startproc
	sub	sp, sp, #16
	.cfi_def_cfa_offset 16
	str	x0, [sp, 8]
	ldr	x0, [sp, 8]
	add	sp, sp, 16
	.cfi_def_cfa_offset 0
	ret
	.cfi_endproc
.LFE11675:
	.size	_ZN9__gnu_cxx16__aligned_membufIcE7_M_addrEv, .-_ZN9__gnu_cxx16__aligned_membufIcE7_M_addrEv
	.section	.text._ZNK9__gnu_cxx16__aligned_membufIcE7_M_addrEv,"axG",@progbits,_ZNK9__gnu_cxx16__aligned_membufIcE7_M_addrEv,comdat
	.align	2
	.weak	_ZNK9__gnu_cxx16__aligned_membufIcE7_M_addrEv
	.type	_ZNK9__gnu_cxx16__aligned_membufIcE7_M_addrEv, %function
_ZNK9__gnu_cxx16__aligned_membufIcE7_M_addrEv:
.LFB11676:
	.cfi_startproc
	sub	sp, sp, #16
	.cfi_def_cfa_offset 16
	str	x0, [sp, 8]
	ldr	x0, [sp, 8]
	add	sp, sp, 16
	.cfi_def_cfa_offset 0
	ret
	.cfi_endproc
.LFE11676:
	.size	_ZNK9__gnu_cxx16__aligned_membufIcE7_M_addrEv, .-_ZNK9__gnu_cxx16__aligned_membufIcE7_M_addrEv
	.section	.text._ZNSt16allocator_traitsISaISt13_Rb_tree_nodeIcEEE8allocateERS2_m,"axG",@progbits,_ZNSt16allocator_traitsISaISt13_Rb_tree_nodeIcEEE8allocateERS2_m,comdat
	.align	2
	.weak	_ZNSt16allocator_traitsISaISt13_Rb_tree_nodeIcEEE8allocateERS2_m
	.type	_ZNSt16allocator_traitsISaISt13_Rb_tree_nodeIcEEE8allocateERS2_m, %function
_ZNSt16allocator_traitsISaISt13_Rb_tree_nodeIcEEE8allocateERS2_m:
.LFB11677:
	.cfi_startproc
	stp	x29, x30, [sp, -32]!
	.cfi_def_cfa_offset 32
	.cfi_offset 29, -32
	.cfi_offset 30, -24
	mov	x29, sp
	str	x0, [sp, 24]
	str	x1, [sp, 16]
	mov	x2, 0
	ldr	x1, [sp, 16]
	ldr	x0, [sp, 24]
	bl	_ZN9__gnu_cxx13new_allocatorISt13_Rb_tree_nodeIcEE8allocateEmPKv
	ldp	x29, x30, [sp], 32
	.cfi_restore 30
	.cfi_restore 29
	.cfi_def_cfa_offset 0
	ret
	.cfi_endproc
.LFE11677:
	.size	_ZNSt16allocator_traitsISaISt13_Rb_tree_nodeIcEEE8allocateERS2_m, .-_ZNSt16allocator_traitsISaISt13_Rb_tree_nodeIcEEE8allocateERS2_m
	.section	.text._ZNSt16allocator_traitsISaISt13_Rb_tree_nodeIcEEE9constructIcJRKcEEEvRS2_PT_DpOT0_,"axG",@progbits,_ZNSt16allocator_traitsISaISt13_Rb_tree_nodeIcEEE9constructIcJRKcEEEvRS2_PT_DpOT0_,comdat
	.align	2
	.weak	_ZNSt16allocator_traitsISaISt13_Rb_tree_nodeIcEEE9constructIcJRKcEEEvRS2_PT_DpOT0_
	.type	_ZNSt16allocator_traitsISaISt13_Rb_tree_nodeIcEEE9constructIcJRKcEEEvRS2_PT_DpOT0_, %function
_ZNSt16allocator_traitsISaISt13_Rb_tree_nodeIcEEE9constructIcJRKcEEEvRS2_PT_DpOT0_:
.LFB11678:
	.cfi_startproc
	stp	x29, x30, [sp, -48]!
	.cfi_def_cfa_offset 48
	.cfi_offset 29, -48
	.cfi_offset 30, -40
	mov	x29, sp
	str	x0, [sp, 40]
	str	x1, [sp, 32]
	str	x2, [sp, 24]
	ldr	x0, [sp, 24]
	bl	_ZSt7forwardIRKcEOT_RNSt16remove_referenceIS2_E4typeE
	mov	x2, x0
	ldr	x1, [sp, 32]
	ldr	x0, [sp, 40]
	bl	_ZN9__gnu_cxx13new_allocatorISt13_Rb_tree_nodeIcEE9constructIcJRKcEEEvPT_DpOT0_
	nop
	ldp	x29, x30, [sp], 48
	.cfi_restore 30
	.cfi_restore 29
	.cfi_def_cfa_offset 0
	ret
	.cfi_endproc
.LFE11678:
	.size	_ZNSt16allocator_traitsISaISt13_Rb_tree_nodeIcEEE9constructIcJRKcEEEvRS2_PT_DpOT0_, .-_ZNSt16allocator_traitsISaISt13_Rb_tree_nodeIcEEE9constructIcJRKcEEEvRS2_PT_DpOT0_
	.section	.text._ZSt8__fill_aIPccEvT_S1_RKT0_,"axG",@progbits,_ZSt8__fill_aIPccEvT_S1_RKT0_,comdat
	.align	2
	.weak	_ZSt8__fill_aIPccEvT_S1_RKT0_
	.type	_ZSt8__fill_aIPccEvT_S1_RKT0_, %function
_ZSt8__fill_aIPccEvT_S1_RKT0_:
.LFB11708:
	.cfi_startproc
	stp	x29, x30, [sp, -48]!
	.cfi_def_cfa_offset 48
	.cfi_offset 29, -48
	.cfi_offset 30, -40
	mov	x29, sp
	str	x0, [sp, 40]
	str	x1, [sp, 32]
	str	x2, [sp, 24]
	ldr	x2, [sp, 24]
	ldr	x1, [sp, 32]
	ldr	x0, [sp, 40]
	bl	_ZSt9__fill_a1IcEN9__gnu_cxx11__enable_ifIXsrSt9__is_byteIT_E7__valueEvE6__typeEPS3_S7_RKS3_
	nop
	ldp	x29, x30, [sp], 48
	.cfi_restore 30
	.cfi_restore 29
	.cfi_def_cfa_offset 0
	ret
	.cfi_endproc
.LFE11708:
	.size	_ZSt8__fill_aIPccEvT_S1_RKT0_, .-_ZSt8__fill_aIPccEvT_S1_RKT0_
	.section	.text._ZNKSt6vectorIcSaIcEE4sizeEv,"axG",@progbits,_ZNKSt6vectorIcSaIcEE4sizeEv,comdat
	.align	2
	.weak	_ZNKSt6vectorIcSaIcEE4sizeEv
	.type	_ZNKSt6vectorIcSaIcEE4sizeEv, %function
_ZNKSt6vectorIcSaIcEE4sizeEv:
.LFB11709:
	.cfi_startproc
	sub	sp, sp, #16
	.cfi_def_cfa_offset 16
	str	x0, [sp, 8]
	ldr	x0, [sp, 8]
	ldr	x1, [x0, 8]
	ldr	x0, [sp, 8]
	ldr	x0, [x0]
	sub	x0, x1, x0
	add	sp, sp, 16
	.cfi_def_cfa_offset 0
	ret
	.cfi_endproc
.LFE11709:
	.size	_ZNKSt6vectorIcSaIcEE4sizeEv, .-_ZNKSt6vectorIcSaIcEE4sizeEv
	.section	.text._ZNKSt12_Vector_baseIcSaIcEE19_M_get_Tp_allocatorEv,"axG",@progbits,_ZNKSt12_Vector_baseIcSaIcEE19_M_get_Tp_allocatorEv,comdat
	.align	2
	.weak	_ZNKSt12_Vector_baseIcSaIcEE19_M_get_Tp_allocatorEv
	.type	_ZNKSt12_Vector_baseIcSaIcEE19_M_get_Tp_allocatorEv, %function
_ZNKSt12_Vector_baseIcSaIcEE19_M_get_Tp_allocatorEv:
.LFB11710:
	.cfi_startproc
	sub	sp, sp, #16
	.cfi_def_cfa_offset 16
	str	x0, [sp, 8]
	ldr	x0, [sp, 8]
	add	sp, sp, 16
	.cfi_def_cfa_offset 0
	ret
	.cfi_endproc
.LFE11710:
	.size	_ZNKSt12_Vector_baseIcSaIcEE19_M_get_Tp_allocatorEv, .-_ZNKSt12_Vector_baseIcSaIcEE19_M_get_Tp_allocatorEv
	.section	.text._ZNKSt6vectorIcSaIcEE5beginEv,"axG",@progbits,_ZNKSt6vectorIcSaIcEE5beginEv,comdat
	.align	2
	.weak	_ZNKSt6vectorIcSaIcEE5beginEv
	.type	_ZNKSt6vectorIcSaIcEE5beginEv, %function
_ZNKSt6vectorIcSaIcEE5beginEv:
.LFB11711:
	.cfi_startproc
	stp	x29, x30, [sp, -48]!
	.cfi_def_cfa_offset 48
	.cfi_offset 29, -48
	.cfi_offset 30, -40
	mov	x29, sp
	str	x0, [sp, 24]
	ldr	x1, [sp, 24]
	add	x0, sp, 40
	bl	_ZN9__gnu_cxx17__normal_iteratorIPKcSt6vectorIcSaIcEEEC1ERKS2_
	ldr	x0, [sp, 40]
	ldp	x29, x30, [sp], 48
	.cfi_restore 30
	.cfi_restore 29
	.cfi_def_cfa_offset 0
	ret
	.cfi_endproc
.LFE11711:
	.size	_ZNKSt6vectorIcSaIcEE5beginEv, .-_ZNKSt6vectorIcSaIcEE5beginEv
	.section	.text._ZNKSt6vectorIcSaIcEE3endEv,"axG",@progbits,_ZNKSt6vectorIcSaIcEE3endEv,comdat
	.align	2
	.weak	_ZNKSt6vectorIcSaIcEE3endEv
	.type	_ZNKSt6vectorIcSaIcEE3endEv, %function
_ZNKSt6vectorIcSaIcEE3endEv:
.LFB11712:
	.cfi_startproc
	stp	x29, x30, [sp, -48]!
	.cfi_def_cfa_offset 48
	.cfi_offset 29, -48
	.cfi_offset 30, -40
	mov	x29, sp
	str	x0, [sp, 24]
	ldr	x0, [sp, 24]
	add	x1, x0, 8
	add	x0, sp, 40
	bl	_ZN9__gnu_cxx17__normal_iteratorIPKcSt6vectorIcSaIcEEEC1ERKS2_
	ldr	x0, [sp, 40]
	ldp	x29, x30, [sp], 48
	.cfi_restore 30
	.cfi_restore 29
	.cfi_def_cfa_offset 0
	ret
	.cfi_endproc
.LFE11712:
	.size	_ZNKSt6vectorIcSaIcEE3endEv, .-_ZNKSt6vectorIcSaIcEE3endEv
	.section	.text._ZSt22__uninitialized_copy_aIN9__gnu_cxx17__normal_iteratorIPKcSt6vectorIcSaIcEEEEPccET0_T_SA_S9_RSaIT1_E,"axG",@progbits,_ZSt22__uninitialized_copy_aIN9__gnu_cxx17__normal_iteratorIPKcSt6vectorIcSaIcEEEEPccET0_T_SA_S9_RSaIT1_E,comdat
	.align	2
	.weak	_ZSt22__uninitialized_copy_aIN9__gnu_cxx17__normal_iteratorIPKcSt6vectorIcSaIcEEEEPccET0_T_SA_S9_RSaIT1_E
	.type	_ZSt22__uninitialized_copy_aIN9__gnu_cxx17__normal_iteratorIPKcSt6vectorIcSaIcEEEEPccET0_T_SA_S9_RSaIT1_E, %function
_ZSt22__uninitialized_copy_aIN9__gnu_cxx17__normal_iteratorIPKcSt6vectorIcSaIcEEEEPccET0_T_SA_S9_RSaIT1_E:
.LFB11713:
	.cfi_startproc
	stp	x29, x30, [sp, -48]!
	.cfi_def_cfa_offset 48
	.cfi_offset 29, -48
	.cfi_offset 30, -40
	mov	x29, sp
	str	x0, [sp, 40]
	str	x1, [sp, 32]
	str	x2, [sp, 24]
	str	x3, [sp, 16]
	ldr	x2, [sp, 24]
	ldr	x1, [sp, 32]
	ldr	x0, [sp, 40]
	bl	_ZSt18uninitialized_copyIN9__gnu_cxx17__normal_iteratorIPKcSt6vectorIcSaIcEEEEPcET0_T_SA_S9_
	ldp	x29, x30, [sp], 48
	.cfi_restore 30
	.cfi_restore 29
	.cfi_def_cfa_offset 0
	ret
	.cfi_endproc
.LFE11713:
	.size	_ZSt22__uninitialized_copy_aIN9__gnu_cxx17__normal_iteratorIPKcSt6vectorIcSaIcEEEEPccET0_T_SA_S9_RSaIT1_E, .-_ZSt22__uninitialized_copy_aIN9__gnu_cxx17__normal_iteratorIPKcSt6vectorIcSaIcEEEEPccET0_T_SA_S9_RSaIT1_E
	.section	.text._ZSt12__niter_baseIPKiET_S2_,"axG",@progbits,_ZSt12__niter_baseIPKiET_S2_,comdat
	.align	2
	.weak	_ZSt12__niter_baseIPKiET_S2_
	.type	_ZSt12__niter_baseIPKiET_S2_, %function
_ZSt12__niter_baseIPKiET_S2_:
.LFB11714:
	.cfi_startproc
	sub	sp, sp, #16
	.cfi_def_cfa_offset 16
	str	x0, [sp, 8]
	ldr	x0, [sp, 8]
	add	sp, sp, 16
	.cfi_def_cfa_offset 0
	ret
	.cfi_endproc
.LFE11714:
	.size	_ZSt12__niter_baseIPKiET_S2_, .-_ZSt12__niter_baseIPKiET_S2_
	.section	.text._ZSt12__niter_baseIPiET_S1_,"axG",@progbits,_ZSt12__niter_baseIPiET_S1_,comdat
	.align	2
	.weak	_ZSt12__niter_baseIPiET_S1_
	.type	_ZSt12__niter_baseIPiET_S1_, %function
_ZSt12__niter_baseIPiET_S1_:
.LFB11715:
	.cfi_startproc
	sub	sp, sp, #16
	.cfi_def_cfa_offset 16
	str	x0, [sp, 8]
	ldr	x0, [sp, 8]
	add	sp, sp, 16
	.cfi_def_cfa_offset 0
	ret
	.cfi_endproc
.LFE11715:
	.size	_ZSt12__niter_baseIPiET_S1_, .-_ZSt12__niter_baseIPiET_S1_
	.section	.text._ZSt14__copy_move_a1ILb0EPKiPiET1_T0_S4_S3_,"axG",@progbits,_ZSt14__copy_move_a1ILb0EPKiPiET1_T0_S4_S3_,comdat
	.align	2
	.weak	_ZSt14__copy_move_a1ILb0EPKiPiET1_T0_S4_S3_
	.type	_ZSt14__copy_move_a1ILb0EPKiPiET1_T0_S4_S3_, %function
_ZSt14__copy_move_a1ILb0EPKiPiET1_T0_S4_S3_:
.LFB11716:
	.cfi_startproc
	stp	x29, x30, [sp, -48]!
	.cfi_def_cfa_offset 48
	.cfi_offset 29, -48
	.cfi_offset 30, -40
	mov	x29, sp
	str	x0, [sp, 40]
	str	x1, [sp, 32]
	str	x2, [sp, 24]
	ldr	x2, [sp, 24]
	ldr	x1, [sp, 32]
	ldr	x0, [sp, 40]
	bl	_ZSt14__copy_move_a2ILb0EPKiPiET1_T0_S4_S3_
	ldp	x29, x30, [sp], 48
	.cfi_restore 30
	.cfi_restore 29
	.cfi_def_cfa_offset 0
	ret
	.cfi_endproc
.LFE11716:
	.size	_ZSt14__copy_move_a1ILb0EPKiPiET1_T0_S4_S3_, .-_ZSt14__copy_move_a1ILb0EPKiPiET1_T0_S4_S3_
	.section	.text._ZSt12__niter_wrapIPiET_RKS1_S1_,"axG",@progbits,_ZSt12__niter_wrapIPiET_RKS1_S1_,comdat
	.align	2
	.weak	_ZSt12__niter_wrapIPiET_RKS1_S1_
	.type	_ZSt12__niter_wrapIPiET_RKS1_S1_, %function
_ZSt12__niter_wrapIPiET_RKS1_S1_:
.LFB11717:
	.cfi_startproc
	sub	sp, sp, #16
	.cfi_def_cfa_offset 16
	str	x0, [sp, 8]
	str	x1, [sp]
	ldr	x0, [sp]
	add	sp, sp, 16
	.cfi_def_cfa_offset 0
	ret
	.cfi_endproc
.LFE11717:
	.size	_ZSt12__niter_wrapIPiET_RKS1_S1_, .-_ZSt12__niter_wrapIPiET_RKS1_S1_
	.section	.text._ZNK9__gnu_cxx13new_allocatorISt13_Rb_tree_nodeIcEE11_M_max_sizeEv,"axG",@progbits,_ZNK9__gnu_cxx13new_allocatorISt13_Rb_tree_nodeIcEE11_M_max_sizeEv,comdat
	.align	2
	.weak	_ZNK9__gnu_cxx13new_allocatorISt13_Rb_tree_nodeIcEE11_M_max_sizeEv
	.type	_ZNK9__gnu_cxx13new_allocatorISt13_Rb_tree_nodeIcEE11_M_max_sizeEv, %function
_ZNK9__gnu_cxx13new_allocatorISt13_Rb_tree_nodeIcEE11_M_max_sizeEv:
.LFB11719:
	.cfi_startproc
	sub	sp, sp, #16
	.cfi_def_cfa_offset 16
	str	x0, [sp, 8]
	mov	x0, 3689348814741910323
	movk	x0, 0x333, lsl 48
	add	sp, sp, 16
	.cfi_def_cfa_offset 0
	ret
	.cfi_endproc
.LFE11719:
	.size	_ZNK9__gnu_cxx13new_allocatorISt13_Rb_tree_nodeIcEE11_M_max_sizeEv, .-_ZNK9__gnu_cxx13new_allocatorISt13_Rb_tree_nodeIcEE11_M_max_sizeEv
	.section	.text._ZN9__gnu_cxx13new_allocatorISt13_Rb_tree_nodeIcEE8allocateEmPKv,"axG",@progbits,_ZN9__gnu_cxx13new_allocatorISt13_Rb_tree_nodeIcEE8allocateEmPKv,comdat
	.align	2
	.weak	_ZN9__gnu_cxx13new_allocatorISt13_Rb_tree_nodeIcEE8allocateEmPKv
	.type	_ZN9__gnu_cxx13new_allocatorISt13_Rb_tree_nodeIcEE8allocateEmPKv, %function
_ZN9__gnu_cxx13new_allocatorISt13_Rb_tree_nodeIcEE8allocateEmPKv:
.LFB11718:
	.cfi_startproc
	stp	x29, x30, [sp, -48]!
	.cfi_def_cfa_offset 48
	.cfi_offset 29, -48
	.cfi_offset 30, -40
	mov	x29, sp
	str	x0, [sp, 40]
	str	x1, [sp, 32]
	str	x2, [sp, 24]
	ldr	x0, [sp, 40]
	bl	_ZNK9__gnu_cxx13new_allocatorISt13_Rb_tree_nodeIcEE11_M_max_sizeEv
	mov	x1, x0
	ldr	x0, [sp, 32]
	cmp	x0, x1
	cset	w0, hi
	and	w0, w0, 255
	and	x0, x0, 255
	cmp	x0, 0
	cset	w0, ne
	and	w0, w0, 255
	cmp	w0, 0
	beq	.L412
	ldr	x1, [sp, 32]
	mov	x0, 7378697629483820646
	movk	x0, 0x666, lsl 48
	cmp	x1, x0
	bls	.L413
	bl	_ZSt28__throw_bad_array_new_lengthv
.L413:
	bl	_ZSt17__throw_bad_allocv
.L412:
	ldr	x1, [sp, 32]
	mov	x0, x1
	lsl	x0, x0, 2
	add	x0, x0, x1
	lsl	x0, x0, 3
	bl	_Znwm
	nop
	ldp	x29, x30, [sp], 48
	.cfi_restore 30
	.cfi_restore 29
	.cfi_def_cfa_offset 0
	ret
	.cfi_endproc
.LFE11718:
	.size	_ZN9__gnu_cxx13new_allocatorISt13_Rb_tree_nodeIcEE8allocateEmPKv, .-_ZN9__gnu_cxx13new_allocatorISt13_Rb_tree_nodeIcEE8allocateEmPKv
	.section	.text._ZN9__gnu_cxx13new_allocatorISt13_Rb_tree_nodeIcEE9constructIcJRKcEEEvPT_DpOT0_,"axG",@progbits,_ZN9__gnu_cxx13new_allocatorISt13_Rb_tree_nodeIcEE9constructIcJRKcEEEvPT_DpOT0_,comdat
	.align	2
	.weak	_ZN9__gnu_cxx13new_allocatorISt13_Rb_tree_nodeIcEE9constructIcJRKcEEEvPT_DpOT0_
	.type	_ZN9__gnu_cxx13new_allocatorISt13_Rb_tree_nodeIcEE9constructIcJRKcEEEvPT_DpOT0_, %function
_ZN9__gnu_cxx13new_allocatorISt13_Rb_tree_nodeIcEE9constructIcJRKcEEEvPT_DpOT0_:
.LFB11720:
	.cfi_startproc
	stp	x29, x30, [sp, -64]!
	.cfi_def_cfa_offset 64
	.cfi_offset 29, -64
	.cfi_offset 30, -56
	mov	x29, sp
	str	x19, [sp, 16]
	.cfi_offset 19, -48
	str	x0, [sp, 56]
	str	x1, [sp, 48]
	str	x2, [sp, 40]
	ldr	x0, [sp, 40]
	bl	_ZSt7forwardIRKcEOT_RNSt16remove_referenceIS2_E4typeE
	ldrb	w19, [x0]
	ldr	x0, [sp, 48]
	mov	x1, x0
	mov	x0, 1
	bl	_ZnwmPv
	mov	w1, w19
	strb	w1, [x0]
	nop
	ldr	x19, [sp, 16]
	ldp	x29, x30, [sp], 64
	.cfi_restore 30
	.cfi_restore 29
	.cfi_restore 19
	.cfi_def_cfa_offset 0
	ret
	.cfi_endproc
.LFE11720:
	.size	_ZN9__gnu_cxx13new_allocatorISt13_Rb_tree_nodeIcEE9constructIcJRKcEEEvPT_DpOT0_, .-_ZN9__gnu_cxx13new_allocatorISt13_Rb_tree_nodeIcEE9constructIcJRKcEEEvPT_DpOT0_
	.section	.text._ZSt9__fill_a1IcEN9__gnu_cxx11__enable_ifIXsrSt9__is_byteIT_E7__valueEvE6__typeEPS3_S7_RKS3_,"axG",@progbits,_ZSt9__fill_a1IcEN9__gnu_cxx11__enable_ifIXsrSt9__is_byteIT_E7__valueEvE6__typeEPS3_S7_RKS3_,comdat
	.align	2
	.weak	_ZSt9__fill_a1IcEN9__gnu_cxx11__enable_ifIXsrSt9__is_byteIT_E7__valueEvE6__typeEPS3_S7_RKS3_
	.type	_ZSt9__fill_a1IcEN9__gnu_cxx11__enable_ifIXsrSt9__is_byteIT_E7__valueEvE6__typeEPS3_S7_RKS3_, %function
_ZSt9__fill_a1IcEN9__gnu_cxx11__enable_ifIXsrSt9__is_byteIT_E7__valueEvE6__typeEPS3_S7_RKS3_:
.LFB11724:
	.cfi_startproc
	stp	x29, x30, [sp, -64]!
	.cfi_def_cfa_offset 64
	.cfi_offset 29, -64
	.cfi_offset 30, -56
	mov	x29, sp
	str	x0, [sp, 40]
	str	x1, [sp, 32]
	str	x2, [sp, 24]
	ldr	x0, [sp, 24]
	ldrb	w0, [x0]
	strb	w0, [sp, 63]
	ldr	x1, [sp, 32]
	ldr	x0, [sp, 40]
	sub	x0, x1, x0
	str	x0, [sp, 48]
	ldr	x0, [sp, 48]
	cmp	x0, 0
	beq	.L418
	ldrb	w0, [sp, 63]
	ldr	x2, [sp, 48]
	mov	w1, w0
	ldr	x0, [sp, 40]
	bl	memset
.L418:
	nop
	ldp	x29, x30, [sp], 64
	.cfi_restore 30
	.cfi_restore 29
	.cfi_def_cfa_offset 0
	ret
	.cfi_endproc
.LFE11724:
	.size	_ZSt9__fill_a1IcEN9__gnu_cxx11__enable_ifIXsrSt9__is_byteIT_E7__valueEvE6__typeEPS3_S7_RKS3_, .-_ZSt9__fill_a1IcEN9__gnu_cxx11__enable_ifIXsrSt9__is_byteIT_E7__valueEvE6__typeEPS3_S7_RKS3_
	.section	.text._ZN9__gnu_cxx17__normal_iteratorIPKcSt6vectorIcSaIcEEEC2ERKS2_,"axG",@progbits,_ZN9__gnu_cxx17__normal_iteratorIPKcSt6vectorIcSaIcEEEC5ERKS2_,comdat
	.align	2
	.weak	_ZN9__gnu_cxx17__normal_iteratorIPKcSt6vectorIcSaIcEEEC2ERKS2_
	.type	_ZN9__gnu_cxx17__normal_iteratorIPKcSt6vectorIcSaIcEEEC2ERKS2_, %function
_ZN9__gnu_cxx17__normal_iteratorIPKcSt6vectorIcSaIcEEEC2ERKS2_:
.LFB11726:
	.cfi_startproc
	sub	sp, sp, #16
	.cfi_def_cfa_offset 16
	str	x0, [sp, 8]
	str	x1, [sp]
	ldr	x0, [sp]
	ldr	x1, [x0]
	ldr	x0, [sp, 8]
	str	x1, [x0]
	nop
	add	sp, sp, 16
	.cfi_def_cfa_offset 0
	ret
	.cfi_endproc
.LFE11726:
	.size	_ZN9__gnu_cxx17__normal_iteratorIPKcSt6vectorIcSaIcEEEC2ERKS2_, .-_ZN9__gnu_cxx17__normal_iteratorIPKcSt6vectorIcSaIcEEEC2ERKS2_
	.weak	_ZN9__gnu_cxx17__normal_iteratorIPKcSt6vectorIcSaIcEEEC1ERKS2_
	.set	_ZN9__gnu_cxx17__normal_iteratorIPKcSt6vectorIcSaIcEEEC1ERKS2_,_ZN9__gnu_cxx17__normal_iteratorIPKcSt6vectorIcSaIcEEEC2ERKS2_
	.section	.text._ZSt18uninitialized_copyIN9__gnu_cxx17__normal_iteratorIPKcSt6vectorIcSaIcEEEEPcET0_T_SA_S9_,"axG",@progbits,_ZSt18uninitialized_copyIN9__gnu_cxx17__normal_iteratorIPKcSt6vectorIcSaIcEEEEPcET0_T_SA_S9_,comdat
	.align	2
	.weak	_ZSt18uninitialized_copyIN9__gnu_cxx17__normal_iteratorIPKcSt6vectorIcSaIcEEEEPcET0_T_SA_S9_
	.type	_ZSt18uninitialized_copyIN9__gnu_cxx17__normal_iteratorIPKcSt6vectorIcSaIcEEEEPcET0_T_SA_S9_, %function
_ZSt18uninitialized_copyIN9__gnu_cxx17__normal_iteratorIPKcSt6vectorIcSaIcEEEEPcET0_T_SA_S9_:
.LFB11728:
	.cfi_startproc
	stp	x29, x30, [sp, -64]!
	.cfi_def_cfa_offset 64
	.cfi_offset 29, -64
	.cfi_offset 30, -56
	mov	x29, sp
	str	x0, [sp, 40]
	str	x1, [sp, 32]
	str	x2, [sp, 24]
	mov	w0, 1
	strb	w0, [sp, 63]
	ldr	x2, [sp, 24]
	ldr	x1, [sp, 32]
	ldr	x0, [sp, 40]
	bl	_ZNSt20__uninitialized_copyILb1EE13__uninit_copyIN9__gnu_cxx17__normal_iteratorIPKcSt6vectorIcSaIcEEEEPcEET0_T_SC_SB_
	ldp	x29, x30, [sp], 64
	.cfi_restore 30
	.cfi_restore 29
	.cfi_def_cfa_offset 0
	ret
	.cfi_endproc
.LFE11728:
	.size	_ZSt18uninitialized_copyIN9__gnu_cxx17__normal_iteratorIPKcSt6vectorIcSaIcEEEEPcET0_T_SA_S9_, .-_ZSt18uninitialized_copyIN9__gnu_cxx17__normal_iteratorIPKcSt6vectorIcSaIcEEEEPcET0_T_SA_S9_
	.section	.text._ZSt14__copy_move_a2ILb0EPKiPiET1_T0_S4_S3_,"axG",@progbits,_ZSt14__copy_move_a2ILb0EPKiPiET1_T0_S4_S3_,comdat
	.align	2
	.weak	_ZSt14__copy_move_a2ILb0EPKiPiET1_T0_S4_S3_
	.type	_ZSt14__copy_move_a2ILb0EPKiPiET1_T0_S4_S3_, %function
_ZSt14__copy_move_a2ILb0EPKiPiET1_T0_S4_S3_:
.LFB11730:
	.cfi_startproc
	stp	x29, x30, [sp, -48]!
	.cfi_def_cfa_offset 48
	.cfi_offset 29, -48
	.cfi_offset 30, -40
	mov	x29, sp
	str	x0, [sp, 40]
	str	x1, [sp, 32]
	str	x2, [sp, 24]
	ldr	x2, [sp, 24]
	ldr	x1, [sp, 32]
	ldr	x0, [sp, 40]
	bl	_ZNSt11__copy_moveILb0ELb1ESt26random_access_iterator_tagE8__copy_mIiEEPT_PKS3_S6_S4_
	ldp	x29, x30, [sp], 48
	.cfi_restore 30
	.cfi_restore 29
	.cfi_def_cfa_offset 0
	ret
	.cfi_endproc
.LFE11730:
	.size	_ZSt14__copy_move_a2ILb0EPKiPiET1_T0_S4_S3_, .-_ZSt14__copy_move_a2ILb0EPKiPiET1_T0_S4_S3_
	.section	.text._ZNSt20__uninitialized_copyILb1EE13__uninit_copyIN9__gnu_cxx17__normal_iteratorIPKcSt6vectorIcSaIcEEEEPcEET0_T_SC_SB_,"axG",@progbits,_ZNSt20__uninitialized_copyILb1EE13__uninit_copyIN9__gnu_cxx17__normal_iteratorIPKcSt6vectorIcSaIcEEEEPcEET0_T_SC_SB_,comdat
	.align	2
	.weak	_ZNSt20__uninitialized_copyILb1EE13__uninit_copyIN9__gnu_cxx17__normal_iteratorIPKcSt6vectorIcSaIcEEEEPcEET0_T_SC_SB_
	.type	_ZNSt20__uninitialized_copyILb1EE13__uninit_copyIN9__gnu_cxx17__normal_iteratorIPKcSt6vectorIcSaIcEEEEPcEET0_T_SC_SB_, %function
_ZNSt20__uninitialized_copyILb1EE13__uninit_copyIN9__gnu_cxx17__normal_iteratorIPKcSt6vectorIcSaIcEEEEPcEET0_T_SC_SB_:
.LFB11742:
	.cfi_startproc
	stp	x29, x30, [sp, -48]!
	.cfi_def_cfa_offset 48
	.cfi_offset 29, -48
	.cfi_offset 30, -40
	mov	x29, sp
	str	x0, [sp, 40]
	str	x1, [sp, 32]
	str	x2, [sp, 24]
	ldr	x2, [sp, 24]
	ldr	x1, [sp, 32]
	ldr	x0, [sp, 40]
	bl	_ZSt4copyIN9__gnu_cxx17__normal_iteratorIPKcSt6vectorIcSaIcEEEEPcET0_T_SA_S9_
	ldp	x29, x30, [sp], 48
	.cfi_restore 30
	.cfi_restore 29
	.cfi_def_cfa_offset 0
	ret
	.cfi_endproc
.LFE11742:
	.size	_ZNSt20__uninitialized_copyILb1EE13__uninit_copyIN9__gnu_cxx17__normal_iteratorIPKcSt6vectorIcSaIcEEEEPcEET0_T_SC_SB_, .-_ZNSt20__uninitialized_copyILb1EE13__uninit_copyIN9__gnu_cxx17__normal_iteratorIPKcSt6vectorIcSaIcEEEEPcEET0_T_SC_SB_
	.section	.text._ZNSt11__copy_moveILb0ELb1ESt26random_access_iterator_tagE8__copy_mIiEEPT_PKS3_S6_S4_,"axG",@progbits,_ZNSt11__copy_moveILb0ELb1ESt26random_access_iterator_tagE8__copy_mIiEEPT_PKS3_S6_S4_,comdat
	.align	2
	.weak	_ZNSt11__copy_moveILb0ELb1ESt26random_access_iterator_tagE8__copy_mIiEEPT_PKS3_S6_S4_
	.type	_ZNSt11__copy_moveILb0ELb1ESt26random_access_iterator_tagE8__copy_mIiEEPT_PKS3_S6_S4_, %function
_ZNSt11__copy_moveILb0ELb1ESt26random_access_iterator_tagE8__copy_mIiEEPT_PKS3_S6_S4_:
.LFB11743:
	.cfi_startproc
	stp	x29, x30, [sp, -64]!
	.cfi_def_cfa_offset 64
	.cfi_offset 29, -64
	.cfi_offset 30, -56
	mov	x29, sp
	str	x0, [sp, 40]
	str	x1, [sp, 32]
	str	x2, [sp, 24]
	ldr	x1, [sp, 32]
	ldr	x0, [sp, 40]
	sub	x0, x1, x0
	asr	x0, x0, 2
	str	x0, [sp, 56]
	ldr	x0, [sp, 56]
	cmp	x0, 0
	beq	.L427
	ldr	x0, [sp, 56]
	lsl	x0, x0, 2
	mov	x2, x0
	ldr	x1, [sp, 40]
	ldr	x0, [sp, 24]
	bl	memmove
.L427:
	ldr	x0, [sp, 56]
	lsl	x0, x0, 2
	ldr	x1, [sp, 24]
	add	x0, x1, x0
	ldp	x29, x30, [sp], 64
	.cfi_restore 30
	.cfi_restore 29
	.cfi_def_cfa_offset 0
	ret
	.cfi_endproc
.LFE11743:
	.size	_ZNSt11__copy_moveILb0ELb1ESt26random_access_iterator_tagE8__copy_mIiEEPT_PKS3_S6_S4_, .-_ZNSt11__copy_moveILb0ELb1ESt26random_access_iterator_tagE8__copy_mIiEEPT_PKS3_S6_S4_
	.section	.text._ZSt4copyIN9__gnu_cxx17__normal_iteratorIPKcSt6vectorIcSaIcEEEEPcET0_T_SA_S9_,"axG",@progbits,_ZSt4copyIN9__gnu_cxx17__normal_iteratorIPKcSt6vectorIcSaIcEEEEPcET0_T_SA_S9_,comdat
	.align	2
	.weak	_ZSt4copyIN9__gnu_cxx17__normal_iteratorIPKcSt6vectorIcSaIcEEEEPcET0_T_SA_S9_
	.type	_ZSt4copyIN9__gnu_cxx17__normal_iteratorIPKcSt6vectorIcSaIcEEEEPcET0_T_SA_S9_, %function
_ZSt4copyIN9__gnu_cxx17__normal_iteratorIPKcSt6vectorIcSaIcEEEEPcET0_T_SA_S9_:
.LFB11745:
	.cfi_startproc
	stp	x29, x30, [sp, -64]!
	.cfi_def_cfa_offset 64
	.cfi_offset 29, -64
	.cfi_offset 30, -56
	mov	x29, sp
	str	x19, [sp, 16]
	.cfi_offset 19, -48
	str	x0, [sp, 56]
	str	x1, [sp, 48]
	str	x2, [sp, 40]
	ldr	x0, [sp, 56]
	bl	_ZSt12__miter_baseIN9__gnu_cxx17__normal_iteratorIPKcSt6vectorIcSaIcEEEEET_S8_
	mov	x19, x0
	ldr	x0, [sp, 48]
	bl	_ZSt12__miter_baseIN9__gnu_cxx17__normal_iteratorIPKcSt6vectorIcSaIcEEEEET_S8_
	ldr	x2, [sp, 40]
	mov	x1, x0
	mov	x0, x19
	bl	_ZSt13__copy_move_aILb0EN9__gnu_cxx17__normal_iteratorIPKcSt6vectorIcSaIcEEEEPcET1_T0_SA_S9_
	ldr	x19, [sp, 16]
	ldp	x29, x30, [sp], 64
	.cfi_restore 30
	.cfi_restore 29
	.cfi_restore 19
	.cfi_def_cfa_offset 0
	ret
	.cfi_endproc
.LFE11745:
	.size	_ZSt4copyIN9__gnu_cxx17__normal_iteratorIPKcSt6vectorIcSaIcEEEEPcET0_T_SA_S9_, .-_ZSt4copyIN9__gnu_cxx17__normal_iteratorIPKcSt6vectorIcSaIcEEEEPcET0_T_SA_S9_
	.section	.text._ZSt12__miter_baseIN9__gnu_cxx17__normal_iteratorIPKcSt6vectorIcSaIcEEEEET_S8_,"axG",@progbits,_ZSt12__miter_baseIN9__gnu_cxx17__normal_iteratorIPKcSt6vectorIcSaIcEEEEET_S8_,comdat
	.align	2
	.weak	_ZSt12__miter_baseIN9__gnu_cxx17__normal_iteratorIPKcSt6vectorIcSaIcEEEEET_S8_
	.type	_ZSt12__miter_baseIN9__gnu_cxx17__normal_iteratorIPKcSt6vectorIcSaIcEEEEET_S8_, %function
_ZSt12__miter_baseIN9__gnu_cxx17__normal_iteratorIPKcSt6vectorIcSaIcEEEEET_S8_:
.LFB11747:
	.cfi_startproc
	sub	sp, sp, #16
	.cfi_def_cfa_offset 16
	str	x0, [sp, 8]
	ldr	x0, [sp, 8]
	add	sp, sp, 16
	.cfi_def_cfa_offset 0
	ret
	.cfi_endproc
.LFE11747:
	.size	_ZSt12__miter_baseIN9__gnu_cxx17__normal_iteratorIPKcSt6vectorIcSaIcEEEEET_S8_, .-_ZSt12__miter_baseIN9__gnu_cxx17__normal_iteratorIPKcSt6vectorIcSaIcEEEEET_S8_
	.section	.text._ZSt13__copy_move_aILb0EN9__gnu_cxx17__normal_iteratorIPKcSt6vectorIcSaIcEEEEPcET1_T0_SA_S9_,"axG",@progbits,_ZSt13__copy_move_aILb0EN9__gnu_cxx17__normal_iteratorIPKcSt6vectorIcSaIcEEEEPcET1_T0_SA_S9_,comdat
	.align	2
	.weak	_ZSt13__copy_move_aILb0EN9__gnu_cxx17__normal_iteratorIPKcSt6vectorIcSaIcEEEEPcET1_T0_SA_S9_
	.type	_ZSt13__copy_move_aILb0EN9__gnu_cxx17__normal_iteratorIPKcSt6vectorIcSaIcEEEEPcET1_T0_SA_S9_, %function
_ZSt13__copy_move_aILb0EN9__gnu_cxx17__normal_iteratorIPKcSt6vectorIcSaIcEEEEPcET1_T0_SA_S9_:
.LFB11748:
	.cfi_startproc
	stp	x29, x30, [sp, -64]!
	.cfi_def_cfa_offset 64
	.cfi_offset 29, -64
	.cfi_offset 30, -56
	mov	x29, sp
	stp	x19, x20, [sp, 16]
	.cfi_offset 19, -48
	.cfi_offset 20, -40
	str	x0, [sp, 56]
	str	x1, [sp, 48]
	str	x2, [sp, 40]
	ldr	x0, [sp, 56]
	bl	_ZSt12__niter_baseIPKcSt6vectorIcSaIcEEET_N9__gnu_cxx17__normal_iteratorIS5_T0_EE
	mov	x19, x0
	ldr	x0, [sp, 48]
	bl	_ZSt12__niter_baseIPKcSt6vectorIcSaIcEEET_N9__gnu_cxx17__normal_iteratorIS5_T0_EE
	mov	x20, x0
	ldr	x0, [sp, 40]
	bl	_ZSt12__niter_baseIPcET_S1_
	mov	x2, x0
	mov	x1, x20
	mov	x0, x19
	bl	_ZSt14__copy_move_a1ILb0EPKcPcET1_T0_S4_S3_
	mov	x1, x0
	add	x0, sp, 40
	bl	_ZSt12__niter_wrapIPcET_RKS1_S1_
	ldp	x19, x20, [sp, 16]
	ldp	x29, x30, [sp], 64
	.cfi_restore 30
	.cfi_restore 29
	.cfi_restore 19
	.cfi_restore 20
	.cfi_def_cfa_offset 0
	ret
	.cfi_endproc
.LFE11748:
	.size	_ZSt13__copy_move_aILb0EN9__gnu_cxx17__normal_iteratorIPKcSt6vectorIcSaIcEEEEPcET1_T0_SA_S9_, .-_ZSt13__copy_move_aILb0EN9__gnu_cxx17__normal_iteratorIPKcSt6vectorIcSaIcEEEEPcET1_T0_SA_S9_
	.section	.text._ZSt12__niter_baseIPKcSt6vectorIcSaIcEEET_N9__gnu_cxx17__normal_iteratorIS5_T0_EE,"axG",@progbits,_ZSt12__niter_baseIPKcSt6vectorIcSaIcEEET_N9__gnu_cxx17__normal_iteratorIS5_T0_EE,comdat
	.align	2
	.weak	_ZSt12__niter_baseIPKcSt6vectorIcSaIcEEET_N9__gnu_cxx17__normal_iteratorIS5_T0_EE
	.type	_ZSt12__niter_baseIPKcSt6vectorIcSaIcEEET_N9__gnu_cxx17__normal_iteratorIS5_T0_EE, %function
_ZSt12__niter_baseIPKcSt6vectorIcSaIcEEET_N9__gnu_cxx17__normal_iteratorIS5_T0_EE:
.LFB11749:
	.cfi_startproc
	stp	x29, x30, [sp, -32]!
	.cfi_def_cfa_offset 32
	.cfi_offset 29, -32
	.cfi_offset 30, -24
	mov	x29, sp
	str	x0, [sp, 24]
	add	x0, sp, 24
	bl	_ZNK9__gnu_cxx17__normal_iteratorIPKcSt6vectorIcSaIcEEE4baseEv
	ldr	x0, [x0]
	ldp	x29, x30, [sp], 32
	.cfi_restore 30
	.cfi_restore 29
	.cfi_def_cfa_offset 0
	ret
	.cfi_endproc
.LFE11749:
	.size	_ZSt12__niter_baseIPKcSt6vectorIcSaIcEEET_N9__gnu_cxx17__normal_iteratorIS5_T0_EE, .-_ZSt12__niter_baseIPKcSt6vectorIcSaIcEEET_N9__gnu_cxx17__normal_iteratorIS5_T0_EE
	.section	.text._ZSt12__niter_baseIPcET_S1_,"axG",@progbits,_ZSt12__niter_baseIPcET_S1_,comdat
	.align	2
	.weak	_ZSt12__niter_baseIPcET_S1_
	.type	_ZSt12__niter_baseIPcET_S1_, %function
_ZSt12__niter_baseIPcET_S1_:
.LFB11750:
	.cfi_startproc
	sub	sp, sp, #16
	.cfi_def_cfa_offset 16
	str	x0, [sp, 8]
	ldr	x0, [sp, 8]
	add	sp, sp, 16
	.cfi_def_cfa_offset 0
	ret
	.cfi_endproc
.LFE11750:
	.size	_ZSt12__niter_baseIPcET_S1_, .-_ZSt12__niter_baseIPcET_S1_
	.section	.text._ZSt14__copy_move_a1ILb0EPKcPcET1_T0_S4_S3_,"axG",@progbits,_ZSt14__copy_move_a1ILb0EPKcPcET1_T0_S4_S3_,comdat
	.align	2
	.weak	_ZSt14__copy_move_a1ILb0EPKcPcET1_T0_S4_S3_
	.type	_ZSt14__copy_move_a1ILb0EPKcPcET1_T0_S4_S3_, %function
_ZSt14__copy_move_a1ILb0EPKcPcET1_T0_S4_S3_:
.LFB11751:
	.cfi_startproc
	stp	x29, x30, [sp, -48]!
	.cfi_def_cfa_offset 48
	.cfi_offset 29, -48
	.cfi_offset 30, -40
	mov	x29, sp
	str	x0, [sp, 40]
	str	x1, [sp, 32]
	str	x2, [sp, 24]
	ldr	x2, [sp, 24]
	ldr	x1, [sp, 32]
	ldr	x0, [sp, 40]
	bl	_ZSt14__copy_move_a2ILb0EPKcPcET1_T0_S4_S3_
	ldp	x29, x30, [sp], 48
	.cfi_restore 30
	.cfi_restore 29
	.cfi_def_cfa_offset 0
	ret
	.cfi_endproc
.LFE11751:
	.size	_ZSt14__copy_move_a1ILb0EPKcPcET1_T0_S4_S3_, .-_ZSt14__copy_move_a1ILb0EPKcPcET1_T0_S4_S3_
	.section	.text._ZSt12__niter_wrapIPcET_RKS1_S1_,"axG",@progbits,_ZSt12__niter_wrapIPcET_RKS1_S1_,comdat
	.align	2
	.weak	_ZSt12__niter_wrapIPcET_RKS1_S1_
	.type	_ZSt12__niter_wrapIPcET_RKS1_S1_, %function
_ZSt12__niter_wrapIPcET_RKS1_S1_:
.LFB11752:
	.cfi_startproc
	sub	sp, sp, #16
	.cfi_def_cfa_offset 16
	str	x0, [sp, 8]
	str	x1, [sp]
	ldr	x0, [sp]
	add	sp, sp, 16
	.cfi_def_cfa_offset 0
	ret
	.cfi_endproc
.LFE11752:
	.size	_ZSt12__niter_wrapIPcET_RKS1_S1_, .-_ZSt12__niter_wrapIPcET_RKS1_S1_
	.section	.text._ZNK9__gnu_cxx17__normal_iteratorIPKcSt6vectorIcSaIcEEE4baseEv,"axG",@progbits,_ZNK9__gnu_cxx17__normal_iteratorIPKcSt6vectorIcSaIcEEE4baseEv,comdat
	.align	2
	.weak	_ZNK9__gnu_cxx17__normal_iteratorIPKcSt6vectorIcSaIcEEE4baseEv
	.type	_ZNK9__gnu_cxx17__normal_iteratorIPKcSt6vectorIcSaIcEEE4baseEv, %function
_ZNK9__gnu_cxx17__normal_iteratorIPKcSt6vectorIcSaIcEEE4baseEv:
.LFB11753:
	.cfi_startproc
	sub	sp, sp, #16
	.cfi_def_cfa_offset 16
	str	x0, [sp, 8]
	ldr	x0, [sp, 8]
	add	sp, sp, 16
	.cfi_def_cfa_offset 0
	ret
	.cfi_endproc
.LFE11753:
	.size	_ZNK9__gnu_cxx17__normal_iteratorIPKcSt6vectorIcSaIcEEE4baseEv, .-_ZNK9__gnu_cxx17__normal_iteratorIPKcSt6vectorIcSaIcEEE4baseEv
	.section	.text._ZSt14__copy_move_a2ILb0EPKcPcET1_T0_S4_S3_,"axG",@progbits,_ZSt14__copy_move_a2ILb0EPKcPcET1_T0_S4_S3_,comdat
	.align	2
	.weak	_ZSt14__copy_move_a2ILb0EPKcPcET1_T0_S4_S3_
	.type	_ZSt14__copy_move_a2ILb0EPKcPcET1_T0_S4_S3_, %function
_ZSt14__copy_move_a2ILb0EPKcPcET1_T0_S4_S3_:
.LFB11754:
	.cfi_startproc
	stp	x29, x30, [sp, -48]!
	.cfi_def_cfa_offset 48
	.cfi_offset 29, -48
	.cfi_offset 30, -40
	mov	x29, sp
	str	x0, [sp, 40]
	str	x1, [sp, 32]
	str	x2, [sp, 24]
	ldr	x2, [sp, 24]
	ldr	x1, [sp, 32]
	ldr	x0, [sp, 40]
	bl	_ZNSt11__copy_moveILb0ELb1ESt26random_access_iterator_tagE8__copy_mIcEEPT_PKS3_S6_S4_
	ldp	x29, x30, [sp], 48
	.cfi_restore 30
	.cfi_restore 29
	.cfi_def_cfa_offset 0
	ret
	.cfi_endproc
.LFE11754:
	.size	_ZSt14__copy_move_a2ILb0EPKcPcET1_T0_S4_S3_, .-_ZSt14__copy_move_a2ILb0EPKcPcET1_T0_S4_S3_
	.section	.text._ZNSt11__copy_moveILb0ELb1ESt26random_access_iterator_tagE8__copy_mIcEEPT_PKS3_S6_S4_,"axG",@progbits,_ZNSt11__copy_moveILb0ELb1ESt26random_access_iterator_tagE8__copy_mIcEEPT_PKS3_S6_S4_,comdat
	.align	2
	.weak	_ZNSt11__copy_moveILb0ELb1ESt26random_access_iterator_tagE8__copy_mIcEEPT_PKS3_S6_S4_
	.type	_ZNSt11__copy_moveILb0ELb1ESt26random_access_iterator_tagE8__copy_mIcEEPT_PKS3_S6_S4_, %function
_ZNSt11__copy_moveILb0ELb1ESt26random_access_iterator_tagE8__copy_mIcEEPT_PKS3_S6_S4_:
.LFB11755:
	.cfi_startproc
	stp	x29, x30, [sp, -64]!
	.cfi_def_cfa_offset 64
	.cfi_offset 29, -64
	.cfi_offset 30, -56
	mov	x29, sp
	str	x0, [sp, 40]
	str	x1, [sp, 32]
	str	x2, [sp, 24]
	ldr	x1, [sp, 32]
	ldr	x0, [sp, 40]
	sub	x0, x1, x0
	str	x0, [sp, 56]
	ldr	x0, [sp, 56]
	cmp	x0, 0
	beq	.L448
	ldr	x0, [sp, 56]
	mov	x2, x0
	ldr	x1, [sp, 40]
	ldr	x0, [sp, 24]
	bl	memmove
.L448:
	ldr	x0, [sp, 56]
	ldr	x1, [sp, 24]
	add	x0, x1, x0
	ldp	x29, x30, [sp], 64
	.cfi_restore 30
	.cfi_restore 29
	.cfi_def_cfa_offset 0
	ret
	.cfi_endproc
.LFE11755:
	.size	_ZNSt11__copy_moveILb0ELb1ESt26random_access_iterator_tagE8__copy_mIcEEPT_PKS3_S6_S4_, .-_ZNSt11__copy_moveILb0ELb1ESt26random_access_iterator_tagE8__copy_mIcEEPT_PKS3_S6_S4_
	.text
	.align	2
	.type	_Z41__static_initialization_and_destruction_0ii, %function
_Z41__static_initialization_and_destruction_0ii:
.LFB11792:
	.cfi_startproc
	stp	x29, x30, [sp, -32]!
	.cfi_def_cfa_offset 32
	.cfi_offset 29, -32
	.cfi_offset 30, -24
	mov	x29, sp
	str	w0, [sp, 28]
	str	w1, [sp, 24]
	ldr	w0, [sp, 28]
	cmp	w0, 1
	bne	.L452
	ldr	w1, [sp, 24]
	mov	w0, 65535
	cmp	w1, w0
	bne	.L452
	adrp	x0, _ZStL8__ioinit
	add	x0, x0, :lo12:_ZStL8__ioinit
	bl	_ZNSt8ios_base4InitC1Ev
	adrp	x0, __dso_handle
	add	x2, x0, :lo12:__dso_handle
	adrp	x0, _ZStL8__ioinit
	add	x1, x0, :lo12:_ZStL8__ioinit
	adrp	x0, :got:_ZNSt8ios_base4InitD1Ev
	ldr	x0, [x0, #:got_lo12:_ZNSt8ios_base4InitD1Ev]
	bl	__cxa_atexit
.L452:
	nop
	ldp	x29, x30, [sp], 32
	.cfi_restore 30
	.cfi_restore 29
	.cfi_def_cfa_offset 0
	ret
	.cfi_endproc
.LFE11792:
	.size	_Z41__static_initialization_and_destruction_0ii, .-_Z41__static_initialization_and_destruction_0ii
	.align	2
	.type	_GLOBAL__sub_I_main, %function
_GLOBAL__sub_I_main:
.LFB11815:
	.cfi_startproc
	stp	x29, x30, [sp, -16]!
	.cfi_def_cfa_offset 16
	.cfi_offset 29, -16
	.cfi_offset 30, -8
	mov	x29, sp
	mov	w1, 65535
	mov	w0, 1
	bl	_Z41__static_initialization_and_destruction_0ii
	ldp	x29, x30, [sp], 16
	.cfi_restore 30
	.cfi_restore 29
	.cfi_def_cfa_offset 0
	ret
	.cfi_endproc
.LFE11815:
	.size	_GLOBAL__sub_I_main, .-_GLOBAL__sub_I_main
	.section	.init_array,"aw",%init_array
	.align	3
	.xword	_GLOBAL__sub_I_main
	.hidden	DW.ref.__gxx_personality_v0
	.weak	DW.ref.__gxx_personality_v0
	.section	.data.rel.local.DW.ref.__gxx_personality_v0,"awG",@progbits,DW.ref.__gxx_personality_v0,comdat
	.align	3
	.type	DW.ref.__gxx_personality_v0, %object
	.size	DW.ref.__gxx_personality_v0, 8
DW.ref.__gxx_personality_v0:
	.xword	__gxx_personality_v0
	.hidden	__dso_handle
	.ident	"GCC: (Ubuntu 11.4.0-1ubuntu1~22.04) 11.4.0"
	.section	.note.GNU-stack,"",@progbits
