	.arch armv8-a
	.file	"q1660b.cpp"
	.text
	.section	.text._ZSt17__size_to_integerm,"axG",@progbits,_ZSt17__size_to_integerm,comdat
	.align	2
	.weak	_ZSt17__size_to_integerm
	.type	_ZSt17__size_to_integerm, %function
_ZSt17__size_to_integerm:
.LFB531:
	.cfi_startproc
	sub	sp, sp, #16
	.cfi_def_cfa_offset 16
	str	x0, [sp, 8]
	ldr	x0, [sp, 8]
	add	sp, sp, 16
	.cfi_def_cfa_offset 0
	ret
	.cfi_endproc
.LFE531:
	.size	_ZSt17__size_to_integerm, .-_ZSt17__size_to_integerm
	.section	.text._ZnwmPv,"axG",@progbits,_ZnwmPv,comdat
	.align	2
	.weak	_ZnwmPv
	.type	_ZnwmPv, %function
_ZnwmPv:
.LFB999:
	.cfi_startproc
	sub	sp, sp, #16
	.cfi_def_cfa_offset 16
	str	x0, [sp, 8]
	str	x1, [sp]
	ldr	x0, [sp]
	add	sp, sp, 16
	.cfi_def_cfa_offset 0
	ret
	.cfi_endproc
.LFE999:
	.size	_ZnwmPv, .-_ZnwmPv
	.section	.text._ZSt3minImERKT_S2_S2_,"axG",@progbits,_ZSt3minImERKT_S2_S2_,comdat
	.align	2
	.weak	_ZSt3minImERKT_S2_S2_
	.type	_ZSt3minImERKT_S2_S2_, %function
_ZSt3minImERKT_S2_S2_:
.LFB3247:
	.cfi_startproc
	sub	sp, sp, #16
	.cfi_def_cfa_offset 16
	str	x0, [sp, 8]
	str	x1, [sp]
	ldr	x0, [sp]
	ldr	x1, [x0]
	ldr	x0, [sp, 8]
	ldr	x0, [x0]
	cmp	x1, x0
	bcs	.L6
	ldr	x0, [sp]
	b	.L7
.L6:
	ldr	x0, [sp, 8]
.L7:
	add	sp, sp, 16
	.cfi_def_cfa_offset 0
	ret
	.cfi_endproc
.LFE3247:
	.size	_ZSt3minImERKT_S2_S2_, .-_ZSt3minImERKT_S2_S2_
	.section	.rodata
	.align	3
	.type	_ZN6__pstl9execution2v1L3seqE, %object
	.size	_ZN6__pstl9execution2v1L3seqE, 1
_ZN6__pstl9execution2v1L3seqE:
	.zero	1
	.align	3
	.type	_ZN6__pstl9execution2v1L3parE, %object
	.size	_ZN6__pstl9execution2v1L3parE, 1
_ZN6__pstl9execution2v1L3parE:
	.zero	1
	.align	3
	.type	_ZN6__pstl9execution2v1L9par_unseqE, %object
	.size	_ZN6__pstl9execution2v1L9par_unseqE, 1
_ZN6__pstl9execution2v1L9par_unseqE:
	.zero	1
	.align	3
	.type	_ZN6__pstl9execution2v1L5unseqE, %object
	.size	_ZN6__pstl9execution2v1L5unseqE, 1
_ZN6__pstl9execution2v1L5unseqE:
	.zero	1
	.local	_ZStL8__ioinit
	.comm	_ZStL8__ioinit,1,8
	.align	2
	.type	_ZN9__gnu_cxxL21__default_lock_policyE, %object
	.size	_ZN9__gnu_cxxL21__default_lock_policyE, 4
_ZN9__gnu_cxxL21__default_lock_policyE:
	.word	2
	.align	2
	.type	_ZNSt15regex_constantsL13error_collateE, %object
	.size	_ZNSt15regex_constantsL13error_collateE, 4
_ZNSt15regex_constantsL13error_collateE:
	.zero	4
	.align	2
	.type	_ZNSt15regex_constantsL11error_ctypeE, %object
	.size	_ZNSt15regex_constantsL11error_ctypeE, 4
_ZNSt15regex_constantsL11error_ctypeE:
	.word	1
	.align	2
	.type	_ZNSt15regex_constantsL12error_escapeE, %object
	.size	_ZNSt15regex_constantsL12error_escapeE, 4
_ZNSt15regex_constantsL12error_escapeE:
	.word	2
	.align	2
	.type	_ZNSt15regex_constantsL13error_backrefE, %object
	.size	_ZNSt15regex_constantsL13error_backrefE, 4
_ZNSt15regex_constantsL13error_backrefE:
	.word	3
	.align	2
	.type	_ZNSt15regex_constantsL11error_brackE, %object
	.size	_ZNSt15regex_constantsL11error_brackE, 4
_ZNSt15regex_constantsL11error_brackE:
	.word	4
	.align	2
	.type	_ZNSt15regex_constantsL11error_parenE, %object
	.size	_ZNSt15regex_constantsL11error_parenE, 4
_ZNSt15regex_constantsL11error_parenE:
	.word	5
	.align	2
	.type	_ZNSt15regex_constantsL11error_braceE, %object
	.size	_ZNSt15regex_constantsL11error_braceE, 4
_ZNSt15regex_constantsL11error_braceE:
	.word	6
	.align	2
	.type	_ZNSt15regex_constantsL14error_badbraceE, %object
	.size	_ZNSt15regex_constantsL14error_badbraceE, 4
_ZNSt15regex_constantsL14error_badbraceE:
	.word	7
	.align	2
	.type	_ZNSt15regex_constantsL11error_rangeE, %object
	.size	_ZNSt15regex_constantsL11error_rangeE, 4
_ZNSt15regex_constantsL11error_rangeE:
	.word	8
	.align	2
	.type	_ZNSt15regex_constantsL11error_spaceE, %object
	.size	_ZNSt15regex_constantsL11error_spaceE, 4
_ZNSt15regex_constantsL11error_spaceE:
	.word	9
	.align	2
	.type	_ZNSt15regex_constantsL15error_badrepeatE, %object
	.size	_ZNSt15regex_constantsL15error_badrepeatE, 4
_ZNSt15regex_constantsL15error_badrepeatE:
	.word	10
	.align	2
	.type	_ZNSt15regex_constantsL16error_complexityE, %object
	.size	_ZNSt15regex_constantsL16error_complexityE, 4
_ZNSt15regex_constantsL16error_complexityE:
	.word	11
	.align	2
	.type	_ZNSt15regex_constantsL11error_stackE, %object
	.size	_ZNSt15regex_constantsL11error_stackE, 4
_ZNSt15regex_constantsL11error_stackE:
	.word	12
	.align	3
	.type	_ZNSt8__detailL19_S_invalid_state_idE, %object
	.size	_ZNSt8__detailL19_S_invalid_state_idE, 8
_ZNSt8__detailL19_S_invalid_state_idE:
	.xword	-1
	.section	.text._ZNSt12_Vector_baseIxSaIxEE12_Vector_implD2Ev,"axG",@progbits,_ZNSt12_Vector_baseIxSaIxEE12_Vector_implD5Ev,comdat
	.align	2
	.weak	_ZNSt12_Vector_baseIxSaIxEE12_Vector_implD2Ev
	.type	_ZNSt12_Vector_baseIxSaIxEE12_Vector_implD2Ev, %function
_ZNSt12_Vector_baseIxSaIxEE12_Vector_implD2Ev:
.LFB9701:
	.cfi_startproc
	stp	x29, x30, [sp, -32]!
	.cfi_def_cfa_offset 32
	.cfi_offset 29, -32
	.cfi_offset 30, -24
	mov	x29, sp
	str	x0, [sp, 24]
	ldr	x0, [sp, 24]
	bl	_ZNSaIxED2Ev
	nop
	ldp	x29, x30, [sp], 32
	.cfi_restore 30
	.cfi_restore 29
	.cfi_def_cfa_offset 0
	ret
	.cfi_endproc
.LFE9701:
	.size	_ZNSt12_Vector_baseIxSaIxEE12_Vector_implD2Ev, .-_ZNSt12_Vector_baseIxSaIxEE12_Vector_implD2Ev
	.weak	_ZNSt12_Vector_baseIxSaIxEE12_Vector_implD1Ev
	.set	_ZNSt12_Vector_baseIxSaIxEE12_Vector_implD1Ev,_ZNSt12_Vector_baseIxSaIxEE12_Vector_implD2Ev
	.section	.text._ZNSt12_Vector_baseIxSaIxEEC2Ev,"axG",@progbits,_ZNSt12_Vector_baseIxSaIxEEC5Ev,comdat
	.align	2
	.weak	_ZNSt12_Vector_baseIxSaIxEEC2Ev
	.type	_ZNSt12_Vector_baseIxSaIxEEC2Ev, %function
_ZNSt12_Vector_baseIxSaIxEEC2Ev:
.LFB9703:
	.cfi_startproc
	stp	x29, x30, [sp, -32]!
	.cfi_def_cfa_offset 32
	.cfi_offset 29, -32
	.cfi_offset 30, -24
	mov	x29, sp
	str	x0, [sp, 24]
	ldr	x0, [sp, 24]
	bl	_ZNSt12_Vector_baseIxSaIxEE12_Vector_implC1Ev
	nop
	ldp	x29, x30, [sp], 32
	.cfi_restore 30
	.cfi_restore 29
	.cfi_def_cfa_offset 0
	ret
	.cfi_endproc
.LFE9703:
	.size	_ZNSt12_Vector_baseIxSaIxEEC2Ev, .-_ZNSt12_Vector_baseIxSaIxEEC2Ev
	.weak	_ZNSt12_Vector_baseIxSaIxEEC1Ev
	.set	_ZNSt12_Vector_baseIxSaIxEEC1Ev,_ZNSt12_Vector_baseIxSaIxEEC2Ev
	.section	.text._ZNSt6vectorIxSaIxEEC2Ev,"axG",@progbits,_ZNSt6vectorIxSaIxEEC5Ev,comdat
	.align	2
	.weak	_ZNSt6vectorIxSaIxEEC2Ev
	.type	_ZNSt6vectorIxSaIxEEC2Ev, %function
_ZNSt6vectorIxSaIxEEC2Ev:
.LFB9705:
	.cfi_startproc
	stp	x29, x30, [sp, -32]!
	.cfi_def_cfa_offset 32
	.cfi_offset 29, -32
	.cfi_offset 30, -24
	mov	x29, sp
	str	x0, [sp, 24]
	ldr	x0, [sp, 24]
	bl	_ZNSt12_Vector_baseIxSaIxEEC2Ev
	nop
	ldp	x29, x30, [sp], 32
	.cfi_restore 30
	.cfi_restore 29
	.cfi_def_cfa_offset 0
	ret
	.cfi_endproc
.LFE9705:
	.size	_ZNSt6vectorIxSaIxEEC2Ev, .-_ZNSt6vectorIxSaIxEEC2Ev
	.weak	_ZNSt6vectorIxSaIxEEC1Ev
	.set	_ZNSt6vectorIxSaIxEEC1Ev,_ZNSt6vectorIxSaIxEEC2Ev
	.text
	.align	2
	.global	_Z10Partition3RSt6vectorIxSaIxEEii
	.type	_Z10Partition3RSt6vectorIxSaIxEEii, %function
_Z10Partition3RSt6vectorIxSaIxEEii:
.LFB9696:
	.cfi_startproc
	.cfi_personality 0x9b,DW.ref.__gxx_personality_v0
	.cfi_lsda 0x1b,.LLSDA9696
	stp	x29, x30, [sp, -112]!
	.cfi_def_cfa_offset 112
	.cfi_offset 29, -112
	.cfi_offset 30, -104
	mov	x29, sp
	stp	x19, x20, [sp, 16]
	.cfi_offset 19, -96
	.cfi_offset 20, -88
	mov	x19, x8
	str	x0, [sp, 40]
	str	w1, [sp, 36]
	str	w2, [sp, 32]
	ldrsw	x0, [sp, 36]
	mov	x1, x0
	ldr	x0, [sp, 40]
	bl	_ZNSt6vectorIxSaIxEEixEm
	ldr	x0, [x0]
	str	x0, [sp, 80]
	ldr	w0, [sp, 36]
	str	w0, [sp, 108]
	ldr	w0, [sp, 32]
	str	w0, [sp, 104]
	ldr	w0, [sp, 36]
	str	w0, [sp, 100]
	b	.L12
.L14:
	ldrsw	x0, [sp, 100]
	mov	x1, x0
	ldr	x0, [sp, 40]
	bl	_ZNSt6vectorIxSaIxEEixEm
	ldr	x0, [x0]
	ldr	x1, [sp, 80]
	cmp	x1, x0
	cset	w0, gt
	and	w0, w0, 255
	cmp	w0, 0
	beq	.L13
	ldrsw	x0, [sp, 108]
	mov	x1, x0
	ldr	x0, [sp, 40]
	bl	_ZNSt6vectorIxSaIxEEixEm
	ldr	x0, [x0]
	str	w0, [sp, 72]
	ldrsw	x0, [sp, 100]
	mov	x1, x0
	ldr	x0, [sp, 40]
	bl	_ZNSt6vectorIxSaIxEEixEm
	ldr	x20, [x0]
	ldrsw	x0, [sp, 108]
	mov	x1, x0
	ldr	x0, [sp, 40]
	bl	_ZNSt6vectorIxSaIxEEixEm
	str	x20, [x0]
	ldrsw	x20, [sp, 72]
	ldrsw	x0, [sp, 100]
	mov	x1, x0
	ldr	x0, [sp, 40]
	bl	_ZNSt6vectorIxSaIxEEixEm
	str	x20, [x0]
	ldr	w0, [sp, 108]
	add	w0, w0, 1
	str	w0, [sp, 108]
.L13:
	ldr	w0, [sp, 100]
	add	w0, w0, 1
	str	w0, [sp, 100]
.L12:
	ldr	w1, [sp, 100]
	ldr	w0, [sp, 32]
	cmp	w1, w0
	ble	.L14
	ldr	w0, [sp, 32]
	str	w0, [sp, 96]
	b	.L15
.L17:
	ldrsw	x0, [sp, 96]
	mov	x1, x0
	ldr	x0, [sp, 40]
	bl	_ZNSt6vectorIxSaIxEEixEm
	ldr	x0, [x0]
	ldr	x1, [sp, 80]
	cmp	x1, x0
	cset	w0, lt
	and	w0, w0, 255
	cmp	w0, 0
	beq	.L16
	ldrsw	x0, [sp, 104]
	mov	x1, x0
	ldr	x0, [sp, 40]
	bl	_ZNSt6vectorIxSaIxEEixEm
	ldr	x0, [x0]
	str	w0, [sp, 76]
	ldrsw	x0, [sp, 96]
	mov	x1, x0
	ldr	x0, [sp, 40]
	bl	_ZNSt6vectorIxSaIxEEixEm
	ldr	x20, [x0]
	ldrsw	x0, [sp, 104]
	mov	x1, x0
	ldr	x0, [sp, 40]
	bl	_ZNSt6vectorIxSaIxEEixEm
	str	x20, [x0]
	ldrsw	x20, [sp, 76]
	ldrsw	x0, [sp, 96]
	mov	x1, x0
	ldr	x0, [sp, 40]
	bl	_ZNSt6vectorIxSaIxEEixEm
	str	x20, [x0]
	ldr	w0, [sp, 104]
	sub	w0, w0, #1
	str	w0, [sp, 104]
.L16:
	ldr	w0, [sp, 96]
	sub	w0, w0, #1
	str	w0, [sp, 96]
.L15:
	ldr	w1, [sp, 96]
	ldr	w0, [sp, 36]
	cmp	w1, w0
	bge	.L17
	ldr	w0, [sp, 108]
	str	w0, [sp, 92]
	b	.L18
.L19:
	ldr	x20, [sp, 80]
	ldrsw	x0, [sp, 92]
	mov	x1, x0
	ldr	x0, [sp, 40]
	bl	_ZNSt6vectorIxSaIxEEixEm
	str	x20, [x0]
	ldr	w0, [sp, 92]
	add	w0, w0, 1
	str	w0, [sp, 92]
.L18:
	ldr	w1, [sp, 92]
	ldr	w0, [sp, 104]
	cmp	w1, w0
	ble	.L19
	mov	x0, x19
	bl	_ZNSt6vectorIxSaIxEEC1Ev
	ldrsw	x0, [sp, 108]
	str	x0, [sp, 56]
	add	x0, sp, 56
	mov	x1, x0
	mov	x0, x19
.LEHB0:
	bl	_ZNSt6vectorIxSaIxEE9push_backEOx
	ldrsw	x0, [sp, 104]
	str	x0, [sp, 64]
	add	x0, sp, 64
	mov	x1, x0
	mov	x0, x19
	bl	_ZNSt6vectorIxSaIxEE9push_backEOx
.LEHE0:
	b	.L23
.L22:
	mov	x20, x0
	mov	x0, x19
	bl	_ZNSt6vectorIxSaIxEED1Ev
	mov	x0, x20
.LEHB1:
	bl	_Unwind_Resume
.LEHE1:
.L23:
	mov	x0, x19
	ldp	x19, x20, [sp, 16]
	ldp	x29, x30, [sp], 112
	.cfi_restore 30
	.cfi_restore 29
	.cfi_restore 19
	.cfi_restore 20
	.cfi_def_cfa_offset 0
	ret
	.cfi_endproc
.LFE9696:
	.global	__gxx_personality_v0
	.section	.gcc_except_table,"a",@progbits
.LLSDA9696:
	.byte	0xff
	.byte	0xff
	.byte	0x1
	.uleb128 .LLSDACSE9696-.LLSDACSB9696
.LLSDACSB9696:
	.uleb128 .LEHB0-.LFB9696
	.uleb128 .LEHE0-.LEHB0
	.uleb128 .L22-.LFB9696
	.uleb128 0
	.uleb128 .LEHB1-.LFB9696
	.uleb128 .LEHE1-.LEHB1
	.uleb128 0
	.uleb128 0
.LLSDACSE9696:
	.text
	.size	_Z10Partition3RSt6vectorIxSaIxEEii, .-_Z10Partition3RSt6vectorIxSaIxEEii
	.align	2
	.global	_Z10QuickSort3RSt6vectorIxSaIxEEii
	.type	_Z10QuickSort3RSt6vectorIxSaIxEEii, %function
_Z10QuickSort3RSt6vectorIxSaIxEEii:
.LFB9713:
	.cfi_startproc
	.cfi_personality 0x9b,DW.ref.__gxx_personality_v0
	.cfi_lsda 0x1b,.LLSDA9713
	stp	x29, x30, [sp, -80]!
	.cfi_def_cfa_offset 80
	.cfi_offset 29, -80
	.cfi_offset 30, -72
	mov	x29, sp
	str	x19, [sp, 16]
	.cfi_offset 19, -64
	str	x0, [sp, 40]
	str	w1, [sp, 36]
	str	w2, [sp, 32]
	ldr	w1, [sp, 36]
	ldr	w0, [sp, 32]
	cmp	w1, w0
	blt	.L25
	nop
	b	.L24
.L25:
	bl	rand
	mov	w1, w0
	ldr	w2, [sp, 32]
	ldr	w0, [sp, 36]
	sub	w0, w2, w0
	add	w0, w0, 1
	sdiv	w2, w1, w0
	mul	w0, w2, w0
	sub	w0, w1, w0
	ldr	w1, [sp, 36]
	add	w0, w1, w0
	str	w0, [sp, 76]
	ldrsw	x0, [sp, 36]
	mov	x1, x0
	ldr	x0, [sp, 40]
	bl	_ZNSt6vectorIxSaIxEEixEm
	ldr	x0, [x0]
	str	w0, [sp, 72]
	ldrsw	x0, [sp, 76]
	mov	x1, x0
	ldr	x0, [sp, 40]
	bl	_ZNSt6vectorIxSaIxEEixEm
	ldr	x19, [x0]
	ldrsw	x0, [sp, 36]
	mov	x1, x0
	ldr	x0, [sp, 40]
	bl	_ZNSt6vectorIxSaIxEEixEm
	str	x19, [x0]
	ldrsw	x19, [sp, 72]
	ldrsw	x0, [sp, 76]
	mov	x1, x0
	ldr	x0, [sp, 40]
	bl	_ZNSt6vectorIxSaIxEEixEm
	str	x19, [x0]
	add	x0, sp, 48
	mov	x8, x0
	ldr	w2, [sp, 32]
	ldr	w1, [sp, 36]
	ldr	x0, [sp, 40]
.LEHB2:
	bl	_Z10Partition3RSt6vectorIxSaIxEEii
.LEHE2:
	add	x0, sp, 48
	mov	x1, 0
	bl	_ZNSt6vectorIxSaIxEEixEm
	ldr	x0, [x0]
	sub	w0, w0, #1
	mov	w2, w0
	ldr	w1, [sp, 36]
	ldr	x0, [sp, 40]
.LEHB3:
	bl	_Z10QuickSort3RSt6vectorIxSaIxEEii
	add	x0, sp, 48
	mov	x1, 1
	bl	_ZNSt6vectorIxSaIxEEixEm
	ldr	x0, [x0]
	add	w0, w0, 1
	ldr	w2, [sp, 32]
	mov	w1, w0
	ldr	x0, [sp, 40]
	bl	_Z10QuickSort3RSt6vectorIxSaIxEEii
.LEHE3:
	add	x0, sp, 48
	bl	_ZNSt6vectorIxSaIxEED1Ev
	b	.L24
.L28:
	mov	x19, x0
	add	x0, sp, 48
	bl	_ZNSt6vectorIxSaIxEED1Ev
	mov	x0, x19
.LEHB4:
	bl	_Unwind_Resume
.LEHE4:
.L24:
	ldr	x19, [sp, 16]
	ldp	x29, x30, [sp], 80
	.cfi_restore 30
	.cfi_restore 29
	.cfi_restore 19
	.cfi_def_cfa_offset 0
	ret
	.cfi_endproc
.LFE9713:
	.section	.gcc_except_table
.LLSDA9713:
	.byte	0xff
	.byte	0xff
	.byte	0x1
	.uleb128 .LLSDACSE9713-.LLSDACSB9713
.LLSDACSB9713:
	.uleb128 .LEHB2-.LFB9713
	.uleb128 .LEHE2-.LEHB2
	.uleb128 0
	.uleb128 0
	.uleb128 .LEHB3-.LFB9713
	.uleb128 .LEHE3-.LEHB3
	.uleb128 .L28-.LFB9713
	.uleb128 0
	.uleb128 .LEHB4-.LFB9713
	.uleb128 .LEHE4-.LEHB4
	.uleb128 0
	.uleb128 0
.LLSDACSE9713:
	.text
	.size	_Z10QuickSort3RSt6vectorIxSaIxEEii, .-_Z10QuickSort3RSt6vectorIxSaIxEEii
	.section	.rodata
	.align	3
.LC0:
	.string	"YES"
	.align	3
.LC1:
	.string	"NO"
	.text
	.align	2
	.global	main
	.type	main, %function
main:
.LFB9714:
	.cfi_startproc
	.cfi_personality 0x9b,DW.ref.__gxx_personality_v0
	.cfi_lsda 0x1b,.LLSDA9714
	stp	x29, x30, [sp, -112]!
	.cfi_def_cfa_offset 112
	.cfi_offset 29, -112
	.cfi_offset 30, -104
	mov	x29, sp
	str	x19, [sp, 16]
	.cfi_offset 19, -96
	add	x0, sp, 68
	mov	x1, x0
	adrp	x0, :got:_ZSt3cin
	ldr	x0, [x0, #:got_lo12:_ZSt3cin]
.LEHB5:
	bl	_ZNSirsERi
	mov	w0, 1
	str	w0, [sp, 108]
	b	.L30
.L42:
	add	x0, sp, 64
	mov	x1, x0
	adrp	x0, :got:_ZSt3cin
	ldr	x0, [x0, #:got_lo12:_ZSt3cin]
	bl	_ZNSirsERi
.LEHE5:
	ldr	w0, [sp, 64]
	sxtw	x19, w0
	add	x0, sp, 72
	bl	_ZNSaIxEC1Ev
	add	x1, sp, 72
	add	x0, sp, 40
	mov	x2, x1
	mov	x1, x19
.LEHB6:
	bl	_ZNSt6vectorIxSaIxEEC1EmRKS0_
.LEHE6:
	add	x0, sp, 72
	bl	_ZNSaIxED1Ev
	str	xzr, [sp, 88]
	str	wzr, [sp, 104]
	b	.L31
.L32:
	ldrsw	x1, [sp, 104]
	add	x0, sp, 40
	bl	_ZNSt6vectorIxSaIxEEixEm
	mov	x1, x0
	adrp	x0, :got:_ZSt3cin
	ldr	x0, [x0, #:got_lo12:_ZSt3cin]
.LEHB7:
	bl	_ZNSirsERx
	ldr	w0, [sp, 104]
	add	w0, w0, 1
	str	w0, [sp, 104]
.L31:
	ldr	w0, [sp, 64]
	ldr	w1, [sp, 104]
	cmp	w1, w0
	blt	.L32
	ldr	w0, [sp, 64]
	cmp	w0, 1
	bne	.L33
	add	x0, sp, 40
	mov	x1, 0
	bl	_ZNSt6vectorIxSaIxEEixEm
	ldr	x0, [x0]
	cmp	x0, 1
	cset	w0, eq
	and	w0, w0, 255
	cmp	w0, 0
	beq	.L34
	adrp	x0, .LC0
	add	x1, x0, :lo12:.LC0
	adrp	x0, :got:_ZSt4cout
	ldr	x0, [x0, #:got_lo12:_ZSt4cout]
	bl	_ZStlsISt11char_traitsIcEERSt13basic_ostreamIcT_ES5_PKc
	mov	x2, x0
	adrp	x0, :got:_ZSt4endlIcSt11char_traitsIcEERSt13basic_ostreamIT_T0_ES6_
	ldr	x1, [x0, #:got_lo12:_ZSt4endlIcSt11char_traitsIcEERSt13basic_ostreamIT_T0_ES6_]
	mov	x0, x2
	bl	_ZNSolsEPFRSoS_E
	b	.L35
.L34:
	adrp	x0, .LC1
	add	x1, x0, :lo12:.LC1
	adrp	x0, :got:_ZSt4cout
	ldr	x0, [x0, #:got_lo12:_ZSt4cout]
	bl	_ZStlsISt11char_traitsIcEERSt13basic_ostreamIcT_ES5_PKc
	mov	x2, x0
	adrp	x0, :got:_ZSt4endlIcSt11char_traitsIcEERSt13basic_ostreamIT_T0_ES6_
	ldr	x1, [x0, #:got_lo12:_ZSt4endlIcSt11char_traitsIcEERSt13basic_ostreamIT_T0_ES6_]
	mov	x0, x2
	bl	_ZNSolsEPFRSoS_E
	b	.L35
.L33:
	str	wzr, [sp, 100]
	b	.L36
.L40:
	str	wzr, [sp, 96]
	b	.L37
.L39:
	ldrsw	x1, [sp, 96]
	add	x0, sp, 40
	bl	_ZNSt6vectorIxSaIxEEixEm
	ldr	x19, [x0]
	ldr	w0, [sp, 96]
	add	w0, w0, 1
	sxtw	x1, w0
	add	x0, sp, 40
	bl	_ZNSt6vectorIxSaIxEEixEm
	ldr	x0, [x0]
	cmp	x19, x0
	cset	w0, gt
	and	w0, w0, 255
	cmp	w0, 0
	beq	.L38
	ldrsw	x1, [sp, 96]
	add	x0, sp, 40
	bl	_ZNSt6vectorIxSaIxEEixEm
	ldr	x0, [x0]
	str	x0, [sp, 80]
	ldr	w0, [sp, 96]
	add	w0, w0, 1
	sxtw	x1, w0
	add	x0, sp, 40
	bl	_ZNSt6vectorIxSaIxEEixEm
	ldr	x19, [x0]
	ldrsw	x1, [sp, 96]
	add	x0, sp, 40
	bl	_ZNSt6vectorIxSaIxEEixEm
	str	x19, [x0]
	ldr	x19, [sp, 80]
	ldr	w0, [sp, 96]
	add	w0, w0, 1
	sxtw	x1, w0
	add	x0, sp, 40
	bl	_ZNSt6vectorIxSaIxEEixEm
	str	x19, [x0]
.L38:
	ldr	w0, [sp, 96]
	add	w0, w0, 1
	str	w0, [sp, 96]
.L37:
	ldr	w0, [sp, 64]
	sub	w0, w0, #1
	ldr	w1, [sp, 96]
	cmp	w1, w0
	blt	.L39
	ldr	w0, [sp, 100]
	add	w0, w0, 1
	str	w0, [sp, 100]
.L36:
	ldr	w0, [sp, 100]
	cmp	w0, 1
	ble	.L40
	ldr	w0, [sp, 64]
	sub	w0, w0, #1
	sxtw	x1, w0
	add	x0, sp, 40
	bl	_ZNSt6vectorIxSaIxEEixEm
	ldr	x19, [x0]
	ldr	w0, [sp, 64]
	sub	w0, w0, #2
	sxtw	x1, w0
	add	x0, sp, 40
	bl	_ZNSt6vectorIxSaIxEEixEm
	ldr	x0, [x0]
	sub	x0, x19, x0
	cmp	x0, 1
	cset	w0, gt
	and	w0, w0, 255
	cmp	w0, 0
	beq	.L41
	adrp	x0, .LC1
	add	x1, x0, :lo12:.LC1
	adrp	x0, :got:_ZSt4cout
	ldr	x0, [x0, #:got_lo12:_ZSt4cout]
	bl	_ZStlsISt11char_traitsIcEERSt13basic_ostreamIcT_ES5_PKc
	mov	x2, x0
	adrp	x0, :got:_ZSt4endlIcSt11char_traitsIcEERSt13basic_ostreamIT_T0_ES6_
	ldr	x1, [x0, #:got_lo12:_ZSt4endlIcSt11char_traitsIcEERSt13basic_ostreamIT_T0_ES6_]
	mov	x0, x2
	bl	_ZNSolsEPFRSoS_E
	b	.L35
.L41:
	adrp	x0, .LC0
	add	x1, x0, :lo12:.LC0
	adrp	x0, :got:_ZSt4cout
	ldr	x0, [x0, #:got_lo12:_ZSt4cout]
	bl	_ZStlsISt11char_traitsIcEERSt13basic_ostreamIcT_ES5_PKc
	mov	x2, x0
	adrp	x0, :got:_ZSt4endlIcSt11char_traitsIcEERSt13basic_ostreamIT_T0_ES6_
	ldr	x1, [x0, #:got_lo12:_ZSt4endlIcSt11char_traitsIcEERSt13basic_ostreamIT_T0_ES6_]
	mov	x0, x2
	bl	_ZNSolsEPFRSoS_E
.LEHE7:
.L35:
	add	x0, sp, 40
	bl	_ZNSt6vectorIxSaIxEED1Ev
	ldr	w0, [sp, 108]
	add	w0, w0, 1
	str	w0, [sp, 108]
.L30:
	ldr	w0, [sp, 68]
	ldr	w1, [sp, 108]
	cmp	w1, w0
	ble	.L42
	mov	w0, 0
	b	.L48
.L46:
	mov	x19, x0
	add	x0, sp, 72
	bl	_ZNSaIxED1Ev
	mov	x0, x19
.LEHB8:
	bl	_Unwind_Resume
.L47:
	mov	x19, x0
	add	x0, sp, 40
	bl	_ZNSt6vectorIxSaIxEED1Ev
	mov	x0, x19
	bl	_Unwind_Resume
.LEHE8:
.L48:
	ldr	x19, [sp, 16]
	ldp	x29, x30, [sp], 112
	.cfi_restore 30
	.cfi_restore 29
	.cfi_restore 19
	.cfi_def_cfa_offset 0
	ret
	.cfi_endproc
.LFE9714:
	.section	.gcc_except_table
.LLSDA9714:
	.byte	0xff
	.byte	0xff
	.byte	0x1
	.uleb128 .LLSDACSE9714-.LLSDACSB9714
.LLSDACSB9714:
	.uleb128 .LEHB5-.LFB9714
	.uleb128 .LEHE5-.LEHB5
	.uleb128 0
	.uleb128 0
	.uleb128 .LEHB6-.LFB9714
	.uleb128 .LEHE6-.LEHB6
	.uleb128 .L46-.LFB9714
	.uleb128 0
	.uleb128 .LEHB7-.LFB9714
	.uleb128 .LEHE7-.LEHB7
	.uleb128 .L47-.LFB9714
	.uleb128 0
	.uleb128 .LEHB8-.LFB9714
	.uleb128 .LEHE8-.LEHB8
	.uleb128 0
	.uleb128 0
.LLSDACSE9714:
	.text
	.size	main, .-main
	.section	.text._ZSt3maxImERKT_S2_S2_,"axG",@progbits,_ZSt3maxImERKT_S2_S2_,comdat
	.align	2
	.weak	_ZSt3maxImERKT_S2_S2_
	.type	_ZSt3maxImERKT_S2_S2_, %function
_ZSt3maxImERKT_S2_S2_:
.LFB10026:
	.cfi_startproc
	sub	sp, sp, #16
	.cfi_def_cfa_offset 16
	str	x0, [sp, 8]
	str	x1, [sp]
	ldr	x0, [sp, 8]
	ldr	x1, [x0]
	ldr	x0, [sp]
	ldr	x0, [x0]
	cmp	x1, x0
	bcs	.L50
	ldr	x0, [sp]
	b	.L51
.L50:
	ldr	x0, [sp, 8]
.L51:
	add	sp, sp, 16
	.cfi_def_cfa_offset 0
	ret
	.cfi_endproc
.LFE10026:
	.size	_ZSt3maxImERKT_S2_S2_, .-_ZSt3maxImERKT_S2_S2_
	.section	.text._ZNSt6vectorIxSaIxEEixEm,"axG",@progbits,_ZNSt6vectorIxSaIxEEixEm,comdat
	.align	2
	.weak	_ZNSt6vectorIxSaIxEEixEm
	.type	_ZNSt6vectorIxSaIxEEixEm, %function
_ZNSt6vectorIxSaIxEEixEm:
.LFB10402:
	.cfi_startproc
	sub	sp, sp, #16
	.cfi_def_cfa_offset 16
	str	x0, [sp, 8]
	str	x1, [sp]
	ldr	x0, [sp, 8]
	ldr	x1, [x0]
	ldr	x0, [sp]
	lsl	x0, x0, 3
	add	x0, x1, x0
	add	sp, sp, 16
	.cfi_def_cfa_offset 0
	ret
	.cfi_endproc
.LFE10402:
	.size	_ZNSt6vectorIxSaIxEEixEm, .-_ZNSt6vectorIxSaIxEEixEm
	.section	.text._ZNSt12_Vector_baseIxSaIxEE12_Vector_implC2Ev,"axG",@progbits,_ZNSt12_Vector_baseIxSaIxEE12_Vector_implC5Ev,comdat
	.align	2
	.weak	_ZNSt12_Vector_baseIxSaIxEE12_Vector_implC2Ev
	.type	_ZNSt12_Vector_baseIxSaIxEE12_Vector_implC2Ev, %function
_ZNSt12_Vector_baseIxSaIxEE12_Vector_implC2Ev:
.LFB10404:
	.cfi_startproc
	stp	x29, x30, [sp, -32]!
	.cfi_def_cfa_offset 32
	.cfi_offset 29, -32
	.cfi_offset 30, -24
	mov	x29, sp
	str	x0, [sp, 24]
	ldr	x0, [sp, 24]
	bl	_ZNSaIxEC2Ev
	ldr	x0, [sp, 24]
	bl	_ZNSt12_Vector_baseIxSaIxEE17_Vector_impl_dataC2Ev
	nop
	ldp	x29, x30, [sp], 32
	.cfi_restore 30
	.cfi_restore 29
	.cfi_def_cfa_offset 0
	ret
	.cfi_endproc
.LFE10404:
	.size	_ZNSt12_Vector_baseIxSaIxEE12_Vector_implC2Ev, .-_ZNSt12_Vector_baseIxSaIxEE12_Vector_implC2Ev
	.weak	_ZNSt12_Vector_baseIxSaIxEE12_Vector_implC1Ev
	.set	_ZNSt12_Vector_baseIxSaIxEE12_Vector_implC1Ev,_ZNSt12_Vector_baseIxSaIxEE12_Vector_implC2Ev
	.section	.text._ZNSaIxED2Ev,"axG",@progbits,_ZNSaIxED5Ev,comdat
	.align	2
	.weak	_ZNSaIxED2Ev
	.type	_ZNSaIxED2Ev, %function
_ZNSaIxED2Ev:
.LFB10407:
	.cfi_startproc
	stp	x29, x30, [sp, -32]!
	.cfi_def_cfa_offset 32
	.cfi_offset 29, -32
	.cfi_offset 30, -24
	mov	x29, sp
	str	x0, [sp, 24]
	ldr	x0, [sp, 24]
	bl	_ZN9__gnu_cxx13new_allocatorIxED2Ev
	nop
	ldp	x29, x30, [sp], 32
	.cfi_restore 30
	.cfi_restore 29
	.cfi_def_cfa_offset 0
	ret
	.cfi_endproc
.LFE10407:
	.size	_ZNSaIxED2Ev, .-_ZNSaIxED2Ev
	.weak	_ZNSaIxED1Ev
	.set	_ZNSaIxED1Ev,_ZNSaIxED2Ev
	.section	.text._ZNSt12_Vector_baseIxSaIxEED2Ev,"axG",@progbits,_ZNSt12_Vector_baseIxSaIxEED5Ev,comdat
	.align	2
	.weak	_ZNSt12_Vector_baseIxSaIxEED2Ev
	.type	_ZNSt12_Vector_baseIxSaIxEED2Ev, %function
_ZNSt12_Vector_baseIxSaIxEED2Ev:
.LFB10410:
	.cfi_startproc
	.cfi_personality 0x9b,DW.ref.__gxx_personality_v0
	.cfi_lsda 0x1b,.LLSDA10410
	stp	x29, x30, [sp, -32]!
	.cfi_def_cfa_offset 32
	.cfi_offset 29, -32
	.cfi_offset 30, -24
	mov	x29, sp
	str	x0, [sp, 24]
	ldr	x0, [sp, 24]
	ldr	x3, [x0]
	ldr	x0, [sp, 24]
	ldr	x1, [x0, 16]
	ldr	x0, [sp, 24]
	ldr	x0, [x0]
	sub	x0, x1, x0
	asr	x0, x0, 3
	mov	x2, x0
	mov	x1, x3
	ldr	x0, [sp, 24]
	bl	_ZNSt12_Vector_baseIxSaIxEE13_M_deallocateEPxm
	ldr	x0, [sp, 24]
	bl	_ZNSt12_Vector_baseIxSaIxEE12_Vector_implD1Ev
	nop
	ldp	x29, x30, [sp], 32
	.cfi_restore 30
	.cfi_restore 29
	.cfi_def_cfa_offset 0
	ret
	.cfi_endproc
.LFE10410:
	.section	.gcc_except_table
.LLSDA10410:
	.byte	0xff
	.byte	0xff
	.byte	0x1
	.uleb128 .LLSDACSE10410-.LLSDACSB10410
.LLSDACSB10410:
.LLSDACSE10410:
	.section	.text._ZNSt12_Vector_baseIxSaIxEED2Ev,"axG",@progbits,_ZNSt12_Vector_baseIxSaIxEED5Ev,comdat
	.size	_ZNSt12_Vector_baseIxSaIxEED2Ev, .-_ZNSt12_Vector_baseIxSaIxEED2Ev
	.weak	_ZNSt12_Vector_baseIxSaIxEED1Ev
	.set	_ZNSt12_Vector_baseIxSaIxEED1Ev,_ZNSt12_Vector_baseIxSaIxEED2Ev
	.section	.text._ZNSt6vectorIxSaIxEED2Ev,"axG",@progbits,_ZNSt6vectorIxSaIxEED5Ev,comdat
	.align	2
	.weak	_ZNSt6vectorIxSaIxEED2Ev
	.type	_ZNSt6vectorIxSaIxEED2Ev, %function
_ZNSt6vectorIxSaIxEED2Ev:
.LFB10413:
	.cfi_startproc
	.cfi_personality 0x9b,DW.ref.__gxx_personality_v0
	.cfi_lsda 0x1b,.LLSDA10413
	stp	x29, x30, [sp, -48]!
	.cfi_def_cfa_offset 48
	.cfi_offset 29, -48
	.cfi_offset 30, -40
	mov	x29, sp
	stp	x19, x20, [sp, 16]
	.cfi_offset 19, -32
	.cfi_offset 20, -24
	str	x0, [sp, 40]
	ldr	x0, [sp, 40]
	ldr	x19, [x0]
	ldr	x0, [sp, 40]
	ldr	x20, [x0, 8]
	ldr	x0, [sp, 40]
	bl	_ZNSt12_Vector_baseIxSaIxEE19_M_get_Tp_allocatorEv
	mov	x2, x0
	mov	x1, x20
	mov	x0, x19
	bl	_ZSt8_DestroyIPxxEvT_S1_RSaIT0_E
	ldr	x0, [sp, 40]
	bl	_ZNSt12_Vector_baseIxSaIxEED2Ev
	nop
	ldp	x19, x20, [sp, 16]
	ldp	x29, x30, [sp], 48
	.cfi_restore 30
	.cfi_restore 29
	.cfi_restore 19
	.cfi_restore 20
	.cfi_def_cfa_offset 0
	ret
	.cfi_endproc
.LFE10413:
	.section	.gcc_except_table
.LLSDA10413:
	.byte	0xff
	.byte	0xff
	.byte	0x1
	.uleb128 .LLSDACSE10413-.LLSDACSB10413
.LLSDACSB10413:
.LLSDACSE10413:
	.section	.text._ZNSt6vectorIxSaIxEED2Ev,"axG",@progbits,_ZNSt6vectorIxSaIxEED5Ev,comdat
	.size	_ZNSt6vectorIxSaIxEED2Ev, .-_ZNSt6vectorIxSaIxEED2Ev
	.weak	_ZNSt6vectorIxSaIxEED1Ev
	.set	_ZNSt6vectorIxSaIxEED1Ev,_ZNSt6vectorIxSaIxEED2Ev
	.section	.text._ZNSt6vectorIxSaIxEE9push_backEOx,"axG",@progbits,_ZNSt6vectorIxSaIxEE9push_backEOx,comdat
	.align	2
	.weak	_ZNSt6vectorIxSaIxEE9push_backEOx
	.type	_ZNSt6vectorIxSaIxEE9push_backEOx, %function
_ZNSt6vectorIxSaIxEE9push_backEOx:
.LFB10415:
	.cfi_startproc
	stp	x29, x30, [sp, -32]!
	.cfi_def_cfa_offset 32
	.cfi_offset 29, -32
	.cfi_offset 30, -24
	mov	x29, sp
	str	x0, [sp, 24]
	str	x1, [sp, 16]
	ldr	x0, [sp, 16]
	bl	_ZSt4moveIRxEONSt16remove_referenceIT_E4typeEOS2_
	mov	x1, x0
	ldr	x0, [sp, 24]
	bl	_ZNSt6vectorIxSaIxEE12emplace_backIJxEEERxDpOT_
	nop
	ldp	x29, x30, [sp], 32
	.cfi_restore 30
	.cfi_restore 29
	.cfi_def_cfa_offset 0
	ret
	.cfi_endproc
.LFE10415:
	.size	_ZNSt6vectorIxSaIxEE9push_backEOx, .-_ZNSt6vectorIxSaIxEE9push_backEOx
	.section	.text._ZNSaIxEC2Ev,"axG",@progbits,_ZNSaIxEC5Ev,comdat
	.align	2
	.weak	_ZNSaIxEC2Ev
	.type	_ZNSaIxEC2Ev, %function
_ZNSaIxEC2Ev:
.LFB10420:
	.cfi_startproc
	stp	x29, x30, [sp, -32]!
	.cfi_def_cfa_offset 32
	.cfi_offset 29, -32
	.cfi_offset 30, -24
	mov	x29, sp
	str	x0, [sp, 24]
	ldr	x0, [sp, 24]
	bl	_ZN9__gnu_cxx13new_allocatorIxEC2Ev
	nop
	ldp	x29, x30, [sp], 32
	.cfi_restore 30
	.cfi_restore 29
	.cfi_def_cfa_offset 0
	ret
	.cfi_endproc
.LFE10420:
	.size	_ZNSaIxEC2Ev, .-_ZNSaIxEC2Ev
	.weak	_ZNSaIxEC1Ev
	.set	_ZNSaIxEC1Ev,_ZNSaIxEC2Ev
	.section	.text._ZNSt6vectorIxSaIxEEC2EmRKS0_,"axG",@progbits,_ZNSt6vectorIxSaIxEEC5EmRKS0_,comdat
	.align	2
	.weak	_ZNSt6vectorIxSaIxEEC2EmRKS0_
	.type	_ZNSt6vectorIxSaIxEEC2EmRKS0_, %function
_ZNSt6vectorIxSaIxEEC2EmRKS0_:
.LFB10423:
	.cfi_startproc
	.cfi_personality 0x9b,DW.ref.__gxx_personality_v0
	.cfi_lsda 0x1b,.LLSDA10423
	stp	x29, x30, [sp, -64]!
	.cfi_def_cfa_offset 64
	.cfi_offset 29, -64
	.cfi_offset 30, -56
	mov	x29, sp
	str	x19, [sp, 16]
	.cfi_offset 19, -48
	str	x0, [sp, 56]
	str	x1, [sp, 48]
	str	x2, [sp, 40]
	ldr	x19, [sp, 56]
	ldr	x1, [sp, 40]
	ldr	x0, [sp, 48]
.LEHB9:
	bl	_ZNSt6vectorIxSaIxEE17_S_check_init_lenEmRKS0_
	ldr	x2, [sp, 40]
	mov	x1, x0
	mov	x0, x19
	bl	_ZNSt12_Vector_baseIxSaIxEEC2EmRKS0_
.LEHE9:
	ldr	x1, [sp, 48]
	ldr	x0, [sp, 56]
.LEHB10:
	bl	_ZNSt6vectorIxSaIxEE21_M_default_initializeEm
.LEHE10:
	b	.L63
.L62:
	mov	x19, x0
	ldr	x0, [sp, 56]
	bl	_ZNSt12_Vector_baseIxSaIxEED2Ev
	mov	x0, x19
.LEHB11:
	bl	_Unwind_Resume
.LEHE11:
.L63:
	ldr	x19, [sp, 16]
	ldp	x29, x30, [sp], 64
	.cfi_restore 30
	.cfi_restore 29
	.cfi_restore 19
	.cfi_def_cfa_offset 0
	ret
	.cfi_endproc
.LFE10423:
	.section	.gcc_except_table
.LLSDA10423:
	.byte	0xff
	.byte	0xff
	.byte	0x1
	.uleb128 .LLSDACSE10423-.LLSDACSB10423
.LLSDACSB10423:
	.uleb128 .LEHB9-.LFB10423
	.uleb128 .LEHE9-.LEHB9
	.uleb128 0
	.uleb128 0
	.uleb128 .LEHB10-.LFB10423
	.uleb128 .LEHE10-.LEHB10
	.uleb128 .L62-.LFB10423
	.uleb128 0
	.uleb128 .LEHB11-.LFB10423
	.uleb128 .LEHE11-.LEHB11
	.uleb128 0
	.uleb128 0
.LLSDACSE10423:
	.section	.text._ZNSt6vectorIxSaIxEEC2EmRKS0_,"axG",@progbits,_ZNSt6vectorIxSaIxEEC5EmRKS0_,comdat
	.size	_ZNSt6vectorIxSaIxEEC2EmRKS0_, .-_ZNSt6vectorIxSaIxEEC2EmRKS0_
	.weak	_ZNSt6vectorIxSaIxEEC1EmRKS0_
	.set	_ZNSt6vectorIxSaIxEEC1EmRKS0_,_ZNSt6vectorIxSaIxEEC2EmRKS0_
	.section	.text._ZNSt12_Vector_baseIxSaIxEE17_Vector_impl_dataC2Ev,"axG",@progbits,_ZNSt12_Vector_baseIxSaIxEE17_Vector_impl_dataC5Ev,comdat
	.align	2
	.weak	_ZNSt12_Vector_baseIxSaIxEE17_Vector_impl_dataC2Ev
	.type	_ZNSt12_Vector_baseIxSaIxEE17_Vector_impl_dataC2Ev, %function
_ZNSt12_Vector_baseIxSaIxEE17_Vector_impl_dataC2Ev:
.LFB10821:
	.cfi_startproc
	sub	sp, sp, #16
	.cfi_def_cfa_offset 16
	str	x0, [sp, 8]
	ldr	x0, [sp, 8]
	str	xzr, [x0]
	ldr	x0, [sp, 8]
	str	xzr, [x0, 8]
	ldr	x0, [sp, 8]
	str	xzr, [x0, 16]
	nop
	add	sp, sp, 16
	.cfi_def_cfa_offset 0
	ret
	.cfi_endproc
.LFE10821:
	.size	_ZNSt12_Vector_baseIxSaIxEE17_Vector_impl_dataC2Ev, .-_ZNSt12_Vector_baseIxSaIxEE17_Vector_impl_dataC2Ev
	.weak	_ZNSt12_Vector_baseIxSaIxEE17_Vector_impl_dataC1Ev
	.set	_ZNSt12_Vector_baseIxSaIxEE17_Vector_impl_dataC1Ev,_ZNSt12_Vector_baseIxSaIxEE17_Vector_impl_dataC2Ev
	.section	.text._ZN9__gnu_cxx13new_allocatorIxED2Ev,"axG",@progbits,_ZN9__gnu_cxx13new_allocatorIxED5Ev,comdat
	.align	2
	.weak	_ZN9__gnu_cxx13new_allocatorIxED2Ev
	.type	_ZN9__gnu_cxx13new_allocatorIxED2Ev, %function
_ZN9__gnu_cxx13new_allocatorIxED2Ev:
.LFB10824:
	.cfi_startproc
	sub	sp, sp, #16
	.cfi_def_cfa_offset 16
	str	x0, [sp, 8]
	nop
	add	sp, sp, 16
	.cfi_def_cfa_offset 0
	ret
	.cfi_endproc
.LFE10824:
	.size	_ZN9__gnu_cxx13new_allocatorIxED2Ev, .-_ZN9__gnu_cxx13new_allocatorIxED2Ev
	.weak	_ZN9__gnu_cxx13new_allocatorIxED1Ev
	.set	_ZN9__gnu_cxx13new_allocatorIxED1Ev,_ZN9__gnu_cxx13new_allocatorIxED2Ev
	.section	.text._ZNSt12_Vector_baseIxSaIxEE13_M_deallocateEPxm,"axG",@progbits,_ZNSt12_Vector_baseIxSaIxEE13_M_deallocateEPxm,comdat
	.align	2
	.weak	_ZNSt12_Vector_baseIxSaIxEE13_M_deallocateEPxm
	.type	_ZNSt12_Vector_baseIxSaIxEE13_M_deallocateEPxm, %function
_ZNSt12_Vector_baseIxSaIxEE13_M_deallocateEPxm:
.LFB10826:
	.cfi_startproc
	stp	x29, x30, [sp, -48]!
	.cfi_def_cfa_offset 48
	.cfi_offset 29, -48
	.cfi_offset 30, -40
	mov	x29, sp
	str	x0, [sp, 40]
	str	x1, [sp, 32]
	str	x2, [sp, 24]
	ldr	x0, [sp, 32]
	cmp	x0, 0
	beq	.L68
	ldr	x0, [sp, 40]
	ldr	x2, [sp, 24]
	ldr	x1, [sp, 32]
	bl	_ZNSt16allocator_traitsISaIxEE10deallocateERS0_Pxm
.L68:
	nop
	ldp	x29, x30, [sp], 48
	.cfi_restore 30
	.cfi_restore 29
	.cfi_def_cfa_offset 0
	ret
	.cfi_endproc
.LFE10826:
	.size	_ZNSt12_Vector_baseIxSaIxEE13_M_deallocateEPxm, .-_ZNSt12_Vector_baseIxSaIxEE13_M_deallocateEPxm
	.section	.text._ZNSt12_Vector_baseIxSaIxEE19_M_get_Tp_allocatorEv,"axG",@progbits,_ZNSt12_Vector_baseIxSaIxEE19_M_get_Tp_allocatorEv,comdat
	.align	2
	.weak	_ZNSt12_Vector_baseIxSaIxEE19_M_get_Tp_allocatorEv
	.type	_ZNSt12_Vector_baseIxSaIxEE19_M_get_Tp_allocatorEv, %function
_ZNSt12_Vector_baseIxSaIxEE19_M_get_Tp_allocatorEv:
.LFB10827:
	.cfi_startproc
	sub	sp, sp, #16
	.cfi_def_cfa_offset 16
	str	x0, [sp, 8]
	ldr	x0, [sp, 8]
	add	sp, sp, 16
	.cfi_def_cfa_offset 0
	ret
	.cfi_endproc
.LFE10827:
	.size	_ZNSt12_Vector_baseIxSaIxEE19_M_get_Tp_allocatorEv, .-_ZNSt12_Vector_baseIxSaIxEE19_M_get_Tp_allocatorEv
	.section	.text._ZSt8_DestroyIPxxEvT_S1_RSaIT0_E,"axG",@progbits,_ZSt8_DestroyIPxxEvT_S1_RSaIT0_E,comdat
	.align	2
	.weak	_ZSt8_DestroyIPxxEvT_S1_RSaIT0_E
	.type	_ZSt8_DestroyIPxxEvT_S1_RSaIT0_E, %function
_ZSt8_DestroyIPxxEvT_S1_RSaIT0_E:
.LFB10828:
	.cfi_startproc
	stp	x29, x30, [sp, -48]!
	.cfi_def_cfa_offset 48
	.cfi_offset 29, -48
	.cfi_offset 30, -40
	mov	x29, sp
	str	x0, [sp, 40]
	str	x1, [sp, 32]
	str	x2, [sp, 24]
	ldr	x1, [sp, 32]
	ldr	x0, [sp, 40]
	bl	_ZSt8_DestroyIPxEvT_S1_
	nop
	ldp	x29, x30, [sp], 48
	.cfi_restore 30
	.cfi_restore 29
	.cfi_def_cfa_offset 0
	ret
	.cfi_endproc
.LFE10828:
	.size	_ZSt8_DestroyIPxxEvT_S1_RSaIT0_E, .-_ZSt8_DestroyIPxxEvT_S1_RSaIT0_E
	.section	.text._ZSt4moveIRxEONSt16remove_referenceIT_E4typeEOS2_,"axG",@progbits,_ZSt4moveIRxEONSt16remove_referenceIT_E4typeEOS2_,comdat
	.align	2
	.weak	_ZSt4moveIRxEONSt16remove_referenceIT_E4typeEOS2_
	.type	_ZSt4moveIRxEONSt16remove_referenceIT_E4typeEOS2_, %function
_ZSt4moveIRxEONSt16remove_referenceIT_E4typeEOS2_:
.LFB10829:
	.cfi_startproc
	sub	sp, sp, #16
	.cfi_def_cfa_offset 16
	str	x0, [sp, 8]
	ldr	x0, [sp, 8]
	add	sp, sp, 16
	.cfi_def_cfa_offset 0
	ret
	.cfi_endproc
.LFE10829:
	.size	_ZSt4moveIRxEONSt16remove_referenceIT_E4typeEOS2_, .-_ZSt4moveIRxEONSt16remove_referenceIT_E4typeEOS2_
	.section	.text._ZNSt6vectorIxSaIxEE12emplace_backIJxEEERxDpOT_,"axG",@progbits,_ZNSt6vectorIxSaIxEE12emplace_backIJxEEERxDpOT_,comdat
	.align	2
	.weak	_ZNSt6vectorIxSaIxEE12emplace_backIJxEEERxDpOT_
	.type	_ZNSt6vectorIxSaIxEE12emplace_backIJxEEERxDpOT_, %function
_ZNSt6vectorIxSaIxEE12emplace_backIJxEEERxDpOT_:
.LFB10830:
	.cfi_startproc
	stp	x29, x30, [sp, -48]!
	.cfi_def_cfa_offset 48
	.cfi_offset 29, -48
	.cfi_offset 30, -40
	mov	x29, sp
	stp	x19, x20, [sp, 16]
	.cfi_offset 19, -32
	.cfi_offset 20, -24
	str	x0, [sp, 40]
	str	x1, [sp, 32]
	ldr	x0, [sp, 40]
	ldr	x1, [x0, 8]
	ldr	x0, [sp, 40]
	ldr	x0, [x0, 16]
	cmp	x1, x0
	beq	.L75
	ldr	x19, [sp, 40]
	ldr	x0, [sp, 40]
	ldr	x20, [x0, 8]
	ldr	x0, [sp, 32]
	bl	_ZSt7forwardIxEOT_RNSt16remove_referenceIS0_E4typeE
	mov	x2, x0
	mov	x1, x20
	mov	x0, x19
	bl	_ZNSt16allocator_traitsISaIxEE9constructIxJxEEEvRS0_PT_DpOT0_
	ldr	x0, [sp, 40]
	ldr	x0, [x0, 8]
	add	x1, x0, 8
	ldr	x0, [sp, 40]
	str	x1, [x0, 8]
	b	.L76
.L75:
	ldr	x0, [sp, 40]
	bl	_ZNSt6vectorIxSaIxEE3endEv
	mov	x19, x0
	ldr	x0, [sp, 32]
	bl	_ZSt7forwardIxEOT_RNSt16remove_referenceIS0_E4typeE
	mov	x2, x0
	mov	x1, x19
	ldr	x0, [sp, 40]
	bl	_ZNSt6vectorIxSaIxEE17_M_realloc_insertIJxEEEvN9__gnu_cxx17__normal_iteratorIPxS1_EEDpOT_
.L76:
	ldr	x0, [sp, 40]
	bl	_ZNSt6vectorIxSaIxEE4backEv
	ldp	x19, x20, [sp, 16]
	ldp	x29, x30, [sp], 48
	.cfi_restore 30
	.cfi_restore 29
	.cfi_restore 19
	.cfi_restore 20
	.cfi_def_cfa_offset 0
	ret
	.cfi_endproc
.LFE10830:
	.size	_ZNSt6vectorIxSaIxEE12emplace_backIJxEEERxDpOT_, .-_ZNSt6vectorIxSaIxEE12emplace_backIJxEEERxDpOT_
	.section	.text._ZNSaIxEC2ERKS_,"axG",@progbits,_ZNSaIxEC5ERKS_,comdat
	.align	2
	.weak	_ZNSaIxEC2ERKS_
	.type	_ZNSaIxEC2ERKS_, %function
_ZNSaIxEC2ERKS_:
.LFB10834:
	.cfi_startproc
	stp	x29, x30, [sp, -32]!
	.cfi_def_cfa_offset 32
	.cfi_offset 29, -32
	.cfi_offset 30, -24
	mov	x29, sp
	str	x0, [sp, 24]
	str	x1, [sp, 16]
	ldr	x1, [sp, 16]
	ldr	x0, [sp, 24]
	bl	_ZN9__gnu_cxx13new_allocatorIxEC2ERKS1_
	nop
	ldp	x29, x30, [sp], 32
	.cfi_restore 30
	.cfi_restore 29
	.cfi_def_cfa_offset 0
	ret
	.cfi_endproc
.LFE10834:
	.size	_ZNSaIxEC2ERKS_, .-_ZNSaIxEC2ERKS_
	.weak	_ZNSaIxEC1ERKS_
	.set	_ZNSaIxEC1ERKS_,_ZNSaIxEC2ERKS_
	.section	.text._ZN9__gnu_cxx13new_allocatorIxEC2Ev,"axG",@progbits,_ZN9__gnu_cxx13new_allocatorIxEC5Ev,comdat
	.align	2
	.weak	_ZN9__gnu_cxx13new_allocatorIxEC2Ev
	.type	_ZN9__gnu_cxx13new_allocatorIxEC2Ev, %function
_ZN9__gnu_cxx13new_allocatorIxEC2Ev:
.LFB10840:
	.cfi_startproc
	sub	sp, sp, #16
	.cfi_def_cfa_offset 16
	str	x0, [sp, 8]
	nop
	add	sp, sp, 16
	.cfi_def_cfa_offset 0
	ret
	.cfi_endproc
.LFE10840:
	.size	_ZN9__gnu_cxx13new_allocatorIxEC2Ev, .-_ZN9__gnu_cxx13new_allocatorIxEC2Ev
	.weak	_ZN9__gnu_cxx13new_allocatorIxEC1Ev
	.set	_ZN9__gnu_cxx13new_allocatorIxEC1Ev,_ZN9__gnu_cxx13new_allocatorIxEC2Ev
	.section	.rodata
	.align	3
.LC2:
	.string	"cannot create std::vector larger than max_size()"
	.section	.text._ZNSt6vectorIxSaIxEE17_S_check_init_lenEmRKS0_,"axG",@progbits,_ZNSt6vectorIxSaIxEE17_S_check_init_lenEmRKS0_,comdat
	.align	2
	.weak	_ZNSt6vectorIxSaIxEE17_S_check_init_lenEmRKS0_
	.type	_ZNSt6vectorIxSaIxEE17_S_check_init_lenEmRKS0_, %function
_ZNSt6vectorIxSaIxEE17_S_check_init_lenEmRKS0_:
.LFB10842:
	.cfi_startproc
	stp	x29, x30, [sp, -64]!
	.cfi_def_cfa_offset 64
	.cfi_offset 29, -64
	.cfi_offset 30, -56
	mov	x29, sp
	str	x19, [sp, 16]
	.cfi_offset 19, -48
	str	x0, [sp, 40]
	str	x1, [sp, 32]
	add	x0, sp, 56
	ldr	x1, [sp, 32]
	bl	_ZNSaIxEC1ERKS_
	add	x0, sp, 56
	bl	_ZNSt6vectorIxSaIxEE11_S_max_sizeERKS0_
	mov	x1, x0
	ldr	x0, [sp, 40]
	cmp	x0, x1
	cset	w0, hi
	and	w19, w0, 255
	add	x0, sp, 56
	bl	_ZNSaIxED1Ev
	cmp	w19, 0
	beq	.L81
	adrp	x0, .LC2
	add	x0, x0, :lo12:.LC2
	bl	_ZSt20__throw_length_errorPKc
.L81:
	ldr	x0, [sp, 40]
	ldr	x19, [sp, 16]
	ldp	x29, x30, [sp], 64
	.cfi_restore 30
	.cfi_restore 29
	.cfi_restore 19
	.cfi_def_cfa_offset 0
	ret
	.cfi_endproc
.LFE10842:
	.size	_ZNSt6vectorIxSaIxEE17_S_check_init_lenEmRKS0_, .-_ZNSt6vectorIxSaIxEE17_S_check_init_lenEmRKS0_
	.section	.text._ZNSt12_Vector_baseIxSaIxEEC2EmRKS0_,"axG",@progbits,_ZNSt12_Vector_baseIxSaIxEEC5EmRKS0_,comdat
	.align	2
	.weak	_ZNSt12_Vector_baseIxSaIxEEC2EmRKS0_
	.type	_ZNSt12_Vector_baseIxSaIxEEC2EmRKS0_, %function
_ZNSt12_Vector_baseIxSaIxEEC2EmRKS0_:
.LFB10844:
	.cfi_startproc
	.cfi_personality 0x9b,DW.ref.__gxx_personality_v0
	.cfi_lsda 0x1b,.LLSDA10844
	stp	x29, x30, [sp, -64]!
	.cfi_def_cfa_offset 64
	.cfi_offset 29, -64
	.cfi_offset 30, -56
	mov	x29, sp
	str	x19, [sp, 16]
	.cfi_offset 19, -48
	str	x0, [sp, 56]
	str	x1, [sp, 48]
	str	x2, [sp, 40]
	ldr	x0, [sp, 56]
	ldr	x1, [sp, 40]
	bl	_ZNSt12_Vector_baseIxSaIxEE12_Vector_implC1ERKS0_
	ldr	x1, [sp, 48]
	ldr	x0, [sp, 56]
.LEHB12:
	bl	_ZNSt12_Vector_baseIxSaIxEE17_M_create_storageEm
.LEHE12:
	b	.L86
.L85:
	mov	x19, x0
	ldr	x0, [sp, 56]
	bl	_ZNSt12_Vector_baseIxSaIxEE12_Vector_implD1Ev
	mov	x0, x19
.LEHB13:
	bl	_Unwind_Resume
.LEHE13:
.L86:
	ldr	x19, [sp, 16]
	ldp	x29, x30, [sp], 64
	.cfi_restore 30
	.cfi_restore 29
	.cfi_restore 19
	.cfi_def_cfa_offset 0
	ret
	.cfi_endproc
.LFE10844:
	.section	.gcc_except_table
.LLSDA10844:
	.byte	0xff
	.byte	0xff
	.byte	0x1
	.uleb128 .LLSDACSE10844-.LLSDACSB10844
.LLSDACSB10844:
	.uleb128 .LEHB12-.LFB10844
	.uleb128 .LEHE12-.LEHB12
	.uleb128 .L85-.LFB10844
	.uleb128 0
	.uleb128 .LEHB13-.LFB10844
	.uleb128 .LEHE13-.LEHB13
	.uleb128 0
	.uleb128 0
.LLSDACSE10844:
	.section	.text._ZNSt12_Vector_baseIxSaIxEEC2EmRKS0_,"axG",@progbits,_ZNSt12_Vector_baseIxSaIxEEC5EmRKS0_,comdat
	.size	_ZNSt12_Vector_baseIxSaIxEEC2EmRKS0_, .-_ZNSt12_Vector_baseIxSaIxEEC2EmRKS0_
	.weak	_ZNSt12_Vector_baseIxSaIxEEC1EmRKS0_
	.set	_ZNSt12_Vector_baseIxSaIxEEC1EmRKS0_,_ZNSt12_Vector_baseIxSaIxEEC2EmRKS0_
	.section	.text._ZNSt6vectorIxSaIxEE21_M_default_initializeEm,"axG",@progbits,_ZNSt6vectorIxSaIxEE21_M_default_initializeEm,comdat
	.align	2
	.weak	_ZNSt6vectorIxSaIxEE21_M_default_initializeEm
	.type	_ZNSt6vectorIxSaIxEE21_M_default_initializeEm, %function
_ZNSt6vectorIxSaIxEE21_M_default_initializeEm:
.LFB10846:
	.cfi_startproc
	stp	x29, x30, [sp, -48]!
	.cfi_def_cfa_offset 48
	.cfi_offset 29, -48
	.cfi_offset 30, -40
	mov	x29, sp
	str	x19, [sp, 16]
	.cfi_offset 19, -32
	str	x0, [sp, 40]
	str	x1, [sp, 32]
	ldr	x0, [sp, 40]
	ldr	x19, [x0]
	ldr	x0, [sp, 40]
	bl	_ZNSt12_Vector_baseIxSaIxEE19_M_get_Tp_allocatorEv
	mov	x2, x0
	ldr	x1, [sp, 32]
	mov	x0, x19
	bl	_ZSt27__uninitialized_default_n_aIPxmxET_S1_T0_RSaIT1_E
	mov	x1, x0
	ldr	x0, [sp, 40]
	str	x1, [x0, 8]
	nop
	ldr	x19, [sp, 16]
	ldp	x29, x30, [sp], 48
	.cfi_restore 30
	.cfi_restore 29
	.cfi_restore 19
	.cfi_def_cfa_offset 0
	ret
	.cfi_endproc
.LFE10846:
	.size	_ZNSt6vectorIxSaIxEE21_M_default_initializeEm, .-_ZNSt6vectorIxSaIxEE21_M_default_initializeEm
	.section	.text._ZNSt16allocator_traitsISaIxEE10deallocateERS0_Pxm,"axG",@progbits,_ZNSt16allocator_traitsISaIxEE10deallocateERS0_Pxm,comdat
	.align	2
	.weak	_ZNSt16allocator_traitsISaIxEE10deallocateERS0_Pxm
	.type	_ZNSt16allocator_traitsISaIxEE10deallocateERS0_Pxm, %function
_ZNSt16allocator_traitsISaIxEE10deallocateERS0_Pxm:
.LFB11046:
	.cfi_startproc
	stp	x29, x30, [sp, -48]!
	.cfi_def_cfa_offset 48
	.cfi_offset 29, -48
	.cfi_offset 30, -40
	mov	x29, sp
	str	x0, [sp, 40]
	str	x1, [sp, 32]
	str	x2, [sp, 24]
	ldr	x2, [sp, 24]
	ldr	x1, [sp, 32]
	ldr	x0, [sp, 40]
	bl	_ZN9__gnu_cxx13new_allocatorIxE10deallocateEPxm
	nop
	ldp	x29, x30, [sp], 48
	.cfi_restore 30
	.cfi_restore 29
	.cfi_def_cfa_offset 0
	ret
	.cfi_endproc
.LFE11046:
	.size	_ZNSt16allocator_traitsISaIxEE10deallocateERS0_Pxm, .-_ZNSt16allocator_traitsISaIxEE10deallocateERS0_Pxm
	.section	.text._ZSt8_DestroyIPxEvT_S1_,"axG",@progbits,_ZSt8_DestroyIPxEvT_S1_,comdat
	.align	2
	.weak	_ZSt8_DestroyIPxEvT_S1_
	.type	_ZSt8_DestroyIPxEvT_S1_, %function
_ZSt8_DestroyIPxEvT_S1_:
.LFB11047:
	.cfi_startproc
	stp	x29, x30, [sp, -32]!
	.cfi_def_cfa_offset 32
	.cfi_offset 29, -32
	.cfi_offset 30, -24
	mov	x29, sp
	str	x0, [sp, 24]
	str	x1, [sp, 16]
	ldr	x1, [sp, 16]
	ldr	x0, [sp, 24]
	bl	_ZNSt12_Destroy_auxILb1EE9__destroyIPxEEvT_S3_
	nop
	ldp	x29, x30, [sp], 32
	.cfi_restore 30
	.cfi_restore 29
	.cfi_def_cfa_offset 0
	ret
	.cfi_endproc
.LFE11047:
	.size	_ZSt8_DestroyIPxEvT_S1_, .-_ZSt8_DestroyIPxEvT_S1_
	.section	.text._ZSt7forwardIxEOT_RNSt16remove_referenceIS0_E4typeE,"axG",@progbits,_ZSt7forwardIxEOT_RNSt16remove_referenceIS0_E4typeE,comdat
	.align	2
	.weak	_ZSt7forwardIxEOT_RNSt16remove_referenceIS0_E4typeE
	.type	_ZSt7forwardIxEOT_RNSt16remove_referenceIS0_E4typeE, %function
_ZSt7forwardIxEOT_RNSt16remove_referenceIS0_E4typeE:
.LFB11048:
	.cfi_startproc
	sub	sp, sp, #16
	.cfi_def_cfa_offset 16
	str	x0, [sp, 8]
	ldr	x0, [sp, 8]
	add	sp, sp, 16
	.cfi_def_cfa_offset 0
	ret
	.cfi_endproc
.LFE11048:
	.size	_ZSt7forwardIxEOT_RNSt16remove_referenceIS0_E4typeE, .-_ZSt7forwardIxEOT_RNSt16remove_referenceIS0_E4typeE
	.section	.text._ZNSt16allocator_traitsISaIxEE9constructIxJxEEEvRS0_PT_DpOT0_,"axG",@progbits,_ZNSt16allocator_traitsISaIxEE9constructIxJxEEEvRS0_PT_DpOT0_,comdat
	.align	2
	.weak	_ZNSt16allocator_traitsISaIxEE9constructIxJxEEEvRS0_PT_DpOT0_
	.type	_ZNSt16allocator_traitsISaIxEE9constructIxJxEEEvRS0_PT_DpOT0_, %function
_ZNSt16allocator_traitsISaIxEE9constructIxJxEEEvRS0_PT_DpOT0_:
.LFB11049:
	.cfi_startproc
	stp	x29, x30, [sp, -48]!
	.cfi_def_cfa_offset 48
	.cfi_offset 29, -48
	.cfi_offset 30, -40
	mov	x29, sp
	str	x0, [sp, 40]
	str	x1, [sp, 32]
	str	x2, [sp, 24]
	ldr	x0, [sp, 24]
	bl	_ZSt7forwardIxEOT_RNSt16remove_referenceIS0_E4typeE
	mov	x2, x0
	ldr	x1, [sp, 32]
	ldr	x0, [sp, 40]
	bl	_ZN9__gnu_cxx13new_allocatorIxE9constructIxJxEEEvPT_DpOT0_
	nop
	ldp	x29, x30, [sp], 48
	.cfi_restore 30
	.cfi_restore 29
	.cfi_def_cfa_offset 0
	ret
	.cfi_endproc
.LFE11049:
	.size	_ZNSt16allocator_traitsISaIxEE9constructIxJxEEEvRS0_PT_DpOT0_, .-_ZNSt16allocator_traitsISaIxEE9constructIxJxEEEvRS0_PT_DpOT0_
	.section	.text._ZNSt6vectorIxSaIxEE3endEv,"axG",@progbits,_ZNSt6vectorIxSaIxEE3endEv,comdat
	.align	2
	.weak	_ZNSt6vectorIxSaIxEE3endEv
	.type	_ZNSt6vectorIxSaIxEE3endEv, %function
_ZNSt6vectorIxSaIxEE3endEv:
.LFB11050:
	.cfi_startproc
	stp	x29, x30, [sp, -48]!
	.cfi_def_cfa_offset 48
	.cfi_offset 29, -48
	.cfi_offset 30, -40
	mov	x29, sp
	str	x0, [sp, 24]
	ldr	x0, [sp, 24]
	add	x1, x0, 8
	add	x0, sp, 40
	bl	_ZN9__gnu_cxx17__normal_iteratorIPxSt6vectorIxSaIxEEEC1ERKS1_
	ldr	x0, [sp, 40]
	ldp	x29, x30, [sp], 48
	.cfi_restore 30
	.cfi_restore 29
	.cfi_def_cfa_offset 0
	ret
	.cfi_endproc
.LFE11050:
	.size	_ZNSt6vectorIxSaIxEE3endEv, .-_ZNSt6vectorIxSaIxEE3endEv
	.section	.rodata
	.align	3
.LC3:
	.string	"vector::_M_realloc_insert"
	.section	.text._ZNSt6vectorIxSaIxEE17_M_realloc_insertIJxEEEvN9__gnu_cxx17__normal_iteratorIPxS1_EEDpOT_,"axG",@progbits,_ZNSt6vectorIxSaIxEE17_M_realloc_insertIJxEEEvN9__gnu_cxx17__normal_iteratorIPxS1_EEDpOT_,comdat
	.align	2
	.weak	_ZNSt6vectorIxSaIxEE17_M_realloc_insertIJxEEEvN9__gnu_cxx17__normal_iteratorIPxS1_EEDpOT_
	.type	_ZNSt6vectorIxSaIxEE17_M_realloc_insertIJxEEEvN9__gnu_cxx17__normal_iteratorIPxS1_EEDpOT_, %function
_ZNSt6vectorIxSaIxEE17_M_realloc_insertIJxEEEvN9__gnu_cxx17__normal_iteratorIPxS1_EEDpOT_:
.LFB11051:
	.cfi_startproc
	stp	x29, x30, [sp, -128]!
	.cfi_def_cfa_offset 128
	.cfi_offset 29, -128
	.cfi_offset 30, -120
	mov	x29, sp
	stp	x19, x20, [sp, 16]
	.cfi_offset 19, -112
	.cfi_offset 20, -104
	str	x0, [sp, 56]
	str	x1, [sp, 48]
	str	x2, [sp, 40]
	adrp	x0, .LC3
	add	x2, x0, :lo12:.LC3
	mov	x1, 1
	ldr	x0, [sp, 56]
	bl	_ZNKSt6vectorIxSaIxEE12_M_check_lenEmPKc
	str	x0, [sp, 120]
	ldr	x0, [sp, 56]
	ldr	x0, [x0]
	str	x0, [sp, 112]
	ldr	x0, [sp, 56]
	ldr	x0, [x0, 8]
	str	x0, [sp, 104]
	ldr	x0, [sp, 56]
	bl	_ZNSt6vectorIxSaIxEE5beginEv
	str	x0, [sp, 72]
	add	x1, sp, 72
	add	x0, sp, 48
	bl	_ZN9__gnu_cxxmiIPxSt6vectorIxSaIxEEEENS_17__normal_iteratorIT_T0_E15difference_typeERKS8_SB_
	str	x0, [sp, 96]
	ldr	x0, [sp, 56]
	ldr	x1, [sp, 120]
	bl	_ZNSt12_Vector_baseIxSaIxEE11_M_allocateEm
	str	x0, [sp, 88]
	ldr	x0, [sp, 88]
	str	x0, [sp, 80]
	ldr	x19, [sp, 56]
	ldr	x0, [sp, 96]
	lsl	x0, x0, 3
	ldr	x1, [sp, 88]
	add	x20, x1, x0
	ldr	x0, [sp, 40]
	bl	_ZSt7forwardIxEOT_RNSt16remove_referenceIS0_E4typeE
	mov	x2, x0
	mov	x1, x20
	mov	x0, x19
	bl	_ZNSt16allocator_traitsISaIxEE9constructIxJxEEEvRS0_PT_DpOT0_
	str	xzr, [sp, 80]
	add	x0, sp, 48
	bl	_ZNK9__gnu_cxx17__normal_iteratorIPxSt6vectorIxSaIxEEE4baseEv
	ldr	x19, [x0]
	ldr	x0, [sp, 56]
	bl	_ZNSt12_Vector_baseIxSaIxEE19_M_get_Tp_allocatorEv
	mov	x3, x0
	ldr	x2, [sp, 88]
	mov	x1, x19
	ldr	x0, [sp, 112]
	bl	_ZNSt6vectorIxSaIxEE11_S_relocateEPxS2_S2_RS0_
	str	x0, [sp, 80]
	ldr	x0, [sp, 80]
	add	x0, x0, 8
	str	x0, [sp, 80]
	add	x0, sp, 48
	bl	_ZNK9__gnu_cxx17__normal_iteratorIPxSt6vectorIxSaIxEEE4baseEv
	ldr	x19, [x0]
	ldr	x0, [sp, 56]
	bl	_ZNSt12_Vector_baseIxSaIxEE19_M_get_Tp_allocatorEv
	mov	x3, x0
	ldr	x2, [sp, 80]
	ldr	x1, [sp, 104]
	mov	x0, x19
	bl	_ZNSt6vectorIxSaIxEE11_S_relocateEPxS2_S2_RS0_
	str	x0, [sp, 80]
	ldr	x3, [sp, 56]
	ldr	x0, [sp, 56]
	ldr	x1, [x0, 16]
	ldr	x0, [sp, 112]
	sub	x0, x1, x0
	asr	x0, x0, 3
	mov	x2, x0
	ldr	x1, [sp, 112]
	mov	x0, x3
	bl	_ZNSt12_Vector_baseIxSaIxEE13_M_deallocateEPxm
	ldr	x0, [sp, 56]
	ldr	x1, [sp, 88]
	str	x1, [x0]
	ldr	x0, [sp, 56]
	ldr	x1, [sp, 80]
	str	x1, [x0, 8]
	ldr	x0, [sp, 120]
	lsl	x0, x0, 3
	ldr	x1, [sp, 88]
	add	x1, x1, x0
	ldr	x0, [sp, 56]
	str	x1, [x0, 16]
	nop
	ldp	x19, x20, [sp, 16]
	ldp	x29, x30, [sp], 128
	.cfi_restore 30
	.cfi_restore 29
	.cfi_restore 19
	.cfi_restore 20
	.cfi_def_cfa_offset 0
	ret
	.cfi_endproc
.LFE11051:
	.size	_ZNSt6vectorIxSaIxEE17_M_realloc_insertIJxEEEvN9__gnu_cxx17__normal_iteratorIPxS1_EEDpOT_, .-_ZNSt6vectorIxSaIxEE17_M_realloc_insertIJxEEEvN9__gnu_cxx17__normal_iteratorIPxS1_EEDpOT_
	.section	.text._ZNSt6vectorIxSaIxEE4backEv,"axG",@progbits,_ZNSt6vectorIxSaIxEE4backEv,comdat
	.align	2
	.weak	_ZNSt6vectorIxSaIxEE4backEv
	.type	_ZNSt6vectorIxSaIxEE4backEv, %function
_ZNSt6vectorIxSaIxEE4backEv:
.LFB11055:
	.cfi_startproc
	stp	x29, x30, [sp, -48]!
	.cfi_def_cfa_offset 48
	.cfi_offset 29, -48
	.cfi_offset 30, -40
	mov	x29, sp
	str	x0, [sp, 24]
	ldr	x0, [sp, 24]
	bl	_ZNSt6vectorIxSaIxEE3endEv
	str	x0, [sp, 40]
	add	x0, sp, 40
	mov	x1, 1
	bl	_ZNK9__gnu_cxx17__normal_iteratorIPxSt6vectorIxSaIxEEEmiEl
	str	x0, [sp, 32]
	add	x0, sp, 32
	bl	_ZNK9__gnu_cxx17__normal_iteratorIPxSt6vectorIxSaIxEEEdeEv
	ldp	x29, x30, [sp], 48
	.cfi_restore 30
	.cfi_restore 29
	.cfi_def_cfa_offset 0
	ret
	.cfi_endproc
.LFE11055:
	.size	_ZNSt6vectorIxSaIxEE4backEv, .-_ZNSt6vectorIxSaIxEE4backEv
	.section	.text._ZN9__gnu_cxx13new_allocatorIxEC2ERKS1_,"axG",@progbits,_ZN9__gnu_cxx13new_allocatorIxEC5ERKS1_,comdat
	.align	2
	.weak	_ZN9__gnu_cxx13new_allocatorIxEC2ERKS1_
	.type	_ZN9__gnu_cxx13new_allocatorIxEC2ERKS1_, %function
_ZN9__gnu_cxx13new_allocatorIxEC2ERKS1_:
.LFB11057:
	.cfi_startproc
	sub	sp, sp, #16
	.cfi_def_cfa_offset 16
	str	x0, [sp, 8]
	str	x1, [sp]
	nop
	add	sp, sp, 16
	.cfi_def_cfa_offset 0
	ret
	.cfi_endproc
.LFE11057:
	.size	_ZN9__gnu_cxx13new_allocatorIxEC2ERKS1_, .-_ZN9__gnu_cxx13new_allocatorIxEC2ERKS1_
	.weak	_ZN9__gnu_cxx13new_allocatorIxEC1ERKS1_
	.set	_ZN9__gnu_cxx13new_allocatorIxEC1ERKS1_,_ZN9__gnu_cxx13new_allocatorIxEC2ERKS1_
	.section	.text._ZNSt6vectorIxSaIxEE11_S_max_sizeERKS0_,"axG",@progbits,_ZNSt6vectorIxSaIxEE11_S_max_sizeERKS0_,comdat
	.align	2
	.weak	_ZNSt6vectorIxSaIxEE11_S_max_sizeERKS0_
	.type	_ZNSt6vectorIxSaIxEE11_S_max_sizeERKS0_, %function
_ZNSt6vectorIxSaIxEE11_S_max_sizeERKS0_:
.LFB11059:
	.cfi_startproc
	stp	x29, x30, [sp, -48]!
	.cfi_def_cfa_offset 48
	.cfi_offset 29, -48
	.cfi_offset 30, -40
	mov	x29, sp
	str	x0, [sp, 24]
	mov	x0, 1152921504606846975
	str	x0, [sp, 40]
	ldr	x0, [sp, 24]
	bl	_ZNSt16allocator_traitsISaIxEE8max_sizeERKS0_
	str	x0, [sp, 32]
	add	x1, sp, 32
	add	x0, sp, 40
	bl	_ZSt3minImERKT_S2_S2_
	ldr	x0, [x0]
	ldp	x29, x30, [sp], 48
	.cfi_restore 30
	.cfi_restore 29
	.cfi_def_cfa_offset 0
	ret
	.cfi_endproc
.LFE11059:
	.size	_ZNSt6vectorIxSaIxEE11_S_max_sizeERKS0_, .-_ZNSt6vectorIxSaIxEE11_S_max_sizeERKS0_
	.section	.text._ZNSt12_Vector_baseIxSaIxEE12_Vector_implC2ERKS0_,"axG",@progbits,_ZNSt12_Vector_baseIxSaIxEE12_Vector_implC5ERKS0_,comdat
	.align	2
	.weak	_ZNSt12_Vector_baseIxSaIxEE12_Vector_implC2ERKS0_
	.type	_ZNSt12_Vector_baseIxSaIxEE12_Vector_implC2ERKS0_, %function
_ZNSt12_Vector_baseIxSaIxEE12_Vector_implC2ERKS0_:
.LFB11061:
	.cfi_startproc
	stp	x29, x30, [sp, -32]!
	.cfi_def_cfa_offset 32
	.cfi_offset 29, -32
	.cfi_offset 30, -24
	mov	x29, sp
	str	x0, [sp, 24]
	str	x1, [sp, 16]
	ldr	x1, [sp, 16]
	ldr	x0, [sp, 24]
	bl	_ZNSaIxEC2ERKS_
	ldr	x0, [sp, 24]
	bl	_ZNSt12_Vector_baseIxSaIxEE17_Vector_impl_dataC2Ev
	nop
	ldp	x29, x30, [sp], 32
	.cfi_restore 30
	.cfi_restore 29
	.cfi_def_cfa_offset 0
	ret
	.cfi_endproc
.LFE11061:
	.size	_ZNSt12_Vector_baseIxSaIxEE12_Vector_implC2ERKS0_, .-_ZNSt12_Vector_baseIxSaIxEE12_Vector_implC2ERKS0_
	.weak	_ZNSt12_Vector_baseIxSaIxEE12_Vector_implC1ERKS0_
	.set	_ZNSt12_Vector_baseIxSaIxEE12_Vector_implC1ERKS0_,_ZNSt12_Vector_baseIxSaIxEE12_Vector_implC2ERKS0_
	.section	.text._ZNSt12_Vector_baseIxSaIxEE17_M_create_storageEm,"axG",@progbits,_ZNSt12_Vector_baseIxSaIxEE17_M_create_storageEm,comdat
	.align	2
	.weak	_ZNSt12_Vector_baseIxSaIxEE17_M_create_storageEm
	.type	_ZNSt12_Vector_baseIxSaIxEE17_M_create_storageEm, %function
_ZNSt12_Vector_baseIxSaIxEE17_M_create_storageEm:
.LFB11063:
	.cfi_startproc
	stp	x29, x30, [sp, -32]!
	.cfi_def_cfa_offset 32
	.cfi_offset 29, -32
	.cfi_offset 30, -24
	mov	x29, sp
	str	x0, [sp, 24]
	str	x1, [sp, 16]
	ldr	x1, [sp, 16]
	ldr	x0, [sp, 24]
	bl	_ZNSt12_Vector_baseIxSaIxEE11_M_allocateEm
	mov	x1, x0
	ldr	x0, [sp, 24]
	str	x1, [x0]
	ldr	x0, [sp, 24]
	ldr	x1, [x0]
	ldr	x0, [sp, 24]
	str	x1, [x0, 8]
	ldr	x0, [sp, 24]
	ldr	x1, [x0]
	ldr	x0, [sp, 16]
	lsl	x0, x0, 3
	add	x1, x1, x0
	ldr	x0, [sp, 24]
	str	x1, [x0, 16]
	nop
	ldp	x29, x30, [sp], 32
	.cfi_restore 30
	.cfi_restore 29
	.cfi_def_cfa_offset 0
	ret
	.cfi_endproc
.LFE11063:
	.size	_ZNSt12_Vector_baseIxSaIxEE17_M_create_storageEm, .-_ZNSt12_Vector_baseIxSaIxEE17_M_create_storageEm
	.section	.text._ZSt27__uninitialized_default_n_aIPxmxET_S1_T0_RSaIT1_E,"axG",@progbits,_ZSt27__uninitialized_default_n_aIPxmxET_S1_T0_RSaIT1_E,comdat
	.align	2
	.weak	_ZSt27__uninitialized_default_n_aIPxmxET_S1_T0_RSaIT1_E
	.type	_ZSt27__uninitialized_default_n_aIPxmxET_S1_T0_RSaIT1_E, %function
_ZSt27__uninitialized_default_n_aIPxmxET_S1_T0_RSaIT1_E:
.LFB11064:
	.cfi_startproc
	stp	x29, x30, [sp, -48]!
	.cfi_def_cfa_offset 48
	.cfi_offset 29, -48
	.cfi_offset 30, -40
	mov	x29, sp
	str	x0, [sp, 40]
	str	x1, [sp, 32]
	str	x2, [sp, 24]
	ldr	x1, [sp, 32]
	ldr	x0, [sp, 40]
	bl	_ZSt25__uninitialized_default_nIPxmET_S1_T0_
	ldp	x29, x30, [sp], 48
	.cfi_restore 30
	.cfi_restore 29
	.cfi_def_cfa_offset 0
	ret
	.cfi_endproc
.LFE11064:
	.size	_ZSt27__uninitialized_default_n_aIPxmxET_S1_T0_RSaIT1_E, .-_ZSt27__uninitialized_default_n_aIPxmxET_S1_T0_RSaIT1_E
	.section	.text._ZN9__gnu_cxx13new_allocatorIxE10deallocateEPxm,"axG",@progbits,_ZN9__gnu_cxx13new_allocatorIxE10deallocateEPxm,comdat
	.align	2
	.weak	_ZN9__gnu_cxx13new_allocatorIxE10deallocateEPxm
	.type	_ZN9__gnu_cxx13new_allocatorIxE10deallocateEPxm, %function
_ZN9__gnu_cxx13new_allocatorIxE10deallocateEPxm:
.LFB11203:
	.cfi_startproc
	stp	x29, x30, [sp, -48]!
	.cfi_def_cfa_offset 48
	.cfi_offset 29, -48
	.cfi_offset 30, -40
	mov	x29, sp
	str	x0, [sp, 40]
	str	x1, [sp, 32]
	str	x2, [sp, 24]
	ldr	x0, [sp, 24]
	lsl	x0, x0, 3
	mov	x1, x0
	ldr	x0, [sp, 32]
	bl	_ZdlPvm
	ldp	x29, x30, [sp], 48
	.cfi_restore 30
	.cfi_restore 29
	.cfi_def_cfa_offset 0
	ret
	.cfi_endproc
.LFE11203:
	.size	_ZN9__gnu_cxx13new_allocatorIxE10deallocateEPxm, .-_ZN9__gnu_cxx13new_allocatorIxE10deallocateEPxm
	.section	.text._ZNSt12_Destroy_auxILb1EE9__destroyIPxEEvT_S3_,"axG",@progbits,_ZNSt12_Destroy_auxILb1EE9__destroyIPxEEvT_S3_,comdat
	.align	2
	.weak	_ZNSt12_Destroy_auxILb1EE9__destroyIPxEEvT_S3_
	.type	_ZNSt12_Destroy_auxILb1EE9__destroyIPxEEvT_S3_, %function
_ZNSt12_Destroy_auxILb1EE9__destroyIPxEEvT_S3_:
.LFB11204:
	.cfi_startproc
	sub	sp, sp, #16
	.cfi_def_cfa_offset 16
	str	x0, [sp, 8]
	str	x1, [sp]
	nop
	add	sp, sp, 16
	.cfi_def_cfa_offset 0
	ret
	.cfi_endproc
.LFE11204:
	.size	_ZNSt12_Destroy_auxILb1EE9__destroyIPxEEvT_S3_, .-_ZNSt12_Destroy_auxILb1EE9__destroyIPxEEvT_S3_
	.section	.text._ZN9__gnu_cxx13new_allocatorIxE9constructIxJxEEEvPT_DpOT0_,"axG",@progbits,_ZN9__gnu_cxx13new_allocatorIxE9constructIxJxEEEvPT_DpOT0_,comdat
	.align	2
	.weak	_ZN9__gnu_cxx13new_allocatorIxE9constructIxJxEEEvPT_DpOT0_
	.type	_ZN9__gnu_cxx13new_allocatorIxE9constructIxJxEEEvPT_DpOT0_, %function
_ZN9__gnu_cxx13new_allocatorIxE9constructIxJxEEEvPT_DpOT0_:
.LFB11205:
	.cfi_startproc
	stp	x29, x30, [sp, -64]!
	.cfi_def_cfa_offset 64
	.cfi_offset 29, -64
	.cfi_offset 30, -56
	mov	x29, sp
	str	x19, [sp, 16]
	.cfi_offset 19, -48
	str	x0, [sp, 56]
	str	x1, [sp, 48]
	str	x2, [sp, 40]
	ldr	x0, [sp, 40]
	bl	_ZSt7forwardIxEOT_RNSt16remove_referenceIS0_E4typeE
	ldr	x19, [x0]
	ldr	x0, [sp, 48]
	mov	x1, x0
	mov	x0, 8
	bl	_ZnwmPv
	str	x19, [x0]
	nop
	ldr	x19, [sp, 16]
	ldp	x29, x30, [sp], 64
	.cfi_restore 30
	.cfi_restore 29
	.cfi_restore 19
	.cfi_def_cfa_offset 0
	ret
	.cfi_endproc
.LFE11205:
	.size	_ZN9__gnu_cxx13new_allocatorIxE9constructIxJxEEEvPT_DpOT0_, .-_ZN9__gnu_cxx13new_allocatorIxE9constructIxJxEEEvPT_DpOT0_
	.section	.text._ZN9__gnu_cxx17__normal_iteratorIPxSt6vectorIxSaIxEEEC2ERKS1_,"axG",@progbits,_ZN9__gnu_cxx17__normal_iteratorIPxSt6vectorIxSaIxEEEC5ERKS1_,comdat
	.align	2
	.weak	_ZN9__gnu_cxx17__normal_iteratorIPxSt6vectorIxSaIxEEEC2ERKS1_
	.type	_ZN9__gnu_cxx17__normal_iteratorIPxSt6vectorIxSaIxEEEC2ERKS1_, %function
_ZN9__gnu_cxx17__normal_iteratorIPxSt6vectorIxSaIxEEEC2ERKS1_:
.LFB11207:
	.cfi_startproc
	sub	sp, sp, #16
	.cfi_def_cfa_offset 16
	str	x0, [sp, 8]
	str	x1, [sp]
	ldr	x0, [sp]
	ldr	x1, [x0]
	ldr	x0, [sp, 8]
	str	x1, [x0]
	nop
	add	sp, sp, 16
	.cfi_def_cfa_offset 0
	ret
	.cfi_endproc
.LFE11207:
	.size	_ZN9__gnu_cxx17__normal_iteratorIPxSt6vectorIxSaIxEEEC2ERKS1_, .-_ZN9__gnu_cxx17__normal_iteratorIPxSt6vectorIxSaIxEEEC2ERKS1_
	.weak	_ZN9__gnu_cxx17__normal_iteratorIPxSt6vectorIxSaIxEEEC1ERKS1_
	.set	_ZN9__gnu_cxx17__normal_iteratorIPxSt6vectorIxSaIxEEEC1ERKS1_,_ZN9__gnu_cxx17__normal_iteratorIPxSt6vectorIxSaIxEEEC2ERKS1_
	.section	.text._ZNKSt6vectorIxSaIxEE12_M_check_lenEmPKc,"axG",@progbits,_ZNKSt6vectorIxSaIxEE12_M_check_lenEmPKc,comdat
	.align	2
	.weak	_ZNKSt6vectorIxSaIxEE12_M_check_lenEmPKc
	.type	_ZNKSt6vectorIxSaIxEE12_M_check_lenEmPKc, %function
_ZNKSt6vectorIxSaIxEE12_M_check_lenEmPKc:
.LFB11209:
	.cfi_startproc
	stp	x29, x30, [sp, -80]!
	.cfi_def_cfa_offset 80
	.cfi_offset 29, -80
	.cfi_offset 30, -72
	mov	x29, sp
	str	x19, [sp, 16]
	.cfi_offset 19, -64
	str	x0, [sp, 56]
	str	x1, [sp, 48]
	str	x2, [sp, 40]
	ldr	x0, [sp, 56]
	bl	_ZNKSt6vectorIxSaIxEE8max_sizeEv
	mov	x19, x0
	ldr	x0, [sp, 56]
	bl	_ZNKSt6vectorIxSaIxEE4sizeEv
	sub	x1, x19, x0
	ldr	x0, [sp, 48]
	cmp	x1, x0
	cset	w0, cc
	and	w0, w0, 255
	cmp	w0, 0
	beq	.L111
	ldr	x0, [sp, 40]
	bl	_ZSt20__throw_length_errorPKc
.L111:
	ldr	x0, [sp, 56]
	bl	_ZNKSt6vectorIxSaIxEE4sizeEv
	mov	x19, x0
	ldr	x0, [sp, 56]
	bl	_ZNKSt6vectorIxSaIxEE4sizeEv
	str	x0, [sp, 64]
	add	x1, sp, 48
	add	x0, sp, 64
	bl	_ZSt3maxImERKT_S2_S2_
	ldr	x0, [x0]
	add	x0, x19, x0
	str	x0, [sp, 72]
	ldr	x0, [sp, 56]
	bl	_ZNKSt6vectorIxSaIxEE4sizeEv
	mov	x1, x0
	ldr	x0, [sp, 72]
	cmp	x0, x1
	bcc	.L112
	ldr	x0, [sp, 56]
	bl	_ZNKSt6vectorIxSaIxEE8max_sizeEv
	mov	x1, x0
	ldr	x0, [sp, 72]
	cmp	x0, x1
	bls	.L113
.L112:
	ldr	x0, [sp, 56]
	bl	_ZNKSt6vectorIxSaIxEE8max_sizeEv
	b	.L114
.L113:
	ldr	x0, [sp, 72]
.L114:
	ldr	x19, [sp, 16]
	ldp	x29, x30, [sp], 80
	.cfi_restore 30
	.cfi_restore 29
	.cfi_restore 19
	.cfi_def_cfa_offset 0
	ret
	.cfi_endproc
.LFE11209:
	.size	_ZNKSt6vectorIxSaIxEE12_M_check_lenEmPKc, .-_ZNKSt6vectorIxSaIxEE12_M_check_lenEmPKc
	.section	.text._ZNSt6vectorIxSaIxEE5beginEv,"axG",@progbits,_ZNSt6vectorIxSaIxEE5beginEv,comdat
	.align	2
	.weak	_ZNSt6vectorIxSaIxEE5beginEv
	.type	_ZNSt6vectorIxSaIxEE5beginEv, %function
_ZNSt6vectorIxSaIxEE5beginEv:
.LFB11210:
	.cfi_startproc
	stp	x29, x30, [sp, -48]!
	.cfi_def_cfa_offset 48
	.cfi_offset 29, -48
	.cfi_offset 30, -40
	mov	x29, sp
	str	x0, [sp, 24]
	ldr	x1, [sp, 24]
	add	x0, sp, 40
	bl	_ZN9__gnu_cxx17__normal_iteratorIPxSt6vectorIxSaIxEEEC1ERKS1_
	ldr	x0, [sp, 40]
	ldp	x29, x30, [sp], 48
	.cfi_restore 30
	.cfi_restore 29
	.cfi_def_cfa_offset 0
	ret
	.cfi_endproc
.LFE11210:
	.size	_ZNSt6vectorIxSaIxEE5beginEv, .-_ZNSt6vectorIxSaIxEE5beginEv
	.section	.text._ZN9__gnu_cxxmiIPxSt6vectorIxSaIxEEEENS_17__normal_iteratorIT_T0_E15difference_typeERKS8_SB_,"axG",@progbits,_ZN9__gnu_cxxmiIPxSt6vectorIxSaIxEEEENS_17__normal_iteratorIT_T0_E15difference_typeERKS8_SB_,comdat
	.align	2
	.weak	_ZN9__gnu_cxxmiIPxSt6vectorIxSaIxEEEENS_17__normal_iteratorIT_T0_E15difference_typeERKS8_SB_
	.type	_ZN9__gnu_cxxmiIPxSt6vectorIxSaIxEEEENS_17__normal_iteratorIT_T0_E15difference_typeERKS8_SB_, %function
_ZN9__gnu_cxxmiIPxSt6vectorIxSaIxEEEENS_17__normal_iteratorIT_T0_E15difference_typeERKS8_SB_:
.LFB11211:
	.cfi_startproc
	stp	x29, x30, [sp, -48]!
	.cfi_def_cfa_offset 48
	.cfi_offset 29, -48
	.cfi_offset 30, -40
	mov	x29, sp
	str	x19, [sp, 16]
	.cfi_offset 19, -32
	str	x0, [sp, 40]
	str	x1, [sp, 32]
	ldr	x0, [sp, 40]
	bl	_ZNK9__gnu_cxx17__normal_iteratorIPxSt6vectorIxSaIxEEE4baseEv
	ldr	x19, [x0]
	ldr	x0, [sp, 32]
	bl	_ZNK9__gnu_cxx17__normal_iteratorIPxSt6vectorIxSaIxEEE4baseEv
	ldr	x0, [x0]
	sub	x0, x19, x0
	asr	x0, x0, 3
	ldr	x19, [sp, 16]
	ldp	x29, x30, [sp], 48
	.cfi_restore 30
	.cfi_restore 29
	.cfi_restore 19
	.cfi_def_cfa_offset 0
	ret
	.cfi_endproc
.LFE11211:
	.size	_ZN9__gnu_cxxmiIPxSt6vectorIxSaIxEEEENS_17__normal_iteratorIT_T0_E15difference_typeERKS8_SB_, .-_ZN9__gnu_cxxmiIPxSt6vectorIxSaIxEEEENS_17__normal_iteratorIT_T0_E15difference_typeERKS8_SB_
	.section	.text._ZNSt12_Vector_baseIxSaIxEE11_M_allocateEm,"axG",@progbits,_ZNSt12_Vector_baseIxSaIxEE11_M_allocateEm,comdat
	.align	2
	.weak	_ZNSt12_Vector_baseIxSaIxEE11_M_allocateEm
	.type	_ZNSt12_Vector_baseIxSaIxEE11_M_allocateEm, %function
_ZNSt12_Vector_baseIxSaIxEE11_M_allocateEm:
.LFB11212:
	.cfi_startproc
	stp	x29, x30, [sp, -32]!
	.cfi_def_cfa_offset 32
	.cfi_offset 29, -32
	.cfi_offset 30, -24
	mov	x29, sp
	str	x0, [sp, 24]
	str	x1, [sp, 16]
	ldr	x0, [sp, 16]
	cmp	x0, 0
	beq	.L121
	ldr	x0, [sp, 24]
	ldr	x1, [sp, 16]
	bl	_ZNSt16allocator_traitsISaIxEE8allocateERS0_m
	b	.L123
.L121:
	mov	x0, 0
.L123:
	ldp	x29, x30, [sp], 32
	.cfi_restore 30
	.cfi_restore 29
	.cfi_def_cfa_offset 0
	ret
	.cfi_endproc
.LFE11212:
	.size	_ZNSt12_Vector_baseIxSaIxEE11_M_allocateEm, .-_ZNSt12_Vector_baseIxSaIxEE11_M_allocateEm
	.section	.text._ZNSt6vectorIxSaIxEE11_S_relocateEPxS2_S2_RS0_,"axG",@progbits,_ZNSt6vectorIxSaIxEE11_S_relocateEPxS2_S2_RS0_,comdat
	.align	2
	.weak	_ZNSt6vectorIxSaIxEE11_S_relocateEPxS2_S2_RS0_
	.type	_ZNSt6vectorIxSaIxEE11_S_relocateEPxS2_S2_RS0_, %function
_ZNSt6vectorIxSaIxEE11_S_relocateEPxS2_S2_RS0_:
.LFB11213:
	.cfi_startproc
	stp	x29, x30, [sp, -48]!
	.cfi_def_cfa_offset 48
	.cfi_offset 29, -48
	.cfi_offset 30, -40
	mov	x29, sp
	str	x0, [sp, 40]
	str	x1, [sp, 32]
	str	x2, [sp, 24]
	str	x3, [sp, 16]
	ldr	x3, [sp, 16]
	ldr	x2, [sp, 24]
	ldr	x1, [sp, 32]
	ldr	x0, [sp, 40]
	bl	_ZNSt6vectorIxSaIxEE14_S_do_relocateEPxS2_S2_RS0_St17integral_constantIbLb1EE
	ldp	x29, x30, [sp], 48
	.cfi_restore 30
	.cfi_restore 29
	.cfi_def_cfa_offset 0
	ret
	.cfi_endproc
.LFE11213:
	.size	_ZNSt6vectorIxSaIxEE11_S_relocateEPxS2_S2_RS0_, .-_ZNSt6vectorIxSaIxEE11_S_relocateEPxS2_S2_RS0_
	.section	.text._ZNK9__gnu_cxx17__normal_iteratorIPxSt6vectorIxSaIxEEE4baseEv,"axG",@progbits,_ZNK9__gnu_cxx17__normal_iteratorIPxSt6vectorIxSaIxEEE4baseEv,comdat
	.align	2
	.weak	_ZNK9__gnu_cxx17__normal_iteratorIPxSt6vectorIxSaIxEEE4baseEv
	.type	_ZNK9__gnu_cxx17__normal_iteratorIPxSt6vectorIxSaIxEEE4baseEv, %function
_ZNK9__gnu_cxx17__normal_iteratorIPxSt6vectorIxSaIxEEE4baseEv:
.LFB11214:
	.cfi_startproc
	sub	sp, sp, #16
	.cfi_def_cfa_offset 16
	str	x0, [sp, 8]
	ldr	x0, [sp, 8]
	add	sp, sp, 16
	.cfi_def_cfa_offset 0
	ret
	.cfi_endproc
.LFE11214:
	.size	_ZNK9__gnu_cxx17__normal_iteratorIPxSt6vectorIxSaIxEEE4baseEv, .-_ZNK9__gnu_cxx17__normal_iteratorIPxSt6vectorIxSaIxEEE4baseEv
	.section	.text._ZNK9__gnu_cxx17__normal_iteratorIPxSt6vectorIxSaIxEEEmiEl,"axG",@progbits,_ZNK9__gnu_cxx17__normal_iteratorIPxSt6vectorIxSaIxEEEmiEl,comdat
	.align	2
	.weak	_ZNK9__gnu_cxx17__normal_iteratorIPxSt6vectorIxSaIxEEEmiEl
	.type	_ZNK9__gnu_cxx17__normal_iteratorIPxSt6vectorIxSaIxEEEmiEl, %function
_ZNK9__gnu_cxx17__normal_iteratorIPxSt6vectorIxSaIxEEEmiEl:
.LFB11216:
	.cfi_startproc
	stp	x29, x30, [sp, -48]!
	.cfi_def_cfa_offset 48
	.cfi_offset 29, -48
	.cfi_offset 30, -40
	mov	x29, sp
	str	x0, [sp, 24]
	str	x1, [sp, 16]
	ldr	x0, [sp, 24]
	ldr	x1, [x0]
	ldr	x0, [sp, 16]
	lsl	x0, x0, 3
	neg	x0, x0
	add	x0, x1, x0
	str	x0, [sp, 40]
	add	x1, sp, 40
	add	x0, sp, 32
	bl	_ZN9__gnu_cxx17__normal_iteratorIPxSt6vectorIxSaIxEEEC1ERKS1_
	ldr	x0, [sp, 32]
	ldp	x29, x30, [sp], 48
	.cfi_restore 30
	.cfi_restore 29
	.cfi_def_cfa_offset 0
	ret
	.cfi_endproc
.LFE11216:
	.size	_ZNK9__gnu_cxx17__normal_iteratorIPxSt6vectorIxSaIxEEEmiEl, .-_ZNK9__gnu_cxx17__normal_iteratorIPxSt6vectorIxSaIxEEEmiEl
	.section	.text._ZNK9__gnu_cxx17__normal_iteratorIPxSt6vectorIxSaIxEEEdeEv,"axG",@progbits,_ZNK9__gnu_cxx17__normal_iteratorIPxSt6vectorIxSaIxEEEdeEv,comdat
	.align	2
	.weak	_ZNK9__gnu_cxx17__normal_iteratorIPxSt6vectorIxSaIxEEEdeEv
	.type	_ZNK9__gnu_cxx17__normal_iteratorIPxSt6vectorIxSaIxEEEdeEv, %function
_ZNK9__gnu_cxx17__normal_iteratorIPxSt6vectorIxSaIxEEEdeEv:
.LFB11217:
	.cfi_startproc
	sub	sp, sp, #16
	.cfi_def_cfa_offset 16
	str	x0, [sp, 8]
	ldr	x0, [sp, 8]
	ldr	x0, [x0]
	add	sp, sp, 16
	.cfi_def_cfa_offset 0
	ret
	.cfi_endproc
.LFE11217:
	.size	_ZNK9__gnu_cxx17__normal_iteratorIPxSt6vectorIxSaIxEEEdeEv, .-_ZNK9__gnu_cxx17__normal_iteratorIPxSt6vectorIxSaIxEEEdeEv
	.section	.text._ZNSt16allocator_traitsISaIxEE8max_sizeERKS0_,"axG",@progbits,_ZNSt16allocator_traitsISaIxEE8max_sizeERKS0_,comdat
	.align	2
	.weak	_ZNSt16allocator_traitsISaIxEE8max_sizeERKS0_
	.type	_ZNSt16allocator_traitsISaIxEE8max_sizeERKS0_, %function
_ZNSt16allocator_traitsISaIxEE8max_sizeERKS0_:
.LFB11218:
	.cfi_startproc
	stp	x29, x30, [sp, -32]!
	.cfi_def_cfa_offset 32
	.cfi_offset 29, -32
	.cfi_offset 30, -24
	mov	x29, sp
	str	x0, [sp, 24]
	ldr	x0, [sp, 24]
	bl	_ZNK9__gnu_cxx13new_allocatorIxE8max_sizeEv
	ldp	x29, x30, [sp], 32
	.cfi_restore 30
	.cfi_restore 29
	.cfi_def_cfa_offset 0
	ret
	.cfi_endproc
.LFE11218:
	.size	_ZNSt16allocator_traitsISaIxEE8max_sizeERKS0_, .-_ZNSt16allocator_traitsISaIxEE8max_sizeERKS0_
	.section	.text._ZSt25__uninitialized_default_nIPxmET_S1_T0_,"axG",@progbits,_ZSt25__uninitialized_default_nIPxmET_S1_T0_,comdat
	.align	2
	.weak	_ZSt25__uninitialized_default_nIPxmET_S1_T0_
	.type	_ZSt25__uninitialized_default_nIPxmET_S1_T0_, %function
_ZSt25__uninitialized_default_nIPxmET_S1_T0_:
.LFB11219:
	.cfi_startproc
	stp	x29, x30, [sp, -48]!
	.cfi_def_cfa_offset 48
	.cfi_offset 29, -48
	.cfi_offset 30, -40
	mov	x29, sp
	str	x0, [sp, 24]
	str	x1, [sp, 16]
	mov	w0, 1
	strb	w0, [sp, 47]
	ldr	x1, [sp, 16]
	ldr	x0, [sp, 24]
	bl	_ZNSt27__uninitialized_default_n_1ILb1EE18__uninit_default_nIPxmEET_S3_T0_
	ldp	x29, x30, [sp], 48
	.cfi_restore 30
	.cfi_restore 29
	.cfi_def_cfa_offset 0
	ret
	.cfi_endproc
.LFE11219:
	.size	_ZSt25__uninitialized_default_nIPxmET_S1_T0_, .-_ZSt25__uninitialized_default_nIPxmET_S1_T0_
	.section	.text._ZNKSt6vectorIxSaIxEE8max_sizeEv,"axG",@progbits,_ZNKSt6vectorIxSaIxEE8max_sizeEv,comdat
	.align	2
	.weak	_ZNKSt6vectorIxSaIxEE8max_sizeEv
	.type	_ZNKSt6vectorIxSaIxEE8max_sizeEv, %function
_ZNKSt6vectorIxSaIxEE8max_sizeEv:
.LFB11304:
	.cfi_startproc
	stp	x29, x30, [sp, -32]!
	.cfi_def_cfa_offset 32
	.cfi_offset 29, -32
	.cfi_offset 30, -24
	mov	x29, sp
	str	x0, [sp, 24]
	ldr	x0, [sp, 24]
	bl	_ZNKSt12_Vector_baseIxSaIxEE19_M_get_Tp_allocatorEv
	bl	_ZNSt6vectorIxSaIxEE11_S_max_sizeERKS0_
	ldp	x29, x30, [sp], 32
	.cfi_restore 30
	.cfi_restore 29
	.cfi_def_cfa_offset 0
	ret
	.cfi_endproc
.LFE11304:
	.size	_ZNKSt6vectorIxSaIxEE8max_sizeEv, .-_ZNKSt6vectorIxSaIxEE8max_sizeEv
	.section	.text._ZNKSt6vectorIxSaIxEE4sizeEv,"axG",@progbits,_ZNKSt6vectorIxSaIxEE4sizeEv,comdat
	.align	2
	.weak	_ZNKSt6vectorIxSaIxEE4sizeEv
	.type	_ZNKSt6vectorIxSaIxEE4sizeEv, %function
_ZNKSt6vectorIxSaIxEE4sizeEv:
.LFB11305:
	.cfi_startproc
	sub	sp, sp, #16
	.cfi_def_cfa_offset 16
	str	x0, [sp, 8]
	ldr	x0, [sp, 8]
	ldr	x1, [x0, 8]
	ldr	x0, [sp, 8]
	ldr	x0, [x0]
	sub	x0, x1, x0
	asr	x0, x0, 3
	add	sp, sp, 16
	.cfi_def_cfa_offset 0
	ret
	.cfi_endproc
.LFE11305:
	.size	_ZNKSt6vectorIxSaIxEE4sizeEv, .-_ZNKSt6vectorIxSaIxEE4sizeEv
	.section	.text._ZNSt16allocator_traitsISaIxEE8allocateERS0_m,"axG",@progbits,_ZNSt16allocator_traitsISaIxEE8allocateERS0_m,comdat
	.align	2
	.weak	_ZNSt16allocator_traitsISaIxEE8allocateERS0_m
	.type	_ZNSt16allocator_traitsISaIxEE8allocateERS0_m, %function
_ZNSt16allocator_traitsISaIxEE8allocateERS0_m:
.LFB11306:
	.cfi_startproc
	stp	x29, x30, [sp, -32]!
	.cfi_def_cfa_offset 32
	.cfi_offset 29, -32
	.cfi_offset 30, -24
	mov	x29, sp
	str	x0, [sp, 24]
	str	x1, [sp, 16]
	mov	x2, 0
	ldr	x1, [sp, 16]
	ldr	x0, [sp, 24]
	bl	_ZN9__gnu_cxx13new_allocatorIxE8allocateEmPKv
	ldp	x29, x30, [sp], 32
	.cfi_restore 30
	.cfi_restore 29
	.cfi_def_cfa_offset 0
	ret
	.cfi_endproc
.LFE11306:
	.size	_ZNSt16allocator_traitsISaIxEE8allocateERS0_m, .-_ZNSt16allocator_traitsISaIxEE8allocateERS0_m
	.section	.text._ZNSt6vectorIxSaIxEE14_S_do_relocateEPxS2_S2_RS0_St17integral_constantIbLb1EE,"axG",@progbits,_ZNSt6vectorIxSaIxEE14_S_do_relocateEPxS2_S2_RS0_St17integral_constantIbLb1EE,comdat
	.align	2
	.weak	_ZNSt6vectorIxSaIxEE14_S_do_relocateEPxS2_S2_RS0_St17integral_constantIbLb1EE
	.type	_ZNSt6vectorIxSaIxEE14_S_do_relocateEPxS2_S2_RS0_St17integral_constantIbLb1EE, %function
_ZNSt6vectorIxSaIxEE14_S_do_relocateEPxS2_S2_RS0_St17integral_constantIbLb1EE:
.LFB11307:
	.cfi_startproc
	stp	x29, x30, [sp, -64]!
	.cfi_def_cfa_offset 64
	.cfi_offset 29, -64
	.cfi_offset 30, -56
	mov	x29, sp
	str	x0, [sp, 56]
	str	x1, [sp, 48]
	str	x2, [sp, 40]
	str	x3, [sp, 32]
	strb	w4, [sp, 24]
	ldr	x3, [sp, 32]
	ldr	x2, [sp, 40]
	ldr	x1, [sp, 48]
	ldr	x0, [sp, 56]
	bl	_ZSt12__relocate_aIPxS0_SaIxEET0_T_S3_S2_RT1_
	ldp	x29, x30, [sp], 64
	.cfi_restore 30
	.cfi_restore 29
	.cfi_def_cfa_offset 0
	ret
	.cfi_endproc
.LFE11307:
	.size	_ZNSt6vectorIxSaIxEE14_S_do_relocateEPxS2_S2_RS0_St17integral_constantIbLb1EE, .-_ZNSt6vectorIxSaIxEE14_S_do_relocateEPxS2_S2_RS0_St17integral_constantIbLb1EE
	.section	.text._ZNK9__gnu_cxx13new_allocatorIxE8max_sizeEv,"axG",@progbits,_ZNK9__gnu_cxx13new_allocatorIxE8max_sizeEv,comdat
	.align	2
	.weak	_ZNK9__gnu_cxx13new_allocatorIxE8max_sizeEv
	.type	_ZNK9__gnu_cxx13new_allocatorIxE8max_sizeEv, %function
_ZNK9__gnu_cxx13new_allocatorIxE8max_sizeEv:
.LFB11309:
	.cfi_startproc
	stp	x29, x30, [sp, -32]!
	.cfi_def_cfa_offset 32
	.cfi_offset 29, -32
	.cfi_offset 30, -24
	mov	x29, sp
	str	x0, [sp, 24]
	ldr	x0, [sp, 24]
	bl	_ZNK9__gnu_cxx13new_allocatorIxE11_M_max_sizeEv
	ldp	x29, x30, [sp], 32
	.cfi_restore 30
	.cfi_restore 29
	.cfi_def_cfa_offset 0
	ret
	.cfi_endproc
.LFE11309:
	.size	_ZNK9__gnu_cxx13new_allocatorIxE8max_sizeEv, .-_ZNK9__gnu_cxx13new_allocatorIxE8max_sizeEv
	.section	.text._ZSt11__addressofIxEPT_RS0_,"axG",@progbits,_ZSt11__addressofIxEPT_RS0_,comdat
	.align	2
	.weak	_ZSt11__addressofIxEPT_RS0_
	.type	_ZSt11__addressofIxEPT_RS0_, %function
_ZSt11__addressofIxEPT_RS0_:
.LFB11311:
	.cfi_startproc
	sub	sp, sp, #16
	.cfi_def_cfa_offset 16
	str	x0, [sp, 8]
	ldr	x0, [sp, 8]
	add	sp, sp, 16
	.cfi_def_cfa_offset 0
	ret
	.cfi_endproc
.LFE11311:
	.size	_ZSt11__addressofIxEPT_RS0_, .-_ZSt11__addressofIxEPT_RS0_
	.section	.text._ZNSt27__uninitialized_default_n_1ILb1EE18__uninit_default_nIPxmEET_S3_T0_,"axG",@progbits,_ZNSt27__uninitialized_default_n_1ILb1EE18__uninit_default_nIPxmEET_S3_T0_,comdat
	.align	2
	.weak	_ZNSt27__uninitialized_default_n_1ILb1EE18__uninit_default_nIPxmEET_S3_T0_
	.type	_ZNSt27__uninitialized_default_n_1ILb1EE18__uninit_default_nIPxmEET_S3_T0_, %function
_ZNSt27__uninitialized_default_n_1ILb1EE18__uninit_default_nIPxmEET_S3_T0_:
.LFB11310:
	.cfi_startproc
	stp	x29, x30, [sp, -48]!
	.cfi_def_cfa_offset 48
	.cfi_offset 29, -48
	.cfi_offset 30, -40
	mov	x29, sp
	str	x0, [sp, 24]
	str	x1, [sp, 16]
	ldr	x0, [sp, 16]
	cmp	x0, 0
	beq	.L149
	ldr	x0, [sp, 24]
	bl	_ZSt11__addressofIxEPT_RS0_
	str	x0, [sp, 40]
	ldr	x0, [sp, 40]
	bl	_ZSt10_ConstructIxJEEvPT_DpOT0_
	ldr	x0, [sp, 24]
	add	x0, x0, 8
	str	x0, [sp, 24]
	ldr	x0, [sp, 16]
	sub	x0, x0, #1
	ldr	x2, [sp, 40]
	mov	x1, x0
	ldr	x0, [sp, 24]
	bl	_ZSt6fill_nIPxmxET_S1_T0_RKT1_
	str	x0, [sp, 24]
.L149:
	ldr	x0, [sp, 24]
	ldp	x29, x30, [sp], 48
	.cfi_restore 30
	.cfi_restore 29
	.cfi_def_cfa_offset 0
	ret
	.cfi_endproc
.LFE11310:
	.size	_ZNSt27__uninitialized_default_n_1ILb1EE18__uninit_default_nIPxmEET_S3_T0_, .-_ZNSt27__uninitialized_default_n_1ILb1EE18__uninit_default_nIPxmEET_S3_T0_
	.section	.text._ZNKSt12_Vector_baseIxSaIxEE19_M_get_Tp_allocatorEv,"axG",@progbits,_ZNKSt12_Vector_baseIxSaIxEE19_M_get_Tp_allocatorEv,comdat
	.align	2
	.weak	_ZNKSt12_Vector_baseIxSaIxEE19_M_get_Tp_allocatorEv
	.type	_ZNKSt12_Vector_baseIxSaIxEE19_M_get_Tp_allocatorEv, %function
_ZNKSt12_Vector_baseIxSaIxEE19_M_get_Tp_allocatorEv:
.LFB11417:
	.cfi_startproc
	sub	sp, sp, #16
	.cfi_def_cfa_offset 16
	str	x0, [sp, 8]
	ldr	x0, [sp, 8]
	add	sp, sp, 16
	.cfi_def_cfa_offset 0
	ret
	.cfi_endproc
.LFE11417:
	.size	_ZNKSt12_Vector_baseIxSaIxEE19_M_get_Tp_allocatorEv, .-_ZNKSt12_Vector_baseIxSaIxEE19_M_get_Tp_allocatorEv
	.section	.text._ZNK9__gnu_cxx13new_allocatorIxE11_M_max_sizeEv,"axG",@progbits,_ZNK9__gnu_cxx13new_allocatorIxE11_M_max_sizeEv,comdat
	.align	2
	.weak	_ZNK9__gnu_cxx13new_allocatorIxE11_M_max_sizeEv
	.type	_ZNK9__gnu_cxx13new_allocatorIxE11_M_max_sizeEv, %function
_ZNK9__gnu_cxx13new_allocatorIxE11_M_max_sizeEv:
.LFB11419:
	.cfi_startproc
	sub	sp, sp, #16
	.cfi_def_cfa_offset 16
	str	x0, [sp, 8]
	mov	x0, 1152921504606846975
	add	sp, sp, 16
	.cfi_def_cfa_offset 0
	ret
	.cfi_endproc
.LFE11419:
	.size	_ZNK9__gnu_cxx13new_allocatorIxE11_M_max_sizeEv, .-_ZNK9__gnu_cxx13new_allocatorIxE11_M_max_sizeEv
	.section	.text._ZN9__gnu_cxx13new_allocatorIxE8allocateEmPKv,"axG",@progbits,_ZN9__gnu_cxx13new_allocatorIxE8allocateEmPKv,comdat
	.align	2
	.weak	_ZN9__gnu_cxx13new_allocatorIxE8allocateEmPKv
	.type	_ZN9__gnu_cxx13new_allocatorIxE8allocateEmPKv, %function
_ZN9__gnu_cxx13new_allocatorIxE8allocateEmPKv:
.LFB11418:
	.cfi_startproc
	stp	x29, x30, [sp, -48]!
	.cfi_def_cfa_offset 48
	.cfi_offset 29, -48
	.cfi_offset 30, -40
	mov	x29, sp
	str	x0, [sp, 40]
	str	x1, [sp, 32]
	str	x2, [sp, 24]
	ldr	x0, [sp, 40]
	bl	_ZNK9__gnu_cxx13new_allocatorIxE11_M_max_sizeEv
	mov	x1, x0
	ldr	x0, [sp, 32]
	cmp	x0, x1
	cset	w0, hi
	and	w0, w0, 255
	and	x0, x0, 255
	cmp	x0, 0
	cset	w0, ne
	and	w0, w0, 255
	cmp	w0, 0
	beq	.L156
	ldr	x1, [sp, 32]
	mov	x0, 2305843009213693951
	cmp	x1, x0
	bls	.L157
	bl	_ZSt28__throw_bad_array_new_lengthv
.L157:
	bl	_ZSt17__throw_bad_allocv
.L156:
	ldr	x0, [sp, 32]
	lsl	x0, x0, 3
	bl	_Znwm
	nop
	ldp	x29, x30, [sp], 48
	.cfi_restore 30
	.cfi_restore 29
	.cfi_def_cfa_offset 0
	ret
	.cfi_endproc
.LFE11418:
	.size	_ZN9__gnu_cxx13new_allocatorIxE8allocateEmPKv, .-_ZN9__gnu_cxx13new_allocatorIxE8allocateEmPKv
	.section	.text._ZSt12__relocate_aIPxS0_SaIxEET0_T_S3_S2_RT1_,"axG",@progbits,_ZSt12__relocate_aIPxS0_SaIxEET0_T_S3_S2_RT1_,comdat
	.align	2
	.weak	_ZSt12__relocate_aIPxS0_SaIxEET0_T_S3_S2_RT1_
	.type	_ZSt12__relocate_aIPxS0_SaIxEET0_T_S3_S2_RT1_, %function
_ZSt12__relocate_aIPxS0_SaIxEET0_T_S3_S2_RT1_:
.LFB11420:
	.cfi_startproc
	stp	x29, x30, [sp, -64]!
	.cfi_def_cfa_offset 64
	.cfi_offset 29, -64
	.cfi_offset 30, -56
	mov	x29, sp
	stp	x19, x20, [sp, 16]
	.cfi_offset 19, -48
	.cfi_offset 20, -40
	str	x0, [sp, 56]
	str	x1, [sp, 48]
	str	x2, [sp, 40]
	str	x3, [sp, 32]
	ldr	x0, [sp, 56]
	bl	_ZSt12__niter_baseIPxET_S1_
	mov	x19, x0
	ldr	x0, [sp, 48]
	bl	_ZSt12__niter_baseIPxET_S1_
	mov	x20, x0
	ldr	x0, [sp, 40]
	bl	_ZSt12__niter_baseIPxET_S1_
	ldr	x3, [sp, 32]
	mov	x2, x0
	mov	x1, x20
	mov	x0, x19
	bl	_ZSt14__relocate_a_1IxxENSt9enable_ifIXsrSt24__is_bitwise_relocatableIT_vE5valueEPS2_E4typeES4_S4_S4_RSaIT0_E
	ldp	x19, x20, [sp, 16]
	ldp	x29, x30, [sp], 64
	.cfi_restore 30
	.cfi_restore 29
	.cfi_restore 19
	.cfi_restore 20
	.cfi_def_cfa_offset 0
	ret
	.cfi_endproc
.LFE11420:
	.size	_ZSt12__relocate_aIPxS0_SaIxEET0_T_S3_S2_RT1_, .-_ZSt12__relocate_aIPxS0_SaIxEET0_T_S3_S2_RT1_
	.section	.text._ZSt10_ConstructIxJEEvPT_DpOT0_,"axG",@progbits,_ZSt10_ConstructIxJEEvPT_DpOT0_,comdat
	.align	2
	.weak	_ZSt10_ConstructIxJEEvPT_DpOT0_
	.type	_ZSt10_ConstructIxJEEvPT_DpOT0_, %function
_ZSt10_ConstructIxJEEvPT_DpOT0_:
.LFB11421:
	.cfi_startproc
	stp	x29, x30, [sp, -32]!
	.cfi_def_cfa_offset 32
	.cfi_offset 29, -32
	.cfi_offset 30, -24
	mov	x29, sp
	str	x0, [sp, 24]
	ldr	x0, [sp, 24]
	mov	x1, x0
	mov	x0, 8
	bl	_ZnwmPv
	str	xzr, [x0]
	nop
	ldp	x29, x30, [sp], 32
	.cfi_restore 30
	.cfi_restore 29
	.cfi_def_cfa_offset 0
	ret
	.cfi_endproc
.LFE11421:
	.size	_ZSt10_ConstructIxJEEvPT_DpOT0_, .-_ZSt10_ConstructIxJEEvPT_DpOT0_
	.section	.text._ZSt6fill_nIPxmxET_S1_T0_RKT1_,"axG",@progbits,_ZSt6fill_nIPxmxET_S1_T0_RKT1_,comdat
	.align	2
	.weak	_ZSt6fill_nIPxmxET_S1_T0_RKT1_
	.type	_ZSt6fill_nIPxmxET_S1_T0_RKT1_, %function
_ZSt6fill_nIPxmxET_S1_T0_RKT1_:
.LFB11422:
	.cfi_startproc
	stp	x29, x30, [sp, -80]!
	.cfi_def_cfa_offset 80
	.cfi_offset 29, -80
	.cfi_offset 30, -72
	mov	x29, sp
	stp	x19, x20, [sp, 16]
	str	x21, [sp, 32]
	.cfi_offset 19, -64
	.cfi_offset 20, -56
	.cfi_offset 21, -48
	str	x0, [sp, 72]
	str	x1, [sp, 64]
	str	x2, [sp, 56]
	ldr	x19, [sp, 72]
	ldr	x0, [sp, 64]
	bl	_ZSt17__size_to_integerm
	mov	x20, x0
	add	x0, sp, 72
	bl	_ZSt19__iterator_categoryIPxENSt15iterator_traitsIT_E17iterator_categoryERKS2_
	mov	w3, w21
	ldr	x2, [sp, 56]
	mov	x1, x20
	mov	x0, x19
	bl	_ZSt10__fill_n_aIPxmxET_S1_T0_RKT1_St26random_access_iterator_tag
	ldp	x19, x20, [sp, 16]
	ldr	x21, [sp, 32]
	ldp	x29, x30, [sp], 80
	.cfi_restore 30
	.cfi_restore 29
	.cfi_restore 21
	.cfi_restore 19
	.cfi_restore 20
	.cfi_def_cfa_offset 0
	ret
	.cfi_endproc
.LFE11422:
	.size	_ZSt6fill_nIPxmxET_S1_T0_RKT1_, .-_ZSt6fill_nIPxmxET_S1_T0_RKT1_
	.section	.text._ZSt12__niter_baseIPxET_S1_,"axG",@progbits,_ZSt12__niter_baseIPxET_S1_,comdat
	.align	2
	.weak	_ZSt12__niter_baseIPxET_S1_
	.type	_ZSt12__niter_baseIPxET_S1_, %function
_ZSt12__niter_baseIPxET_S1_:
.LFB11490:
	.cfi_startproc
	sub	sp, sp, #16
	.cfi_def_cfa_offset 16
	str	x0, [sp, 8]
	ldr	x0, [sp, 8]
	add	sp, sp, 16
	.cfi_def_cfa_offset 0
	ret
	.cfi_endproc
.LFE11490:
	.size	_ZSt12__niter_baseIPxET_S1_, .-_ZSt12__niter_baseIPxET_S1_
	.section	.text._ZSt14__relocate_a_1IxxENSt9enable_ifIXsrSt24__is_bitwise_relocatableIT_vE5valueEPS2_E4typeES4_S4_S4_RSaIT0_E,"axG",@progbits,_ZSt14__relocate_a_1IxxENSt9enable_ifIXsrSt24__is_bitwise_relocatableIT_vE5valueEPS2_E4typeES4_S4_S4_RSaIT0_E,comdat
	.align	2
	.weak	_ZSt14__relocate_a_1IxxENSt9enable_ifIXsrSt24__is_bitwise_relocatableIT_vE5valueEPS2_E4typeES4_S4_S4_RSaIT0_E
	.type	_ZSt14__relocate_a_1IxxENSt9enable_ifIXsrSt24__is_bitwise_relocatableIT_vE5valueEPS2_E4typeES4_S4_S4_RSaIT0_E, %function
_ZSt14__relocate_a_1IxxENSt9enable_ifIXsrSt24__is_bitwise_relocatableIT_vE5valueEPS2_E4typeES4_S4_S4_RSaIT0_E:
.LFB11491:
	.cfi_startproc
	stp	x29, x30, [sp, -64]!
	.cfi_def_cfa_offset 64
	.cfi_offset 29, -64
	.cfi_offset 30, -56
	mov	x29, sp
	str	x0, [sp, 40]
	str	x1, [sp, 32]
	str	x2, [sp, 24]
	str	x3, [sp, 16]
	ldr	x1, [sp, 32]
	ldr	x0, [sp, 40]
	sub	x0, x1, x0
	asr	x0, x0, 3
	str	x0, [sp, 56]
	ldr	x0, [sp, 56]
	cmp	x0, 0
	ble	.L167
	ldr	x0, [sp, 56]
	lsl	x0, x0, 3
	mov	x2, x0
	ldr	x1, [sp, 40]
	ldr	x0, [sp, 24]
	bl	memmove
.L167:
	ldr	x0, [sp, 56]
	lsl	x0, x0, 3
	ldr	x1, [sp, 24]
	add	x0, x1, x0
	ldp	x29, x30, [sp], 64
	.cfi_restore 30
	.cfi_restore 29
	.cfi_def_cfa_offset 0
	ret
	.cfi_endproc
.LFE11491:
	.size	_ZSt14__relocate_a_1IxxENSt9enable_ifIXsrSt24__is_bitwise_relocatableIT_vE5valueEPS2_E4typeES4_S4_S4_RSaIT0_E, .-_ZSt14__relocate_a_1IxxENSt9enable_ifIXsrSt24__is_bitwise_relocatableIT_vE5valueEPS2_E4typeES4_S4_S4_RSaIT0_E
	.section	.text._ZSt19__iterator_categoryIPxENSt15iterator_traitsIT_E17iterator_categoryERKS2_,"axG",@progbits,_ZSt19__iterator_categoryIPxENSt15iterator_traitsIT_E17iterator_categoryERKS2_,comdat
	.align	2
	.weak	_ZSt19__iterator_categoryIPxENSt15iterator_traitsIT_E17iterator_categoryERKS2_
	.type	_ZSt19__iterator_categoryIPxENSt15iterator_traitsIT_E17iterator_categoryERKS2_, %function
_ZSt19__iterator_categoryIPxENSt15iterator_traitsIT_E17iterator_categoryERKS2_:
.LFB11492:
	.cfi_startproc
	sub	sp, sp, #16
	.cfi_def_cfa_offset 16
	str	x0, [sp, 8]
	mov	w0, w1
	add	sp, sp, 16
	.cfi_def_cfa_offset 0
	ret
	.cfi_endproc
.LFE11492:
	.size	_ZSt19__iterator_categoryIPxENSt15iterator_traitsIT_E17iterator_categoryERKS2_, .-_ZSt19__iterator_categoryIPxENSt15iterator_traitsIT_E17iterator_categoryERKS2_
	.section	.text._ZSt10__fill_n_aIPxmxET_S1_T0_RKT1_St26random_access_iterator_tag,"axG",@progbits,_ZSt10__fill_n_aIPxmxET_S1_T0_RKT1_St26random_access_iterator_tag,comdat
	.align	2
	.weak	_ZSt10__fill_n_aIPxmxET_S1_T0_RKT1_St26random_access_iterator_tag
	.type	_ZSt10__fill_n_aIPxmxET_S1_T0_RKT1_St26random_access_iterator_tag, %function
_ZSt10__fill_n_aIPxmxET_S1_T0_RKT1_St26random_access_iterator_tag:
.LFB11493:
	.cfi_startproc
	stp	x29, x30, [sp, -48]!
	.cfi_def_cfa_offset 48
	.cfi_offset 29, -48
	.cfi_offset 30, -40
	mov	x29, sp
	str	x0, [sp, 40]
	str	x1, [sp, 32]
	str	x2, [sp, 24]
	strb	w3, [sp, 16]
	ldr	x0, [sp, 32]
	cmp	x0, 0
	bne	.L172
	ldr	x0, [sp, 40]
	b	.L173
.L172:
	ldr	x0, [sp, 32]
	lsl	x0, x0, 3
	ldr	x1, [sp, 40]
	add	x0, x1, x0
	ldr	x2, [sp, 24]
	mov	x1, x0
	ldr	x0, [sp, 40]
	bl	_ZSt8__fill_aIPxxEvT_S1_RKT0_
	ldr	x0, [sp, 32]
	lsl	x0, x0, 3
	ldr	x1, [sp, 40]
	add	x0, x1, x0
.L173:
	ldp	x29, x30, [sp], 48
	.cfi_restore 30
	.cfi_restore 29
	.cfi_def_cfa_offset 0
	ret
	.cfi_endproc
.LFE11493:
	.size	_ZSt10__fill_n_aIPxmxET_S1_T0_RKT1_St26random_access_iterator_tag, .-_ZSt10__fill_n_aIPxmxET_S1_T0_RKT1_St26random_access_iterator_tag
	.section	.text._ZSt8__fill_aIPxxEvT_S1_RKT0_,"axG",@progbits,_ZSt8__fill_aIPxxEvT_S1_RKT0_,comdat
	.align	2
	.weak	_ZSt8__fill_aIPxxEvT_S1_RKT0_
	.type	_ZSt8__fill_aIPxxEvT_S1_RKT0_, %function
_ZSt8__fill_aIPxxEvT_S1_RKT0_:
.LFB11523:
	.cfi_startproc
	stp	x29, x30, [sp, -48]!
	.cfi_def_cfa_offset 48
	.cfi_offset 29, -48
	.cfi_offset 30, -40
	mov	x29, sp
	str	x0, [sp, 40]
	str	x1, [sp, 32]
	str	x2, [sp, 24]
	ldr	x2, [sp, 24]
	ldr	x1, [sp, 32]
	ldr	x0, [sp, 40]
	bl	_ZSt9__fill_a1IPxxEN9__gnu_cxx11__enable_ifIXsrSt11__is_scalarIT0_E7__valueEvE6__typeET_S8_RKS4_
	nop
	ldp	x29, x30, [sp], 48
	.cfi_restore 30
	.cfi_restore 29
	.cfi_def_cfa_offset 0
	ret
	.cfi_endproc
.LFE11523:
	.size	_ZSt8__fill_aIPxxEvT_S1_RKT0_, .-_ZSt8__fill_aIPxxEvT_S1_RKT0_
	.section	.text._ZSt9__fill_a1IPxxEN9__gnu_cxx11__enable_ifIXsrSt11__is_scalarIT0_E7__valueEvE6__typeET_S8_RKS4_,"axG",@progbits,_ZSt9__fill_a1IPxxEN9__gnu_cxx11__enable_ifIXsrSt11__is_scalarIT0_E7__valueEvE6__typeET_S8_RKS4_,comdat
	.align	2
	.weak	_ZSt9__fill_a1IPxxEN9__gnu_cxx11__enable_ifIXsrSt11__is_scalarIT0_E7__valueEvE6__typeET_S8_RKS4_
	.type	_ZSt9__fill_a1IPxxEN9__gnu_cxx11__enable_ifIXsrSt11__is_scalarIT0_E7__valueEvE6__typeET_S8_RKS4_, %function
_ZSt9__fill_a1IPxxEN9__gnu_cxx11__enable_ifIXsrSt11__is_scalarIT0_E7__valueEvE6__typeET_S8_RKS4_:
.LFB11527:
	.cfi_startproc
	sub	sp, sp, #48
	.cfi_def_cfa_offset 48
	str	x0, [sp, 24]
	str	x1, [sp, 16]
	str	x2, [sp, 8]
	ldr	x0, [sp, 8]
	ldr	x0, [x0]
	str	x0, [sp, 40]
	b	.L176
.L177:
	ldr	x0, [sp, 24]
	ldr	x1, [sp, 40]
	str	x1, [x0]
	ldr	x0, [sp, 24]
	add	x0, x0, 8
	str	x0, [sp, 24]
.L176:
	ldr	x1, [sp, 24]
	ldr	x0, [sp, 16]
	cmp	x1, x0
	bne	.L177
	nop
	nop
	add	sp, sp, 48
	.cfi_def_cfa_offset 0
	ret
	.cfi_endproc
.LFE11527:
	.size	_ZSt9__fill_a1IPxxEN9__gnu_cxx11__enable_ifIXsrSt11__is_scalarIT0_E7__valueEvE6__typeET_S8_RKS4_, .-_ZSt9__fill_a1IPxxEN9__gnu_cxx11__enable_ifIXsrSt11__is_scalarIT0_E7__valueEvE6__typeET_S8_RKS4_
	.text
	.align	2
	.type	_Z41__static_initialization_and_destruction_0ii, %function
_Z41__static_initialization_and_destruction_0ii:
.LFB11577:
	.cfi_startproc
	stp	x29, x30, [sp, -32]!
	.cfi_def_cfa_offset 32
	.cfi_offset 29, -32
	.cfi_offset 30, -24
	mov	x29, sp
	str	w0, [sp, 28]
	str	w1, [sp, 24]
	ldr	w0, [sp, 28]
	cmp	w0, 1
	bne	.L180
	ldr	w1, [sp, 24]
	mov	w0, 65535
	cmp	w1, w0
	bne	.L180
	adrp	x0, _ZStL8__ioinit
	add	x0, x0, :lo12:_ZStL8__ioinit
	bl	_ZNSt8ios_base4InitC1Ev
	adrp	x0, __dso_handle
	add	x2, x0, :lo12:__dso_handle
	adrp	x0, _ZStL8__ioinit
	add	x1, x0, :lo12:_ZStL8__ioinit
	adrp	x0, :got:_ZNSt8ios_base4InitD1Ev
	ldr	x0, [x0, #:got_lo12:_ZNSt8ios_base4InitD1Ev]
	bl	__cxa_atexit
.L180:
	nop
	ldp	x29, x30, [sp], 32
	.cfi_restore 30
	.cfi_restore 29
	.cfi_def_cfa_offset 0
	ret
	.cfi_endproc
.LFE11577:
	.size	_Z41__static_initialization_and_destruction_0ii, .-_Z41__static_initialization_and_destruction_0ii
	.align	2
	.type	_GLOBAL__sub_I__Z10Partition3RSt6vectorIxSaIxEEii, %function
_GLOBAL__sub_I__Z10Partition3RSt6vectorIxSaIxEEii:
.LFB11600:
	.cfi_startproc
	stp	x29, x30, [sp, -16]!
	.cfi_def_cfa_offset 16
	.cfi_offset 29, -16
	.cfi_offset 30, -8
	mov	x29, sp
	mov	w1, 65535
	mov	w0, 1
	bl	_Z41__static_initialization_and_destruction_0ii
	ldp	x29, x30, [sp], 16
	.cfi_restore 30
	.cfi_restore 29
	.cfi_def_cfa_offset 0
	ret
	.cfi_endproc
.LFE11600:
	.size	_GLOBAL__sub_I__Z10Partition3RSt6vectorIxSaIxEEii, .-_GLOBAL__sub_I__Z10Partition3RSt6vectorIxSaIxEEii
	.section	.init_array,"aw",%init_array
	.align	3
	.xword	_GLOBAL__sub_I__Z10Partition3RSt6vectorIxSaIxEEii
	.hidden	DW.ref.__gxx_personality_v0
	.weak	DW.ref.__gxx_personality_v0
	.section	.data.rel.local.DW.ref.__gxx_personality_v0,"awG",@progbits,DW.ref.__gxx_personality_v0,comdat
	.align	3
	.type	DW.ref.__gxx_personality_v0, %object
	.size	DW.ref.__gxx_personality_v0, 8
DW.ref.__gxx_personality_v0:
	.xword	__gxx_personality_v0
	.hidden	__dso_handle
	.ident	"GCC: (Ubuntu 11.4.0-1ubuntu1~22.04) 11.4.0"
	.section	.note.GNU-stack,"",@progbits
