	.arch armv8-a
	.file	"Sorting pairs.cpp"
	.text
	.section	.text._ZnwmPv,"axG",@progbits,_ZnwmPv,comdat
	.align	2
	.weak	_ZnwmPv
	.type	_ZnwmPv, %function
_ZnwmPv:
.LFB38:
	.cfi_startproc
	sub	sp, sp, #16
	.cfi_def_cfa_offset 16
	str	x0, [sp, 8]
	str	x1, [sp]
	ldr	x0, [sp]
	add	sp, sp, 16
	.cfi_def_cfa_offset 0
	ret
	.cfi_endproc
.LFE38:
	.size	_ZnwmPv, .-_ZnwmPv
	.section	.text._ZSt4__lgl,"axG",@progbits,_ZSt4__lgl,comdat
	.align	2
	.weak	_ZSt4__lgl
	.type	_ZSt4__lgl, %function
_ZSt4__lgl:
.LFB404:
	.cfi_startproc
	sub	sp, sp, #16
	.cfi_def_cfa_offset 16
	str	x0, [sp, 8]
	ldr	x0, [sp, 8]
	clz	x0, x0
	mov	w1, w0
	mov	w0, 63
	sub	w0, w0, w1
	sxtw	x0, w0
	add	sp, sp, 16
	.cfi_def_cfa_offset 0
	ret
	.cfi_endproc
.LFE404:
	.size	_ZSt4__lgl, .-_ZSt4__lgl
	.section	.text._ZNSt11char_traitsIcE2ltERKcS2_,"axG",@progbits,_ZNSt11char_traitsIcE2ltERKcS2_,comdat
	.align	2
	.weak	_ZNSt11char_traitsIcE2ltERKcS2_
	.type	_ZNSt11char_traitsIcE2ltERKcS2_, %function
_ZNSt11char_traitsIcE2ltERKcS2_:
.LFB446:
	.cfi_startproc
	sub	sp, sp, #16
	.cfi_def_cfa_offset 16
	str	x0, [sp, 8]
	str	x1, [sp]
	ldr	x0, [sp, 8]
	ldrb	w1, [x0]
	ldr	x0, [sp]
	ldrb	w0, [x0]
	cmp	w1, w0
	cset	w0, cc
	and	w0, w0, 255
	add	sp, sp, 16
	.cfi_def_cfa_offset 0
	ret
	.cfi_endproc
.LFE446:
	.size	_ZNSt11char_traitsIcE2ltERKcS2_, .-_ZNSt11char_traitsIcE2ltERKcS2_
	.section	.text._ZNSt11char_traitsIcE7compareEPKcS2_m,"axG",@progbits,_ZNSt11char_traitsIcE7compareEPKcS2_m,comdat
	.align	2
	.weak	_ZNSt11char_traitsIcE7compareEPKcS2_m
	.type	_ZNSt11char_traitsIcE7compareEPKcS2_m, %function
_ZNSt11char_traitsIcE7compareEPKcS2_m:
.LFB447:
	.cfi_startproc
	stp	x29, x30, [sp, -64]!
	.cfi_def_cfa_offset 64
	.cfi_offset 29, -64
	.cfi_offset 30, -56
	mov	x29, sp
	str	x0, [sp, 40]
	str	x1, [sp, 32]
	str	x2, [sp, 24]
	ldr	x0, [sp, 24]
	cmp	x0, 0
	bne	.L8
	mov	w0, 0
	b	.L9
.L8:
	mov	w0, 0
	cmp	w0, 0
	beq	.L10
	str	xzr, [sp, 56]
	b	.L11
.L14:
	ldr	x1, [sp, 40]
	ldr	x0, [sp, 56]
	add	x2, x1, x0
	ldr	x1, [sp, 32]
	ldr	x0, [sp, 56]
	add	x0, x1, x0
	mov	x1, x0
	mov	x0, x2
	bl	_ZNSt11char_traitsIcE2ltERKcS2_
	and	w0, w0, 255
	cmp	w0, 0
	beq	.L12
	mov	w0, -1
	b	.L9
.L12:
	ldr	x1, [sp, 32]
	ldr	x0, [sp, 56]
	add	x2, x1, x0
	ldr	x1, [sp, 40]
	ldr	x0, [sp, 56]
	add	x0, x1, x0
	mov	x1, x0
	mov	x0, x2
	bl	_ZNSt11char_traitsIcE2ltERKcS2_
	and	w0, w0, 255
	cmp	w0, 0
	beq	.L13
	mov	w0, 1
	b	.L9
.L13:
	ldr	x0, [sp, 56]
	add	x0, x0, 1
	str	x0, [sp, 56]
.L11:
	ldr	x1, [sp, 56]
	ldr	x0, [sp, 24]
	cmp	x1, x0
	bcc	.L14
	mov	w0, 0
	b	.L9
.L10:
	ldr	x2, [sp, 24]
	ldr	x1, [sp, 32]
	ldr	x0, [sp, 40]
	bl	memcmp
	nop
.L9:
	ldp	x29, x30, [sp], 64
	.cfi_restore 30
	.cfi_restore 29
	.cfi_def_cfa_offset 0
	ret
	.cfi_endproc
.LFE447:
	.size	_ZNSt11char_traitsIcE7compareEPKcS2_m, .-_ZNSt11char_traitsIcE7compareEPKcS2_m
	.local	_ZStL8__ioinit
	.comm	_ZStL8__ioinit,1,8
	.section	.text._ZSt3minImERKT_S2_S2_,"axG",@progbits,_ZSt3minImERKT_S2_S2_,comdat
	.align	2
	.weak	_ZSt3minImERKT_S2_S2_
	.type	_ZSt3minImERKT_S2_S2_, %function
_ZSt3minImERKT_S2_S2_:
.LFB3247:
	.cfi_startproc
	sub	sp, sp, #16
	.cfi_def_cfa_offset 16
	str	x0, [sp, 8]
	str	x1, [sp]
	ldr	x0, [sp]
	ldr	x1, [x0]
	ldr	x0, [sp, 8]
	ldr	x0, [x0]
	cmp	x1, x0
	bcs	.L16
	ldr	x0, [sp]
	b	.L17
.L16:
	ldr	x0, [sp, 8]
.L17:
	add	sp, sp, 16
	.cfi_def_cfa_offset 0
	ret
	.cfi_endproc
.LFE3247:
	.size	_ZSt3minImERKT_S2_S2_, .-_ZSt3minImERKT_S2_S2_
	.section	.rodata
	.align	3
	.type	_ZN6__pstl9execution2v1L3seqE, %object
	.size	_ZN6__pstl9execution2v1L3seqE, 1
_ZN6__pstl9execution2v1L3seqE:
	.zero	1
	.align	3
	.type	_ZN6__pstl9execution2v1L3parE, %object
	.size	_ZN6__pstl9execution2v1L3parE, 1
_ZN6__pstl9execution2v1L3parE:
	.zero	1
	.align	3
	.type	_ZN6__pstl9execution2v1L9par_unseqE, %object
	.size	_ZN6__pstl9execution2v1L9par_unseqE, 1
_ZN6__pstl9execution2v1L9par_unseqE:
	.zero	1
	.align	3
	.type	_ZN6__pstl9execution2v1L5unseqE, %object
	.size	_ZN6__pstl9execution2v1L5unseqE, 1
_ZN6__pstl9execution2v1L5unseqE:
	.zero	1
	.align	2
	.type	_ZN9__gnu_cxxL21__default_lock_policyE, %object
	.size	_ZN9__gnu_cxxL21__default_lock_policyE, 4
_ZN9__gnu_cxxL21__default_lock_policyE:
	.word	2
	.align	2
	.type	_ZNSt15regex_constantsL13error_collateE, %object
	.size	_ZNSt15regex_constantsL13error_collateE, 4
_ZNSt15regex_constantsL13error_collateE:
	.zero	4
	.align	2
	.type	_ZNSt15regex_constantsL11error_ctypeE, %object
	.size	_ZNSt15regex_constantsL11error_ctypeE, 4
_ZNSt15regex_constantsL11error_ctypeE:
	.word	1
	.align	2
	.type	_ZNSt15regex_constantsL12error_escapeE, %object
	.size	_ZNSt15regex_constantsL12error_escapeE, 4
_ZNSt15regex_constantsL12error_escapeE:
	.word	2
	.align	2
	.type	_ZNSt15regex_constantsL13error_backrefE, %object
	.size	_ZNSt15regex_constantsL13error_backrefE, 4
_ZNSt15regex_constantsL13error_backrefE:
	.word	3
	.align	2
	.type	_ZNSt15regex_constantsL11error_brackE, %object
	.size	_ZNSt15regex_constantsL11error_brackE, 4
_ZNSt15regex_constantsL11error_brackE:
	.word	4
	.align	2
	.type	_ZNSt15regex_constantsL11error_parenE, %object
	.size	_ZNSt15regex_constantsL11error_parenE, 4
_ZNSt15regex_constantsL11error_parenE:
	.word	5
	.align	2
	.type	_ZNSt15regex_constantsL11error_braceE, %object
	.size	_ZNSt15regex_constantsL11error_braceE, 4
_ZNSt15regex_constantsL11error_braceE:
	.word	6
	.align	2
	.type	_ZNSt15regex_constantsL14error_badbraceE, %object
	.size	_ZNSt15regex_constantsL14error_badbraceE, 4
_ZNSt15regex_constantsL14error_badbraceE:
	.word	7
	.align	2
	.type	_ZNSt15regex_constantsL11error_rangeE, %object
	.size	_ZNSt15regex_constantsL11error_rangeE, 4
_ZNSt15regex_constantsL11error_rangeE:
	.word	8
	.align	2
	.type	_ZNSt15regex_constantsL11error_spaceE, %object
	.size	_ZNSt15regex_constantsL11error_spaceE, 4
_ZNSt15regex_constantsL11error_spaceE:
	.word	9
	.align	2
	.type	_ZNSt15regex_constantsL15error_badrepeatE, %object
	.size	_ZNSt15regex_constantsL15error_badrepeatE, 4
_ZNSt15regex_constantsL15error_badrepeatE:
	.word	10
	.align	2
	.type	_ZNSt15regex_constantsL16error_complexityE, %object
	.size	_ZNSt15regex_constantsL16error_complexityE, 4
_ZNSt15regex_constantsL16error_complexityE:
	.word	11
	.align	2
	.type	_ZNSt15regex_constantsL11error_stackE, %object
	.size	_ZNSt15regex_constantsL11error_stackE, 4
_ZNSt15regex_constantsL11error_stackE:
	.word	12
	.align	3
	.type	_ZNSt8__detailL19_S_invalid_state_idE, %object
	.size	_ZNSt8__detailL19_S_invalid_state_idE, 8
_ZNSt8__detailL19_S_invalid_state_idE:
	.xword	-1
	.align	2
	.type	_ZL2sz, %object
	.size	_ZL2sz, 4
_ZL2sz:
	.word	1000010
	.global	composite
	.bss
	.align	3
	.type	composite, %object
	.size	composite, 1000010
composite:
	.zero	1000010
	.section	.text._ZNSt12_Vector_baseIxSaIxEE12_Vector_implD2Ev,"axG",@progbits,_ZNSt12_Vector_baseIxSaIxEE12_Vector_implD5Ev,comdat
	.align	2
	.weak	_ZNSt12_Vector_baseIxSaIxEE12_Vector_implD2Ev
	.type	_ZNSt12_Vector_baseIxSaIxEE12_Vector_implD2Ev, %function
_ZNSt12_Vector_baseIxSaIxEE12_Vector_implD2Ev:
.LFB9700:
	.cfi_startproc
	stp	x29, x30, [sp, -32]!
	.cfi_def_cfa_offset 32
	.cfi_offset 29, -32
	.cfi_offset 30, -24
	mov	x29, sp
	str	x0, [sp, 24]
	ldr	x0, [sp, 24]
	bl	_ZNSaIxED2Ev
	nop
	ldp	x29, x30, [sp], 32
	.cfi_restore 30
	.cfi_restore 29
	.cfi_def_cfa_offset 0
	ret
	.cfi_endproc
.LFE9700:
	.size	_ZNSt12_Vector_baseIxSaIxEE12_Vector_implD2Ev, .-_ZNSt12_Vector_baseIxSaIxEE12_Vector_implD2Ev
	.weak	_ZNSt12_Vector_baseIxSaIxEE12_Vector_implD1Ev
	.set	_ZNSt12_Vector_baseIxSaIxEE12_Vector_implD1Ev,_ZNSt12_Vector_baseIxSaIxEE12_Vector_implD2Ev
	.section	.text._ZNSt12_Vector_baseIxSaIxEEC2Ev,"axG",@progbits,_ZNSt12_Vector_baseIxSaIxEEC5Ev,comdat
	.align	2
	.weak	_ZNSt12_Vector_baseIxSaIxEEC2Ev
	.type	_ZNSt12_Vector_baseIxSaIxEEC2Ev, %function
_ZNSt12_Vector_baseIxSaIxEEC2Ev:
.LFB9702:
	.cfi_startproc
	stp	x29, x30, [sp, -32]!
	.cfi_def_cfa_offset 32
	.cfi_offset 29, -32
	.cfi_offset 30, -24
	mov	x29, sp
	str	x0, [sp, 24]
	ldr	x0, [sp, 24]
	bl	_ZNSt12_Vector_baseIxSaIxEE12_Vector_implC1Ev
	nop
	ldp	x29, x30, [sp], 32
	.cfi_restore 30
	.cfi_restore 29
	.cfi_def_cfa_offset 0
	ret
	.cfi_endproc
.LFE9702:
	.size	_ZNSt12_Vector_baseIxSaIxEEC2Ev, .-_ZNSt12_Vector_baseIxSaIxEEC2Ev
	.weak	_ZNSt12_Vector_baseIxSaIxEEC1Ev
	.set	_ZNSt12_Vector_baseIxSaIxEEC1Ev,_ZNSt12_Vector_baseIxSaIxEEC2Ev
	.section	.text._ZNSt6vectorIxSaIxEEC2Ev,"axG",@progbits,_ZNSt6vectorIxSaIxEEC5Ev,comdat
	.align	2
	.weak	_ZNSt6vectorIxSaIxEEC2Ev
	.type	_ZNSt6vectorIxSaIxEEC2Ev, %function
_ZNSt6vectorIxSaIxEEC2Ev:
.LFB9704:
	.cfi_startproc
	stp	x29, x30, [sp, -32]!
	.cfi_def_cfa_offset 32
	.cfi_offset 29, -32
	.cfi_offset 30, -24
	mov	x29, sp
	str	x0, [sp, 24]
	ldr	x0, [sp, 24]
	bl	_ZNSt12_Vector_baseIxSaIxEEC2Ev
	nop
	ldp	x29, x30, [sp], 32
	.cfi_restore 30
	.cfi_restore 29
	.cfi_def_cfa_offset 0
	ret
	.cfi_endproc
.LFE9704:
	.size	_ZNSt6vectorIxSaIxEEC2Ev, .-_ZNSt6vectorIxSaIxEEC2Ev
	.weak	_ZNSt6vectorIxSaIxEEC1Ev
	.set	_ZNSt6vectorIxSaIxEEC1Ev,_ZNSt6vectorIxSaIxEEC2Ev
	.global	primes
	.bss
	.align	3
	.type	primes, %object
	.size	primes, 24
primes:
	.zero	24
	.text
	.align	2
	.global	_Z5sievev
	.type	_Z5sievev, %function
_Z5sievev:
.LFB9706:
	.cfi_startproc
	sub	sp, sp, #16
	.cfi_def_cfa_offset 16
	adrp	x0, composite
	add	x0, x0, :lo12:composite
	mov	w1, 1
	strb	w1, [x0, 1]
	adrp	x0, composite
	add	x0, x0, :lo12:composite
	ldrb	w1, [x0, 1]
	adrp	x0, composite
	add	x0, x0, :lo12:composite
	strb	w1, [x0]
	mov	w0, 2
	str	w0, [sp, 12]
	b	.L22
.L26:
	adrp	x0, composite
	add	x1, x0, :lo12:composite
	ldrsw	x0, [sp, 12]
	ldrb	w0, [x1, x0]
	eor	w0, w0, 1
	and	w0, w0, 255
	cmp	w0, 0
	beq	.L23
	ldr	w0, [sp, 12]
	mul	w0, w0, w0
	str	w0, [sp, 8]
	b	.L24
.L25:
	adrp	x0, composite
	add	x1, x0, :lo12:composite
	ldrsw	x0, [sp, 8]
	mov	w2, 1
	strb	w2, [x1, x0]
	ldr	w1, [sp, 8]
	ldr	w0, [sp, 12]
	add	w0, w1, w0
	str	w0, [sp, 8]
.L24:
	ldr	w1, [sp, 8]
	mov	w0, 16970
	movk	w0, 0xf, lsl 16
	cmp	w1, w0
	ble	.L25
.L23:
	ldr	w0, [sp, 12]
	add	w0, w0, 1
	str	w0, [sp, 12]
.L22:
	ldr	w0, [sp, 12]
	mul	w1, w0, w0
	mov	w0, 16970
	movk	w0, 0xf, lsl 16
	cmp	w1, w0
	ble	.L26
	nop
	nop
	add	sp, sp, 16
	.cfi_def_cfa_offset 0
	ret
	.cfi_endproc
.LFE9706:
	.size	_Z5sievev, .-_Z5sievev
	.align	2
	.global	_Z11linearSievei
	.type	_Z11linearSievei, %function
_Z11linearSievei:
.LFB9707:
	.cfi_startproc
	stp	x29, x30, [sp, -64]!
	.cfi_def_cfa_offset 64
	.cfi_offset 29, -64
	.cfi_offset 30, -56
	mov	x29, sp
	str	x19, [sp, 16]
	.cfi_offset 19, -48
	str	w0, [sp, 44]
	adrp	x0, composite
	add	x0, x0, :lo12:composite
	mov	w1, 1
	strb	w1, [x0, 1]
	adrp	x0, composite
	add	x0, x0, :lo12:composite
	ldrb	w1, [x0, 1]
	adrp	x0, composite
	add	x0, x0, :lo12:composite
	strb	w1, [x0]
	mov	w0, 2
	str	w0, [sp, 60]
	b	.L28
.L35:
	adrp	x0, composite
	add	x1, x0, :lo12:composite
	ldrsw	x0, [sp, 60]
	ldrb	w0, [x1, x0]
	eor	w0, w0, 1
	and	w0, w0, 255
	cmp	w0, 0
	beq	.L29
	ldrsw	x0, [sp, 60]
	str	x0, [sp, 48]
	add	x0, sp, 48
	mov	x1, x0
	adrp	x0, primes
	add	x0, x0, :lo12:primes
	bl	_ZNSt6vectorIxSaIxEE9push_backEOx
.L29:
	str	wzr, [sp, 56]
	b	.L30
.L34:
	ldrsw	x19, [sp, 60]
	ldrsw	x0, [sp, 56]
	mov	x1, x0
	adrp	x0, primes
	add	x0, x0, :lo12:primes
	bl	_ZNSt6vectorIxSaIxEEixEm
	ldr	x0, [x0]
	mul	x1, x19, x0
	ldrsw	x0, [sp, 44]
	cmp	x1, x0
	cset	w0, gt
	and	w0, w0, 255
	cmp	w0, 0
	bne	.L36
	ldrsw	x19, [sp, 60]
	ldrsw	x0, [sp, 56]
	mov	x1, x0
	adrp	x0, primes
	add	x0, x0, :lo12:primes
	bl	_ZNSt6vectorIxSaIxEEixEm
	ldr	x0, [x0]
	mul	x0, x19, x0
	adrp	x1, composite
	add	x1, x1, :lo12:composite
	mov	w2, 1
	strb	w2, [x1, x0]
	ldrsw	x19, [sp, 60]
	ldrsw	x0, [sp, 56]
	mov	x1, x0
	adrp	x0, primes
	add	x0, x0, :lo12:primes
	bl	_ZNSt6vectorIxSaIxEEixEm
	ldr	x0, [x0]
	sdiv	x1, x19, x0
	mul	x0, x1, x0
	sub	x0, x19, x0
	cmp	x0, 0
	cset	w0, eq
	and	w0, w0, 255
	cmp	w0, 0
	bne	.L37
	ldr	w0, [sp, 56]
	add	w0, w0, 1
	str	w0, [sp, 56]
.L30:
	ldrsw	x19, [sp, 56]
	adrp	x0, primes
	add	x0, x0, :lo12:primes
	bl	_ZNKSt6vectorIxSaIxEE4sizeEv
	cmp	x19, x0
	cset	w0, cc
	and	w0, w0, 255
	cmp	w0, 0
	bne	.L34
	b	.L32
.L36:
	nop
	b	.L32
.L37:
	nop
.L32:
	ldr	w0, [sp, 60]
	add	w0, w0, 1
	str	w0, [sp, 60]
.L28:
	ldr	w1, [sp, 60]
	ldr	w0, [sp, 44]
	cmp	w1, w0
	ble	.L35
	nop
	nop
	ldr	x19, [sp, 16]
	ldp	x29, x30, [sp], 64
	.cfi_restore 30
	.cfi_restore 29
	.cfi_restore 19
	.cfi_def_cfa_offset 0
	ret
	.cfi_endproc
.LFE9707:
	.size	_Z11linearSievei, .-_Z11linearSievei
	.align	2
	.global	_Z3gcdii
	.type	_Z3gcdii, %function
_Z3gcdii:
.LFB9708:
	.cfi_startproc
	stp	x29, x30, [sp, -32]!
	.cfi_def_cfa_offset 32
	.cfi_offset 29, -32
	.cfi_offset 30, -24
	mov	x29, sp
	str	w0, [sp, 28]
	str	w1, [sp, 24]
	ldr	w0, [sp, 24]
	cmp	w0, 0
	bne	.L39
	ldr	w0, [sp, 28]
	b	.L40
.L39:
	ldr	w0, [sp, 28]
	ldr	w1, [sp, 24]
	sdiv	w2, w0, w1
	ldr	w1, [sp, 24]
	mul	w1, w2, w1
	sub	w0, w0, w1
	mov	w1, w0
	ldr	w0, [sp, 24]
	bl	_Z3gcdii
	nop
.L40:
	ldp	x29, x30, [sp], 32
	.cfi_restore 30
	.cfi_restore 29
	.cfi_def_cfa_offset 0
	ret
	.cfi_endproc
.LFE9708:
	.size	_Z3gcdii, .-_Z3gcdii
	.align	2
	.global	_Z7isPrimei
	.type	_Z7isPrimei, %function
_Z7isPrimei:
.LFB9709:
	.cfi_startproc
	stp	x29, x30, [sp, -64]!
	.cfi_def_cfa_offset 64
	.cfi_offset 29, -64
	.cfi_offset 30, -56
	mov	x29, sp
	str	d8, [sp, 16]
	.cfi_offset 72, -48
	str	w0, [sp, 44]
	ldr	w0, [sp, 44]
	cmp	w0, 1
	bgt	.L42
	mov	w0, 0
	b	.L43
.L42:
	mov	w0, 2
	str	w0, [sp, 60]
	b	.L44
.L46:
	ldr	w0, [sp, 44]
	ldr	w1, [sp, 60]
	sdiv	w2, w0, w1
	ldr	w1, [sp, 60]
	mul	w1, w2, w1
	sub	w0, w0, w1
	cmp	w0, 0
	bne	.L45
	mov	w0, 0
	b	.L43
.L45:
	ldr	w0, [sp, 60]
	add	w0, w0, 1
	str	w0, [sp, 60]
.L44:
	ldr	w0, [sp, 60]
	scvtf	d8, w0
	ldr	w0, [sp, 44]
	bl	_ZSt4sqrtIiEN9__gnu_cxx11__enable_ifIXsrSt12__is_integerIT_E7__valueEdE6__typeES3_
	fcmpe	d8, d0
	cset	w0, ls
	and	w0, w0, 255
	cmp	w0, 0
	bne	.L46
	mov	w0, 1
.L43:
	ldr	d8, [sp, 16]
	ldp	x29, x30, [sp], 64
	.cfi_restore 30
	.cfi_restore 29
	.cfi_restore 72
	.cfi_def_cfa_offset 0
	ret
	.cfi_endproc
.LFE9709:
	.size	_Z7isPrimei, .-_Z7isPrimei
	.align	2
	.global	_Z3lcmii
	.type	_Z3lcmii, %function
_Z3lcmii:
.LFB9710:
	.cfi_startproc
	stp	x29, x30, [sp, -32]!
	.cfi_def_cfa_offset 32
	.cfi_offset 29, -32
	.cfi_offset 30, -24
	mov	x29, sp
	str	w0, [sp, 28]
	str	w1, [sp, 24]
	ldr	w1, [sp, 24]
	ldr	w0, [sp, 28]
	bl	_Z3gcdii
	mov	w1, w0
	ldr	w0, [sp, 28]
	sdiv	w1, w0, w1
	ldr	w0, [sp, 24]
	mul	w0, w1, w0
	ldp	x29, x30, [sp], 32
	.cfi_restore 30
	.cfi_restore 29
	.cfi_def_cfa_offset 0
	ret
	.cfi_endproc
.LFE9710:
	.size	_Z3lcmii, .-_Z3lcmii
	.align	2
	.global	_Z5luckyNSt7__cxx1112basic_stringIcSt11char_traitsIcESaIcEEE
	.type	_Z5luckyNSt7__cxx1112basic_stringIcSt11char_traitsIcESaIcEEE, %function
_Z5luckyNSt7__cxx1112basic_stringIcSt11char_traitsIcESaIcEEE:
.LFB9711:
	.cfi_startproc
	stp	x29, x30, [sp, -64]!
	.cfi_def_cfa_offset 64
	.cfi_offset 29, -64
	.cfi_offset 30, -56
	mov	x29, sp
	str	x19, [sp, 16]
	.cfi_offset 19, -48
	str	x0, [sp, 40]
	str	wzr, [sp, 60]
	b	.L50
.L55:
	ldrsw	x0, [sp, 60]
	mov	x1, x0
	ldr	x0, [sp, 40]
	bl	_ZNSt7__cxx1112basic_stringIcSt11char_traitsIcESaIcEEixEm
	ldrb	w0, [x0]
	cmp	w0, 52
	beq	.L51
	ldrsw	x0, [sp, 60]
	mov	x1, x0
	ldr	x0, [sp, 40]
	bl	_ZNSt7__cxx1112basic_stringIcSt11char_traitsIcESaIcEEixEm
	ldrb	w0, [x0]
	cmp	w0, 55
	beq	.L51
	mov	w0, 1
	b	.L52
.L51:
	mov	w0, 0
.L52:
	cmp	w0, 0
	beq	.L53
	mov	w0, 0
	b	.L54
.L53:
	ldr	w0, [sp, 60]
	add	w0, w0, 1
	str	w0, [sp, 60]
.L50:
	ldrsw	x19, [sp, 60]
	ldr	x0, [sp, 40]
	bl	_ZNKSt7__cxx1112basic_stringIcSt11char_traitsIcESaIcEE4sizeEv
	cmp	x19, x0
	cset	w0, cc
	and	w0, w0, 255
	cmp	w0, 0
	bne	.L55
	mov	w0, 1
.L54:
	ldr	x19, [sp, 16]
	ldp	x29, x30, [sp], 64
	.cfi_restore 30
	.cfi_restore 29
	.cfi_restore 19
	.cfi_def_cfa_offset 0
	ret
	.cfi_endproc
.LFE9711:
	.size	_Z5luckyNSt7__cxx1112basic_stringIcSt11char_traitsIcESaIcEEE, .-_Z5luckyNSt7__cxx1112basic_stringIcSt11char_traitsIcESaIcEEE
	.align	2
	.global	_Z12isPalindromeNSt7__cxx1112basic_stringIcSt11char_traitsIcESaIcEEE
	.type	_Z12isPalindromeNSt7__cxx1112basic_stringIcSt11char_traitsIcESaIcEEE, %function
_Z12isPalindromeNSt7__cxx1112basic_stringIcSt11char_traitsIcESaIcEEE:
.LFB9712:
	.cfi_startproc
	.cfi_personality 0x9b,DW.ref.__gxx_personality_v0
	.cfi_lsda 0x1b,.LLSDA9712
	stp	x29, x30, [sp, -80]!
	.cfi_def_cfa_offset 80
	.cfi_offset 29, -80
	.cfi_offset 30, -72
	mov	x29, sp
	str	x19, [sp, 16]
	.cfi_offset 19, -64
	str	x0, [sp, 40]
	add	x0, sp, 48
	ldr	x1, [sp, 40]
.LEHB0:
	bl	_ZNSt7__cxx1112basic_stringIcSt11char_traitsIcESaIcEEC1ERKS4_
.LEHE0:
	add	x0, sp, 48
	bl	_ZNSt7__cxx1112basic_stringIcSt11char_traitsIcESaIcEE5beginEv
	mov	x19, x0
	add	x0, sp, 48
	bl	_ZNSt7__cxx1112basic_stringIcSt11char_traitsIcESaIcEE3endEv
	mov	x1, x0
	mov	x0, x19
.LEHB1:
	bl	_ZSt7reverseIN9__gnu_cxx17__normal_iteratorIPcNSt7__cxx1112basic_stringIcSt11char_traitsIcESaIcEEEEEEvT_SA_
.LEHE1:
	add	x0, sp, 48
	mov	x1, x0
	ldr	x0, [sp, 40]
	bl	_ZSteqIcEN9__gnu_cxx11__enable_ifIXsrSt9__is_charIT_E7__valueEbE6__typeERKNSt7__cxx1112basic_stringIS3_St11char_traitsIS3_ESaIS3_EEESE_
	and	w0, w0, 255
	cmp	w0, 0
	beq	.L57
	mov	w19, 1
	b	.L58
.L57:
	mov	w19, 0
.L58:
	add	x0, sp, 48
	bl	_ZNSt7__cxx1112basic_stringIcSt11char_traitsIcESaIcEED1Ev
	mov	w0, w19
	b	.L62
.L61:
	mov	x19, x0
	add	x0, sp, 48
	bl	_ZNSt7__cxx1112basic_stringIcSt11char_traitsIcESaIcEED1Ev
	mov	x0, x19
.LEHB2:
	bl	_Unwind_Resume
.LEHE2:
.L62:
	ldr	x19, [sp, 16]
	ldp	x29, x30, [sp], 80
	.cfi_restore 30
	.cfi_restore 29
	.cfi_restore 19
	.cfi_def_cfa_offset 0
	ret
	.cfi_endproc
.LFE9712:
	.global	__gxx_personality_v0
	.section	.gcc_except_table,"a",@progbits
.LLSDA9712:
	.byte	0xff
	.byte	0xff
	.byte	0x1
	.uleb128 .LLSDACSE9712-.LLSDACSB9712
.LLSDACSB9712:
	.uleb128 .LEHB0-.LFB9712
	.uleb128 .LEHE0-.LEHB0
	.uleb128 0
	.uleb128 0
	.uleb128 .LEHB1-.LFB9712
	.uleb128 .LEHE1-.LEHB1
	.uleb128 .L61-.LFB9712
	.uleb128 0
	.uleb128 .LEHB2-.LFB9712
	.uleb128 .LEHE2-.LEHB2
	.uleb128 0
	.uleb128 0
.LLSDACSE9712:
	.text
	.size	_Z12isPalindromeNSt7__cxx1112basic_stringIcSt11char_traitsIcESaIcEEE, .-_Z12isPalindromeNSt7__cxx1112basic_stringIcSt11char_traitsIcESaIcEEE
	.align	2
	.global	_Z12binarySearchSt6vectorIiSaIiEEiii
	.type	_Z12binarySearchSt6vectorIiSaIiEEiii, %function
_Z12binarySearchSt6vectorIiSaIiEEiii:
.LFB9713:
	.cfi_startproc
	stp	x29, x30, [sp, -64]!
	.cfi_def_cfa_offset 64
	.cfi_offset 29, -64
	.cfi_offset 30, -56
	mov	x29, sp
	str	x0, [sp, 40]
	str	w1, [sp, 36]
	str	w2, [sp, 32]
	str	w3, [sp, 28]
	b	.L64
.L68:
	ldr	w1, [sp, 32]
	ldr	w0, [sp, 36]
	sub	w0, w1, w0
	lsr	w1, w0, 31
	add	w0, w1, w0
	asr	w0, w0, 1
	mov	w1, w0
	ldr	w0, [sp, 36]
	add	w0, w0, w1
	str	w0, [sp, 60]
	ldrsw	x0, [sp, 60]
	mov	x1, x0
	ldr	x0, [sp, 40]
	bl	_ZNSt6vectorIiSaIiEEixEm
	ldr	w0, [x0]
	ldr	w1, [sp, 28]
	cmp	w1, w0
	cset	w0, eq
	and	w0, w0, 255
	cmp	w0, 0
	beq	.L65
	ldr	w0, [sp, 60]
	b	.L66
.L65:
	ldrsw	x0, [sp, 60]
	mov	x1, x0
	ldr	x0, [sp, 40]
	bl	_ZNSt6vectorIiSaIiEEixEm
	ldr	w0, [x0]
	ldr	w1, [sp, 28]
	cmp	w1, w0
	cset	w0, gt
	and	w0, w0, 255
	cmp	w0, 0
	beq	.L67
	ldr	w0, [sp, 60]
	add	w0, w0, 1
	str	w0, [sp, 36]
	b	.L64
.L67:
	ldr	w0, [sp, 60]
	sub	w0, w0, #1
	str	w0, [sp, 32]
.L64:
	ldr	w1, [sp, 36]
	ldr	w0, [sp, 32]
	cmp	w1, w0
	ble	.L68
	mov	w0, -1
.L66:
	ldp	x29, x30, [sp], 64
	.cfi_restore 30
	.cfi_restore 29
	.cfi_def_cfa_offset 0
	ret
	.cfi_endproc
.LFE9713:
	.size	_Z12binarySearchSt6vectorIiSaIiEEiii, .-_Z12binarySearchSt6vectorIiSaIiEEiii
	.align	2
	.global	_Z11printBinaryi
	.type	_Z11printBinaryi, %function
_Z11printBinaryi:
.LFB9714:
	.cfi_startproc
	stp	x29, x30, [sp, -32]!
	.cfi_def_cfa_offset 32
	.cfi_offset 29, -32
	.cfi_offset 30, -24
	mov	x29, sp
	str	w0, [sp, 28]
	ldr	w0, [sp, 28]
	cmp	w0, 1
	bgt	.L70
	ldr	w1, [sp, 28]
	adrp	x0, :got:_ZSt4cout
	ldr	x0, [x0, #:got_lo12:_ZSt4cout]
	bl	_ZNSolsEi
	b	.L69
.L70:
	ldr	w0, [sp, 28]
	asr	w0, w0, 1
	bl	_Z11printBinaryi
	ldr	w0, [sp, 28]
	and	w0, w0, 1
	mov	w1, w0
	adrp	x0, :got:_ZSt4cout
	ldr	x0, [x0, #:got_lo12:_ZSt4cout]
	bl	_ZNSolsEi
.L69:
	ldp	x29, x30, [sp], 32
	.cfi_restore 30
	.cfi_restore 29
	.cfi_def_cfa_offset 0
	ret
	.cfi_endproc
.LFE9714:
	.size	_Z11printBinaryi, .-_Z11printBinaryi
	.align	2
	.global	_Z10countBits1i
	.type	_Z10countBits1i, %function
_Z10countBits1i:
.LFB9715:
	.cfi_startproc
	sub	sp, sp, #32
	.cfi_def_cfa_offset 32
	str	w0, [sp, 12]
	str	wzr, [sp, 28]
	b	.L73
.L74:
	ldr	w0, [sp, 28]
	add	w0, w0, 1
	str	w0, [sp, 28]
	ldr	w0, [sp, 12]
	sub	w0, w0, #1
	ldr	w1, [sp, 12]
	and	w0, w1, w0
	str	w0, [sp, 12]
.L73:
	ldr	w0, [sp, 12]
	cmp	w0, 0
	bne	.L74
	ldr	w0, [sp, 28]
	add	sp, sp, 32
	.cfi_def_cfa_offset 0
	ret
	.cfi_endproc
.LFE9715:
	.size	_Z10countBits1i, .-_Z10countBits1i
	.align	2
	.global	_Z10countBits0i
	.type	_Z10countBits0i, %function
_Z10countBits0i:
.LFB9716:
	.cfi_startproc
	sub	sp, sp, #32
	.cfi_def_cfa_offset 32
	str	w0, [sp, 12]
	str	wzr, [sp, 28]
	mov	w0, 32
	str	w0, [sp, 24]
	b	.L77
.L78:
	ldr	w0, [sp, 28]
	add	w0, w0, 1
	str	w0, [sp, 28]
	ldr	w0, [sp, 12]
	sub	w0, w0, #1
	ldr	w1, [sp, 12]
	and	w0, w1, w0
	str	w0, [sp, 12]
.L77:
	ldr	w0, [sp, 12]
	cmp	w0, 0
	bne	.L78
	ldr	w1, [sp, 24]
	ldr	w0, [sp, 28]
	sub	w0, w1, w0
	add	sp, sp, 32
	.cfi_def_cfa_offset 0
	ret
	.cfi_endproc
.LFE9716:
	.size	_Z10countBits0i, .-_Z10countBits0i
	.align	2
	.global	_Z6getBitii
	.type	_Z6getBitii, %function
_Z6getBitii:
.LFB9717:
	.cfi_startproc
	sub	sp, sp, #16
	.cfi_def_cfa_offset 16
	str	w0, [sp, 12]
	str	w1, [sp, 8]
	ldr	w0, [sp, 8]
	ldr	w1, [sp, 12]
	asr	w0, w1, w0
	and	w0, w0, 1
	add	sp, sp, 16
	.cfi_def_cfa_offset 0
	ret
	.cfi_endproc
.LFE9717:
	.size	_Z6getBitii, .-_Z6getBitii
	.align	2
	.global	_Z7setBit1ii
	.type	_Z7setBit1ii, %function
_Z7setBit1ii:
.LFB9718:
	.cfi_startproc
	sub	sp, sp, #16
	.cfi_def_cfa_offset 16
	str	w0, [sp, 12]
	str	w1, [sp, 8]
	ldr	w0, [sp, 8]
	mov	w1, 1
	lsl	w1, w1, w0
	ldr	w0, [sp, 12]
	orr	w0, w1, w0
	add	sp, sp, 16
	.cfi_def_cfa_offset 0
	ret
	.cfi_endproc
.LFE9718:
	.size	_Z7setBit1ii, .-_Z7setBit1ii
	.align	2
	.global	_Z7setBit0ii
	.type	_Z7setBit0ii, %function
_Z7setBit0ii:
.LFB9719:
	.cfi_startproc
	sub	sp, sp, #16
	.cfi_def_cfa_offset 16
	str	w0, [sp, 12]
	str	w1, [sp, 8]
	ldr	w0, [sp, 8]
	mov	w1, 1
	lsl	w0, w1, w0
	mvn	w1, w0
	ldr	w0, [sp, 12]
	and	w0, w1, w0
	add	sp, sp, 16
	.cfi_def_cfa_offset 0
	ret
	.cfi_endproc
.LFE9719:
	.size	_Z7setBit0ii, .-_Z7setBit0ii
	.align	2
	.global	_Z7flipBitii
	.type	_Z7flipBitii, %function
_Z7flipBitii:
.LFB9720:
	.cfi_startproc
	sub	sp, sp, #16
	.cfi_def_cfa_offset 16
	str	w0, [sp, 12]
	str	w1, [sp, 8]
	ldr	w0, [sp, 8]
	mov	w1, 1
	lsl	w1, w1, w0
	ldr	w0, [sp, 12]
	eor	w0, w1, w0
	add	sp, sp, 16
	.cfi_def_cfa_offset 0
	ret
	.cfi_endproc
.LFE9720:
	.size	_Z7flipBitii, .-_Z7flipBitii
	.align	2
	.global	_Z8powerOf2i
	.type	_Z8powerOf2i, %function
_Z8powerOf2i:
.LFB9721:
	.cfi_startproc
	sub	sp, sp, #16
	.cfi_def_cfa_offset 16
	str	w0, [sp, 12]
	ldr	w0, [sp, 12]
	sub	w1, w0, #1
	ldr	w0, [sp, 12]
	and	w0, w1, w0
	cmp	w0, 0
	cset	w0, eq
	and	w0, w0, 255
	add	sp, sp, 16
	.cfi_def_cfa_offset 0
	ret
	.cfi_endproc
.LFE9721:
	.size	_Z8powerOf2i, .-_Z8powerOf2i
	.align	2
	.global	_Z12lastBitValuei
	.type	_Z12lastBitValuei, %function
_Z12lastBitValuei:
.LFB9722:
	.cfi_startproc
	sub	sp, sp, #16
	.cfi_def_cfa_offset 16
	str	w0, [sp, 12]
	ldr	w0, [sp, 12]
	neg	w1, w0
	ldr	w0, [sp, 12]
	and	w0, w1, w0
	add	sp, sp, 16
	.cfi_def_cfa_offset 0
	ret
	.cfi_endproc
.LFE9722:
	.size	_Z12lastBitValuei, .-_Z12lastBitValuei
	.align	2
	.global	_Z16setBitsTo1Until0i
	.type	_Z16setBitsTo1Until0i, %function
_Z16setBitsTo1Until0i:
.LFB9723:
	.cfi_startproc
	stp	x29, x30, [sp, -48]!
	.cfi_def_cfa_offset 48
	.cfi_offset 29, -48
	.cfi_offset 30, -40
	mov	x29, sp
	str	w0, [sp, 28]
	ldr	w0, [sp, 28]
	cmp	w0, 0
	bne	.L93
	mov	w0, -1
	b	.L94
.L93:
	str	wzr, [sp, 44]
	b	.L95
.L96:
	ldr	w1, [sp, 44]
	ldr	w0, [sp, 28]
	bl	_Z7setBit1ii
	str	w0, [sp, 28]
	ldr	w0, [sp, 44]
	add	w0, w0, 1
	str	w0, [sp, 44]
.L95:
	ldr	w0, [sp, 44]
	ldr	w1, [sp, 28]
	asr	w0, w1, w0
	and	w0, w0, 1
	cmp	w0, 0
	beq	.L96
	ldr	w0, [sp, 28]
.L94:
	ldp	x29, x30, [sp], 48
	.cfi_restore 30
	.cfi_restore 29
	.cfi_def_cfa_offset 0
	ret
	.cfi_endproc
.LFE9723:
	.size	_Z16setBitsTo1Until0i, .-_Z16setBitsTo1Until0i
	.align	2
	.global	_Z16setBitsTo0Until1i
	.type	_Z16setBitsTo0Until1i, %function
_Z16setBitsTo0Until1i:
.LFB9724:
	.cfi_startproc
	stp	x29, x30, [sp, -48]!
	.cfi_def_cfa_offset 48
	.cfi_offset 29, -48
	.cfi_offset 30, -40
	mov	x29, sp
	str	w0, [sp, 28]
	str	wzr, [sp, 44]
	b	.L98
.L99:
	ldr	w1, [sp, 44]
	ldr	w0, [sp, 28]
	bl	_Z7setBit0ii
	str	w0, [sp, 28]
	ldr	w0, [sp, 44]
	add	w0, w0, 1
	str	w0, [sp, 44]
.L98:
	ldr	w0, [sp, 44]
	ldr	w1, [sp, 28]
	asr	w0, w1, w0
	and	w0, w0, 1
	cmp	w0, 0
	bne	.L99
	ldr	w0, [sp, 28]
	ldp	x29, x30, [sp], 48
	.cfi_restore 30
	.cfi_restore 29
	.cfi_def_cfa_offset 0
	ret
	.cfi_endproc
.LFE9724:
	.size	_Z16setBitsTo0Until1i, .-_Z16setBitsTo0Until1i
	.align	2
	.global	_Z13findFirstBit0i
	.type	_Z13findFirstBit0i, %function
_Z13findFirstBit0i:
.LFB9725:
	.cfi_startproc
	stp	x29, x30, [sp, -48]!
	.cfi_def_cfa_offset 48
	.cfi_offset 29, -48
	.cfi_offset 30, -40
	mov	x29, sp
	str	w0, [sp, 28]
	str	wzr, [sp, 44]
	b	.L102
.L103:
	ldr	w0, [sp, 44]
	add	w0, w0, 1
	str	w0, [sp, 44]
.L102:
	ldr	w1, [sp, 44]
	ldr	w0, [sp, 28]
	bl	_Z6getBitii
	cmp	w0, 0
	cset	w0, ne
	and	w0, w0, 255
	cmp	w0, 0
	bne	.L103
	ldr	w0, [sp, 44]
	ldp	x29, x30, [sp], 48
	.cfi_restore 30
	.cfi_restore 29
	.cfi_def_cfa_offset 0
	ret
	.cfi_endproc
.LFE9725:
	.size	_Z13findFirstBit0i, .-_Z13findFirstBit0i
	.align	2
	.global	_Z13findFirstBit1i
	.type	_Z13findFirstBit1i, %function
_Z13findFirstBit1i:
.LFB9726:
	.cfi_startproc
	stp	x29, x30, [sp, -48]!
	.cfi_def_cfa_offset 48
	.cfi_offset 29, -48
	.cfi_offset 30, -40
	mov	x29, sp
	str	w0, [sp, 28]
	str	wzr, [sp, 44]
	b	.L106
.L107:
	ldr	w0, [sp, 44]
	add	w0, w0, 1
	str	w0, [sp, 44]
.L106:
	ldr	w1, [sp, 44]
	ldr	w0, [sp, 28]
	bl	_Z6getBitii
	cmp	w0, 0
	cset	w0, eq
	and	w0, w0, 255
	cmp	w0, 0
	bne	.L107
	ldr	w0, [sp, 44]
	ldp	x29, x30, [sp], 48
	.cfi_restore 30
	.cfi_restore 29
	.cfi_def_cfa_offset 0
	ret
	.cfi_endproc
.LFE9726:
	.size	_Z13findFirstBit1i, .-_Z13findFirstBit1i
	.align	2
	.global	_Z7compareRSt4pairINSt7__cxx1112basic_stringIcSt11char_traitsIcESaIcEEEiES7_
	.type	_Z7compareRSt4pairINSt7__cxx1112basic_stringIcSt11char_traitsIcESaIcEEEiES7_, %function
_Z7compareRSt4pairINSt7__cxx1112basic_stringIcSt11char_traitsIcESaIcEEEiES7_:
.LFB9727:
	.cfi_startproc
	stp	x29, x30, [sp, -32]!
	.cfi_def_cfa_offset 32
	.cfi_offset 29, -32
	.cfi_offset 30, -24
	mov	x29, sp
	str	x0, [sp, 24]
	str	x1, [sp, 16]
	ldr	x0, [sp, 24]
	ldr	w1, [x0, 32]
	ldr	x0, [sp, 16]
	ldr	w0, [x0, 32]
	cmp	w1, w0
	beq	.L110
	ldr	x0, [sp, 24]
	ldr	w1, [x0, 32]
	ldr	x0, [sp, 16]
	ldr	w0, [x0, 32]
	cmp	w1, w0
	cset	w0, gt
	and	w0, w0, 255
	b	.L111
.L110:
	ldr	x0, [sp, 24]
	ldr	x1, [sp, 16]
	bl	_ZStltIcSt11char_traitsIcESaIcEEbRKNSt7__cxx1112basic_stringIT_T0_T1_EESA_
	and	w0, w0, 255
	nop
.L111:
	ldp	x29, x30, [sp], 32
	.cfi_restore 30
	.cfi_restore 29
	.cfi_def_cfa_offset 0
	ret
	.cfi_endproc
.LFE9727:
	.size	_Z7compareRSt4pairINSt7__cxx1112basic_stringIcSt11char_traitsIcESaIcEEEiES7_, .-_Z7compareRSt4pairINSt7__cxx1112basic_stringIcSt11char_traitsIcESaIcEEEiES7_
	.section	.rodata
	.align	3
.LC0:
	.string	" "
	.align	3
.LC1:
	.string	"\n"
	.text
	.align	2
	.global	main
	.type	main, %function
main:
.LFB9730:
	.cfi_startproc
	.cfi_personality 0x9b,DW.ref.__gxx_personality_v0
	.cfi_lsda 0x1b,.LLSDA9730
	stp	x29, x30, [sp, -80]!
	.cfi_def_cfa_offset 80
	.cfi_offset 29, -80
	.cfi_offset 30, -72
	mov	x29, sp
	str	x19, [sp, 16]
	.cfi_offset 19, -64
	mov	w0, 0
.LEHB3:
	bl	_ZNSt8ios_base15sync_with_stdioEb
	mov	x1, 0
	adrp	x0, :got:_ZSt3cin
	ldr	x0, [x0, #:got_lo12:_ZSt3cin]
	add	x0, x0, 16
	bl	_ZNSt9basic_iosIcSt11char_traitsIcEE3tieEPSo
	mov	x1, 0
	adrp	x0, :got:_ZSt4cout
	ldr	x0, [x0, #:got_lo12:_ZSt4cout]
	add	x0, x0, 8
	bl	_ZNSt9basic_iosIcSt11char_traitsIcEE3tieEPSo
	add	x0, sp, 60
	mov	x1, x0
	adrp	x0, :got:_ZSt3cin
	ldr	x0, [x0, #:got_lo12:_ZSt3cin]
	bl	_ZNSirsERi
.LEHE3:
	ldr	w0, [sp, 60]
	sxtw	x19, w0
	add	x0, sp, 64
	bl	_ZNSaISt4pairINSt7__cxx1112basic_stringIcSt11char_traitsIcESaIcEEEiEEC1Ev
	add	x1, sp, 64
	add	x0, sp, 32
	mov	x2, x1
	mov	x1, x19
.LEHB4:
	bl	_ZNSt6vectorISt4pairINSt7__cxx1112basic_stringIcSt11char_traitsIcESaIcEEEiESaIS7_EEC1EmRKS8_
.LEHE4:
	add	x0, sp, 64
	bl	_ZNSaISt4pairINSt7__cxx1112basic_stringIcSt11char_traitsIcESaIcEEEiEED1Ev
	str	wzr, [sp, 76]
	b	.L113
.L114:
	ldrsw	x1, [sp, 76]
	add	x0, sp, 32
	bl	_ZNSt6vectorISt4pairINSt7__cxx1112basic_stringIcSt11char_traitsIcESaIcEEEiESaIS7_EEixEm
	mov	x1, x0
	adrp	x0, :got:_ZSt3cin
	ldr	x0, [x0, #:got_lo12:_ZSt3cin]
.LEHB5:
	bl	_ZStrsIcSt11char_traitsIcESaIcEERSt13basic_istreamIT_T0_ES7_RNSt7__cxx1112basic_stringIS4_S5_T1_EE
	mov	x19, x0
	ldrsw	x1, [sp, 76]
	add	x0, sp, 32
	bl	_ZNSt6vectorISt4pairINSt7__cxx1112basic_stringIcSt11char_traitsIcESaIcEEEiESaIS7_EEixEm
	add	x0, x0, 32
	mov	x1, x0
	mov	x0, x19
	bl	_ZNSirsERi
	ldr	w0, [sp, 76]
	add	w0, w0, 1
	str	w0, [sp, 76]
.L113:
	ldr	w0, [sp, 60]
	ldr	w1, [sp, 76]
	cmp	w1, w0
	blt	.L114
	add	x0, sp, 32
	bl	_ZNSt6vectorISt4pairINSt7__cxx1112basic_stringIcSt11char_traitsIcESaIcEEEiESaIS7_EE5beginEv
	mov	x19, x0
	add	x0, sp, 32
	bl	_ZNSt6vectorISt4pairINSt7__cxx1112basic_stringIcSt11char_traitsIcESaIcEEEiESaIS7_EE3endEv
	mov	x1, x0
	adrp	x0, _Z7compareRSt4pairINSt7__cxx1112basic_stringIcSt11char_traitsIcESaIcEEEiES7_
	add	x2, x0, :lo12:_Z7compareRSt4pairINSt7__cxx1112basic_stringIcSt11char_traitsIcESaIcEEEiES7_
	mov	x0, x19
	bl	_ZSt4sortIN9__gnu_cxx17__normal_iteratorIPSt4pairINSt7__cxx1112basic_stringIcSt11char_traitsIcESaIcEEEiESt6vectorIS9_SaIS9_EEEEPFbRS9_SF_EEvT_SI_T0_
	str	wzr, [sp, 72]
	b	.L115
.L116:
	ldrsw	x1, [sp, 72]
	add	x0, sp, 32
	bl	_ZNSt6vectorISt4pairINSt7__cxx1112basic_stringIcSt11char_traitsIcESaIcEEEiESaIS7_EEixEm
	mov	x1, x0
	adrp	x0, :got:_ZSt4cout
	ldr	x0, [x0, #:got_lo12:_ZSt4cout]
	bl	_ZStlsIcSt11char_traitsIcESaIcEERSt13basic_ostreamIT_T0_ES7_RKNSt7__cxx1112basic_stringIS4_S5_T1_EE
	mov	x2, x0
	adrp	x0, .LC0
	add	x1, x0, :lo12:.LC0
	mov	x0, x2
	bl	_ZStlsISt11char_traitsIcEERSt13basic_ostreamIcT_ES5_PKc
	mov	x19, x0
	ldrsw	x1, [sp, 72]
	add	x0, sp, 32
	bl	_ZNSt6vectorISt4pairINSt7__cxx1112basic_stringIcSt11char_traitsIcESaIcEEEiESaIS7_EEixEm
	ldr	w0, [x0, 32]
	mov	w1, w0
	mov	x0, x19
	bl	_ZNSolsEi
	mov	x2, x0
	adrp	x0, .LC1
	add	x1, x0, :lo12:.LC1
	mov	x0, x2
	bl	_ZStlsISt11char_traitsIcEERSt13basic_ostreamIcT_ES5_PKc
.LEHE5:
	ldr	w0, [sp, 72]
	add	w0, w0, 1
	str	w0, [sp, 72]
.L115:
	ldr	w0, [sp, 60]
	ldr	w1, [sp, 72]
	cmp	w1, w0
	blt	.L116
	add	x0, sp, 32
	bl	_ZNSt6vectorISt4pairINSt7__cxx1112basic_stringIcSt11char_traitsIcESaIcEEEiESaIS7_EED1Ev
	mov	w0, 0
	b	.L122
.L120:
	mov	x19, x0
	add	x0, sp, 64
	bl	_ZNSaISt4pairINSt7__cxx1112basic_stringIcSt11char_traitsIcESaIcEEEiEED1Ev
	mov	x0, x19
.LEHB6:
	bl	_Unwind_Resume
.L121:
	mov	x19, x0
	add	x0, sp, 32
	bl	_ZNSt6vectorISt4pairINSt7__cxx1112basic_stringIcSt11char_traitsIcESaIcEEEiESaIS7_EED1Ev
	mov	x0, x19
	bl	_Unwind_Resume
.LEHE6:
.L122:
	ldr	x19, [sp, 16]
	ldp	x29, x30, [sp], 80
	.cfi_restore 30
	.cfi_restore 29
	.cfi_restore 19
	.cfi_def_cfa_offset 0
	ret
	.cfi_endproc
.LFE9730:
	.section	.gcc_except_table
.LLSDA9730:
	.byte	0xff
	.byte	0xff
	.byte	0x1
	.uleb128 .LLSDACSE9730-.LLSDACSB9730
.LLSDACSB9730:
	.uleb128 .LEHB3-.LFB9730
	.uleb128 .LEHE3-.LEHB3
	.uleb128 0
	.uleb128 0
	.uleb128 .LEHB4-.LFB9730
	.uleb128 .LEHE4-.LEHB4
	.uleb128 .L120-.LFB9730
	.uleb128 0
	.uleb128 .LEHB5-.LFB9730
	.uleb128 .LEHE5-.LEHB5
	.uleb128 .L121-.LFB9730
	.uleb128 0
	.uleb128 .LEHB6-.LFB9730
	.uleb128 .LEHE6-.LEHB6
	.uleb128 0
	.uleb128 0
.LLSDACSE9730:
	.text
	.size	main, .-main
	.section	.text._ZSt3maxImERKT_S2_S2_,"axG",@progbits,_ZSt3maxImERKT_S2_S2_,comdat
	.align	2
	.weak	_ZSt3maxImERKT_S2_S2_
	.type	_ZSt3maxImERKT_S2_S2_, %function
_ZSt3maxImERKT_S2_S2_:
.LFB10042:
	.cfi_startproc
	sub	sp, sp, #16
	.cfi_def_cfa_offset 16
	str	x0, [sp, 8]
	str	x1, [sp]
	ldr	x0, [sp, 8]
	ldr	x1, [x0]
	ldr	x0, [sp]
	ldr	x0, [x0]
	cmp	x1, x0
	bcs	.L124
	ldr	x0, [sp]
	b	.L125
.L124:
	ldr	x0, [sp, 8]
.L125:
	add	sp, sp, 16
	.cfi_def_cfa_offset 0
	ret
	.cfi_endproc
.LFE10042:
	.size	_ZSt3maxImERKT_S2_S2_, .-_ZSt3maxImERKT_S2_S2_
	.section	.text._ZSt7forwardIiEOT_RNSt16remove_referenceIS0_E4typeE,"axG",@progbits,_ZSt7forwardIiEOT_RNSt16remove_referenceIS0_E4typeE,comdat
	.align	2
	.weak	_ZSt7forwardIiEOT_RNSt16remove_referenceIS0_E4typeE
	.type	_ZSt7forwardIiEOT_RNSt16remove_referenceIS0_E4typeE, %function
_ZSt7forwardIiEOT_RNSt16remove_referenceIS0_E4typeE:
.LFB10047:
	.cfi_startproc
	sub	sp, sp, #16
	.cfi_def_cfa_offset 16
	str	x0, [sp, 8]
	ldr	x0, [sp, 8]
	add	sp, sp, 16
	.cfi_def_cfa_offset 0
	ret
	.cfi_endproc
.LFE10047:
	.size	_ZSt7forwardIiEOT_RNSt16remove_referenceIS0_E4typeE, .-_ZSt7forwardIiEOT_RNSt16remove_referenceIS0_E4typeE
	.section	.text._ZNSt12_Vector_baseIxSaIxEE12_Vector_implC2Ev,"axG",@progbits,_ZNSt12_Vector_baseIxSaIxEE12_Vector_implC5Ev,comdat
	.align	2
	.weak	_ZNSt12_Vector_baseIxSaIxEE12_Vector_implC2Ev
	.type	_ZNSt12_Vector_baseIxSaIxEE12_Vector_implC2Ev, %function
_ZNSt12_Vector_baseIxSaIxEE12_Vector_implC2Ev:
.LFB10419:
	.cfi_startproc
	stp	x29, x30, [sp, -32]!
	.cfi_def_cfa_offset 32
	.cfi_offset 29, -32
	.cfi_offset 30, -24
	mov	x29, sp
	str	x0, [sp, 24]
	ldr	x0, [sp, 24]
	bl	_ZNSaIxEC2Ev
	ldr	x0, [sp, 24]
	bl	_ZNSt12_Vector_baseIxSaIxEE17_Vector_impl_dataC2Ev
	nop
	ldp	x29, x30, [sp], 32
	.cfi_restore 30
	.cfi_restore 29
	.cfi_def_cfa_offset 0
	ret
	.cfi_endproc
.LFE10419:
	.size	_ZNSt12_Vector_baseIxSaIxEE12_Vector_implC2Ev, .-_ZNSt12_Vector_baseIxSaIxEE12_Vector_implC2Ev
	.weak	_ZNSt12_Vector_baseIxSaIxEE12_Vector_implC1Ev
	.set	_ZNSt12_Vector_baseIxSaIxEE12_Vector_implC1Ev,_ZNSt12_Vector_baseIxSaIxEE12_Vector_implC2Ev
	.section	.text._ZNSaIxED2Ev,"axG",@progbits,_ZNSaIxED5Ev,comdat
	.align	2
	.weak	_ZNSaIxED2Ev
	.type	_ZNSaIxED2Ev, %function
_ZNSaIxED2Ev:
.LFB10422:
	.cfi_startproc
	stp	x29, x30, [sp, -32]!
	.cfi_def_cfa_offset 32
	.cfi_offset 29, -32
	.cfi_offset 30, -24
	mov	x29, sp
	str	x0, [sp, 24]
	ldr	x0, [sp, 24]
	bl	_ZN9__gnu_cxx13new_allocatorIxED2Ev
	nop
	ldp	x29, x30, [sp], 32
	.cfi_restore 30
	.cfi_restore 29
	.cfi_def_cfa_offset 0
	ret
	.cfi_endproc
.LFE10422:
	.size	_ZNSaIxED2Ev, .-_ZNSaIxED2Ev
	.weak	_ZNSaIxED1Ev
	.set	_ZNSaIxED1Ev,_ZNSaIxED2Ev
	.section	.text._ZNSt12_Vector_baseIxSaIxEED2Ev,"axG",@progbits,_ZNSt12_Vector_baseIxSaIxEED5Ev,comdat
	.align	2
	.weak	_ZNSt12_Vector_baseIxSaIxEED2Ev
	.type	_ZNSt12_Vector_baseIxSaIxEED2Ev, %function
_ZNSt12_Vector_baseIxSaIxEED2Ev:
.LFB10425:
	.cfi_startproc
	.cfi_personality 0x9b,DW.ref.__gxx_personality_v0
	.cfi_lsda 0x1b,.LLSDA10425
	stp	x29, x30, [sp, -32]!
	.cfi_def_cfa_offset 32
	.cfi_offset 29, -32
	.cfi_offset 30, -24
	mov	x29, sp
	str	x0, [sp, 24]
	ldr	x0, [sp, 24]
	ldr	x3, [x0]
	ldr	x0, [sp, 24]
	ldr	x1, [x0, 16]
	ldr	x0, [sp, 24]
	ldr	x0, [x0]
	sub	x0, x1, x0
	asr	x0, x0, 3
	mov	x2, x0
	mov	x1, x3
	ldr	x0, [sp, 24]
	bl	_ZNSt12_Vector_baseIxSaIxEE13_M_deallocateEPxm
	ldr	x0, [sp, 24]
	bl	_ZNSt12_Vector_baseIxSaIxEE12_Vector_implD1Ev
	nop
	ldp	x29, x30, [sp], 32
	.cfi_restore 30
	.cfi_restore 29
	.cfi_def_cfa_offset 0
	ret
	.cfi_endproc
.LFE10425:
	.section	.gcc_except_table
.LLSDA10425:
	.byte	0xff
	.byte	0xff
	.byte	0x1
	.uleb128 .LLSDACSE10425-.LLSDACSB10425
.LLSDACSB10425:
.LLSDACSE10425:
	.section	.text._ZNSt12_Vector_baseIxSaIxEED2Ev,"axG",@progbits,_ZNSt12_Vector_baseIxSaIxEED5Ev,comdat
	.size	_ZNSt12_Vector_baseIxSaIxEED2Ev, .-_ZNSt12_Vector_baseIxSaIxEED2Ev
	.weak	_ZNSt12_Vector_baseIxSaIxEED1Ev
	.set	_ZNSt12_Vector_baseIxSaIxEED1Ev,_ZNSt12_Vector_baseIxSaIxEED2Ev
	.section	.text._ZNSt6vectorIxSaIxEE9push_backEOx,"axG",@progbits,_ZNSt6vectorIxSaIxEE9push_backEOx,comdat
	.align	2
	.weak	_ZNSt6vectorIxSaIxEE9push_backEOx
	.type	_ZNSt6vectorIxSaIxEE9push_backEOx, %function
_ZNSt6vectorIxSaIxEE9push_backEOx:
.LFB10427:
	.cfi_startproc
	stp	x29, x30, [sp, -32]!
	.cfi_def_cfa_offset 32
	.cfi_offset 29, -32
	.cfi_offset 30, -24
	mov	x29, sp
	str	x0, [sp, 24]
	str	x1, [sp, 16]
	ldr	x0, [sp, 16]
	bl	_ZSt4moveIRxEONSt16remove_referenceIT_E4typeEOS2_
	mov	x1, x0
	ldr	x0, [sp, 24]
	bl	_ZNSt6vectorIxSaIxEE12emplace_backIJxEEERxDpOT_
	nop
	ldp	x29, x30, [sp], 32
	.cfi_restore 30
	.cfi_restore 29
	.cfi_def_cfa_offset 0
	ret
	.cfi_endproc
.LFE10427:
	.size	_ZNSt6vectorIxSaIxEE9push_backEOx, .-_ZNSt6vectorIxSaIxEE9push_backEOx
	.section	.text._ZNKSt6vectorIxSaIxEE4sizeEv,"axG",@progbits,_ZNKSt6vectorIxSaIxEE4sizeEv,comdat
	.align	2
	.weak	_ZNKSt6vectorIxSaIxEE4sizeEv
	.type	_ZNKSt6vectorIxSaIxEE4sizeEv, %function
_ZNKSt6vectorIxSaIxEE4sizeEv:
.LFB10428:
	.cfi_startproc
	sub	sp, sp, #16
	.cfi_def_cfa_offset 16
	str	x0, [sp, 8]
	ldr	x0, [sp, 8]
	ldr	x1, [x0, 8]
	ldr	x0, [sp, 8]
	ldr	x0, [x0]
	sub	x0, x1, x0
	asr	x0, x0, 3
	add	sp, sp, 16
	.cfi_def_cfa_offset 0
	ret
	.cfi_endproc
.LFE10428:
	.size	_ZNKSt6vectorIxSaIxEE4sizeEv, .-_ZNKSt6vectorIxSaIxEE4sizeEv
	.section	.text._ZNSt6vectorIxSaIxEEixEm,"axG",@progbits,_ZNSt6vectorIxSaIxEEixEm,comdat
	.align	2
	.weak	_ZNSt6vectorIxSaIxEEixEm
	.type	_ZNSt6vectorIxSaIxEEixEm, %function
_ZNSt6vectorIxSaIxEEixEm:
.LFB10429:
	.cfi_startproc
	sub	sp, sp, #16
	.cfi_def_cfa_offset 16
	str	x0, [sp, 8]
	str	x1, [sp]
	ldr	x0, [sp, 8]
	ldr	x1, [x0]
	ldr	x0, [sp]
	lsl	x0, x0, 3
	add	x0, x1, x0
	add	sp, sp, 16
	.cfi_def_cfa_offset 0
	ret
	.cfi_endproc
.LFE10429:
	.size	_ZNSt6vectorIxSaIxEEixEm, .-_ZNSt6vectorIxSaIxEEixEm
	.section	.text._ZSt4sqrtIiEN9__gnu_cxx11__enable_ifIXsrSt12__is_integerIT_E7__valueEdE6__typeES3_,"axG",@progbits,_ZSt4sqrtIiEN9__gnu_cxx11__enable_ifIXsrSt12__is_integerIT_E7__valueEdE6__typeES3_,comdat
	.align	2
	.weak	_ZSt4sqrtIiEN9__gnu_cxx11__enable_ifIXsrSt12__is_integerIT_E7__valueEdE6__typeES3_
	.type	_ZSt4sqrtIiEN9__gnu_cxx11__enable_ifIXsrSt12__is_integerIT_E7__valueEdE6__typeES3_, %function
_ZSt4sqrtIiEN9__gnu_cxx11__enable_ifIXsrSt12__is_integerIT_E7__valueEdE6__typeES3_:
.LFB10430:
	.cfi_startproc
	stp	x29, x30, [sp, -32]!
	.cfi_def_cfa_offset 32
	.cfi_offset 29, -32
	.cfi_offset 30, -24
	mov	x29, sp
	str	w0, [sp, 28]
	ldr	w0, [sp, 28]
	scvtf	d0, w0
	bl	sqrt
	ldp	x29, x30, [sp], 32
	.cfi_restore 30
	.cfi_restore 29
	.cfi_def_cfa_offset 0
	ret
	.cfi_endproc
.LFE10430:
	.size	_ZSt4sqrtIiEN9__gnu_cxx11__enable_ifIXsrSt12__is_integerIT_E7__valueEdE6__typeES3_, .-_ZSt4sqrtIiEN9__gnu_cxx11__enable_ifIXsrSt12__is_integerIT_E7__valueEdE6__typeES3_
	.section	.text._ZSt7reverseIN9__gnu_cxx17__normal_iteratorIPcNSt7__cxx1112basic_stringIcSt11char_traitsIcESaIcEEEEEEvT_SA_,"axG",@progbits,_ZSt7reverseIN9__gnu_cxx17__normal_iteratorIPcNSt7__cxx1112basic_stringIcSt11char_traitsIcESaIcEEEEEEvT_SA_,comdat
	.align	2
	.weak	_ZSt7reverseIN9__gnu_cxx17__normal_iteratorIPcNSt7__cxx1112basic_stringIcSt11char_traitsIcESaIcEEEEEEvT_SA_
	.type	_ZSt7reverseIN9__gnu_cxx17__normal_iteratorIPcNSt7__cxx1112basic_stringIcSt11char_traitsIcESaIcEEEEEEvT_SA_, %function
_ZSt7reverseIN9__gnu_cxx17__normal_iteratorIPcNSt7__cxx1112basic_stringIcSt11char_traitsIcESaIcEEEEEEvT_SA_:
.LFB10433:
	.cfi_startproc
	stp	x29, x30, [sp, -48]!
	.cfi_def_cfa_offset 48
	.cfi_offset 29, -48
	.cfi_offset 30, -40
	mov	x29, sp
	str	x19, [sp, 16]
	.cfi_offset 19, -32
	str	x0, [sp, 40]
	str	x1, [sp, 32]
	add	x0, sp, 40
	bl	_ZSt19__iterator_categoryIN9__gnu_cxx17__normal_iteratorIPcNSt7__cxx1112basic_stringIcSt11char_traitsIcESaIcEEEEEENSt15iterator_traitsIT_E17iterator_categoryERKSB_
	mov	w2, w19
	ldr	x1, [sp, 32]
	ldr	x0, [sp, 40]
	bl	_ZSt9__reverseIN9__gnu_cxx17__normal_iteratorIPcNSt7__cxx1112basic_stringIcSt11char_traitsIcESaIcEEEEEEvT_SA_St26random_access_iterator_tag
	nop
	ldr	x19, [sp, 16]
	ldp	x29, x30, [sp], 48
	.cfi_restore 30
	.cfi_restore 29
	.cfi_restore 19
	.cfi_def_cfa_offset 0
	ret
	.cfi_endproc
.LFE10433:
	.size	_ZSt7reverseIN9__gnu_cxx17__normal_iteratorIPcNSt7__cxx1112basic_stringIcSt11char_traitsIcESaIcEEEEEEvT_SA_, .-_ZSt7reverseIN9__gnu_cxx17__normal_iteratorIPcNSt7__cxx1112basic_stringIcSt11char_traitsIcESaIcEEEEEEvT_SA_
	.section	.text._ZSteqIcEN9__gnu_cxx11__enable_ifIXsrSt9__is_charIT_E7__valueEbE6__typeERKNSt7__cxx1112basic_stringIS3_St11char_traitsIS3_ESaIS3_EEESE_,"axG",@progbits,_ZSteqIcEN9__gnu_cxx11__enable_ifIXsrSt9__is_charIT_E7__valueEbE6__typeERKNSt7__cxx1112basic_stringIS3_St11char_traitsIS3_ESaIS3_EEESE_,comdat
	.align	2
	.weak	_ZSteqIcEN9__gnu_cxx11__enable_ifIXsrSt9__is_charIT_E7__valueEbE6__typeERKNSt7__cxx1112basic_stringIS3_St11char_traitsIS3_ESaIS3_EEESE_
	.type	_ZSteqIcEN9__gnu_cxx11__enable_ifIXsrSt9__is_charIT_E7__valueEbE6__typeERKNSt7__cxx1112basic_stringIS3_St11char_traitsIS3_ESaIS3_EEESE_, %function
_ZSteqIcEN9__gnu_cxx11__enable_ifIXsrSt9__is_charIT_E7__valueEbE6__typeERKNSt7__cxx1112basic_stringIS3_St11char_traitsIS3_ESaIS3_EEESE_:
.LFB10434:
	.cfi_startproc
	stp	x29, x30, [sp, -48]!
	.cfi_def_cfa_offset 48
	.cfi_offset 29, -48
	.cfi_offset 30, -40
	mov	x29, sp
	stp	x19, x20, [sp, 16]
	.cfi_offset 19, -32
	.cfi_offset 20, -24
	str	x0, [sp, 40]
	str	x1, [sp, 32]
	ldr	x0, [sp, 40]
	bl	_ZNKSt7__cxx1112basic_stringIcSt11char_traitsIcESaIcEE4sizeEv
	mov	x19, x0
	ldr	x0, [sp, 32]
	bl	_ZNKSt7__cxx1112basic_stringIcSt11char_traitsIcESaIcEE4sizeEv
	cmp	x19, x0
	bne	.L140
	ldr	x0, [sp, 40]
	bl	_ZNKSt7__cxx1112basic_stringIcSt11char_traitsIcESaIcEE4dataEv
	mov	x19, x0
	ldr	x0, [sp, 32]
	bl	_ZNKSt7__cxx1112basic_stringIcSt11char_traitsIcESaIcEE4dataEv
	mov	x20, x0
	ldr	x0, [sp, 40]
	bl	_ZNKSt7__cxx1112basic_stringIcSt11char_traitsIcESaIcEE4sizeEv
	mov	x2, x0
	mov	x1, x20
	mov	x0, x19
	bl	_ZNSt11char_traitsIcE7compareEPKcS2_m
	cmp	w0, 0
	bne	.L140
	mov	w0, 1
	b	.L141
.L140:
	mov	w0, 0
.L141:
	ldp	x19, x20, [sp, 16]
	ldp	x29, x30, [sp], 48
	.cfi_restore 30
	.cfi_restore 29
	.cfi_restore 19
	.cfi_restore 20
	.cfi_def_cfa_offset 0
	ret
	.cfi_endproc
.LFE10434:
	.size	_ZSteqIcEN9__gnu_cxx11__enable_ifIXsrSt9__is_charIT_E7__valueEbE6__typeERKNSt7__cxx1112basic_stringIS3_St11char_traitsIS3_ESaIS3_EEESE_, .-_ZSteqIcEN9__gnu_cxx11__enable_ifIXsrSt9__is_charIT_E7__valueEbE6__typeERKNSt7__cxx1112basic_stringIS3_St11char_traitsIS3_ESaIS3_EEESE_
	.section	.text._ZNSt6vectorIiSaIiEEixEm,"axG",@progbits,_ZNSt6vectorIiSaIiEEixEm,comdat
	.align	2
	.weak	_ZNSt6vectorIiSaIiEEixEm
	.type	_ZNSt6vectorIiSaIiEEixEm, %function
_ZNSt6vectorIiSaIiEEixEm:
.LFB10435:
	.cfi_startproc
	sub	sp, sp, #16
	.cfi_def_cfa_offset 16
	str	x0, [sp, 8]
	str	x1, [sp]
	ldr	x0, [sp, 8]
	ldr	x1, [x0]
	ldr	x0, [sp]
	lsl	x0, x0, 2
	add	x0, x1, x0
	add	sp, sp, 16
	.cfi_def_cfa_offset 0
	ret
	.cfi_endproc
.LFE10435:
	.size	_ZNSt6vectorIiSaIiEEixEm, .-_ZNSt6vectorIiSaIiEEixEm
	.section	.text._ZStltIcSt11char_traitsIcESaIcEEbRKNSt7__cxx1112basic_stringIT_T0_T1_EESA_,"axG",@progbits,_ZStltIcSt11char_traitsIcESaIcEEbRKNSt7__cxx1112basic_stringIT_T0_T1_EESA_,comdat
	.align	2
	.weak	_ZStltIcSt11char_traitsIcESaIcEEbRKNSt7__cxx1112basic_stringIT_T0_T1_EESA_
	.type	_ZStltIcSt11char_traitsIcESaIcEEbRKNSt7__cxx1112basic_stringIT_T0_T1_EESA_, %function
_ZStltIcSt11char_traitsIcESaIcEEbRKNSt7__cxx1112basic_stringIT_T0_T1_EESA_:
.LFB10436:
	.cfi_startproc
	.cfi_personality 0x9b,DW.ref.__gxx_personality_v0
	.cfi_lsda 0x1b,.LLSDA10436
	stp	x29, x30, [sp, -32]!
	.cfi_def_cfa_offset 32
	.cfi_offset 29, -32
	.cfi_offset 30, -24
	mov	x29, sp
	str	x0, [sp, 24]
	str	x1, [sp, 16]
	ldr	x1, [sp, 16]
	ldr	x0, [sp, 24]
	bl	_ZNKSt7__cxx1112basic_stringIcSt11char_traitsIcESaIcEE7compareERKS4_
	lsr	w0, w0, 31
	and	w0, w0, 255
	ldp	x29, x30, [sp], 32
	.cfi_restore 30
	.cfi_restore 29
	.cfi_def_cfa_offset 0
	ret
	.cfi_endproc
.LFE10436:
	.section	.gcc_except_table
.LLSDA10436:
	.byte	0xff
	.byte	0xff
	.byte	0x1
	.uleb128 .LLSDACSE10436-.LLSDACSB10436
.LLSDACSB10436:
.LLSDACSE10436:
	.section	.text._ZStltIcSt11char_traitsIcESaIcEEbRKNSt7__cxx1112basic_stringIT_T0_T1_EESA_,"axG",@progbits,_ZStltIcSt11char_traitsIcESaIcEEbRKNSt7__cxx1112basic_stringIT_T0_T1_EESA_,comdat
	.size	_ZStltIcSt11char_traitsIcESaIcEEbRKNSt7__cxx1112basic_stringIT_T0_T1_EESA_, .-_ZStltIcSt11char_traitsIcESaIcEEbRKNSt7__cxx1112basic_stringIT_T0_T1_EESA_
	.section	.text._ZNSaISt4pairINSt7__cxx1112basic_stringIcSt11char_traitsIcESaIcEEEiEEC2Ev,"axG",@progbits,_ZNSaISt4pairINSt7__cxx1112basic_stringIcSt11char_traitsIcESaIcEEEiEEC5Ev,comdat
	.align	2
	.weak	_ZNSaISt4pairINSt7__cxx1112basic_stringIcSt11char_traitsIcESaIcEEEiEEC2Ev
	.type	_ZNSaISt4pairINSt7__cxx1112basic_stringIcSt11char_traitsIcESaIcEEEiEEC2Ev, %function
_ZNSaISt4pairINSt7__cxx1112basic_stringIcSt11char_traitsIcESaIcEEEiEEC2Ev:
.LFB10439:
	.cfi_startproc
	stp	x29, x30, [sp, -32]!
	.cfi_def_cfa_offset 32
	.cfi_offset 29, -32
	.cfi_offset 30, -24
	mov	x29, sp
	str	x0, [sp, 24]
	ldr	x0, [sp, 24]
	bl	_ZN9__gnu_cxx13new_allocatorISt4pairINSt7__cxx1112basic_stringIcSt11char_traitsIcESaIcEEEiEEC2Ev
	nop
	ldp	x29, x30, [sp], 32
	.cfi_restore 30
	.cfi_restore 29
	.cfi_def_cfa_offset 0
	ret
	.cfi_endproc
.LFE10439:
	.size	_ZNSaISt4pairINSt7__cxx1112basic_stringIcSt11char_traitsIcESaIcEEEiEEC2Ev, .-_ZNSaISt4pairINSt7__cxx1112basic_stringIcSt11char_traitsIcESaIcEEEiEEC2Ev
	.weak	_ZNSaISt4pairINSt7__cxx1112basic_stringIcSt11char_traitsIcESaIcEEEiEEC1Ev
	.set	_ZNSaISt4pairINSt7__cxx1112basic_stringIcSt11char_traitsIcESaIcEEEiEEC1Ev,_ZNSaISt4pairINSt7__cxx1112basic_stringIcSt11char_traitsIcESaIcEEEiEEC2Ev
	.section	.text._ZNSaISt4pairINSt7__cxx1112basic_stringIcSt11char_traitsIcESaIcEEEiEED2Ev,"axG",@progbits,_ZNSaISt4pairINSt7__cxx1112basic_stringIcSt11char_traitsIcESaIcEEEiEED5Ev,comdat
	.align	2
	.weak	_ZNSaISt4pairINSt7__cxx1112basic_stringIcSt11char_traitsIcESaIcEEEiEED2Ev
	.type	_ZNSaISt4pairINSt7__cxx1112basic_stringIcSt11char_traitsIcESaIcEEEiEED2Ev, %function
_ZNSaISt4pairINSt7__cxx1112basic_stringIcSt11char_traitsIcESaIcEEEiEED2Ev:
.LFB10442:
	.cfi_startproc
	stp	x29, x30, [sp, -32]!
	.cfi_def_cfa_offset 32
	.cfi_offset 29, -32
	.cfi_offset 30, -24
	mov	x29, sp
	str	x0, [sp, 24]
	ldr	x0, [sp, 24]
	bl	_ZN9__gnu_cxx13new_allocatorISt4pairINSt7__cxx1112basic_stringIcSt11char_traitsIcESaIcEEEiEED2Ev
	nop
	ldp	x29, x30, [sp], 32
	.cfi_restore 30
	.cfi_restore 29
	.cfi_def_cfa_offset 0
	ret
	.cfi_endproc
.LFE10442:
	.size	_ZNSaISt4pairINSt7__cxx1112basic_stringIcSt11char_traitsIcESaIcEEEiEED2Ev, .-_ZNSaISt4pairINSt7__cxx1112basic_stringIcSt11char_traitsIcESaIcEEEiEED2Ev
	.weak	_ZNSaISt4pairINSt7__cxx1112basic_stringIcSt11char_traitsIcESaIcEEEiEED1Ev
	.set	_ZNSaISt4pairINSt7__cxx1112basic_stringIcSt11char_traitsIcESaIcEEEiEED1Ev,_ZNSaISt4pairINSt7__cxx1112basic_stringIcSt11char_traitsIcESaIcEEEiEED2Ev
	.section	.text._ZNSt6vectorISt4pairINSt7__cxx1112basic_stringIcSt11char_traitsIcESaIcEEEiESaIS7_EEC2EmRKS8_,"axG",@progbits,_ZNSt6vectorISt4pairINSt7__cxx1112basic_stringIcSt11char_traitsIcESaIcEEEiESaIS7_EEC5EmRKS8_,comdat
	.align	2
	.weak	_ZNSt6vectorISt4pairINSt7__cxx1112basic_stringIcSt11char_traitsIcESaIcEEEiESaIS7_EEC2EmRKS8_
	.type	_ZNSt6vectorISt4pairINSt7__cxx1112basic_stringIcSt11char_traitsIcESaIcEEEiESaIS7_EEC2EmRKS8_, %function
_ZNSt6vectorISt4pairINSt7__cxx1112basic_stringIcSt11char_traitsIcESaIcEEEiESaIS7_EEC2EmRKS8_:
.LFB10445:
	.cfi_startproc
	.cfi_personality 0x9b,DW.ref.__gxx_personality_v0
	.cfi_lsda 0x1b,.LLSDA10445
	stp	x29, x30, [sp, -64]!
	.cfi_def_cfa_offset 64
	.cfi_offset 29, -64
	.cfi_offset 30, -56
	mov	x29, sp
	str	x19, [sp, 16]
	.cfi_offset 19, -48
	str	x0, [sp, 56]
	str	x1, [sp, 48]
	str	x2, [sp, 40]
	ldr	x19, [sp, 56]
	ldr	x1, [sp, 40]
	ldr	x0, [sp, 48]
.LEHB7:
	bl	_ZNSt6vectorISt4pairINSt7__cxx1112basic_stringIcSt11char_traitsIcESaIcEEEiESaIS7_EE17_S_check_init_lenEmRKS8_
	ldr	x2, [sp, 40]
	mov	x1, x0
	mov	x0, x19
	bl	_ZNSt12_Vector_baseISt4pairINSt7__cxx1112basic_stringIcSt11char_traitsIcESaIcEEEiESaIS7_EEC2EmRKS8_
.LEHE7:
	ldr	x1, [sp, 48]
	ldr	x0, [sp, 56]
.LEHB8:
	bl	_ZNSt6vectorISt4pairINSt7__cxx1112basic_stringIcSt11char_traitsIcESaIcEEEiESaIS7_EE21_M_default_initializeEm
.LEHE8:
	b	.L152
.L151:
	mov	x19, x0
	ldr	x0, [sp, 56]
	bl	_ZNSt12_Vector_baseISt4pairINSt7__cxx1112basic_stringIcSt11char_traitsIcESaIcEEEiESaIS7_EED2Ev
	mov	x0, x19
.LEHB9:
	bl	_Unwind_Resume
.LEHE9:
.L152:
	ldr	x19, [sp, 16]
	ldp	x29, x30, [sp], 64
	.cfi_restore 30
	.cfi_restore 29
	.cfi_restore 19
	.cfi_def_cfa_offset 0
	ret
	.cfi_endproc
.LFE10445:
	.section	.gcc_except_table
.LLSDA10445:
	.byte	0xff
	.byte	0xff
	.byte	0x1
	.uleb128 .LLSDACSE10445-.LLSDACSB10445
.LLSDACSB10445:
	.uleb128 .LEHB7-.LFB10445
	.uleb128 .LEHE7-.LEHB7
	.uleb128 0
	.uleb128 0
	.uleb128 .LEHB8-.LFB10445
	.uleb128 .LEHE8-.LEHB8
	.uleb128 .L151-.LFB10445
	.uleb128 0
	.uleb128 .LEHB9-.LFB10445
	.uleb128 .LEHE9-.LEHB9
	.uleb128 0
	.uleb128 0
.LLSDACSE10445:
	.section	.text._ZNSt6vectorISt4pairINSt7__cxx1112basic_stringIcSt11char_traitsIcESaIcEEEiESaIS7_EEC2EmRKS8_,"axG",@progbits,_ZNSt6vectorISt4pairINSt7__cxx1112basic_stringIcSt11char_traitsIcESaIcEEEiESaIS7_EEC5EmRKS8_,comdat
	.size	_ZNSt6vectorISt4pairINSt7__cxx1112basic_stringIcSt11char_traitsIcESaIcEEEiESaIS7_EEC2EmRKS8_, .-_ZNSt6vectorISt4pairINSt7__cxx1112basic_stringIcSt11char_traitsIcESaIcEEEiESaIS7_EEC2EmRKS8_
	.weak	_ZNSt6vectorISt4pairINSt7__cxx1112basic_stringIcSt11char_traitsIcESaIcEEEiESaIS7_EEC1EmRKS8_
	.set	_ZNSt6vectorISt4pairINSt7__cxx1112basic_stringIcSt11char_traitsIcESaIcEEEiESaIS7_EEC1EmRKS8_,_ZNSt6vectorISt4pairINSt7__cxx1112basic_stringIcSt11char_traitsIcESaIcEEEiESaIS7_EEC2EmRKS8_
	.section	.text._ZNSt6vectorISt4pairINSt7__cxx1112basic_stringIcSt11char_traitsIcESaIcEEEiESaIS7_EED2Ev,"axG",@progbits,_ZNSt6vectorISt4pairINSt7__cxx1112basic_stringIcSt11char_traitsIcESaIcEEEiESaIS7_EED5Ev,comdat
	.align	2
	.weak	_ZNSt6vectorISt4pairINSt7__cxx1112basic_stringIcSt11char_traitsIcESaIcEEEiESaIS7_EED2Ev
	.type	_ZNSt6vectorISt4pairINSt7__cxx1112basic_stringIcSt11char_traitsIcESaIcEEEiESaIS7_EED2Ev, %function
_ZNSt6vectorISt4pairINSt7__cxx1112basic_stringIcSt11char_traitsIcESaIcEEEiESaIS7_EED2Ev:
.LFB10448:
	.cfi_startproc
	.cfi_personality 0x9b,DW.ref.__gxx_personality_v0
	.cfi_lsda 0x1b,.LLSDA10448
	stp	x29, x30, [sp, -48]!
	.cfi_def_cfa_offset 48
	.cfi_offset 29, -48
	.cfi_offset 30, -40
	mov	x29, sp
	stp	x19, x20, [sp, 16]
	.cfi_offset 19, -32
	.cfi_offset 20, -24
	str	x0, [sp, 40]
	ldr	x0, [sp, 40]
	ldr	x19, [x0]
	ldr	x0, [sp, 40]
	ldr	x20, [x0, 8]
	ldr	x0, [sp, 40]
	bl	_ZNSt12_Vector_baseISt4pairINSt7__cxx1112basic_stringIcSt11char_traitsIcESaIcEEEiESaIS7_EE19_M_get_Tp_allocatorEv
	mov	x2, x0
	mov	x1, x20
	mov	x0, x19
	bl	_ZSt8_DestroyIPSt4pairINSt7__cxx1112basic_stringIcSt11char_traitsIcESaIcEEEiES7_EvT_S9_RSaIT0_E
	ldr	x0, [sp, 40]
	bl	_ZNSt12_Vector_baseISt4pairINSt7__cxx1112basic_stringIcSt11char_traitsIcESaIcEEEiESaIS7_EED2Ev
	nop
	ldp	x19, x20, [sp, 16]
	ldp	x29, x30, [sp], 48
	.cfi_restore 30
	.cfi_restore 29
	.cfi_restore 19
	.cfi_restore 20
	.cfi_def_cfa_offset 0
	ret
	.cfi_endproc
.LFE10448:
	.section	.gcc_except_table
.LLSDA10448:
	.byte	0xff
	.byte	0xff
	.byte	0x1
	.uleb128 .LLSDACSE10448-.LLSDACSB10448
.LLSDACSB10448:
.LLSDACSE10448:
	.section	.text._ZNSt6vectorISt4pairINSt7__cxx1112basic_stringIcSt11char_traitsIcESaIcEEEiESaIS7_EED2Ev,"axG",@progbits,_ZNSt6vectorISt4pairINSt7__cxx1112basic_stringIcSt11char_traitsIcESaIcEEEiESaIS7_EED5Ev,comdat
	.size	_ZNSt6vectorISt4pairINSt7__cxx1112basic_stringIcSt11char_traitsIcESaIcEEEiESaIS7_EED2Ev, .-_ZNSt6vectorISt4pairINSt7__cxx1112basic_stringIcSt11char_traitsIcESaIcEEEiESaIS7_EED2Ev
	.weak	_ZNSt6vectorISt4pairINSt7__cxx1112basic_stringIcSt11char_traitsIcESaIcEEEiESaIS7_EED1Ev
	.set	_ZNSt6vectorISt4pairINSt7__cxx1112basic_stringIcSt11char_traitsIcESaIcEEEiESaIS7_EED1Ev,_ZNSt6vectorISt4pairINSt7__cxx1112basic_stringIcSt11char_traitsIcESaIcEEEiESaIS7_EED2Ev
	.section	.text._ZNSt6vectorISt4pairINSt7__cxx1112basic_stringIcSt11char_traitsIcESaIcEEEiESaIS7_EEixEm,"axG",@progbits,_ZNSt6vectorISt4pairINSt7__cxx1112basic_stringIcSt11char_traitsIcESaIcEEEiESaIS7_EEixEm,comdat
	.align	2
	.weak	_ZNSt6vectorISt4pairINSt7__cxx1112basic_stringIcSt11char_traitsIcESaIcEEEiESaIS7_EEixEm
	.type	_ZNSt6vectorISt4pairINSt7__cxx1112basic_stringIcSt11char_traitsIcESaIcEEEiESaIS7_EEixEm, %function
_ZNSt6vectorISt4pairINSt7__cxx1112basic_stringIcSt11char_traitsIcESaIcEEEiESaIS7_EEixEm:
.LFB10450:
	.cfi_startproc
	sub	sp, sp, #16
	.cfi_def_cfa_offset 16
	str	x0, [sp, 8]
	str	x1, [sp]
	ldr	x0, [sp, 8]
	ldr	x2, [x0]
	ldr	x1, [sp]
	mov	x0, x1
	lsl	x0, x0, 2
	add	x0, x0, x1
	lsl	x0, x0, 3
	add	x0, x2, x0
	add	sp, sp, 16
	.cfi_def_cfa_offset 0
	ret
	.cfi_endproc
.LFE10450:
	.size	_ZNSt6vectorISt4pairINSt7__cxx1112basic_stringIcSt11char_traitsIcESaIcEEEiESaIS7_EEixEm, .-_ZNSt6vectorISt4pairINSt7__cxx1112basic_stringIcSt11char_traitsIcESaIcEEEiESaIS7_EEixEm
	.section	.text._ZNSt6vectorISt4pairINSt7__cxx1112basic_stringIcSt11char_traitsIcESaIcEEEiESaIS7_EE5beginEv,"axG",@progbits,_ZNSt6vectorISt4pairINSt7__cxx1112basic_stringIcSt11char_traitsIcESaIcEEEiESaIS7_EE5beginEv,comdat
	.align	2
	.weak	_ZNSt6vectorISt4pairINSt7__cxx1112basic_stringIcSt11char_traitsIcESaIcEEEiESaIS7_EE5beginEv
	.type	_ZNSt6vectorISt4pairINSt7__cxx1112basic_stringIcSt11char_traitsIcESaIcEEEiESaIS7_EE5beginEv, %function
_ZNSt6vectorISt4pairINSt7__cxx1112basic_stringIcSt11char_traitsIcESaIcEEEiESaIS7_EE5beginEv:
.LFB10451:
	.cfi_startproc
	stp	x29, x30, [sp, -48]!
	.cfi_def_cfa_offset 48
	.cfi_offset 29, -48
	.cfi_offset 30, -40
	mov	x29, sp
	str	x0, [sp, 24]
	ldr	x1, [sp, 24]
	add	x0, sp, 40
	bl	_ZN9__gnu_cxx17__normal_iteratorIPSt4pairINSt7__cxx1112basic_stringIcSt11char_traitsIcESaIcEEEiESt6vectorIS8_SaIS8_EEEC1ERKS9_
	ldr	x0, [sp, 40]
	ldp	x29, x30, [sp], 48
	.cfi_restore 30
	.cfi_restore 29
	.cfi_def_cfa_offset 0
	ret
	.cfi_endproc
.LFE10451:
	.size	_ZNSt6vectorISt4pairINSt7__cxx1112basic_stringIcSt11char_traitsIcESaIcEEEiESaIS7_EE5beginEv, .-_ZNSt6vectorISt4pairINSt7__cxx1112basic_stringIcSt11char_traitsIcESaIcEEEiESaIS7_EE5beginEv
	.section	.text._ZNSt6vectorISt4pairINSt7__cxx1112basic_stringIcSt11char_traitsIcESaIcEEEiESaIS7_EE3endEv,"axG",@progbits,_ZNSt6vectorISt4pairINSt7__cxx1112basic_stringIcSt11char_traitsIcESaIcEEEiESaIS7_EE3endEv,comdat
	.align	2
	.weak	_ZNSt6vectorISt4pairINSt7__cxx1112basic_stringIcSt11char_traitsIcESaIcEEEiESaIS7_EE3endEv
	.type	_ZNSt6vectorISt4pairINSt7__cxx1112basic_stringIcSt11char_traitsIcESaIcEEEiESaIS7_EE3endEv, %function
_ZNSt6vectorISt4pairINSt7__cxx1112basic_stringIcSt11char_traitsIcESaIcEEEiESaIS7_EE3endEv:
.LFB10452:
	.cfi_startproc
	stp	x29, x30, [sp, -48]!
	.cfi_def_cfa_offset 48
	.cfi_offset 29, -48
	.cfi_offset 30, -40
	mov	x29, sp
	str	x0, [sp, 24]
	ldr	x0, [sp, 24]
	add	x1, x0, 8
	add	x0, sp, 40
	bl	_ZN9__gnu_cxx17__normal_iteratorIPSt4pairINSt7__cxx1112basic_stringIcSt11char_traitsIcESaIcEEEiESt6vectorIS8_SaIS8_EEEC1ERKS9_
	ldr	x0, [sp, 40]
	ldp	x29, x30, [sp], 48
	.cfi_restore 30
	.cfi_restore 29
	.cfi_def_cfa_offset 0
	ret
	.cfi_endproc
.LFE10452:
	.size	_ZNSt6vectorISt4pairINSt7__cxx1112basic_stringIcSt11char_traitsIcESaIcEEEiESaIS7_EE3endEv, .-_ZNSt6vectorISt4pairINSt7__cxx1112basic_stringIcSt11char_traitsIcESaIcEEEiESaIS7_EE3endEv
	.section	.text._ZSt4sortIN9__gnu_cxx17__normal_iteratorIPSt4pairINSt7__cxx1112basic_stringIcSt11char_traitsIcESaIcEEEiESt6vectorIS9_SaIS9_EEEEPFbRS9_SF_EEvT_SI_T0_,"axG",@progbits,_ZSt4sortIN9__gnu_cxx17__normal_iteratorIPSt4pairINSt7__cxx1112basic_stringIcSt11char_traitsIcESaIcEEEiESt6vectorIS9_SaIS9_EEEEPFbRS9_SF_EEvT_SI_T0_,comdat
	.align	2
	.weak	_ZSt4sortIN9__gnu_cxx17__normal_iteratorIPSt4pairINSt7__cxx1112basic_stringIcSt11char_traitsIcESaIcEEEiESt6vectorIS9_SaIS9_EEEEPFbRS9_SF_EEvT_SI_T0_
	.type	_ZSt4sortIN9__gnu_cxx17__normal_iteratorIPSt4pairINSt7__cxx1112basic_stringIcSt11char_traitsIcESaIcEEEiESt6vectorIS9_SaIS9_EEEEPFbRS9_SF_EEvT_SI_T0_, %function
_ZSt4sortIN9__gnu_cxx17__normal_iteratorIPSt4pairINSt7__cxx1112basic_stringIcSt11char_traitsIcESaIcEEEiESt6vectorIS9_SaIS9_EEEEPFbRS9_SF_EEvT_SI_T0_:
.LFB10453:
	.cfi_startproc
	stp	x29, x30, [sp, -48]!
	.cfi_def_cfa_offset 48
	.cfi_offset 29, -48
	.cfi_offset 30, -40
	mov	x29, sp
	str	x0, [sp, 40]
	str	x1, [sp, 32]
	str	x2, [sp, 24]
	ldr	x0, [sp, 24]
	bl	_ZN9__gnu_cxx5__ops16__iter_comp_iterIPFbRSt4pairINSt7__cxx1112basic_stringIcSt11char_traitsIcESaIcEEEiESA_EEENS0_15_Iter_comp_iterIT_EESE_
	mov	x2, x0
	ldr	x1, [sp, 32]
	ldr	x0, [sp, 40]
	bl	_ZSt6__sortIN9__gnu_cxx17__normal_iteratorIPSt4pairINSt7__cxx1112basic_stringIcSt11char_traitsIcESaIcEEEiESt6vectorIS9_SaIS9_EEEENS0_5__ops15_Iter_comp_iterIPFbRS9_SH_EEEEvT_SL_T0_
	nop
	ldp	x29, x30, [sp], 48
	.cfi_restore 30
	.cfi_restore 29
	.cfi_def_cfa_offset 0
	ret
	.cfi_endproc
.LFE10453:
	.size	_ZSt4sortIN9__gnu_cxx17__normal_iteratorIPSt4pairINSt7__cxx1112basic_stringIcSt11char_traitsIcESaIcEEEiESt6vectorIS9_SaIS9_EEEEPFbRS9_SF_EEvT_SI_T0_, .-_ZSt4sortIN9__gnu_cxx17__normal_iteratorIPSt4pairINSt7__cxx1112basic_stringIcSt11char_traitsIcESaIcEEEiESt6vectorIS9_SaIS9_EEEEPFbRS9_SF_EEvT_SI_T0_
	.section	.text._ZNSaIxEC2Ev,"axG",@progbits,_ZNSaIxEC5Ev,comdat
	.align	2
	.weak	_ZNSaIxEC2Ev
	.type	_ZNSaIxEC2Ev, %function
_ZNSaIxEC2Ev:
.LFB10848:
	.cfi_startproc
	stp	x29, x30, [sp, -32]!
	.cfi_def_cfa_offset 32
	.cfi_offset 29, -32
	.cfi_offset 30, -24
	mov	x29, sp
	str	x0, [sp, 24]
	ldr	x0, [sp, 24]
	bl	_ZN9__gnu_cxx13new_allocatorIxEC2Ev
	nop
	ldp	x29, x30, [sp], 32
	.cfi_restore 30
	.cfi_restore 29
	.cfi_def_cfa_offset 0
	ret
	.cfi_endproc
.LFE10848:
	.size	_ZNSaIxEC2Ev, .-_ZNSaIxEC2Ev
	.weak	_ZNSaIxEC1Ev
	.set	_ZNSaIxEC1Ev,_ZNSaIxEC2Ev
	.section	.text._ZNSt12_Vector_baseIxSaIxEE17_Vector_impl_dataC2Ev,"axG",@progbits,_ZNSt12_Vector_baseIxSaIxEE17_Vector_impl_dataC5Ev,comdat
	.align	2
	.weak	_ZNSt12_Vector_baseIxSaIxEE17_Vector_impl_dataC2Ev
	.type	_ZNSt12_Vector_baseIxSaIxEE17_Vector_impl_dataC2Ev, %function
_ZNSt12_Vector_baseIxSaIxEE17_Vector_impl_dataC2Ev:
.LFB10851:
	.cfi_startproc
	sub	sp, sp, #16
	.cfi_def_cfa_offset 16
	str	x0, [sp, 8]
	ldr	x0, [sp, 8]
	str	xzr, [x0]
	ldr	x0, [sp, 8]
	str	xzr, [x0, 8]
	ldr	x0, [sp, 8]
	str	xzr, [x0, 16]
	nop
	add	sp, sp, 16
	.cfi_def_cfa_offset 0
	ret
	.cfi_endproc
.LFE10851:
	.size	_ZNSt12_Vector_baseIxSaIxEE17_Vector_impl_dataC2Ev, .-_ZNSt12_Vector_baseIxSaIxEE17_Vector_impl_dataC2Ev
	.weak	_ZNSt12_Vector_baseIxSaIxEE17_Vector_impl_dataC1Ev
	.set	_ZNSt12_Vector_baseIxSaIxEE17_Vector_impl_dataC1Ev,_ZNSt12_Vector_baseIxSaIxEE17_Vector_impl_dataC2Ev
	.section	.text._ZN9__gnu_cxx13new_allocatorIxED2Ev,"axG",@progbits,_ZN9__gnu_cxx13new_allocatorIxED5Ev,comdat
	.align	2
	.weak	_ZN9__gnu_cxx13new_allocatorIxED2Ev
	.type	_ZN9__gnu_cxx13new_allocatorIxED2Ev, %function
_ZN9__gnu_cxx13new_allocatorIxED2Ev:
.LFB10854:
	.cfi_startproc
	sub	sp, sp, #16
	.cfi_def_cfa_offset 16
	str	x0, [sp, 8]
	nop
	add	sp, sp, 16
	.cfi_def_cfa_offset 0
	ret
	.cfi_endproc
.LFE10854:
	.size	_ZN9__gnu_cxx13new_allocatorIxED2Ev, .-_ZN9__gnu_cxx13new_allocatorIxED2Ev
	.weak	_ZN9__gnu_cxx13new_allocatorIxED1Ev
	.set	_ZN9__gnu_cxx13new_allocatorIxED1Ev,_ZN9__gnu_cxx13new_allocatorIxED2Ev
	.section	.text._ZNSt12_Vector_baseIxSaIxEE13_M_deallocateEPxm,"axG",@progbits,_ZNSt12_Vector_baseIxSaIxEE13_M_deallocateEPxm,comdat
	.align	2
	.weak	_ZNSt12_Vector_baseIxSaIxEE13_M_deallocateEPxm
	.type	_ZNSt12_Vector_baseIxSaIxEE13_M_deallocateEPxm, %function
_ZNSt12_Vector_baseIxSaIxEE13_M_deallocateEPxm:
.LFB10856:
	.cfi_startproc
	stp	x29, x30, [sp, -48]!
	.cfi_def_cfa_offset 48
	.cfi_offset 29, -48
	.cfi_offset 30, -40
	mov	x29, sp
	str	x0, [sp, 40]
	str	x1, [sp, 32]
	str	x2, [sp, 24]
	ldr	x0, [sp, 32]
	cmp	x0, 0
	beq	.L166
	ldr	x0, [sp, 40]
	ldr	x2, [sp, 24]
	ldr	x1, [sp, 32]
	bl	_ZNSt16allocator_traitsISaIxEE10deallocateERS0_Pxm
.L166:
	nop
	ldp	x29, x30, [sp], 48
	.cfi_restore 30
	.cfi_restore 29
	.cfi_def_cfa_offset 0
	ret
	.cfi_endproc
.LFE10856:
	.size	_ZNSt12_Vector_baseIxSaIxEE13_M_deallocateEPxm, .-_ZNSt12_Vector_baseIxSaIxEE13_M_deallocateEPxm
	.section	.text._ZSt4moveIRxEONSt16remove_referenceIT_E4typeEOS2_,"axG",@progbits,_ZSt4moveIRxEONSt16remove_referenceIT_E4typeEOS2_,comdat
	.align	2
	.weak	_ZSt4moveIRxEONSt16remove_referenceIT_E4typeEOS2_
	.type	_ZSt4moveIRxEONSt16remove_referenceIT_E4typeEOS2_, %function
_ZSt4moveIRxEONSt16remove_referenceIT_E4typeEOS2_:
.LFB10857:
	.cfi_startproc
	sub	sp, sp, #16
	.cfi_def_cfa_offset 16
	str	x0, [sp, 8]
	ldr	x0, [sp, 8]
	add	sp, sp, 16
	.cfi_def_cfa_offset 0
	ret
	.cfi_endproc
.LFE10857:
	.size	_ZSt4moveIRxEONSt16remove_referenceIT_E4typeEOS2_, .-_ZSt4moveIRxEONSt16remove_referenceIT_E4typeEOS2_
	.section	.text._ZNSt6vectorIxSaIxEE12emplace_backIJxEEERxDpOT_,"axG",@progbits,_ZNSt6vectorIxSaIxEE12emplace_backIJxEEERxDpOT_,comdat
	.align	2
	.weak	_ZNSt6vectorIxSaIxEE12emplace_backIJxEEERxDpOT_
	.type	_ZNSt6vectorIxSaIxEE12emplace_backIJxEEERxDpOT_, %function
_ZNSt6vectorIxSaIxEE12emplace_backIJxEEERxDpOT_:
.LFB10858:
	.cfi_startproc
	stp	x29, x30, [sp, -48]!
	.cfi_def_cfa_offset 48
	.cfi_offset 29, -48
	.cfi_offset 30, -40
	mov	x29, sp
	stp	x19, x20, [sp, 16]
	.cfi_offset 19, -32
	.cfi_offset 20, -24
	str	x0, [sp, 40]
	str	x1, [sp, 32]
	ldr	x0, [sp, 40]
	ldr	x1, [x0, 8]
	ldr	x0, [sp, 40]
	ldr	x0, [x0, 16]
	cmp	x1, x0
	beq	.L170
	ldr	x19, [sp, 40]
	ldr	x0, [sp, 40]
	ldr	x20, [x0, 8]
	ldr	x0, [sp, 32]
	bl	_ZSt7forwardIxEOT_RNSt16remove_referenceIS0_E4typeE
	mov	x2, x0
	mov	x1, x20
	mov	x0, x19
	bl	_ZNSt16allocator_traitsISaIxEE9constructIxJxEEEvRS0_PT_DpOT0_
	ldr	x0, [sp, 40]
	ldr	x0, [x0, 8]
	add	x1, x0, 8
	ldr	x0, [sp, 40]
	str	x1, [x0, 8]
	b	.L171
.L170:
	ldr	x0, [sp, 40]
	bl	_ZNSt6vectorIxSaIxEE3endEv
	mov	x19, x0
	ldr	x0, [sp, 32]
	bl	_ZSt7forwardIxEOT_RNSt16remove_referenceIS0_E4typeE
	mov	x2, x0
	mov	x1, x19
	ldr	x0, [sp, 40]
	bl	_ZNSt6vectorIxSaIxEE17_M_realloc_insertIJxEEEvN9__gnu_cxx17__normal_iteratorIPxS1_EEDpOT_
.L171:
	ldr	x0, [sp, 40]
	bl	_ZNSt6vectorIxSaIxEE4backEv
	ldp	x19, x20, [sp, 16]
	ldp	x29, x30, [sp], 48
	.cfi_restore 30
	.cfi_restore 29
	.cfi_restore 19
	.cfi_restore 20
	.cfi_def_cfa_offset 0
	ret
	.cfi_endproc
.LFE10858:
	.size	_ZNSt6vectorIxSaIxEE12emplace_backIJxEEERxDpOT_, .-_ZNSt6vectorIxSaIxEE12emplace_backIJxEEERxDpOT_
	.section	.text._ZSt19__iterator_categoryIN9__gnu_cxx17__normal_iteratorIPcNSt7__cxx1112basic_stringIcSt11char_traitsIcESaIcEEEEEENSt15iterator_traitsIT_E17iterator_categoryERKSB_,"axG",@progbits,_ZSt19__iterator_categoryIN9__gnu_cxx17__normal_iteratorIPcNSt7__cxx1112basic_stringIcSt11char_traitsIcESaIcEEEEEENSt15iterator_traitsIT_E17iterator_categoryERKSB_,comdat
	.align	2
	.weak	_ZSt19__iterator_categoryIN9__gnu_cxx17__normal_iteratorIPcNSt7__cxx1112basic_stringIcSt11char_traitsIcESaIcEEEEEENSt15iterator_traitsIT_E17iterator_categoryERKSB_
	.type	_ZSt19__iterator_categoryIN9__gnu_cxx17__normal_iteratorIPcNSt7__cxx1112basic_stringIcSt11char_traitsIcESaIcEEEEEENSt15iterator_traitsIT_E17iterator_categoryERKSB_, %function
_ZSt19__iterator_categoryIN9__gnu_cxx17__normal_iteratorIPcNSt7__cxx1112basic_stringIcSt11char_traitsIcESaIcEEEEEENSt15iterator_traitsIT_E17iterator_categoryERKSB_:
.LFB10863:
	.cfi_startproc
	sub	sp, sp, #16
	.cfi_def_cfa_offset 16
	str	x0, [sp, 8]
	mov	w0, w1
	add	sp, sp, 16
	.cfi_def_cfa_offset 0
	ret
	.cfi_endproc
.LFE10863:
	.size	_ZSt19__iterator_categoryIN9__gnu_cxx17__normal_iteratorIPcNSt7__cxx1112basic_stringIcSt11char_traitsIcESaIcEEEEEENSt15iterator_traitsIT_E17iterator_categoryERKSB_, .-_ZSt19__iterator_categoryIN9__gnu_cxx17__normal_iteratorIPcNSt7__cxx1112basic_stringIcSt11char_traitsIcESaIcEEEEEENSt15iterator_traitsIT_E17iterator_categoryERKSB_
	.section	.text._ZSt9__reverseIN9__gnu_cxx17__normal_iteratorIPcNSt7__cxx1112basic_stringIcSt11char_traitsIcESaIcEEEEEEvT_SA_St26random_access_iterator_tag,"axG",@progbits,_ZSt9__reverseIN9__gnu_cxx17__normal_iteratorIPcNSt7__cxx1112basic_stringIcSt11char_traitsIcESaIcEEEEEEvT_SA_St26random_access_iterator_tag,comdat
	.align	2
	.weak	_ZSt9__reverseIN9__gnu_cxx17__normal_iteratorIPcNSt7__cxx1112basic_stringIcSt11char_traitsIcESaIcEEEEEEvT_SA_St26random_access_iterator_tag
	.type	_ZSt9__reverseIN9__gnu_cxx17__normal_iteratorIPcNSt7__cxx1112basic_stringIcSt11char_traitsIcESaIcEEEEEEvT_SA_St26random_access_iterator_tag, %function
_ZSt9__reverseIN9__gnu_cxx17__normal_iteratorIPcNSt7__cxx1112basic_stringIcSt11char_traitsIcESaIcEEEEEEvT_SA_St26random_access_iterator_tag:
.LFB10864:
	.cfi_startproc
	stp	x29, x30, [sp, -48]!
	.cfi_def_cfa_offset 48
	.cfi_offset 29, -48
	.cfi_offset 30, -40
	mov	x29, sp
	str	x0, [sp, 40]
	str	x1, [sp, 32]
	strb	w2, [sp, 24]
	add	x1, sp, 32
	add	x0, sp, 40
	bl	_ZN9__gnu_cxxeqIPcNSt7__cxx1112basic_stringIcSt11char_traitsIcESaIcEEEEEbRKNS_17__normal_iteratorIT_T0_EESD_
	and	w0, w0, 255
	cmp	w0, 0
	bne	.L180
	add	x0, sp, 32
	bl	_ZN9__gnu_cxx17__normal_iteratorIPcNSt7__cxx1112basic_stringIcSt11char_traitsIcESaIcEEEEmmEv
	b	.L178
.L179:
	ldr	x1, [sp, 32]
	ldr	x0, [sp, 40]
	bl	_ZSt9iter_swapIN9__gnu_cxx17__normal_iteratorIPcNSt7__cxx1112basic_stringIcSt11char_traitsIcESaIcEEEEES9_EvT_T0_
	add	x0, sp, 40
	bl	_ZN9__gnu_cxx17__normal_iteratorIPcNSt7__cxx1112basic_stringIcSt11char_traitsIcESaIcEEEEppEv
	add	x0, sp, 32
	bl	_ZN9__gnu_cxx17__normal_iteratorIPcNSt7__cxx1112basic_stringIcSt11char_traitsIcESaIcEEEEmmEv
.L178:
	add	x1, sp, 32
	add	x0, sp, 40
	bl	_ZN9__gnu_cxxltIPcNSt7__cxx1112basic_stringIcSt11char_traitsIcESaIcEEEEEbRKNS_17__normal_iteratorIT_T0_EESD_
	and	w0, w0, 255
	cmp	w0, 0
	bne	.L179
	b	.L175
.L180:
	nop
.L175:
	ldp	x29, x30, [sp], 48
	.cfi_restore 30
	.cfi_restore 29
	.cfi_def_cfa_offset 0
	ret
	.cfi_endproc
.LFE10864:
	.size	_ZSt9__reverseIN9__gnu_cxx17__normal_iteratorIPcNSt7__cxx1112basic_stringIcSt11char_traitsIcESaIcEEEEEEvT_SA_St26random_access_iterator_tag, .-_ZSt9__reverseIN9__gnu_cxx17__normal_iteratorIPcNSt7__cxx1112basic_stringIcSt11char_traitsIcESaIcEEEEEEvT_SA_St26random_access_iterator_tag
	.section	.text._ZN9__gnu_cxx13new_allocatorISt4pairINSt7__cxx1112basic_stringIcSt11char_traitsIcESaIcEEEiEEC2Ev,"axG",@progbits,_ZN9__gnu_cxx13new_allocatorISt4pairINSt7__cxx1112basic_stringIcSt11char_traitsIcESaIcEEEiEEC5Ev,comdat
	.align	2
	.weak	_ZN9__gnu_cxx13new_allocatorISt4pairINSt7__cxx1112basic_stringIcSt11char_traitsIcESaIcEEEiEEC2Ev
	.type	_ZN9__gnu_cxx13new_allocatorISt4pairINSt7__cxx1112basic_stringIcSt11char_traitsIcESaIcEEEiEEC2Ev, %function
_ZN9__gnu_cxx13new_allocatorISt4pairINSt7__cxx1112basic_stringIcSt11char_traitsIcESaIcEEEiEEC2Ev:
.LFB10867:
	.cfi_startproc
	sub	sp, sp, #16
	.cfi_def_cfa_offset 16
	str	x0, [sp, 8]
	nop
	add	sp, sp, 16
	.cfi_def_cfa_offset 0
	ret
	.cfi_endproc
.LFE10867:
	.size	_ZN9__gnu_cxx13new_allocatorISt4pairINSt7__cxx1112basic_stringIcSt11char_traitsIcESaIcEEEiEEC2Ev, .-_ZN9__gnu_cxx13new_allocatorISt4pairINSt7__cxx1112basic_stringIcSt11char_traitsIcESaIcEEEiEEC2Ev
	.weak	_ZN9__gnu_cxx13new_allocatorISt4pairINSt7__cxx1112basic_stringIcSt11char_traitsIcESaIcEEEiEEC1Ev
	.set	_ZN9__gnu_cxx13new_allocatorISt4pairINSt7__cxx1112basic_stringIcSt11char_traitsIcESaIcEEEiEEC1Ev,_ZN9__gnu_cxx13new_allocatorISt4pairINSt7__cxx1112basic_stringIcSt11char_traitsIcESaIcEEEiEEC2Ev
	.section	.text._ZN9__gnu_cxx13new_allocatorISt4pairINSt7__cxx1112basic_stringIcSt11char_traitsIcESaIcEEEiEED2Ev,"axG",@progbits,_ZN9__gnu_cxx13new_allocatorISt4pairINSt7__cxx1112basic_stringIcSt11char_traitsIcESaIcEEEiEED5Ev,comdat
	.align	2
	.weak	_ZN9__gnu_cxx13new_allocatorISt4pairINSt7__cxx1112basic_stringIcSt11char_traitsIcESaIcEEEiEED2Ev
	.type	_ZN9__gnu_cxx13new_allocatorISt4pairINSt7__cxx1112basic_stringIcSt11char_traitsIcESaIcEEEiEED2Ev, %function
_ZN9__gnu_cxx13new_allocatorISt4pairINSt7__cxx1112basic_stringIcSt11char_traitsIcESaIcEEEiEED2Ev:
.LFB10870:
	.cfi_startproc
	sub	sp, sp, #16
	.cfi_def_cfa_offset 16
	str	x0, [sp, 8]
	nop
	add	sp, sp, 16
	.cfi_def_cfa_offset 0
	ret
	.cfi_endproc
.LFE10870:
	.size	_ZN9__gnu_cxx13new_allocatorISt4pairINSt7__cxx1112basic_stringIcSt11char_traitsIcESaIcEEEiEED2Ev, .-_ZN9__gnu_cxx13new_allocatorISt4pairINSt7__cxx1112basic_stringIcSt11char_traitsIcESaIcEEEiEED2Ev
	.weak	_ZN9__gnu_cxx13new_allocatorISt4pairINSt7__cxx1112basic_stringIcSt11char_traitsIcESaIcEEEiEED1Ev
	.set	_ZN9__gnu_cxx13new_allocatorISt4pairINSt7__cxx1112basic_stringIcSt11char_traitsIcESaIcEEEiEED1Ev,_ZN9__gnu_cxx13new_allocatorISt4pairINSt7__cxx1112basic_stringIcSt11char_traitsIcESaIcEEEiEED2Ev
	.section	.rodata
	.align	3
.LC2:
	.string	"cannot create std::vector larger than max_size()"
	.section	.text._ZNSt6vectorISt4pairINSt7__cxx1112basic_stringIcSt11char_traitsIcESaIcEEEiESaIS7_EE17_S_check_init_lenEmRKS8_,"axG",@progbits,_ZNSt6vectorISt4pairINSt7__cxx1112basic_stringIcSt11char_traitsIcESaIcEEEiESaIS7_EE17_S_check_init_lenEmRKS8_,comdat
	.align	2
	.weak	_ZNSt6vectorISt4pairINSt7__cxx1112basic_stringIcSt11char_traitsIcESaIcEEEiESaIS7_EE17_S_check_init_lenEmRKS8_
	.type	_ZNSt6vectorISt4pairINSt7__cxx1112basic_stringIcSt11char_traitsIcESaIcEEEiESaIS7_EE17_S_check_init_lenEmRKS8_, %function
_ZNSt6vectorISt4pairINSt7__cxx1112basic_stringIcSt11char_traitsIcESaIcEEEiESaIS7_EE17_S_check_init_lenEmRKS8_:
.LFB10872:
	.cfi_startproc
	stp	x29, x30, [sp, -64]!
	.cfi_def_cfa_offset 64
	.cfi_offset 29, -64
	.cfi_offset 30, -56
	mov	x29, sp
	str	x19, [sp, 16]
	.cfi_offset 19, -48
	str	x0, [sp, 40]
	str	x1, [sp, 32]
	add	x0, sp, 56
	ldr	x1, [sp, 32]
	bl	_ZNSaISt4pairINSt7__cxx1112basic_stringIcSt11char_traitsIcESaIcEEEiEEC1ERKS7_
	add	x0, sp, 56
	bl	_ZNSt6vectorISt4pairINSt7__cxx1112basic_stringIcSt11char_traitsIcESaIcEEEiESaIS7_EE11_S_max_sizeERKS8_
	mov	x1, x0
	ldr	x0, [sp, 40]
	cmp	x0, x1
	cset	w0, hi
	and	w19, w0, 255
	add	x0, sp, 56
	bl	_ZNSaISt4pairINSt7__cxx1112basic_stringIcSt11char_traitsIcESaIcEEEiEED1Ev
	cmp	w19, 0
	beq	.L184
	adrp	x0, .LC2
	add	x0, x0, :lo12:.LC2
	bl	_ZSt20__throw_length_errorPKc
.L184:
	ldr	x0, [sp, 40]
	ldr	x19, [sp, 16]
	ldp	x29, x30, [sp], 64
	.cfi_restore 30
	.cfi_restore 29
	.cfi_restore 19
	.cfi_def_cfa_offset 0
	ret
	.cfi_endproc
.LFE10872:
	.size	_ZNSt6vectorISt4pairINSt7__cxx1112basic_stringIcSt11char_traitsIcESaIcEEEiESaIS7_EE17_S_check_init_lenEmRKS8_, .-_ZNSt6vectorISt4pairINSt7__cxx1112basic_stringIcSt11char_traitsIcESaIcEEEiESaIS7_EE17_S_check_init_lenEmRKS8_
	.section	.text._ZNSt12_Vector_baseISt4pairINSt7__cxx1112basic_stringIcSt11char_traitsIcESaIcEEEiESaIS7_EE12_Vector_implD2Ev,"axG",@progbits,_ZNSt12_Vector_baseISt4pairINSt7__cxx1112basic_stringIcSt11char_traitsIcESaIcEEEiESaIS7_EE12_Vector_implD5Ev,comdat
	.align	2
	.weak	_ZNSt12_Vector_baseISt4pairINSt7__cxx1112basic_stringIcSt11char_traitsIcESaIcEEEiESaIS7_EE12_Vector_implD2Ev
	.type	_ZNSt12_Vector_baseISt4pairINSt7__cxx1112basic_stringIcSt11char_traitsIcESaIcEEEiESaIS7_EE12_Vector_implD2Ev, %function
_ZNSt12_Vector_baseISt4pairINSt7__cxx1112basic_stringIcSt11char_traitsIcESaIcEEEiESaIS7_EE12_Vector_implD2Ev:
.LFB10875:
	.cfi_startproc
	stp	x29, x30, [sp, -32]!
	.cfi_def_cfa_offset 32
	.cfi_offset 29, -32
	.cfi_offset 30, -24
	mov	x29, sp
	str	x0, [sp, 24]
	ldr	x0, [sp, 24]
	bl	_ZNSaISt4pairINSt7__cxx1112basic_stringIcSt11char_traitsIcESaIcEEEiEED2Ev
	nop
	ldp	x29, x30, [sp], 32
	.cfi_restore 30
	.cfi_restore 29
	.cfi_def_cfa_offset 0
	ret
	.cfi_endproc
.LFE10875:
	.size	_ZNSt12_Vector_baseISt4pairINSt7__cxx1112basic_stringIcSt11char_traitsIcESaIcEEEiESaIS7_EE12_Vector_implD2Ev, .-_ZNSt12_Vector_baseISt4pairINSt7__cxx1112basic_stringIcSt11char_traitsIcESaIcEEEiESaIS7_EE12_Vector_implD2Ev
	.weak	_ZNSt12_Vector_baseISt4pairINSt7__cxx1112basic_stringIcSt11char_traitsIcESaIcEEEiESaIS7_EE12_Vector_implD1Ev
	.set	_ZNSt12_Vector_baseISt4pairINSt7__cxx1112basic_stringIcSt11char_traitsIcESaIcEEEiESaIS7_EE12_Vector_implD1Ev,_ZNSt12_Vector_baseISt4pairINSt7__cxx1112basic_stringIcSt11char_traitsIcESaIcEEEiESaIS7_EE12_Vector_implD2Ev
	.section	.text._ZNSt12_Vector_baseISt4pairINSt7__cxx1112basic_stringIcSt11char_traitsIcESaIcEEEiESaIS7_EEC2EmRKS8_,"axG",@progbits,_ZNSt12_Vector_baseISt4pairINSt7__cxx1112basic_stringIcSt11char_traitsIcESaIcEEEiESaIS7_EEC5EmRKS8_,comdat
	.align	2
	.weak	_ZNSt12_Vector_baseISt4pairINSt7__cxx1112basic_stringIcSt11char_traitsIcESaIcEEEiESaIS7_EEC2EmRKS8_
	.type	_ZNSt12_Vector_baseISt4pairINSt7__cxx1112basic_stringIcSt11char_traitsIcESaIcEEEiESaIS7_EEC2EmRKS8_, %function
_ZNSt12_Vector_baseISt4pairINSt7__cxx1112basic_stringIcSt11char_traitsIcESaIcEEEiESaIS7_EEC2EmRKS8_:
.LFB10877:
	.cfi_startproc
	.cfi_personality 0x9b,DW.ref.__gxx_personality_v0
	.cfi_lsda 0x1b,.LLSDA10877
	stp	x29, x30, [sp, -64]!
	.cfi_def_cfa_offset 64
	.cfi_offset 29, -64
	.cfi_offset 30, -56
	mov	x29, sp
	str	x19, [sp, 16]
	.cfi_offset 19, -48
	str	x0, [sp, 56]
	str	x1, [sp, 48]
	str	x2, [sp, 40]
	ldr	x0, [sp, 56]
	ldr	x1, [sp, 40]
	bl	_ZNSt12_Vector_baseISt4pairINSt7__cxx1112basic_stringIcSt11char_traitsIcESaIcEEEiESaIS7_EE12_Vector_implC1ERKS8_
	ldr	x1, [sp, 48]
	ldr	x0, [sp, 56]
.LEHB10:
	bl	_ZNSt12_Vector_baseISt4pairINSt7__cxx1112basic_stringIcSt11char_traitsIcESaIcEEEiESaIS7_EE17_M_create_storageEm
.LEHE10:
	b	.L190
.L189:
	mov	x19, x0
	ldr	x0, [sp, 56]
	bl	_ZNSt12_Vector_baseISt4pairINSt7__cxx1112basic_stringIcSt11char_traitsIcESaIcEEEiESaIS7_EE12_Vector_implD1Ev
	mov	x0, x19
.LEHB11:
	bl	_Unwind_Resume
.LEHE11:
.L190:
	ldr	x19, [sp, 16]
	ldp	x29, x30, [sp], 64
	.cfi_restore 30
	.cfi_restore 29
	.cfi_restore 19
	.cfi_def_cfa_offset 0
	ret
	.cfi_endproc
.LFE10877:
	.section	.gcc_except_table
.LLSDA10877:
	.byte	0xff
	.byte	0xff
	.byte	0x1
	.uleb128 .LLSDACSE10877-.LLSDACSB10877
.LLSDACSB10877:
	.uleb128 .LEHB10-.LFB10877
	.uleb128 .LEHE10-.LEHB10
	.uleb128 .L189-.LFB10877
	.uleb128 0
	.uleb128 .LEHB11-.LFB10877
	.uleb128 .LEHE11-.LEHB11
	.uleb128 0
	.uleb128 0
.LLSDACSE10877:
	.section	.text._ZNSt12_Vector_baseISt4pairINSt7__cxx1112basic_stringIcSt11char_traitsIcESaIcEEEiESaIS7_EEC2EmRKS8_,"axG",@progbits,_ZNSt12_Vector_baseISt4pairINSt7__cxx1112basic_stringIcSt11char_traitsIcESaIcEEEiESaIS7_EEC5EmRKS8_,comdat
	.size	_ZNSt12_Vector_baseISt4pairINSt7__cxx1112basic_stringIcSt11char_traitsIcESaIcEEEiESaIS7_EEC2EmRKS8_, .-_ZNSt12_Vector_baseISt4pairINSt7__cxx1112basic_stringIcSt11char_traitsIcESaIcEEEiESaIS7_EEC2EmRKS8_
	.weak	_ZNSt12_Vector_baseISt4pairINSt7__cxx1112basic_stringIcSt11char_traitsIcESaIcEEEiESaIS7_EEC1EmRKS8_
	.set	_ZNSt12_Vector_baseISt4pairINSt7__cxx1112basic_stringIcSt11char_traitsIcESaIcEEEiESaIS7_EEC1EmRKS8_,_ZNSt12_Vector_baseISt4pairINSt7__cxx1112basic_stringIcSt11char_traitsIcESaIcEEEiESaIS7_EEC2EmRKS8_
	.section	.text._ZNSt12_Vector_baseISt4pairINSt7__cxx1112basic_stringIcSt11char_traitsIcESaIcEEEiESaIS7_EED2Ev,"axG",@progbits,_ZNSt12_Vector_baseISt4pairINSt7__cxx1112basic_stringIcSt11char_traitsIcESaIcEEEiESaIS7_EED5Ev,comdat
	.align	2
	.weak	_ZNSt12_Vector_baseISt4pairINSt7__cxx1112basic_stringIcSt11char_traitsIcESaIcEEEiESaIS7_EED2Ev
	.type	_ZNSt12_Vector_baseISt4pairINSt7__cxx1112basic_stringIcSt11char_traitsIcESaIcEEEiESaIS7_EED2Ev, %function
_ZNSt12_Vector_baseISt4pairINSt7__cxx1112basic_stringIcSt11char_traitsIcESaIcEEEiESaIS7_EED2Ev:
.LFB10880:
	.cfi_startproc
	.cfi_personality 0x9b,DW.ref.__gxx_personality_v0
	.cfi_lsda 0x1b,.LLSDA10880
	stp	x29, x30, [sp, -32]!
	.cfi_def_cfa_offset 32
	.cfi_offset 29, -32
	.cfi_offset 30, -24
	mov	x29, sp
	str	x0, [sp, 24]
	ldr	x0, [sp, 24]
	ldr	x3, [x0]
	ldr	x0, [sp, 24]
	ldr	x1, [x0, 16]
	ldr	x0, [sp, 24]
	ldr	x0, [x0]
	sub	x0, x1, x0
	asr	x1, x0, 3
	mov	x0, -3689348814741910324
	movk	x0, 0xcccd, lsl 0
	mul	x0, x1, x0
	mov	x2, x0
	mov	x1, x3
	ldr	x0, [sp, 24]
	bl	_ZNSt12_Vector_baseISt4pairINSt7__cxx1112basic_stringIcSt11char_traitsIcESaIcEEEiESaIS7_EE13_M_deallocateEPS7_m
	ldr	x0, [sp, 24]
	bl	_ZNSt12_Vector_baseISt4pairINSt7__cxx1112basic_stringIcSt11char_traitsIcESaIcEEEiESaIS7_EE12_Vector_implD1Ev
	nop
	ldp	x29, x30, [sp], 32
	.cfi_restore 30
	.cfi_restore 29
	.cfi_def_cfa_offset 0
	ret
	.cfi_endproc
.LFE10880:
	.section	.gcc_except_table
.LLSDA10880:
	.byte	0xff
	.byte	0xff
	.byte	0x1
	.uleb128 .LLSDACSE10880-.LLSDACSB10880
.LLSDACSB10880:
.LLSDACSE10880:
	.section	.text._ZNSt12_Vector_baseISt4pairINSt7__cxx1112basic_stringIcSt11char_traitsIcESaIcEEEiESaIS7_EED2Ev,"axG",@progbits,_ZNSt12_Vector_baseISt4pairINSt7__cxx1112basic_stringIcSt11char_traitsIcESaIcEEEiESaIS7_EED5Ev,comdat
	.size	_ZNSt12_Vector_baseISt4pairINSt7__cxx1112basic_stringIcSt11char_traitsIcESaIcEEEiESaIS7_EED2Ev, .-_ZNSt12_Vector_baseISt4pairINSt7__cxx1112basic_stringIcSt11char_traitsIcESaIcEEEiESaIS7_EED2Ev
	.weak	_ZNSt12_Vector_baseISt4pairINSt7__cxx1112basic_stringIcSt11char_traitsIcESaIcEEEiESaIS7_EED1Ev
	.set	_ZNSt12_Vector_baseISt4pairINSt7__cxx1112basic_stringIcSt11char_traitsIcESaIcEEEiESaIS7_EED1Ev,_ZNSt12_Vector_baseISt4pairINSt7__cxx1112basic_stringIcSt11char_traitsIcESaIcEEEiESaIS7_EED2Ev
	.section	.text._ZNSt6vectorISt4pairINSt7__cxx1112basic_stringIcSt11char_traitsIcESaIcEEEiESaIS7_EE21_M_default_initializeEm,"axG",@progbits,_ZNSt6vectorISt4pairINSt7__cxx1112basic_stringIcSt11char_traitsIcESaIcEEEiESaIS7_EE21_M_default_initializeEm,comdat
	.align	2
	.weak	_ZNSt6vectorISt4pairINSt7__cxx1112basic_stringIcSt11char_traitsIcESaIcEEEiESaIS7_EE21_M_default_initializeEm
	.type	_ZNSt6vectorISt4pairINSt7__cxx1112basic_stringIcSt11char_traitsIcESaIcEEEiESaIS7_EE21_M_default_initializeEm, %function
_ZNSt6vectorISt4pairINSt7__cxx1112basic_stringIcSt11char_traitsIcESaIcEEEiESaIS7_EE21_M_default_initializeEm:
.LFB10882:
	.cfi_startproc
	stp	x29, x30, [sp, -48]!
	.cfi_def_cfa_offset 48
	.cfi_offset 29, -48
	.cfi_offset 30, -40
	mov	x29, sp
	str	x19, [sp, 16]
	.cfi_offset 19, -32
	str	x0, [sp, 40]
	str	x1, [sp, 32]
	ldr	x0, [sp, 40]
	ldr	x19, [x0]
	ldr	x0, [sp, 40]
	bl	_ZNSt12_Vector_baseISt4pairINSt7__cxx1112basic_stringIcSt11char_traitsIcESaIcEEEiESaIS7_EE19_M_get_Tp_allocatorEv
	mov	x2, x0
	ldr	x1, [sp, 32]
	mov	x0, x19
	bl	_ZSt27__uninitialized_default_n_aIPSt4pairINSt7__cxx1112basic_stringIcSt11char_traitsIcESaIcEEEiEmS7_ET_S9_T0_RSaIT1_E
	mov	x1, x0
	ldr	x0, [sp, 40]
	str	x1, [x0, 8]
	nop
	ldr	x19, [sp, 16]
	ldp	x29, x30, [sp], 48
	.cfi_restore 30
	.cfi_restore 29
	.cfi_restore 19
	.cfi_def_cfa_offset 0
	ret
	.cfi_endproc
.LFE10882:
	.size	_ZNSt6vectorISt4pairINSt7__cxx1112basic_stringIcSt11char_traitsIcESaIcEEEiESaIS7_EE21_M_default_initializeEm, .-_ZNSt6vectorISt4pairINSt7__cxx1112basic_stringIcSt11char_traitsIcESaIcEEEiESaIS7_EE21_M_default_initializeEm
	.section	.text._ZNSt12_Vector_baseISt4pairINSt7__cxx1112basic_stringIcSt11char_traitsIcESaIcEEEiESaIS7_EE19_M_get_Tp_allocatorEv,"axG",@progbits,_ZNSt12_Vector_baseISt4pairINSt7__cxx1112basic_stringIcSt11char_traitsIcESaIcEEEiESaIS7_EE19_M_get_Tp_allocatorEv,comdat
	.align	2
	.weak	_ZNSt12_Vector_baseISt4pairINSt7__cxx1112basic_stringIcSt11char_traitsIcESaIcEEEiESaIS7_EE19_M_get_Tp_allocatorEv
	.type	_ZNSt12_Vector_baseISt4pairINSt7__cxx1112basic_stringIcSt11char_traitsIcESaIcEEEiESaIS7_EE19_M_get_Tp_allocatorEv, %function
_ZNSt12_Vector_baseISt4pairINSt7__cxx1112basic_stringIcSt11char_traitsIcESaIcEEEiESaIS7_EE19_M_get_Tp_allocatorEv:
.LFB10883:
	.cfi_startproc
	sub	sp, sp, #16
	.cfi_def_cfa_offset 16
	str	x0, [sp, 8]
	ldr	x0, [sp, 8]
	add	sp, sp, 16
	.cfi_def_cfa_offset 0
	ret
	.cfi_endproc
.LFE10883:
	.size	_ZNSt12_Vector_baseISt4pairINSt7__cxx1112basic_stringIcSt11char_traitsIcESaIcEEEiESaIS7_EE19_M_get_Tp_allocatorEv, .-_ZNSt12_Vector_baseISt4pairINSt7__cxx1112basic_stringIcSt11char_traitsIcESaIcEEEiESaIS7_EE19_M_get_Tp_allocatorEv
	.section	.text._ZSt8_DestroyIPSt4pairINSt7__cxx1112basic_stringIcSt11char_traitsIcESaIcEEEiES7_EvT_S9_RSaIT0_E,"axG",@progbits,_ZSt8_DestroyIPSt4pairINSt7__cxx1112basic_stringIcSt11char_traitsIcESaIcEEEiES7_EvT_S9_RSaIT0_E,comdat
	.align	2
	.weak	_ZSt8_DestroyIPSt4pairINSt7__cxx1112basic_stringIcSt11char_traitsIcESaIcEEEiES7_EvT_S9_RSaIT0_E
	.type	_ZSt8_DestroyIPSt4pairINSt7__cxx1112basic_stringIcSt11char_traitsIcESaIcEEEiES7_EvT_S9_RSaIT0_E, %function
_ZSt8_DestroyIPSt4pairINSt7__cxx1112basic_stringIcSt11char_traitsIcESaIcEEEiES7_EvT_S9_RSaIT0_E:
.LFB10884:
	.cfi_startproc
	stp	x29, x30, [sp, -48]!
	.cfi_def_cfa_offset 48
	.cfi_offset 29, -48
	.cfi_offset 30, -40
	mov	x29, sp
	str	x0, [sp, 40]
	str	x1, [sp, 32]
	str	x2, [sp, 24]
	ldr	x1, [sp, 32]
	ldr	x0, [sp, 40]
	bl	_ZSt8_DestroyIPSt4pairINSt7__cxx1112basic_stringIcSt11char_traitsIcESaIcEEEiEEvT_S9_
	nop
	ldp	x29, x30, [sp], 48
	.cfi_restore 30
	.cfi_restore 29
	.cfi_def_cfa_offset 0
	ret
	.cfi_endproc
.LFE10884:
	.size	_ZSt8_DestroyIPSt4pairINSt7__cxx1112basic_stringIcSt11char_traitsIcESaIcEEEiES7_EvT_S9_RSaIT0_E, .-_ZSt8_DestroyIPSt4pairINSt7__cxx1112basic_stringIcSt11char_traitsIcESaIcEEEiES7_EvT_S9_RSaIT0_E
	.section	.text._ZN9__gnu_cxx17__normal_iteratorIPSt4pairINSt7__cxx1112basic_stringIcSt11char_traitsIcESaIcEEEiESt6vectorIS8_SaIS8_EEEC2ERKS9_,"axG",@progbits,_ZN9__gnu_cxx17__normal_iteratorIPSt4pairINSt7__cxx1112basic_stringIcSt11char_traitsIcESaIcEEEiESt6vectorIS8_SaIS8_EEEC5ERKS9_,comdat
	.align	2
	.weak	_ZN9__gnu_cxx17__normal_iteratorIPSt4pairINSt7__cxx1112basic_stringIcSt11char_traitsIcESaIcEEEiESt6vectorIS8_SaIS8_EEEC2ERKS9_
	.type	_ZN9__gnu_cxx17__normal_iteratorIPSt4pairINSt7__cxx1112basic_stringIcSt11char_traitsIcESaIcEEEiESt6vectorIS8_SaIS8_EEEC2ERKS9_, %function
_ZN9__gnu_cxx17__normal_iteratorIPSt4pairINSt7__cxx1112basic_stringIcSt11char_traitsIcESaIcEEEiESt6vectorIS8_SaIS8_EEEC2ERKS9_:
.LFB10886:
	.cfi_startproc
	sub	sp, sp, #16
	.cfi_def_cfa_offset 16
	str	x0, [sp, 8]
	str	x1, [sp]
	ldr	x0, [sp]
	ldr	x1, [x0]
	ldr	x0, [sp, 8]
	str	x1, [x0]
	nop
	add	sp, sp, 16
	.cfi_def_cfa_offset 0
	ret
	.cfi_endproc
.LFE10886:
	.size	_ZN9__gnu_cxx17__normal_iteratorIPSt4pairINSt7__cxx1112basic_stringIcSt11char_traitsIcESaIcEEEiESt6vectorIS8_SaIS8_EEEC2ERKS9_, .-_ZN9__gnu_cxx17__normal_iteratorIPSt4pairINSt7__cxx1112basic_stringIcSt11char_traitsIcESaIcEEEiESt6vectorIS8_SaIS8_EEEC2ERKS9_
	.weak	_ZN9__gnu_cxx17__normal_iteratorIPSt4pairINSt7__cxx1112basic_stringIcSt11char_traitsIcESaIcEEEiESt6vectorIS8_SaIS8_EEEC1ERKS9_
	.set	_ZN9__gnu_cxx17__normal_iteratorIPSt4pairINSt7__cxx1112basic_stringIcSt11char_traitsIcESaIcEEEiESt6vectorIS8_SaIS8_EEEC1ERKS9_,_ZN9__gnu_cxx17__normal_iteratorIPSt4pairINSt7__cxx1112basic_stringIcSt11char_traitsIcESaIcEEEiESt6vectorIS8_SaIS8_EEEC2ERKS9_
	.section	.text._ZN9__gnu_cxx5__ops16__iter_comp_iterIPFbRSt4pairINSt7__cxx1112basic_stringIcSt11char_traitsIcESaIcEEEiESA_EEENS0_15_Iter_comp_iterIT_EESE_,"axG",@progbits,_ZN9__gnu_cxx5__ops16__iter_comp_iterIPFbRSt4pairINSt7__cxx1112basic_stringIcSt11char_traitsIcESaIcEEEiESA_EEENS0_15_Iter_comp_iterIT_EESE_,comdat
	.align	2
	.weak	_ZN9__gnu_cxx5__ops16__iter_comp_iterIPFbRSt4pairINSt7__cxx1112basic_stringIcSt11char_traitsIcESaIcEEEiESA_EEENS0_15_Iter_comp_iterIT_EESE_
	.type	_ZN9__gnu_cxx5__ops16__iter_comp_iterIPFbRSt4pairINSt7__cxx1112basic_stringIcSt11char_traitsIcESaIcEEEiESA_EEENS0_15_Iter_comp_iterIT_EESE_, %function
_ZN9__gnu_cxx5__ops16__iter_comp_iterIPFbRSt4pairINSt7__cxx1112basic_stringIcSt11char_traitsIcESaIcEEEiESA_EEENS0_15_Iter_comp_iterIT_EESE_:
.LFB10888:
	.cfi_startproc
	stp	x29, x30, [sp, -48]!
	.cfi_def_cfa_offset 48
	.cfi_offset 29, -48
	.cfi_offset 30, -40
	mov	x29, sp
	str	x0, [sp, 24]
	add	x0, sp, 24
	bl	_ZSt4moveIRPFbRSt4pairINSt7__cxx1112basic_stringIcSt11char_traitsIcESaIcEEEiES8_EEONSt16remove_referenceIT_E4typeEOSD_
	ldr	x1, [x0]
	add	x0, sp, 40
	bl	_ZN9__gnu_cxx5__ops15_Iter_comp_iterIPFbRSt4pairINSt7__cxx1112basic_stringIcSt11char_traitsIcESaIcEEEiESA_EEC1ESC_
	ldr	x0, [sp, 40]
	ldp	x29, x30, [sp], 48
	.cfi_restore 30
	.cfi_restore 29
	.cfi_def_cfa_offset 0
	ret
	.cfi_endproc
.LFE10888:
	.size	_ZN9__gnu_cxx5__ops16__iter_comp_iterIPFbRSt4pairINSt7__cxx1112basic_stringIcSt11char_traitsIcESaIcEEEiESA_EEENS0_15_Iter_comp_iterIT_EESE_, .-_ZN9__gnu_cxx5__ops16__iter_comp_iterIPFbRSt4pairINSt7__cxx1112basic_stringIcSt11char_traitsIcESaIcEEEiESA_EEENS0_15_Iter_comp_iterIT_EESE_
	.section	.text._ZSt6__sortIN9__gnu_cxx17__normal_iteratorIPSt4pairINSt7__cxx1112basic_stringIcSt11char_traitsIcESaIcEEEiESt6vectorIS9_SaIS9_EEEENS0_5__ops15_Iter_comp_iterIPFbRS9_SH_EEEEvT_SL_T0_,"axG",@progbits,_ZSt6__sortIN9__gnu_cxx17__normal_iteratorIPSt4pairINSt7__cxx1112basic_stringIcSt11char_traitsIcESaIcEEEiESt6vectorIS9_SaIS9_EEEENS0_5__ops15_Iter_comp_iterIPFbRS9_SH_EEEEvT_SL_T0_,comdat
	.align	2
	.weak	_ZSt6__sortIN9__gnu_cxx17__normal_iteratorIPSt4pairINSt7__cxx1112basic_stringIcSt11char_traitsIcESaIcEEEiESt6vectorIS9_SaIS9_EEEENS0_5__ops15_Iter_comp_iterIPFbRS9_SH_EEEEvT_SL_T0_
	.type	_ZSt6__sortIN9__gnu_cxx17__normal_iteratorIPSt4pairINSt7__cxx1112basic_stringIcSt11char_traitsIcESaIcEEEiESt6vectorIS9_SaIS9_EEEENS0_5__ops15_Iter_comp_iterIPFbRS9_SH_EEEEvT_SL_T0_, %function
_ZSt6__sortIN9__gnu_cxx17__normal_iteratorIPSt4pairINSt7__cxx1112basic_stringIcSt11char_traitsIcESaIcEEEiESt6vectorIS9_SaIS9_EEEENS0_5__ops15_Iter_comp_iterIPFbRS9_SH_EEEEvT_SL_T0_:
.LFB10889:
	.cfi_startproc
	stp	x29, x30, [sp, -48]!
	.cfi_def_cfa_offset 48
	.cfi_offset 29, -48
	.cfi_offset 30, -40
	mov	x29, sp
	str	x0, [sp, 40]
	str	x1, [sp, 32]
	str	x2, [sp, 24]
	add	x1, sp, 32
	add	x0, sp, 40
	bl	_ZN9__gnu_cxxneIPSt4pairINSt7__cxx1112basic_stringIcSt11char_traitsIcESaIcEEEiESt6vectorIS8_SaIS8_EEEEbRKNS_17__normal_iteratorIT_T0_EESI_
	and	w0, w0, 255
	cmp	w0, 0
	beq	.L201
	add	x1, sp, 40
	add	x0, sp, 32
	bl	_ZN9__gnu_cxxmiIPSt4pairINSt7__cxx1112basic_stringIcSt11char_traitsIcESaIcEEEiESt6vectorIS8_SaIS8_EEEENS_17__normal_iteratorIT_T0_E15difference_typeERKSG_SJ_
	bl	_ZSt4__lgl
	lsl	x0, x0, 1
	ldr	x3, [sp, 24]
	mov	x2, x0
	ldr	x1, [sp, 32]
	ldr	x0, [sp, 40]
	bl	_ZSt16__introsort_loopIN9__gnu_cxx17__normal_iteratorIPSt4pairINSt7__cxx1112basic_stringIcSt11char_traitsIcESaIcEEEiESt6vectorIS9_SaIS9_EEEElNS0_5__ops15_Iter_comp_iterIPFbRS9_SH_EEEEvT_SL_T0_T1_
	ldr	x2, [sp, 24]
	ldr	x1, [sp, 32]
	ldr	x0, [sp, 40]
	bl	_ZSt22__final_insertion_sortIN9__gnu_cxx17__normal_iteratorIPSt4pairINSt7__cxx1112basic_stringIcSt11char_traitsIcESaIcEEEiESt6vectorIS9_SaIS9_EEEENS0_5__ops15_Iter_comp_iterIPFbRS9_SH_EEEEvT_SL_T0_
.L201:
	nop
	ldp	x29, x30, [sp], 48
	.cfi_restore 30
	.cfi_restore 29
	.cfi_def_cfa_offset 0
	ret
	.cfi_endproc
.LFE10889:
	.size	_ZSt6__sortIN9__gnu_cxx17__normal_iteratorIPSt4pairINSt7__cxx1112basic_stringIcSt11char_traitsIcESaIcEEEiESt6vectorIS9_SaIS9_EEEENS0_5__ops15_Iter_comp_iterIPFbRS9_SH_EEEEvT_SL_T0_, .-_ZSt6__sortIN9__gnu_cxx17__normal_iteratorIPSt4pairINSt7__cxx1112basic_stringIcSt11char_traitsIcESaIcEEEiESt6vectorIS9_SaIS9_EEEENS0_5__ops15_Iter_comp_iterIPFbRS9_SH_EEEEvT_SL_T0_
	.section	.text._ZN9__gnu_cxx13new_allocatorIxEC2Ev,"axG",@progbits,_ZN9__gnu_cxx13new_allocatorIxEC5Ev,comdat
	.align	2
	.weak	_ZN9__gnu_cxx13new_allocatorIxEC2Ev
	.type	_ZN9__gnu_cxx13new_allocatorIxEC2Ev, %function
_ZN9__gnu_cxx13new_allocatorIxEC2Ev:
.LFB11088:
	.cfi_startproc
	sub	sp, sp, #16
	.cfi_def_cfa_offset 16
	str	x0, [sp, 8]
	nop
	add	sp, sp, 16
	.cfi_def_cfa_offset 0
	ret
	.cfi_endproc
.LFE11088:
	.size	_ZN9__gnu_cxx13new_allocatorIxEC2Ev, .-_ZN9__gnu_cxx13new_allocatorIxEC2Ev
	.weak	_ZN9__gnu_cxx13new_allocatorIxEC1Ev
	.set	_ZN9__gnu_cxx13new_allocatorIxEC1Ev,_ZN9__gnu_cxx13new_allocatorIxEC2Ev
	.section	.text._ZNSt16allocator_traitsISaIxEE10deallocateERS0_Pxm,"axG",@progbits,_ZNSt16allocator_traitsISaIxEE10deallocateERS0_Pxm,comdat
	.align	2
	.weak	_ZNSt16allocator_traitsISaIxEE10deallocateERS0_Pxm
	.type	_ZNSt16allocator_traitsISaIxEE10deallocateERS0_Pxm, %function
_ZNSt16allocator_traitsISaIxEE10deallocateERS0_Pxm:
.LFB11090:
	.cfi_startproc
	stp	x29, x30, [sp, -48]!
	.cfi_def_cfa_offset 48
	.cfi_offset 29, -48
	.cfi_offset 30, -40
	mov	x29, sp
	str	x0, [sp, 40]
	str	x1, [sp, 32]
	str	x2, [sp, 24]
	ldr	x2, [sp, 24]
	ldr	x1, [sp, 32]
	ldr	x0, [sp, 40]
	bl	_ZN9__gnu_cxx13new_allocatorIxE10deallocateEPxm
	nop
	ldp	x29, x30, [sp], 48
	.cfi_restore 30
	.cfi_restore 29
	.cfi_def_cfa_offset 0
	ret
	.cfi_endproc
.LFE11090:
	.size	_ZNSt16allocator_traitsISaIxEE10deallocateERS0_Pxm, .-_ZNSt16allocator_traitsISaIxEE10deallocateERS0_Pxm
	.section	.text._ZSt7forwardIxEOT_RNSt16remove_referenceIS0_E4typeE,"axG",@progbits,_ZSt7forwardIxEOT_RNSt16remove_referenceIS0_E4typeE,comdat
	.align	2
	.weak	_ZSt7forwardIxEOT_RNSt16remove_referenceIS0_E4typeE
	.type	_ZSt7forwardIxEOT_RNSt16remove_referenceIS0_E4typeE, %function
_ZSt7forwardIxEOT_RNSt16remove_referenceIS0_E4typeE:
.LFB11091:
	.cfi_startproc
	sub	sp, sp, #16
	.cfi_def_cfa_offset 16
	str	x0, [sp, 8]
	ldr	x0, [sp, 8]
	add	sp, sp, 16
	.cfi_def_cfa_offset 0
	ret
	.cfi_endproc
.LFE11091:
	.size	_ZSt7forwardIxEOT_RNSt16remove_referenceIS0_E4typeE, .-_ZSt7forwardIxEOT_RNSt16remove_referenceIS0_E4typeE
	.section	.text._ZNSt16allocator_traitsISaIxEE9constructIxJxEEEvRS0_PT_DpOT0_,"axG",@progbits,_ZNSt16allocator_traitsISaIxEE9constructIxJxEEEvRS0_PT_DpOT0_,comdat
	.align	2
	.weak	_ZNSt16allocator_traitsISaIxEE9constructIxJxEEEvRS0_PT_DpOT0_
	.type	_ZNSt16allocator_traitsISaIxEE9constructIxJxEEEvRS0_PT_DpOT0_, %function
_ZNSt16allocator_traitsISaIxEE9constructIxJxEEEvRS0_PT_DpOT0_:
.LFB11092:
	.cfi_startproc
	stp	x29, x30, [sp, -48]!
	.cfi_def_cfa_offset 48
	.cfi_offset 29, -48
	.cfi_offset 30, -40
	mov	x29, sp
	str	x0, [sp, 40]
	str	x1, [sp, 32]
	str	x2, [sp, 24]
	ldr	x0, [sp, 24]
	bl	_ZSt7forwardIxEOT_RNSt16remove_referenceIS0_E4typeE
	mov	x2, x0
	ldr	x1, [sp, 32]
	ldr	x0, [sp, 40]
	bl	_ZN9__gnu_cxx13new_allocatorIxE9constructIxJxEEEvPT_DpOT0_
	nop
	ldp	x29, x30, [sp], 48
	.cfi_restore 30
	.cfi_restore 29
	.cfi_def_cfa_offset 0
	ret
	.cfi_endproc
.LFE11092:
	.size	_ZNSt16allocator_traitsISaIxEE9constructIxJxEEEvRS0_PT_DpOT0_, .-_ZNSt16allocator_traitsISaIxEE9constructIxJxEEEvRS0_PT_DpOT0_
	.section	.text._ZNSt6vectorIxSaIxEE3endEv,"axG",@progbits,_ZNSt6vectorIxSaIxEE3endEv,comdat
	.align	2
	.weak	_ZNSt6vectorIxSaIxEE3endEv
	.type	_ZNSt6vectorIxSaIxEE3endEv, %function
_ZNSt6vectorIxSaIxEE3endEv:
.LFB11093:
	.cfi_startproc
	stp	x29, x30, [sp, -48]!
	.cfi_def_cfa_offset 48
	.cfi_offset 29, -48
	.cfi_offset 30, -40
	mov	x29, sp
	str	x0, [sp, 24]
	ldr	x0, [sp, 24]
	add	x1, x0, 8
	add	x0, sp, 40
	bl	_ZN9__gnu_cxx17__normal_iteratorIPxSt6vectorIxSaIxEEEC1ERKS1_
	ldr	x0, [sp, 40]
	ldp	x29, x30, [sp], 48
	.cfi_restore 30
	.cfi_restore 29
	.cfi_def_cfa_offset 0
	ret
	.cfi_endproc
.LFE11093:
	.size	_ZNSt6vectorIxSaIxEE3endEv, .-_ZNSt6vectorIxSaIxEE3endEv
	.section	.rodata
	.align	3
.LC3:
	.string	"vector::_M_realloc_insert"
	.section	.text._ZNSt6vectorIxSaIxEE17_M_realloc_insertIJxEEEvN9__gnu_cxx17__normal_iteratorIPxS1_EEDpOT_,"axG",@progbits,_ZNSt6vectorIxSaIxEE17_M_realloc_insertIJxEEEvN9__gnu_cxx17__normal_iteratorIPxS1_EEDpOT_,comdat
	.align	2
	.weak	_ZNSt6vectorIxSaIxEE17_M_realloc_insertIJxEEEvN9__gnu_cxx17__normal_iteratorIPxS1_EEDpOT_
	.type	_ZNSt6vectorIxSaIxEE17_M_realloc_insertIJxEEEvN9__gnu_cxx17__normal_iteratorIPxS1_EEDpOT_, %function
_ZNSt6vectorIxSaIxEE17_M_realloc_insertIJxEEEvN9__gnu_cxx17__normal_iteratorIPxS1_EEDpOT_:
.LFB11094:
	.cfi_startproc
	stp	x29, x30, [sp, -128]!
	.cfi_def_cfa_offset 128
	.cfi_offset 29, -128
	.cfi_offset 30, -120
	mov	x29, sp
	stp	x19, x20, [sp, 16]
	.cfi_offset 19, -112
	.cfi_offset 20, -104
	str	x0, [sp, 56]
	str	x1, [sp, 48]
	str	x2, [sp, 40]
	adrp	x0, .LC3
	add	x2, x0, :lo12:.LC3
	mov	x1, 1
	ldr	x0, [sp, 56]
	bl	_ZNKSt6vectorIxSaIxEE12_M_check_lenEmPKc
	str	x0, [sp, 120]
	ldr	x0, [sp, 56]
	ldr	x0, [x0]
	str	x0, [sp, 112]
	ldr	x0, [sp, 56]
	ldr	x0, [x0, 8]
	str	x0, [sp, 104]
	ldr	x0, [sp, 56]
	bl	_ZNSt6vectorIxSaIxEE5beginEv
	str	x0, [sp, 72]
	add	x1, sp, 72
	add	x0, sp, 48
	bl	_ZN9__gnu_cxxmiIPxSt6vectorIxSaIxEEEENS_17__normal_iteratorIT_T0_E15difference_typeERKS8_SB_
	str	x0, [sp, 96]
	ldr	x0, [sp, 56]
	ldr	x1, [sp, 120]
	bl	_ZNSt12_Vector_baseIxSaIxEE11_M_allocateEm
	str	x0, [sp, 88]
	ldr	x0, [sp, 88]
	str	x0, [sp, 80]
	ldr	x19, [sp, 56]
	ldr	x0, [sp, 96]
	lsl	x0, x0, 3
	ldr	x1, [sp, 88]
	add	x20, x1, x0
	ldr	x0, [sp, 40]
	bl	_ZSt7forwardIxEOT_RNSt16remove_referenceIS0_E4typeE
	mov	x2, x0
	mov	x1, x20
	mov	x0, x19
	bl	_ZNSt16allocator_traitsISaIxEE9constructIxJxEEEvRS0_PT_DpOT0_
	str	xzr, [sp, 80]
	add	x0, sp, 48
	bl	_ZNK9__gnu_cxx17__normal_iteratorIPxSt6vectorIxSaIxEEE4baseEv
	ldr	x19, [x0]
	ldr	x0, [sp, 56]
	bl	_ZNSt12_Vector_baseIxSaIxEE19_M_get_Tp_allocatorEv
	mov	x3, x0
	ldr	x2, [sp, 88]
	mov	x1, x19
	ldr	x0, [sp, 112]
	bl	_ZNSt6vectorIxSaIxEE11_S_relocateEPxS2_S2_RS0_
	str	x0, [sp, 80]
	ldr	x0, [sp, 80]
	add	x0, x0, 8
	str	x0, [sp, 80]
	add	x0, sp, 48
	bl	_ZNK9__gnu_cxx17__normal_iteratorIPxSt6vectorIxSaIxEEE4baseEv
	ldr	x19, [x0]
	ldr	x0, [sp, 56]
	bl	_ZNSt12_Vector_baseIxSaIxEE19_M_get_Tp_allocatorEv
	mov	x3, x0
	ldr	x2, [sp, 80]
	ldr	x1, [sp, 104]
	mov	x0, x19
	bl	_ZNSt6vectorIxSaIxEE11_S_relocateEPxS2_S2_RS0_
	str	x0, [sp, 80]
	ldr	x3, [sp, 56]
	ldr	x0, [sp, 56]
	ldr	x1, [x0, 16]
	ldr	x0, [sp, 112]
	sub	x0, x1, x0
	asr	x0, x0, 3
	mov	x2, x0
	ldr	x1, [sp, 112]
	mov	x0, x3
	bl	_ZNSt12_Vector_baseIxSaIxEE13_M_deallocateEPxm
	ldr	x0, [sp, 56]
	ldr	x1, [sp, 88]
	str	x1, [x0]
	ldr	x0, [sp, 56]
	ldr	x1, [sp, 80]
	str	x1, [x0, 8]
	ldr	x0, [sp, 120]
	lsl	x0, x0, 3
	ldr	x1, [sp, 88]
	add	x1, x1, x0
	ldr	x0, [sp, 56]
	str	x1, [x0, 16]
	nop
	ldp	x19, x20, [sp, 16]
	ldp	x29, x30, [sp], 128
	.cfi_restore 30
	.cfi_restore 29
	.cfi_restore 19
	.cfi_restore 20
	.cfi_def_cfa_offset 0
	ret
	.cfi_endproc
.LFE11094:
	.size	_ZNSt6vectorIxSaIxEE17_M_realloc_insertIJxEEEvN9__gnu_cxx17__normal_iteratorIPxS1_EEDpOT_, .-_ZNSt6vectorIxSaIxEE17_M_realloc_insertIJxEEEvN9__gnu_cxx17__normal_iteratorIPxS1_EEDpOT_
	.section	.text._ZNSt6vectorIxSaIxEE4backEv,"axG",@progbits,_ZNSt6vectorIxSaIxEE4backEv,comdat
	.align	2
	.weak	_ZNSt6vectorIxSaIxEE4backEv
	.type	_ZNSt6vectorIxSaIxEE4backEv, %function
_ZNSt6vectorIxSaIxEE4backEv:
.LFB11098:
	.cfi_startproc
	stp	x29, x30, [sp, -48]!
	.cfi_def_cfa_offset 48
	.cfi_offset 29, -48
	.cfi_offset 30, -40
	mov	x29, sp
	str	x0, [sp, 24]
	ldr	x0, [sp, 24]
	bl	_ZNSt6vectorIxSaIxEE3endEv
	str	x0, [sp, 40]
	add	x0, sp, 40
	mov	x1, 1
	bl	_ZNK9__gnu_cxx17__normal_iteratorIPxSt6vectorIxSaIxEEEmiEl
	str	x0, [sp, 32]
	add	x0, sp, 32
	bl	_ZNK9__gnu_cxx17__normal_iteratorIPxSt6vectorIxSaIxEEEdeEv
	ldp	x29, x30, [sp], 48
	.cfi_restore 30
	.cfi_restore 29
	.cfi_def_cfa_offset 0
	ret
	.cfi_endproc
.LFE11098:
	.size	_ZNSt6vectorIxSaIxEE4backEv, .-_ZNSt6vectorIxSaIxEE4backEv
	.section	.text._ZN9__gnu_cxxeqIPcNSt7__cxx1112basic_stringIcSt11char_traitsIcESaIcEEEEEbRKNS_17__normal_iteratorIT_T0_EESD_,"axG",@progbits,_ZN9__gnu_cxxeqIPcNSt7__cxx1112basic_stringIcSt11char_traitsIcESaIcEEEEEbRKNS_17__normal_iteratorIT_T0_EESD_,comdat
	.align	2
	.weak	_ZN9__gnu_cxxeqIPcNSt7__cxx1112basic_stringIcSt11char_traitsIcESaIcEEEEEbRKNS_17__normal_iteratorIT_T0_EESD_
	.type	_ZN9__gnu_cxxeqIPcNSt7__cxx1112basic_stringIcSt11char_traitsIcESaIcEEEEEbRKNS_17__normal_iteratorIT_T0_EESD_, %function
_ZN9__gnu_cxxeqIPcNSt7__cxx1112basic_stringIcSt11char_traitsIcESaIcEEEEEbRKNS_17__normal_iteratorIT_T0_EESD_:
.LFB11099:
	.cfi_startproc
	stp	x29, x30, [sp, -48]!
	.cfi_def_cfa_offset 48
	.cfi_offset 29, -48
	.cfi_offset 30, -40
	mov	x29, sp
	str	x19, [sp, 16]
	.cfi_offset 19, -32
	str	x0, [sp, 40]
	str	x1, [sp, 32]
	ldr	x0, [sp, 40]
	bl	_ZNK9__gnu_cxx17__normal_iteratorIPcNSt7__cxx1112basic_stringIcSt11char_traitsIcESaIcEEEE4baseEv
	ldr	x19, [x0]
	ldr	x0, [sp, 32]
	bl	_ZNK9__gnu_cxx17__normal_iteratorIPcNSt7__cxx1112basic_stringIcSt11char_traitsIcESaIcEEEE4baseEv
	ldr	x0, [x0]
	cmp	x19, x0
	cset	w0, eq
	and	w0, w0, 255
	ldr	x19, [sp, 16]
	ldp	x29, x30, [sp], 48
	.cfi_restore 30
	.cfi_restore 29
	.cfi_restore 19
	.cfi_def_cfa_offset 0
	ret
	.cfi_endproc
.LFE11099:
	.size	_ZN9__gnu_cxxeqIPcNSt7__cxx1112basic_stringIcSt11char_traitsIcESaIcEEEEEbRKNS_17__normal_iteratorIT_T0_EESD_, .-_ZN9__gnu_cxxeqIPcNSt7__cxx1112basic_stringIcSt11char_traitsIcESaIcEEEEEbRKNS_17__normal_iteratorIT_T0_EESD_
	.section	.text._ZN9__gnu_cxx17__normal_iteratorIPcNSt7__cxx1112basic_stringIcSt11char_traitsIcESaIcEEEEmmEv,"axG",@progbits,_ZN9__gnu_cxx17__normal_iteratorIPcNSt7__cxx1112basic_stringIcSt11char_traitsIcESaIcEEEEmmEv,comdat
	.align	2
	.weak	_ZN9__gnu_cxx17__normal_iteratorIPcNSt7__cxx1112basic_stringIcSt11char_traitsIcESaIcEEEEmmEv
	.type	_ZN9__gnu_cxx17__normal_iteratorIPcNSt7__cxx1112basic_stringIcSt11char_traitsIcESaIcEEEEmmEv, %function
_ZN9__gnu_cxx17__normal_iteratorIPcNSt7__cxx1112basic_stringIcSt11char_traitsIcESaIcEEEEmmEv:
.LFB11100:
	.cfi_startproc
	sub	sp, sp, #16
	.cfi_def_cfa_offset 16
	str	x0, [sp, 8]
	ldr	x0, [sp, 8]
	ldr	x0, [x0]
	sub	x1, x0, #1
	ldr	x0, [sp, 8]
	str	x1, [x0]
	ldr	x0, [sp, 8]
	add	sp, sp, 16
	.cfi_def_cfa_offset 0
	ret
	.cfi_endproc
.LFE11100:
	.size	_ZN9__gnu_cxx17__normal_iteratorIPcNSt7__cxx1112basic_stringIcSt11char_traitsIcESaIcEEEEmmEv, .-_ZN9__gnu_cxx17__normal_iteratorIPcNSt7__cxx1112basic_stringIcSt11char_traitsIcESaIcEEEEmmEv
	.section	.text._ZN9__gnu_cxxltIPcNSt7__cxx1112basic_stringIcSt11char_traitsIcESaIcEEEEEbRKNS_17__normal_iteratorIT_T0_EESD_,"axG",@progbits,_ZN9__gnu_cxxltIPcNSt7__cxx1112basic_stringIcSt11char_traitsIcESaIcEEEEEbRKNS_17__normal_iteratorIT_T0_EESD_,comdat
	.align	2
	.weak	_ZN9__gnu_cxxltIPcNSt7__cxx1112basic_stringIcSt11char_traitsIcESaIcEEEEEbRKNS_17__normal_iteratorIT_T0_EESD_
	.type	_ZN9__gnu_cxxltIPcNSt7__cxx1112basic_stringIcSt11char_traitsIcESaIcEEEEEbRKNS_17__normal_iteratorIT_T0_EESD_, %function
_ZN9__gnu_cxxltIPcNSt7__cxx1112basic_stringIcSt11char_traitsIcESaIcEEEEEbRKNS_17__normal_iteratorIT_T0_EESD_:
.LFB11101:
	.cfi_startproc
	stp	x29, x30, [sp, -48]!
	.cfi_def_cfa_offset 48
	.cfi_offset 29, -48
	.cfi_offset 30, -40
	mov	x29, sp
	str	x19, [sp, 16]
	.cfi_offset 19, -32
	str	x0, [sp, 40]
	str	x1, [sp, 32]
	ldr	x0, [sp, 40]
	bl	_ZNK9__gnu_cxx17__normal_iteratorIPcNSt7__cxx1112basic_stringIcSt11char_traitsIcESaIcEEEE4baseEv
	ldr	x19, [x0]
	ldr	x0, [sp, 32]
	bl	_ZNK9__gnu_cxx17__normal_iteratorIPcNSt7__cxx1112basic_stringIcSt11char_traitsIcESaIcEEEE4baseEv
	ldr	x0, [x0]
	cmp	x19, x0
	cset	w0, cc
	and	w0, w0, 255
	ldr	x19, [sp, 16]
	ldp	x29, x30, [sp], 48
	.cfi_restore 30
	.cfi_restore 29
	.cfi_restore 19
	.cfi_def_cfa_offset 0
	ret
	.cfi_endproc
.LFE11101:
	.size	_ZN9__gnu_cxxltIPcNSt7__cxx1112basic_stringIcSt11char_traitsIcESaIcEEEEEbRKNS_17__normal_iteratorIT_T0_EESD_, .-_ZN9__gnu_cxxltIPcNSt7__cxx1112basic_stringIcSt11char_traitsIcESaIcEEEEEbRKNS_17__normal_iteratorIT_T0_EESD_
	.section	.text._ZSt9iter_swapIN9__gnu_cxx17__normal_iteratorIPcNSt7__cxx1112basic_stringIcSt11char_traitsIcESaIcEEEEES9_EvT_T0_,"axG",@progbits,_ZSt9iter_swapIN9__gnu_cxx17__normal_iteratorIPcNSt7__cxx1112basic_stringIcSt11char_traitsIcESaIcEEEEES9_EvT_T0_,comdat
	.align	2
	.weak	_ZSt9iter_swapIN9__gnu_cxx17__normal_iteratorIPcNSt7__cxx1112basic_stringIcSt11char_traitsIcESaIcEEEEES9_EvT_T0_
	.type	_ZSt9iter_swapIN9__gnu_cxx17__normal_iteratorIPcNSt7__cxx1112basic_stringIcSt11char_traitsIcESaIcEEEEES9_EvT_T0_, %function
_ZSt9iter_swapIN9__gnu_cxx17__normal_iteratorIPcNSt7__cxx1112basic_stringIcSt11char_traitsIcESaIcEEEEES9_EvT_T0_:
.LFB11102:
	.cfi_startproc
	stp	x29, x30, [sp, -48]!
	.cfi_def_cfa_offset 48
	.cfi_offset 29, -48
	.cfi_offset 30, -40
	mov	x29, sp
	str	x19, [sp, 16]
	.cfi_offset 19, -32
	str	x0, [sp, 40]
	str	x1, [sp, 32]
	add	x0, sp, 40
	bl	_ZNK9__gnu_cxx17__normal_iteratorIPcNSt7__cxx1112basic_stringIcSt11char_traitsIcESaIcEEEEdeEv
	mov	x19, x0
	add	x0, sp, 32
	bl	_ZNK9__gnu_cxx17__normal_iteratorIPcNSt7__cxx1112basic_stringIcSt11char_traitsIcESaIcEEEEdeEv
	mov	x1, x0
	mov	x0, x19
	bl	_ZSt4swapIcENSt9enable_ifIXsrSt6__and_IJSt6__not_ISt15__is_tuple_likeIT_EESt21is_move_constructibleIS4_ESt18is_move_assignableIS4_EEE5valueEvE4typeERS4_SE_
	nop
	ldr	x19, [sp, 16]
	ldp	x29, x30, [sp], 48
	.cfi_restore 30
	.cfi_restore 29
	.cfi_restore 19
	.cfi_def_cfa_offset 0
	ret
	.cfi_endproc
.LFE11102:
	.size	_ZSt9iter_swapIN9__gnu_cxx17__normal_iteratorIPcNSt7__cxx1112basic_stringIcSt11char_traitsIcESaIcEEEEES9_EvT_T0_, .-_ZSt9iter_swapIN9__gnu_cxx17__normal_iteratorIPcNSt7__cxx1112basic_stringIcSt11char_traitsIcESaIcEEEEES9_EvT_T0_
	.section	.text._ZN9__gnu_cxx17__normal_iteratorIPcNSt7__cxx1112basic_stringIcSt11char_traitsIcESaIcEEEEppEv,"axG",@progbits,_ZN9__gnu_cxx17__normal_iteratorIPcNSt7__cxx1112basic_stringIcSt11char_traitsIcESaIcEEEEppEv,comdat
	.align	2
	.weak	_ZN9__gnu_cxx17__normal_iteratorIPcNSt7__cxx1112basic_stringIcSt11char_traitsIcESaIcEEEEppEv
	.type	_ZN9__gnu_cxx17__normal_iteratorIPcNSt7__cxx1112basic_stringIcSt11char_traitsIcESaIcEEEEppEv, %function
_ZN9__gnu_cxx17__normal_iteratorIPcNSt7__cxx1112basic_stringIcSt11char_traitsIcESaIcEEEEppEv:
.LFB11103:
	.cfi_startproc
	sub	sp, sp, #16
	.cfi_def_cfa_offset 16
	str	x0, [sp, 8]
	ldr	x0, [sp, 8]
	ldr	x0, [x0]
	add	x1, x0, 1
	ldr	x0, [sp, 8]
	str	x1, [x0]
	ldr	x0, [sp, 8]
	add	sp, sp, 16
	.cfi_def_cfa_offset 0
	ret
	.cfi_endproc
.LFE11103:
	.size	_ZN9__gnu_cxx17__normal_iteratorIPcNSt7__cxx1112basic_stringIcSt11char_traitsIcESaIcEEEEppEv, .-_ZN9__gnu_cxx17__normal_iteratorIPcNSt7__cxx1112basic_stringIcSt11char_traitsIcESaIcEEEEppEv
	.section	.text._ZNSt6vectorISt4pairINSt7__cxx1112basic_stringIcSt11char_traitsIcESaIcEEEiESaIS7_EE11_S_max_sizeERKS8_,"axG",@progbits,_ZNSt6vectorISt4pairINSt7__cxx1112basic_stringIcSt11char_traitsIcESaIcEEEiESaIS7_EE11_S_max_sizeERKS8_,comdat
	.align	2
	.weak	_ZNSt6vectorISt4pairINSt7__cxx1112basic_stringIcSt11char_traitsIcESaIcEEEiESaIS7_EE11_S_max_sizeERKS8_
	.type	_ZNSt6vectorISt4pairINSt7__cxx1112basic_stringIcSt11char_traitsIcESaIcEEEiESaIS7_EE11_S_max_sizeERKS8_, %function
_ZNSt6vectorISt4pairINSt7__cxx1112basic_stringIcSt11char_traitsIcESaIcEEEiESaIS7_EE11_S_max_sizeERKS8_:
.LFB11105:
	.cfi_startproc
	stp	x29, x30, [sp, -48]!
	.cfi_def_cfa_offset 48
	.cfi_offset 29, -48
	.cfi_offset 30, -40
	mov	x29, sp
	str	x0, [sp, 24]
	mov	x0, 3689348814741910323
	movk	x0, 0x333, lsl 48
	str	x0, [sp, 40]
	ldr	x0, [sp, 24]
	bl	_ZNSt16allocator_traitsISaISt4pairINSt7__cxx1112basic_stringIcSt11char_traitsIcESaIcEEEiEEE8max_sizeERKS8_
	str	x0, [sp, 32]
	add	x1, sp, 32
	add	x0, sp, 40
	bl	_ZSt3minImERKT_S2_S2_
	ldr	x0, [x0]
	ldp	x29, x30, [sp], 48
	.cfi_restore 30
	.cfi_restore 29
	.cfi_def_cfa_offset 0
	ret
	.cfi_endproc
.LFE11105:
	.size	_ZNSt6vectorISt4pairINSt7__cxx1112basic_stringIcSt11char_traitsIcESaIcEEEiESaIS7_EE11_S_max_sizeERKS8_, .-_ZNSt6vectorISt4pairINSt7__cxx1112basic_stringIcSt11char_traitsIcESaIcEEEiESaIS7_EE11_S_max_sizeERKS8_
	.section	.text._ZNSaISt4pairINSt7__cxx1112basic_stringIcSt11char_traitsIcESaIcEEEiEEC2ERKS7_,"axG",@progbits,_ZNSaISt4pairINSt7__cxx1112basic_stringIcSt11char_traitsIcESaIcEEEiEEC5ERKS7_,comdat
	.align	2
	.weak	_ZNSaISt4pairINSt7__cxx1112basic_stringIcSt11char_traitsIcESaIcEEEiEEC2ERKS7_
	.type	_ZNSaISt4pairINSt7__cxx1112basic_stringIcSt11char_traitsIcESaIcEEEiEEC2ERKS7_, %function
_ZNSaISt4pairINSt7__cxx1112basic_stringIcSt11char_traitsIcESaIcEEEiEEC2ERKS7_:
.LFB11107:
	.cfi_startproc
	stp	x29, x30, [sp, -32]!
	.cfi_def_cfa_offset 32
	.cfi_offset 29, -32
	.cfi_offset 30, -24
	mov	x29, sp
	str	x0, [sp, 24]
	str	x1, [sp, 16]
	ldr	x1, [sp, 16]
	ldr	x0, [sp, 24]
	bl	_ZN9__gnu_cxx13new_allocatorISt4pairINSt7__cxx1112basic_stringIcSt11char_traitsIcESaIcEEEiEEC2ERKS9_
	nop
	ldp	x29, x30, [sp], 32
	.cfi_restore 30
	.cfi_restore 29
	.cfi_def_cfa_offset 0
	ret
	.cfi_endproc
.LFE11107:
	.size	_ZNSaISt4pairINSt7__cxx1112basic_stringIcSt11char_traitsIcESaIcEEEiEEC2ERKS7_, .-_ZNSaISt4pairINSt7__cxx1112basic_stringIcSt11char_traitsIcESaIcEEEiEEC2ERKS7_
	.weak	_ZNSaISt4pairINSt7__cxx1112basic_stringIcSt11char_traitsIcESaIcEEEiEEC1ERKS7_
	.set	_ZNSaISt4pairINSt7__cxx1112basic_stringIcSt11char_traitsIcESaIcEEEiEEC1ERKS7_,_ZNSaISt4pairINSt7__cxx1112basic_stringIcSt11char_traitsIcESaIcEEEiEEC2ERKS7_
	.section	.text._ZNSt12_Vector_baseISt4pairINSt7__cxx1112basic_stringIcSt11char_traitsIcESaIcEEEiESaIS7_EE12_Vector_implC2ERKS8_,"axG",@progbits,_ZNSt12_Vector_baseISt4pairINSt7__cxx1112basic_stringIcSt11char_traitsIcESaIcEEEiESaIS7_EE12_Vector_implC5ERKS8_,comdat
	.align	2
	.weak	_ZNSt12_Vector_baseISt4pairINSt7__cxx1112basic_stringIcSt11char_traitsIcESaIcEEEiESaIS7_EE12_Vector_implC2ERKS8_
	.type	_ZNSt12_Vector_baseISt4pairINSt7__cxx1112basic_stringIcSt11char_traitsIcESaIcEEEiESaIS7_EE12_Vector_implC2ERKS8_, %function
_ZNSt12_Vector_baseISt4pairINSt7__cxx1112basic_stringIcSt11char_traitsIcESaIcEEEiESaIS7_EE12_Vector_implC2ERKS8_:
.LFB11110:
	.cfi_startproc
	stp	x29, x30, [sp, -32]!
	.cfi_def_cfa_offset 32
	.cfi_offset 29, -32
	.cfi_offset 30, -24
	mov	x29, sp
	str	x0, [sp, 24]
	str	x1, [sp, 16]
	ldr	x1, [sp, 16]
	ldr	x0, [sp, 24]
	bl	_ZNSaISt4pairINSt7__cxx1112basic_stringIcSt11char_traitsIcESaIcEEEiEEC2ERKS7_
	ldr	x0, [sp, 24]
	bl	_ZNSt12_Vector_baseISt4pairINSt7__cxx1112basic_stringIcSt11char_traitsIcESaIcEEEiESaIS7_EE17_Vector_impl_dataC2Ev
	nop
	ldp	x29, x30, [sp], 32
	.cfi_restore 30
	.cfi_restore 29
	.cfi_def_cfa_offset 0
	ret
	.cfi_endproc
.LFE11110:
	.size	_ZNSt12_Vector_baseISt4pairINSt7__cxx1112basic_stringIcSt11char_traitsIcESaIcEEEiESaIS7_EE12_Vector_implC2ERKS8_, .-_ZNSt12_Vector_baseISt4pairINSt7__cxx1112basic_stringIcSt11char_traitsIcESaIcEEEiESaIS7_EE12_Vector_implC2ERKS8_
	.weak	_ZNSt12_Vector_baseISt4pairINSt7__cxx1112basic_stringIcSt11char_traitsIcESaIcEEEiESaIS7_EE12_Vector_implC1ERKS8_
	.set	_ZNSt12_Vector_baseISt4pairINSt7__cxx1112basic_stringIcSt11char_traitsIcESaIcEEEiESaIS7_EE12_Vector_implC1ERKS8_,_ZNSt12_Vector_baseISt4pairINSt7__cxx1112basic_stringIcSt11char_traitsIcESaIcEEEiESaIS7_EE12_Vector_implC2ERKS8_
	.section	.text._ZNSt12_Vector_baseISt4pairINSt7__cxx1112basic_stringIcSt11char_traitsIcESaIcEEEiESaIS7_EE17_M_create_storageEm,"axG",@progbits,_ZNSt12_Vector_baseISt4pairINSt7__cxx1112basic_stringIcSt11char_traitsIcESaIcEEEiESaIS7_EE17_M_create_storageEm,comdat
	.align	2
	.weak	_ZNSt12_Vector_baseISt4pairINSt7__cxx1112basic_stringIcSt11char_traitsIcESaIcEEEiESaIS7_EE17_M_create_storageEm
	.type	_ZNSt12_Vector_baseISt4pairINSt7__cxx1112basic_stringIcSt11char_traitsIcESaIcEEEiESaIS7_EE17_M_create_storageEm, %function
_ZNSt12_Vector_baseISt4pairINSt7__cxx1112basic_stringIcSt11char_traitsIcESaIcEEEiESaIS7_EE17_M_create_storageEm:
.LFB11112:
	.cfi_startproc
	stp	x29, x30, [sp, -32]!
	.cfi_def_cfa_offset 32
	.cfi_offset 29, -32
	.cfi_offset 30, -24
	mov	x29, sp
	str	x0, [sp, 24]
	str	x1, [sp, 16]
	ldr	x1, [sp, 16]
	ldr	x0, [sp, 24]
	bl	_ZNSt12_Vector_baseISt4pairINSt7__cxx1112basic_stringIcSt11char_traitsIcESaIcEEEiESaIS7_EE11_M_allocateEm
	mov	x1, x0
	ldr	x0, [sp, 24]
	str	x1, [x0]
	ldr	x0, [sp, 24]
	ldr	x1, [x0]
	ldr	x0, [sp, 24]
	str	x1, [x0, 8]
	ldr	x0, [sp, 24]
	ldr	x2, [x0]
	ldr	x1, [sp, 16]
	mov	x0, x1
	lsl	x0, x0, 2
	add	x0, x0, x1
	lsl	x0, x0, 3
	add	x1, x2, x0
	ldr	x0, [sp, 24]
	str	x1, [x0, 16]
	nop
	ldp	x29, x30, [sp], 32
	.cfi_restore 30
	.cfi_restore 29
	.cfi_def_cfa_offset 0
	ret
	.cfi_endproc
.LFE11112:
	.size	_ZNSt12_Vector_baseISt4pairINSt7__cxx1112basic_stringIcSt11char_traitsIcESaIcEEEiESaIS7_EE17_M_create_storageEm, .-_ZNSt12_Vector_baseISt4pairINSt7__cxx1112basic_stringIcSt11char_traitsIcESaIcEEEiESaIS7_EE17_M_create_storageEm
	.section	.text._ZNSt12_Vector_baseISt4pairINSt7__cxx1112basic_stringIcSt11char_traitsIcESaIcEEEiESaIS7_EE13_M_deallocateEPS7_m,"axG",@progbits,_ZNSt12_Vector_baseISt4pairINSt7__cxx1112basic_stringIcSt11char_traitsIcESaIcEEEiESaIS7_EE13_M_deallocateEPS7_m,comdat
	.align	2
	.weak	_ZNSt12_Vector_baseISt4pairINSt7__cxx1112basic_stringIcSt11char_traitsIcESaIcEEEiESaIS7_EE13_M_deallocateEPS7_m
	.type	_ZNSt12_Vector_baseISt4pairINSt7__cxx1112basic_stringIcSt11char_traitsIcESaIcEEEiESaIS7_EE13_M_deallocateEPS7_m, %function
_ZNSt12_Vector_baseISt4pairINSt7__cxx1112basic_stringIcSt11char_traitsIcESaIcEEEiESaIS7_EE13_M_deallocateEPS7_m:
.LFB11113:
	.cfi_startproc
	stp	x29, x30, [sp, -48]!
	.cfi_def_cfa_offset 48
	.cfi_offset 29, -48
	.cfi_offset 30, -40
	mov	x29, sp
	str	x0, [sp, 40]
	str	x1, [sp, 32]
	str	x2, [sp, 24]
	ldr	x0, [sp, 32]
	cmp	x0, 0
	beq	.L228
	ldr	x0, [sp, 40]
	ldr	x2, [sp, 24]
	ldr	x1, [sp, 32]
	bl	_ZNSt16allocator_traitsISaISt4pairINSt7__cxx1112basic_stringIcSt11char_traitsIcESaIcEEEiEEE10deallocateERS8_PS7_m
.L228:
	nop
	ldp	x29, x30, [sp], 48
	.cfi_restore 30
	.cfi_restore 29
	.cfi_def_cfa_offset 0
	ret
	.cfi_endproc
.LFE11113:
	.size	_ZNSt12_Vector_baseISt4pairINSt7__cxx1112basic_stringIcSt11char_traitsIcESaIcEEEiESaIS7_EE13_M_deallocateEPS7_m, .-_ZNSt12_Vector_baseISt4pairINSt7__cxx1112basic_stringIcSt11char_traitsIcESaIcEEEiESaIS7_EE13_M_deallocateEPS7_m
	.section	.text._ZSt27__uninitialized_default_n_aIPSt4pairINSt7__cxx1112basic_stringIcSt11char_traitsIcESaIcEEEiEmS7_ET_S9_T0_RSaIT1_E,"axG",@progbits,_ZSt27__uninitialized_default_n_aIPSt4pairINSt7__cxx1112basic_stringIcSt11char_traitsIcESaIcEEEiEmS7_ET_S9_T0_RSaIT1_E,comdat
	.align	2
	.weak	_ZSt27__uninitialized_default_n_aIPSt4pairINSt7__cxx1112basic_stringIcSt11char_traitsIcESaIcEEEiEmS7_ET_S9_T0_RSaIT1_E
	.type	_ZSt27__uninitialized_default_n_aIPSt4pairINSt7__cxx1112basic_stringIcSt11char_traitsIcESaIcEEEiEmS7_ET_S9_T0_RSaIT1_E, %function
_ZSt27__uninitialized_default_n_aIPSt4pairINSt7__cxx1112basic_stringIcSt11char_traitsIcESaIcEEEiEmS7_ET_S9_T0_RSaIT1_E:
.LFB11114:
	.cfi_startproc
	stp	x29, x30, [sp, -48]!
	.cfi_def_cfa_offset 48
	.cfi_offset 29, -48
	.cfi_offset 30, -40
	mov	x29, sp
	str	x0, [sp, 40]
	str	x1, [sp, 32]
	str	x2, [sp, 24]
	ldr	x1, [sp, 32]
	ldr	x0, [sp, 40]
	bl	_ZSt25__uninitialized_default_nIPSt4pairINSt7__cxx1112basic_stringIcSt11char_traitsIcESaIcEEEiEmET_S9_T0_
	ldp	x29, x30, [sp], 48
	.cfi_restore 30
	.cfi_restore 29
	.cfi_def_cfa_offset 0
	ret
	.cfi_endproc
.LFE11114:
	.size	_ZSt27__uninitialized_default_n_aIPSt4pairINSt7__cxx1112basic_stringIcSt11char_traitsIcESaIcEEEiEmS7_ET_S9_T0_RSaIT1_E, .-_ZSt27__uninitialized_default_n_aIPSt4pairINSt7__cxx1112basic_stringIcSt11char_traitsIcESaIcEEEiEmS7_ET_S9_T0_RSaIT1_E
	.section	.text._ZSt8_DestroyIPSt4pairINSt7__cxx1112basic_stringIcSt11char_traitsIcESaIcEEEiEEvT_S9_,"axG",@progbits,_ZSt8_DestroyIPSt4pairINSt7__cxx1112basic_stringIcSt11char_traitsIcESaIcEEEiEEvT_S9_,comdat
	.align	2
	.weak	_ZSt8_DestroyIPSt4pairINSt7__cxx1112basic_stringIcSt11char_traitsIcESaIcEEEiEEvT_S9_
	.type	_ZSt8_DestroyIPSt4pairINSt7__cxx1112basic_stringIcSt11char_traitsIcESaIcEEEiEEvT_S9_, %function
_ZSt8_DestroyIPSt4pairINSt7__cxx1112basic_stringIcSt11char_traitsIcESaIcEEEiEEvT_S9_:
.LFB11115:
	.cfi_startproc
	stp	x29, x30, [sp, -32]!
	.cfi_def_cfa_offset 32
	.cfi_offset 29, -32
	.cfi_offset 30, -24
	mov	x29, sp
	str	x0, [sp, 24]
	str	x1, [sp, 16]
	ldr	x1, [sp, 16]
	ldr	x0, [sp, 24]
	bl	_ZNSt12_Destroy_auxILb0EE9__destroyIPSt4pairINSt7__cxx1112basic_stringIcSt11char_traitsIcESaIcEEEiEEEvT_SB_
	nop
	ldp	x29, x30, [sp], 32
	.cfi_restore 30
	.cfi_restore 29
	.cfi_def_cfa_offset 0
	ret
	.cfi_endproc
.LFE11115:
	.size	_ZSt8_DestroyIPSt4pairINSt7__cxx1112basic_stringIcSt11char_traitsIcESaIcEEEiEEvT_S9_, .-_ZSt8_DestroyIPSt4pairINSt7__cxx1112basic_stringIcSt11char_traitsIcESaIcEEEiEEvT_S9_
	.section	.text._ZSt4moveIRPFbRSt4pairINSt7__cxx1112basic_stringIcSt11char_traitsIcESaIcEEEiES8_EEONSt16remove_referenceIT_E4typeEOSD_,"axG",@progbits,_ZSt4moveIRPFbRSt4pairINSt7__cxx1112basic_stringIcSt11char_traitsIcESaIcEEEiES8_EEONSt16remove_referenceIT_E4typeEOSD_,comdat
	.align	2
	.weak	_ZSt4moveIRPFbRSt4pairINSt7__cxx1112basic_stringIcSt11char_traitsIcESaIcEEEiES8_EEONSt16remove_referenceIT_E4typeEOSD_
	.type	_ZSt4moveIRPFbRSt4pairINSt7__cxx1112basic_stringIcSt11char_traitsIcESaIcEEEiES8_EEONSt16remove_referenceIT_E4typeEOSD_, %function
_ZSt4moveIRPFbRSt4pairINSt7__cxx1112basic_stringIcSt11char_traitsIcESaIcEEEiES8_EEONSt16remove_referenceIT_E4typeEOSD_:
.LFB11117:
	.cfi_startproc
	sub	sp, sp, #16
	.cfi_def_cfa_offset 16
	str	x0, [sp, 8]
	ldr	x0, [sp, 8]
	add	sp, sp, 16
	.cfi_def_cfa_offset 0
	ret
	.cfi_endproc
.LFE11117:
	.size	_ZSt4moveIRPFbRSt4pairINSt7__cxx1112basic_stringIcSt11char_traitsIcESaIcEEEiES8_EEONSt16remove_referenceIT_E4typeEOSD_, .-_ZSt4moveIRPFbRSt4pairINSt7__cxx1112basic_stringIcSt11char_traitsIcESaIcEEEiES8_EEONSt16remove_referenceIT_E4typeEOSD_
	.section	.text._ZN9__gnu_cxx5__ops15_Iter_comp_iterIPFbRSt4pairINSt7__cxx1112basic_stringIcSt11char_traitsIcESaIcEEEiESA_EEC2ESC_,"axG",@progbits,_ZN9__gnu_cxx5__ops15_Iter_comp_iterIPFbRSt4pairINSt7__cxx1112basic_stringIcSt11char_traitsIcESaIcEEEiESA_EEC5ESC_,comdat
	.align	2
	.weak	_ZN9__gnu_cxx5__ops15_Iter_comp_iterIPFbRSt4pairINSt7__cxx1112basic_stringIcSt11char_traitsIcESaIcEEEiESA_EEC2ESC_
	.type	_ZN9__gnu_cxx5__ops15_Iter_comp_iterIPFbRSt4pairINSt7__cxx1112basic_stringIcSt11char_traitsIcESaIcEEEiESA_EEC2ESC_, %function
_ZN9__gnu_cxx5__ops15_Iter_comp_iterIPFbRSt4pairINSt7__cxx1112basic_stringIcSt11char_traitsIcESaIcEEEiESA_EEC2ESC_:
.LFB11119:
	.cfi_startproc
	stp	x29, x30, [sp, -32]!
	.cfi_def_cfa_offset 32
	.cfi_offset 29, -32
	.cfi_offset 30, -24
	mov	x29, sp
	str	x0, [sp, 24]
	str	x1, [sp, 16]
	add	x0, sp, 16
	bl	_ZSt4moveIRPFbRSt4pairINSt7__cxx1112basic_stringIcSt11char_traitsIcESaIcEEEiES8_EEONSt16remove_referenceIT_E4typeEOSD_
	ldr	x1, [x0]
	ldr	x0, [sp, 24]
	str	x1, [x0]
	nop
	ldp	x29, x30, [sp], 32
	.cfi_restore 30
	.cfi_restore 29
	.cfi_def_cfa_offset 0
	ret
	.cfi_endproc
.LFE11119:
	.size	_ZN9__gnu_cxx5__ops15_Iter_comp_iterIPFbRSt4pairINSt7__cxx1112basic_stringIcSt11char_traitsIcESaIcEEEiESA_EEC2ESC_, .-_ZN9__gnu_cxx5__ops15_Iter_comp_iterIPFbRSt4pairINSt7__cxx1112basic_stringIcSt11char_traitsIcESaIcEEEiESA_EEC2ESC_
	.weak	_ZN9__gnu_cxx5__ops15_Iter_comp_iterIPFbRSt4pairINSt7__cxx1112basic_stringIcSt11char_traitsIcESaIcEEEiESA_EEC1ESC_
	.set	_ZN9__gnu_cxx5__ops15_Iter_comp_iterIPFbRSt4pairINSt7__cxx1112basic_stringIcSt11char_traitsIcESaIcEEEiESA_EEC1ESC_,_ZN9__gnu_cxx5__ops15_Iter_comp_iterIPFbRSt4pairINSt7__cxx1112basic_stringIcSt11char_traitsIcESaIcEEEiESA_EEC2ESC_
	.section	.text._ZN9__gnu_cxxneIPSt4pairINSt7__cxx1112basic_stringIcSt11char_traitsIcESaIcEEEiESt6vectorIS8_SaIS8_EEEEbRKNS_17__normal_iteratorIT_T0_EESI_,"axG",@progbits,_ZN9__gnu_cxxneIPSt4pairINSt7__cxx1112basic_stringIcSt11char_traitsIcESaIcEEEiESt6vectorIS8_SaIS8_EEEEbRKNS_17__normal_iteratorIT_T0_EESI_,comdat
	.align	2
	.weak	_ZN9__gnu_cxxneIPSt4pairINSt7__cxx1112basic_stringIcSt11char_traitsIcESaIcEEEiESt6vectorIS8_SaIS8_EEEEbRKNS_17__normal_iteratorIT_T0_EESI_
	.type	_ZN9__gnu_cxxneIPSt4pairINSt7__cxx1112basic_stringIcSt11char_traitsIcESaIcEEEiESt6vectorIS8_SaIS8_EEEEbRKNS_17__normal_iteratorIT_T0_EESI_, %function
_ZN9__gnu_cxxneIPSt4pairINSt7__cxx1112basic_stringIcSt11char_traitsIcESaIcEEEiESt6vectorIS8_SaIS8_EEEEbRKNS_17__normal_iteratorIT_T0_EESI_:
.LFB11121:
	.cfi_startproc
	stp	x29, x30, [sp, -48]!
	.cfi_def_cfa_offset 48
	.cfi_offset 29, -48
	.cfi_offset 30, -40
	mov	x29, sp
	str	x19, [sp, 16]
	.cfi_offset 19, -32
	str	x0, [sp, 40]
	str	x1, [sp, 32]
	ldr	x0, [sp, 40]
	bl	_ZNK9__gnu_cxx17__normal_iteratorIPSt4pairINSt7__cxx1112basic_stringIcSt11char_traitsIcESaIcEEEiESt6vectorIS8_SaIS8_EEE4baseEv
	ldr	x19, [x0]
	ldr	x0, [sp, 32]
	bl	_ZNK9__gnu_cxx17__normal_iteratorIPSt4pairINSt7__cxx1112basic_stringIcSt11char_traitsIcESaIcEEEiESt6vectorIS8_SaIS8_EEE4baseEv
	ldr	x0, [x0]
	cmp	x19, x0
	cset	w0, ne
	and	w0, w0, 255
	ldr	x19, [sp, 16]
	ldp	x29, x30, [sp], 48
	.cfi_restore 30
	.cfi_restore 29
	.cfi_restore 19
	.cfi_def_cfa_offset 0
	ret
	.cfi_endproc
.LFE11121:
	.size	_ZN9__gnu_cxxneIPSt4pairINSt7__cxx1112basic_stringIcSt11char_traitsIcESaIcEEEiESt6vectorIS8_SaIS8_EEEEbRKNS_17__normal_iteratorIT_T0_EESI_, .-_ZN9__gnu_cxxneIPSt4pairINSt7__cxx1112basic_stringIcSt11char_traitsIcESaIcEEEiESt6vectorIS8_SaIS8_EEEEbRKNS_17__normal_iteratorIT_T0_EESI_
	.section	.text._ZN9__gnu_cxxmiIPSt4pairINSt7__cxx1112basic_stringIcSt11char_traitsIcESaIcEEEiESt6vectorIS8_SaIS8_EEEENS_17__normal_iteratorIT_T0_E15difference_typeERKSG_SJ_,"axG",@progbits,_ZN9__gnu_cxxmiIPSt4pairINSt7__cxx1112basic_stringIcSt11char_traitsIcESaIcEEEiESt6vectorIS8_SaIS8_EEEENS_17__normal_iteratorIT_T0_E15difference_typeERKSG_SJ_,comdat
	.align	2
	.weak	_ZN9__gnu_cxxmiIPSt4pairINSt7__cxx1112basic_stringIcSt11char_traitsIcESaIcEEEiESt6vectorIS8_SaIS8_EEEENS_17__normal_iteratorIT_T0_E15difference_typeERKSG_SJ_
	.type	_ZN9__gnu_cxxmiIPSt4pairINSt7__cxx1112basic_stringIcSt11char_traitsIcESaIcEEEiESt6vectorIS8_SaIS8_EEEENS_17__normal_iteratorIT_T0_E15difference_typeERKSG_SJ_, %function
_ZN9__gnu_cxxmiIPSt4pairINSt7__cxx1112basic_stringIcSt11char_traitsIcESaIcEEEiESt6vectorIS8_SaIS8_EEEENS_17__normal_iteratorIT_T0_E15difference_typeERKSG_SJ_:
.LFB11122:
	.cfi_startproc
	stp	x29, x30, [sp, -48]!
	.cfi_def_cfa_offset 48
	.cfi_offset 29, -48
	.cfi_offset 30, -40
	mov	x29, sp
	str	x19, [sp, 16]
	.cfi_offset 19, -32
	str	x0, [sp, 40]
	str	x1, [sp, 32]
	ldr	x0, [sp, 40]
	bl	_ZNK9__gnu_cxx17__normal_iteratorIPSt4pairINSt7__cxx1112basic_stringIcSt11char_traitsIcESaIcEEEiESt6vectorIS8_SaIS8_EEE4baseEv
	ldr	x19, [x0]
	ldr	x0, [sp, 32]
	bl	_ZNK9__gnu_cxx17__normal_iteratorIPSt4pairINSt7__cxx1112basic_stringIcSt11char_traitsIcESaIcEEEiESt6vectorIS8_SaIS8_EEE4baseEv
	ldr	x0, [x0]
	sub	x0, x19, x0
	asr	x1, x0, 3
	mov	x0, -3689348814741910324
	movk	x0, 0xcccd, lsl 0
	mul	x0, x1, x0
	ldr	x19, [sp, 16]
	ldp	x29, x30, [sp], 48
	.cfi_restore 30
	.cfi_restore 29
	.cfi_restore 19
	.cfi_def_cfa_offset 0
	ret
	.cfi_endproc
.LFE11122:
	.size	_ZN9__gnu_cxxmiIPSt4pairINSt7__cxx1112basic_stringIcSt11char_traitsIcESaIcEEEiESt6vectorIS8_SaIS8_EEEENS_17__normal_iteratorIT_T0_E15difference_typeERKSG_SJ_, .-_ZN9__gnu_cxxmiIPSt4pairINSt7__cxx1112basic_stringIcSt11char_traitsIcESaIcEEEiESt6vectorIS8_SaIS8_EEEENS_17__normal_iteratorIT_T0_E15difference_typeERKSG_SJ_
	.section	.text._ZSt16__introsort_loopIN9__gnu_cxx17__normal_iteratorIPSt4pairINSt7__cxx1112basic_stringIcSt11char_traitsIcESaIcEEEiESt6vectorIS9_SaIS9_EEEElNS0_5__ops15_Iter_comp_iterIPFbRS9_SH_EEEEvT_SL_T0_T1_,"axG",@progbits,_ZSt16__introsort_loopIN9__gnu_cxx17__normal_iteratorIPSt4pairINSt7__cxx1112basic_stringIcSt11char_traitsIcESaIcEEEiESt6vectorIS9_SaIS9_EEEElNS0_5__ops15_Iter_comp_iterIPFbRS9_SH_EEEEvT_SL_T0_T1_,comdat
	.align	2
	.weak	_ZSt16__introsort_loopIN9__gnu_cxx17__normal_iteratorIPSt4pairINSt7__cxx1112basic_stringIcSt11char_traitsIcESaIcEEEiESt6vectorIS9_SaIS9_EEEElNS0_5__ops15_Iter_comp_iterIPFbRS9_SH_EEEEvT_SL_T0_T1_
	.type	_ZSt16__introsort_loopIN9__gnu_cxx17__normal_iteratorIPSt4pairINSt7__cxx1112basic_stringIcSt11char_traitsIcESaIcEEEiESt6vectorIS9_SaIS9_EEEElNS0_5__ops15_Iter_comp_iterIPFbRS9_SH_EEEEvT_SL_T0_T1_, %function
_ZSt16__introsort_loopIN9__gnu_cxx17__normal_iteratorIPSt4pairINSt7__cxx1112basic_stringIcSt11char_traitsIcESaIcEEEiESt6vectorIS9_SaIS9_EEEElNS0_5__ops15_Iter_comp_iterIPFbRS9_SH_EEEEvT_SL_T0_T1_:
.LFB11123:
	.cfi_startproc
	stp	x29, x30, [sp, -64]!
	.cfi_def_cfa_offset 64
	.cfi_offset 29, -64
	.cfi_offset 30, -56
	mov	x29, sp
	str	x0, [sp, 40]
	str	x1, [sp, 32]
	str	x2, [sp, 24]
	str	x3, [sp, 16]
	b	.L240
.L243:
	ldr	x0, [sp, 24]
	cmp	x0, 0
	bne	.L241
	ldr	x3, [sp, 16]
	ldr	x2, [sp, 32]
	ldr	x1, [sp, 32]
	ldr	x0, [sp, 40]
	bl	_ZSt14__partial_sortIN9__gnu_cxx17__normal_iteratorIPSt4pairINSt7__cxx1112basic_stringIcSt11char_traitsIcESaIcEEEiESt6vectorIS9_SaIS9_EEEENS0_5__ops15_Iter_comp_iterIPFbRS9_SH_EEEEvT_SL_SL_T0_
	b	.L239
.L241:
	ldr	x0, [sp, 24]
	sub	x0, x0, #1
	str	x0, [sp, 24]
	ldr	x2, [sp, 16]
	ldr	x1, [sp, 32]
	ldr	x0, [sp, 40]
	bl	_ZSt27__unguarded_partition_pivotIN9__gnu_cxx17__normal_iteratorIPSt4pairINSt7__cxx1112basic_stringIcSt11char_traitsIcESaIcEEEiESt6vectorIS9_SaIS9_EEEENS0_5__ops15_Iter_comp_iterIPFbRS9_SH_EEEET_SL_SL_T0_
	str	x0, [sp, 56]
	ldr	x3, [sp, 16]
	ldr	x2, [sp, 24]
	ldr	x1, [sp, 32]
	ldr	x0, [sp, 56]
	bl	_ZSt16__introsort_loopIN9__gnu_cxx17__normal_iteratorIPSt4pairINSt7__cxx1112basic_stringIcSt11char_traitsIcESaIcEEEiESt6vectorIS9_SaIS9_EEEElNS0_5__ops15_Iter_comp_iterIPFbRS9_SH_EEEEvT_SL_T0_T1_
	ldr	x0, [sp, 56]
	str	x0, [sp, 32]
.L240:
	add	x1, sp, 40
	add	x0, sp, 32
	bl	_ZN9__gnu_cxxmiIPSt4pairINSt7__cxx1112basic_stringIcSt11char_traitsIcESaIcEEEiESt6vectorIS8_SaIS8_EEEENS_17__normal_iteratorIT_T0_E15difference_typeERKSG_SJ_
	cmp	x0, 16
	cset	w0, gt
	and	w0, w0, 255
	cmp	w0, 0
	bne	.L243
.L239:
	ldp	x29, x30, [sp], 64
	.cfi_restore 30
	.cfi_restore 29
	.cfi_def_cfa_offset 0
	ret
	.cfi_endproc
.LFE11123:
	.size	_ZSt16__introsort_loopIN9__gnu_cxx17__normal_iteratorIPSt4pairINSt7__cxx1112basic_stringIcSt11char_traitsIcESaIcEEEiESt6vectorIS9_SaIS9_EEEElNS0_5__ops15_Iter_comp_iterIPFbRS9_SH_EEEEvT_SL_T0_T1_, .-_ZSt16__introsort_loopIN9__gnu_cxx17__normal_iteratorIPSt4pairINSt7__cxx1112basic_stringIcSt11char_traitsIcESaIcEEEiESt6vectorIS9_SaIS9_EEEElNS0_5__ops15_Iter_comp_iterIPFbRS9_SH_EEEEvT_SL_T0_T1_
	.section	.text._ZSt22__final_insertion_sortIN9__gnu_cxx17__normal_iteratorIPSt4pairINSt7__cxx1112basic_stringIcSt11char_traitsIcESaIcEEEiESt6vectorIS9_SaIS9_EEEENS0_5__ops15_Iter_comp_iterIPFbRS9_SH_EEEEvT_SL_T0_,"axG",@progbits,_ZSt22__final_insertion_sortIN9__gnu_cxx17__normal_iteratorIPSt4pairINSt7__cxx1112basic_stringIcSt11char_traitsIcESaIcEEEiESt6vectorIS9_SaIS9_EEEENS0_5__ops15_Iter_comp_iterIPFbRS9_SH_EEEEvT_SL_T0_,comdat
	.align	2
	.weak	_ZSt22__final_insertion_sortIN9__gnu_cxx17__normal_iteratorIPSt4pairINSt7__cxx1112basic_stringIcSt11char_traitsIcESaIcEEEiESt6vectorIS9_SaIS9_EEEENS0_5__ops15_Iter_comp_iterIPFbRS9_SH_EEEEvT_SL_T0_
	.type	_ZSt22__final_insertion_sortIN9__gnu_cxx17__normal_iteratorIPSt4pairINSt7__cxx1112basic_stringIcSt11char_traitsIcESaIcEEEiESt6vectorIS9_SaIS9_EEEENS0_5__ops15_Iter_comp_iterIPFbRS9_SH_EEEEvT_SL_T0_, %function
_ZSt22__final_insertion_sortIN9__gnu_cxx17__normal_iteratorIPSt4pairINSt7__cxx1112basic_stringIcSt11char_traitsIcESaIcEEEiESt6vectorIS9_SaIS9_EEEENS0_5__ops15_Iter_comp_iterIPFbRS9_SH_EEEEvT_SL_T0_:
.LFB11124:
	.cfi_startproc
	stp	x29, x30, [sp, -48]!
	.cfi_def_cfa_offset 48
	.cfi_offset 29, -48
	.cfi_offset 30, -40
	mov	x29, sp
	str	x0, [sp, 40]
	str	x1, [sp, 32]
	str	x2, [sp, 24]
	add	x1, sp, 40
	add	x0, sp, 32
	bl	_ZN9__gnu_cxxmiIPSt4pairINSt7__cxx1112basic_stringIcSt11char_traitsIcESaIcEEEiESt6vectorIS8_SaIS8_EEEENS_17__normal_iteratorIT_T0_E15difference_typeERKSG_SJ_
	cmp	x0, 16
	cset	w0, gt
	and	w0, w0, 255
	cmp	w0, 0
	beq	.L245
	add	x0, sp, 40
	mov	x1, 16
	bl	_ZNK9__gnu_cxx17__normal_iteratorIPSt4pairINSt7__cxx1112basic_stringIcSt11char_traitsIcESaIcEEEiESt6vectorIS8_SaIS8_EEEplEl
	ldr	x2, [sp, 24]
	mov	x1, x0
	ldr	x0, [sp, 40]
	bl	_ZSt16__insertion_sortIN9__gnu_cxx17__normal_iteratorIPSt4pairINSt7__cxx1112basic_stringIcSt11char_traitsIcESaIcEEEiESt6vectorIS9_SaIS9_EEEENS0_5__ops15_Iter_comp_iterIPFbRS9_SH_EEEEvT_SL_T0_
	add	x0, sp, 40
	mov	x1, 16
	bl	_ZNK9__gnu_cxx17__normal_iteratorIPSt4pairINSt7__cxx1112basic_stringIcSt11char_traitsIcESaIcEEEiESt6vectorIS8_SaIS8_EEEplEl
	ldr	x2, [sp, 24]
	ldr	x1, [sp, 32]
	bl	_ZSt26__unguarded_insertion_sortIN9__gnu_cxx17__normal_iteratorIPSt4pairINSt7__cxx1112basic_stringIcSt11char_traitsIcESaIcEEEiESt6vectorIS9_SaIS9_EEEENS0_5__ops15_Iter_comp_iterIPFbRS9_SH_EEEEvT_SL_T0_
	b	.L247
.L245:
	ldr	x2, [sp, 24]
	ldr	x1, [sp, 32]
	ldr	x0, [sp, 40]
	bl	_ZSt16__insertion_sortIN9__gnu_cxx17__normal_iteratorIPSt4pairINSt7__cxx1112basic_stringIcSt11char_traitsIcESaIcEEEiESt6vectorIS9_SaIS9_EEEENS0_5__ops15_Iter_comp_iterIPFbRS9_SH_EEEEvT_SL_T0_
.L247:
	nop
	ldp	x29, x30, [sp], 48
	.cfi_restore 30
	.cfi_restore 29
	.cfi_def_cfa_offset 0
	ret
	.cfi_endproc
.LFE11124:
	.size	_ZSt22__final_insertion_sortIN9__gnu_cxx17__normal_iteratorIPSt4pairINSt7__cxx1112basic_stringIcSt11char_traitsIcESaIcEEEiESt6vectorIS9_SaIS9_EEEENS0_5__ops15_Iter_comp_iterIPFbRS9_SH_EEEEvT_SL_T0_, .-_ZSt22__final_insertion_sortIN9__gnu_cxx17__normal_iteratorIPSt4pairINSt7__cxx1112basic_stringIcSt11char_traitsIcESaIcEEEiESt6vectorIS9_SaIS9_EEEENS0_5__ops15_Iter_comp_iterIPFbRS9_SH_EEEEvT_SL_T0_
	.section	.text._ZN9__gnu_cxx13new_allocatorIxE10deallocateEPxm,"axG",@progbits,_ZN9__gnu_cxx13new_allocatorIxE10deallocateEPxm,comdat
	.align	2
	.weak	_ZN9__gnu_cxx13new_allocatorIxE10deallocateEPxm
	.type	_ZN9__gnu_cxx13new_allocatorIxE10deallocateEPxm, %function
_ZN9__gnu_cxx13new_allocatorIxE10deallocateEPxm:
.LFB11262:
	.cfi_startproc
	stp	x29, x30, [sp, -48]!
	.cfi_def_cfa_offset 48
	.cfi_offset 29, -48
	.cfi_offset 30, -40
	mov	x29, sp
	str	x0, [sp, 40]
	str	x1, [sp, 32]
	str	x2, [sp, 24]
	ldr	x0, [sp, 24]
	lsl	x0, x0, 3
	mov	x1, x0
	ldr	x0, [sp, 32]
	bl	_ZdlPvm
	ldp	x29, x30, [sp], 48
	.cfi_restore 30
	.cfi_restore 29
	.cfi_def_cfa_offset 0
	ret
	.cfi_endproc
.LFE11262:
	.size	_ZN9__gnu_cxx13new_allocatorIxE10deallocateEPxm, .-_ZN9__gnu_cxx13new_allocatorIxE10deallocateEPxm
	.section	.text._ZN9__gnu_cxx13new_allocatorIxE9constructIxJxEEEvPT_DpOT0_,"axG",@progbits,_ZN9__gnu_cxx13new_allocatorIxE9constructIxJxEEEvPT_DpOT0_,comdat
	.align	2
	.weak	_ZN9__gnu_cxx13new_allocatorIxE9constructIxJxEEEvPT_DpOT0_
	.type	_ZN9__gnu_cxx13new_allocatorIxE9constructIxJxEEEvPT_DpOT0_, %function
_ZN9__gnu_cxx13new_allocatorIxE9constructIxJxEEEvPT_DpOT0_:
.LFB11263:
	.cfi_startproc
	stp	x29, x30, [sp, -64]!
	.cfi_def_cfa_offset 64
	.cfi_offset 29, -64
	.cfi_offset 30, -56
	mov	x29, sp
	str	x19, [sp, 16]
	.cfi_offset 19, -48
	str	x0, [sp, 56]
	str	x1, [sp, 48]
	str	x2, [sp, 40]
	ldr	x0, [sp, 40]
	bl	_ZSt7forwardIxEOT_RNSt16remove_referenceIS0_E4typeE
	ldr	x19, [x0]
	ldr	x0, [sp, 48]
	mov	x1, x0
	mov	x0, 8
	bl	_ZnwmPv
	str	x19, [x0]
	nop
	ldr	x19, [sp, 16]
	ldp	x29, x30, [sp], 64
	.cfi_restore 30
	.cfi_restore 29
	.cfi_restore 19
	.cfi_def_cfa_offset 0
	ret
	.cfi_endproc
.LFE11263:
	.size	_ZN9__gnu_cxx13new_allocatorIxE9constructIxJxEEEvPT_DpOT0_, .-_ZN9__gnu_cxx13new_allocatorIxE9constructIxJxEEEvPT_DpOT0_
	.section	.text._ZN9__gnu_cxx17__normal_iteratorIPxSt6vectorIxSaIxEEEC2ERKS1_,"axG",@progbits,_ZN9__gnu_cxx17__normal_iteratorIPxSt6vectorIxSaIxEEEC5ERKS1_,comdat
	.align	2
	.weak	_ZN9__gnu_cxx17__normal_iteratorIPxSt6vectorIxSaIxEEEC2ERKS1_
	.type	_ZN9__gnu_cxx17__normal_iteratorIPxSt6vectorIxSaIxEEEC2ERKS1_, %function
_ZN9__gnu_cxx17__normal_iteratorIPxSt6vectorIxSaIxEEEC2ERKS1_:
.LFB11265:
	.cfi_startproc
	sub	sp, sp, #16
	.cfi_def_cfa_offset 16
	str	x0, [sp, 8]
	str	x1, [sp]
	ldr	x0, [sp]
	ldr	x1, [x0]
	ldr	x0, [sp, 8]
	str	x1, [x0]
	nop
	add	sp, sp, 16
	.cfi_def_cfa_offset 0
	ret
	.cfi_endproc
.LFE11265:
	.size	_ZN9__gnu_cxx17__normal_iteratorIPxSt6vectorIxSaIxEEEC2ERKS1_, .-_ZN9__gnu_cxx17__normal_iteratorIPxSt6vectorIxSaIxEEEC2ERKS1_
	.weak	_ZN9__gnu_cxx17__normal_iteratorIPxSt6vectorIxSaIxEEEC1ERKS1_
	.set	_ZN9__gnu_cxx17__normal_iteratorIPxSt6vectorIxSaIxEEEC1ERKS1_,_ZN9__gnu_cxx17__normal_iteratorIPxSt6vectorIxSaIxEEEC2ERKS1_
	.section	.text._ZNKSt6vectorIxSaIxEE12_M_check_lenEmPKc,"axG",@progbits,_ZNKSt6vectorIxSaIxEE12_M_check_lenEmPKc,comdat
	.align	2
	.weak	_ZNKSt6vectorIxSaIxEE12_M_check_lenEmPKc
	.type	_ZNKSt6vectorIxSaIxEE12_M_check_lenEmPKc, %function
_ZNKSt6vectorIxSaIxEE12_M_check_lenEmPKc:
.LFB11267:
	.cfi_startproc
	stp	x29, x30, [sp, -80]!
	.cfi_def_cfa_offset 80
	.cfi_offset 29, -80
	.cfi_offset 30, -72
	mov	x29, sp
	str	x19, [sp, 16]
	.cfi_offset 19, -64
	str	x0, [sp, 56]
	str	x1, [sp, 48]
	str	x2, [sp, 40]
	ldr	x0, [sp, 56]
	bl	_ZNKSt6vectorIxSaIxEE8max_sizeEv
	mov	x19, x0
	ldr	x0, [sp, 56]
	bl	_ZNKSt6vectorIxSaIxEE4sizeEv
	sub	x1, x19, x0
	ldr	x0, [sp, 48]
	cmp	x1, x0
	cset	w0, cc
	and	w0, w0, 255
	cmp	w0, 0
	beq	.L253
	ldr	x0, [sp, 40]
	bl	_ZSt20__throw_length_errorPKc
.L253:
	ldr	x0, [sp, 56]
	bl	_ZNKSt6vectorIxSaIxEE4sizeEv
	mov	x19, x0
	ldr	x0, [sp, 56]
	bl	_ZNKSt6vectorIxSaIxEE4sizeEv
	str	x0, [sp, 64]
	add	x1, sp, 48
	add	x0, sp, 64
	bl	_ZSt3maxImERKT_S2_S2_
	ldr	x0, [x0]
	add	x0, x19, x0
	str	x0, [sp, 72]
	ldr	x0, [sp, 56]
	bl	_ZNKSt6vectorIxSaIxEE4sizeEv
	mov	x1, x0
	ldr	x0, [sp, 72]
	cmp	x0, x1
	bcc	.L254
	ldr	x0, [sp, 56]
	bl	_ZNKSt6vectorIxSaIxEE8max_sizeEv
	mov	x1, x0
	ldr	x0, [sp, 72]
	cmp	x0, x1
	bls	.L255
.L254:
	ldr	x0, [sp, 56]
	bl	_ZNKSt6vectorIxSaIxEE8max_sizeEv
	b	.L256
.L255:
	ldr	x0, [sp, 72]
.L256:
	ldr	x19, [sp, 16]
	ldp	x29, x30, [sp], 80
	.cfi_restore 30
	.cfi_restore 29
	.cfi_restore 19
	.cfi_def_cfa_offset 0
	ret
	.cfi_endproc
.LFE11267:
	.size	_ZNKSt6vectorIxSaIxEE12_M_check_lenEmPKc, .-_ZNKSt6vectorIxSaIxEE12_M_check_lenEmPKc
	.section	.text._ZNSt6vectorIxSaIxEE5beginEv,"axG",@progbits,_ZNSt6vectorIxSaIxEE5beginEv,comdat
	.align	2
	.weak	_ZNSt6vectorIxSaIxEE5beginEv
	.type	_ZNSt6vectorIxSaIxEE5beginEv, %function
_ZNSt6vectorIxSaIxEE5beginEv:
.LFB11268:
	.cfi_startproc
	stp	x29, x30, [sp, -48]!
	.cfi_def_cfa_offset 48
	.cfi_offset 29, -48
	.cfi_offset 30, -40
	mov	x29, sp
	str	x0, [sp, 24]
	ldr	x1, [sp, 24]
	add	x0, sp, 40
	bl	_ZN9__gnu_cxx17__normal_iteratorIPxSt6vectorIxSaIxEEEC1ERKS1_
	ldr	x0, [sp, 40]
	ldp	x29, x30, [sp], 48
	.cfi_restore 30
	.cfi_restore 29
	.cfi_def_cfa_offset 0
	ret
	.cfi_endproc
.LFE11268:
	.size	_ZNSt6vectorIxSaIxEE5beginEv, .-_ZNSt6vectorIxSaIxEE5beginEv
	.section	.text._ZN9__gnu_cxxmiIPxSt6vectorIxSaIxEEEENS_17__normal_iteratorIT_T0_E15difference_typeERKS8_SB_,"axG",@progbits,_ZN9__gnu_cxxmiIPxSt6vectorIxSaIxEEEENS_17__normal_iteratorIT_T0_E15difference_typeERKS8_SB_,comdat
	.align	2
	.weak	_ZN9__gnu_cxxmiIPxSt6vectorIxSaIxEEEENS_17__normal_iteratorIT_T0_E15difference_typeERKS8_SB_
	.type	_ZN9__gnu_cxxmiIPxSt6vectorIxSaIxEEEENS_17__normal_iteratorIT_T0_E15difference_typeERKS8_SB_, %function
_ZN9__gnu_cxxmiIPxSt6vectorIxSaIxEEEENS_17__normal_iteratorIT_T0_E15difference_typeERKS8_SB_:
.LFB11269:
	.cfi_startproc
	stp	x29, x30, [sp, -48]!
	.cfi_def_cfa_offset 48
	.cfi_offset 29, -48
	.cfi_offset 30, -40
	mov	x29, sp
	str	x19, [sp, 16]
	.cfi_offset 19, -32
	str	x0, [sp, 40]
	str	x1, [sp, 32]
	ldr	x0, [sp, 40]
	bl	_ZNK9__gnu_cxx17__normal_iteratorIPxSt6vectorIxSaIxEEE4baseEv
	ldr	x19, [x0]
	ldr	x0, [sp, 32]
	bl	_ZNK9__gnu_cxx17__normal_iteratorIPxSt6vectorIxSaIxEEE4baseEv
	ldr	x0, [x0]
	sub	x0, x19, x0
	asr	x0, x0, 3
	ldr	x19, [sp, 16]
	ldp	x29, x30, [sp], 48
	.cfi_restore 30
	.cfi_restore 29
	.cfi_restore 19
	.cfi_def_cfa_offset 0
	ret
	.cfi_endproc
.LFE11269:
	.size	_ZN9__gnu_cxxmiIPxSt6vectorIxSaIxEEEENS_17__normal_iteratorIT_T0_E15difference_typeERKS8_SB_, .-_ZN9__gnu_cxxmiIPxSt6vectorIxSaIxEEEENS_17__normal_iteratorIT_T0_E15difference_typeERKS8_SB_
	.section	.text._ZNSt12_Vector_baseIxSaIxEE11_M_allocateEm,"axG",@progbits,_ZNSt12_Vector_baseIxSaIxEE11_M_allocateEm,comdat
	.align	2
	.weak	_ZNSt12_Vector_baseIxSaIxEE11_M_allocateEm
	.type	_ZNSt12_Vector_baseIxSaIxEE11_M_allocateEm, %function
_ZNSt12_Vector_baseIxSaIxEE11_M_allocateEm:
.LFB11270:
	.cfi_startproc
	stp	x29, x30, [sp, -32]!
	.cfi_def_cfa_offset 32
	.cfi_offset 29, -32
	.cfi_offset 30, -24
	mov	x29, sp
	str	x0, [sp, 24]
	str	x1, [sp, 16]
	ldr	x0, [sp, 16]
	cmp	x0, 0
	beq	.L263
	ldr	x0, [sp, 24]
	ldr	x1, [sp, 16]
	bl	_ZNSt16allocator_traitsISaIxEE8allocateERS0_m
	b	.L265
.L263:
	mov	x0, 0
.L265:
	ldp	x29, x30, [sp], 32
	.cfi_restore 30
	.cfi_restore 29
	.cfi_def_cfa_offset 0
	ret
	.cfi_endproc
.LFE11270:
	.size	_ZNSt12_Vector_baseIxSaIxEE11_M_allocateEm, .-_ZNSt12_Vector_baseIxSaIxEE11_M_allocateEm
	.section	.text._ZNSt6vectorIxSaIxEE11_S_relocateEPxS2_S2_RS0_,"axG",@progbits,_ZNSt6vectorIxSaIxEE11_S_relocateEPxS2_S2_RS0_,comdat
	.align	2
	.weak	_ZNSt6vectorIxSaIxEE11_S_relocateEPxS2_S2_RS0_
	.type	_ZNSt6vectorIxSaIxEE11_S_relocateEPxS2_S2_RS0_, %function
_ZNSt6vectorIxSaIxEE11_S_relocateEPxS2_S2_RS0_:
.LFB11271:
	.cfi_startproc
	stp	x29, x30, [sp, -48]!
	.cfi_def_cfa_offset 48
	.cfi_offset 29, -48
	.cfi_offset 30, -40
	mov	x29, sp
	str	x0, [sp, 40]
	str	x1, [sp, 32]
	str	x2, [sp, 24]
	str	x3, [sp, 16]
	ldr	x3, [sp, 16]
	ldr	x2, [sp, 24]
	ldr	x1, [sp, 32]
	ldr	x0, [sp, 40]
	bl	_ZNSt6vectorIxSaIxEE14_S_do_relocateEPxS2_S2_RS0_St17integral_constantIbLb1EE
	ldp	x29, x30, [sp], 48
	.cfi_restore 30
	.cfi_restore 29
	.cfi_def_cfa_offset 0
	ret
	.cfi_endproc
.LFE11271:
	.size	_ZNSt6vectorIxSaIxEE11_S_relocateEPxS2_S2_RS0_, .-_ZNSt6vectorIxSaIxEE11_S_relocateEPxS2_S2_RS0_
	.section	.text._ZNK9__gnu_cxx17__normal_iteratorIPxSt6vectorIxSaIxEEE4baseEv,"axG",@progbits,_ZNK9__gnu_cxx17__normal_iteratorIPxSt6vectorIxSaIxEEE4baseEv,comdat
	.align	2
	.weak	_ZNK9__gnu_cxx17__normal_iteratorIPxSt6vectorIxSaIxEEE4baseEv
	.type	_ZNK9__gnu_cxx17__normal_iteratorIPxSt6vectorIxSaIxEEE4baseEv, %function
_ZNK9__gnu_cxx17__normal_iteratorIPxSt6vectorIxSaIxEEE4baseEv:
.LFB11272:
	.cfi_startproc
	sub	sp, sp, #16
	.cfi_def_cfa_offset 16
	str	x0, [sp, 8]
	ldr	x0, [sp, 8]
	add	sp, sp, 16
	.cfi_def_cfa_offset 0
	ret
	.cfi_endproc
.LFE11272:
	.size	_ZNK9__gnu_cxx17__normal_iteratorIPxSt6vectorIxSaIxEEE4baseEv, .-_ZNK9__gnu_cxx17__normal_iteratorIPxSt6vectorIxSaIxEEE4baseEv
	.section	.text._ZNSt12_Vector_baseIxSaIxEE19_M_get_Tp_allocatorEv,"axG",@progbits,_ZNSt12_Vector_baseIxSaIxEE19_M_get_Tp_allocatorEv,comdat
	.align	2
	.weak	_ZNSt12_Vector_baseIxSaIxEE19_M_get_Tp_allocatorEv
	.type	_ZNSt12_Vector_baseIxSaIxEE19_M_get_Tp_allocatorEv, %function
_ZNSt12_Vector_baseIxSaIxEE19_M_get_Tp_allocatorEv:
.LFB11273:
	.cfi_startproc
	sub	sp, sp, #16
	.cfi_def_cfa_offset 16
	str	x0, [sp, 8]
	ldr	x0, [sp, 8]
	add	sp, sp, 16
	.cfi_def_cfa_offset 0
	ret
	.cfi_endproc
.LFE11273:
	.size	_ZNSt12_Vector_baseIxSaIxEE19_M_get_Tp_allocatorEv, .-_ZNSt12_Vector_baseIxSaIxEE19_M_get_Tp_allocatorEv
	.section	.text._ZSt8_DestroyIPxxEvT_S1_RSaIT0_E,"axG",@progbits,_ZSt8_DestroyIPxxEvT_S1_RSaIT0_E,comdat
	.align	2
	.weak	_ZSt8_DestroyIPxxEvT_S1_RSaIT0_E
	.type	_ZSt8_DestroyIPxxEvT_S1_RSaIT0_E, %function
_ZSt8_DestroyIPxxEvT_S1_RSaIT0_E:
.LFB11275:
	.cfi_startproc
	stp	x29, x30, [sp, -48]!
	.cfi_def_cfa_offset 48
	.cfi_offset 29, -48
	.cfi_offset 30, -40
	mov	x29, sp
	str	x0, [sp, 40]
	str	x1, [sp, 32]
	str	x2, [sp, 24]
	ldr	x1, [sp, 32]
	ldr	x0, [sp, 40]
	bl	_ZSt8_DestroyIPxEvT_S1_
	nop
	ldp	x29, x30, [sp], 48
	.cfi_restore 30
	.cfi_restore 29
	.cfi_def_cfa_offset 0
	ret
	.cfi_endproc
.LFE11275:
	.size	_ZSt8_DestroyIPxxEvT_S1_RSaIT0_E, .-_ZSt8_DestroyIPxxEvT_S1_RSaIT0_E
	.section	.text._ZNK9__gnu_cxx17__normal_iteratorIPxSt6vectorIxSaIxEEEmiEl,"axG",@progbits,_ZNK9__gnu_cxx17__normal_iteratorIPxSt6vectorIxSaIxEEEmiEl,comdat
	.align	2
	.weak	_ZNK9__gnu_cxx17__normal_iteratorIPxSt6vectorIxSaIxEEEmiEl
	.type	_ZNK9__gnu_cxx17__normal_iteratorIPxSt6vectorIxSaIxEEEmiEl, %function
_ZNK9__gnu_cxx17__normal_iteratorIPxSt6vectorIxSaIxEEEmiEl:
.LFB11276:
	.cfi_startproc
	stp	x29, x30, [sp, -48]!
	.cfi_def_cfa_offset 48
	.cfi_offset 29, -48
	.cfi_offset 30, -40
	mov	x29, sp
	str	x0, [sp, 24]
	str	x1, [sp, 16]
	ldr	x0, [sp, 24]
	ldr	x1, [x0]
	ldr	x0, [sp, 16]
	lsl	x0, x0, 3
	neg	x0, x0
	add	x0, x1, x0
	str	x0, [sp, 40]
	add	x1, sp, 40
	add	x0, sp, 32
	bl	_ZN9__gnu_cxx17__normal_iteratorIPxSt6vectorIxSaIxEEEC1ERKS1_
	ldr	x0, [sp, 32]
	ldp	x29, x30, [sp], 48
	.cfi_restore 30
	.cfi_restore 29
	.cfi_def_cfa_offset 0
	ret
	.cfi_endproc
.LFE11276:
	.size	_ZNK9__gnu_cxx17__normal_iteratorIPxSt6vectorIxSaIxEEEmiEl, .-_ZNK9__gnu_cxx17__normal_iteratorIPxSt6vectorIxSaIxEEEmiEl
	.section	.text._ZNK9__gnu_cxx17__normal_iteratorIPxSt6vectorIxSaIxEEEdeEv,"axG",@progbits,_ZNK9__gnu_cxx17__normal_iteratorIPxSt6vectorIxSaIxEEEdeEv,comdat
	.align	2
	.weak	_ZNK9__gnu_cxx17__normal_iteratorIPxSt6vectorIxSaIxEEEdeEv
	.type	_ZNK9__gnu_cxx17__normal_iteratorIPxSt6vectorIxSaIxEEEdeEv, %function
_ZNK9__gnu_cxx17__normal_iteratorIPxSt6vectorIxSaIxEEEdeEv:
.LFB11277:
	.cfi_startproc
	sub	sp, sp, #16
	.cfi_def_cfa_offset 16
	str	x0, [sp, 8]
	ldr	x0, [sp, 8]
	ldr	x0, [x0]
	add	sp, sp, 16
	.cfi_def_cfa_offset 0
	ret
	.cfi_endproc
.LFE11277:
	.size	_ZNK9__gnu_cxx17__normal_iteratorIPxSt6vectorIxSaIxEEEdeEv, .-_ZNK9__gnu_cxx17__normal_iteratorIPxSt6vectorIxSaIxEEEdeEv
	.section	.text._ZNK9__gnu_cxx17__normal_iteratorIPcNSt7__cxx1112basic_stringIcSt11char_traitsIcESaIcEEEE4baseEv,"axG",@progbits,_ZNK9__gnu_cxx17__normal_iteratorIPcNSt7__cxx1112basic_stringIcSt11char_traitsIcESaIcEEEE4baseEv,comdat
	.align	2
	.weak	_ZNK9__gnu_cxx17__normal_iteratorIPcNSt7__cxx1112basic_stringIcSt11char_traitsIcESaIcEEEE4baseEv
	.type	_ZNK9__gnu_cxx17__normal_iteratorIPcNSt7__cxx1112basic_stringIcSt11char_traitsIcESaIcEEEE4baseEv, %function
_ZNK9__gnu_cxx17__normal_iteratorIPcNSt7__cxx1112basic_stringIcSt11char_traitsIcESaIcEEEE4baseEv:
.LFB11278:
	.cfi_startproc
	sub	sp, sp, #16
	.cfi_def_cfa_offset 16
	str	x0, [sp, 8]
	ldr	x0, [sp, 8]
	add	sp, sp, 16
	.cfi_def_cfa_offset 0
	ret
	.cfi_endproc
.LFE11278:
	.size	_ZNK9__gnu_cxx17__normal_iteratorIPcNSt7__cxx1112basic_stringIcSt11char_traitsIcESaIcEEEE4baseEv, .-_ZNK9__gnu_cxx17__normal_iteratorIPcNSt7__cxx1112basic_stringIcSt11char_traitsIcESaIcEEEE4baseEv
	.section	.text._ZNK9__gnu_cxx17__normal_iteratorIPcNSt7__cxx1112basic_stringIcSt11char_traitsIcESaIcEEEEdeEv,"axG",@progbits,_ZNK9__gnu_cxx17__normal_iteratorIPcNSt7__cxx1112basic_stringIcSt11char_traitsIcESaIcEEEEdeEv,comdat
	.align	2
	.weak	_ZNK9__gnu_cxx17__normal_iteratorIPcNSt7__cxx1112basic_stringIcSt11char_traitsIcESaIcEEEEdeEv
	.type	_ZNK9__gnu_cxx17__normal_iteratorIPcNSt7__cxx1112basic_stringIcSt11char_traitsIcESaIcEEEEdeEv, %function
_ZNK9__gnu_cxx17__normal_iteratorIPcNSt7__cxx1112basic_stringIcSt11char_traitsIcESaIcEEEEdeEv:
.LFB11279:
	.cfi_startproc
	sub	sp, sp, #16
	.cfi_def_cfa_offset 16
	str	x0, [sp, 8]
	ldr	x0, [sp, 8]
	ldr	x0, [x0]
	add	sp, sp, 16
	.cfi_def_cfa_offset 0
	ret
	.cfi_endproc
.LFE11279:
	.size	_ZNK9__gnu_cxx17__normal_iteratorIPcNSt7__cxx1112basic_stringIcSt11char_traitsIcESaIcEEEEdeEv, .-_ZNK9__gnu_cxx17__normal_iteratorIPcNSt7__cxx1112basic_stringIcSt11char_traitsIcESaIcEEEEdeEv
	.section	.text._ZSt4moveIRcEONSt16remove_referenceIT_E4typeEOS2_,"axG",@progbits,_ZSt4moveIRcEONSt16remove_referenceIT_E4typeEOS2_,comdat
	.align	2
	.weak	_ZSt4moveIRcEONSt16remove_referenceIT_E4typeEOS2_
	.type	_ZSt4moveIRcEONSt16remove_referenceIT_E4typeEOS2_, %function
_ZSt4moveIRcEONSt16remove_referenceIT_E4typeEOS2_:
.LFB11281:
	.cfi_startproc
	sub	sp, sp, #16
	.cfi_def_cfa_offset 16
	str	x0, [sp, 8]
	ldr	x0, [sp, 8]
	add	sp, sp, 16
	.cfi_def_cfa_offset 0
	ret
	.cfi_endproc
.LFE11281:
	.size	_ZSt4moveIRcEONSt16remove_referenceIT_E4typeEOS2_, .-_ZSt4moveIRcEONSt16remove_referenceIT_E4typeEOS2_
	.section	.text._ZSt4swapIcENSt9enable_ifIXsrSt6__and_IJSt6__not_ISt15__is_tuple_likeIT_EESt21is_move_constructibleIS4_ESt18is_move_assignableIS4_EEE5valueEvE4typeERS4_SE_,"axG",@progbits,_ZSt4swapIcENSt9enable_ifIXsrSt6__and_IJSt6__not_ISt15__is_tuple_likeIT_EESt21is_move_constructibleIS4_ESt18is_move_assignableIS4_EEE5valueEvE4typeERS4_SE_,comdat
	.align	2
	.weak	_ZSt4swapIcENSt9enable_ifIXsrSt6__and_IJSt6__not_ISt15__is_tuple_likeIT_EESt21is_move_constructibleIS4_ESt18is_move_assignableIS4_EEE5valueEvE4typeERS4_SE_
	.type	_ZSt4swapIcENSt9enable_ifIXsrSt6__and_IJSt6__not_ISt15__is_tuple_likeIT_EESt21is_move_constructibleIS4_ESt18is_move_assignableIS4_EEE5valueEvE4typeERS4_SE_, %function
_ZSt4swapIcENSt9enable_ifIXsrSt6__and_IJSt6__not_ISt15__is_tuple_likeIT_EESt21is_move_constructibleIS4_ESt18is_move_assignableIS4_EEE5valueEvE4typeERS4_SE_:
.LFB11280:
	.cfi_startproc
	stp	x29, x30, [sp, -48]!
	.cfi_def_cfa_offset 48
	.cfi_offset 29, -48
	.cfi_offset 30, -40
	mov	x29, sp
	str	x0, [sp, 24]
	str	x1, [sp, 16]
	ldr	x0, [sp, 24]
	bl	_ZSt4moveIRcEONSt16remove_referenceIT_E4typeEOS2_
	ldrb	w0, [x0]
	strb	w0, [sp, 47]
	ldr	x0, [sp, 16]
	bl	_ZSt4moveIRcEONSt16remove_referenceIT_E4typeEOS2_
	ldrb	w1, [x0]
	ldr	x0, [sp, 24]
	strb	w1, [x0]
	add	x0, sp, 47
	bl	_ZSt4moveIRcEONSt16remove_referenceIT_E4typeEOS2_
	ldrb	w1, [x0]
	ldr	x0, [sp, 16]
	strb	w1, [x0]
	nop
	ldp	x29, x30, [sp], 48
	.cfi_restore 30
	.cfi_restore 29
	.cfi_def_cfa_offset 0
	ret
	.cfi_endproc
.LFE11280:
	.size	_ZSt4swapIcENSt9enable_ifIXsrSt6__and_IJSt6__not_ISt15__is_tuple_likeIT_EESt21is_move_constructibleIS4_ESt18is_move_assignableIS4_EEE5valueEvE4typeERS4_SE_, .-_ZSt4swapIcENSt9enable_ifIXsrSt6__and_IJSt6__not_ISt15__is_tuple_likeIT_EESt21is_move_constructibleIS4_ESt18is_move_assignableIS4_EEE5valueEvE4typeERS4_SE_
	.section	.text._ZNSt16allocator_traitsISaISt4pairINSt7__cxx1112basic_stringIcSt11char_traitsIcESaIcEEEiEEE8max_sizeERKS8_,"axG",@progbits,_ZNSt16allocator_traitsISaISt4pairINSt7__cxx1112basic_stringIcSt11char_traitsIcESaIcEEEiEEE8max_sizeERKS8_,comdat
	.align	2
	.weak	_ZNSt16allocator_traitsISaISt4pairINSt7__cxx1112basic_stringIcSt11char_traitsIcESaIcEEEiEEE8max_sizeERKS8_
	.type	_ZNSt16allocator_traitsISaISt4pairINSt7__cxx1112basic_stringIcSt11char_traitsIcESaIcEEEiEEE8max_sizeERKS8_, %function
_ZNSt16allocator_traitsISaISt4pairINSt7__cxx1112basic_stringIcSt11char_traitsIcESaIcEEEiEEE8max_sizeERKS8_:
.LFB11282:
	.cfi_startproc
	stp	x29, x30, [sp, -32]!
	.cfi_def_cfa_offset 32
	.cfi_offset 29, -32
	.cfi_offset 30, -24
	mov	x29, sp
	str	x0, [sp, 24]
	ldr	x0, [sp, 24]
	bl	_ZNK9__gnu_cxx13new_allocatorISt4pairINSt7__cxx1112basic_stringIcSt11char_traitsIcESaIcEEEiEE8max_sizeEv
	ldp	x29, x30, [sp], 32
	.cfi_restore 30
	.cfi_restore 29
	.cfi_def_cfa_offset 0
	ret
	.cfi_endproc
.LFE11282:
	.size	_ZNSt16allocator_traitsISaISt4pairINSt7__cxx1112basic_stringIcSt11char_traitsIcESaIcEEEiEEE8max_sizeERKS8_, .-_ZNSt16allocator_traitsISaISt4pairINSt7__cxx1112basic_stringIcSt11char_traitsIcESaIcEEEiEEE8max_sizeERKS8_
	.section	.text._ZN9__gnu_cxx13new_allocatorISt4pairINSt7__cxx1112basic_stringIcSt11char_traitsIcESaIcEEEiEEC2ERKS9_,"axG",@progbits,_ZN9__gnu_cxx13new_allocatorISt4pairINSt7__cxx1112basic_stringIcSt11char_traitsIcESaIcEEEiEEC5ERKS9_,comdat
	.align	2
	.weak	_ZN9__gnu_cxx13new_allocatorISt4pairINSt7__cxx1112basic_stringIcSt11char_traitsIcESaIcEEEiEEC2ERKS9_
	.type	_ZN9__gnu_cxx13new_allocatorISt4pairINSt7__cxx1112basic_stringIcSt11char_traitsIcESaIcEEEiEEC2ERKS9_, %function
_ZN9__gnu_cxx13new_allocatorISt4pairINSt7__cxx1112basic_stringIcSt11char_traitsIcESaIcEEEiEEC2ERKS9_:
.LFB11284:
	.cfi_startproc
	sub	sp, sp, #16
	.cfi_def_cfa_offset 16
	str	x0, [sp, 8]
	str	x1, [sp]
	nop
	add	sp, sp, 16
	.cfi_def_cfa_offset 0
	ret
	.cfi_endproc
.LFE11284:
	.size	_ZN9__gnu_cxx13new_allocatorISt4pairINSt7__cxx1112basic_stringIcSt11char_traitsIcESaIcEEEiEEC2ERKS9_, .-_ZN9__gnu_cxx13new_allocatorISt4pairINSt7__cxx1112basic_stringIcSt11char_traitsIcESaIcEEEiEEC2ERKS9_
	.weak	_ZN9__gnu_cxx13new_allocatorISt4pairINSt7__cxx1112basic_stringIcSt11char_traitsIcESaIcEEEiEEC1ERKS9_
	.set	_ZN9__gnu_cxx13new_allocatorISt4pairINSt7__cxx1112basic_stringIcSt11char_traitsIcESaIcEEEiEEC1ERKS9_,_ZN9__gnu_cxx13new_allocatorISt4pairINSt7__cxx1112basic_stringIcSt11char_traitsIcESaIcEEEiEEC2ERKS9_
	.section	.text._ZNSt12_Vector_baseISt4pairINSt7__cxx1112basic_stringIcSt11char_traitsIcESaIcEEEiESaIS7_EE17_Vector_impl_dataC2Ev,"axG",@progbits,_ZNSt12_Vector_baseISt4pairINSt7__cxx1112basic_stringIcSt11char_traitsIcESaIcEEEiESaIS7_EE17_Vector_impl_dataC5Ev,comdat
	.align	2
	.weak	_ZNSt12_Vector_baseISt4pairINSt7__cxx1112basic_stringIcSt11char_traitsIcESaIcEEEiESaIS7_EE17_Vector_impl_dataC2Ev
	.type	_ZNSt12_Vector_baseISt4pairINSt7__cxx1112basic_stringIcSt11char_traitsIcESaIcEEEiESaIS7_EE17_Vector_impl_dataC2Ev, %function
_ZNSt12_Vector_baseISt4pairINSt7__cxx1112basic_stringIcSt11char_traitsIcESaIcEEEiESaIS7_EE17_Vector_impl_dataC2Ev:
.LFB11287:
	.cfi_startproc
	sub	sp, sp, #16
	.cfi_def_cfa_offset 16
	str	x0, [sp, 8]
	ldr	x0, [sp, 8]
	str	xzr, [x0]
	ldr	x0, [sp, 8]
	str	xzr, [x0, 8]
	ldr	x0, [sp, 8]
	str	xzr, [x0, 16]
	nop
	add	sp, sp, 16
	.cfi_def_cfa_offset 0
	ret
	.cfi_endproc
.LFE11287:
	.size	_ZNSt12_Vector_baseISt4pairINSt7__cxx1112basic_stringIcSt11char_traitsIcESaIcEEEiESaIS7_EE17_Vector_impl_dataC2Ev, .-_ZNSt12_Vector_baseISt4pairINSt7__cxx1112basic_stringIcSt11char_traitsIcESaIcEEEiESaIS7_EE17_Vector_impl_dataC2Ev
	.weak	_ZNSt12_Vector_baseISt4pairINSt7__cxx1112basic_stringIcSt11char_traitsIcESaIcEEEiESaIS7_EE17_Vector_impl_dataC1Ev
	.set	_ZNSt12_Vector_baseISt4pairINSt7__cxx1112basic_stringIcSt11char_traitsIcESaIcEEEiESaIS7_EE17_Vector_impl_dataC1Ev,_ZNSt12_Vector_baseISt4pairINSt7__cxx1112basic_stringIcSt11char_traitsIcESaIcEEEiESaIS7_EE17_Vector_impl_dataC2Ev
	.section	.text._ZNSt12_Vector_baseISt4pairINSt7__cxx1112basic_stringIcSt11char_traitsIcESaIcEEEiESaIS7_EE11_M_allocateEm,"axG",@progbits,_ZNSt12_Vector_baseISt4pairINSt7__cxx1112basic_stringIcSt11char_traitsIcESaIcEEEiESaIS7_EE11_M_allocateEm,comdat
	.align	2
	.weak	_ZNSt12_Vector_baseISt4pairINSt7__cxx1112basic_stringIcSt11char_traitsIcESaIcEEEiESaIS7_EE11_M_allocateEm
	.type	_ZNSt12_Vector_baseISt4pairINSt7__cxx1112basic_stringIcSt11char_traitsIcESaIcEEEiESaIS7_EE11_M_allocateEm, %function
_ZNSt12_Vector_baseISt4pairINSt7__cxx1112basic_stringIcSt11char_traitsIcESaIcEEEiESaIS7_EE11_M_allocateEm:
.LFB11289:
	.cfi_startproc
	stp	x29, x30, [sp, -32]!
	.cfi_def_cfa_offset 32
	.cfi_offset 29, -32
	.cfi_offset 30, -24
	mov	x29, sp
	str	x0, [sp, 24]
	str	x1, [sp, 16]
	ldr	x0, [sp, 16]
	cmp	x0, 0
	beq	.L289
	ldr	x0, [sp, 24]
	ldr	x1, [sp, 16]
	bl	_ZNSt16allocator_traitsISaISt4pairINSt7__cxx1112basic_stringIcSt11char_traitsIcESaIcEEEiEEE8allocateERS8_m
	b	.L291
.L289:
	mov	x0, 0
.L291:
	ldp	x29, x30, [sp], 32
	.cfi_restore 30
	.cfi_restore 29
	.cfi_def_cfa_offset 0
	ret
	.cfi_endproc
.LFE11289:
	.size	_ZNSt12_Vector_baseISt4pairINSt7__cxx1112basic_stringIcSt11char_traitsIcESaIcEEEiESaIS7_EE11_M_allocateEm, .-_ZNSt12_Vector_baseISt4pairINSt7__cxx1112basic_stringIcSt11char_traitsIcESaIcEEEiESaIS7_EE11_M_allocateEm
	.section	.text._ZNSt16allocator_traitsISaISt4pairINSt7__cxx1112basic_stringIcSt11char_traitsIcESaIcEEEiEEE10deallocateERS8_PS7_m,"axG",@progbits,_ZNSt16allocator_traitsISaISt4pairINSt7__cxx1112basic_stringIcSt11char_traitsIcESaIcEEEiEEE10deallocateERS8_PS7_m,comdat
	.align	2
	.weak	_ZNSt16allocator_traitsISaISt4pairINSt7__cxx1112basic_stringIcSt11char_traitsIcESaIcEEEiEEE10deallocateERS8_PS7_m
	.type	_ZNSt16allocator_traitsISaISt4pairINSt7__cxx1112basic_stringIcSt11char_traitsIcESaIcEEEiEEE10deallocateERS8_PS7_m, %function
_ZNSt16allocator_traitsISaISt4pairINSt7__cxx1112basic_stringIcSt11char_traitsIcESaIcEEEiEEE10deallocateERS8_PS7_m:
.LFB11290:
	.cfi_startproc
	stp	x29, x30, [sp, -48]!
	.cfi_def_cfa_offset 48
	.cfi_offset 29, -48
	.cfi_offset 30, -40
	mov	x29, sp
	str	x0, [sp, 40]
	str	x1, [sp, 32]
	str	x2, [sp, 24]
	ldr	x2, [sp, 24]
	ldr	x1, [sp, 32]
	ldr	x0, [sp, 40]
	bl	_ZN9__gnu_cxx13new_allocatorISt4pairINSt7__cxx1112basic_stringIcSt11char_traitsIcESaIcEEEiEE10deallocateEPS8_m
	nop
	ldp	x29, x30, [sp], 48
	.cfi_restore 30
	.cfi_restore 29
	.cfi_def_cfa_offset 0
	ret
	.cfi_endproc
.LFE11290:
	.size	_ZNSt16allocator_traitsISaISt4pairINSt7__cxx1112basic_stringIcSt11char_traitsIcESaIcEEEiEEE10deallocateERS8_PS7_m, .-_ZNSt16allocator_traitsISaISt4pairINSt7__cxx1112basic_stringIcSt11char_traitsIcESaIcEEEiEEE10deallocateERS8_PS7_m
	.section	.text._ZSt25__uninitialized_default_nIPSt4pairINSt7__cxx1112basic_stringIcSt11char_traitsIcESaIcEEEiEmET_S9_T0_,"axG",@progbits,_ZSt25__uninitialized_default_nIPSt4pairINSt7__cxx1112basic_stringIcSt11char_traitsIcESaIcEEEiEmET_S9_T0_,comdat
	.align	2
	.weak	_ZSt25__uninitialized_default_nIPSt4pairINSt7__cxx1112basic_stringIcSt11char_traitsIcESaIcEEEiEmET_S9_T0_
	.type	_ZSt25__uninitialized_default_nIPSt4pairINSt7__cxx1112basic_stringIcSt11char_traitsIcESaIcEEEiEmET_S9_T0_, %function
_ZSt25__uninitialized_default_nIPSt4pairINSt7__cxx1112basic_stringIcSt11char_traitsIcESaIcEEEiEmET_S9_T0_:
.LFB11291:
	.cfi_startproc
	stp	x29, x30, [sp, -48]!
	.cfi_def_cfa_offset 48
	.cfi_offset 29, -48
	.cfi_offset 30, -40
	mov	x29, sp
	str	x0, [sp, 24]
	str	x1, [sp, 16]
	mov	w0, 1
	strb	w0, [sp, 47]
	ldr	x1, [sp, 16]
	ldr	x0, [sp, 24]
	bl	_ZNSt27__uninitialized_default_n_1ILb0EE18__uninit_default_nIPSt4pairINSt7__cxx1112basic_stringIcSt11char_traitsIcESaIcEEEiEmEET_SB_T0_
	ldp	x29, x30, [sp], 48
	.cfi_restore 30
	.cfi_restore 29
	.cfi_def_cfa_offset 0
	ret
	.cfi_endproc
.LFE11291:
	.size	_ZSt25__uninitialized_default_nIPSt4pairINSt7__cxx1112basic_stringIcSt11char_traitsIcESaIcEEEiEmET_S9_T0_, .-_ZSt25__uninitialized_default_nIPSt4pairINSt7__cxx1112basic_stringIcSt11char_traitsIcESaIcEEEiEmET_S9_T0_
	.section	.text._ZNSt12_Destroy_auxILb0EE9__destroyIPSt4pairINSt7__cxx1112basic_stringIcSt11char_traitsIcESaIcEEEiEEEvT_SB_,"axG",@progbits,_ZNSt12_Destroy_auxILb0EE9__destroyIPSt4pairINSt7__cxx1112basic_stringIcSt11char_traitsIcESaIcEEEiEEEvT_SB_,comdat
	.align	2
	.weak	_ZNSt12_Destroy_auxILb0EE9__destroyIPSt4pairINSt7__cxx1112basic_stringIcSt11char_traitsIcESaIcEEEiEEEvT_SB_
	.type	_ZNSt12_Destroy_auxILb0EE9__destroyIPSt4pairINSt7__cxx1112basic_stringIcSt11char_traitsIcESaIcEEEiEEEvT_SB_, %function
_ZNSt12_Destroy_auxILb0EE9__destroyIPSt4pairINSt7__cxx1112basic_stringIcSt11char_traitsIcESaIcEEEiEEEvT_SB_:
.LFB11292:
	.cfi_startproc
	stp	x29, x30, [sp, -32]!
	.cfi_def_cfa_offset 32
	.cfi_offset 29, -32
	.cfi_offset 30, -24
	mov	x29, sp
	str	x0, [sp, 24]
	str	x1, [sp, 16]
	b	.L296
.L297:
	ldr	x0, [sp, 24]
	bl	_ZSt11__addressofISt4pairINSt7__cxx1112basic_stringIcSt11char_traitsIcESaIcEEEiEEPT_RS8_
	bl	_ZSt8_DestroyISt4pairINSt7__cxx1112basic_stringIcSt11char_traitsIcESaIcEEEiEEvPT_
	ldr	x0, [sp, 24]
	add	x0, x0, 40
	str	x0, [sp, 24]
.L296:
	ldr	x1, [sp, 24]
	ldr	x0, [sp, 16]
	cmp	x1, x0
	bne	.L297
	nop
	nop
	ldp	x29, x30, [sp], 32
	.cfi_restore 30
	.cfi_restore 29
	.cfi_def_cfa_offset 0
	ret
	.cfi_endproc
.LFE11292:
	.size	_ZNSt12_Destroy_auxILb0EE9__destroyIPSt4pairINSt7__cxx1112basic_stringIcSt11char_traitsIcESaIcEEEiEEEvT_SB_, .-_ZNSt12_Destroy_auxILb0EE9__destroyIPSt4pairINSt7__cxx1112basic_stringIcSt11char_traitsIcESaIcEEEiEEEvT_SB_
	.section	.text._ZNK9__gnu_cxx17__normal_iteratorIPSt4pairINSt7__cxx1112basic_stringIcSt11char_traitsIcESaIcEEEiESt6vectorIS8_SaIS8_EEE4baseEv,"axG",@progbits,_ZNK9__gnu_cxx17__normal_iteratorIPSt4pairINSt7__cxx1112basic_stringIcSt11char_traitsIcESaIcEEEiESt6vectorIS8_SaIS8_EEE4baseEv,comdat
	.align	2
	.weak	_ZNK9__gnu_cxx17__normal_iteratorIPSt4pairINSt7__cxx1112basic_stringIcSt11char_traitsIcESaIcEEEiESt6vectorIS8_SaIS8_EEE4baseEv
	.type	_ZNK9__gnu_cxx17__normal_iteratorIPSt4pairINSt7__cxx1112basic_stringIcSt11char_traitsIcESaIcEEEiESt6vectorIS8_SaIS8_EEE4baseEv, %function
_ZNK9__gnu_cxx17__normal_iteratorIPSt4pairINSt7__cxx1112basic_stringIcSt11char_traitsIcESaIcEEEiESt6vectorIS8_SaIS8_EEE4baseEv:
.LFB11293:
	.cfi_startproc
	sub	sp, sp, #16
	.cfi_def_cfa_offset 16
	str	x0, [sp, 8]
	ldr	x0, [sp, 8]
	add	sp, sp, 16
	.cfi_def_cfa_offset 0
	ret
	.cfi_endproc
.LFE11293:
	.size	_ZNK9__gnu_cxx17__normal_iteratorIPSt4pairINSt7__cxx1112basic_stringIcSt11char_traitsIcESaIcEEEiESt6vectorIS8_SaIS8_EEE4baseEv, .-_ZNK9__gnu_cxx17__normal_iteratorIPSt4pairINSt7__cxx1112basic_stringIcSt11char_traitsIcESaIcEEEiESt6vectorIS8_SaIS8_EEE4baseEv
	.section	.text._ZSt14__partial_sortIN9__gnu_cxx17__normal_iteratorIPSt4pairINSt7__cxx1112basic_stringIcSt11char_traitsIcESaIcEEEiESt6vectorIS9_SaIS9_EEEENS0_5__ops15_Iter_comp_iterIPFbRS9_SH_EEEEvT_SL_SL_T0_,"axG",@progbits,_ZSt14__partial_sortIN9__gnu_cxx17__normal_iteratorIPSt4pairINSt7__cxx1112basic_stringIcSt11char_traitsIcESaIcEEEiESt6vectorIS9_SaIS9_EEEENS0_5__ops15_Iter_comp_iterIPFbRS9_SH_EEEEvT_SL_SL_T0_,comdat
	.align	2
	.weak	_ZSt14__partial_sortIN9__gnu_cxx17__normal_iteratorIPSt4pairINSt7__cxx1112basic_stringIcSt11char_traitsIcESaIcEEEiESt6vectorIS9_SaIS9_EEEENS0_5__ops15_Iter_comp_iterIPFbRS9_SH_EEEEvT_SL_SL_T0_
	.type	_ZSt14__partial_sortIN9__gnu_cxx17__normal_iteratorIPSt4pairINSt7__cxx1112basic_stringIcSt11char_traitsIcESaIcEEEiESt6vectorIS9_SaIS9_EEEENS0_5__ops15_Iter_comp_iterIPFbRS9_SH_EEEEvT_SL_SL_T0_, %function
_ZSt14__partial_sortIN9__gnu_cxx17__normal_iteratorIPSt4pairINSt7__cxx1112basic_stringIcSt11char_traitsIcESaIcEEEiESt6vectorIS9_SaIS9_EEEENS0_5__ops15_Iter_comp_iterIPFbRS9_SH_EEEEvT_SL_SL_T0_:
.LFB11294:
	.cfi_startproc
	stp	x29, x30, [sp, -48]!
	.cfi_def_cfa_offset 48
	.cfi_offset 29, -48
	.cfi_offset 30, -40
	mov	x29, sp
	str	x0, [sp, 40]
	str	x1, [sp, 32]
	str	x2, [sp, 24]
	str	x3, [sp, 16]
	ldr	x3, [sp, 16]
	ldr	x2, [sp, 24]
	ldr	x1, [sp, 32]
	ldr	x0, [sp, 40]
	bl	_ZSt13__heap_selectIN9__gnu_cxx17__normal_iteratorIPSt4pairINSt7__cxx1112basic_stringIcSt11char_traitsIcESaIcEEEiESt6vectorIS9_SaIS9_EEEENS0_5__ops15_Iter_comp_iterIPFbRS9_SH_EEEEvT_SL_SL_T0_
	add	x0, sp, 16
	mov	x2, x0
	ldr	x1, [sp, 32]
	ldr	x0, [sp, 40]
	bl	_ZSt11__sort_heapIN9__gnu_cxx17__normal_iteratorIPSt4pairINSt7__cxx1112basic_stringIcSt11char_traitsIcESaIcEEEiESt6vectorIS9_SaIS9_EEEENS0_5__ops15_Iter_comp_iterIPFbRS9_SH_EEEEvT_SL_RT0_
	nop
	ldp	x29, x30, [sp], 48
	.cfi_restore 30
	.cfi_restore 29
	.cfi_def_cfa_offset 0
	ret
	.cfi_endproc
.LFE11294:
	.size	_ZSt14__partial_sortIN9__gnu_cxx17__normal_iteratorIPSt4pairINSt7__cxx1112basic_stringIcSt11char_traitsIcESaIcEEEiESt6vectorIS9_SaIS9_EEEENS0_5__ops15_Iter_comp_iterIPFbRS9_SH_EEEEvT_SL_SL_T0_, .-_ZSt14__partial_sortIN9__gnu_cxx17__normal_iteratorIPSt4pairINSt7__cxx1112basic_stringIcSt11char_traitsIcESaIcEEEiESt6vectorIS9_SaIS9_EEEENS0_5__ops15_Iter_comp_iterIPFbRS9_SH_EEEEvT_SL_SL_T0_
	.section	.text._ZSt27__unguarded_partition_pivotIN9__gnu_cxx17__normal_iteratorIPSt4pairINSt7__cxx1112basic_stringIcSt11char_traitsIcESaIcEEEiESt6vectorIS9_SaIS9_EEEENS0_5__ops15_Iter_comp_iterIPFbRS9_SH_EEEET_SL_SL_T0_,"axG",@progbits,_ZSt27__unguarded_partition_pivotIN9__gnu_cxx17__normal_iteratorIPSt4pairINSt7__cxx1112basic_stringIcSt11char_traitsIcESaIcEEEiESt6vectorIS9_SaIS9_EEEENS0_5__ops15_Iter_comp_iterIPFbRS9_SH_EEEET_SL_SL_T0_,comdat
	.align	2
	.weak	_ZSt27__unguarded_partition_pivotIN9__gnu_cxx17__normal_iteratorIPSt4pairINSt7__cxx1112basic_stringIcSt11char_traitsIcESaIcEEEiESt6vectorIS9_SaIS9_EEEENS0_5__ops15_Iter_comp_iterIPFbRS9_SH_EEEET_SL_SL_T0_
	.type	_ZSt27__unguarded_partition_pivotIN9__gnu_cxx17__normal_iteratorIPSt4pairINSt7__cxx1112basic_stringIcSt11char_traitsIcESaIcEEEiESt6vectorIS9_SaIS9_EEEENS0_5__ops15_Iter_comp_iterIPFbRS9_SH_EEEET_SL_SL_T0_, %function
_ZSt27__unguarded_partition_pivotIN9__gnu_cxx17__normal_iteratorIPSt4pairINSt7__cxx1112basic_stringIcSt11char_traitsIcESaIcEEEiESt6vectorIS9_SaIS9_EEEENS0_5__ops15_Iter_comp_iterIPFbRS9_SH_EEEET_SL_SL_T0_:
.LFB11295:
	.cfi_startproc
	stp	x29, x30, [sp, -80]!
	.cfi_def_cfa_offset 80
	.cfi_offset 29, -80
	.cfi_offset 30, -72
	mov	x29, sp
	str	x19, [sp, 16]
	.cfi_offset 19, -64
	str	x0, [sp, 56]
	str	x1, [sp, 48]
	str	x2, [sp, 40]
	add	x1, sp, 56
	add	x0, sp, 48
	bl	_ZN9__gnu_cxxmiIPSt4pairINSt7__cxx1112basic_stringIcSt11char_traitsIcESaIcEEEiESt6vectorIS8_SaIS8_EEEENS_17__normal_iteratorIT_T0_E15difference_typeERKSG_SJ_
	lsr	x1, x0, 63
	add	x0, x1, x0
	asr	x0, x0, 1
	mov	x1, x0
	add	x0, sp, 56
	bl	_ZNK9__gnu_cxx17__normal_iteratorIPSt4pairINSt7__cxx1112basic_stringIcSt11char_traitsIcESaIcEEEiESt6vectorIS8_SaIS8_EEEplEl
	str	x0, [sp, 72]
	add	x0, sp, 56
	mov	x1, 1
	bl	_ZNK9__gnu_cxx17__normal_iteratorIPSt4pairINSt7__cxx1112basic_stringIcSt11char_traitsIcESaIcEEEiESt6vectorIS8_SaIS8_EEEplEl
	mov	x19, x0
	add	x0, sp, 48
	mov	x1, 1
	bl	_ZNK9__gnu_cxx17__normal_iteratorIPSt4pairINSt7__cxx1112basic_stringIcSt11char_traitsIcESaIcEEEiESt6vectorIS8_SaIS8_EEEmiEl
	ldr	x4, [sp, 40]
	mov	x3, x0
	ldr	x2, [sp, 72]
	mov	x1, x19
	ldr	x0, [sp, 56]
	bl	_ZSt22__move_median_to_firstIN9__gnu_cxx17__normal_iteratorIPSt4pairINSt7__cxx1112basic_stringIcSt11char_traitsIcESaIcEEEiESt6vectorIS9_SaIS9_EEEENS0_5__ops15_Iter_comp_iterIPFbRS9_SH_EEEEvT_SL_SL_SL_T0_
	add	x0, sp, 56
	mov	x1, 1
	bl	_ZNK9__gnu_cxx17__normal_iteratorIPSt4pairINSt7__cxx1112basic_stringIcSt11char_traitsIcESaIcEEEiESt6vectorIS8_SaIS8_EEEplEl
	ldr	x3, [sp, 40]
	ldr	x2, [sp, 56]
	ldr	x1, [sp, 48]
	bl	_ZSt21__unguarded_partitionIN9__gnu_cxx17__normal_iteratorIPSt4pairINSt7__cxx1112basic_stringIcSt11char_traitsIcESaIcEEEiESt6vectorIS9_SaIS9_EEEENS0_5__ops15_Iter_comp_iterIPFbRS9_SH_EEEET_SL_SL_SL_T0_
	ldr	x19, [sp, 16]
	ldp	x29, x30, [sp], 80
	.cfi_restore 30
	.cfi_restore 29
	.cfi_restore 19
	.cfi_def_cfa_offset 0
	ret
	.cfi_endproc
.LFE11295:
	.size	_ZSt27__unguarded_partition_pivotIN9__gnu_cxx17__normal_iteratorIPSt4pairINSt7__cxx1112basic_stringIcSt11char_traitsIcESaIcEEEiESt6vectorIS9_SaIS9_EEEENS0_5__ops15_Iter_comp_iterIPFbRS9_SH_EEEET_SL_SL_T0_, .-_ZSt27__unguarded_partition_pivotIN9__gnu_cxx17__normal_iteratorIPSt4pairINSt7__cxx1112basic_stringIcSt11char_traitsIcESaIcEEEiESt6vectorIS9_SaIS9_EEEENS0_5__ops15_Iter_comp_iterIPFbRS9_SH_EEEET_SL_SL_T0_
	.section	.text._ZNK9__gnu_cxx17__normal_iteratorIPSt4pairINSt7__cxx1112basic_stringIcSt11char_traitsIcESaIcEEEiESt6vectorIS8_SaIS8_EEEplEl,"axG",@progbits,_ZNK9__gnu_cxx17__normal_iteratorIPSt4pairINSt7__cxx1112basic_stringIcSt11char_traitsIcESaIcEEEiESt6vectorIS8_SaIS8_EEEplEl,comdat
	.align	2
	.weak	_ZNK9__gnu_cxx17__normal_iteratorIPSt4pairINSt7__cxx1112basic_stringIcSt11char_traitsIcESaIcEEEiESt6vectorIS8_SaIS8_EEEplEl
	.type	_ZNK9__gnu_cxx17__normal_iteratorIPSt4pairINSt7__cxx1112basic_stringIcSt11char_traitsIcESaIcEEEiESt6vectorIS8_SaIS8_EEEplEl, %function
_ZNK9__gnu_cxx17__normal_iteratorIPSt4pairINSt7__cxx1112basic_stringIcSt11char_traitsIcESaIcEEEiESt6vectorIS8_SaIS8_EEEplEl:
.LFB11296:
	.cfi_startproc
	stp	x29, x30, [sp, -48]!
	.cfi_def_cfa_offset 48
	.cfi_offset 29, -48
	.cfi_offset 30, -40
	mov	x29, sp
	str	x0, [sp, 24]
	str	x1, [sp, 16]
	ldr	x0, [sp, 24]
	ldr	x2, [x0]
	ldr	x1, [sp, 16]
	mov	x0, x1
	lsl	x0, x0, 2
	add	x0, x0, x1
	lsl	x0, x0, 3
	add	x0, x2, x0
	str	x0, [sp, 40]
	add	x1, sp, 40
	add	x0, sp, 32
	bl	_ZN9__gnu_cxx17__normal_iteratorIPSt4pairINSt7__cxx1112basic_stringIcSt11char_traitsIcESaIcEEEiESt6vectorIS8_SaIS8_EEEC1ERKS9_
	ldr	x0, [sp, 32]
	ldp	x29, x30, [sp], 48
	.cfi_restore 30
	.cfi_restore 29
	.cfi_def_cfa_offset 0
	ret
	.cfi_endproc
.LFE11296:
	.size	_ZNK9__gnu_cxx17__normal_iteratorIPSt4pairINSt7__cxx1112basic_stringIcSt11char_traitsIcESaIcEEEiESt6vectorIS8_SaIS8_EEEplEl, .-_ZNK9__gnu_cxx17__normal_iteratorIPSt4pairINSt7__cxx1112basic_stringIcSt11char_traitsIcESaIcEEEiESt6vectorIS8_SaIS8_EEEplEl
	.section	.text._ZNSt4pairINSt7__cxx1112basic_stringIcSt11char_traitsIcESaIcEEEiEC2EOS6_,"axG",@progbits,_ZNSt4pairINSt7__cxx1112basic_stringIcSt11char_traitsIcESaIcEEEiEC5EOS6_,comdat
	.align	2
	.weak	_ZNSt4pairINSt7__cxx1112basic_stringIcSt11char_traitsIcESaIcEEEiEC2EOS6_
	.type	_ZNSt4pairINSt7__cxx1112basic_stringIcSt11char_traitsIcESaIcEEEiEC2EOS6_, %function
_ZNSt4pairINSt7__cxx1112basic_stringIcSt11char_traitsIcESaIcEEEiEC2EOS6_:
.LFB11299:
	.cfi_startproc
	stp	x29, x30, [sp, -32]!
	.cfi_def_cfa_offset 32
	.cfi_offset 29, -32
	.cfi_offset 30, -24
	mov	x29, sp
	str	x0, [sp, 24]
	str	x1, [sp, 16]
	ldr	x0, [sp, 24]
	ldr	x1, [sp, 16]
	bl	_ZNSt7__cxx1112basic_stringIcSt11char_traitsIcESaIcEEC1EOS4_
	ldr	x0, [sp, 16]
	ldr	w1, [x0, 32]
	ldr	x0, [sp, 24]
	str	w1, [x0, 32]
	nop
	ldp	x29, x30, [sp], 32
	.cfi_restore 30
	.cfi_restore 29
	.cfi_def_cfa_offset 0
	ret
	.cfi_endproc
.LFE11299:
	.size	_ZNSt4pairINSt7__cxx1112basic_stringIcSt11char_traitsIcESaIcEEEiEC2EOS6_, .-_ZNSt4pairINSt7__cxx1112basic_stringIcSt11char_traitsIcESaIcEEEiEC2EOS6_
	.weak	_ZNSt4pairINSt7__cxx1112basic_stringIcSt11char_traitsIcESaIcEEEiEC1EOS6_
	.set	_ZNSt4pairINSt7__cxx1112basic_stringIcSt11char_traitsIcESaIcEEEiEC1EOS6_,_ZNSt4pairINSt7__cxx1112basic_stringIcSt11char_traitsIcESaIcEEEiEC2EOS6_
	.section	.text._ZNSt4pairINSt7__cxx1112basic_stringIcSt11char_traitsIcESaIcEEEiED2Ev,"axG",@progbits,_ZNSt4pairINSt7__cxx1112basic_stringIcSt11char_traitsIcESaIcEEEiED5Ev,comdat
	.align	2
	.weak	_ZNSt4pairINSt7__cxx1112basic_stringIcSt11char_traitsIcESaIcEEEiED2Ev
	.type	_ZNSt4pairINSt7__cxx1112basic_stringIcSt11char_traitsIcESaIcEEEiED2Ev, %function
_ZNSt4pairINSt7__cxx1112basic_stringIcSt11char_traitsIcESaIcEEEiED2Ev:
.LFB11302:
	.cfi_startproc
	stp	x29, x30, [sp, -32]!
	.cfi_def_cfa_offset 32
	.cfi_offset 29, -32
	.cfi_offset 30, -24
	mov	x29, sp
	str	x0, [sp, 24]
	ldr	x0, [sp, 24]
	bl	_ZNSt7__cxx1112basic_stringIcSt11char_traitsIcESaIcEED1Ev
	nop
	ldp	x29, x30, [sp], 32
	.cfi_restore 30
	.cfi_restore 29
	.cfi_def_cfa_offset 0
	ret
	.cfi_endproc
.LFE11302:
	.size	_ZNSt4pairINSt7__cxx1112basic_stringIcSt11char_traitsIcESaIcEEEiED2Ev, .-_ZNSt4pairINSt7__cxx1112basic_stringIcSt11char_traitsIcESaIcEEEiED2Ev
	.weak	_ZNSt4pairINSt7__cxx1112basic_stringIcSt11char_traitsIcESaIcEEEiED1Ev
	.set	_ZNSt4pairINSt7__cxx1112basic_stringIcSt11char_traitsIcESaIcEEEiED1Ev,_ZNSt4pairINSt7__cxx1112basic_stringIcSt11char_traitsIcESaIcEEEiED2Ev
	.section	.text._ZSt16__insertion_sortIN9__gnu_cxx17__normal_iteratorIPSt4pairINSt7__cxx1112basic_stringIcSt11char_traitsIcESaIcEEEiESt6vectorIS9_SaIS9_EEEENS0_5__ops15_Iter_comp_iterIPFbRS9_SH_EEEEvT_SL_T0_,"axG",@progbits,_ZSt16__insertion_sortIN9__gnu_cxx17__normal_iteratorIPSt4pairINSt7__cxx1112basic_stringIcSt11char_traitsIcESaIcEEEiESt6vectorIS9_SaIS9_EEEENS0_5__ops15_Iter_comp_iterIPFbRS9_SH_EEEEvT_SL_T0_,comdat
	.align	2
	.weak	_ZSt16__insertion_sortIN9__gnu_cxx17__normal_iteratorIPSt4pairINSt7__cxx1112basic_stringIcSt11char_traitsIcESaIcEEEiESt6vectorIS9_SaIS9_EEEENS0_5__ops15_Iter_comp_iterIPFbRS9_SH_EEEEvT_SL_T0_
	.type	_ZSt16__insertion_sortIN9__gnu_cxx17__normal_iteratorIPSt4pairINSt7__cxx1112basic_stringIcSt11char_traitsIcESaIcEEEiESt6vectorIS9_SaIS9_EEEENS0_5__ops15_Iter_comp_iterIPFbRS9_SH_EEEEvT_SL_T0_, %function
_ZSt16__insertion_sortIN9__gnu_cxx17__normal_iteratorIPSt4pairINSt7__cxx1112basic_stringIcSt11char_traitsIcESaIcEEEiESt6vectorIS9_SaIS9_EEEENS0_5__ops15_Iter_comp_iterIPFbRS9_SH_EEEEvT_SL_T0_:
.LFB11297:
	.cfi_startproc
	.cfi_personality 0x9b,DW.ref.__gxx_personality_v0
	.cfi_lsda 0x1b,.LLSDA11297
	stp	x29, x30, [sp, -112]!
	.cfi_def_cfa_offset 112
	.cfi_offset 29, -112
	.cfi_offset 30, -104
	mov	x29, sp
	str	x19, [sp, 16]
	.cfi_offset 19, -96
	str	x0, [sp, 56]
	str	x1, [sp, 48]
	str	x2, [sp, 40]
	add	x1, sp, 48
	add	x0, sp, 56
	bl	_ZN9__gnu_cxxeqIPSt4pairINSt7__cxx1112basic_stringIcSt11char_traitsIcESaIcEEEiESt6vectorIS8_SaIS8_EEEEbRKNS_17__normal_iteratorIT_T0_EESI_
	and	w0, w0, 255
	cmp	w0, 0
	bne	.L316
	add	x0, sp, 56
	mov	x1, 1
	bl	_ZNK9__gnu_cxx17__normal_iteratorIPSt4pairINSt7__cxx1112basic_stringIcSt11char_traitsIcESaIcEEEiESt6vectorIS8_SaIS8_EEEplEl
	str	x0, [sp, 104]
	b	.L310
.L313:
	add	x0, sp, 40
	ldr	x2, [sp, 56]
	ldr	x1, [sp, 104]
.LEHB12:
	bl	_ZN9__gnu_cxx5__ops15_Iter_comp_iterIPFbRSt4pairINSt7__cxx1112basic_stringIcSt11char_traitsIcESaIcEEEiESA_EEclINS_17__normal_iteratorIPS9_St6vectorIS9_SaIS9_EEEESK_EEbT_T0_
.LEHE12:
	and	w0, w0, 255
	cmp	w0, 0
	beq	.L311
	add	x0, sp, 104
	bl	_ZNK9__gnu_cxx17__normal_iteratorIPSt4pairINSt7__cxx1112basic_stringIcSt11char_traitsIcESaIcEEEiESt6vectorIS8_SaIS8_EEEdeEv
	bl	_ZSt4moveIRSt4pairINSt7__cxx1112basic_stringIcSt11char_traitsIcESaIcEEEiEEONSt16remove_referenceIT_E4typeEOSA_
	mov	x1, x0
	add	x0, sp, 64
	bl	_ZNSt4pairINSt7__cxx1112basic_stringIcSt11char_traitsIcESaIcEEEiEC1EOS6_
	add	x0, sp, 104
	mov	x1, 1
	bl	_ZNK9__gnu_cxx17__normal_iteratorIPSt4pairINSt7__cxx1112basic_stringIcSt11char_traitsIcESaIcEEEiESt6vectorIS8_SaIS8_EEEplEl
	mov	x2, x0
	ldr	x1, [sp, 104]
	ldr	x0, [sp, 56]
.LEHB13:
	bl	_ZSt13move_backwardIN9__gnu_cxx17__normal_iteratorIPSt4pairINSt7__cxx1112basic_stringIcSt11char_traitsIcESaIcEEEiESt6vectorIS9_SaIS9_EEEESE_ET0_T_SG_SF_
.LEHE13:
	add	x0, sp, 64
	bl	_ZSt4moveIRSt4pairINSt7__cxx1112basic_stringIcSt11char_traitsIcESaIcEEEiEEONSt16remove_referenceIT_E4typeEOSA_
	mov	x19, x0
	add	x0, sp, 56
	bl	_ZNK9__gnu_cxx17__normal_iteratorIPSt4pairINSt7__cxx1112basic_stringIcSt11char_traitsIcESaIcEEEiESt6vectorIS8_SaIS8_EEEdeEv
	mov	x1, x19
	bl	_ZNSt4pairINSt7__cxx1112basic_stringIcSt11char_traitsIcESaIcEEEiEaSEOS6_
	add	x0, sp, 64
	bl	_ZNSt4pairINSt7__cxx1112basic_stringIcSt11char_traitsIcESaIcEEEiED1Ev
	b	.L312
.L311:
	ldr	x0, [sp, 40]
.LEHB14:
	bl	_ZN9__gnu_cxx5__ops15__val_comp_iterIPFbRSt4pairINSt7__cxx1112basic_stringIcSt11char_traitsIcESaIcEEEiESA_EEENS0_14_Val_comp_iterIT_EENS0_15_Iter_comp_iterISE_EE
	mov	x1, x0
	ldr	x0, [sp, 104]
	bl	_ZSt25__unguarded_linear_insertIN9__gnu_cxx17__normal_iteratorIPSt4pairINSt7__cxx1112basic_stringIcSt11char_traitsIcESaIcEEEiESt6vectorIS9_SaIS9_EEEENS0_5__ops14_Val_comp_iterIPFbRS9_SH_EEEEvT_T0_
.L312:
	add	x0, sp, 104
	bl	_ZN9__gnu_cxx17__normal_iteratorIPSt4pairINSt7__cxx1112basic_stringIcSt11char_traitsIcESaIcEEEiESt6vectorIS8_SaIS8_EEEppEv
.L310:
	add	x1, sp, 48
	add	x0, sp, 104
	bl	_ZN9__gnu_cxxneIPSt4pairINSt7__cxx1112basic_stringIcSt11char_traitsIcESaIcEEEiESt6vectorIS8_SaIS8_EEEEbRKNS_17__normal_iteratorIT_T0_EESI_
	and	w0, w0, 255
	cmp	w0, 0
	bne	.L313
	b	.L307
.L315:
	mov	x19, x0
	add	x0, sp, 64
	bl	_ZNSt4pairINSt7__cxx1112basic_stringIcSt11char_traitsIcESaIcEEEiED1Ev
	mov	x0, x19
	bl	_Unwind_Resume
.LEHE14:
.L316:
	nop
.L307:
	ldr	x19, [sp, 16]
	ldp	x29, x30, [sp], 112
	.cfi_restore 30
	.cfi_restore 29
	.cfi_restore 19
	.cfi_def_cfa_offset 0
	ret
	.cfi_endproc
.LFE11297:
	.section	.gcc_except_table
.LLSDA11297:
	.byte	0xff
	.byte	0xff
	.byte	0x1
	.uleb128 .LLSDACSE11297-.LLSDACSB11297
.LLSDACSB11297:
	.uleb128 .LEHB12-.LFB11297
	.uleb128 .LEHE12-.LEHB12
	.uleb128 0
	.uleb128 0
	.uleb128 .LEHB13-.LFB11297
	.uleb128 .LEHE13-.LEHB13
	.uleb128 .L315-.LFB11297
	.uleb128 0
	.uleb128 .LEHB14-.LFB11297
	.uleb128 .LEHE14-.LEHB14
	.uleb128 0
	.uleb128 0
.LLSDACSE11297:
	.section	.text._ZSt16__insertion_sortIN9__gnu_cxx17__normal_iteratorIPSt4pairINSt7__cxx1112basic_stringIcSt11char_traitsIcESaIcEEEiESt6vectorIS9_SaIS9_EEEENS0_5__ops15_Iter_comp_iterIPFbRS9_SH_EEEEvT_SL_T0_,"axG",@progbits,_ZSt16__insertion_sortIN9__gnu_cxx17__normal_iteratorIPSt4pairINSt7__cxx1112basic_stringIcSt11char_traitsIcESaIcEEEiESt6vectorIS9_SaIS9_EEEENS0_5__ops15_Iter_comp_iterIPFbRS9_SH_EEEEvT_SL_T0_,comdat
	.size	_ZSt16__insertion_sortIN9__gnu_cxx17__normal_iteratorIPSt4pairINSt7__cxx1112basic_stringIcSt11char_traitsIcESaIcEEEiESt6vectorIS9_SaIS9_EEEENS0_5__ops15_Iter_comp_iterIPFbRS9_SH_EEEEvT_SL_T0_, .-_ZSt16__insertion_sortIN9__gnu_cxx17__normal_iteratorIPSt4pairINSt7__cxx1112basic_stringIcSt11char_traitsIcESaIcEEEiESt6vectorIS9_SaIS9_EEEENS0_5__ops15_Iter_comp_iterIPFbRS9_SH_EEEEvT_SL_T0_
	.section	.text._ZSt26__unguarded_insertion_sortIN9__gnu_cxx17__normal_iteratorIPSt4pairINSt7__cxx1112basic_stringIcSt11char_traitsIcESaIcEEEiESt6vectorIS9_SaIS9_EEEENS0_5__ops15_Iter_comp_iterIPFbRS9_SH_EEEEvT_SL_T0_,"axG",@progbits,_ZSt26__unguarded_insertion_sortIN9__gnu_cxx17__normal_iteratorIPSt4pairINSt7__cxx1112basic_stringIcSt11char_traitsIcESaIcEEEiESt6vectorIS9_SaIS9_EEEENS0_5__ops15_Iter_comp_iterIPFbRS9_SH_EEEEvT_SL_T0_,comdat
	.align	2
	.weak	_ZSt26__unguarded_insertion_sortIN9__gnu_cxx17__normal_iteratorIPSt4pairINSt7__cxx1112basic_stringIcSt11char_traitsIcESaIcEEEiESt6vectorIS9_SaIS9_EEEENS0_5__ops15_Iter_comp_iterIPFbRS9_SH_EEEEvT_SL_T0_
	.type	_ZSt26__unguarded_insertion_sortIN9__gnu_cxx17__normal_iteratorIPSt4pairINSt7__cxx1112basic_stringIcSt11char_traitsIcESaIcEEEiESt6vectorIS9_SaIS9_EEEENS0_5__ops15_Iter_comp_iterIPFbRS9_SH_EEEEvT_SL_T0_, %function
_ZSt26__unguarded_insertion_sortIN9__gnu_cxx17__normal_iteratorIPSt4pairINSt7__cxx1112basic_stringIcSt11char_traitsIcESaIcEEEiESt6vectorIS9_SaIS9_EEEENS0_5__ops15_Iter_comp_iterIPFbRS9_SH_EEEEvT_SL_T0_:
.LFB11304:
	.cfi_startproc
	stp	x29, x30, [sp, -64]!
	.cfi_def_cfa_offset 64
	.cfi_offset 29, -64
	.cfi_offset 30, -56
	mov	x29, sp
	str	x0, [sp, 40]
	str	x1, [sp, 32]
	str	x2, [sp, 24]
	ldr	x0, [sp, 40]
	str	x0, [sp, 56]
	b	.L318
.L319:
	ldr	x0, [sp, 24]
	bl	_ZN9__gnu_cxx5__ops15__val_comp_iterIPFbRSt4pairINSt7__cxx1112basic_stringIcSt11char_traitsIcESaIcEEEiESA_EEENS0_14_Val_comp_iterIT_EENS0_15_Iter_comp_iterISE_EE
	mov	x1, x0
	ldr	x0, [sp, 56]
	bl	_ZSt25__unguarded_linear_insertIN9__gnu_cxx17__normal_iteratorIPSt4pairINSt7__cxx1112basic_stringIcSt11char_traitsIcESaIcEEEiESt6vectorIS9_SaIS9_EEEENS0_5__ops14_Val_comp_iterIPFbRS9_SH_EEEEvT_T0_
	add	x0, sp, 56
	bl	_ZN9__gnu_cxx17__normal_iteratorIPSt4pairINSt7__cxx1112basic_stringIcSt11char_traitsIcESaIcEEEiESt6vectorIS8_SaIS8_EEEppEv
.L318:
	add	x1, sp, 32
	add	x0, sp, 56
	bl	_ZN9__gnu_cxxneIPSt4pairINSt7__cxx1112basic_stringIcSt11char_traitsIcESaIcEEEiESt6vectorIS8_SaIS8_EEEEbRKNS_17__normal_iteratorIT_T0_EESI_
	and	w0, w0, 255
	cmp	w0, 0
	bne	.L319
	nop
	nop
	ldp	x29, x30, [sp], 64
	.cfi_restore 30
	.cfi_restore 29
	.cfi_def_cfa_offset 0
	ret
	.cfi_endproc
.LFE11304:
	.size	_ZSt26__unguarded_insertion_sortIN9__gnu_cxx17__normal_iteratorIPSt4pairINSt7__cxx1112basic_stringIcSt11char_traitsIcESaIcEEEiESt6vectorIS9_SaIS9_EEEENS0_5__ops15_Iter_comp_iterIPFbRS9_SH_EEEEvT_SL_T0_, .-_ZSt26__unguarded_insertion_sortIN9__gnu_cxx17__normal_iteratorIPSt4pairINSt7__cxx1112basic_stringIcSt11char_traitsIcESaIcEEEiESt6vectorIS9_SaIS9_EEEENS0_5__ops15_Iter_comp_iterIPFbRS9_SH_EEEEvT_SL_T0_
	.section	.text._ZNKSt6vectorIxSaIxEE8max_sizeEv,"axG",@progbits,_ZNKSt6vectorIxSaIxEE8max_sizeEv,comdat
	.align	2
	.weak	_ZNKSt6vectorIxSaIxEE8max_sizeEv
	.type	_ZNKSt6vectorIxSaIxEE8max_sizeEv, %function
_ZNKSt6vectorIxSaIxEE8max_sizeEv:
.LFB11389:
	.cfi_startproc
	stp	x29, x30, [sp, -32]!
	.cfi_def_cfa_offset 32
	.cfi_offset 29, -32
	.cfi_offset 30, -24
	mov	x29, sp
	str	x0, [sp, 24]
	ldr	x0, [sp, 24]
	bl	_ZNKSt12_Vector_baseIxSaIxEE19_M_get_Tp_allocatorEv
	bl	_ZNSt6vectorIxSaIxEE11_S_max_sizeERKS0_
	ldp	x29, x30, [sp], 32
	.cfi_restore 30
	.cfi_restore 29
	.cfi_def_cfa_offset 0
	ret
	.cfi_endproc
.LFE11389:
	.size	_ZNKSt6vectorIxSaIxEE8max_sizeEv, .-_ZNKSt6vectorIxSaIxEE8max_sizeEv
	.section	.text._ZNSt16allocator_traitsISaIxEE8allocateERS0_m,"axG",@progbits,_ZNSt16allocator_traitsISaIxEE8allocateERS0_m,comdat
	.align	2
	.weak	_ZNSt16allocator_traitsISaIxEE8allocateERS0_m
	.type	_ZNSt16allocator_traitsISaIxEE8allocateERS0_m, %function
_ZNSt16allocator_traitsISaIxEE8allocateERS0_m:
.LFB11390:
	.cfi_startproc
	stp	x29, x30, [sp, -32]!
	.cfi_def_cfa_offset 32
	.cfi_offset 29, -32
	.cfi_offset 30, -24
	mov	x29, sp
	str	x0, [sp, 24]
	str	x1, [sp, 16]
	mov	x2, 0
	ldr	x1, [sp, 16]
	ldr	x0, [sp, 24]
	bl	_ZN9__gnu_cxx13new_allocatorIxE8allocateEmPKv
	ldp	x29, x30, [sp], 32
	.cfi_restore 30
	.cfi_restore 29
	.cfi_def_cfa_offset 0
	ret
	.cfi_endproc
.LFE11390:
	.size	_ZNSt16allocator_traitsISaIxEE8allocateERS0_m, .-_ZNSt16allocator_traitsISaIxEE8allocateERS0_m
	.section	.text._ZNSt6vectorIxSaIxEE14_S_do_relocateEPxS2_S2_RS0_St17integral_constantIbLb1EE,"axG",@progbits,_ZNSt6vectorIxSaIxEE14_S_do_relocateEPxS2_S2_RS0_St17integral_constantIbLb1EE,comdat
	.align	2
	.weak	_ZNSt6vectorIxSaIxEE14_S_do_relocateEPxS2_S2_RS0_St17integral_constantIbLb1EE
	.type	_ZNSt6vectorIxSaIxEE14_S_do_relocateEPxS2_S2_RS0_St17integral_constantIbLb1EE, %function
_ZNSt6vectorIxSaIxEE14_S_do_relocateEPxS2_S2_RS0_St17integral_constantIbLb1EE:
.LFB11391:
	.cfi_startproc
	stp	x29, x30, [sp, -64]!
	.cfi_def_cfa_offset 64
	.cfi_offset 29, -64
	.cfi_offset 30, -56
	mov	x29, sp
	str	x0, [sp, 56]
	str	x1, [sp, 48]
	str	x2, [sp, 40]
	str	x3, [sp, 32]
	strb	w4, [sp, 24]
	ldr	x3, [sp, 32]
	ldr	x2, [sp, 40]
	ldr	x1, [sp, 48]
	ldr	x0, [sp, 56]
	bl	_ZSt12__relocate_aIPxS0_SaIxEET0_T_S3_S2_RT1_
	ldp	x29, x30, [sp], 64
	.cfi_restore 30
	.cfi_restore 29
	.cfi_def_cfa_offset 0
	ret
	.cfi_endproc
.LFE11391:
	.size	_ZNSt6vectorIxSaIxEE14_S_do_relocateEPxS2_S2_RS0_St17integral_constantIbLb1EE, .-_ZNSt6vectorIxSaIxEE14_S_do_relocateEPxS2_S2_RS0_St17integral_constantIbLb1EE
	.section	.text._ZSt8_DestroyIPxEvT_S1_,"axG",@progbits,_ZSt8_DestroyIPxEvT_S1_,comdat
	.align	2
	.weak	_ZSt8_DestroyIPxEvT_S1_
	.type	_ZSt8_DestroyIPxEvT_S1_, %function
_ZSt8_DestroyIPxEvT_S1_:
.LFB11393:
	.cfi_startproc
	stp	x29, x30, [sp, -32]!
	.cfi_def_cfa_offset 32
	.cfi_offset 29, -32
	.cfi_offset 30, -24
	mov	x29, sp
	str	x0, [sp, 24]
	str	x1, [sp, 16]
	ldr	x1, [sp, 16]
	ldr	x0, [sp, 24]
	bl	_ZNSt12_Destroy_auxILb1EE9__destroyIPxEEvT_S3_
	nop
	ldp	x29, x30, [sp], 32
	.cfi_restore 30
	.cfi_restore 29
	.cfi_def_cfa_offset 0
	ret
	.cfi_endproc
.LFE11393:
	.size	_ZSt8_DestroyIPxEvT_S1_, .-_ZSt8_DestroyIPxEvT_S1_
	.section	.text._ZNK9__gnu_cxx13new_allocatorISt4pairINSt7__cxx1112basic_stringIcSt11char_traitsIcESaIcEEEiEE8max_sizeEv,"axG",@progbits,_ZNK9__gnu_cxx13new_allocatorISt4pairINSt7__cxx1112basic_stringIcSt11char_traitsIcESaIcEEEiEE8max_sizeEv,comdat
	.align	2
	.weak	_ZNK9__gnu_cxx13new_allocatorISt4pairINSt7__cxx1112basic_stringIcSt11char_traitsIcESaIcEEEiEE8max_sizeEv
	.type	_ZNK9__gnu_cxx13new_allocatorISt4pairINSt7__cxx1112basic_stringIcSt11char_traitsIcESaIcEEEiEE8max_sizeEv, %function
_ZNK9__gnu_cxx13new_allocatorISt4pairINSt7__cxx1112basic_stringIcSt11char_traitsIcESaIcEEEiEE8max_sizeEv:
.LFB11394:
	.cfi_startproc
	stp	x29, x30, [sp, -32]!
	.cfi_def_cfa_offset 32
	.cfi_offset 29, -32
	.cfi_offset 30, -24
	mov	x29, sp
	str	x0, [sp, 24]
	ldr	x0, [sp, 24]
	bl	_ZNK9__gnu_cxx13new_allocatorISt4pairINSt7__cxx1112basic_stringIcSt11char_traitsIcESaIcEEEiEE11_M_max_sizeEv
	ldp	x29, x30, [sp], 32
	.cfi_restore 30
	.cfi_restore 29
	.cfi_def_cfa_offset 0
	ret
	.cfi_endproc
.LFE11394:
	.size	_ZNK9__gnu_cxx13new_allocatorISt4pairINSt7__cxx1112basic_stringIcSt11char_traitsIcESaIcEEEiEE8max_sizeEv, .-_ZNK9__gnu_cxx13new_allocatorISt4pairINSt7__cxx1112basic_stringIcSt11char_traitsIcESaIcEEEiEE8max_sizeEv
	.section	.text._ZNSt16allocator_traitsISaISt4pairINSt7__cxx1112basic_stringIcSt11char_traitsIcESaIcEEEiEEE8allocateERS8_m,"axG",@progbits,_ZNSt16allocator_traitsISaISt4pairINSt7__cxx1112basic_stringIcSt11char_traitsIcESaIcEEEiEEE8allocateERS8_m,comdat
	.align	2
	.weak	_ZNSt16allocator_traitsISaISt4pairINSt7__cxx1112basic_stringIcSt11char_traitsIcESaIcEEEiEEE8allocateERS8_m
	.type	_ZNSt16allocator_traitsISaISt4pairINSt7__cxx1112basic_stringIcSt11char_traitsIcESaIcEEEiEEE8allocateERS8_m, %function
_ZNSt16allocator_traitsISaISt4pairINSt7__cxx1112basic_stringIcSt11char_traitsIcESaIcEEEiEEE8allocateERS8_m:
.LFB11395:
	.cfi_startproc
	stp	x29, x30, [sp, -32]!
	.cfi_def_cfa_offset 32
	.cfi_offset 29, -32
	.cfi_offset 30, -24
	mov	x29, sp
	str	x0, [sp, 24]
	str	x1, [sp, 16]
	mov	x2, 0
	ldr	x1, [sp, 16]
	ldr	x0, [sp, 24]
	bl	_ZN9__gnu_cxx13new_allocatorISt4pairINSt7__cxx1112basic_stringIcSt11char_traitsIcESaIcEEEiEE8allocateEmPKv
	ldp	x29, x30, [sp], 32
	.cfi_restore 30
	.cfi_restore 29
	.cfi_def_cfa_offset 0
	ret
	.cfi_endproc
.LFE11395:
	.size	_ZNSt16allocator_traitsISaISt4pairINSt7__cxx1112basic_stringIcSt11char_traitsIcESaIcEEEiEEE8allocateERS8_m, .-_ZNSt16allocator_traitsISaISt4pairINSt7__cxx1112basic_stringIcSt11char_traitsIcESaIcEEEiEEE8allocateERS8_m
	.section	.text._ZN9__gnu_cxx13new_allocatorISt4pairINSt7__cxx1112basic_stringIcSt11char_traitsIcESaIcEEEiEE10deallocateEPS8_m,"axG",@progbits,_ZN9__gnu_cxx13new_allocatorISt4pairINSt7__cxx1112basic_stringIcSt11char_traitsIcESaIcEEEiEE10deallocateEPS8_m,comdat
	.align	2
	.weak	_ZN9__gnu_cxx13new_allocatorISt4pairINSt7__cxx1112basic_stringIcSt11char_traitsIcESaIcEEEiEE10deallocateEPS8_m
	.type	_ZN9__gnu_cxx13new_allocatorISt4pairINSt7__cxx1112basic_stringIcSt11char_traitsIcESaIcEEEiEE10deallocateEPS8_m, %function
_ZN9__gnu_cxx13new_allocatorISt4pairINSt7__cxx1112basic_stringIcSt11char_traitsIcESaIcEEEiEE10deallocateEPS8_m:
.LFB11396:
	.cfi_startproc
	stp	x29, x30, [sp, -48]!
	.cfi_def_cfa_offset 48
	.cfi_offset 29, -48
	.cfi_offset 30, -40
	mov	x29, sp
	str	x0, [sp, 40]
	str	x1, [sp, 32]
	str	x2, [sp, 24]
	ldr	x1, [sp, 24]
	mov	x0, x1
	lsl	x0, x0, 2
	add	x0, x0, x1
	lsl	x0, x0, 3
	mov	x1, x0
	ldr	x0, [sp, 32]
	bl	_ZdlPvm
	ldp	x29, x30, [sp], 48
	.cfi_restore 30
	.cfi_restore 29
	.cfi_def_cfa_offset 0
	ret
	.cfi_endproc
.LFE11396:
	.size	_ZN9__gnu_cxx13new_allocatorISt4pairINSt7__cxx1112basic_stringIcSt11char_traitsIcESaIcEEEiEE10deallocateEPS8_m, .-_ZN9__gnu_cxx13new_allocatorISt4pairINSt7__cxx1112basic_stringIcSt11char_traitsIcESaIcEEEiEE10deallocateEPS8_m
	.section	.text._ZNSt27__uninitialized_default_n_1ILb0EE18__uninit_default_nIPSt4pairINSt7__cxx1112basic_stringIcSt11char_traitsIcESaIcEEEiEmEET_SB_T0_,"axG",@progbits,_ZNSt27__uninitialized_default_n_1ILb0EE18__uninit_default_nIPSt4pairINSt7__cxx1112basic_stringIcSt11char_traitsIcESaIcEEEiEmEET_SB_T0_,comdat
	.align	2
	.weak	_ZNSt27__uninitialized_default_n_1ILb0EE18__uninit_default_nIPSt4pairINSt7__cxx1112basic_stringIcSt11char_traitsIcESaIcEEEiEmEET_SB_T0_
	.type	_ZNSt27__uninitialized_default_n_1ILb0EE18__uninit_default_nIPSt4pairINSt7__cxx1112basic_stringIcSt11char_traitsIcESaIcEEEiEmEET_SB_T0_, %function
_ZNSt27__uninitialized_default_n_1ILb0EE18__uninit_default_nIPSt4pairINSt7__cxx1112basic_stringIcSt11char_traitsIcESaIcEEEiEmEET_SB_T0_:
.LFB11397:
	.cfi_startproc
	.cfi_personality 0x9b,DW.ref.__gxx_personality_v0
	.cfi_lsda 0x1b,.LLSDA11397
	stp	x29, x30, [sp, -64]!
	.cfi_def_cfa_offset 64
	.cfi_offset 29, -64
	.cfi_offset 30, -56
	mov	x29, sp
	str	x19, [sp, 16]
	.cfi_offset 19, -48
	str	x0, [sp, 40]
	str	x1, [sp, 32]
	ldr	x0, [sp, 40]
	str	x0, [sp, 56]
	b	.L334
.L335:
	ldr	x0, [sp, 56]
	bl	_ZSt11__addressofISt4pairINSt7__cxx1112basic_stringIcSt11char_traitsIcESaIcEEEiEEPT_RS8_
.LEHB15:
	bl	_ZSt10_ConstructISt4pairINSt7__cxx1112basic_stringIcSt11char_traitsIcESaIcEEEiEJEEvPT_DpOT0_
.LEHE15:
	ldr	x0, [sp, 32]
	sub	x0, x0, #1
	str	x0, [sp, 32]
	ldr	x0, [sp, 56]
	add	x0, x0, 40
	str	x0, [sp, 56]
.L334:
	ldr	x0, [sp, 32]
	cmp	x0, 0
	bne	.L335
	ldr	x0, [sp, 56]
	b	.L341
.L339:
	bl	__cxa_begin_catch
	ldr	x1, [sp, 56]
	ldr	x0, [sp, 40]
.LEHB16:
	bl	_ZSt8_DestroyIPSt4pairINSt7__cxx1112basic_stringIcSt11char_traitsIcESaIcEEEiEEvT_S9_
	bl	__cxa_rethrow
.LEHE16:
.L340:
	mov	x19, x0
	bl	__cxa_end_catch
	mov	x0, x19
.LEHB17:
	bl	_Unwind_Resume
.LEHE17:
.L341:
	ldr	x19, [sp, 16]
	ldp	x29, x30, [sp], 64
	.cfi_restore 30
	.cfi_restore 29
	.cfi_restore 19
	.cfi_def_cfa_offset 0
	ret
	.cfi_endproc
.LFE11397:
	.section	.gcc_except_table
	.align	2
.LLSDA11397:
	.byte	0xff
	.byte	0x9b
	.uleb128 .LLSDATT11397-.LLSDATTD11397
.LLSDATTD11397:
	.byte	0x1
	.uleb128 .LLSDACSE11397-.LLSDACSB11397
.LLSDACSB11397:
	.uleb128 .LEHB15-.LFB11397
	.uleb128 .LEHE15-.LEHB15
	.uleb128 .L339-.LFB11397
	.uleb128 0x1
	.uleb128 .LEHB16-.LFB11397
	.uleb128 .LEHE16-.LEHB16
	.uleb128 .L340-.LFB11397
	.uleb128 0
	.uleb128 .LEHB17-.LFB11397
	.uleb128 .LEHE17-.LEHB17
	.uleb128 0
	.uleb128 0
.LLSDACSE11397:
	.byte	0x1
	.byte	0
	.align	2
	.4byte	0

.LLSDATT11397:
	.section	.text._ZNSt27__uninitialized_default_n_1ILb0EE18__uninit_default_nIPSt4pairINSt7__cxx1112basic_stringIcSt11char_traitsIcESaIcEEEiEmEET_SB_T0_,"axG",@progbits,_ZNSt27__uninitialized_default_n_1ILb0EE18__uninit_default_nIPSt4pairINSt7__cxx1112basic_stringIcSt11char_traitsIcESaIcEEEiEmEET_SB_T0_,comdat
	.size	_ZNSt27__uninitialized_default_n_1ILb0EE18__uninit_default_nIPSt4pairINSt7__cxx1112basic_stringIcSt11char_traitsIcESaIcEEEiEmEET_SB_T0_, .-_ZNSt27__uninitialized_default_n_1ILb0EE18__uninit_default_nIPSt4pairINSt7__cxx1112basic_stringIcSt11char_traitsIcESaIcEEEiEmEET_SB_T0_
	.section	.text._ZSt11__addressofISt4pairINSt7__cxx1112basic_stringIcSt11char_traitsIcESaIcEEEiEEPT_RS8_,"axG",@progbits,_ZSt11__addressofISt4pairINSt7__cxx1112basic_stringIcSt11char_traitsIcESaIcEEEiEEPT_RS8_,comdat
	.align	2
	.weak	_ZSt11__addressofISt4pairINSt7__cxx1112basic_stringIcSt11char_traitsIcESaIcEEEiEEPT_RS8_
	.type	_ZSt11__addressofISt4pairINSt7__cxx1112basic_stringIcSt11char_traitsIcESaIcEEEiEEPT_RS8_, %function
_ZSt11__addressofISt4pairINSt7__cxx1112basic_stringIcSt11char_traitsIcESaIcEEEiEEPT_RS8_:
.LFB11398:
	.cfi_startproc
	sub	sp, sp, #16
	.cfi_def_cfa_offset 16
	str	x0, [sp, 8]
	ldr	x0, [sp, 8]
	add	sp, sp, 16
	.cfi_def_cfa_offset 0
	ret
	.cfi_endproc
.LFE11398:
	.size	_ZSt11__addressofISt4pairINSt7__cxx1112basic_stringIcSt11char_traitsIcESaIcEEEiEEPT_RS8_, .-_ZSt11__addressofISt4pairINSt7__cxx1112basic_stringIcSt11char_traitsIcESaIcEEEiEEPT_RS8_
	.section	.text._ZSt8_DestroyISt4pairINSt7__cxx1112basic_stringIcSt11char_traitsIcESaIcEEEiEEvPT_,"axG",@progbits,_ZSt8_DestroyISt4pairINSt7__cxx1112basic_stringIcSt11char_traitsIcESaIcEEEiEEvPT_,comdat
	.align	2
	.weak	_ZSt8_DestroyISt4pairINSt7__cxx1112basic_stringIcSt11char_traitsIcESaIcEEEiEEvPT_
	.type	_ZSt8_DestroyISt4pairINSt7__cxx1112basic_stringIcSt11char_traitsIcESaIcEEEiEEvPT_, %function
_ZSt8_DestroyISt4pairINSt7__cxx1112basic_stringIcSt11char_traitsIcESaIcEEEiEEvPT_:
.LFB11399:
	.cfi_startproc
	stp	x29, x30, [sp, -32]!
	.cfi_def_cfa_offset 32
	.cfi_offset 29, -32
	.cfi_offset 30, -24
	mov	x29, sp
	str	x0, [sp, 24]
	ldr	x0, [sp, 24]
	bl	_ZNSt4pairINSt7__cxx1112basic_stringIcSt11char_traitsIcESaIcEEEiED1Ev
	nop
	ldp	x29, x30, [sp], 32
	.cfi_restore 30
	.cfi_restore 29
	.cfi_def_cfa_offset 0
	ret
	.cfi_endproc
.LFE11399:
	.size	_ZSt8_DestroyISt4pairINSt7__cxx1112basic_stringIcSt11char_traitsIcESaIcEEEiEEvPT_, .-_ZSt8_DestroyISt4pairINSt7__cxx1112basic_stringIcSt11char_traitsIcESaIcEEEiEEvPT_
	.section	.text._ZSt13__heap_selectIN9__gnu_cxx17__normal_iteratorIPSt4pairINSt7__cxx1112basic_stringIcSt11char_traitsIcESaIcEEEiESt6vectorIS9_SaIS9_EEEENS0_5__ops15_Iter_comp_iterIPFbRS9_SH_EEEEvT_SL_SL_T0_,"axG",@progbits,_ZSt13__heap_selectIN9__gnu_cxx17__normal_iteratorIPSt4pairINSt7__cxx1112basic_stringIcSt11char_traitsIcESaIcEEEiESt6vectorIS9_SaIS9_EEEENS0_5__ops15_Iter_comp_iterIPFbRS9_SH_EEEEvT_SL_SL_T0_,comdat
	.align	2
	.weak	_ZSt13__heap_selectIN9__gnu_cxx17__normal_iteratorIPSt4pairINSt7__cxx1112basic_stringIcSt11char_traitsIcESaIcEEEiESt6vectorIS9_SaIS9_EEEENS0_5__ops15_Iter_comp_iterIPFbRS9_SH_EEEEvT_SL_SL_T0_
	.type	_ZSt13__heap_selectIN9__gnu_cxx17__normal_iteratorIPSt4pairINSt7__cxx1112basic_stringIcSt11char_traitsIcESaIcEEEiESt6vectorIS9_SaIS9_EEEENS0_5__ops15_Iter_comp_iterIPFbRS9_SH_EEEEvT_SL_SL_T0_, %function
_ZSt13__heap_selectIN9__gnu_cxx17__normal_iteratorIPSt4pairINSt7__cxx1112basic_stringIcSt11char_traitsIcESaIcEEEiESt6vectorIS9_SaIS9_EEEENS0_5__ops15_Iter_comp_iterIPFbRS9_SH_EEEEvT_SL_SL_T0_:
.LFB11400:
	.cfi_startproc
	stp	x29, x30, [sp, -64]!
	.cfi_def_cfa_offset 64
	.cfi_offset 29, -64
	.cfi_offset 30, -56
	mov	x29, sp
	str	x0, [sp, 40]
	str	x1, [sp, 32]
	str	x2, [sp, 24]
	str	x3, [sp, 16]
	add	x0, sp, 16
	mov	x2, x0
	ldr	x1, [sp, 32]
	ldr	x0, [sp, 40]
	bl	_ZSt11__make_heapIN9__gnu_cxx17__normal_iteratorIPSt4pairINSt7__cxx1112basic_stringIcSt11char_traitsIcESaIcEEEiESt6vectorIS9_SaIS9_EEEENS0_5__ops15_Iter_comp_iterIPFbRS9_SH_EEEEvT_SL_RT0_
	ldr	x0, [sp, 32]
	str	x0, [sp, 56]
	b	.L346
.L348:
	add	x0, sp, 16
	ldr	x2, [sp, 40]
	ldr	x1, [sp, 56]
	bl	_ZN9__gnu_cxx5__ops15_Iter_comp_iterIPFbRSt4pairINSt7__cxx1112basic_stringIcSt11char_traitsIcESaIcEEEiESA_EEclINS_17__normal_iteratorIPS9_St6vectorIS9_SaIS9_EEEESK_EEbT_T0_
	and	w0, w0, 255
	cmp	w0, 0
	beq	.L347
	add	x0, sp, 16
	mov	x3, x0
	ldr	x2, [sp, 56]
	ldr	x1, [sp, 32]
	ldr	x0, [sp, 40]
	bl	_ZSt10__pop_heapIN9__gnu_cxx17__normal_iteratorIPSt4pairINSt7__cxx1112basic_stringIcSt11char_traitsIcESaIcEEEiESt6vectorIS9_SaIS9_EEEENS0_5__ops15_Iter_comp_iterIPFbRS9_SH_EEEEvT_SL_SL_RT0_
.L347:
	add	x0, sp, 56
	bl	_ZN9__gnu_cxx17__normal_iteratorIPSt4pairINSt7__cxx1112basic_stringIcSt11char_traitsIcESaIcEEEiESt6vectorIS8_SaIS8_EEEppEv
.L346:
	add	x1, sp, 24
	add	x0, sp, 56
	bl	_ZN9__gnu_cxxltIPSt4pairINSt7__cxx1112basic_stringIcSt11char_traitsIcESaIcEEEiESt6vectorIS8_SaIS8_EEEEbRKNS_17__normal_iteratorIT_T0_EESI_
	and	w0, w0, 255
	cmp	w0, 0
	bne	.L348
	nop
	nop
	ldp	x29, x30, [sp], 64
	.cfi_restore 30
	.cfi_restore 29
	.cfi_def_cfa_offset 0
	ret
	.cfi_endproc
.LFE11400:
	.size	_ZSt13__heap_selectIN9__gnu_cxx17__normal_iteratorIPSt4pairINSt7__cxx1112basic_stringIcSt11char_traitsIcESaIcEEEiESt6vectorIS9_SaIS9_EEEENS0_5__ops15_Iter_comp_iterIPFbRS9_SH_EEEEvT_SL_SL_T0_, .-_ZSt13__heap_selectIN9__gnu_cxx17__normal_iteratorIPSt4pairINSt7__cxx1112basic_stringIcSt11char_traitsIcESaIcEEEiESt6vectorIS9_SaIS9_EEEENS0_5__ops15_Iter_comp_iterIPFbRS9_SH_EEEEvT_SL_SL_T0_
	.section	.text._ZSt11__sort_heapIN9__gnu_cxx17__normal_iteratorIPSt4pairINSt7__cxx1112basic_stringIcSt11char_traitsIcESaIcEEEiESt6vectorIS9_SaIS9_EEEENS0_5__ops15_Iter_comp_iterIPFbRS9_SH_EEEEvT_SL_RT0_,"axG",@progbits,_ZSt11__sort_heapIN9__gnu_cxx17__normal_iteratorIPSt4pairINSt7__cxx1112basic_stringIcSt11char_traitsIcESaIcEEEiESt6vectorIS9_SaIS9_EEEENS0_5__ops15_Iter_comp_iterIPFbRS9_SH_EEEEvT_SL_RT0_,comdat
	.align	2
	.weak	_ZSt11__sort_heapIN9__gnu_cxx17__normal_iteratorIPSt4pairINSt7__cxx1112basic_stringIcSt11char_traitsIcESaIcEEEiESt6vectorIS9_SaIS9_EEEENS0_5__ops15_Iter_comp_iterIPFbRS9_SH_EEEEvT_SL_RT0_
	.type	_ZSt11__sort_heapIN9__gnu_cxx17__normal_iteratorIPSt4pairINSt7__cxx1112basic_stringIcSt11char_traitsIcESaIcEEEiESt6vectorIS9_SaIS9_EEEENS0_5__ops15_Iter_comp_iterIPFbRS9_SH_EEEEvT_SL_RT0_, %function
_ZSt11__sort_heapIN9__gnu_cxx17__normal_iteratorIPSt4pairINSt7__cxx1112basic_stringIcSt11char_traitsIcESaIcEEEiESt6vectorIS9_SaIS9_EEEENS0_5__ops15_Iter_comp_iterIPFbRS9_SH_EEEEvT_SL_RT0_:
.LFB11401:
	.cfi_startproc
	stp	x29, x30, [sp, -48]!
	.cfi_def_cfa_offset 48
	.cfi_offset 29, -48
	.cfi_offset 30, -40
	mov	x29, sp
	str	x0, [sp, 40]
	str	x1, [sp, 32]
	str	x2, [sp, 24]
	b	.L350
.L351:
	add	x0, sp, 32
	bl	_ZN9__gnu_cxx17__normal_iteratorIPSt4pairINSt7__cxx1112basic_stringIcSt11char_traitsIcESaIcEEEiESt6vectorIS8_SaIS8_EEEmmEv
	ldr	x3, [sp, 24]
	ldr	x2, [sp, 32]
	ldr	x1, [sp, 32]
	ldr	x0, [sp, 40]
	bl	_ZSt10__pop_heapIN9__gnu_cxx17__normal_iteratorIPSt4pairINSt7__cxx1112basic_stringIcSt11char_traitsIcESaIcEEEiESt6vectorIS9_SaIS9_EEEENS0_5__ops15_Iter_comp_iterIPFbRS9_SH_EEEEvT_SL_SL_RT0_
.L350:
	add	x1, sp, 40
	add	x0, sp, 32
	bl	_ZN9__gnu_cxxmiIPSt4pairINSt7__cxx1112basic_stringIcSt11char_traitsIcESaIcEEEiESt6vectorIS8_SaIS8_EEEENS_17__normal_iteratorIT_T0_E15difference_typeERKSG_SJ_
	cmp	x0, 1
	cset	w0, gt
	and	w0, w0, 255
	cmp	w0, 0
	bne	.L351
	nop
	nop
	ldp	x29, x30, [sp], 48
	.cfi_restore 30
	.cfi_restore 29
	.cfi_def_cfa_offset 0
	ret
	.cfi_endproc
.LFE11401:
	.size	_ZSt11__sort_heapIN9__gnu_cxx17__normal_iteratorIPSt4pairINSt7__cxx1112basic_stringIcSt11char_traitsIcESaIcEEEiESt6vectorIS9_SaIS9_EEEENS0_5__ops15_Iter_comp_iterIPFbRS9_SH_EEEEvT_SL_RT0_, .-_ZSt11__sort_heapIN9__gnu_cxx17__normal_iteratorIPSt4pairINSt7__cxx1112basic_stringIcSt11char_traitsIcESaIcEEEiESt6vectorIS9_SaIS9_EEEENS0_5__ops15_Iter_comp_iterIPFbRS9_SH_EEEEvT_SL_RT0_
	.section	.text._ZNK9__gnu_cxx17__normal_iteratorIPSt4pairINSt7__cxx1112basic_stringIcSt11char_traitsIcESaIcEEEiESt6vectorIS8_SaIS8_EEEmiEl,"axG",@progbits,_ZNK9__gnu_cxx17__normal_iteratorIPSt4pairINSt7__cxx1112basic_stringIcSt11char_traitsIcESaIcEEEiESt6vectorIS8_SaIS8_EEEmiEl,comdat
	.align	2
	.weak	_ZNK9__gnu_cxx17__normal_iteratorIPSt4pairINSt7__cxx1112basic_stringIcSt11char_traitsIcESaIcEEEiESt6vectorIS8_SaIS8_EEEmiEl
	.type	_ZNK9__gnu_cxx17__normal_iteratorIPSt4pairINSt7__cxx1112basic_stringIcSt11char_traitsIcESaIcEEEiESt6vectorIS8_SaIS8_EEEmiEl, %function
_ZNK9__gnu_cxx17__normal_iteratorIPSt4pairINSt7__cxx1112basic_stringIcSt11char_traitsIcESaIcEEEiESt6vectorIS8_SaIS8_EEEmiEl:
.LFB11402:
	.cfi_startproc
	stp	x29, x30, [sp, -48]!
	.cfi_def_cfa_offset 48
	.cfi_offset 29, -48
	.cfi_offset 30, -40
	mov	x29, sp
	str	x0, [sp, 24]
	str	x1, [sp, 16]
	ldr	x0, [sp, 24]
	ldr	x2, [x0]
	ldr	x1, [sp, 16]
	mov	x0, x1
	lsl	x0, x0, 2
	add	x0, x0, x1
	lsl	x0, x0, 3
	neg	x0, x0
	add	x0, x2, x0
	str	x0, [sp, 40]
	add	x1, sp, 40
	add	x0, sp, 32
	bl	_ZN9__gnu_cxx17__normal_iteratorIPSt4pairINSt7__cxx1112basic_stringIcSt11char_traitsIcESaIcEEEiESt6vectorIS8_SaIS8_EEEC1ERKS9_
	ldr	x0, [sp, 32]
	ldp	x29, x30, [sp], 48
	.cfi_restore 30
	.cfi_restore 29
	.cfi_def_cfa_offset 0
	ret
	.cfi_endproc
.LFE11402:
	.size	_ZNK9__gnu_cxx17__normal_iteratorIPSt4pairINSt7__cxx1112basic_stringIcSt11char_traitsIcESaIcEEEiESt6vectorIS8_SaIS8_EEEmiEl, .-_ZNK9__gnu_cxx17__normal_iteratorIPSt4pairINSt7__cxx1112basic_stringIcSt11char_traitsIcESaIcEEEiESt6vectorIS8_SaIS8_EEEmiEl
	.section	.text._ZN9__gnu_cxx5__ops15_Iter_comp_iterIPFbRSt4pairINSt7__cxx1112basic_stringIcSt11char_traitsIcESaIcEEEiESA_EEclINS_17__normal_iteratorIPS9_St6vectorIS9_SaIS9_EEEESK_EEbT_T0_,"axG",@progbits,_ZN9__gnu_cxx5__ops15_Iter_comp_iterIPFbRSt4pairINSt7__cxx1112basic_stringIcSt11char_traitsIcESaIcEEEiESA_EEclINS_17__normal_iteratorIPS9_St6vectorIS9_SaIS9_EEEESK_EEbT_T0_,comdat
	.align	2
	.weak	_ZN9__gnu_cxx5__ops15_Iter_comp_iterIPFbRSt4pairINSt7__cxx1112basic_stringIcSt11char_traitsIcESaIcEEEiESA_EEclINS_17__normal_iteratorIPS9_St6vectorIS9_SaIS9_EEEESK_EEbT_T0_
	.type	_ZN9__gnu_cxx5__ops15_Iter_comp_iterIPFbRSt4pairINSt7__cxx1112basic_stringIcSt11char_traitsIcESaIcEEEiESA_EEclINS_17__normal_iteratorIPS9_St6vectorIS9_SaIS9_EEEESK_EEbT_T0_, %function
_ZN9__gnu_cxx5__ops15_Iter_comp_iterIPFbRSt4pairINSt7__cxx1112basic_stringIcSt11char_traitsIcESaIcEEEiESA_EEclINS_17__normal_iteratorIPS9_St6vectorIS9_SaIS9_EEEESK_EEbT_T0_:
.LFB11404:
	.cfi_startproc
	stp	x29, x30, [sp, -64]!
	.cfi_def_cfa_offset 64
	.cfi_offset 29, -64
	.cfi_offset 30, -56
	mov	x29, sp
	stp	x19, x20, [sp, 16]
	.cfi_offset 19, -48
	.cfi_offset 20, -40
	str	x0, [sp, 56]
	str	x1, [sp, 48]
	str	x2, [sp, 40]
	ldr	x0, [sp, 56]
	ldr	x19, [x0]
	add	x0, sp, 48
	bl	_ZNK9__gnu_cxx17__normal_iteratorIPSt4pairINSt7__cxx1112basic_stringIcSt11char_traitsIcESaIcEEEiESt6vectorIS8_SaIS8_EEEdeEv
	mov	x20, x0
	add	x0, sp, 40
	bl	_ZNK9__gnu_cxx17__normal_iteratorIPSt4pairINSt7__cxx1112basic_stringIcSt11char_traitsIcESaIcEEEiESt6vectorIS8_SaIS8_EEEdeEv
	mov	x1, x0
	mov	x0, x20
	blr	x19
	and	w0, w0, 255
	ldp	x19, x20, [sp, 16]
	ldp	x29, x30, [sp], 64
	.cfi_restore 30
	.cfi_restore 29
	.cfi_restore 19
	.cfi_restore 20
	.cfi_def_cfa_offset 0
	ret
	.cfi_endproc
.LFE11404:
	.size	_ZN9__gnu_cxx5__ops15_Iter_comp_iterIPFbRSt4pairINSt7__cxx1112basic_stringIcSt11char_traitsIcESaIcEEEiESA_EEclINS_17__normal_iteratorIPS9_St6vectorIS9_SaIS9_EEEESK_EEbT_T0_, .-_ZN9__gnu_cxx5__ops15_Iter_comp_iterIPFbRSt4pairINSt7__cxx1112basic_stringIcSt11char_traitsIcESaIcEEEiESA_EEclINS_17__normal_iteratorIPS9_St6vectorIS9_SaIS9_EEEESK_EEbT_T0_
	.section	.text._ZSt22__move_median_to_firstIN9__gnu_cxx17__normal_iteratorIPSt4pairINSt7__cxx1112basic_stringIcSt11char_traitsIcESaIcEEEiESt6vectorIS9_SaIS9_EEEENS0_5__ops15_Iter_comp_iterIPFbRS9_SH_EEEEvT_SL_SL_SL_T0_,"axG",@progbits,_ZSt22__move_median_to_firstIN9__gnu_cxx17__normal_iteratorIPSt4pairINSt7__cxx1112basic_stringIcSt11char_traitsIcESaIcEEEiESt6vectorIS9_SaIS9_EEEENS0_5__ops15_Iter_comp_iterIPFbRS9_SH_EEEEvT_SL_SL_SL_T0_,comdat
	.align	2
	.weak	_ZSt22__move_median_to_firstIN9__gnu_cxx17__normal_iteratorIPSt4pairINSt7__cxx1112basic_stringIcSt11char_traitsIcESaIcEEEiESt6vectorIS9_SaIS9_EEEENS0_5__ops15_Iter_comp_iterIPFbRS9_SH_EEEEvT_SL_SL_SL_T0_
	.type	_ZSt22__move_median_to_firstIN9__gnu_cxx17__normal_iteratorIPSt4pairINSt7__cxx1112basic_stringIcSt11char_traitsIcESaIcEEEiESt6vectorIS9_SaIS9_EEEENS0_5__ops15_Iter_comp_iterIPFbRS9_SH_EEEEvT_SL_SL_SL_T0_, %function
_ZSt22__move_median_to_firstIN9__gnu_cxx17__normal_iteratorIPSt4pairINSt7__cxx1112basic_stringIcSt11char_traitsIcESaIcEEEiESt6vectorIS9_SaIS9_EEEENS0_5__ops15_Iter_comp_iterIPFbRS9_SH_EEEEvT_SL_SL_SL_T0_:
.LFB11403:
	.cfi_startproc
	stp	x29, x30, [sp, -64]!
	.cfi_def_cfa_offset 64
	.cfi_offset 29, -64
	.cfi_offset 30, -56
	mov	x29, sp
	str	x0, [sp, 56]
	str	x1, [sp, 48]
	str	x2, [sp, 40]
	str	x3, [sp, 32]
	str	x4, [sp, 24]
	add	x0, sp, 24
	ldr	x2, [sp, 40]
	ldr	x1, [sp, 48]
	bl	_ZN9__gnu_cxx5__ops15_Iter_comp_iterIPFbRSt4pairINSt7__cxx1112basic_stringIcSt11char_traitsIcESaIcEEEiESA_EEclINS_17__normal_iteratorIPS9_St6vectorIS9_SaIS9_EEEESK_EEbT_T0_
	and	w0, w0, 255
	cmp	w0, 0
	beq	.L357
	add	x0, sp, 24
	ldr	x2, [sp, 32]
	ldr	x1, [sp, 40]
	bl	_ZN9__gnu_cxx5__ops15_Iter_comp_iterIPFbRSt4pairINSt7__cxx1112basic_stringIcSt11char_traitsIcESaIcEEEiESA_EEclINS_17__normal_iteratorIPS9_St6vectorIS9_SaIS9_EEEESK_EEbT_T0_
	and	w0, w0, 255
	cmp	w0, 0
	beq	.L358
	ldr	x1, [sp, 40]
	ldr	x0, [sp, 56]
	bl	_ZSt9iter_swapIN9__gnu_cxx17__normal_iteratorIPSt4pairINSt7__cxx1112basic_stringIcSt11char_traitsIcESaIcEEEiESt6vectorIS9_SaIS9_EEEESE_EvT_T0_
	b	.L363
.L358:
	add	x0, sp, 24
	ldr	x2, [sp, 32]
	ldr	x1, [sp, 48]
	bl	_ZN9__gnu_cxx5__ops15_Iter_comp_iterIPFbRSt4pairINSt7__cxx1112basic_stringIcSt11char_traitsIcESaIcEEEiESA_EEclINS_17__normal_iteratorIPS9_St6vectorIS9_SaIS9_EEEESK_EEbT_T0_
	and	w0, w0, 255
	cmp	w0, 0
	beq	.L360
	ldr	x1, [sp, 32]
	ldr	x0, [sp, 56]
	bl	_ZSt9iter_swapIN9__gnu_cxx17__normal_iteratorIPSt4pairINSt7__cxx1112basic_stringIcSt11char_traitsIcESaIcEEEiESt6vectorIS9_SaIS9_EEEESE_EvT_T0_
	b	.L363
.L360:
	ldr	x1, [sp, 48]
	ldr	x0, [sp, 56]
	bl	_ZSt9iter_swapIN9__gnu_cxx17__normal_iteratorIPSt4pairINSt7__cxx1112basic_stringIcSt11char_traitsIcESaIcEEEiESt6vectorIS9_SaIS9_EEEESE_EvT_T0_
	b	.L363
.L357:
	add	x0, sp, 24
	ldr	x2, [sp, 32]
	ldr	x1, [sp, 48]
	bl	_ZN9__gnu_cxx5__ops15_Iter_comp_iterIPFbRSt4pairINSt7__cxx1112basic_stringIcSt11char_traitsIcESaIcEEEiESA_EEclINS_17__normal_iteratorIPS9_St6vectorIS9_SaIS9_EEEESK_EEbT_T0_
	and	w0, w0, 255
	cmp	w0, 0
	beq	.L361
	ldr	x1, [sp, 48]
	ldr	x0, [sp, 56]
	bl	_ZSt9iter_swapIN9__gnu_cxx17__normal_iteratorIPSt4pairINSt7__cxx1112basic_stringIcSt11char_traitsIcESaIcEEEiESt6vectorIS9_SaIS9_EEEESE_EvT_T0_
	b	.L363
.L361:
	add	x0, sp, 24
	ldr	x2, [sp, 32]
	ldr	x1, [sp, 40]
	bl	_ZN9__gnu_cxx5__ops15_Iter_comp_iterIPFbRSt4pairINSt7__cxx1112basic_stringIcSt11char_traitsIcESaIcEEEiESA_EEclINS_17__normal_iteratorIPS9_St6vectorIS9_SaIS9_EEEESK_EEbT_T0_
	and	w0, w0, 255
	cmp	w0, 0
	beq	.L362
	ldr	x1, [sp, 32]
	ldr	x0, [sp, 56]
	bl	_ZSt9iter_swapIN9__gnu_cxx17__normal_iteratorIPSt4pairINSt7__cxx1112basic_stringIcSt11char_traitsIcESaIcEEEiESt6vectorIS9_SaIS9_EEEESE_EvT_T0_
	b	.L363
.L362:
	ldr	x1, [sp, 40]
	ldr	x0, [sp, 56]
	bl	_ZSt9iter_swapIN9__gnu_cxx17__normal_iteratorIPSt4pairINSt7__cxx1112basic_stringIcSt11char_traitsIcESaIcEEEiESt6vectorIS9_SaIS9_EEEESE_EvT_T0_
.L363:
	nop
	ldp	x29, x30, [sp], 64
	.cfi_restore 30
	.cfi_restore 29
	.cfi_def_cfa_offset 0
	ret
	.cfi_endproc
.LFE11403:
	.size	_ZSt22__move_median_to_firstIN9__gnu_cxx17__normal_iteratorIPSt4pairINSt7__cxx1112basic_stringIcSt11char_traitsIcESaIcEEEiESt6vectorIS9_SaIS9_EEEENS0_5__ops15_Iter_comp_iterIPFbRS9_SH_EEEEvT_SL_SL_SL_T0_, .-_ZSt22__move_median_to_firstIN9__gnu_cxx17__normal_iteratorIPSt4pairINSt7__cxx1112basic_stringIcSt11char_traitsIcESaIcEEEiESt6vectorIS9_SaIS9_EEEENS0_5__ops15_Iter_comp_iterIPFbRS9_SH_EEEEvT_SL_SL_SL_T0_
	.section	.text._ZSt21__unguarded_partitionIN9__gnu_cxx17__normal_iteratorIPSt4pairINSt7__cxx1112basic_stringIcSt11char_traitsIcESaIcEEEiESt6vectorIS9_SaIS9_EEEENS0_5__ops15_Iter_comp_iterIPFbRS9_SH_EEEET_SL_SL_SL_T0_,"axG",@progbits,_ZSt21__unguarded_partitionIN9__gnu_cxx17__normal_iteratorIPSt4pairINSt7__cxx1112basic_stringIcSt11char_traitsIcESaIcEEEiESt6vectorIS9_SaIS9_EEEENS0_5__ops15_Iter_comp_iterIPFbRS9_SH_EEEET_SL_SL_SL_T0_,comdat
	.align	2
	.weak	_ZSt21__unguarded_partitionIN9__gnu_cxx17__normal_iteratorIPSt4pairINSt7__cxx1112basic_stringIcSt11char_traitsIcESaIcEEEiESt6vectorIS9_SaIS9_EEEENS0_5__ops15_Iter_comp_iterIPFbRS9_SH_EEEET_SL_SL_SL_T0_
	.type	_ZSt21__unguarded_partitionIN9__gnu_cxx17__normal_iteratorIPSt4pairINSt7__cxx1112basic_stringIcSt11char_traitsIcESaIcEEEiESt6vectorIS9_SaIS9_EEEENS0_5__ops15_Iter_comp_iterIPFbRS9_SH_EEEET_SL_SL_SL_T0_, %function
_ZSt21__unguarded_partitionIN9__gnu_cxx17__normal_iteratorIPSt4pairINSt7__cxx1112basic_stringIcSt11char_traitsIcESaIcEEEiESt6vectorIS9_SaIS9_EEEENS0_5__ops15_Iter_comp_iterIPFbRS9_SH_EEEET_SL_SL_SL_T0_:
.LFB11405:
	.cfi_startproc
	stp	x29, x30, [sp, -48]!
	.cfi_def_cfa_offset 48
	.cfi_offset 29, -48
	.cfi_offset 30, -40
	mov	x29, sp
	str	x0, [sp, 40]
	str	x1, [sp, 32]
	str	x2, [sp, 24]
	str	x3, [sp, 16]
	b	.L365
.L366:
	add	x0, sp, 40
	bl	_ZN9__gnu_cxx17__normal_iteratorIPSt4pairINSt7__cxx1112basic_stringIcSt11char_traitsIcESaIcEEEiESt6vectorIS8_SaIS8_EEEppEv
.L365:
	add	x0, sp, 16
	ldr	x2, [sp, 24]
	ldr	x1, [sp, 40]
	bl	_ZN9__gnu_cxx5__ops15_Iter_comp_iterIPFbRSt4pairINSt7__cxx1112basic_stringIcSt11char_traitsIcESaIcEEEiESA_EEclINS_17__normal_iteratorIPS9_St6vectorIS9_SaIS9_EEEESK_EEbT_T0_
	and	w0, w0, 255
	cmp	w0, 0
	bne	.L366
	add	x0, sp, 32
	bl	_ZN9__gnu_cxx17__normal_iteratorIPSt4pairINSt7__cxx1112basic_stringIcSt11char_traitsIcESaIcEEEiESt6vectorIS8_SaIS8_EEEmmEv
	b	.L367
.L368:
	add	x0, sp, 32
	bl	_ZN9__gnu_cxx17__normal_iteratorIPSt4pairINSt7__cxx1112basic_stringIcSt11char_traitsIcESaIcEEEiESt6vectorIS8_SaIS8_EEEmmEv
.L367:
	add	x0, sp, 16
	ldr	x2, [sp, 32]
	ldr	x1, [sp, 24]
	bl	_ZN9__gnu_cxx5__ops15_Iter_comp_iterIPFbRSt4pairINSt7__cxx1112basic_stringIcSt11char_traitsIcESaIcEEEiESA_EEclINS_17__normal_iteratorIPS9_St6vectorIS9_SaIS9_EEEESK_EEbT_T0_
	and	w0, w0, 255
	cmp	w0, 0
	bne	.L368
	add	x1, sp, 32
	add	x0, sp, 40
	bl	_ZN9__gnu_cxxltIPSt4pairINSt7__cxx1112basic_stringIcSt11char_traitsIcESaIcEEEiESt6vectorIS8_SaIS8_EEEEbRKNS_17__normal_iteratorIT_T0_EESI_
	and	w0, w0, 255
	eor	w0, w0, 1
	and	w0, w0, 255
	cmp	w0, 0
	beq	.L369
	ldr	x0, [sp, 40]
	b	.L372
.L369:
	ldr	x1, [sp, 32]
	ldr	x0, [sp, 40]
	bl	_ZSt9iter_swapIN9__gnu_cxx17__normal_iteratorIPSt4pairINSt7__cxx1112basic_stringIcSt11char_traitsIcESaIcEEEiESt6vectorIS9_SaIS9_EEEESE_EvT_T0_
	add	x0, sp, 40
	bl	_ZN9__gnu_cxx17__normal_iteratorIPSt4pairINSt7__cxx1112basic_stringIcSt11char_traitsIcESaIcEEEiESt6vectorIS8_SaIS8_EEEppEv
	b	.L365
.L372:
	ldp	x29, x30, [sp], 48
	.cfi_restore 30
	.cfi_restore 29
	.cfi_def_cfa_offset 0
	ret
	.cfi_endproc
.LFE11405:
	.size	_ZSt21__unguarded_partitionIN9__gnu_cxx17__normal_iteratorIPSt4pairINSt7__cxx1112basic_stringIcSt11char_traitsIcESaIcEEEiESt6vectorIS9_SaIS9_EEEENS0_5__ops15_Iter_comp_iterIPFbRS9_SH_EEEET_SL_SL_SL_T0_, .-_ZSt21__unguarded_partitionIN9__gnu_cxx17__normal_iteratorIPSt4pairINSt7__cxx1112basic_stringIcSt11char_traitsIcESaIcEEEiESt6vectorIS9_SaIS9_EEEENS0_5__ops15_Iter_comp_iterIPFbRS9_SH_EEEET_SL_SL_SL_T0_
	.section	.text._ZN9__gnu_cxxeqIPSt4pairINSt7__cxx1112basic_stringIcSt11char_traitsIcESaIcEEEiESt6vectorIS8_SaIS8_EEEEbRKNS_17__normal_iteratorIT_T0_EESI_,"axG",@progbits,_ZN9__gnu_cxxeqIPSt4pairINSt7__cxx1112basic_stringIcSt11char_traitsIcESaIcEEEiESt6vectorIS8_SaIS8_EEEEbRKNS_17__normal_iteratorIT_T0_EESI_,comdat
	.align	2
	.weak	_ZN9__gnu_cxxeqIPSt4pairINSt7__cxx1112basic_stringIcSt11char_traitsIcESaIcEEEiESt6vectorIS8_SaIS8_EEEEbRKNS_17__normal_iteratorIT_T0_EESI_
	.type	_ZN9__gnu_cxxeqIPSt4pairINSt7__cxx1112basic_stringIcSt11char_traitsIcESaIcEEEiESt6vectorIS8_SaIS8_EEEEbRKNS_17__normal_iteratorIT_T0_EESI_, %function
_ZN9__gnu_cxxeqIPSt4pairINSt7__cxx1112basic_stringIcSt11char_traitsIcESaIcEEEiESt6vectorIS8_SaIS8_EEEEbRKNS_17__normal_iteratorIT_T0_EESI_:
.LFB11406:
	.cfi_startproc
	stp	x29, x30, [sp, -48]!
	.cfi_def_cfa_offset 48
	.cfi_offset 29, -48
	.cfi_offset 30, -40
	mov	x29, sp
	str	x19, [sp, 16]
	.cfi_offset 19, -32
	str	x0, [sp, 40]
	str	x1, [sp, 32]
	ldr	x0, [sp, 40]
	bl	_ZNK9__gnu_cxx17__normal_iteratorIPSt4pairINSt7__cxx1112basic_stringIcSt11char_traitsIcESaIcEEEiESt6vectorIS8_SaIS8_EEE4baseEv
	ldr	x19, [x0]
	ldr	x0, [sp, 32]
	bl	_ZNK9__gnu_cxx17__normal_iteratorIPSt4pairINSt7__cxx1112basic_stringIcSt11char_traitsIcESaIcEEEiESt6vectorIS8_SaIS8_EEE4baseEv
	ldr	x0, [x0]
	cmp	x19, x0
	cset	w0, eq
	and	w0, w0, 255
	ldr	x19, [sp, 16]
	ldp	x29, x30, [sp], 48
	.cfi_restore 30
	.cfi_restore 29
	.cfi_restore 19
	.cfi_def_cfa_offset 0
	ret
	.cfi_endproc
.LFE11406:
	.size	_ZN9__gnu_cxxeqIPSt4pairINSt7__cxx1112basic_stringIcSt11char_traitsIcESaIcEEEiESt6vectorIS8_SaIS8_EEEEbRKNS_17__normal_iteratorIT_T0_EESI_, .-_ZN9__gnu_cxxeqIPSt4pairINSt7__cxx1112basic_stringIcSt11char_traitsIcESaIcEEEiESt6vectorIS8_SaIS8_EEEEbRKNS_17__normal_iteratorIT_T0_EESI_
	.section	.text._ZN9__gnu_cxx17__normal_iteratorIPSt4pairINSt7__cxx1112basic_stringIcSt11char_traitsIcESaIcEEEiESt6vectorIS8_SaIS8_EEEppEv,"axG",@progbits,_ZN9__gnu_cxx17__normal_iteratorIPSt4pairINSt7__cxx1112basic_stringIcSt11char_traitsIcESaIcEEEiESt6vectorIS8_SaIS8_EEEppEv,comdat
	.align	2
	.weak	_ZN9__gnu_cxx17__normal_iteratorIPSt4pairINSt7__cxx1112basic_stringIcSt11char_traitsIcESaIcEEEiESt6vectorIS8_SaIS8_EEEppEv
	.type	_ZN9__gnu_cxx17__normal_iteratorIPSt4pairINSt7__cxx1112basic_stringIcSt11char_traitsIcESaIcEEEiESt6vectorIS8_SaIS8_EEEppEv, %function
_ZN9__gnu_cxx17__normal_iteratorIPSt4pairINSt7__cxx1112basic_stringIcSt11char_traitsIcESaIcEEEiESt6vectorIS8_SaIS8_EEEppEv:
.LFB11407:
	.cfi_startproc
	sub	sp, sp, #16
	.cfi_def_cfa_offset 16
	str	x0, [sp, 8]
	ldr	x0, [sp, 8]
	ldr	x0, [x0]
	add	x1, x0, 40
	ldr	x0, [sp, 8]
	str	x1, [x0]
	ldr	x0, [sp, 8]
	add	sp, sp, 16
	.cfi_def_cfa_offset 0
	ret
	.cfi_endproc
.LFE11407:
	.size	_ZN9__gnu_cxx17__normal_iteratorIPSt4pairINSt7__cxx1112basic_stringIcSt11char_traitsIcESaIcEEEiESt6vectorIS8_SaIS8_EEEppEv, .-_ZN9__gnu_cxx17__normal_iteratorIPSt4pairINSt7__cxx1112basic_stringIcSt11char_traitsIcESaIcEEEiESt6vectorIS8_SaIS8_EEEppEv
	.section	.text._ZNK9__gnu_cxx17__normal_iteratorIPSt4pairINSt7__cxx1112basic_stringIcSt11char_traitsIcESaIcEEEiESt6vectorIS8_SaIS8_EEEdeEv,"axG",@progbits,_ZNK9__gnu_cxx17__normal_iteratorIPSt4pairINSt7__cxx1112basic_stringIcSt11char_traitsIcESaIcEEEiESt6vectorIS8_SaIS8_EEEdeEv,comdat
	.align	2
	.weak	_ZNK9__gnu_cxx17__normal_iteratorIPSt4pairINSt7__cxx1112basic_stringIcSt11char_traitsIcESaIcEEEiESt6vectorIS8_SaIS8_EEEdeEv
	.type	_ZNK9__gnu_cxx17__normal_iteratorIPSt4pairINSt7__cxx1112basic_stringIcSt11char_traitsIcESaIcEEEiESt6vectorIS8_SaIS8_EEEdeEv, %function
_ZNK9__gnu_cxx17__normal_iteratorIPSt4pairINSt7__cxx1112basic_stringIcSt11char_traitsIcESaIcEEEiESt6vectorIS8_SaIS8_EEEdeEv:
.LFB11408:
	.cfi_startproc
	sub	sp, sp, #16
	.cfi_def_cfa_offset 16
	str	x0, [sp, 8]
	ldr	x0, [sp, 8]
	ldr	x0, [x0]
	add	sp, sp, 16
	.cfi_def_cfa_offset 0
	ret
	.cfi_endproc
.LFE11408:
	.size	_ZNK9__gnu_cxx17__normal_iteratorIPSt4pairINSt7__cxx1112basic_stringIcSt11char_traitsIcESaIcEEEiESt6vectorIS8_SaIS8_EEEdeEv, .-_ZNK9__gnu_cxx17__normal_iteratorIPSt4pairINSt7__cxx1112basic_stringIcSt11char_traitsIcESaIcEEEiESt6vectorIS8_SaIS8_EEEdeEv
	.section	.text._ZSt4moveIRSt4pairINSt7__cxx1112basic_stringIcSt11char_traitsIcESaIcEEEiEEONSt16remove_referenceIT_E4typeEOSA_,"axG",@progbits,_ZSt4moveIRSt4pairINSt7__cxx1112basic_stringIcSt11char_traitsIcESaIcEEEiEEONSt16remove_referenceIT_E4typeEOSA_,comdat
	.align	2
	.weak	_ZSt4moveIRSt4pairINSt7__cxx1112basic_stringIcSt11char_traitsIcESaIcEEEiEEONSt16remove_referenceIT_E4typeEOSA_
	.type	_ZSt4moveIRSt4pairINSt7__cxx1112basic_stringIcSt11char_traitsIcESaIcEEEiEEONSt16remove_referenceIT_E4typeEOSA_, %function
_ZSt4moveIRSt4pairINSt7__cxx1112basic_stringIcSt11char_traitsIcESaIcEEEiEEONSt16remove_referenceIT_E4typeEOSA_:
.LFB11409:
	.cfi_startproc
	sub	sp, sp, #16
	.cfi_def_cfa_offset 16
	str	x0, [sp, 8]
	ldr	x0, [sp, 8]
	add	sp, sp, 16
	.cfi_def_cfa_offset 0
	ret
	.cfi_endproc
.LFE11409:
	.size	_ZSt4moveIRSt4pairINSt7__cxx1112basic_stringIcSt11char_traitsIcESaIcEEEiEEONSt16remove_referenceIT_E4typeEOSA_, .-_ZSt4moveIRSt4pairINSt7__cxx1112basic_stringIcSt11char_traitsIcESaIcEEEiEEONSt16remove_referenceIT_E4typeEOSA_
	.section	.text._ZSt13move_backwardIN9__gnu_cxx17__normal_iteratorIPSt4pairINSt7__cxx1112basic_stringIcSt11char_traitsIcESaIcEEEiESt6vectorIS9_SaIS9_EEEESE_ET0_T_SG_SF_,"axG",@progbits,_ZSt13move_backwardIN9__gnu_cxx17__normal_iteratorIPSt4pairINSt7__cxx1112basic_stringIcSt11char_traitsIcESaIcEEEiESt6vectorIS9_SaIS9_EEEESE_ET0_T_SG_SF_,comdat
	.align	2
	.weak	_ZSt13move_backwardIN9__gnu_cxx17__normal_iteratorIPSt4pairINSt7__cxx1112basic_stringIcSt11char_traitsIcESaIcEEEiESt6vectorIS9_SaIS9_EEEESE_ET0_T_SG_SF_
	.type	_ZSt13move_backwardIN9__gnu_cxx17__normal_iteratorIPSt4pairINSt7__cxx1112basic_stringIcSt11char_traitsIcESaIcEEEiESt6vectorIS9_SaIS9_EEEESE_ET0_T_SG_SF_, %function
_ZSt13move_backwardIN9__gnu_cxx17__normal_iteratorIPSt4pairINSt7__cxx1112basic_stringIcSt11char_traitsIcESaIcEEEiESt6vectorIS9_SaIS9_EEEESE_ET0_T_SG_SF_:
.LFB11410:
	.cfi_startproc
	stp	x29, x30, [sp, -64]!
	.cfi_def_cfa_offset 64
	.cfi_offset 29, -64
	.cfi_offset 30, -56
	mov	x29, sp
	str	x19, [sp, 16]
	.cfi_offset 19, -48
	str	x0, [sp, 56]
	str	x1, [sp, 48]
	str	x2, [sp, 40]
	ldr	x0, [sp, 56]
	bl	_ZSt12__miter_baseIN9__gnu_cxx17__normal_iteratorIPSt4pairINSt7__cxx1112basic_stringIcSt11char_traitsIcESaIcEEEiESt6vectorIS9_SaIS9_EEEEET_SF_
	mov	x19, x0
	ldr	x0, [sp, 48]
	bl	_ZSt12__miter_baseIN9__gnu_cxx17__normal_iteratorIPSt4pairINSt7__cxx1112basic_stringIcSt11char_traitsIcESaIcEEEiESt6vectorIS9_SaIS9_EEEEET_SF_
	ldr	x2, [sp, 40]
	mov	x1, x0
	mov	x0, x19
	bl	_ZSt22__copy_move_backward_aILb1EN9__gnu_cxx17__normal_iteratorIPSt4pairINSt7__cxx1112basic_stringIcSt11char_traitsIcESaIcEEEiESt6vectorIS9_SaIS9_EEEESE_ET1_T0_SG_SF_
	ldr	x19, [sp, 16]
	ldp	x29, x30, [sp], 64
	.cfi_restore 30
	.cfi_restore 29
	.cfi_restore 19
	.cfi_def_cfa_offset 0
	ret
	.cfi_endproc
.LFE11410:
	.size	_ZSt13move_backwardIN9__gnu_cxx17__normal_iteratorIPSt4pairINSt7__cxx1112basic_stringIcSt11char_traitsIcESaIcEEEiESt6vectorIS9_SaIS9_EEEESE_ET0_T_SG_SF_, .-_ZSt13move_backwardIN9__gnu_cxx17__normal_iteratorIPSt4pairINSt7__cxx1112basic_stringIcSt11char_traitsIcESaIcEEEiESt6vectorIS9_SaIS9_EEEESE_ET0_T_SG_SF_
	.section	.text._ZNSt4pairINSt7__cxx1112basic_stringIcSt11char_traitsIcESaIcEEEiEaSEOS6_,"axG",@progbits,_ZNSt4pairINSt7__cxx1112basic_stringIcSt11char_traitsIcESaIcEEEiEaSEOS6_,comdat
	.align	2
	.weak	_ZNSt4pairINSt7__cxx1112basic_stringIcSt11char_traitsIcESaIcEEEiEaSEOS6_
	.type	_ZNSt4pairINSt7__cxx1112basic_stringIcSt11char_traitsIcESaIcEEEiEaSEOS6_, %function
_ZNSt4pairINSt7__cxx1112basic_stringIcSt11char_traitsIcESaIcEEEiEaSEOS6_:
.LFB11411:
	.cfi_startproc
	stp	x29, x30, [sp, -32]!
	.cfi_def_cfa_offset 32
	.cfi_offset 29, -32
	.cfi_offset 30, -24
	mov	x29, sp
	str	x0, [sp, 24]
	str	x1, [sp, 16]
	ldr	x0, [sp, 16]
	bl	_ZSt7forwardINSt7__cxx1112basic_stringIcSt11char_traitsIcESaIcEEEEOT_RNSt16remove_referenceIS6_E4typeE
	mov	x1, x0
	ldr	x0, [sp, 24]
	bl	_ZNSt7__cxx1112basic_stringIcSt11char_traitsIcESaIcEEaSEOS4_
	ldr	x0, [sp, 16]
	add	x0, x0, 32
	bl	_ZSt7forwardIiEOT_RNSt16remove_referenceIS0_E4typeE
	ldr	w1, [x0]
	ldr	x0, [sp, 24]
	str	w1, [x0, 32]
	ldr	x0, [sp, 24]
	ldp	x29, x30, [sp], 32
	.cfi_restore 30
	.cfi_restore 29
	.cfi_def_cfa_offset 0
	ret
	.cfi_endproc
.LFE11411:
	.size	_ZNSt4pairINSt7__cxx1112basic_stringIcSt11char_traitsIcESaIcEEEiEaSEOS6_, .-_ZNSt4pairINSt7__cxx1112basic_stringIcSt11char_traitsIcESaIcEEEiEaSEOS6_
	.section	.text._ZN9__gnu_cxx5__ops15__val_comp_iterIPFbRSt4pairINSt7__cxx1112basic_stringIcSt11char_traitsIcESaIcEEEiESA_EEENS0_14_Val_comp_iterIT_EENS0_15_Iter_comp_iterISE_EE,"axG",@progbits,_ZN9__gnu_cxx5__ops15__val_comp_iterIPFbRSt4pairINSt7__cxx1112basic_stringIcSt11char_traitsIcESaIcEEEiESA_EEENS0_14_Val_comp_iterIT_EENS0_15_Iter_comp_iterISE_EE,comdat
	.align	2
	.weak	_ZN9__gnu_cxx5__ops15__val_comp_iterIPFbRSt4pairINSt7__cxx1112basic_stringIcSt11char_traitsIcESaIcEEEiESA_EEENS0_14_Val_comp_iterIT_EENS0_15_Iter_comp_iterISE_EE
	.type	_ZN9__gnu_cxx5__ops15__val_comp_iterIPFbRSt4pairINSt7__cxx1112basic_stringIcSt11char_traitsIcESaIcEEEiESA_EEENS0_14_Val_comp_iterIT_EENS0_15_Iter_comp_iterISE_EE, %function
_ZN9__gnu_cxx5__ops15__val_comp_iterIPFbRSt4pairINSt7__cxx1112basic_stringIcSt11char_traitsIcESaIcEEEiESA_EEENS0_14_Val_comp_iterIT_EENS0_15_Iter_comp_iterISE_EE:
.LFB11412:
	.cfi_startproc
	stp	x29, x30, [sp, -48]!
	.cfi_def_cfa_offset 48
	.cfi_offset 29, -48
	.cfi_offset 30, -40
	mov	x29, sp
	str	x0, [sp, 24]
	add	x0, sp, 24
	bl	_ZSt4moveIRN9__gnu_cxx5__ops15_Iter_comp_iterIPFbRSt4pairINSt7__cxx1112basic_stringIcSt11char_traitsIcESaIcEEEiESB_EEEEONSt16remove_referenceIT_E4typeEOSH_
	mov	x1, x0
	add	x0, sp, 40
	bl	_ZN9__gnu_cxx5__ops14_Val_comp_iterIPFbRSt4pairINSt7__cxx1112basic_stringIcSt11char_traitsIcESaIcEEEiESA_EEC1EONS0_15_Iter_comp_iterISC_EE
	ldr	x0, [sp, 40]
	ldp	x29, x30, [sp], 48
	.cfi_restore 30
	.cfi_restore 29
	.cfi_def_cfa_offset 0
	ret
	.cfi_endproc
.LFE11412:
	.size	_ZN9__gnu_cxx5__ops15__val_comp_iterIPFbRSt4pairINSt7__cxx1112basic_stringIcSt11char_traitsIcESaIcEEEiESA_EEENS0_14_Val_comp_iterIT_EENS0_15_Iter_comp_iterISE_EE, .-_ZN9__gnu_cxx5__ops15__val_comp_iterIPFbRSt4pairINSt7__cxx1112basic_stringIcSt11char_traitsIcESaIcEEEiESA_EEENS0_14_Val_comp_iterIT_EENS0_15_Iter_comp_iterISE_EE
	.section	.text._ZSt25__unguarded_linear_insertIN9__gnu_cxx17__normal_iteratorIPSt4pairINSt7__cxx1112basic_stringIcSt11char_traitsIcESaIcEEEiESt6vectorIS9_SaIS9_EEEENS0_5__ops14_Val_comp_iterIPFbRS9_SH_EEEEvT_T0_,"axG",@progbits,_ZSt25__unguarded_linear_insertIN9__gnu_cxx17__normal_iteratorIPSt4pairINSt7__cxx1112basic_stringIcSt11char_traitsIcESaIcEEEiESt6vectorIS9_SaIS9_EEEENS0_5__ops14_Val_comp_iterIPFbRS9_SH_EEEEvT_T0_,comdat
	.align	2
	.weak	_ZSt25__unguarded_linear_insertIN9__gnu_cxx17__normal_iteratorIPSt4pairINSt7__cxx1112basic_stringIcSt11char_traitsIcESaIcEEEiESt6vectorIS9_SaIS9_EEEENS0_5__ops14_Val_comp_iterIPFbRS9_SH_EEEEvT_T0_
	.type	_ZSt25__unguarded_linear_insertIN9__gnu_cxx17__normal_iteratorIPSt4pairINSt7__cxx1112basic_stringIcSt11char_traitsIcESaIcEEEiESt6vectorIS9_SaIS9_EEEENS0_5__ops14_Val_comp_iterIPFbRS9_SH_EEEEvT_T0_, %function
_ZSt25__unguarded_linear_insertIN9__gnu_cxx17__normal_iteratorIPSt4pairINSt7__cxx1112basic_stringIcSt11char_traitsIcESaIcEEEiESt6vectorIS9_SaIS9_EEEENS0_5__ops14_Val_comp_iterIPFbRS9_SH_EEEEvT_T0_:
.LFB11413:
	.cfi_startproc
	.cfi_personality 0x9b,DW.ref.__gxx_personality_v0
	.cfi_lsda 0x1b,.LLSDA11413
	stp	x29, x30, [sp, -96]!
	.cfi_def_cfa_offset 96
	.cfi_offset 29, -96
	.cfi_offset 30, -88
	mov	x29, sp
	str	x19, [sp, 16]
	.cfi_offset 19, -80
	str	x0, [sp, 40]
	str	x1, [sp, 32]
	add	x0, sp, 40
	bl	_ZNK9__gnu_cxx17__normal_iteratorIPSt4pairINSt7__cxx1112basic_stringIcSt11char_traitsIcESaIcEEEiESt6vectorIS8_SaIS8_EEEdeEv
	bl	_ZSt4moveIRSt4pairINSt7__cxx1112basic_stringIcSt11char_traitsIcESaIcEEEiEEONSt16remove_referenceIT_E4typeEOSA_
	mov	x1, x0
	add	x0, sp, 56
	bl	_ZNSt4pairINSt7__cxx1112basic_stringIcSt11char_traitsIcESaIcEEEiEC1EOS6_
	ldr	x0, [sp, 40]
	str	x0, [sp, 48]
	add	x0, sp, 48
	bl	_ZN9__gnu_cxx17__normal_iteratorIPSt4pairINSt7__cxx1112basic_stringIcSt11char_traitsIcESaIcEEEiESt6vectorIS8_SaIS8_EEEmmEv
	b	.L388
.L389:
	add	x0, sp, 48
	bl	_ZNK9__gnu_cxx17__normal_iteratorIPSt4pairINSt7__cxx1112basic_stringIcSt11char_traitsIcESaIcEEEiESt6vectorIS8_SaIS8_EEEdeEv
	bl	_ZSt4moveIRSt4pairINSt7__cxx1112basic_stringIcSt11char_traitsIcESaIcEEEiEEONSt16remove_referenceIT_E4typeEOSA_
	mov	x19, x0
	add	x0, sp, 40
	bl	_ZNK9__gnu_cxx17__normal_iteratorIPSt4pairINSt7__cxx1112basic_stringIcSt11char_traitsIcESaIcEEEiESt6vectorIS8_SaIS8_EEEdeEv
	mov	x1, x19
	bl	_ZNSt4pairINSt7__cxx1112basic_stringIcSt11char_traitsIcESaIcEEEiEaSEOS6_
	ldr	x0, [sp, 48]
	str	x0, [sp, 40]
	add	x0, sp, 48
	bl	_ZN9__gnu_cxx17__normal_iteratorIPSt4pairINSt7__cxx1112basic_stringIcSt11char_traitsIcESaIcEEEiESt6vectorIS8_SaIS8_EEEmmEv
.L388:
	add	x1, sp, 56
	add	x0, sp, 32
	ldr	x2, [sp, 48]
.LEHB18:
	bl	_ZN9__gnu_cxx5__ops14_Val_comp_iterIPFbRSt4pairINSt7__cxx1112basic_stringIcSt11char_traitsIcESaIcEEEiESA_EEclIS9_NS_17__normal_iteratorIPS9_St6vectorIS9_SaIS9_EEEEEEbRT_T0_
.LEHE18:
	and	w0, w0, 255
	cmp	w0, 0
	bne	.L389
	add	x0, sp, 56
	bl	_ZSt4moveIRSt4pairINSt7__cxx1112basic_stringIcSt11char_traitsIcESaIcEEEiEEONSt16remove_referenceIT_E4typeEOSA_
	mov	x19, x0
	add	x0, sp, 40
	bl	_ZNK9__gnu_cxx17__normal_iteratorIPSt4pairINSt7__cxx1112basic_stringIcSt11char_traitsIcESaIcEEEiESt6vectorIS8_SaIS8_EEEdeEv
	mov	x1, x19
	bl	_ZNSt4pairINSt7__cxx1112basic_stringIcSt11char_traitsIcESaIcEEEiEaSEOS6_
	add	x0, sp, 56
	bl	_ZNSt4pairINSt7__cxx1112basic_stringIcSt11char_traitsIcESaIcEEEiED1Ev
	b	.L392
.L391:
	mov	x19, x0
	add	x0, sp, 56
	bl	_ZNSt4pairINSt7__cxx1112basic_stringIcSt11char_traitsIcESaIcEEEiED1Ev
	mov	x0, x19
.LEHB19:
	bl	_Unwind_Resume
.LEHE19:
.L392:
	ldr	x19, [sp, 16]
	ldp	x29, x30, [sp], 96
	.cfi_restore 30
	.cfi_restore 29
	.cfi_restore 19
	.cfi_def_cfa_offset 0
	ret
	.cfi_endproc
.LFE11413:
	.section	.gcc_except_table
.LLSDA11413:
	.byte	0xff
	.byte	0xff
	.byte	0x1
	.uleb128 .LLSDACSE11413-.LLSDACSB11413
.LLSDACSB11413:
	.uleb128 .LEHB18-.LFB11413
	.uleb128 .LEHE18-.LEHB18
	.uleb128 .L391-.LFB11413
	.uleb128 0
	.uleb128 .LEHB19-.LFB11413
	.uleb128 .LEHE19-.LEHB19
	.uleb128 0
	.uleb128 0
.LLSDACSE11413:
	.section	.text._ZSt25__unguarded_linear_insertIN9__gnu_cxx17__normal_iteratorIPSt4pairINSt7__cxx1112basic_stringIcSt11char_traitsIcESaIcEEEiESt6vectorIS9_SaIS9_EEEENS0_5__ops14_Val_comp_iterIPFbRS9_SH_EEEEvT_T0_,"axG",@progbits,_ZSt25__unguarded_linear_insertIN9__gnu_cxx17__normal_iteratorIPSt4pairINSt7__cxx1112basic_stringIcSt11char_traitsIcESaIcEEEiESt6vectorIS9_SaIS9_EEEENS0_5__ops14_Val_comp_iterIPFbRS9_SH_EEEEvT_T0_,comdat
	.size	_ZSt25__unguarded_linear_insertIN9__gnu_cxx17__normal_iteratorIPSt4pairINSt7__cxx1112basic_stringIcSt11char_traitsIcESaIcEEEiESt6vectorIS9_SaIS9_EEEENS0_5__ops14_Val_comp_iterIPFbRS9_SH_EEEEvT_T0_, .-_ZSt25__unguarded_linear_insertIN9__gnu_cxx17__normal_iteratorIPSt4pairINSt7__cxx1112basic_stringIcSt11char_traitsIcESaIcEEEiESt6vectorIS9_SaIS9_EEEENS0_5__ops14_Val_comp_iterIPFbRS9_SH_EEEEvT_T0_
	.section	.text._ZNSt6vectorIxSaIxEE11_S_max_sizeERKS0_,"axG",@progbits,_ZNSt6vectorIxSaIxEE11_S_max_sizeERKS0_,comdat
	.align	2
	.weak	_ZNSt6vectorIxSaIxEE11_S_max_sizeERKS0_
	.type	_ZNSt6vectorIxSaIxEE11_S_max_sizeERKS0_, %function
_ZNSt6vectorIxSaIxEE11_S_max_sizeERKS0_:
.LFB11519:
	.cfi_startproc
	stp	x29, x30, [sp, -48]!
	.cfi_def_cfa_offset 48
	.cfi_offset 29, -48
	.cfi_offset 30, -40
	mov	x29, sp
	str	x0, [sp, 24]
	mov	x0, 1152921504606846975
	str	x0, [sp, 40]
	ldr	x0, [sp, 24]
	bl	_ZNSt16allocator_traitsISaIxEE8max_sizeERKS0_
	str	x0, [sp, 32]
	add	x1, sp, 32
	add	x0, sp, 40
	bl	_ZSt3minImERKT_S2_S2_
	ldr	x0, [x0]
	ldp	x29, x30, [sp], 48
	.cfi_restore 30
	.cfi_restore 29
	.cfi_def_cfa_offset 0
	ret
	.cfi_endproc
.LFE11519:
	.size	_ZNSt6vectorIxSaIxEE11_S_max_sizeERKS0_, .-_ZNSt6vectorIxSaIxEE11_S_max_sizeERKS0_
	.section	.text._ZNKSt12_Vector_baseIxSaIxEE19_M_get_Tp_allocatorEv,"axG",@progbits,_ZNKSt12_Vector_baseIxSaIxEE19_M_get_Tp_allocatorEv,comdat
	.align	2
	.weak	_ZNKSt12_Vector_baseIxSaIxEE19_M_get_Tp_allocatorEv
	.type	_ZNKSt12_Vector_baseIxSaIxEE19_M_get_Tp_allocatorEv, %function
_ZNKSt12_Vector_baseIxSaIxEE19_M_get_Tp_allocatorEv:
.LFB11520:
	.cfi_startproc
	sub	sp, sp, #16
	.cfi_def_cfa_offset 16
	str	x0, [sp, 8]
	ldr	x0, [sp, 8]
	add	sp, sp, 16
	.cfi_def_cfa_offset 0
	ret
	.cfi_endproc
.LFE11520:
	.size	_ZNKSt12_Vector_baseIxSaIxEE19_M_get_Tp_allocatorEv, .-_ZNKSt12_Vector_baseIxSaIxEE19_M_get_Tp_allocatorEv
	.section	.text._ZNK9__gnu_cxx13new_allocatorIxE11_M_max_sizeEv,"axG",@progbits,_ZNK9__gnu_cxx13new_allocatorIxE11_M_max_sizeEv,comdat
	.align	2
	.weak	_ZNK9__gnu_cxx13new_allocatorIxE11_M_max_sizeEv
	.type	_ZNK9__gnu_cxx13new_allocatorIxE11_M_max_sizeEv, %function
_ZNK9__gnu_cxx13new_allocatorIxE11_M_max_sizeEv:
.LFB11522:
	.cfi_startproc
	sub	sp, sp, #16
	.cfi_def_cfa_offset 16
	str	x0, [sp, 8]
	mov	x0, 1152921504606846975
	add	sp, sp, 16
	.cfi_def_cfa_offset 0
	ret
	.cfi_endproc
.LFE11522:
	.size	_ZNK9__gnu_cxx13new_allocatorIxE11_M_max_sizeEv, .-_ZNK9__gnu_cxx13new_allocatorIxE11_M_max_sizeEv
	.section	.text._ZN9__gnu_cxx13new_allocatorIxE8allocateEmPKv,"axG",@progbits,_ZN9__gnu_cxx13new_allocatorIxE8allocateEmPKv,comdat
	.align	2
	.weak	_ZN9__gnu_cxx13new_allocatorIxE8allocateEmPKv
	.type	_ZN9__gnu_cxx13new_allocatorIxE8allocateEmPKv, %function
_ZN9__gnu_cxx13new_allocatorIxE8allocateEmPKv:
.LFB11521:
	.cfi_startproc
	stp	x29, x30, [sp, -48]!
	.cfi_def_cfa_offset 48
	.cfi_offset 29, -48
	.cfi_offset 30, -40
	mov	x29, sp
	str	x0, [sp, 40]
	str	x1, [sp, 32]
	str	x2, [sp, 24]
	ldr	x0, [sp, 40]
	bl	_ZNK9__gnu_cxx13new_allocatorIxE11_M_max_sizeEv
	mov	x1, x0
	ldr	x0, [sp, 32]
	cmp	x0, x1
	cset	w0, hi
	and	w0, w0, 255
	and	x0, x0, 255
	cmp	x0, 0
	cset	w0, ne
	and	w0, w0, 255
	cmp	w0, 0
	beq	.L400
	ldr	x1, [sp, 32]
	mov	x0, 2305843009213693951
	cmp	x1, x0
	bls	.L401
	bl	_ZSt28__throw_bad_array_new_lengthv
.L401:
	bl	_ZSt17__throw_bad_allocv
.L400:
	ldr	x0, [sp, 32]
	lsl	x0, x0, 3
	bl	_Znwm
	nop
	ldp	x29, x30, [sp], 48
	.cfi_restore 30
	.cfi_restore 29
	.cfi_def_cfa_offset 0
	ret
	.cfi_endproc
.LFE11521:
	.size	_ZN9__gnu_cxx13new_allocatorIxE8allocateEmPKv, .-_ZN9__gnu_cxx13new_allocatorIxE8allocateEmPKv
	.section	.text._ZSt12__relocate_aIPxS0_SaIxEET0_T_S3_S2_RT1_,"axG",@progbits,_ZSt12__relocate_aIPxS0_SaIxEET0_T_S3_S2_RT1_,comdat
	.align	2
	.weak	_ZSt12__relocate_aIPxS0_SaIxEET0_T_S3_S2_RT1_
	.type	_ZSt12__relocate_aIPxS0_SaIxEET0_T_S3_S2_RT1_, %function
_ZSt12__relocate_aIPxS0_SaIxEET0_T_S3_S2_RT1_:
.LFB11523:
	.cfi_startproc
	stp	x29, x30, [sp, -64]!
	.cfi_def_cfa_offset 64
	.cfi_offset 29, -64
	.cfi_offset 30, -56
	mov	x29, sp
	stp	x19, x20, [sp, 16]
	.cfi_offset 19, -48
	.cfi_offset 20, -40
	str	x0, [sp, 56]
	str	x1, [sp, 48]
	str	x2, [sp, 40]
	str	x3, [sp, 32]
	ldr	x0, [sp, 56]
	bl	_ZSt12__niter_baseIPxET_S1_
	mov	x19, x0
	ldr	x0, [sp, 48]
	bl	_ZSt12__niter_baseIPxET_S1_
	mov	x20, x0
	ldr	x0, [sp, 40]
	bl	_ZSt12__niter_baseIPxET_S1_
	ldr	x3, [sp, 32]
	mov	x2, x0
	mov	x1, x20
	mov	x0, x19
	bl	_ZSt14__relocate_a_1IxxENSt9enable_ifIXsrSt24__is_bitwise_relocatableIT_vE5valueEPS2_E4typeES4_S4_S4_RSaIT0_E
	ldp	x19, x20, [sp, 16]
	ldp	x29, x30, [sp], 64
	.cfi_restore 30
	.cfi_restore 29
	.cfi_restore 19
	.cfi_restore 20
	.cfi_def_cfa_offset 0
	ret
	.cfi_endproc
.LFE11523:
	.size	_ZSt12__relocate_aIPxS0_SaIxEET0_T_S3_S2_RT1_, .-_ZSt12__relocate_aIPxS0_SaIxEET0_T_S3_S2_RT1_
	.section	.text._ZNSt12_Destroy_auxILb1EE9__destroyIPxEEvT_S3_,"axG",@progbits,_ZNSt12_Destroy_auxILb1EE9__destroyIPxEEvT_S3_,comdat
	.align	2
	.weak	_ZNSt12_Destroy_auxILb1EE9__destroyIPxEEvT_S3_
	.type	_ZNSt12_Destroy_auxILb1EE9__destroyIPxEEvT_S3_, %function
_ZNSt12_Destroy_auxILb1EE9__destroyIPxEEvT_S3_:
.LFB11524:
	.cfi_startproc
	sub	sp, sp, #16
	.cfi_def_cfa_offset 16
	str	x0, [sp, 8]
	str	x1, [sp]
	nop
	add	sp, sp, 16
	.cfi_def_cfa_offset 0
	ret
	.cfi_endproc
.LFE11524:
	.size	_ZNSt12_Destroy_auxILb1EE9__destroyIPxEEvT_S3_, .-_ZNSt12_Destroy_auxILb1EE9__destroyIPxEEvT_S3_
	.section	.text._ZNK9__gnu_cxx13new_allocatorISt4pairINSt7__cxx1112basic_stringIcSt11char_traitsIcESaIcEEEiEE11_M_max_sizeEv,"axG",@progbits,_ZNK9__gnu_cxx13new_allocatorISt4pairINSt7__cxx1112basic_stringIcSt11char_traitsIcESaIcEEEiEE11_M_max_sizeEv,comdat
	.align	2
	.weak	_ZNK9__gnu_cxx13new_allocatorISt4pairINSt7__cxx1112basic_stringIcSt11char_traitsIcESaIcEEEiEE11_M_max_sizeEv
	.type	_ZNK9__gnu_cxx13new_allocatorISt4pairINSt7__cxx1112basic_stringIcSt11char_traitsIcESaIcEEEiEE11_M_max_sizeEv, %function
_ZNK9__gnu_cxx13new_allocatorISt4pairINSt7__cxx1112basic_stringIcSt11char_traitsIcESaIcEEEiEE11_M_max_sizeEv:
.LFB11525:
	.cfi_startproc
	sub	sp, sp, #16
	.cfi_def_cfa_offset 16
	str	x0, [sp, 8]
	mov	x0, 3689348814741910323
	movk	x0, 0x333, lsl 48
	add	sp, sp, 16
	.cfi_def_cfa_offset 0
	ret
	.cfi_endproc
.LFE11525:
	.size	_ZNK9__gnu_cxx13new_allocatorISt4pairINSt7__cxx1112basic_stringIcSt11char_traitsIcESaIcEEEiEE11_M_max_sizeEv, .-_ZNK9__gnu_cxx13new_allocatorISt4pairINSt7__cxx1112basic_stringIcSt11char_traitsIcESaIcEEEiEE11_M_max_sizeEv
	.section	.text._ZN9__gnu_cxx13new_allocatorISt4pairINSt7__cxx1112basic_stringIcSt11char_traitsIcESaIcEEEiEE8allocateEmPKv,"axG",@progbits,_ZN9__gnu_cxx13new_allocatorISt4pairINSt7__cxx1112basic_stringIcSt11char_traitsIcESaIcEEEiEE8allocateEmPKv,comdat
	.align	2
	.weak	_ZN9__gnu_cxx13new_allocatorISt4pairINSt7__cxx1112basic_stringIcSt11char_traitsIcESaIcEEEiEE8allocateEmPKv
	.type	_ZN9__gnu_cxx13new_allocatorISt4pairINSt7__cxx1112basic_stringIcSt11char_traitsIcESaIcEEEiEE8allocateEmPKv, %function
_ZN9__gnu_cxx13new_allocatorISt4pairINSt7__cxx1112basic_stringIcSt11char_traitsIcESaIcEEEiEE8allocateEmPKv:
.LFB11526:
	.cfi_startproc
	stp	x29, x30, [sp, -48]!
	.cfi_def_cfa_offset 48
	.cfi_offset 29, -48
	.cfi_offset 30, -40
	mov	x29, sp
	str	x0, [sp, 40]
	str	x1, [sp, 32]
	str	x2, [sp, 24]
	ldr	x0, [sp, 40]
	bl	_ZNK9__gnu_cxx13new_allocatorISt4pairINSt7__cxx1112basic_stringIcSt11char_traitsIcESaIcEEEiEE11_M_max_sizeEv
	mov	x1, x0
	ldr	x0, [sp, 32]
	cmp	x0, x1
	cset	w0, hi
	and	w0, w0, 255
	and	x0, x0, 255
	cmp	x0, 0
	cset	w0, ne
	and	w0, w0, 255
	cmp	w0, 0
	beq	.L409
	ldr	x1, [sp, 32]
	mov	x0, 7378697629483820646
	movk	x0, 0x666, lsl 48
	cmp	x1, x0
	bls	.L410
	bl	_ZSt28__throw_bad_array_new_lengthv
.L410:
	bl	_ZSt17__throw_bad_allocv
.L409:
	ldr	x1, [sp, 32]
	mov	x0, x1
	lsl	x0, x0, 2
	add	x0, x0, x1
	lsl	x0, x0, 3
	bl	_Znwm
	nop
	ldp	x29, x30, [sp], 48
	.cfi_restore 30
	.cfi_restore 29
	.cfi_def_cfa_offset 0
	ret
	.cfi_endproc
.LFE11526:
	.size	_ZN9__gnu_cxx13new_allocatorISt4pairINSt7__cxx1112basic_stringIcSt11char_traitsIcESaIcEEEiEE8allocateEmPKv, .-_ZN9__gnu_cxx13new_allocatorISt4pairINSt7__cxx1112basic_stringIcSt11char_traitsIcESaIcEEEiEE8allocateEmPKv
	.section	.text._ZSt10_ConstructISt4pairINSt7__cxx1112basic_stringIcSt11char_traitsIcESaIcEEEiEJEEvPT_DpOT0_,"axG",@progbits,_ZSt10_ConstructISt4pairINSt7__cxx1112basic_stringIcSt11char_traitsIcESaIcEEEiEJEEvPT_DpOT0_,comdat
	.align	2
	.weak	_ZSt10_ConstructISt4pairINSt7__cxx1112basic_stringIcSt11char_traitsIcESaIcEEEiEJEEvPT_DpOT0_
	.type	_ZSt10_ConstructISt4pairINSt7__cxx1112basic_stringIcSt11char_traitsIcESaIcEEEiEJEEvPT_DpOT0_, %function
_ZSt10_ConstructISt4pairINSt7__cxx1112basic_stringIcSt11char_traitsIcESaIcEEEiEJEEvPT_DpOT0_:
.LFB11527:
	.cfi_startproc
	stp	x29, x30, [sp, -32]!
	.cfi_def_cfa_offset 32
	.cfi_offset 29, -32
	.cfi_offset 30, -24
	mov	x29, sp
	str	x0, [sp, 24]
	ldr	x0, [sp, 24]
	mov	x1, x0
	mov	x0, 40
	bl	_ZnwmPv
	bl	_ZNSt4pairINSt7__cxx1112basic_stringIcSt11char_traitsIcESaIcEEEiEC1IS5_iLb1EEEv
	nop
	ldp	x29, x30, [sp], 32
	.cfi_restore 30
	.cfi_restore 29
	.cfi_def_cfa_offset 0
	ret
	.cfi_endproc
.LFE11527:
	.size	_ZSt10_ConstructISt4pairINSt7__cxx1112basic_stringIcSt11char_traitsIcESaIcEEEiEJEEvPT_DpOT0_, .-_ZSt10_ConstructISt4pairINSt7__cxx1112basic_stringIcSt11char_traitsIcESaIcEEEiEJEEvPT_DpOT0_
	.section	.text._ZSt11__make_heapIN9__gnu_cxx17__normal_iteratorIPSt4pairINSt7__cxx1112basic_stringIcSt11char_traitsIcESaIcEEEiESt6vectorIS9_SaIS9_EEEENS0_5__ops15_Iter_comp_iterIPFbRS9_SH_EEEEvT_SL_RT0_,"axG",@progbits,_ZSt11__make_heapIN9__gnu_cxx17__normal_iteratorIPSt4pairINSt7__cxx1112basic_stringIcSt11char_traitsIcESaIcEEEiESt6vectorIS9_SaIS9_EEEENS0_5__ops15_Iter_comp_iterIPFbRS9_SH_EEEEvT_SL_RT0_,comdat
	.align	2
	.weak	_ZSt11__make_heapIN9__gnu_cxx17__normal_iteratorIPSt4pairINSt7__cxx1112basic_stringIcSt11char_traitsIcESaIcEEEiESt6vectorIS9_SaIS9_EEEENS0_5__ops15_Iter_comp_iterIPFbRS9_SH_EEEEvT_SL_RT0_
	.type	_ZSt11__make_heapIN9__gnu_cxx17__normal_iteratorIPSt4pairINSt7__cxx1112basic_stringIcSt11char_traitsIcESaIcEEEiESt6vectorIS9_SaIS9_EEEENS0_5__ops15_Iter_comp_iterIPFbRS9_SH_EEEEvT_SL_RT0_, %function
_ZSt11__make_heapIN9__gnu_cxx17__normal_iteratorIPSt4pairINSt7__cxx1112basic_stringIcSt11char_traitsIcESaIcEEEiESt6vectorIS9_SaIS9_EEEENS0_5__ops15_Iter_comp_iterIPFbRS9_SH_EEEEvT_SL_RT0_:
.LFB11528:
	.cfi_startproc
	.cfi_personality 0x9b,DW.ref.__gxx_personality_v0
	.cfi_lsda 0x1b,.LLSDA11528
	stp	x29, x30, [sp, -176]!
	.cfi_def_cfa_offset 176
	.cfi_offset 29, -176
	.cfi_offset 30, -168
	mov	x29, sp
	str	x19, [sp, 16]
	.cfi_offset 19, -160
	str	x0, [sp, 56]
	str	x1, [sp, 48]
	str	x2, [sp, 40]
	add	x1, sp, 56
	add	x0, sp, 48
	bl	_ZN9__gnu_cxxmiIPSt4pairINSt7__cxx1112basic_stringIcSt11char_traitsIcESaIcEEEiESt6vectorIS8_SaIS8_EEEENS_17__normal_iteratorIT_T0_E15difference_typeERKSG_SJ_
	cmp	x0, 1
	cset	w0, le
	and	w0, w0, 255
	cmp	w0, 0
	bne	.L422
	add	x1, sp, 56
	add	x0, sp, 48
	bl	_ZN9__gnu_cxxmiIPSt4pairINSt7__cxx1112basic_stringIcSt11char_traitsIcESaIcEEEiESt6vectorIS8_SaIS8_EEEENS_17__normal_iteratorIT_T0_E15difference_typeERKSG_SJ_
	str	x0, [sp, 160]
	ldr	x0, [sp, 160]
	sub	x0, x0, #2
	lsr	x1, x0, 63
	add	x0, x1, x0
	asr	x0, x0, 1
	str	x0, [sp, 168]
.L419:
	add	x0, sp, 56
	ldr	x1, [sp, 168]
	bl	_ZNK9__gnu_cxx17__normal_iteratorIPSt4pairINSt7__cxx1112basic_stringIcSt11char_traitsIcESaIcEEEiESt6vectorIS8_SaIS8_EEEplEl
	str	x0, [sp, 112]
	add	x0, sp, 112
	bl	_ZNK9__gnu_cxx17__normal_iteratorIPSt4pairINSt7__cxx1112basic_stringIcSt11char_traitsIcESaIcEEEiESt6vectorIS8_SaIS8_EEEdeEv
	bl	_ZSt4moveIRSt4pairINSt7__cxx1112basic_stringIcSt11char_traitsIcESaIcEEEiEEONSt16remove_referenceIT_E4typeEOSA_
	mov	x1, x0
	add	x0, sp, 72
	bl	_ZNSt4pairINSt7__cxx1112basic_stringIcSt11char_traitsIcESaIcEEEiEC1EOS6_
	add	x0, sp, 72
	bl	_ZSt4moveIRSt4pairINSt7__cxx1112basic_stringIcSt11char_traitsIcESaIcEEEiEEONSt16remove_referenceIT_E4typeEOSA_
	mov	x1, x0
	add	x0, sp, 120
	bl	_ZNSt4pairINSt7__cxx1112basic_stringIcSt11char_traitsIcESaIcEEEiEC1EOS6_
	ldr	x0, [sp, 40]
	add	x1, sp, 120
	ldr	x4, [x0]
	mov	x3, x1
	ldr	x2, [sp, 160]
	ldr	x1, [sp, 168]
	ldr	x0, [sp, 56]
.LEHB20:
	bl	_ZSt13__adjust_heapIN9__gnu_cxx17__normal_iteratorIPSt4pairINSt7__cxx1112basic_stringIcSt11char_traitsIcESaIcEEEiESt6vectorIS9_SaIS9_EEEElS9_NS0_5__ops15_Iter_comp_iterIPFbRS9_SH_EEEEvT_T0_SM_T1_T2_
.LEHE20:
	add	x0, sp, 120
	bl	_ZNSt4pairINSt7__cxx1112basic_stringIcSt11char_traitsIcESaIcEEEiED1Ev
	ldr	x0, [sp, 168]
	cmp	x0, 0
	bne	.L416
	mov	w19, 0
	b	.L417
.L416:
	ldr	x0, [sp, 168]
	sub	x0, x0, #1
	str	x0, [sp, 168]
	mov	w19, 1
.L417:
	add	x0, sp, 72
	bl	_ZNSt4pairINSt7__cxx1112basic_stringIcSt11char_traitsIcESaIcEEEiED1Ev
	cmp	w19, 1
	bne	.L423
	b	.L419
.L421:
	mov	x19, x0
	add	x0, sp, 120
	bl	_ZNSt4pairINSt7__cxx1112basic_stringIcSt11char_traitsIcESaIcEEEiED1Ev
	add	x0, sp, 72
	bl	_ZNSt4pairINSt7__cxx1112basic_stringIcSt11char_traitsIcESaIcEEEiED1Ev
	mov	x0, x19
.LEHB21:
	bl	_Unwind_Resume
.LEHE21:
.L422:
	nop
	b	.L413
.L423:
	nop
.L413:
	ldr	x19, [sp, 16]
	ldp	x29, x30, [sp], 176
	.cfi_restore 30
	.cfi_restore 29
	.cfi_restore 19
	.cfi_def_cfa_offset 0
	ret
	.cfi_endproc
.LFE11528:
	.section	.gcc_except_table
.LLSDA11528:
	.byte	0xff
	.byte	0xff
	.byte	0x1
	.uleb128 .LLSDACSE11528-.LLSDACSB11528
.LLSDACSB11528:
	.uleb128 .LEHB20-.LFB11528
	.uleb128 .LEHE20-.LEHB20
	.uleb128 .L421-.LFB11528
	.uleb128 0
	.uleb128 .LEHB21-.LFB11528
	.uleb128 .LEHE21-.LEHB21
	.uleb128 0
	.uleb128 0
.LLSDACSE11528:
	.section	.text._ZSt11__make_heapIN9__gnu_cxx17__normal_iteratorIPSt4pairINSt7__cxx1112basic_stringIcSt11char_traitsIcESaIcEEEiESt6vectorIS9_SaIS9_EEEENS0_5__ops15_Iter_comp_iterIPFbRS9_SH_EEEEvT_SL_RT0_,"axG",@progbits,_ZSt11__make_heapIN9__gnu_cxx17__normal_iteratorIPSt4pairINSt7__cxx1112basic_stringIcSt11char_traitsIcESaIcEEEiESt6vectorIS9_SaIS9_EEEENS0_5__ops15_Iter_comp_iterIPFbRS9_SH_EEEEvT_SL_RT0_,comdat
	.size	_ZSt11__make_heapIN9__gnu_cxx17__normal_iteratorIPSt4pairINSt7__cxx1112basic_stringIcSt11char_traitsIcESaIcEEEiESt6vectorIS9_SaIS9_EEEENS0_5__ops15_Iter_comp_iterIPFbRS9_SH_EEEEvT_SL_RT0_, .-_ZSt11__make_heapIN9__gnu_cxx17__normal_iteratorIPSt4pairINSt7__cxx1112basic_stringIcSt11char_traitsIcESaIcEEEiESt6vectorIS9_SaIS9_EEEENS0_5__ops15_Iter_comp_iterIPFbRS9_SH_EEEEvT_SL_RT0_
	.section	.text._ZN9__gnu_cxxltIPSt4pairINSt7__cxx1112basic_stringIcSt11char_traitsIcESaIcEEEiESt6vectorIS8_SaIS8_EEEEbRKNS_17__normal_iteratorIT_T0_EESI_,"axG",@progbits,_ZN9__gnu_cxxltIPSt4pairINSt7__cxx1112basic_stringIcSt11char_traitsIcESaIcEEEiESt6vectorIS8_SaIS8_EEEEbRKNS_17__normal_iteratorIT_T0_EESI_,comdat
	.align	2
	.weak	_ZN9__gnu_cxxltIPSt4pairINSt7__cxx1112basic_stringIcSt11char_traitsIcESaIcEEEiESt6vectorIS8_SaIS8_EEEEbRKNS_17__normal_iteratorIT_T0_EESI_
	.type	_ZN9__gnu_cxxltIPSt4pairINSt7__cxx1112basic_stringIcSt11char_traitsIcESaIcEEEiESt6vectorIS8_SaIS8_EEEEbRKNS_17__normal_iteratorIT_T0_EESI_, %function
_ZN9__gnu_cxxltIPSt4pairINSt7__cxx1112basic_stringIcSt11char_traitsIcESaIcEEEiESt6vectorIS8_SaIS8_EEEEbRKNS_17__normal_iteratorIT_T0_EESI_:
.LFB11529:
	.cfi_startproc
	stp	x29, x30, [sp, -48]!
	.cfi_def_cfa_offset 48
	.cfi_offset 29, -48
	.cfi_offset 30, -40
	mov	x29, sp
	str	x19, [sp, 16]
	.cfi_offset 19, -32
	str	x0, [sp, 40]
	str	x1, [sp, 32]
	ldr	x0, [sp, 40]
	bl	_ZNK9__gnu_cxx17__normal_iteratorIPSt4pairINSt7__cxx1112basic_stringIcSt11char_traitsIcESaIcEEEiESt6vectorIS8_SaIS8_EEE4baseEv
	ldr	x19, [x0]
	ldr	x0, [sp, 32]
	bl	_ZNK9__gnu_cxx17__normal_iteratorIPSt4pairINSt7__cxx1112basic_stringIcSt11char_traitsIcESaIcEEEiESt6vectorIS8_SaIS8_EEE4baseEv
	ldr	x0, [x0]
	cmp	x19, x0
	cset	w0, cc
	and	w0, w0, 255
	ldr	x19, [sp, 16]
	ldp	x29, x30, [sp], 48
	.cfi_restore 30
	.cfi_restore 29
	.cfi_restore 19
	.cfi_def_cfa_offset 0
	ret
	.cfi_endproc
.LFE11529:
	.size	_ZN9__gnu_cxxltIPSt4pairINSt7__cxx1112basic_stringIcSt11char_traitsIcESaIcEEEiESt6vectorIS8_SaIS8_EEEEbRKNS_17__normal_iteratorIT_T0_EESI_, .-_ZN9__gnu_cxxltIPSt4pairINSt7__cxx1112basic_stringIcSt11char_traitsIcESaIcEEEiESt6vectorIS8_SaIS8_EEEEbRKNS_17__normal_iteratorIT_T0_EESI_
	.section	.text._ZSt10__pop_heapIN9__gnu_cxx17__normal_iteratorIPSt4pairINSt7__cxx1112basic_stringIcSt11char_traitsIcESaIcEEEiESt6vectorIS9_SaIS9_EEEENS0_5__ops15_Iter_comp_iterIPFbRS9_SH_EEEEvT_SL_SL_RT0_,"axG",@progbits,_ZSt10__pop_heapIN9__gnu_cxx17__normal_iteratorIPSt4pairINSt7__cxx1112basic_stringIcSt11char_traitsIcESaIcEEEiESt6vectorIS9_SaIS9_EEEENS0_5__ops15_Iter_comp_iterIPFbRS9_SH_EEEEvT_SL_SL_RT0_,comdat
	.align	2
	.weak	_ZSt10__pop_heapIN9__gnu_cxx17__normal_iteratorIPSt4pairINSt7__cxx1112basic_stringIcSt11char_traitsIcESaIcEEEiESt6vectorIS9_SaIS9_EEEENS0_5__ops15_Iter_comp_iterIPFbRS9_SH_EEEEvT_SL_SL_RT0_
	.type	_ZSt10__pop_heapIN9__gnu_cxx17__normal_iteratorIPSt4pairINSt7__cxx1112basic_stringIcSt11char_traitsIcESaIcEEEiESt6vectorIS9_SaIS9_EEEENS0_5__ops15_Iter_comp_iterIPFbRS9_SH_EEEEvT_SL_SL_RT0_, %function
_ZSt10__pop_heapIN9__gnu_cxx17__normal_iteratorIPSt4pairINSt7__cxx1112basic_stringIcSt11char_traitsIcESaIcEEEiESt6vectorIS9_SaIS9_EEEENS0_5__ops15_Iter_comp_iterIPFbRS9_SH_EEEEvT_SL_SL_RT0_:
.LFB11530:
	.cfi_startproc
	.cfi_personality 0x9b,DW.ref.__gxx_personality_v0
	.cfi_lsda 0x1b,.LLSDA11530
	stp	x29, x30, [sp, -144]!
	.cfi_def_cfa_offset 144
	.cfi_offset 29, -144
	.cfi_offset 30, -136
	mov	x29, sp
	str	x19, [sp, 16]
	.cfi_offset 19, -128
	str	x0, [sp, 56]
	str	x1, [sp, 48]
	str	x2, [sp, 40]
	str	x3, [sp, 32]
	add	x0, sp, 40
	bl	_ZNK9__gnu_cxx17__normal_iteratorIPSt4pairINSt7__cxx1112basic_stringIcSt11char_traitsIcESaIcEEEiESt6vectorIS8_SaIS8_EEEdeEv
	bl	_ZSt4moveIRSt4pairINSt7__cxx1112basic_stringIcSt11char_traitsIcESaIcEEEiEEONSt16remove_referenceIT_E4typeEOSA_
	mov	x1, x0
	add	x0, sp, 64
	bl	_ZNSt4pairINSt7__cxx1112basic_stringIcSt11char_traitsIcESaIcEEEiEC1EOS6_
	add	x0, sp, 56
	bl	_ZNK9__gnu_cxx17__normal_iteratorIPSt4pairINSt7__cxx1112basic_stringIcSt11char_traitsIcESaIcEEEiESt6vectorIS8_SaIS8_EEEdeEv
	bl	_ZSt4moveIRSt4pairINSt7__cxx1112basic_stringIcSt11char_traitsIcESaIcEEEiEEONSt16remove_referenceIT_E4typeEOSA_
	mov	x19, x0
	add	x0, sp, 40
	bl	_ZNK9__gnu_cxx17__normal_iteratorIPSt4pairINSt7__cxx1112basic_stringIcSt11char_traitsIcESaIcEEEiESt6vectorIS8_SaIS8_EEEdeEv
	mov	x1, x19
	bl	_ZNSt4pairINSt7__cxx1112basic_stringIcSt11char_traitsIcESaIcEEEiEaSEOS6_
	add	x1, sp, 56
	add	x0, sp, 48
	bl	_ZN9__gnu_cxxmiIPSt4pairINSt7__cxx1112basic_stringIcSt11char_traitsIcESaIcEEEiESt6vectorIS8_SaIS8_EEEENS_17__normal_iteratorIT_T0_E15difference_typeERKSG_SJ_
	mov	x19, x0
	add	x0, sp, 64
	bl	_ZSt4moveIRSt4pairINSt7__cxx1112basic_stringIcSt11char_traitsIcESaIcEEEiEEONSt16remove_referenceIT_E4typeEOSA_
	mov	x1, x0
	add	x0, sp, 104
	bl	_ZNSt4pairINSt7__cxx1112basic_stringIcSt11char_traitsIcESaIcEEEiEC1EOS6_
	ldr	x0, [sp, 32]
	add	x1, sp, 104
	ldr	x4, [x0]
	mov	x3, x1
	mov	x2, x19
	mov	x1, 0
	ldr	x0, [sp, 56]
.LEHB22:
	bl	_ZSt13__adjust_heapIN9__gnu_cxx17__normal_iteratorIPSt4pairINSt7__cxx1112basic_stringIcSt11char_traitsIcESaIcEEEiESt6vectorIS9_SaIS9_EEEElS9_NS0_5__ops15_Iter_comp_iterIPFbRS9_SH_EEEEvT_T0_SM_T1_T2_
.LEHE22:
	add	x0, sp, 104
	bl	_ZNSt4pairINSt7__cxx1112basic_stringIcSt11char_traitsIcESaIcEEEiED1Ev
	add	x0, sp, 64
	bl	_ZNSt4pairINSt7__cxx1112basic_stringIcSt11char_traitsIcESaIcEEEiED1Ev
	b	.L429
.L428:
	mov	x19, x0
	add	x0, sp, 104
	bl	_ZNSt4pairINSt7__cxx1112basic_stringIcSt11char_traitsIcESaIcEEEiED1Ev
	add	x0, sp, 64
	bl	_ZNSt4pairINSt7__cxx1112basic_stringIcSt11char_traitsIcESaIcEEEiED1Ev
	mov	x0, x19
.LEHB23:
	bl	_Unwind_Resume
.LEHE23:
.L429:
	ldr	x19, [sp, 16]
	ldp	x29, x30, [sp], 144
	.cfi_restore 30
	.cfi_restore 29
	.cfi_restore 19
	.cfi_def_cfa_offset 0
	ret
	.cfi_endproc
.LFE11530:
	.section	.gcc_except_table
.LLSDA11530:
	.byte	0xff
	.byte	0xff
	.byte	0x1
	.uleb128 .LLSDACSE11530-.LLSDACSB11530
.LLSDACSB11530:
	.uleb128 .LEHB22-.LFB11530
	.uleb128 .LEHE22-.LEHB22
	.uleb128 .L428-.LFB11530
	.uleb128 0
	.uleb128 .LEHB23-.LFB11530
	.uleb128 .LEHE23-.LEHB23
	.uleb128 0
	.uleb128 0
.LLSDACSE11530:
	.section	.text._ZSt10__pop_heapIN9__gnu_cxx17__normal_iteratorIPSt4pairINSt7__cxx1112basic_stringIcSt11char_traitsIcESaIcEEEiESt6vectorIS9_SaIS9_EEEENS0_5__ops15_Iter_comp_iterIPFbRS9_SH_EEEEvT_SL_SL_RT0_,"axG",@progbits,_ZSt10__pop_heapIN9__gnu_cxx17__normal_iteratorIPSt4pairINSt7__cxx1112basic_stringIcSt11char_traitsIcESaIcEEEiESt6vectorIS9_SaIS9_EEEENS0_5__ops15_Iter_comp_iterIPFbRS9_SH_EEEEvT_SL_SL_RT0_,comdat
	.size	_ZSt10__pop_heapIN9__gnu_cxx17__normal_iteratorIPSt4pairINSt7__cxx1112basic_stringIcSt11char_traitsIcESaIcEEEiESt6vectorIS9_SaIS9_EEEENS0_5__ops15_Iter_comp_iterIPFbRS9_SH_EEEEvT_SL_SL_RT0_, .-_ZSt10__pop_heapIN9__gnu_cxx17__normal_iteratorIPSt4pairINSt7__cxx1112basic_stringIcSt11char_traitsIcESaIcEEEiESt6vectorIS9_SaIS9_EEEENS0_5__ops15_Iter_comp_iterIPFbRS9_SH_EEEEvT_SL_SL_RT0_
	.section	.text._ZN9__gnu_cxx17__normal_iteratorIPSt4pairINSt7__cxx1112basic_stringIcSt11char_traitsIcESaIcEEEiESt6vectorIS8_SaIS8_EEEmmEv,"axG",@progbits,_ZN9__gnu_cxx17__normal_iteratorIPSt4pairINSt7__cxx1112basic_stringIcSt11char_traitsIcESaIcEEEiESt6vectorIS8_SaIS8_EEEmmEv,comdat
	.align	2
	.weak	_ZN9__gnu_cxx17__normal_iteratorIPSt4pairINSt7__cxx1112basic_stringIcSt11char_traitsIcESaIcEEEiESt6vectorIS8_SaIS8_EEEmmEv
	.type	_ZN9__gnu_cxx17__normal_iteratorIPSt4pairINSt7__cxx1112basic_stringIcSt11char_traitsIcESaIcEEEiESt6vectorIS8_SaIS8_EEEmmEv, %function
_ZN9__gnu_cxx17__normal_iteratorIPSt4pairINSt7__cxx1112basic_stringIcSt11char_traitsIcESaIcEEEiESt6vectorIS8_SaIS8_EEEmmEv:
.LFB11531:
	.cfi_startproc
	sub	sp, sp, #16
	.cfi_def_cfa_offset 16
	str	x0, [sp, 8]
	ldr	x0, [sp, 8]
	ldr	x0, [x0]
	sub	x1, x0, #40
	ldr	x0, [sp, 8]
	str	x1, [x0]
	ldr	x0, [sp, 8]
	add	sp, sp, 16
	.cfi_def_cfa_offset 0
	ret
	.cfi_endproc
.LFE11531:
	.size	_ZN9__gnu_cxx17__normal_iteratorIPSt4pairINSt7__cxx1112basic_stringIcSt11char_traitsIcESaIcEEEiESt6vectorIS8_SaIS8_EEEmmEv, .-_ZN9__gnu_cxx17__normal_iteratorIPSt4pairINSt7__cxx1112basic_stringIcSt11char_traitsIcESaIcEEEiESt6vectorIS8_SaIS8_EEEmmEv
	.section	.text._ZSt9iter_swapIN9__gnu_cxx17__normal_iteratorIPSt4pairINSt7__cxx1112basic_stringIcSt11char_traitsIcESaIcEEEiESt6vectorIS9_SaIS9_EEEESE_EvT_T0_,"axG",@progbits,_ZSt9iter_swapIN9__gnu_cxx17__normal_iteratorIPSt4pairINSt7__cxx1112basic_stringIcSt11char_traitsIcESaIcEEEiESt6vectorIS9_SaIS9_EEEESE_EvT_T0_,comdat
	.align	2
	.weak	_ZSt9iter_swapIN9__gnu_cxx17__normal_iteratorIPSt4pairINSt7__cxx1112basic_stringIcSt11char_traitsIcESaIcEEEiESt6vectorIS9_SaIS9_EEEESE_EvT_T0_
	.type	_ZSt9iter_swapIN9__gnu_cxx17__normal_iteratorIPSt4pairINSt7__cxx1112basic_stringIcSt11char_traitsIcESaIcEEEiESt6vectorIS9_SaIS9_EEEESE_EvT_T0_, %function
_ZSt9iter_swapIN9__gnu_cxx17__normal_iteratorIPSt4pairINSt7__cxx1112basic_stringIcSt11char_traitsIcESaIcEEEiESt6vectorIS9_SaIS9_EEEESE_EvT_T0_:
.LFB11532:
	.cfi_startproc
	stp	x29, x30, [sp, -48]!
	.cfi_def_cfa_offset 48
	.cfi_offset 29, -48
	.cfi_offset 30, -40
	mov	x29, sp
	str	x19, [sp, 16]
	.cfi_offset 19, -32
	str	x0, [sp, 40]
	str	x1, [sp, 32]
	add	x0, sp, 40
	bl	_ZNK9__gnu_cxx17__normal_iteratorIPSt4pairINSt7__cxx1112basic_stringIcSt11char_traitsIcESaIcEEEiESt6vectorIS8_SaIS8_EEEdeEv
	mov	x19, x0
	add	x0, sp, 32
	bl	_ZNK9__gnu_cxx17__normal_iteratorIPSt4pairINSt7__cxx1112basic_stringIcSt11char_traitsIcESaIcEEEiESt6vectorIS8_SaIS8_EEEdeEv
	mov	x1, x0
	mov	x0, x19
	bl	_ZSt4swapINSt7__cxx1112basic_stringIcSt11char_traitsIcESaIcEEEiENSt9enable_ifIXsrSt6__and_IJSt14__is_swappableIT_ES8_IT0_EEE5valueEvE4typeERSt4pairIS9_SB_ESI_
	nop
	ldr	x19, [sp, 16]
	ldp	x29, x30, [sp], 48
	.cfi_restore 30
	.cfi_restore 29
	.cfi_restore 19
	.cfi_def_cfa_offset 0
	ret
	.cfi_endproc
.LFE11532:
	.size	_ZSt9iter_swapIN9__gnu_cxx17__normal_iteratorIPSt4pairINSt7__cxx1112basic_stringIcSt11char_traitsIcESaIcEEEiESt6vectorIS9_SaIS9_EEEESE_EvT_T0_, .-_ZSt9iter_swapIN9__gnu_cxx17__normal_iteratorIPSt4pairINSt7__cxx1112basic_stringIcSt11char_traitsIcESaIcEEEiESt6vectorIS9_SaIS9_EEEESE_EvT_T0_
	.section	.text._ZSt12__miter_baseIN9__gnu_cxx17__normal_iteratorIPSt4pairINSt7__cxx1112basic_stringIcSt11char_traitsIcESaIcEEEiESt6vectorIS9_SaIS9_EEEEET_SF_,"axG",@progbits,_ZSt12__miter_baseIN9__gnu_cxx17__normal_iteratorIPSt4pairINSt7__cxx1112basic_stringIcSt11char_traitsIcESaIcEEEiESt6vectorIS9_SaIS9_EEEEET_SF_,comdat
	.align	2
	.weak	_ZSt12__miter_baseIN9__gnu_cxx17__normal_iteratorIPSt4pairINSt7__cxx1112basic_stringIcSt11char_traitsIcESaIcEEEiESt6vectorIS9_SaIS9_EEEEET_SF_
	.type	_ZSt12__miter_baseIN9__gnu_cxx17__normal_iteratorIPSt4pairINSt7__cxx1112basic_stringIcSt11char_traitsIcESaIcEEEiESt6vectorIS9_SaIS9_EEEEET_SF_, %function
_ZSt12__miter_baseIN9__gnu_cxx17__normal_iteratorIPSt4pairINSt7__cxx1112basic_stringIcSt11char_traitsIcESaIcEEEiESt6vectorIS9_SaIS9_EEEEET_SF_:
.LFB11533:
	.cfi_startproc
	sub	sp, sp, #16
	.cfi_def_cfa_offset 16
	str	x0, [sp, 8]
	ldr	x0, [sp, 8]
	add	sp, sp, 16
	.cfi_def_cfa_offset 0
	ret
	.cfi_endproc
.LFE11533:
	.size	_ZSt12__miter_baseIN9__gnu_cxx17__normal_iteratorIPSt4pairINSt7__cxx1112basic_stringIcSt11char_traitsIcESaIcEEEiESt6vectorIS9_SaIS9_EEEEET_SF_, .-_ZSt12__miter_baseIN9__gnu_cxx17__normal_iteratorIPSt4pairINSt7__cxx1112basic_stringIcSt11char_traitsIcESaIcEEEiESt6vectorIS9_SaIS9_EEEEET_SF_
	.section	.text._ZSt22__copy_move_backward_aILb1EN9__gnu_cxx17__normal_iteratorIPSt4pairINSt7__cxx1112basic_stringIcSt11char_traitsIcESaIcEEEiESt6vectorIS9_SaIS9_EEEESE_ET1_T0_SG_SF_,"axG",@progbits,_ZSt22__copy_move_backward_aILb1EN9__gnu_cxx17__normal_iteratorIPSt4pairINSt7__cxx1112basic_stringIcSt11char_traitsIcESaIcEEEiESt6vectorIS9_SaIS9_EEEESE_ET1_T0_SG_SF_,comdat
	.align	2
	.weak	_ZSt22__copy_move_backward_aILb1EN9__gnu_cxx17__normal_iteratorIPSt4pairINSt7__cxx1112basic_stringIcSt11char_traitsIcESaIcEEEiESt6vectorIS9_SaIS9_EEEESE_ET1_T0_SG_SF_
	.type	_ZSt22__copy_move_backward_aILb1EN9__gnu_cxx17__normal_iteratorIPSt4pairINSt7__cxx1112basic_stringIcSt11char_traitsIcESaIcEEEiESt6vectorIS9_SaIS9_EEEESE_ET1_T0_SG_SF_, %function
_ZSt22__copy_move_backward_aILb1EN9__gnu_cxx17__normal_iteratorIPSt4pairINSt7__cxx1112basic_stringIcSt11char_traitsIcESaIcEEEiESt6vectorIS9_SaIS9_EEEESE_ET1_T0_SG_SF_:
.LFB11534:
	.cfi_startproc
	stp	x29, x30, [sp, -64]!
	.cfi_def_cfa_offset 64
	.cfi_offset 29, -64
	.cfi_offset 30, -56
	mov	x29, sp
	stp	x19, x20, [sp, 16]
	.cfi_offset 19, -48
	.cfi_offset 20, -40
	str	x0, [sp, 56]
	str	x1, [sp, 48]
	str	x2, [sp, 40]
	ldr	x0, [sp, 56]
	bl	_ZSt12__niter_baseIPSt4pairINSt7__cxx1112basic_stringIcSt11char_traitsIcESaIcEEEiESt6vectorIS7_SaIS7_EEET_N9__gnu_cxx17__normal_iteratorISC_T0_EE
	mov	x19, x0
	ldr	x0, [sp, 48]
	bl	_ZSt12__niter_baseIPSt4pairINSt7__cxx1112basic_stringIcSt11char_traitsIcESaIcEEEiESt6vectorIS7_SaIS7_EEET_N9__gnu_cxx17__normal_iteratorISC_T0_EE
	mov	x20, x0
	ldr	x0, [sp, 40]
	bl	_ZSt12__niter_baseIPSt4pairINSt7__cxx1112basic_stringIcSt11char_traitsIcESaIcEEEiESt6vectorIS7_SaIS7_EEET_N9__gnu_cxx17__normal_iteratorISC_T0_EE
	mov	x2, x0
	mov	x1, x20
	mov	x0, x19
	bl	_ZSt23__copy_move_backward_a1ILb1EPSt4pairINSt7__cxx1112basic_stringIcSt11char_traitsIcESaIcEEEiES8_ET1_T0_SA_S9_
	mov	x1, x0
	ldr	x0, [sp, 40]
	bl	_ZSt12__niter_wrapIN9__gnu_cxx17__normal_iteratorIPSt4pairINSt7__cxx1112basic_stringIcSt11char_traitsIcESaIcEEEiESt6vectorIS9_SaIS9_EEEESA_ET_SF_T0_
	ldp	x19, x20, [sp, 16]
	ldp	x29, x30, [sp], 64
	.cfi_restore 30
	.cfi_restore 29
	.cfi_restore 19
	.cfi_restore 20
	.cfi_def_cfa_offset 0
	ret
	.cfi_endproc
.LFE11534:
	.size	_ZSt22__copy_move_backward_aILb1EN9__gnu_cxx17__normal_iteratorIPSt4pairINSt7__cxx1112basic_stringIcSt11char_traitsIcESaIcEEEiESt6vectorIS9_SaIS9_EEEESE_ET1_T0_SG_SF_, .-_ZSt22__copy_move_backward_aILb1EN9__gnu_cxx17__normal_iteratorIPSt4pairINSt7__cxx1112basic_stringIcSt11char_traitsIcESaIcEEEiESt6vectorIS9_SaIS9_EEEESE_ET1_T0_SG_SF_
	.section	.text._ZSt7forwardINSt7__cxx1112basic_stringIcSt11char_traitsIcESaIcEEEEOT_RNSt16remove_referenceIS6_E4typeE,"axG",@progbits,_ZSt7forwardINSt7__cxx1112basic_stringIcSt11char_traitsIcESaIcEEEEOT_RNSt16remove_referenceIS6_E4typeE,comdat
	.align	2
	.weak	_ZSt7forwardINSt7__cxx1112basic_stringIcSt11char_traitsIcESaIcEEEEOT_RNSt16remove_referenceIS6_E4typeE
	.type	_ZSt7forwardINSt7__cxx1112basic_stringIcSt11char_traitsIcESaIcEEEEOT_RNSt16remove_referenceIS6_E4typeE, %function
_ZSt7forwardINSt7__cxx1112basic_stringIcSt11char_traitsIcESaIcEEEEOT_RNSt16remove_referenceIS6_E4typeE:
.LFB11536:
	.cfi_startproc
	sub	sp, sp, #16
	.cfi_def_cfa_offset 16
	str	x0, [sp, 8]
	ldr	x0, [sp, 8]
	add	sp, sp, 16
	.cfi_def_cfa_offset 0
	ret
	.cfi_endproc
.LFE11536:
	.size	_ZSt7forwardINSt7__cxx1112basic_stringIcSt11char_traitsIcESaIcEEEEOT_RNSt16remove_referenceIS6_E4typeE, .-_ZSt7forwardINSt7__cxx1112basic_stringIcSt11char_traitsIcESaIcEEEEOT_RNSt16remove_referenceIS6_E4typeE
	.section	.text._ZSt4moveIRN9__gnu_cxx5__ops15_Iter_comp_iterIPFbRSt4pairINSt7__cxx1112basic_stringIcSt11char_traitsIcESaIcEEEiESB_EEEEONSt16remove_referenceIT_E4typeEOSH_,"axG",@progbits,_ZSt4moveIRN9__gnu_cxx5__ops15_Iter_comp_iterIPFbRSt4pairINSt7__cxx1112basic_stringIcSt11char_traitsIcESaIcEEEiESB_EEEEONSt16remove_referenceIT_E4typeEOSH_,comdat
	.align	2
	.weak	_ZSt4moveIRN9__gnu_cxx5__ops15_Iter_comp_iterIPFbRSt4pairINSt7__cxx1112basic_stringIcSt11char_traitsIcESaIcEEEiESB_EEEEONSt16remove_referenceIT_E4typeEOSH_
	.type	_ZSt4moveIRN9__gnu_cxx5__ops15_Iter_comp_iterIPFbRSt4pairINSt7__cxx1112basic_stringIcSt11char_traitsIcESaIcEEEiESB_EEEEONSt16remove_referenceIT_E4typeEOSH_, %function
_ZSt4moveIRN9__gnu_cxx5__ops15_Iter_comp_iterIPFbRSt4pairINSt7__cxx1112basic_stringIcSt11char_traitsIcESaIcEEEiESB_EEEEONSt16remove_referenceIT_E4typeEOSH_:
.LFB11537:
	.cfi_startproc
	sub	sp, sp, #16
	.cfi_def_cfa_offset 16
	str	x0, [sp, 8]
	ldr	x0, [sp, 8]
	add	sp, sp, 16
	.cfi_def_cfa_offset 0
	ret
	.cfi_endproc
.LFE11537:
	.size	_ZSt4moveIRN9__gnu_cxx5__ops15_Iter_comp_iterIPFbRSt4pairINSt7__cxx1112basic_stringIcSt11char_traitsIcESaIcEEEiESB_EEEEONSt16remove_referenceIT_E4typeEOSH_, .-_ZSt4moveIRN9__gnu_cxx5__ops15_Iter_comp_iterIPFbRSt4pairINSt7__cxx1112basic_stringIcSt11char_traitsIcESaIcEEEiESB_EEEEONSt16remove_referenceIT_E4typeEOSH_
	.section	.text._ZN9__gnu_cxx5__ops14_Val_comp_iterIPFbRSt4pairINSt7__cxx1112basic_stringIcSt11char_traitsIcESaIcEEEiESA_EEC2EONS0_15_Iter_comp_iterISC_EE,"axG",@progbits,_ZN9__gnu_cxx5__ops14_Val_comp_iterIPFbRSt4pairINSt7__cxx1112basic_stringIcSt11char_traitsIcESaIcEEEiESA_EEC5EONS0_15_Iter_comp_iterISC_EE,comdat
	.align	2
	.weak	_ZN9__gnu_cxx5__ops14_Val_comp_iterIPFbRSt4pairINSt7__cxx1112basic_stringIcSt11char_traitsIcESaIcEEEiESA_EEC2EONS0_15_Iter_comp_iterISC_EE
	.type	_ZN9__gnu_cxx5__ops14_Val_comp_iterIPFbRSt4pairINSt7__cxx1112basic_stringIcSt11char_traitsIcESaIcEEEiESA_EEC2EONS0_15_Iter_comp_iterISC_EE, %function
_ZN9__gnu_cxx5__ops14_Val_comp_iterIPFbRSt4pairINSt7__cxx1112basic_stringIcSt11char_traitsIcESaIcEEEiESA_EEC2EONS0_15_Iter_comp_iterISC_EE:
.LFB11539:
	.cfi_startproc
	stp	x29, x30, [sp, -32]!
	.cfi_def_cfa_offset 32
	.cfi_offset 29, -32
	.cfi_offset 30, -24
	mov	x29, sp
	str	x0, [sp, 24]
	str	x1, [sp, 16]
	ldr	x0, [sp, 16]
	bl	_ZSt4moveIRPFbRSt4pairINSt7__cxx1112basic_stringIcSt11char_traitsIcESaIcEEEiES8_EEONSt16remove_referenceIT_E4typeEOSD_
	ldr	x1, [x0]
	ldr	x0, [sp, 24]
	str	x1, [x0]
	nop
	ldp	x29, x30, [sp], 32
	.cfi_restore 30
	.cfi_restore 29
	.cfi_def_cfa_offset 0
	ret
	.cfi_endproc
.LFE11539:
	.size	_ZN9__gnu_cxx5__ops14_Val_comp_iterIPFbRSt4pairINSt7__cxx1112basic_stringIcSt11char_traitsIcESaIcEEEiESA_EEC2EONS0_15_Iter_comp_iterISC_EE, .-_ZN9__gnu_cxx5__ops14_Val_comp_iterIPFbRSt4pairINSt7__cxx1112basic_stringIcSt11char_traitsIcESaIcEEEiESA_EEC2EONS0_15_Iter_comp_iterISC_EE
	.weak	_ZN9__gnu_cxx5__ops14_Val_comp_iterIPFbRSt4pairINSt7__cxx1112basic_stringIcSt11char_traitsIcESaIcEEEiESA_EEC1EONS0_15_Iter_comp_iterISC_EE
	.set	_ZN9__gnu_cxx5__ops14_Val_comp_iterIPFbRSt4pairINSt7__cxx1112basic_stringIcSt11char_traitsIcESaIcEEEiESA_EEC1EONS0_15_Iter_comp_iterISC_EE,_ZN9__gnu_cxx5__ops14_Val_comp_iterIPFbRSt4pairINSt7__cxx1112basic_stringIcSt11char_traitsIcESaIcEEEiESA_EEC2EONS0_15_Iter_comp_iterISC_EE
	.section	.text._ZN9__gnu_cxx5__ops14_Val_comp_iterIPFbRSt4pairINSt7__cxx1112basic_stringIcSt11char_traitsIcESaIcEEEiESA_EEclIS9_NS_17__normal_iteratorIPS9_St6vectorIS9_SaIS9_EEEEEEbRT_T0_,"axG",@progbits,_ZN9__gnu_cxx5__ops14_Val_comp_iterIPFbRSt4pairINSt7__cxx1112basic_stringIcSt11char_traitsIcESaIcEEEiESA_EEclIS9_NS_17__normal_iteratorIPS9_St6vectorIS9_SaIS9_EEEEEEbRT_T0_,comdat
	.align	2
	.weak	_ZN9__gnu_cxx5__ops14_Val_comp_iterIPFbRSt4pairINSt7__cxx1112basic_stringIcSt11char_traitsIcESaIcEEEiESA_EEclIS9_NS_17__normal_iteratorIPS9_St6vectorIS9_SaIS9_EEEEEEbRT_T0_
	.type	_ZN9__gnu_cxx5__ops14_Val_comp_iterIPFbRSt4pairINSt7__cxx1112basic_stringIcSt11char_traitsIcESaIcEEEiESA_EEclIS9_NS_17__normal_iteratorIPS9_St6vectorIS9_SaIS9_EEEEEEbRT_T0_, %function
_ZN9__gnu_cxx5__ops14_Val_comp_iterIPFbRSt4pairINSt7__cxx1112basic_stringIcSt11char_traitsIcESaIcEEEiESA_EEclIS9_NS_17__normal_iteratorIPS9_St6vectorIS9_SaIS9_EEEEEEbRT_T0_:
.LFB11541:
	.cfi_startproc
	stp	x29, x30, [sp, -64]!
	.cfi_def_cfa_offset 64
	.cfi_offset 29, -64
	.cfi_offset 30, -56
	mov	x29, sp
	str	x19, [sp, 16]
	.cfi_offset 19, -48
	str	x0, [sp, 56]
	str	x1, [sp, 48]
	str	x2, [sp, 40]
	ldr	x0, [sp, 56]
	ldr	x19, [x0]
	add	x0, sp, 40
	bl	_ZNK9__gnu_cxx17__normal_iteratorIPSt4pairINSt7__cxx1112basic_stringIcSt11char_traitsIcESaIcEEEiESt6vectorIS8_SaIS8_EEEdeEv
	mov	x1, x0
	ldr	x0, [sp, 48]
	blr	x19
	and	w0, w0, 255
	ldr	x19, [sp, 16]
	ldp	x29, x30, [sp], 64
	.cfi_restore 30
	.cfi_restore 29
	.cfi_restore 19
	.cfi_def_cfa_offset 0
	ret
	.cfi_endproc
.LFE11541:
	.size	_ZN9__gnu_cxx5__ops14_Val_comp_iterIPFbRSt4pairINSt7__cxx1112basic_stringIcSt11char_traitsIcESaIcEEEiESA_EEclIS9_NS_17__normal_iteratorIPS9_St6vectorIS9_SaIS9_EEEEEEbRT_T0_, .-_ZN9__gnu_cxx5__ops14_Val_comp_iterIPFbRSt4pairINSt7__cxx1112basic_stringIcSt11char_traitsIcESaIcEEEiESA_EEclIS9_NS_17__normal_iteratorIPS9_St6vectorIS9_SaIS9_EEEEEEbRT_T0_
	.section	.text._ZNSt16allocator_traitsISaIxEE8max_sizeERKS0_,"axG",@progbits,_ZNSt16allocator_traitsISaIxEE8max_sizeERKS0_,comdat
	.align	2
	.weak	_ZNSt16allocator_traitsISaIxEE8max_sizeERKS0_
	.type	_ZNSt16allocator_traitsISaIxEE8max_sizeERKS0_, %function
_ZNSt16allocator_traitsISaIxEE8max_sizeERKS0_:
.LFB11609:
	.cfi_startproc
	stp	x29, x30, [sp, -32]!
	.cfi_def_cfa_offset 32
	.cfi_offset 29, -32
	.cfi_offset 30, -24
	mov	x29, sp
	str	x0, [sp, 24]
	ldr	x0, [sp, 24]
	bl	_ZNK9__gnu_cxx13new_allocatorIxE8max_sizeEv
	ldp	x29, x30, [sp], 32
	.cfi_restore 30
	.cfi_restore 29
	.cfi_def_cfa_offset 0
	ret
	.cfi_endproc
.LFE11609:
	.size	_ZNSt16allocator_traitsISaIxEE8max_sizeERKS0_, .-_ZNSt16allocator_traitsISaIxEE8max_sizeERKS0_
	.section	.text._ZSt12__niter_baseIPxET_S1_,"axG",@progbits,_ZSt12__niter_baseIPxET_S1_,comdat
	.align	2
	.weak	_ZSt12__niter_baseIPxET_S1_
	.type	_ZSt12__niter_baseIPxET_S1_, %function
_ZSt12__niter_baseIPxET_S1_:
.LFB11610:
	.cfi_startproc
	sub	sp, sp, #16
	.cfi_def_cfa_offset 16
	str	x0, [sp, 8]
	ldr	x0, [sp, 8]
	add	sp, sp, 16
	.cfi_def_cfa_offset 0
	ret
	.cfi_endproc
.LFE11610:
	.size	_ZSt12__niter_baseIPxET_S1_, .-_ZSt12__niter_baseIPxET_S1_
	.section	.text._ZSt14__relocate_a_1IxxENSt9enable_ifIXsrSt24__is_bitwise_relocatableIT_vE5valueEPS2_E4typeES4_S4_S4_RSaIT0_E,"axG",@progbits,_ZSt14__relocate_a_1IxxENSt9enable_ifIXsrSt24__is_bitwise_relocatableIT_vE5valueEPS2_E4typeES4_S4_S4_RSaIT0_E,comdat
	.align	2
	.weak	_ZSt14__relocate_a_1IxxENSt9enable_ifIXsrSt24__is_bitwise_relocatableIT_vE5valueEPS2_E4typeES4_S4_S4_RSaIT0_E
	.type	_ZSt14__relocate_a_1IxxENSt9enable_ifIXsrSt24__is_bitwise_relocatableIT_vE5valueEPS2_E4typeES4_S4_S4_RSaIT0_E, %function
_ZSt14__relocate_a_1IxxENSt9enable_ifIXsrSt24__is_bitwise_relocatableIT_vE5valueEPS2_E4typeES4_S4_S4_RSaIT0_E:
.LFB11611:
	.cfi_startproc
	stp	x29, x30, [sp, -64]!
	.cfi_def_cfa_offset 64
	.cfi_offset 29, -64
	.cfi_offset 30, -56
	mov	x29, sp
	str	x0, [sp, 40]
	str	x1, [sp, 32]
	str	x2, [sp, 24]
	str	x3, [sp, 16]
	ldr	x1, [sp, 32]
	ldr	x0, [sp, 40]
	sub	x0, x1, x0
	asr	x0, x0, 3
	str	x0, [sp, 56]
	ldr	x0, [sp, 56]
	cmp	x0, 0
	ble	.L449
	ldr	x0, [sp, 56]
	lsl	x0, x0, 3
	mov	x2, x0
	ldr	x1, [sp, 40]
	ldr	x0, [sp, 24]
	bl	memmove
.L449:
	ldr	x0, [sp, 56]
	lsl	x0, x0, 3
	ldr	x1, [sp, 24]
	add	x0, x1, x0
	ldp	x29, x30, [sp], 64
	.cfi_restore 30
	.cfi_restore 29
	.cfi_def_cfa_offset 0
	ret
	.cfi_endproc
.LFE11611:
	.size	_ZSt14__relocate_a_1IxxENSt9enable_ifIXsrSt24__is_bitwise_relocatableIT_vE5valueEPS2_E4typeES4_S4_S4_RSaIT0_E, .-_ZSt14__relocate_a_1IxxENSt9enable_ifIXsrSt24__is_bitwise_relocatableIT_vE5valueEPS2_E4typeES4_S4_S4_RSaIT0_E
	.section	.text._ZNSt4pairINSt7__cxx1112basic_stringIcSt11char_traitsIcESaIcEEEiEC2IS5_iLb1EEEv,"axG",@progbits,_ZNSt4pairINSt7__cxx1112basic_stringIcSt11char_traitsIcESaIcEEEiEC5IS5_iLb1EEEv,comdat
	.align	2
	.weak	_ZNSt4pairINSt7__cxx1112basic_stringIcSt11char_traitsIcESaIcEEEiEC2IS5_iLb1EEEv
	.type	_ZNSt4pairINSt7__cxx1112basic_stringIcSt11char_traitsIcESaIcEEEiEC2IS5_iLb1EEEv, %function
_ZNSt4pairINSt7__cxx1112basic_stringIcSt11char_traitsIcESaIcEEEiEC2IS5_iLb1EEEv:
.LFB11613:
	.cfi_startproc
	stp	x29, x30, [sp, -32]!
	.cfi_def_cfa_offset 32
	.cfi_offset 29, -32
	.cfi_offset 30, -24
	mov	x29, sp
	str	x0, [sp, 24]
	ldr	x0, [sp, 24]
	bl	_ZNSt7__cxx1112basic_stringIcSt11char_traitsIcESaIcEEC1Ev
	ldr	x0, [sp, 24]
	str	wzr, [x0, 32]
	nop
	ldp	x29, x30, [sp], 32
	.cfi_restore 30
	.cfi_restore 29
	.cfi_def_cfa_offset 0
	ret
	.cfi_endproc
.LFE11613:
	.size	_ZNSt4pairINSt7__cxx1112basic_stringIcSt11char_traitsIcESaIcEEEiEC2IS5_iLb1EEEv, .-_ZNSt4pairINSt7__cxx1112basic_stringIcSt11char_traitsIcESaIcEEEiEC2IS5_iLb1EEEv
	.weak	_ZNSt4pairINSt7__cxx1112basic_stringIcSt11char_traitsIcESaIcEEEiEC1IS5_iLb1EEEv
	.set	_ZNSt4pairINSt7__cxx1112basic_stringIcSt11char_traitsIcESaIcEEEiEC1IS5_iLb1EEEv,_ZNSt4pairINSt7__cxx1112basic_stringIcSt11char_traitsIcESaIcEEEiEC2IS5_iLb1EEEv
	.section	.text._ZSt13__adjust_heapIN9__gnu_cxx17__normal_iteratorIPSt4pairINSt7__cxx1112basic_stringIcSt11char_traitsIcESaIcEEEiESt6vectorIS9_SaIS9_EEEElS9_NS0_5__ops15_Iter_comp_iterIPFbRS9_SH_EEEEvT_T0_SM_T1_T2_,"axG",@progbits,_ZSt13__adjust_heapIN9__gnu_cxx17__normal_iteratorIPSt4pairINSt7__cxx1112basic_stringIcSt11char_traitsIcESaIcEEEiESt6vectorIS9_SaIS9_EEEElS9_NS0_5__ops15_Iter_comp_iterIPFbRS9_SH_EEEEvT_T0_SM_T1_T2_,comdat
	.align	2
	.weak	_ZSt13__adjust_heapIN9__gnu_cxx17__normal_iteratorIPSt4pairINSt7__cxx1112basic_stringIcSt11char_traitsIcESaIcEEEiESt6vectorIS9_SaIS9_EEEElS9_NS0_5__ops15_Iter_comp_iterIPFbRS9_SH_EEEEvT_T0_SM_T1_T2_
	.type	_ZSt13__adjust_heapIN9__gnu_cxx17__normal_iteratorIPSt4pairINSt7__cxx1112basic_stringIcSt11char_traitsIcESaIcEEEiESt6vectorIS9_SaIS9_EEEElS9_NS0_5__ops15_Iter_comp_iterIPFbRS9_SH_EEEEvT_T0_SM_T1_T2_, %function
_ZSt13__adjust_heapIN9__gnu_cxx17__normal_iteratorIPSt4pairINSt7__cxx1112basic_stringIcSt11char_traitsIcESaIcEEEiESt6vectorIS9_SaIS9_EEEElS9_NS0_5__ops15_Iter_comp_iterIPFbRS9_SH_EEEEvT_T0_SM_T1_T2_:
.LFB11615:
	.cfi_startproc
	.cfi_personality 0x9b,DW.ref.__gxx_personality_v0
	.cfi_lsda 0x1b,.LLSDA11615
	stp	x29, x30, [sp, -176]!
	.cfi_def_cfa_offset 176
	.cfi_offset 29, -176
	.cfi_offset 30, -168
	mov	x29, sp
	str	x19, [sp, 16]
	.cfi_offset 19, -160
	str	x0, [sp, 72]
	str	x1, [sp, 64]
	str	x2, [sp, 56]
	str	x3, [sp, 48]
	str	x4, [sp, 40]
	ldr	x0, [sp, 64]
	str	x0, [sp, 160]
	ldr	x0, [sp, 64]
	str	x0, [sp, 168]
	b	.L453
.L455:
	ldr	x0, [sp, 168]
	add	x0, x0, 1
	lsl	x0, x0, 1
	str	x0, [sp, 168]
	add	x0, sp, 72
	ldr	x1, [sp, 168]
	bl	_ZNK9__gnu_cxx17__normal_iteratorIPSt4pairINSt7__cxx1112basic_stringIcSt11char_traitsIcESaIcEEEiESt6vectorIS8_SaIS8_EEEplEl
	mov	x19, x0
	ldr	x0, [sp, 168]
	sub	x1, x0, #1
	add	x0, sp, 72
