	.file	"E_Tmr.cpp"
	.intel_syntax noprefix
	.text
	.section	.text._ZN9__gnu_cxx5__ops16__iter_less_iterEv,"axG",@progbits,_ZN9__gnu_cxx5__ops16__iter_less_iterEv,comdat
	.weak	_ZN9__gnu_cxx5__ops16__iter_less_iterEv
	.type	_ZN9__gnu_cxx5__ops16__iter_less_iterEv, @function
_ZN9__gnu_cxx5__ops16__iter_less_iterEv:
.LFB447:
	.cfi_startproc
	endbr64
	push	rbp
	.cfi_def_cfa_offset 16
	.cfi_offset 6, -16
	mov	rbp, rsp
	.cfi_def_cfa_register 6
	nop
	pop	rbp
	.cfi_def_cfa 7, 8
	ret
	.cfi_endproc
.LFE447:
	.size	_ZN9__gnu_cxx5__ops16__iter_less_iterEv, .-_ZN9__gnu_cxx5__ops16__iter_less_iterEv
	.section	.text._ZN9__gnu_cxx5__ops14_Iter_less_valC2ENS0_15_Iter_less_iterE,"axG",@progbits,_ZN9__gnu_cxx5__ops14_Iter_less_valC5ENS0_15_Iter_less_iterE,comdat
	.align 2
	.weak	_ZN9__gnu_cxx5__ops14_Iter_less_valC2ENS0_15_Iter_less_iterE
	.type	_ZN9__gnu_cxx5__ops14_Iter_less_valC2ENS0_15_Iter_less_iterE, @function
_ZN9__gnu_cxx5__ops14_Iter_less_valC2ENS0_15_Iter_less_iterE:
.LFB449:
	.cfi_startproc
	endbr64
	push	rbp
	.cfi_def_cfa_offset 16
	.cfi_offset 6, -16
	mov	rbp, rsp
	.cfi_def_cfa_register 6
	mov	QWORD PTR -8[rbp], rdi
	nop
	pop	rbp
	.cfi_def_cfa 7, 8
	ret
	.cfi_endproc
.LFE449:
	.size	_ZN9__gnu_cxx5__ops14_Iter_less_valC2ENS0_15_Iter_less_iterE, .-_ZN9__gnu_cxx5__ops14_Iter_less_valC2ENS0_15_Iter_less_iterE
	.weak	_ZN9__gnu_cxx5__ops14_Iter_less_valC1ENS0_15_Iter_less_iterE
	.set	_ZN9__gnu_cxx5__ops14_Iter_less_valC1ENS0_15_Iter_less_iterE,_ZN9__gnu_cxx5__ops14_Iter_less_valC2ENS0_15_Iter_less_iterE
	.section	.text._ZN9__gnu_cxx5__ops15__val_comp_iterENS0_15_Iter_less_iterE,"axG",@progbits,_ZN9__gnu_cxx5__ops15__val_comp_iterENS0_15_Iter_less_iterE,comdat
	.weak	_ZN9__gnu_cxx5__ops15__val_comp_iterENS0_15_Iter_less_iterE
	.type	_ZN9__gnu_cxx5__ops15__val_comp_iterENS0_15_Iter_less_iterE, @function
_ZN9__gnu_cxx5__ops15__val_comp_iterENS0_15_Iter_less_iterE:
.LFB459:
	.cfi_startproc
	endbr64
	push	rbp
	.cfi_def_cfa_offset 16
	.cfi_offset 6, -16
	mov	rbp, rsp
	.cfi_def_cfa_register 6
	nop
	pop	rbp
	.cfi_def_cfa 7, 8
	ret
	.cfi_endproc
.LFE459:
	.size	_ZN9__gnu_cxx5__ops15__val_comp_iterENS0_15_Iter_less_iterE, .-_ZN9__gnu_cxx5__ops15__val_comp_iterENS0_15_Iter_less_iterE
	.section	.text._ZSt4__lgl,"axG",@progbits,_ZSt4__lgl,comdat
	.weak	_ZSt4__lgl
	.type	_ZSt4__lgl, @function
_ZSt4__lgl:
.LFB572:
	.cfi_startproc
	endbr64
	push	rbp
	.cfi_def_cfa_offset 16
	.cfi_offset 6, -16
	mov	rbp, rsp
	.cfi_def_cfa_register 6
	mov	QWORD PTR -8[rbp], rdi
	mov	rax, QWORD PTR -8[rbp]
	bsr	rax, rax
	xor	rax, 63
	mov	edx, eax
	mov	eax, 63
	sub	eax, edx
	cdqe
	pop	rbp
	.cfi_def_cfa 7, 8
	ret
	.cfi_endproc
.LFE572:
	.size	_ZSt4__lgl, .-_ZSt4__lgl
	.section	.text._ZnwmPv,"axG",@progbits,_ZnwmPv,comdat
	.weak	_ZnwmPv
	.type	_ZnwmPv, @function
_ZnwmPv:
.LFB1007:
	.cfi_startproc
	endbr64
	push	rbp
	.cfi_def_cfa_offset 16
	.cfi_offset 6, -16
	mov	rbp, rsp
	.cfi_def_cfa_register 6
	mov	QWORD PTR -8[rbp], rdi
	mov	QWORD PTR -16[rbp], rsi
	mov	rax, QWORD PTR -16[rbp]
	pop	rbp
	.cfi_def_cfa 7, 8
	ret
	.cfi_endproc
.LFE1007:
	.size	_ZnwmPv, .-_ZnwmPv
	.section	.text._ZSt3minImERKT_S2_S2_,"axG",@progbits,_ZSt3minImERKT_S2_S2_,comdat
	.weak	_ZSt3minImERKT_S2_S2_
	.type	_ZSt3minImERKT_S2_S2_, @function
_ZSt3minImERKT_S2_S2_:
.LFB3255:
	.cfi_startproc
	endbr64
	push	rbp
	.cfi_def_cfa_offset 16
	.cfi_offset 6, -16
	mov	rbp, rsp
	.cfi_def_cfa_register 6
	mov	QWORD PTR -8[rbp], rdi
	mov	QWORD PTR -16[rbp], rsi
	mov	rax, QWORD PTR -16[rbp]
	mov	rdx, QWORD PTR [rax]
	mov	rax, QWORD PTR -8[rbp]
	mov	rax, QWORD PTR [rax]
	cmp	rdx, rax
	jnb	.L11
	mov	rax, QWORD PTR -16[rbp]
	jmp	.L12
.L11:
	mov	rax, QWORD PTR -8[rbp]
.L12:
	pop	rbp
	.cfi_def_cfa 7, 8
	ret
	.cfi_endproc
.LFE3255:
	.size	_ZSt3minImERKT_S2_S2_, .-_ZSt3minImERKT_S2_S2_
	.section	.rodata
	.type	_ZN6__pstl9execution2v1L3seqE, @object
	.size	_ZN6__pstl9execution2v1L3seqE, 1
_ZN6__pstl9execution2v1L3seqE:
	.zero	1
	.type	_ZN6__pstl9execution2v1L3parE, @object
	.size	_ZN6__pstl9execution2v1L3parE, 1
_ZN6__pstl9execution2v1L3parE:
	.zero	1
	.type	_ZN6__pstl9execution2v1L9par_unseqE, @object
	.size	_ZN6__pstl9execution2v1L9par_unseqE, 1
_ZN6__pstl9execution2v1L9par_unseqE:
	.zero	1
	.type	_ZN6__pstl9execution2v1L5unseqE, @object
	.size	_ZN6__pstl9execution2v1L5unseqE, 1
_ZN6__pstl9execution2v1L5unseqE:
	.zero	1
	.local	_ZStL8__ioinit
	.comm	_ZStL8__ioinit,1,1
	.align 4
	.type	_ZN9__gnu_cxxL21__default_lock_policyE, @object
	.size	_ZN9__gnu_cxxL21__default_lock_policyE, 4
_ZN9__gnu_cxxL21__default_lock_policyE:
	.long	2
	.align 4
	.type	_ZNSt15regex_constantsL13error_collateE, @object
	.size	_ZNSt15regex_constantsL13error_collateE, 4
_ZNSt15regex_constantsL13error_collateE:
	.zero	4
	.align 4
	.type	_ZNSt15regex_constantsL11error_ctypeE, @object
	.size	_ZNSt15regex_constantsL11error_ctypeE, 4
_ZNSt15regex_constantsL11error_ctypeE:
	.long	1
	.align 4
	.type	_ZNSt15regex_constantsL12error_escapeE, @object
	.size	_ZNSt15regex_constantsL12error_escapeE, 4
_ZNSt15regex_constantsL12error_escapeE:
	.long	2
	.align 4
	.type	_ZNSt15regex_constantsL13error_backrefE, @object
	.size	_ZNSt15regex_constantsL13error_backrefE, 4
_ZNSt15regex_constantsL13error_backrefE:
	.long	3
	.align 4
	.type	_ZNSt15regex_constantsL11error_brackE, @object
	.size	_ZNSt15regex_constantsL11error_brackE, 4
_ZNSt15regex_constantsL11error_brackE:
	.long	4
	.align 4
	.type	_ZNSt15regex_constantsL11error_parenE, @object
	.size	_ZNSt15regex_constantsL11error_parenE, 4
_ZNSt15regex_constantsL11error_parenE:
	.long	5
	.align 4
	.type	_ZNSt15regex_constantsL11error_braceE, @object
	.size	_ZNSt15regex_constantsL11error_braceE, 4
_ZNSt15regex_constantsL11error_braceE:
	.long	6
	.align 4
	.type	_ZNSt15regex_constantsL14error_badbraceE, @object
	.size	_ZNSt15regex_constantsL14error_badbraceE, 4
_ZNSt15regex_constantsL14error_badbraceE:
	.long	7
	.align 4
	.type	_ZNSt15regex_constantsL11error_rangeE, @object
	.size	_ZNSt15regex_constantsL11error_rangeE, 4
_ZNSt15regex_constantsL11error_rangeE:
	.long	8
	.align 4
	.type	_ZNSt15regex_constantsL11error_spaceE, @object
	.size	_ZNSt15regex_constantsL11error_spaceE, 4
_ZNSt15regex_constantsL11error_spaceE:
	.long	9
	.align 4
	.type	_ZNSt15regex_constantsL15error_badrepeatE, @object
	.size	_ZNSt15regex_constantsL15error_badrepeatE, 4
_ZNSt15regex_constantsL15error_badrepeatE:
	.long	10
	.align 4
	.type	_ZNSt15regex_constantsL16error_complexityE, @object
	.size	_ZNSt15regex_constantsL16error_complexityE, 4
_ZNSt15regex_constantsL16error_complexityE:
	.long	11
	.align 4
	.type	_ZNSt15regex_constantsL11error_stackE, @object
	.size	_ZNSt15regex_constantsL11error_stackE, 4
_ZNSt15regex_constantsL11error_stackE:
	.long	12
	.align 8
	.type	_ZNSt8__detailL19_S_invalid_state_idE, @object
	.size	_ZNSt8__detailL19_S_invalid_state_idE, 8
_ZNSt8__detailL19_S_invalid_state_idE:
	.quad	-1
.LC0:
	.string	"r"
.LC1:
	.string	"input.txt"
.LC2:
	.string	"w"
.LC3:
	.string	"output.txt"
	.text
	.globl	_Z5setupv
	.type	_Z5setupv, @function
_Z5setupv:
.LFB9704:
	.cfi_startproc
	endbr64
	push	rbp
	.cfi_def_cfa_offset 16
	.cfi_offset 6, -16
	mov	rbp, rsp
	.cfi_def_cfa_register 6
	mov	edi, 0
	call	_ZNSt8ios_base15sync_with_stdioEb@PLT
	mov	esi, 0
	lea	rax, _ZSt3cin[rip+16]
	mov	rdi, rax
	call	_ZNSt9basic_iosIcSt11char_traitsIcEE3tieEPSo@PLT
	mov	esi, 0
	lea	rax, _ZSt4cout[rip+8]
	mov	rdi, rax
	call	_ZNSt9basic_iosIcSt11char_traitsIcEE3tieEPSo@PLT
	mov	rax, QWORD PTR stdin[rip]
	mov	rdx, rax
	lea	rax, .LC0[rip]
	mov	rsi, rax
	lea	rax, .LC1[rip]
	mov	rdi, rax
	call	freopen@PLT
	mov	rax, QWORD PTR stdout[rip]
	mov	rdx, rax
	lea	rax, .LC2[rip]
	mov	rsi, rax
	lea	rax, .LC3[rip]
	mov	rdi, rax
	call	freopen@PLT
	nop
	pop	rbp
	.cfi_def_cfa 7, 8
	ret
	.cfi_endproc
.LFE9704:
	.size	_Z5setupv, .-_Z5setupv
	.section	.rodata
.LC4:
	.string	" "
	.text
	.globl	main
	.type	main, @function
main:
.LFB9705:
	.cfi_startproc
	.cfi_personality 0x9b,DW.ref.__gxx_personality_v0
	.cfi_lsda 0x1b,.LLSDA9705
	endbr64
	push	rbp
	.cfi_def_cfa_offset 16
	.cfi_offset 6, -16
	mov	rbp, rsp
	.cfi_def_cfa_register 6
	push	rbx
	sub	rsp, 56
	.cfi_offset 3, -24
	mov	rax, QWORD PTR fs:40
	mov	QWORD PTR -24[rbp], rax
	xor	eax, eax
.LEHB0:
	call	_Z5setupv
	lea	rax, -56[rbp]
	mov	rsi, rax
	lea	rax, _ZSt3cin[rip]
	mov	rdi, rax
	call	_ZNSirsERi@PLT
.LEHE0:
	lea	rax, -57[rbp]
	mov	rdi, rax
	call	_ZNSaISt4pairIiiEEC1Ev
	mov	eax, DWORD PTR -56[rbp]
	movsx	rcx, eax
	lea	rdx, -57[rbp]
	lea	rax, -48[rbp]
	mov	rsi, rcx
	mov	rdi, rax
.LEHB1:
	call	_ZNSt6vectorISt4pairIiiESaIS1_EEC1EmRKS2_
.LEHE1:
	lea	rax, -57[rbp]
	mov	rdi, rax
	call	_ZNSaISt4pairIiiEED1Ev
	mov	DWORD PTR -52[rbp], 0
	jmp	.L15
.L16:
	mov	eax, DWORD PTR -52[rbp]
	movsx	rdx, eax
	lea	rax, -48[rbp]
	mov	rsi, rdx
	mov	rdi, rax
	call	_ZNSt6vectorISt4pairIiiESaIS1_EEixEm
	mov	rsi, rax
	lea	rax, _ZSt3cin[rip]
	mov	rdi, rax
.LEHB2:
	call	_ZNSirsERi@PLT
	mov	eax, DWORD PTR -52[rbp]
	lea	ebx, 1[rax]
	mov	eax, DWORD PTR -52[rbp]
	movsx	rdx, eax
	lea	rax, -48[rbp]
	mov	rsi, rdx
	mov	rdi, rax
	call	_ZNSt6vectorISt4pairIiiESaIS1_EEixEm
	mov	DWORD PTR 4[rax], ebx
	add	DWORD PTR -52[rbp], 1
.L15:
	mov	eax, DWORD PTR -56[rbp]
	cmp	DWORD PTR -52[rbp], eax
	jl	.L16
	lea	rax, -48[rbp]
	mov	rdi, rax
	call	_ZNSt6vectorISt4pairIiiESaIS1_EE3endEv
	mov	rbx, rax
	lea	rax, -48[rbp]
	mov	rdi, rax
	call	_ZNSt6vectorISt4pairIiiESaIS1_EE5beginEv
	mov	rsi, rbx
	mov	rdi, rax
	call	_ZSt4sortIN9__gnu_cxx17__normal_iteratorIPSt4pairIiiESt6vectorIS3_SaIS3_EEEEEvT_S9_
	lea	rax, -48[rbp]
	mov	esi, 0
	mov	rdi, rax
	call	_ZNSt6vectorISt4pairIiiESaIS1_EEixEm
	mov	eax, DWORD PTR [rax]
	mov	esi, eax
	lea	rax, _ZSt4cout[rip]
	mov	rdi, rax
	call	_ZNSolsEi@PLT
	mov	rdx, rax
	lea	rax, .LC4[rip]
	mov	rsi, rax
	mov	rdi, rdx
	call	_ZStlsISt11char_traitsIcEERSt13basic_ostreamIcT_ES5_PKc@PLT
	mov	rbx, rax
	lea	rax, -48[rbp]
	mov	esi, 0
	mov	rdi, rax
	call	_ZNSt6vectorISt4pairIiiESaIS1_EEixEm
	mov	eax, DWORD PTR 4[rax]
	mov	esi, eax
	mov	rdi, rbx
	call	_ZNSolsEi@PLT
.LEHE2:
	mov	ebx, 0
	lea	rax, -48[rbp]
	mov	rdi, rax
	call	_ZNSt6vectorISt4pairIiiESaIS1_EED1Ev
	mov	eax, ebx
	mov	rdx, QWORD PTR -24[rbp]
	sub	rdx, QWORD PTR fs:40
	je	.L20
	jmp	.L23
.L21:
	endbr64
	mov	rbx, rax
	lea	rax, -57[rbp]
	mov	rdi, rax
	call	_ZNSaISt4pairIiiEED1Ev
	mov	rax, rbx
	mov	rdi, rax
.LEHB3:
	call	_Unwind_Resume@PLT
.L22:
	endbr64
	mov	rbx, rax
	lea	rax, -48[rbp]
	mov	rdi, rax
	call	_ZNSt6vectorISt4pairIiiESaIS1_EED1Ev
	mov	rax, rbx
	mov	rdi, rax
	call	_Unwind_Resume@PLT
.LEHE3:
.L23:
	call	__stack_chk_fail@PLT
.L20:
	mov	rbx, QWORD PTR -8[rbp]
	leave
	.cfi_def_cfa 7, 8
	ret
	.cfi_endproc
.LFE9705:
	.globl	__gxx_personality_v0
	.section	.gcc_except_table,"a",@progbits
.LLSDA9705:
	.byte	0xff
	.byte	0xff
	.byte	0x1
	.uleb128 .LLSDACSE9705-.LLSDACSB9705
.LLSDACSB9705:
	.uleb128 .LEHB0-.LFB9705
	.uleb128 .LEHE0-.LEHB0
	.uleb128 0
	.uleb128 0
	.uleb128 .LEHB1-.LFB9705
	.uleb128 .LEHE1-.LEHB1
	.uleb128 .L21-.LFB9705
	.uleb128 0
	.uleb128 .LEHB2-.LFB9705
	.uleb128 .LEHE2-.LEHB2
	.uleb128 .L22-.LFB9705
	.uleb128 0
	.uleb128 .LEHB3-.LFB9705
	.uleb128 .LEHE3-.LEHB3
	.uleb128 0
	.uleb128 0
.LLSDACSE9705:
	.text
	.size	main, .-main
	.section	.text._ZSt7forwardIiEOT_RNSt16remove_referenceIS0_E4typeE,"axG",@progbits,_ZSt7forwardIiEOT_RNSt16remove_referenceIS0_E4typeE,comdat
	.weak	_ZSt7forwardIiEOT_RNSt16remove_referenceIS0_E4typeE
	.type	_ZSt7forwardIiEOT_RNSt16remove_referenceIS0_E4typeE, @function
_ZSt7forwardIiEOT_RNSt16remove_referenceIS0_E4typeE:
.LFB10023:
	.cfi_startproc
	endbr64
	push	rbp
	.cfi_def_cfa_offset 16
	.cfi_offset 6, -16
	mov	rbp, rsp
	.cfi_def_cfa_register 6
	mov	QWORD PTR -8[rbp], rdi
	mov	rax, QWORD PTR -8[rbp]
	pop	rbp
	.cfi_def_cfa 7, 8
	ret
	.cfi_endproc
.LFE10023:
	.size	_ZSt7forwardIiEOT_RNSt16remove_referenceIS0_E4typeE, .-_ZSt7forwardIiEOT_RNSt16remove_referenceIS0_E4typeE
	.section	.text._ZNSaISt4pairIiiEEC2Ev,"axG",@progbits,_ZNSaISt4pairIiiEEC5Ev,comdat
	.align 2
	.weak	_ZNSaISt4pairIiiEEC2Ev
	.type	_ZNSaISt4pairIiiEEC2Ev, @function
_ZNSaISt4pairIiiEEC2Ev:
.LFB10396:
	.cfi_startproc
	endbr64
	push	rbp
	.cfi_def_cfa_offset 16
	.cfi_offset 6, -16
	mov	rbp, rsp
	.cfi_def_cfa_register 6
	sub	rsp, 16
	mov	QWORD PTR -8[rbp], rdi
	mov	rax, QWORD PTR -8[rbp]
	mov	rdi, rax
	call	_ZN9__gnu_cxx13new_allocatorISt4pairIiiEEC2Ev
	nop
	leave
	.cfi_def_cfa 7, 8
	ret
	.cfi_endproc
.LFE10396:
	.size	_ZNSaISt4pairIiiEEC2Ev, .-_ZNSaISt4pairIiiEEC2Ev
	.weak	_ZNSaISt4pairIiiEEC1Ev
	.set	_ZNSaISt4pairIiiEEC1Ev,_ZNSaISt4pairIiiEEC2Ev
	.section	.text._ZNSaISt4pairIiiEED2Ev,"axG",@progbits,_ZNSaISt4pairIiiEED5Ev,comdat
	.align 2
	.weak	_ZNSaISt4pairIiiEED2Ev
	.type	_ZNSaISt4pairIiiEED2Ev, @function
_ZNSaISt4pairIiiEED2Ev:
.LFB10399:
	.cfi_startproc
	endbr64
	push	rbp
	.cfi_def_cfa_offset 16
	.cfi_offset 6, -16
	mov	rbp, rsp
	.cfi_def_cfa_register 6
	sub	rsp, 16
	mov	QWORD PTR -8[rbp], rdi
	mov	rax, QWORD PTR -8[rbp]
	mov	rdi, rax
	call	_ZN9__gnu_cxx13new_allocatorISt4pairIiiEED2Ev
	nop
	leave
	.cfi_def_cfa 7, 8
	ret
	.cfi_endproc
.LFE10399:
	.size	_ZNSaISt4pairIiiEED2Ev, .-_ZNSaISt4pairIiiEED2Ev
	.weak	_ZNSaISt4pairIiiEED1Ev
	.set	_ZNSaISt4pairIiiEED1Ev,_ZNSaISt4pairIiiEED2Ev
	.section	.text._ZNSt6vectorISt4pairIiiESaIS1_EEC2EmRKS2_,"axG",@progbits,_ZNSt6vectorISt4pairIiiESaIS1_EEC5EmRKS2_,comdat
	.align 2
	.weak	_ZNSt6vectorISt4pairIiiESaIS1_EEC2EmRKS2_
	.type	_ZNSt6vectorISt4pairIiiESaIS1_EEC2EmRKS2_, @function
_ZNSt6vectorISt4pairIiiESaIS1_EEC2EmRKS2_:
.LFB10402:
	.cfi_startproc
	.cfi_personality 0x9b,DW.ref.__gxx_personality_v0
	.cfi_lsda 0x1b,.LLSDA10402
	endbr64
	push	rbp
	.cfi_def_cfa_offset 16
	.cfi_offset 6, -16
	mov	rbp, rsp
	.cfi_def_cfa_register 6
	push	rbx
	sub	rsp, 40
	.cfi_offset 3, -24
	mov	QWORD PTR -24[rbp], rdi
	mov	QWORD PTR -32[rbp], rsi
	mov	QWORD PTR -40[rbp], rdx
	mov	rbx, QWORD PTR -24[rbp]
	mov	rdx, QWORD PTR -40[rbp]
	mov	rax, QWORD PTR -32[rbp]
	mov	rsi, rdx
	mov	rdi, rax
.LEHB4:
	call	_ZNSt6vectorISt4pairIiiESaIS1_EE17_S_check_init_lenEmRKS2_
	mov	rcx, rax
	mov	rax, QWORD PTR -40[rbp]
	mov	rdx, rax
	mov	rsi, rcx
	mov	rdi, rbx
	call	_ZNSt12_Vector_baseISt4pairIiiESaIS1_EEC2EmRKS2_
.LEHE4:
	mov	rdx, QWORD PTR -32[rbp]
	mov	rax, QWORD PTR -24[rbp]
	mov	rsi, rdx
	mov	rdi, rax
.LEHB5:
	call	_ZNSt6vectorISt4pairIiiESaIS1_EE21_M_default_initializeEm
.LEHE5:
	jmp	.L31
.L30:
	endbr64
	mov	rbx, rax
	mov	rax, QWORD PTR -24[rbp]
	mov	rdi, rax
	call	_ZNSt12_Vector_baseISt4pairIiiESaIS1_EED2Ev
	mov	rax, rbx
	mov	rdi, rax
.LEHB6:
	call	_Unwind_Resume@PLT
.LEHE6:
.L31:
	mov	rbx, QWORD PTR -8[rbp]
	leave
	.cfi_def_cfa 7, 8
	ret
	.cfi_endproc
.LFE10402:
	.section	.gcc_except_table
.LLSDA10402:
	.byte	0xff
	.byte	0xff
	.byte	0x1
	.uleb128 .LLSDACSE10402-.LLSDACSB10402
.LLSDACSB10402:
	.uleb128 .LEHB4-.LFB10402
	.uleb128 .LEHE4-.LEHB4
	.uleb128 0
	.uleb128 0
	.uleb128 .LEHB5-.LFB10402
	.uleb128 .LEHE5-.LEHB5
	.uleb128 .L30-.LFB10402
	.uleb128 0
	.uleb128 .LEHB6-.LFB10402
	.uleb128 .LEHE6-.LEHB6
	.uleb128 0
	.uleb128 0
.LLSDACSE10402:
	.section	.text._ZNSt6vectorISt4pairIiiESaIS1_EEC2EmRKS2_,"axG",@progbits,_ZNSt6vectorISt4pairIiiESaIS1_EEC5EmRKS2_,comdat
	.size	_ZNSt6vectorISt4pairIiiESaIS1_EEC2EmRKS2_, .-_ZNSt6vectorISt4pairIiiESaIS1_EEC2EmRKS2_
	.weak	_ZNSt6vectorISt4pairIiiESaIS1_EEC1EmRKS2_
	.set	_ZNSt6vectorISt4pairIiiESaIS1_EEC1EmRKS2_,_ZNSt6vectorISt4pairIiiESaIS1_EEC2EmRKS2_
	.section	.text._ZNSt6vectorISt4pairIiiESaIS1_EED2Ev,"axG",@progbits,_ZNSt6vectorISt4pairIiiESaIS1_EED5Ev,comdat
	.align 2
	.weak	_ZNSt6vectorISt4pairIiiESaIS1_EED2Ev
	.type	_ZNSt6vectorISt4pairIiiESaIS1_EED2Ev, @function
_ZNSt6vectorISt4pairIiiESaIS1_EED2Ev:
.LFB10405:
	.cfi_startproc
	.cfi_personality 0x9b,DW.ref.__gxx_personality_v0
	.cfi_lsda 0x1b,.LLSDA10405
	endbr64
	push	rbp
	.cfi_def_cfa_offset 16
	.cfi_offset 6, -16
	mov	rbp, rsp
	.cfi_def_cfa_register 6
	sub	rsp, 16
	mov	QWORD PTR -8[rbp], rdi
	mov	rax, QWORD PTR -8[rbp]
	mov	rdi, rax
	call	_ZNSt12_Vector_baseISt4pairIiiESaIS1_EE19_M_get_Tp_allocatorEv
	mov	rdx, rax
	mov	rax, QWORD PTR -8[rbp]
	mov	rcx, QWORD PTR 8[rax]
	mov	rax, QWORD PTR -8[rbp]
	mov	rax, QWORD PTR [rax]
	mov	rsi, rcx
	mov	rdi, rax
	call	_ZSt8_DestroyIPSt4pairIiiES1_EvT_S3_RSaIT0_E
	mov	rax, QWORD PTR -8[rbp]
	mov	rdi, rax
	call	_ZNSt12_Vector_baseISt4pairIiiESaIS1_EED2Ev
	nop
	leave
	.cfi_def_cfa 7, 8
	ret
	.cfi_endproc
.LFE10405:
	.section	.gcc_except_table
.LLSDA10405:
	.byte	0xff
	.byte	0xff
	.byte	0x1
	.uleb128 .LLSDACSE10405-.LLSDACSB10405
.LLSDACSB10405:
.LLSDACSE10405:
	.section	.text._ZNSt6vectorISt4pairIiiESaIS1_EED2Ev,"axG",@progbits,_ZNSt6vectorISt4pairIiiESaIS1_EED5Ev,comdat
	.size	_ZNSt6vectorISt4pairIiiESaIS1_EED2Ev, .-_ZNSt6vectorISt4pairIiiESaIS1_EED2Ev
	.weak	_ZNSt6vectorISt4pairIiiESaIS1_EED1Ev
	.set	_ZNSt6vectorISt4pairIiiESaIS1_EED1Ev,_ZNSt6vectorISt4pairIiiESaIS1_EED2Ev
	.section	.text._ZNSt6vectorISt4pairIiiESaIS1_EEixEm,"axG",@progbits,_ZNSt6vectorISt4pairIiiESaIS1_EEixEm,comdat
	.align 2
	.weak	_ZNSt6vectorISt4pairIiiESaIS1_EEixEm
	.type	_ZNSt6vectorISt4pairIiiESaIS1_EEixEm, @function
_ZNSt6vectorISt4pairIiiESaIS1_EEixEm:
.LFB10407:
	.cfi_startproc
	endbr64
	push	rbp
	.cfi_def_cfa_offset 16
	.cfi_offset 6, -16
	mov	rbp, rsp
	.cfi_def_cfa_register 6
	mov	QWORD PTR -8[rbp], rdi
	mov	QWORD PTR -16[rbp], rsi
	mov	rax, QWORD PTR -8[rbp]
	mov	rdx, QWORD PTR [rax]
	mov	rax, QWORD PTR -16[rbp]
	sal	rax, 3
	add	rax, rdx
	pop	rbp
	.cfi_def_cfa 7, 8
	ret
	.cfi_endproc
.LFE10407:
	.size	_ZNSt6vectorISt4pairIiiESaIS1_EEixEm, .-_ZNSt6vectorISt4pairIiiESaIS1_EEixEm
	.section	.text._ZNSt6vectorISt4pairIiiESaIS1_EE5beginEv,"axG",@progbits,_ZNSt6vectorISt4pairIiiESaIS1_EE5beginEv,comdat
	.align 2
	.weak	_ZNSt6vectorISt4pairIiiESaIS1_EE5beginEv
	.type	_ZNSt6vectorISt4pairIiiESaIS1_EE5beginEv, @function
_ZNSt6vectorISt4pairIiiESaIS1_EE5beginEv:
.LFB10408:
	.cfi_startproc
	endbr64
	push	rbp
	.cfi_def_cfa_offset 16
	.cfi_offset 6, -16
	mov	rbp, rsp
	.cfi_def_cfa_register 6
	sub	rsp, 32
	mov	QWORD PTR -24[rbp], rdi
	mov	rax, QWORD PTR fs:40
	mov	QWORD PTR -8[rbp], rax
	xor	eax, eax
	mov	rdx, QWORD PTR -24[rbp]
	lea	rax, -16[rbp]
	mov	rsi, rdx
	mov	rdi, rax
	call	_ZN9__gnu_cxx17__normal_iteratorIPSt4pairIiiESt6vectorIS2_SaIS2_EEEC1ERKS3_
	mov	rax, QWORD PTR -16[rbp]
	mov	rdx, QWORD PTR -8[rbp]
	sub	rdx, QWORD PTR fs:40
	je	.L37
	call	__stack_chk_fail@PLT
.L37:
	leave
	.cfi_def_cfa 7, 8
	ret
	.cfi_endproc
.LFE10408:
	.size	_ZNSt6vectorISt4pairIiiESaIS1_EE5beginEv, .-_ZNSt6vectorISt4pairIiiESaIS1_EE5beginEv
	.section	.text._ZNSt6vectorISt4pairIiiESaIS1_EE3endEv,"axG",@progbits,_ZNSt6vectorISt4pairIiiESaIS1_EE3endEv,comdat
	.align 2
	.weak	_ZNSt6vectorISt4pairIiiESaIS1_EE3endEv
	.type	_ZNSt6vectorISt4pairIiiESaIS1_EE3endEv, @function
_ZNSt6vectorISt4pairIiiESaIS1_EE3endEv:
.LFB10409:
	.cfi_startproc
	endbr64
	push	rbp
	.cfi_def_cfa_offset 16
	.cfi_offset 6, -16
	mov	rbp, rsp
	.cfi_def_cfa_register 6
	sub	rsp, 32
	mov	QWORD PTR -24[rbp], rdi
	mov	rax, QWORD PTR fs:40
	mov	QWORD PTR -8[rbp], rax
	xor	eax, eax
	mov	rax, QWORD PTR -24[rbp]
	lea	rdx, 8[rax]
	lea	rax, -16[rbp]
	mov	rsi, rdx
	mov	rdi, rax
	call	_ZN9__gnu_cxx17__normal_iteratorIPSt4pairIiiESt6vectorIS2_SaIS2_EEEC1ERKS3_
	mov	rax, QWORD PTR -16[rbp]
	mov	rdx, QWORD PTR -8[rbp]
	sub	rdx, QWORD PTR fs:40
	je	.L40
	call	__stack_chk_fail@PLT
.L40:
	leave
	.cfi_def_cfa 7, 8
	ret
	.cfi_endproc
.LFE10409:
	.size	_ZNSt6vectorISt4pairIiiESaIS1_EE3endEv, .-_ZNSt6vectorISt4pairIiiESaIS1_EE3endEv
	.section	.text._ZSt4sortIN9__gnu_cxx17__normal_iteratorIPSt4pairIiiESt6vectorIS3_SaIS3_EEEEEvT_S9_,"axG",@progbits,_ZSt4sortIN9__gnu_cxx17__normal_iteratorIPSt4pairIiiESt6vectorIS3_SaIS3_EEEEEvT_S9_,comdat
	.weak	_ZSt4sortIN9__gnu_cxx17__normal_iteratorIPSt4pairIiiESt6vectorIS3_SaIS3_EEEEEvT_S9_
	.type	_ZSt4sortIN9__gnu_cxx17__normal_iteratorIPSt4pairIiiESt6vectorIS3_SaIS3_EEEEEvT_S9_, @function
_ZSt4sortIN9__gnu_cxx17__normal_iteratorIPSt4pairIiiESt6vectorIS3_SaIS3_EEEEEvT_S9_:
.LFB10410:
	.cfi_startproc
	endbr64
	push	rbp
	.cfi_def_cfa_offset 16
	.cfi_offset 6, -16
	mov	rbp, rsp
	.cfi_def_cfa_register 6
	sub	rsp, 16
	mov	QWORD PTR -8[rbp], rdi
	mov	QWORD PTR -16[rbp], rsi
	call	_ZN9__gnu_cxx5__ops16__iter_less_iterEv
	mov	rdx, QWORD PTR -16[rbp]
	mov	rax, QWORD PTR -8[rbp]
	mov	rsi, rdx
	mov	rdi, rax
	call	_ZSt6__sortIN9__gnu_cxx17__normal_iteratorIPSt4pairIiiESt6vectorIS3_SaIS3_EEEENS0_5__ops15_Iter_less_iterEEvT_SB_T0_
	nop
	leave
	.cfi_def_cfa 7, 8
	ret
	.cfi_endproc
.LFE10410:
	.size	_ZSt4sortIN9__gnu_cxx17__normal_iteratorIPSt4pairIiiESt6vectorIS3_SaIS3_EEEEEvT_S9_, .-_ZSt4sortIN9__gnu_cxx17__normal_iteratorIPSt4pairIiiESt6vectorIS3_SaIS3_EEEEEvT_S9_
	.section	.text._ZN9__gnu_cxx13new_allocatorISt4pairIiiEEC2Ev,"axG",@progbits,_ZN9__gnu_cxx13new_allocatorISt4pairIiiEEC5Ev,comdat
	.align 2
	.weak	_ZN9__gnu_cxx13new_allocatorISt4pairIiiEEC2Ev
	.type	_ZN9__gnu_cxx13new_allocatorISt4pairIiiEEC2Ev, @function
_ZN9__gnu_cxx13new_allocatorISt4pairIiiEEC2Ev:
.LFB10804:
	.cfi_startproc
	endbr64
	push	rbp
	.cfi_def_cfa_offset 16
	.cfi_offset 6, -16
	mov	rbp, rsp
	.cfi_def_cfa_register 6
	mov	QWORD PTR -8[rbp], rdi
	nop
	pop	rbp
	.cfi_def_cfa 7, 8
	ret
	.cfi_endproc
.LFE10804:
	.size	_ZN9__gnu_cxx13new_allocatorISt4pairIiiEEC2Ev, .-_ZN9__gnu_cxx13new_allocatorISt4pairIiiEEC2Ev
	.weak	_ZN9__gnu_cxx13new_allocatorISt4pairIiiEEC1Ev
	.set	_ZN9__gnu_cxx13new_allocatorISt4pairIiiEEC1Ev,_ZN9__gnu_cxx13new_allocatorISt4pairIiiEEC2Ev
	.section	.text._ZN9__gnu_cxx13new_allocatorISt4pairIiiEED2Ev,"axG",@progbits,_ZN9__gnu_cxx13new_allocatorISt4pairIiiEED5Ev,comdat
	.align 2
	.weak	_ZN9__gnu_cxx13new_allocatorISt4pairIiiEED2Ev
	.type	_ZN9__gnu_cxx13new_allocatorISt4pairIiiEED2Ev, @function
_ZN9__gnu_cxx13new_allocatorISt4pairIiiEED2Ev:
.LFB10807:
	.cfi_startproc
	endbr64
	push	rbp
	.cfi_def_cfa_offset 16
	.cfi_offset 6, -16
	mov	rbp, rsp
	.cfi_def_cfa_register 6
	mov	QWORD PTR -8[rbp], rdi
	nop
	pop	rbp
	.cfi_def_cfa 7, 8
	ret
	.cfi_endproc
.LFE10807:
	.size	_ZN9__gnu_cxx13new_allocatorISt4pairIiiEED2Ev, .-_ZN9__gnu_cxx13new_allocatorISt4pairIiiEED2Ev
	.weak	_ZN9__gnu_cxx13new_allocatorISt4pairIiiEED1Ev
	.set	_ZN9__gnu_cxx13new_allocatorISt4pairIiiEED1Ev,_ZN9__gnu_cxx13new_allocatorISt4pairIiiEED2Ev
	.section	.rodata
	.align 8
.LC5:
	.string	"cannot create std::vector larger than max_size()"
	.section	.text._ZNSt6vectorISt4pairIiiESaIS1_EE17_S_check_init_lenEmRKS2_,"axG",@progbits,_ZNSt6vectorISt4pairIiiESaIS1_EE17_S_check_init_lenEmRKS2_,comdat
	.weak	_ZNSt6vectorISt4pairIiiESaIS1_EE17_S_check_init_lenEmRKS2_
	.type	_ZNSt6vectorISt4pairIiiESaIS1_EE17_S_check_init_lenEmRKS2_, @function
_ZNSt6vectorISt4pairIiiESaIS1_EE17_S_check_init_lenEmRKS2_:
.LFB10809:
	.cfi_startproc
	endbr64
	push	rbp
	.cfi_def_cfa_offset 16
	.cfi_offset 6, -16
	mov	rbp, rsp
	.cfi_def_cfa_register 6
	push	rbx
	sub	rsp, 40
	.cfi_offset 3, -24
	mov	QWORD PTR -40[rbp], rdi
	mov	QWORD PTR -48[rbp], rsi
	mov	rax, QWORD PTR fs:40
	mov	QWORD PTR -24[rbp], rax
	xor	eax, eax
	mov	rdx, QWORD PTR -48[rbp]
	lea	rax, -25[rbp]
	mov	rsi, rdx
	mov	rdi, rax
	call	_ZNSaISt4pairIiiEEC1ERKS1_
	lea	rax, -25[rbp]
	mov	rdi, rax
	call	_ZNSt6vectorISt4pairIiiESaIS1_EE11_S_max_sizeERKS2_
	cmp	QWORD PTR -40[rbp], rax
	seta	bl
	lea	rax, -25[rbp]
	mov	rdi, rax
	call	_ZNSaISt4pairIiiEED1Ev
	test	bl, bl
	je	.L45
	lea	rax, .LC5[rip]
	mov	rdi, rax
	call	_ZSt20__throw_length_errorPKc@PLT
.L45:
	mov	rax, QWORD PTR -40[rbp]
	mov	rdx, QWORD PTR -24[rbp]
	sub	rdx, QWORD PTR fs:40
	je	.L47
	call	__stack_chk_fail@PLT
.L47:
	mov	rbx, QWORD PTR -8[rbp]
	leave
	.cfi_def_cfa 7, 8
	ret
	.cfi_endproc
.LFE10809:
	.size	_ZNSt6vectorISt4pairIiiESaIS1_EE17_S_check_init_lenEmRKS2_, .-_ZNSt6vectorISt4pairIiiESaIS1_EE17_S_check_init_lenEmRKS2_
	.section	.text._ZNSt12_Vector_baseISt4pairIiiESaIS1_EE12_Vector_implD2Ev,"axG",@progbits,_ZNSt12_Vector_baseISt4pairIiiESaIS1_EE12_Vector_implD5Ev,comdat
	.align 2
	.weak	_ZNSt12_Vector_baseISt4pairIiiESaIS1_EE12_Vector_implD2Ev
	.type	_ZNSt12_Vector_baseISt4pairIiiESaIS1_EE12_Vector_implD2Ev, @function
_ZNSt12_Vector_baseISt4pairIiiESaIS1_EE12_Vector_implD2Ev:
.LFB10812:
	.cfi_startproc
	endbr64
	push	rbp
	.cfi_def_cfa_offset 16
	.cfi_offset 6, -16
	mov	rbp, rsp
	.cfi_def_cfa_register 6
	sub	rsp, 16
	mov	QWORD PTR -8[rbp], rdi
	mov	rax, QWORD PTR -8[rbp]
	mov	rdi, rax
	call	_ZNSaISt4pairIiiEED2Ev
	nop
	leave
	.cfi_def_cfa 7, 8
	ret
	.cfi_endproc
.LFE10812:
	.size	_ZNSt12_Vector_baseISt4pairIiiESaIS1_EE12_Vector_implD2Ev, .-_ZNSt12_Vector_baseISt4pairIiiESaIS1_EE12_Vector_implD2Ev
	.weak	_ZNSt12_Vector_baseISt4pairIiiESaIS1_EE12_Vector_implD1Ev
	.set	_ZNSt12_Vector_baseISt4pairIiiESaIS1_EE12_Vector_implD1Ev,_ZNSt12_Vector_baseISt4pairIiiESaIS1_EE12_Vector_implD2Ev
	.section	.text._ZNSt12_Vector_baseISt4pairIiiESaIS1_EEC2EmRKS2_,"axG",@progbits,_ZNSt12_Vector_baseISt4pairIiiESaIS1_EEC5EmRKS2_,comdat
	.align 2
	.weak	_ZNSt12_Vector_baseISt4pairIiiESaIS1_EEC2EmRKS2_
	.type	_ZNSt12_Vector_baseISt4pairIiiESaIS1_EEC2EmRKS2_, @function
_ZNSt12_Vector_baseISt4pairIiiESaIS1_EEC2EmRKS2_:
.LFB10814:
	.cfi_startproc
	.cfi_personality 0x9b,DW.ref.__gxx_personality_v0
	.cfi_lsda 0x1b,.LLSDA10814
	endbr64
	push	rbp
	.cfi_def_cfa_offset 16
	.cfi_offset 6, -16
	mov	rbp, rsp
	.cfi_def_cfa_register 6
	push	rbx
	sub	rsp, 40
	.cfi_offset 3, -24
	mov	QWORD PTR -24[rbp], rdi
	mov	QWORD PTR -32[rbp], rsi
	mov	QWORD PTR -40[rbp], rdx
	mov	rax, QWORD PTR -24[rbp]
	mov	rdx, QWORD PTR -40[rbp]
	mov	rsi, rdx
	mov	rdi, rax
	call	_ZNSt12_Vector_baseISt4pairIiiESaIS1_EE12_Vector_implC1ERKS2_
	mov	rdx, QWORD PTR -32[rbp]
	mov	rax, QWORD PTR -24[rbp]
	mov	rsi, rdx
	mov	rdi, rax
.LEHB7:
	call	_ZNSt12_Vector_baseISt4pairIiiESaIS1_EE17_M_create_storageEm
.LEHE7:
	jmp	.L52
.L51:
	endbr64
	mov	rbx, rax
	mov	rax, QWORD PTR -24[rbp]
	mov	rdi, rax
	call	_ZNSt12_Vector_baseISt4pairIiiESaIS1_EE12_Vector_implD1Ev
	mov	rax, rbx
	mov	rdi, rax
.LEHB8:
	call	_Unwind_Resume@PLT
.LEHE8:
.L52:
	mov	rbx, QWORD PTR -8[rbp]
	leave
	.cfi_def_cfa 7, 8
	ret
	.cfi_endproc
.LFE10814:
	.section	.gcc_except_table
.LLSDA10814:
	.byte	0xff
	.byte	0xff
	.byte	0x1
	.uleb128 .LLSDACSE10814-.LLSDACSB10814
.LLSDACSB10814:
	.uleb128 .LEHB7-.LFB10814
	.uleb128 .LEHE7-.LEHB7
	.uleb128 .L51-.LFB10814
	.uleb128 0
	.uleb128 .LEHB8-.LFB10814
	.uleb128 .LEHE8-.LEHB8
	.uleb128 0
	.uleb128 0
.LLSDACSE10814:
	.section	.text._ZNSt12_Vector_baseISt4pairIiiESaIS1_EEC2EmRKS2_,"axG",@progbits,_ZNSt12_Vector_baseISt4pairIiiESaIS1_EEC5EmRKS2_,comdat
	.size	_ZNSt12_Vector_baseISt4pairIiiESaIS1_EEC2EmRKS2_, .-_ZNSt12_Vector_baseISt4pairIiiESaIS1_EEC2EmRKS2_
	.weak	_ZNSt12_Vector_baseISt4pairIiiESaIS1_EEC1EmRKS2_
	.set	_ZNSt12_Vector_baseISt4pairIiiESaIS1_EEC1EmRKS2_,_ZNSt12_Vector_baseISt4pairIiiESaIS1_EEC2EmRKS2_
	.section	.text._ZNSt12_Vector_baseISt4pairIiiESaIS1_EED2Ev,"axG",@progbits,_ZNSt12_Vector_baseISt4pairIiiESaIS1_EED5Ev,comdat
	.align 2
	.weak	_ZNSt12_Vector_baseISt4pairIiiESaIS1_EED2Ev
	.type	_ZNSt12_Vector_baseISt4pairIiiESaIS1_EED2Ev, @function
_ZNSt12_Vector_baseISt4pairIiiESaIS1_EED2Ev:
.LFB10817:
	.cfi_startproc
	.cfi_personality 0x9b,DW.ref.__gxx_personality_v0
	.cfi_lsda 0x1b,.LLSDA10817
	endbr64
	push	rbp
	.cfi_def_cfa_offset 16
	.cfi_offset 6, -16
	mov	rbp, rsp
	.cfi_def_cfa_register 6
	sub	rsp, 16
	mov	QWORD PTR -8[rbp], rdi
	mov	rax, QWORD PTR -8[rbp]
	mov	rdx, QWORD PTR 16[rax]
	mov	rax, QWORD PTR -8[rbp]
	mov	rcx, QWORD PTR [rax]
	mov	rax, rdx
	sub	rax, rcx
	sar	rax, 3
	mov	rdx, rax
	mov	rax, QWORD PTR -8[rbp]
	mov	rcx, QWORD PTR [rax]
	mov	rax, QWORD PTR -8[rbp]
	mov	rsi, rcx
	mov	rdi, rax
	call	_ZNSt12_Vector_baseISt4pairIiiESaIS1_EE13_M_deallocateEPS1_m
	mov	rax, QWORD PTR -8[rbp]
	mov	rdi, rax
	call	_ZNSt12_Vector_baseISt4pairIiiESaIS1_EE12_Vector_implD1Ev
	nop
	leave
	.cfi_def_cfa 7, 8
	ret
	.cfi_endproc
.LFE10817:
	.section	.gcc_except_table
.LLSDA10817:
	.byte	0xff
	.byte	0xff
	.byte	0x1
	.uleb128 .LLSDACSE10817-.LLSDACSB10817
.LLSDACSB10817:
.LLSDACSE10817:
	.section	.text._ZNSt12_Vector_baseISt4pairIiiESaIS1_EED2Ev,"axG",@progbits,_ZNSt12_Vector_baseISt4pairIiiESaIS1_EED5Ev,comdat
	.size	_ZNSt12_Vector_baseISt4pairIiiESaIS1_EED2Ev, .-_ZNSt12_Vector_baseISt4pairIiiESaIS1_EED2Ev
	.weak	_ZNSt12_Vector_baseISt4pairIiiESaIS1_EED1Ev
	.set	_ZNSt12_Vector_baseISt4pairIiiESaIS1_EED1Ev,_ZNSt12_Vector_baseISt4pairIiiESaIS1_EED2Ev
	.section	.text._ZNSt6vectorISt4pairIiiESaIS1_EE21_M_default_initializeEm,"axG",@progbits,_ZNSt6vectorISt4pairIiiESaIS1_EE21_M_default_initializeEm,comdat
	.align 2
	.weak	_ZNSt6vectorISt4pairIiiESaIS1_EE21_M_default_initializeEm
	.type	_ZNSt6vectorISt4pairIiiESaIS1_EE21_M_default_initializeEm, @function
_ZNSt6vectorISt4pairIiiESaIS1_EE21_M_default_initializeEm:
.LFB10819:
	.cfi_startproc
	endbr64
	push	rbp
	.cfi_def_cfa_offset 16
	.cfi_offset 6, -16
	mov	rbp, rsp
	.cfi_def_cfa_register 6
	sub	rsp, 16
	mov	QWORD PTR -8[rbp], rdi
	mov	QWORD PTR -16[rbp], rsi
	mov	rax, QWORD PTR -8[rbp]
	mov	rdi, rax
	call	_ZNSt12_Vector_baseISt4pairIiiESaIS1_EE19_M_get_Tp_allocatorEv
	mov	rdx, rax
	mov	rax, QWORD PTR -8[rbp]
	mov	rax, QWORD PTR [rax]
	mov	rcx, QWORD PTR -16[rbp]
	mov	rsi, rcx
	mov	rdi, rax
	call	_ZSt27__uninitialized_default_n_aIPSt4pairIiiEmS1_ET_S3_T0_RSaIT1_E
	mov	rdx, QWORD PTR -8[rbp]
	mov	QWORD PTR 8[rdx], rax
	nop
	leave
	.cfi_def_cfa 7, 8
	ret
	.cfi_endproc
.LFE10819:
	.size	_ZNSt6vectorISt4pairIiiESaIS1_EE21_M_default_initializeEm, .-_ZNSt6vectorISt4pairIiiESaIS1_EE21_M_default_initializeEm
	.section	.text._ZNSt12_Vector_baseISt4pairIiiESaIS1_EE19_M_get_Tp_allocatorEv,"axG",@progbits,_ZNSt12_Vector_baseISt4pairIiiESaIS1_EE19_M_get_Tp_allocatorEv,comdat
	.align 2
	.weak	_ZNSt12_Vector_baseISt4pairIiiESaIS1_EE19_M_get_Tp_allocatorEv
	.type	_ZNSt12_Vector_baseISt4pairIiiESaIS1_EE19_M_get_Tp_allocatorEv, @function
_ZNSt12_Vector_baseISt4pairIiiESaIS1_EE19_M_get_Tp_allocatorEv:
.LFB10820:
	.cfi_startproc
	endbr64
	push	rbp
	.cfi_def_cfa_offset 16
	.cfi_offset 6, -16
	mov	rbp, rsp
	.cfi_def_cfa_register 6
	mov	QWORD PTR -8[rbp], rdi
	mov	rax, QWORD PTR -8[rbp]
	pop	rbp
	.cfi_def_cfa 7, 8
	ret
	.cfi_endproc
.LFE10820:
	.size	_ZNSt12_Vector_baseISt4pairIiiESaIS1_EE19_M_get_Tp_allocatorEv, .-_ZNSt12_Vector_baseISt4pairIiiESaIS1_EE19_M_get_Tp_allocatorEv
	.section	.text._ZSt8_DestroyIPSt4pairIiiES1_EvT_S3_RSaIT0_E,"axG",@progbits,_ZSt8_DestroyIPSt4pairIiiES1_EvT_S3_RSaIT0_E,comdat
	.weak	_ZSt8_DestroyIPSt4pairIiiES1_EvT_S3_RSaIT0_E
	.type	_ZSt8_DestroyIPSt4pairIiiES1_EvT_S3_RSaIT0_E, @function
_ZSt8_DestroyIPSt4pairIiiES1_EvT_S3_RSaIT0_E:
.LFB10821:
	.cfi_startproc
	endbr64
	push	rbp
	.cfi_def_cfa_offset 16
	.cfi_offset 6, -16
	mov	rbp, rsp
	.cfi_def_cfa_register 6
	sub	rsp, 32
	mov	QWORD PTR -8[rbp], rdi
	mov	QWORD PTR -16[rbp], rsi
	mov	QWORD PTR -24[rbp], rdx
	mov	rdx, QWORD PTR -16[rbp]
	mov	rax, QWORD PTR -8[rbp]
	mov	rsi, rdx
	mov	rdi, rax
	call	_ZSt8_DestroyIPSt4pairIiiEEvT_S3_
	nop
	leave
	.cfi_def_cfa 7, 8
	ret
	.cfi_endproc
.LFE10821:
	.size	_ZSt8_DestroyIPSt4pairIiiES1_EvT_S3_RSaIT0_E, .-_ZSt8_DestroyIPSt4pairIiiES1_EvT_S3_RSaIT0_E
	.section	.text._ZN9__gnu_cxx17__normal_iteratorIPSt4pairIiiESt6vectorIS2_SaIS2_EEEC2ERKS3_,"axG",@progbits,_ZN9__gnu_cxx17__normal_iteratorIPSt4pairIiiESt6vectorIS2_SaIS2_EEEC5ERKS3_,comdat
	.align 2
	.weak	_ZN9__gnu_cxx17__normal_iteratorIPSt4pairIiiESt6vectorIS2_SaIS2_EEEC2ERKS3_
	.type	_ZN9__gnu_cxx17__normal_iteratorIPSt4pairIiiESt6vectorIS2_SaIS2_EEEC2ERKS3_, @function
_ZN9__gnu_cxx17__normal_iteratorIPSt4pairIiiESt6vectorIS2_SaIS2_EEEC2ERKS3_:
.LFB10823:
	.cfi_startproc
	endbr64
	push	rbp
	.cfi_def_cfa_offset 16
	.cfi_offset 6, -16
	mov	rbp, rsp
	.cfi_def_cfa_register 6
	mov	QWORD PTR -8[rbp], rdi
	mov	QWORD PTR -16[rbp], rsi
	mov	rax, QWORD PTR -16[rbp]
	mov	rdx, QWORD PTR [rax]
	mov	rax, QWORD PTR -8[rbp]
	mov	QWORD PTR [rax], rdx
	nop
	pop	rbp
	.cfi_def_cfa 7, 8
	ret
	.cfi_endproc
.LFE10823:
	.size	_ZN9__gnu_cxx17__normal_iteratorIPSt4pairIiiESt6vectorIS2_SaIS2_EEEC2ERKS3_, .-_ZN9__gnu_cxx17__normal_iteratorIPSt4pairIiiESt6vectorIS2_SaIS2_EEEC2ERKS3_
	.weak	_ZN9__gnu_cxx17__normal_iteratorIPSt4pairIiiESt6vectorIS2_SaIS2_EEEC1ERKS3_
	.set	_ZN9__gnu_cxx17__normal_iteratorIPSt4pairIiiESt6vectorIS2_SaIS2_EEEC1ERKS3_,_ZN9__gnu_cxx17__normal_iteratorIPSt4pairIiiESt6vectorIS2_SaIS2_EEEC2ERKS3_
	.section	.text._ZSt6__sortIN9__gnu_cxx17__normal_iteratorIPSt4pairIiiESt6vectorIS3_SaIS3_EEEENS0_5__ops15_Iter_less_iterEEvT_SB_T0_,"axG",@progbits,_ZSt6__sortIN9__gnu_cxx17__normal_iteratorIPSt4pairIiiESt6vectorIS3_SaIS3_EEEENS0_5__ops15_Iter_less_iterEEvT_SB_T0_,comdat
	.weak	_ZSt6__sortIN9__gnu_cxx17__normal_iteratorIPSt4pairIiiESt6vectorIS3_SaIS3_EEEENS0_5__ops15_Iter_less_iterEEvT_SB_T0_
	.type	_ZSt6__sortIN9__gnu_cxx17__normal_iteratorIPSt4pairIiiESt6vectorIS3_SaIS3_EEEENS0_5__ops15_Iter_less_iterEEvT_SB_T0_, @function
_ZSt6__sortIN9__gnu_cxx17__normal_iteratorIPSt4pairIiiESt6vectorIS3_SaIS3_EEEENS0_5__ops15_Iter_less_iterEEvT_SB_T0_:
.LFB10825:
	.cfi_startproc
	endbr64
	push	rbp
	.cfi_def_cfa_offset 16
	.cfi_offset 6, -16
	mov	rbp, rsp
	.cfi_def_cfa_register 6
	sub	rsp, 32
	mov	QWORD PTR -8[rbp], rdi
	mov	QWORD PTR -16[rbp], rsi
	lea	rdx, -16[rbp]
	lea	rax, -8[rbp]
	mov	rsi, rdx
	mov	rdi, rax
	call	_ZN9__gnu_cxxneIPSt4pairIiiESt6vectorIS2_SaIS2_EEEEbRKNS_17__normal_iteratorIT_T0_EESC_
	test	al, al
	je	.L61
	lea	rdx, -8[rbp]
	lea	rax, -16[rbp]
	mov	rsi, rdx
	mov	rdi, rax
	call	_ZN9__gnu_cxxmiIPSt4pairIiiESt6vectorIS2_SaIS2_EEEENS_17__normal_iteratorIT_T0_E15difference_typeERKSA_SD_
	mov	rdi, rax
	call	_ZSt4__lgl
	lea	rdx, [rax+rax]
	mov	rcx, QWORD PTR -16[rbp]
	mov	rax, QWORD PTR -8[rbp]
	mov	rsi, rcx
	mov	rdi, rax
	call	_ZSt16__introsort_loopIN9__gnu_cxx17__normal_iteratorIPSt4pairIiiESt6vectorIS3_SaIS3_EEEElNS0_5__ops15_Iter_less_iterEEvT_SB_T0_T1_
	mov	rdx, QWORD PTR -16[rbp]
	mov	rax, QWORD PTR -8[rbp]
	mov	rsi, rdx
	mov	rdi, rax
	call	_ZSt22__final_insertion_sortIN9__gnu_cxx17__normal_iteratorIPSt4pairIiiESt6vectorIS3_SaIS3_EEEENS0_5__ops15_Iter_less_iterEEvT_SB_T0_
.L61:
	nop
	leave
	.cfi_def_cfa 7, 8
	ret
	.cfi_endproc
.LFE10825:
	.size	_ZSt6__sortIN9__gnu_cxx17__normal_iteratorIPSt4pairIiiESt6vectorIS3_SaIS3_EEEENS0_5__ops15_Iter_less_iterEEvT_SB_T0_, .-_ZSt6__sortIN9__gnu_cxx17__normal_iteratorIPSt4pairIiiESt6vectorIS3_SaIS3_EEEENS0_5__ops15_Iter_less_iterEEvT_SB_T0_
	.section	.text._ZNSt6vectorISt4pairIiiESaIS1_EE11_S_max_sizeERKS2_,"axG",@progbits,_ZNSt6vectorISt4pairIiiESaIS1_EE11_S_max_sizeERKS2_,comdat
	.weak	_ZNSt6vectorISt4pairIiiESaIS1_EE11_S_max_sizeERKS2_
	.type	_ZNSt6vectorISt4pairIiiESaIS1_EE11_S_max_sizeERKS2_, @function
_ZNSt6vectorISt4pairIiiESaIS1_EE11_S_max_sizeERKS2_:
.LFB11023:
	.cfi_startproc
	endbr64
	push	rbp
	.cfi_def_cfa_offset 16
	.cfi_offset 6, -16
	mov	rbp, rsp
	.cfi_def_cfa_register 6
	sub	rsp, 48
	mov	QWORD PTR -40[rbp], rdi
	mov	rax, QWORD PTR fs:40
	mov	QWORD PTR -8[rbp], rax
	xor	eax, eax
	movabs	rax, 1152921504606846975
	mov	QWORD PTR -24[rbp], rax
	mov	rax, QWORD PTR -40[rbp]
	mov	rdi, rax
	call	_ZNSt16allocator_traitsISaISt4pairIiiEEE8max_sizeERKS2_
	mov	QWORD PTR -16[rbp], rax
	lea	rdx, -16[rbp]
	lea	rax, -24[rbp]
	mov	rsi, rdx
	mov	rdi, rax
	call	_ZSt3minImERKT_S2_S2_
	mov	rax, QWORD PTR [rax]
	mov	rdx, QWORD PTR -8[rbp]
	sub	rdx, QWORD PTR fs:40
	je	.L64
	call	__stack_chk_fail@PLT
.L64:
	leave
	.cfi_def_cfa 7, 8
	ret
	.cfi_endproc
.LFE11023:
	.size	_ZNSt6vectorISt4pairIiiESaIS1_EE11_S_max_sizeERKS2_, .-_ZNSt6vectorISt4pairIiiESaIS1_EE11_S_max_sizeERKS2_
	.section	.text._ZNSaISt4pairIiiEEC2ERKS1_,"axG",@progbits,_ZNSaISt4pairIiiEEC5ERKS1_,comdat
	.align 2
	.weak	_ZNSaISt4pairIiiEEC2ERKS1_
	.type	_ZNSaISt4pairIiiEEC2ERKS1_, @function
_ZNSaISt4pairIiiEEC2ERKS1_:
.LFB11025:
	.cfi_startproc
	endbr64
	push	rbp
	.cfi_def_cfa_offset 16
	.cfi_offset 6, -16
	mov	rbp, rsp
	.cfi_def_cfa_register 6
	sub	rsp, 16
	mov	QWORD PTR -8[rbp], rdi
	mov	QWORD PTR -16[rbp], rsi
	mov	rdx, QWORD PTR -16[rbp]
	mov	rax, QWORD PTR -8[rbp]
	mov	rsi, rdx
	mov	rdi, rax
	call	_ZN9__gnu_cxx13new_allocatorISt4pairIiiEEC2ERKS3_
	nop
	leave
	.cfi_def_cfa 7, 8
	ret
	.cfi_endproc
.LFE11025:
	.size	_ZNSaISt4pairIiiEEC2ERKS1_, .-_ZNSaISt4pairIiiEEC2ERKS1_
	.weak	_ZNSaISt4pairIiiEEC1ERKS1_
	.set	_ZNSaISt4pairIiiEEC1ERKS1_,_ZNSaISt4pairIiiEEC2ERKS1_
	.section	.text._ZNSt12_Vector_baseISt4pairIiiESaIS1_EE12_Vector_implC2ERKS2_,"axG",@progbits,_ZNSt12_Vector_baseISt4pairIiiESaIS1_EE12_Vector_implC5ERKS2_,comdat
	.align 2
	.weak	_ZNSt12_Vector_baseISt4pairIiiESaIS1_EE12_Vector_implC2ERKS2_
	.type	_ZNSt12_Vector_baseISt4pairIiiESaIS1_EE12_Vector_implC2ERKS2_, @function
_ZNSt12_Vector_baseISt4pairIiiESaIS1_EE12_Vector_implC2ERKS2_:
.LFB11028:
	.cfi_startproc
	endbr64
	push	rbp
	.cfi_def_cfa_offset 16
	.cfi_offset 6, -16
	mov	rbp, rsp
	.cfi_def_cfa_register 6
	sub	rsp, 16
	mov	QWORD PTR -8[rbp], rdi
	mov	QWORD PTR -16[rbp], rsi
	mov	rdx, QWORD PTR -16[rbp]
	mov	rax, QWORD PTR -8[rbp]
	mov	rsi, rdx
	mov	rdi, rax
	call	_ZNSaISt4pairIiiEEC2ERKS1_
	mov	rax, QWORD PTR -8[rbp]
	mov	rdi, rax
	call	_ZNSt12_Vector_baseISt4pairIiiESaIS1_EE17_Vector_impl_dataC2Ev
	nop
	leave
	.cfi_def_cfa 7, 8
	ret
	.cfi_endproc
.LFE11028:
	.size	_ZNSt12_Vector_baseISt4pairIiiESaIS1_EE12_Vector_implC2ERKS2_, .-_ZNSt12_Vector_baseISt4pairIiiESaIS1_EE12_Vector_implC2ERKS2_
	.weak	_ZNSt12_Vector_baseISt4pairIiiESaIS1_EE12_Vector_implC1ERKS2_
	.set	_ZNSt12_Vector_baseISt4pairIiiESaIS1_EE12_Vector_implC1ERKS2_,_ZNSt12_Vector_baseISt4pairIiiESaIS1_EE12_Vector_implC2ERKS2_
	.section	.text._ZNSt12_Vector_baseISt4pairIiiESaIS1_EE17_M_create_storageEm,"axG",@progbits,_ZNSt12_Vector_baseISt4pairIiiESaIS1_EE17_M_create_storageEm,comdat
	.align 2
	.weak	_ZNSt12_Vector_baseISt4pairIiiESaIS1_EE17_M_create_storageEm
	.type	_ZNSt12_Vector_baseISt4pairIiiESaIS1_EE17_M_create_storageEm, @function
_ZNSt12_Vector_baseISt4pairIiiESaIS1_EE17_M_create_storageEm:
.LFB11030:
	.cfi_startproc
	endbr64
	push	rbp
	.cfi_def_cfa_offset 16
	.cfi_offset 6, -16
	mov	rbp, rsp
	.cfi_def_cfa_register 6
	sub	rsp, 16
	mov	QWORD PTR -8[rbp], rdi
	mov	QWORD PTR -16[rbp], rsi
	mov	rdx, QWORD PTR -16[rbp]
	mov	rax, QWORD PTR -8[rbp]
	mov	rsi, rdx
	mov	rdi, rax
	call	_ZNSt12_Vector_baseISt4pairIiiESaIS1_EE11_M_allocateEm
	mov	rdx, QWORD PTR -8[rbp]
	mov	QWORD PTR [rdx], rax
	mov	rax, QWORD PTR -8[rbp]
	mov	rdx, QWORD PTR [rax]
	mov	rax, QWORD PTR -8[rbp]
	mov	QWORD PTR 8[rax], rdx
	mov	rax, QWORD PTR -8[rbp]
	mov	rdx, QWORD PTR [rax]
	mov	rax, QWORD PTR -16[rbp]
	sal	rax, 3
	add	rdx, rax
	mov	rax, QWORD PTR -8[rbp]
	mov	QWORD PTR 16[rax], rdx
	nop
	leave
	.cfi_def_cfa 7, 8
	ret
	.cfi_endproc
.LFE11030:
	.size	_ZNSt12_Vector_baseISt4pairIiiESaIS1_EE17_M_create_storageEm, .-_ZNSt12_Vector_baseISt4pairIiiESaIS1_EE17_M_create_storageEm
	.section	.text._ZNSt12_Vector_baseISt4pairIiiESaIS1_EE13_M_deallocateEPS1_m,"axG",@progbits,_ZNSt12_Vector_baseISt4pairIiiESaIS1_EE13_M_deallocateEPS1_m,comdat
	.align 2
	.weak	_ZNSt12_Vector_baseISt4pairIiiESaIS1_EE13_M_deallocateEPS1_m
	.type	_ZNSt12_Vector_baseISt4pairIiiESaIS1_EE13_M_deallocateEPS1_m, @function
_ZNSt12_Vector_baseISt4pairIiiESaIS1_EE13_M_deallocateEPS1_m:
.LFB11031:
	.cfi_startproc
	endbr64
	push	rbp
	.cfi_def_cfa_offset 16
	.cfi_offset 6, -16
	mov	rbp, rsp
	.cfi_def_cfa_register 6
	sub	rsp, 32
	mov	QWORD PTR -8[rbp], rdi
	mov	QWORD PTR -16[rbp], rsi
	mov	QWORD PTR -24[rbp], rdx
	cmp	QWORD PTR -16[rbp], 0
	je	.L70
	mov	rax, QWORD PTR -8[rbp]
	mov	rdx, QWORD PTR -24[rbp]
	mov	rcx, QWORD PTR -16[rbp]
	mov	rsi, rcx
	mov	rdi, rax
	call	_ZNSt16allocator_traitsISaISt4pairIiiEEE10deallocateERS2_PS1_m
.L70:
	nop
	leave
	.cfi_def_cfa 7, 8
	ret
	.cfi_endproc
.LFE11031:
	.size	_ZNSt12_Vector_baseISt4pairIiiESaIS1_EE13_M_deallocateEPS1_m, .-_ZNSt12_Vector_baseISt4pairIiiESaIS1_EE13_M_deallocateEPS1_m
	.section	.text._ZSt27__uninitialized_default_n_aIPSt4pairIiiEmS1_ET_S3_T0_RSaIT1_E,"axG",@progbits,_ZSt27__uninitialized_default_n_aIPSt4pairIiiEmS1_ET_S3_T0_RSaIT1_E,comdat
	.weak	_ZSt27__uninitialized_default_n_aIPSt4pairIiiEmS1_ET_S3_T0_RSaIT1_E
	.type	_ZSt27__uninitialized_default_n_aIPSt4pairIiiEmS1_ET_S3_T0_RSaIT1_E, @function
_ZSt27__uninitialized_default_n_aIPSt4pairIiiEmS1_ET_S3_T0_RSaIT1_E:
.LFB11032:
	.cfi_startproc
	endbr64
	push	rbp
	.cfi_def_cfa_offset 16
	.cfi_offset 6, -16
	mov	rbp, rsp
	.cfi_def_cfa_register 6
	sub	rsp, 32
	mov	QWORD PTR -8[rbp], rdi
	mov	QWORD PTR -16[rbp], rsi
	mov	QWORD PTR -24[rbp], rdx
	mov	rdx, QWORD PTR -16[rbp]
	mov	rax, QWORD PTR -8[rbp]
	mov	rsi, rdx
	mov	rdi, rax
	call	_ZSt25__uninitialized_default_nIPSt4pairIiiEmET_S3_T0_
	leave
	.cfi_def_cfa 7, 8
	ret
	.cfi_endproc
.LFE11032:
	.size	_ZSt27__uninitialized_default_n_aIPSt4pairIiiEmS1_ET_S3_T0_RSaIT1_E, .-_ZSt27__uninitialized_default_n_aIPSt4pairIiiEmS1_ET_S3_T0_RSaIT1_E
	.section	.text._ZSt8_DestroyIPSt4pairIiiEEvT_S3_,"axG",@progbits,_ZSt8_DestroyIPSt4pairIiiEEvT_S3_,comdat
	.weak	_ZSt8_DestroyIPSt4pairIiiEEvT_S3_
	.type	_ZSt8_DestroyIPSt4pairIiiEEvT_S3_, @function
_ZSt8_DestroyIPSt4pairIiiEEvT_S3_:
.LFB11033:
	.cfi_startproc
	endbr64
	push	rbp
	.cfi_def_cfa_offset 16
	.cfi_offset 6, -16
	mov	rbp, rsp
	.cfi_def_cfa_register 6
	sub	rsp, 16
	mov	QWORD PTR -8[rbp], rdi
	mov	QWORD PTR -16[rbp], rsi
	mov	rdx, QWORD PTR -16[rbp]
	mov	rax, QWORD PTR -8[rbp]
	mov	rsi, rdx
	mov	rdi, rax
	call	_ZNSt12_Destroy_auxILb1EE9__destroyIPSt4pairIiiEEEvT_S5_
	nop
	leave
	.cfi_def_cfa 7, 8
	ret
	.cfi_endproc
.LFE11033:
	.size	_ZSt8_DestroyIPSt4pairIiiEEvT_S3_, .-_ZSt8_DestroyIPSt4pairIiiEEvT_S3_
	.section	.text._ZN9__gnu_cxxneIPSt4pairIiiESt6vectorIS2_SaIS2_EEEEbRKNS_17__normal_iteratorIT_T0_EESC_,"axG",@progbits,_ZN9__gnu_cxxneIPSt4pairIiiESt6vectorIS2_SaIS2_EEEEbRKNS_17__normal_iteratorIT_T0_EESC_,comdat
	.weak	_ZN9__gnu_cxxneIPSt4pairIiiESt6vectorIS2_SaIS2_EEEEbRKNS_17__normal_iteratorIT_T0_EESC_
	.type	_ZN9__gnu_cxxneIPSt4pairIiiESt6vectorIS2_SaIS2_EEEEbRKNS_17__normal_iteratorIT_T0_EESC_, @function
_ZN9__gnu_cxxneIPSt4pairIiiESt6vectorIS2_SaIS2_EEEEbRKNS_17__normal_iteratorIT_T0_EESC_:
.LFB11035:
	.cfi_startproc
	endbr64
	push	rbp
	.cfi_def_cfa_offset 16
	.cfi_offset 6, -16
	mov	rbp, rsp
	.cfi_def_cfa_register 6
	push	rbx
	sub	rsp, 24
	.cfi_offset 3, -24
	mov	QWORD PTR -24[rbp], rdi
	mov	QWORD PTR -32[rbp], rsi
	mov	rax, QWORD PTR -24[rbp]
	mov	rdi, rax
	call	_ZNK9__gnu_cxx17__normal_iteratorIPSt4pairIiiESt6vectorIS2_SaIS2_EEE4baseEv
	mov	rbx, QWORD PTR [rax]
	mov	rax, QWORD PTR -32[rbp]
	mov	rdi, rax
	call	_ZNK9__gnu_cxx17__normal_iteratorIPSt4pairIiiESt6vectorIS2_SaIS2_EEE4baseEv
	mov	rax, QWORD PTR [rax]
	cmp	rbx, rax
	setne	al
	mov	rbx, QWORD PTR -8[rbp]
	leave
	.cfi_def_cfa 7, 8
	ret
	.cfi_endproc
.LFE11035:
	.size	_ZN9__gnu_cxxneIPSt4pairIiiESt6vectorIS2_SaIS2_EEEEbRKNS_17__normal_iteratorIT_T0_EESC_, .-_ZN9__gnu_cxxneIPSt4pairIiiESt6vectorIS2_SaIS2_EEEEbRKNS_17__normal_iteratorIT_T0_EESC_
	.section	.text._ZN9__gnu_cxxmiIPSt4pairIiiESt6vectorIS2_SaIS2_EEEENS_17__normal_iteratorIT_T0_E15difference_typeERKSA_SD_,"axG",@progbits,_ZN9__gnu_cxxmiIPSt4pairIiiESt6vectorIS2_SaIS2_EEEENS_17__normal_iteratorIT_T0_E15difference_typeERKSA_SD_,comdat
	.weak	_ZN9__gnu_cxxmiIPSt4pairIiiESt6vectorIS2_SaIS2_EEEENS_17__normal_iteratorIT_T0_E15difference_typeERKSA_SD_
	.type	_ZN9__gnu_cxxmiIPSt4pairIiiESt6vectorIS2_SaIS2_EEEENS_17__normal_iteratorIT_T0_E15difference_typeERKSA_SD_, @function
_ZN9__gnu_cxxmiIPSt4pairIiiESt6vectorIS2_SaIS2_EEEENS_17__normal_iteratorIT_T0_E15difference_typeERKSA_SD_:
.LFB11036:
	.cfi_startproc
	endbr64
	push	rbp
	.cfi_def_cfa_offset 16
	.cfi_offset 6, -16
	mov	rbp, rsp
	.cfi_def_cfa_register 6
	push	rbx
	sub	rsp, 24
	.cfi_offset 3, -24
	mov	QWORD PTR -24[rbp], rdi
	mov	QWORD PTR -32[rbp], rsi
	mov	rax, QWORD PTR -24[rbp]
	mov	rdi, rax
	call	_ZNK9__gnu_cxx17__normal_iteratorIPSt4pairIiiESt6vectorIS2_SaIS2_EEE4baseEv
	mov	rbx, QWORD PTR [rax]
	mov	rax, QWORD PTR -32[rbp]
	mov	rdi, rax
	call	_ZNK9__gnu_cxx17__normal_iteratorIPSt4pairIiiESt6vectorIS2_SaIS2_EEE4baseEv
	mov	rdx, QWORD PTR [rax]
	mov	rax, rbx
	sub	rax, rdx
	sar	rax, 3
	mov	rbx, QWORD PTR -8[rbp]
	leave
	.cfi_def_cfa 7, 8
	ret
	.cfi_endproc
.LFE11036:
	.size	_ZN9__gnu_cxxmiIPSt4pairIiiESt6vectorIS2_SaIS2_EEEENS_17__normal_iteratorIT_T0_E15difference_typeERKSA_SD_, .-_ZN9__gnu_cxxmiIPSt4pairIiiESt6vectorIS2_SaIS2_EEEENS_17__normal_iteratorIT_T0_E15difference_typeERKSA_SD_
	.section	.text._ZSt16__introsort_loopIN9__gnu_cxx17__normal_iteratorIPSt4pairIiiESt6vectorIS3_SaIS3_EEEElNS0_5__ops15_Iter_less_iterEEvT_SB_T0_T1_,"axG",@progbits,_ZSt16__introsort_loopIN9__gnu_cxx17__normal_iteratorIPSt4pairIiiESt6vectorIS3_SaIS3_EEEElNS0_5__ops15_Iter_less_iterEEvT_SB_T0_T1_,comdat
	.weak	_ZSt16__introsort_loopIN9__gnu_cxx17__normal_iteratorIPSt4pairIiiESt6vectorIS3_SaIS3_EEEElNS0_5__ops15_Iter_less_iterEEvT_SB_T0_T1_
	.type	_ZSt16__introsort_loopIN9__gnu_cxx17__normal_iteratorIPSt4pairIiiESt6vectorIS3_SaIS3_EEEElNS0_5__ops15_Iter_less_iterEEvT_SB_T0_T1_, @function
_ZSt16__introsort_loopIN9__gnu_cxx17__normal_iteratorIPSt4pairIiiESt6vectorIS3_SaIS3_EEEElNS0_5__ops15_Iter_less_iterEEvT_SB_T0_T1_:
.LFB11037:
	.cfi_startproc
	endbr64
	push	rbp
	.cfi_def_cfa_offset 16
	.cfi_offset 6, -16
	mov	rbp, rsp
	.cfi_def_cfa_register 6
	sub	rsp, 48
	mov	QWORD PTR -24[rbp], rdi
	mov	QWORD PTR -32[rbp], rsi
	mov	QWORD PTR -40[rbp], rdx
	mov	rax, QWORD PTR fs:40
	mov	QWORD PTR -8[rbp], rax
	xor	eax, eax
	jmp	.L79
.L82:
	cmp	QWORD PTR -40[rbp], 0
	jne	.L80
	mov	rdx, QWORD PTR -32[rbp]
	mov	rcx, QWORD PTR -32[rbp]
	mov	rax, QWORD PTR -24[rbp]
	mov	rsi, rcx
	mov	rdi, rax
	call	_ZSt14__partial_sortIN9__gnu_cxx17__normal_iteratorIPSt4pairIiiESt6vectorIS3_SaIS3_EEEENS0_5__ops15_Iter_less_iterEEvT_SB_SB_T0_
	jmp	.L78
.L80:
	sub	QWORD PTR -40[rbp], 1
	mov	rdx, QWORD PTR -32[rbp]
	mov	rax, QWORD PTR -24[rbp]
	mov	rsi, rdx
	mov	rdi, rax
	call	_ZSt27__unguarded_partition_pivotIN9__gnu_cxx17__normal_iteratorIPSt4pairIiiESt6vectorIS3_SaIS3_EEEENS0_5__ops15_Iter_less_iterEET_SB_SB_T0_
	mov	QWORD PTR -16[rbp], rax
	mov	rdx, QWORD PTR -40[rbp]
	mov	rcx, QWORD PTR -32[rbp]
	mov	rax, QWORD PTR -16[rbp]
	mov	rsi, rcx
	mov	rdi, rax
	call	_ZSt16__introsort_loopIN9__gnu_cxx17__normal_iteratorIPSt4pairIiiESt6vectorIS3_SaIS3_EEEElNS0_5__ops15_Iter_less_iterEEvT_SB_T0_T1_
	mov	rax, QWORD PTR -16[rbp]
	mov	QWORD PTR -32[rbp], rax
.L79:
	lea	rdx, -24[rbp]
	lea	rax, -32[rbp]
	mov	rsi, rdx
	mov	rdi, rax
	call	_ZN9__gnu_cxxmiIPSt4pairIiiESt6vectorIS2_SaIS2_EEEENS_17__normal_iteratorIT_T0_E15difference_typeERKSA_SD_
	cmp	rax, 16
	setg	al
	test	al, al
	jne	.L82
.L78:
	mov	rax, QWORD PTR -8[rbp]
	sub	rax, QWORD PTR fs:40
	je	.L83
	call	__stack_chk_fail@PLT
.L83:
	leave
	.cfi_def_cfa 7, 8
	ret
	.cfi_endproc
.LFE11037:
	.size	_ZSt16__introsort_loopIN9__gnu_cxx17__normal_iteratorIPSt4pairIiiESt6vectorIS3_SaIS3_EEEElNS0_5__ops15_Iter_less_iterEEvT_SB_T0_T1_, .-_ZSt16__introsort_loopIN9__gnu_cxx17__normal_iteratorIPSt4pairIiiESt6vectorIS3_SaIS3_EEEElNS0_5__ops15_Iter_less_iterEEvT_SB_T0_T1_
	.section	.text._ZSt22__final_insertion_sortIN9__gnu_cxx17__normal_iteratorIPSt4pairIiiESt6vectorIS3_SaIS3_EEEENS0_5__ops15_Iter_less_iterEEvT_SB_T0_,"axG",@progbits,_ZSt22__final_insertion_sortIN9__gnu_cxx17__normal_iteratorIPSt4pairIiiESt6vectorIS3_SaIS3_EEEENS0_5__ops15_Iter_less_iterEEvT_SB_T0_,comdat
	.weak	_ZSt22__final_insertion_sortIN9__gnu_cxx17__normal_iteratorIPSt4pairIiiESt6vectorIS3_SaIS3_EEEENS0_5__ops15_Iter_less_iterEEvT_SB_T0_
	.type	_ZSt22__final_insertion_sortIN9__gnu_cxx17__normal_iteratorIPSt4pairIiiESt6vectorIS3_SaIS3_EEEENS0_5__ops15_Iter_less_iterEEvT_SB_T0_, @function
_ZSt22__final_insertion_sortIN9__gnu_cxx17__normal_iteratorIPSt4pairIiiESt6vectorIS3_SaIS3_EEEENS0_5__ops15_Iter_less_iterEEvT_SB_T0_:
.LFB11038:
	.cfi_startproc
	endbr64
	push	rbp
	.cfi_def_cfa_offset 16
	.cfi_offset 6, -16
	mov	rbp, rsp
	.cfi_def_cfa_register 6
	sub	rsp, 32
	mov	QWORD PTR -8[rbp], rdi
	mov	QWORD PTR -16[rbp], rsi
	lea	rdx, -8[rbp]
	lea	rax, -16[rbp]
	mov	rsi, rdx
	mov	rdi, rax
	call	_ZN9__gnu_cxxmiIPSt4pairIiiESt6vectorIS2_SaIS2_EEEENS_17__normal_iteratorIT_T0_E15difference_typeERKSA_SD_
	cmp	rax, 16
	setg	al
	test	al, al
	je	.L85
	lea	rax, -8[rbp]
	mov	esi, 16
	mov	rdi, rax
	call	_ZNK9__gnu_cxx17__normal_iteratorIPSt4pairIiiESt6vectorIS2_SaIS2_EEEplEl
	mov	rdx, rax
	mov	rax, QWORD PTR -8[rbp]
	mov	rsi, rdx
	mov	rdi, rax
	call	_ZSt16__insertion_sortIN9__gnu_cxx17__normal_iteratorIPSt4pairIiiESt6vectorIS3_SaIS3_EEEENS0_5__ops15_Iter_less_iterEEvT_SB_T0_
	lea	rax, -8[rbp]
	mov	esi, 16
	mov	rdi, rax
	call	_ZNK9__gnu_cxx17__normal_iteratorIPSt4pairIiiESt6vectorIS2_SaIS2_EEEplEl
	mov	rdx, rax
	mov	rax, QWORD PTR -16[rbp]
	mov	rsi, rax
	mov	rdi, rdx
	call	_ZSt26__unguarded_insertion_sortIN9__gnu_cxx17__normal_iteratorIPSt4pairIiiESt6vectorIS3_SaIS3_EEEENS0_5__ops15_Iter_less_iterEEvT_SB_T0_
	jmp	.L87
.L85:
	mov	rdx, QWORD PTR -16[rbp]
	mov	rax, QWORD PTR -8[rbp]
	mov	rsi, rdx
	mov	rdi, rax
	call	_ZSt16__insertion_sortIN9__gnu_cxx17__normal_iteratorIPSt4pairIiiESt6vectorIS3_SaIS3_EEEENS0_5__ops15_Iter_less_iterEEvT_SB_T0_
.L87:
	nop
	leave
	.cfi_def_cfa 7, 8
	ret
	.cfi_endproc
.LFE11038:
	.size	_ZSt22__final_insertion_sortIN9__gnu_cxx17__normal_iteratorIPSt4pairIiiESt6vectorIS3_SaIS3_EEEENS0_5__ops15_Iter_less_iterEEvT_SB_T0_, .-_ZSt22__final_insertion_sortIN9__gnu_cxx17__normal_iteratorIPSt4pairIiiESt6vectorIS3_SaIS3_EEEENS0_5__ops15_Iter_less_iterEEvT_SB_T0_
	.section	.text._ZNSt16allocator_traitsISaISt4pairIiiEEE8max_sizeERKS2_,"axG",@progbits,_ZNSt16allocator_traitsISaISt4pairIiiEEE8max_sizeERKS2_,comdat
	.weak	_ZNSt16allocator_traitsISaISt4pairIiiEEE8max_sizeERKS2_
	.type	_ZNSt16allocator_traitsISaISt4pairIiiEEE8max_sizeERKS2_, @function
_ZNSt16allocator_traitsISaISt4pairIiiEEE8max_sizeERKS2_:
.LFB11176:
	.cfi_startproc
	endbr64
	push	rbp
	.cfi_def_cfa_offset 16
	.cfi_offset 6, -16
	mov	rbp, rsp
	.cfi_def_cfa_register 6
	sub	rsp, 16
	mov	QWORD PTR -8[rbp], rdi
	mov	rax, QWORD PTR -8[rbp]
	mov	rdi, rax
	call	_ZNK9__gnu_cxx13new_allocatorISt4pairIiiEE8max_sizeEv
	leave
	.cfi_def_cfa 7, 8
	ret
	.cfi_endproc
.LFE11176:
	.size	_ZNSt16allocator_traitsISaISt4pairIiiEEE8max_sizeERKS2_, .-_ZNSt16allocator_traitsISaISt4pairIiiEEE8max_sizeERKS2_
	.section	.text._ZN9__gnu_cxx13new_allocatorISt4pairIiiEEC2ERKS3_,"axG",@progbits,_ZN9__gnu_cxx13new_allocatorISt4pairIiiEEC5ERKS3_,comdat
	.align 2
	.weak	_ZN9__gnu_cxx13new_allocatorISt4pairIiiEEC2ERKS3_
	.type	_ZN9__gnu_cxx13new_allocatorISt4pairIiiEEC2ERKS3_, @function
_ZN9__gnu_cxx13new_allocatorISt4pairIiiEEC2ERKS3_:
.LFB11178:
	.cfi_startproc
	endbr64
	push	rbp
	.cfi_def_cfa_offset 16
	.cfi_offset 6, -16
	mov	rbp, rsp
	.cfi_def_cfa_register 6
	mov	QWORD PTR -8[rbp], rdi
	mov	QWORD PTR -16[rbp], rsi
	nop
	pop	rbp
	.cfi_def_cfa 7, 8
	ret
	.cfi_endproc
.LFE11178:
	.size	_ZN9__gnu_cxx13new_allocatorISt4pairIiiEEC2ERKS3_, .-_ZN9__gnu_cxx13new_allocatorISt4pairIiiEEC2ERKS3_
	.weak	_ZN9__gnu_cxx13new_allocatorISt4pairIiiEEC1ERKS3_
	.set	_ZN9__gnu_cxx13new_allocatorISt4pairIiiEEC1ERKS3_,_ZN9__gnu_cxx13new_allocatorISt4pairIiiEEC2ERKS3_
	.section	.text._ZNSt12_Vector_baseISt4pairIiiESaIS1_EE17_Vector_impl_dataC2Ev,"axG",@progbits,_ZNSt12_Vector_baseISt4pairIiiESaIS1_EE17_Vector_impl_dataC5Ev,comdat
	.align 2
	.weak	_ZNSt12_Vector_baseISt4pairIiiESaIS1_EE17_Vector_impl_dataC2Ev
	.type	_ZNSt12_Vector_baseISt4pairIiiESaIS1_EE17_Vector_impl_dataC2Ev, @function
_ZNSt12_Vector_baseISt4pairIiiESaIS1_EE17_Vector_impl_dataC2Ev:
.LFB11181:
	.cfi_startproc
	endbr64
	push	rbp
	.cfi_def_cfa_offset 16
	.cfi_offset 6, -16
	mov	rbp, rsp
	.cfi_def_cfa_register 6
	mov	QWORD PTR -8[rbp], rdi
	mov	rax, QWORD PTR -8[rbp]
	mov	QWORD PTR [rax], 0
	mov	rax, QWORD PTR -8[rbp]
	mov	QWORD PTR 8[rax], 0
	mov	rax, QWORD PTR -8[rbp]
	mov	QWORD PTR 16[rax], 0
	nop
	pop	rbp
	.cfi_def_cfa 7, 8
	ret
	.cfi_endproc
.LFE11181:
	.size	_ZNSt12_Vector_baseISt4pairIiiESaIS1_EE17_Vector_impl_dataC2Ev, .-_ZNSt12_Vector_baseISt4pairIiiESaIS1_EE17_Vector_impl_dataC2Ev
	.weak	_ZNSt12_Vector_baseISt4pairIiiESaIS1_EE17_Vector_impl_dataC1Ev
	.set	_ZNSt12_Vector_baseISt4pairIiiESaIS1_EE17_Vector_impl_dataC1Ev,_ZNSt12_Vector_baseISt4pairIiiESaIS1_EE17_Vector_impl_dataC2Ev
	.section	.text._ZNSt12_Vector_baseISt4pairIiiESaIS1_EE11_M_allocateEm,"axG",@progbits,_ZNSt12_Vector_baseISt4pairIiiESaIS1_EE11_M_allocateEm,comdat
	.align 2
	.weak	_ZNSt12_Vector_baseISt4pairIiiESaIS1_EE11_M_allocateEm
	.type	_ZNSt12_Vector_baseISt4pairIiiESaIS1_EE11_M_allocateEm, @function
_ZNSt12_Vector_baseISt4pairIiiESaIS1_EE11_M_allocateEm:
.LFB11183:
	.cfi_startproc
	endbr64
	push	rbp
	.cfi_def_cfa_offset 16
	.cfi_offset 6, -16
	mov	rbp, rsp
	.cfi_def_cfa_register 6
	sub	rsp, 16
	mov	QWORD PTR -8[rbp], rdi
	mov	QWORD PTR -16[rbp], rsi
	cmp	QWORD PTR -16[rbp], 0
	je	.L93
	mov	rax, QWORD PTR -8[rbp]
	mov	rdx, QWORD PTR -16[rbp]
	mov	rsi, rdx
	mov	rdi, rax
	call	_ZNSt16allocator_traitsISaISt4pairIiiEEE8allocateERS2_m
	jmp	.L95
.L93:
	mov	eax, 0
.L95:
	leave
	.cfi_def_cfa 7, 8
	ret
	.cfi_endproc
.LFE11183:
	.size	_ZNSt12_Vector_baseISt4pairIiiESaIS1_EE11_M_allocateEm, .-_ZNSt12_Vector_baseISt4pairIiiESaIS1_EE11_M_allocateEm
	.section	.text._ZNSt16allocator_traitsISaISt4pairIiiEEE10deallocateERS2_PS1_m,"axG",@progbits,_ZNSt16allocator_traitsISaISt4pairIiiEEE10deallocateERS2_PS1_m,comdat
	.weak	_ZNSt16allocator_traitsISaISt4pairIiiEEE10deallocateERS2_PS1_m
	.type	_ZNSt16allocator_traitsISaISt4pairIiiEEE10deallocateERS2_PS1_m, @function
_ZNSt16allocator_traitsISaISt4pairIiiEEE10deallocateERS2_PS1_m:
.LFB11184:
	.cfi_startproc
	endbr64
	push	rbp
	.cfi_def_cfa_offset 16
	.cfi_offset 6, -16
	mov	rbp, rsp
	.cfi_def_cfa_register 6
	sub	rsp, 32
	mov	QWORD PTR -8[rbp], rdi
	mov	QWORD PTR -16[rbp], rsi
	mov	QWORD PTR -24[rbp], rdx
	mov	rdx, QWORD PTR -24[rbp]
	mov	rcx, QWORD PTR -16[rbp]
	mov	rax, QWORD PTR -8[rbp]
	mov	rsi, rcx
	mov	rdi, rax
	call	_ZN9__gnu_cxx13new_allocatorISt4pairIiiEE10deallocateEPS2_m
	nop
	leave
	.cfi_def_cfa 7, 8
	ret
	.cfi_endproc
.LFE11184:
	.size	_ZNSt16allocator_traitsISaISt4pairIiiEEE10deallocateERS2_PS1_m, .-_ZNSt16allocator_traitsISaISt4pairIiiEEE10deallocateERS2_PS1_m
	.section	.text._ZSt25__uninitialized_default_nIPSt4pairIiiEmET_S3_T0_,"axG",@progbits,_ZSt25__uninitialized_default_nIPSt4pairIiiEmET_S3_T0_,comdat
	.weak	_ZSt25__uninitialized_default_nIPSt4pairIiiEmET_S3_T0_
	.type	_ZSt25__uninitialized_default_nIPSt4pairIiiEmET_S3_T0_, @function
_ZSt25__uninitialized_default_nIPSt4pairIiiEmET_S3_T0_:
.LFB11185:
	.cfi_startproc
	endbr64
	push	rbp
	.cfi_def_cfa_offset 16
	.cfi_offset 6, -16
	mov	rbp, rsp
	.cfi_def_cfa_register 6
	sub	rsp, 32
	mov	QWORD PTR -24[rbp], rdi
	mov	QWORD PTR -32[rbp], rsi
	mov	BYTE PTR -1[rbp], 1
	mov	rdx, QWORD PTR -32[rbp]
	mov	rax, QWORD PTR -24[rbp]
	mov	rsi, rdx
	mov	rdi, rax
	call	_ZNSt27__uninitialized_default_n_1ILb0EE18__uninit_default_nIPSt4pairIiiEmEET_S5_T0_
	leave
	.cfi_def_cfa 7, 8
	ret
	.cfi_endproc
.LFE11185:
	.size	_ZSt25__uninitialized_default_nIPSt4pairIiiEmET_S3_T0_, .-_ZSt25__uninitialized_default_nIPSt4pairIiiEmET_S3_T0_
	.section	.text._ZNSt12_Destroy_auxILb1EE9__destroyIPSt4pairIiiEEEvT_S5_,"axG",@progbits,_ZNSt12_Destroy_auxILb1EE9__destroyIPSt4pairIiiEEEvT_S5_,comdat
	.weak	_ZNSt12_Destroy_auxILb1EE9__destroyIPSt4pairIiiEEEvT_S5_
	.type	_ZNSt12_Destroy_auxILb1EE9__destroyIPSt4pairIiiEEEvT_S5_, @function
_ZNSt12_Destroy_auxILb1EE9__destroyIPSt4pairIiiEEEvT_S5_:
.LFB11186:
	.cfi_startproc
	endbr64
	push	rbp
	.cfi_def_cfa_offset 16
	.cfi_offset 6, -16
	mov	rbp, rsp
	.cfi_def_cfa_register 6
	mov	QWORD PTR -8[rbp], rdi
	mov	QWORD PTR -16[rbp], rsi
	nop
	pop	rbp
	.cfi_def_cfa 7, 8
	ret
	.cfi_endproc
.LFE11186:
	.size	_ZNSt12_Destroy_auxILb1EE9__destroyIPSt4pairIiiEEEvT_S5_, .-_ZNSt12_Destroy_auxILb1EE9__destroyIPSt4pairIiiEEEvT_S5_
	.section	.text._ZNK9__gnu_cxx17__normal_iteratorIPSt4pairIiiESt6vectorIS2_SaIS2_EEE4baseEv,"axG",@progbits,_ZNK9__gnu_cxx17__normal_iteratorIPSt4pairIiiESt6vectorIS2_SaIS2_EEE4baseEv,comdat
	.align 2
	.weak	_ZNK9__gnu_cxx17__normal_iteratorIPSt4pairIiiESt6vectorIS2_SaIS2_EEE4baseEv
	.type	_ZNK9__gnu_cxx17__normal_iteratorIPSt4pairIiiESt6vectorIS2_SaIS2_EEE4baseEv, @function
_ZNK9__gnu_cxx17__normal_iteratorIPSt4pairIiiESt6vectorIS2_SaIS2_EEE4baseEv:
.LFB11187:
	.cfi_startproc
	endbr64
	push	rbp
	.cfi_def_cfa_offset 16
	.cfi_offset 6, -16
	mov	rbp, rsp
	.cfi_def_cfa_register 6
	mov	QWORD PTR -8[rbp], rdi
	mov	rax, QWORD PTR -8[rbp]
	pop	rbp
	.cfi_def_cfa 7, 8
	ret
	.cfi_endproc
.LFE11187:
	.size	_ZNK9__gnu_cxx17__normal_iteratorIPSt4pairIiiESt6vectorIS2_SaIS2_EEE4baseEv, .-_ZNK9__gnu_cxx17__normal_iteratorIPSt4pairIiiESt6vectorIS2_SaIS2_EEE4baseEv
	.section	.text._ZSt14__partial_sortIN9__gnu_cxx17__normal_iteratorIPSt4pairIiiESt6vectorIS3_SaIS3_EEEENS0_5__ops15_Iter_less_iterEEvT_SB_SB_T0_,"axG",@progbits,_ZSt14__partial_sortIN9__gnu_cxx17__normal_iteratorIPSt4pairIiiESt6vectorIS3_SaIS3_EEEENS0_5__ops15_Iter_less_iterEEvT_SB_SB_T0_,comdat
	.weak	_ZSt14__partial_sortIN9__gnu_cxx17__normal_iteratorIPSt4pairIiiESt6vectorIS3_SaIS3_EEEENS0_5__ops15_Iter_less_iterEEvT_SB_SB_T0_
	.type	_ZSt14__partial_sortIN9__gnu_cxx17__normal_iteratorIPSt4pairIiiESt6vectorIS3_SaIS3_EEEENS0_5__ops15_Iter_less_iterEEvT_SB_SB_T0_, @function
_ZSt14__partial_sortIN9__gnu_cxx17__normal_iteratorIPSt4pairIiiESt6vectorIS3_SaIS3_EEEENS0_5__ops15_Iter_less_iterEEvT_SB_SB_T0_:
.LFB11188:
	.cfi_startproc
	endbr64
	push	rbp
	.cfi_def_cfa_offset 16
	.cfi_offset 6, -16
	mov	rbp, rsp
	.cfi_def_cfa_register 6
	sub	rsp, 32
	mov	QWORD PTR -8[rbp], rdi
	mov	QWORD PTR -16[rbp], rsi
	mov	QWORD PTR -24[rbp], rdx
	mov	rdx, QWORD PTR -24[rbp]
	mov	rcx, QWORD PTR -16[rbp]
	mov	rax, QWORD PTR -8[rbp]
	mov	rsi, rcx
	mov	rdi, rax
	call	_ZSt13__heap_selectIN9__gnu_cxx17__normal_iteratorIPSt4pairIiiESt6vectorIS3_SaIS3_EEEENS0_5__ops15_Iter_less_iterEEvT_SB_SB_T0_
	lea	rdx, -25[rbp]
	mov	rcx, QWORD PTR -16[rbp]
	mov	rax, QWORD PTR -8[rbp]
	mov	rsi, rcx
	mov	rdi, rax
	call	_ZSt11__sort_heapIN9__gnu_cxx17__normal_iteratorIPSt4pairIiiESt6vectorIS3_SaIS3_EEEENS0_5__ops15_Iter_less_iterEEvT_SB_RT0_
	nop
	leave
	.cfi_def_cfa 7, 8
	ret
	.cfi_endproc
.LFE11188:
	.size	_ZSt14__partial_sortIN9__gnu_cxx17__normal_iteratorIPSt4pairIiiESt6vectorIS3_SaIS3_EEEENS0_5__ops15_Iter_less_iterEEvT_SB_SB_T0_, .-_ZSt14__partial_sortIN9__gnu_cxx17__normal_iteratorIPSt4pairIiiESt6vectorIS3_SaIS3_EEEENS0_5__ops15_Iter_less_iterEEvT_SB_SB_T0_
	.section	.text._ZSt27__unguarded_partition_pivotIN9__gnu_cxx17__normal_iteratorIPSt4pairIiiESt6vectorIS3_SaIS3_EEEENS0_5__ops15_Iter_less_iterEET_SB_SB_T0_,"axG",@progbits,_ZSt27__unguarded_partition_pivotIN9__gnu_cxx17__normal_iteratorIPSt4pairIiiESt6vectorIS3_SaIS3_EEEENS0_5__ops15_Iter_less_iterEET_SB_SB_T0_,comdat
	.weak	_ZSt27__unguarded_partition_pivotIN9__gnu_cxx17__normal_iteratorIPSt4pairIiiESt6vectorIS3_SaIS3_EEEENS0_5__ops15_Iter_less_iterEET_SB_SB_T0_
	.type	_ZSt27__unguarded_partition_pivotIN9__gnu_cxx17__normal_iteratorIPSt4pairIiiESt6vectorIS3_SaIS3_EEEENS0_5__ops15_Iter_less_iterEET_SB_SB_T0_, @function
_ZSt27__unguarded_partition_pivotIN9__gnu_cxx17__normal_iteratorIPSt4pairIiiESt6vectorIS3_SaIS3_EEEENS0_5__ops15_Iter_less_iterEET_SB_SB_T0_:
.LFB11189:
	.cfi_startproc
	endbr64
	push	rbp
	.cfi_def_cfa_offset 16
	.cfi_offset 6, -16
	mov	rbp, rsp
	.cfi_def_cfa_register 6
	push	rbx
	sub	rsp, 56
	.cfi_offset 3, -24
	mov	QWORD PTR -40[rbp], rdi
	mov	QWORD PTR -48[rbp], rsi
	mov	rax, QWORD PTR fs:40
	mov	QWORD PTR -24[rbp], rax
	xor	eax, eax
	lea	rdx, -40[rbp]
	lea	rax, -48[rbp]
	mov	rsi, rdx
	mov	rdi, rax
	call	_ZN9__gnu_cxxmiIPSt4pairIiiESt6vectorIS2_SaIS2_EEEENS_17__normal_iteratorIT_T0_E15difference_typeERKSA_SD_
	mov	rdx, rax
	shr	rdx, 63
	add	rax, rdx
	sar	rax
	mov	rdx, rax
	lea	rax, -40[rbp]
	mov	rsi, rdx
	mov	rdi, rax
	call	_ZNK9__gnu_cxx17__normal_iteratorIPSt4pairIiiESt6vectorIS2_SaIS2_EEEplEl
	mov	QWORD PTR -32[rbp], rax
	lea	rax, -48[rbp]
	mov	esi, 1
	mov	rdi, rax
	call	_ZNK9__gnu_cxx17__normal_iteratorIPSt4pairIiiESt6vectorIS2_SaIS2_EEEmiEl
	mov	rbx, rax
	lea	rax, -40[rbp]
	mov	esi, 1
	mov	rdi, rax
	call	_ZNK9__gnu_cxx17__normal_iteratorIPSt4pairIiiESt6vectorIS2_SaIS2_EEEplEl
	mov	rsi, rax
	mov	rdx, QWORD PTR -32[rbp]
	mov	rax, QWORD PTR -40[rbp]
	mov	rcx, rbx
	mov	rdi, rax
	call	_ZSt22__move_median_to_firstIN9__gnu_cxx17__normal_iteratorIPSt4pairIiiESt6vectorIS3_SaIS3_EEEENS0_5__ops15_Iter_less_iterEEvT_SB_SB_SB_T0_
	lea	rax, -40[rbp]
	mov	esi, 1
	mov	rdi, rax
	call	_ZNK9__gnu_cxx17__normal_iteratorIPSt4pairIiiESt6vectorIS2_SaIS2_EEEplEl
	mov	rcx, rax
	mov	rdx, QWORD PTR -40[rbp]
	mov	rax, QWORD PTR -48[rbp]
	mov	rsi, rax
	mov	rdi, rcx
	call	_ZSt21__unguarded_partitionIN9__gnu_cxx17__normal_iteratorIPSt4pairIiiESt6vectorIS3_SaIS3_EEEENS0_5__ops15_Iter_less_iterEET_SB_SB_SB_T0_
	mov	rdx, QWORD PTR -24[rbp]
	sub	rdx, QWORD PTR fs:40
	je	.L105
	call	__stack_chk_fail@PLT
.L105:
	mov	rbx, QWORD PTR -8[rbp]
	leave
	.cfi_def_cfa 7, 8
	ret
	.cfi_endproc
.LFE11189:
	.size	_ZSt27__unguarded_partition_pivotIN9__gnu_cxx17__normal_iteratorIPSt4pairIiiESt6vectorIS3_SaIS3_EEEENS0_5__ops15_Iter_less_iterEET_SB_SB_T0_, .-_ZSt27__unguarded_partition_pivotIN9__gnu_cxx17__normal_iteratorIPSt4pairIiiESt6vectorIS3_SaIS3_EEEENS0_5__ops15_Iter_less_iterEET_SB_SB_T0_
	.section	.text._ZNK9__gnu_cxx17__normal_iteratorIPSt4pairIiiESt6vectorIS2_SaIS2_EEEplEl,"axG",@progbits,_ZNK9__gnu_cxx17__normal_iteratorIPSt4pairIiiESt6vectorIS2_SaIS2_EEEplEl,comdat
	.align 2
	.weak	_ZNK9__gnu_cxx17__normal_iteratorIPSt4pairIiiESt6vectorIS2_SaIS2_EEEplEl
	.type	_ZNK9__gnu_cxx17__normal_iteratorIPSt4pairIiiESt6vectorIS2_SaIS2_EEEplEl, @function
_ZNK9__gnu_cxx17__normal_iteratorIPSt4pairIiiESt6vectorIS2_SaIS2_EEEplEl:
.LFB11190:
	.cfi_startproc
	endbr64
	push	rbp
	.cfi_def_cfa_offset 16
	.cfi_offset 6, -16
	mov	rbp, rsp
	.cfi_def_cfa_register 6
	sub	rsp, 48
	mov	QWORD PTR -40[rbp], rdi
	mov	QWORD PTR -48[rbp], rsi
	mov	rax, QWORD PTR fs:40
	mov	QWORD PTR -8[rbp], rax
	xor	eax, eax
	mov	rax, QWORD PTR -40[rbp]
	mov	rdx, QWORD PTR [rax]
	mov	rax, QWORD PTR -48[rbp]
	sal	rax, 3
	add	rax, rdx
	mov	QWORD PTR -24[rbp], rax
	lea	rdx, -24[rbp]
	lea	rax, -16[rbp]
	mov	rsi, rdx
	mov	rdi, rax
	call	_ZN9__gnu_cxx17__normal_iteratorIPSt4pairIiiESt6vectorIS2_SaIS2_EEEC1ERKS3_
	mov	rax, QWORD PTR -16[rbp]
	mov	rdx, QWORD PTR -8[rbp]
	sub	rdx, QWORD PTR fs:40
	je	.L108
	call	__stack_chk_fail@PLT
.L108:
	leave
	.cfi_def_cfa 7, 8
	ret
	.cfi_endproc
.LFE11190:
	.size	_ZNK9__gnu_cxx17__normal_iteratorIPSt4pairIiiESt6vectorIS2_SaIS2_EEEplEl, .-_ZNK9__gnu_cxx17__normal_iteratorIPSt4pairIiiESt6vectorIS2_SaIS2_EEEplEl
	.section	.text._ZSt16__insertion_sortIN9__gnu_cxx17__normal_iteratorIPSt4pairIiiESt6vectorIS3_SaIS3_EEEENS0_5__ops15_Iter_less_iterEEvT_SB_T0_,"axG",@progbits,_ZSt16__insertion_sortIN9__gnu_cxx17__normal_iteratorIPSt4pairIiiESt6vectorIS3_SaIS3_EEEENS0_5__ops15_Iter_less_iterEEvT_SB_T0_,comdat
	.weak	_ZSt16__insertion_sortIN9__gnu_cxx17__normal_iteratorIPSt4pairIiiESt6vectorIS3_SaIS3_EEEENS0_5__ops15_Iter_less_iterEEvT_SB_T0_
	.type	_ZSt16__insertion_sortIN9__gnu_cxx17__normal_iteratorIPSt4pairIiiESt6vectorIS3_SaIS3_EEEENS0_5__ops15_Iter_less_iterEEvT_SB_T0_, @function
_ZSt16__insertion_sortIN9__gnu_cxx17__normal_iteratorIPSt4pairIiiESt6vectorIS3_SaIS3_EEEENS0_5__ops15_Iter_less_iterEEvT_SB_T0_:
.LFB11191:
	.cfi_startproc
	endbr64
	push	rbp
	.cfi_def_cfa_offset 16
	.cfi_offset 6, -16
	mov	rbp, rsp
	.cfi_def_cfa_register 6
	push	rbx
	sub	rsp, 72
	.cfi_offset 3, -24
	mov	QWORD PTR -56[rbp], rdi
	mov	QWORD PTR -64[rbp], rsi
	mov	rax, QWORD PTR fs:40
	mov	QWORD PTR -24[rbp], rax
	xor	eax, eax
	lea	rdx, -64[rbp]
	lea	rax, -56[rbp]
	mov	rsi, rdx
	mov	rdi, rax
	call	_ZN9__gnu_cxxeqIPSt4pairIiiESt6vectorIS2_SaIS2_EEEEbRKNS_17__normal_iteratorIT_T0_EESC_
	test	al, al
	jne	.L117
	lea	rax, -56[rbp]
	mov	esi, 1
	mov	rdi, rax
	call	_ZNK9__gnu_cxx17__normal_iteratorIPSt4pairIiiESt6vectorIS2_SaIS2_EEEplEl
	mov	QWORD PTR -40[rbp], rax
	jmp	.L112
.L115:
	mov	rdx, QWORD PTR -56[rbp]
	mov	rcx, QWORD PTR -40[rbp]
	lea	rax, -65[rbp]
	mov	rsi, rcx
	mov	rdi, rax
	call	_ZNK9__gnu_cxx5__ops15_Iter_less_iterclINS_17__normal_iteratorIPSt4pairIiiESt6vectorIS5_SaIS5_EEEESA_EEbT_T0_
	test	al, al
	je	.L113
	lea	rax, -40[rbp]
	mov	rdi, rax
	call	_ZNK9__gnu_cxx17__normal_iteratorIPSt4pairIiiESt6vectorIS2_SaIS2_EEEdeEv
	mov	rdi, rax
	call	_ZSt4moveIRSt4pairIiiEEONSt16remove_referenceIT_E4typeEOS4_
	mov	rax, QWORD PTR [rax]
	mov	QWORD PTR -32[rbp], rax
	lea	rax, -40[rbp]
	mov	esi, 1
	mov	rdi, rax
	call	_ZNK9__gnu_cxx17__normal_iteratorIPSt4pairIiiESt6vectorIS2_SaIS2_EEEplEl
	mov	rdx, rax
	mov	rcx, QWORD PTR -40[rbp]
	mov	rax, QWORD PTR -56[rbp]
	mov	rsi, rcx
	mov	rdi, rax
	call	_ZSt13move_backwardIN9__gnu_cxx17__normal_iteratorIPSt4pairIiiESt6vectorIS3_SaIS3_EEEES8_ET0_T_SA_S9_
	lea	rax, -32[rbp]
	mov	rdi, rax
	call	_ZSt4moveIRSt4pairIiiEEONSt16remove_referenceIT_E4typeEOS4_
	mov	rbx, rax
	lea	rax, -56[rbp]
	mov	rdi, rax
	call	_ZNK9__gnu_cxx17__normal_iteratorIPSt4pairIiiESt6vectorIS2_SaIS2_EEEdeEv
	mov	rsi, rbx
	mov	rdi, rax
	call	_ZNSt4pairIiiEaSEOS0_
	jmp	.L114
.L113:
	call	_ZN9__gnu_cxx5__ops15__val_comp_iterENS0_15_Iter_less_iterE
	mov	rax, QWORD PTR -40[rbp]
	mov	rdi, rax
	call	_ZSt25__unguarded_linear_insertIN9__gnu_cxx17__normal_iteratorIPSt4pairIiiESt6vectorIS3_SaIS3_EEEENS0_5__ops14_Val_less_iterEEvT_T0_
.L114:
	lea	rax, -40[rbp]
	mov	rdi, rax
	call	_ZN9__gnu_cxx17__normal_iteratorIPSt4pairIiiESt6vectorIS2_SaIS2_EEEppEv
.L112:
	lea	rdx, -64[rbp]
	lea	rax, -40[rbp]
	mov	rsi, rdx
	mov	rdi, rax
	call	_ZN9__gnu_cxxneIPSt4pairIiiESt6vectorIS2_SaIS2_EEEEbRKNS_17__normal_iteratorIT_T0_EESC_
	test	al, al
	jne	.L115
	jmp	.L109
.L117:
	nop
.L109:
	mov	rax, QWORD PTR -24[rbp]
	sub	rax, QWORD PTR fs:40
	je	.L116
	call	__stack_chk_fail@PLT
.L116:
	mov	rbx, QWORD PTR -8[rbp]
	leave
	.cfi_def_cfa 7, 8
	ret
	.cfi_endproc
.LFE11191:
	.size	_ZSt16__insertion_sortIN9__gnu_cxx17__normal_iteratorIPSt4pairIiiESt6vectorIS3_SaIS3_EEEENS0_5__ops15_Iter_less_iterEEvT_SB_T0_, .-_ZSt16__insertion_sortIN9__gnu_cxx17__normal_iteratorIPSt4pairIiiESt6vectorIS3_SaIS3_EEEENS0_5__ops15_Iter_less_iterEEvT_SB_T0_
	.section	.text._ZSt26__unguarded_insertion_sortIN9__gnu_cxx17__normal_iteratorIPSt4pairIiiESt6vectorIS3_SaIS3_EEEENS0_5__ops15_Iter_less_iterEEvT_SB_T0_,"axG",@progbits,_ZSt26__unguarded_insertion_sortIN9__gnu_cxx17__normal_iteratorIPSt4pairIiiESt6vectorIS3_SaIS3_EEEENS0_5__ops15_Iter_less_iterEEvT_SB_T0_,comdat
	.weak	_ZSt26__unguarded_insertion_sortIN9__gnu_cxx17__normal_iteratorIPSt4pairIiiESt6vectorIS3_SaIS3_EEEENS0_5__ops15_Iter_less_iterEEvT_SB_T0_
	.type	_ZSt26__unguarded_insertion_sortIN9__gnu_cxx17__normal_iteratorIPSt4pairIiiESt6vectorIS3_SaIS3_EEEENS0_5__ops15_Iter_less_iterEEvT_SB_T0_, @function
_ZSt26__unguarded_insertion_sortIN9__gnu_cxx17__normal_iteratorIPSt4pairIiiESt6vectorIS3_SaIS3_EEEENS0_5__ops15_Iter_less_iterEEvT_SB_T0_:
.LFB11192:
	.cfi_startproc
	endbr64
	push	rbp
	.cfi_def_cfa_offset 16
	.cfi_offset 6, -16
	mov	rbp, rsp
	.cfi_def_cfa_register 6
	sub	rsp, 48
	mov	QWORD PTR -24[rbp], rdi
	mov	QWORD PTR -32[rbp], rsi
	mov	rax, QWORD PTR fs:40
	mov	QWORD PTR -8[rbp], rax
	xor	eax, eax
	mov	rax, QWORD PTR -24[rbp]
	mov	QWORD PTR -16[rbp], rax
	jmp	.L119
.L120:
	call	_ZN9__gnu_cxx5__ops15__val_comp_iterENS0_15_Iter_less_iterE
	mov	rax, QWORD PTR -16[rbp]
	mov	rdi, rax
	call	_ZSt25__unguarded_linear_insertIN9__gnu_cxx17__normal_iteratorIPSt4pairIiiESt6vectorIS3_SaIS3_EEEENS0_5__ops14_Val_less_iterEEvT_T0_
	lea	rax, -16[rbp]
	mov	rdi, rax
	call	_ZN9__gnu_cxx17__normal_iteratorIPSt4pairIiiESt6vectorIS2_SaIS2_EEEppEv
.L119:
	lea	rdx, -32[rbp]
	lea	rax, -16[rbp]
	mov	rsi, rdx
	mov	rdi, rax
	call	_ZN9__gnu_cxxneIPSt4pairIiiESt6vectorIS2_SaIS2_EEEEbRKNS_17__normal_iteratorIT_T0_EESC_
	test	al, al
	jne	.L120
	nop
	mov	rax, QWORD PTR -8[rbp]
	sub	rax, QWORD PTR fs:40
	je	.L121
	call	__stack_chk_fail@PLT
.L121:
	leave
	.cfi_def_cfa 7, 8
	ret
	.cfi_endproc
.LFE11192:
	.size	_ZSt26__unguarded_insertion_sortIN9__gnu_cxx17__normal_iteratorIPSt4pairIiiESt6vectorIS3_SaIS3_EEEENS0_5__ops15_Iter_less_iterEEvT_SB_T0_, .-_ZSt26__unguarded_insertion_sortIN9__gnu_cxx17__normal_iteratorIPSt4pairIiiESt6vectorIS3_SaIS3_EEEENS0_5__ops15_Iter_less_iterEEvT_SB_T0_
	.section	.text._ZNK9__gnu_cxx13new_allocatorISt4pairIiiEE8max_sizeEv,"axG",@progbits,_ZNK9__gnu_cxx13new_allocatorISt4pairIiiEE8max_sizeEv,comdat
	.align 2
	.weak	_ZNK9__gnu_cxx13new_allocatorISt4pairIiiEE8max_sizeEv
	.type	_ZNK9__gnu_cxx13new_allocatorISt4pairIiiEE8max_sizeEv, @function
_ZNK9__gnu_cxx13new_allocatorISt4pairIiiEE8max_sizeEv:
.LFB11277:
	.cfi_startproc
	endbr64
	push	rbp
	.cfi_def_cfa_offset 16
	.cfi_offset 6, -16
	mov	rbp, rsp
	.cfi_def_cfa_register 6
	sub	rsp, 16
	mov	QWORD PTR -8[rbp], rdi
	mov	rax, QWORD PTR -8[rbp]
	mov	rdi, rax
	call	_ZNK9__gnu_cxx13new_allocatorISt4pairIiiEE11_M_max_sizeEv
	leave
	.cfi_def_cfa 7, 8
	ret
	.cfi_endproc
.LFE11277:
	.size	_ZNK9__gnu_cxx13new_allocatorISt4pairIiiEE8max_sizeEv, .-_ZNK9__gnu_cxx13new_allocatorISt4pairIiiEE8max_sizeEv
	.section	.text._ZNSt16allocator_traitsISaISt4pairIiiEEE8allocateERS2_m,"axG",@progbits,_ZNSt16allocator_traitsISaISt4pairIiiEEE8allocateERS2_m,comdat
	.weak	_ZNSt16allocator_traitsISaISt4pairIiiEEE8allocateERS2_m
	.type	_ZNSt16allocator_traitsISaISt4pairIiiEEE8allocateERS2_m, @function
_ZNSt16allocator_traitsISaISt4pairIiiEEE8allocateERS2_m:
.LFB11278:
	.cfi_startproc
	endbr64
	push	rbp
	.cfi_def_cfa_offset 16
	.cfi_offset 6, -16
	mov	rbp, rsp
	.cfi_def_cfa_register 6
	sub	rsp, 16
	mov	QWORD PTR -8[rbp], rdi
	mov	QWORD PTR -16[rbp], rsi
	mov	rcx, QWORD PTR -16[rbp]
	mov	rax, QWORD PTR -8[rbp]
	mov	edx, 0
	mov	rsi, rcx
	mov	rdi, rax
	call	_ZN9__gnu_cxx13new_allocatorISt4pairIiiEE8allocateEmPKv
	leave
	.cfi_def_cfa 7, 8
	ret
	.cfi_endproc
.LFE11278:
	.size	_ZNSt16allocator_traitsISaISt4pairIiiEEE8allocateERS2_m, .-_ZNSt16allocator_traitsISaISt4pairIiiEEE8allocateERS2_m
	.section	.text._ZN9__gnu_cxx13new_allocatorISt4pairIiiEE10deallocateEPS2_m,"axG",@progbits,_ZN9__gnu_cxx13new_allocatorISt4pairIiiEE10deallocateEPS2_m,comdat
	.align 2
	.weak	_ZN9__gnu_cxx13new_allocatorISt4pairIiiEE10deallocateEPS2_m
	.type	_ZN9__gnu_cxx13new_allocatorISt4pairIiiEE10deallocateEPS2_m, @function
_ZN9__gnu_cxx13new_allocatorISt4pairIiiEE10deallocateEPS2_m:
.LFB11279:
	.cfi_startproc
	endbr64
	push	rbp
	.cfi_def_cfa_offset 16
	.cfi_offset 6, -16
	mov	rbp, rsp
	.cfi_def_cfa_register 6
	sub	rsp, 32
	mov	QWORD PTR -8[rbp], rdi
	mov	QWORD PTR -16[rbp], rsi
	mov	QWORD PTR -24[rbp], rdx
	mov	rax, QWORD PTR -24[rbp]
	lea	rdx, 0[0+rax*8]
	mov	rax, QWORD PTR -16[rbp]
	mov	rsi, rdx
	mov	rdi, rax
	call	_ZdlPvm@PLT
	leave
	.cfi_def_cfa 7, 8
	ret
	.cfi_endproc
.LFE11279:
	.size	_ZN9__gnu_cxx13new_allocatorISt4pairIiiEE10deallocateEPS2_m, .-_ZN9__gnu_cxx13new_allocatorISt4pairIiiEE10deallocateEPS2_m
	.section	.text._ZNSt27__uninitialized_default_n_1ILb0EE18__uninit_default_nIPSt4pairIiiEmEET_S5_T0_,"axG",@progbits,_ZNSt27__uninitialized_default_n_1ILb0EE18__uninit_default_nIPSt4pairIiiEmEET_S5_T0_,comdat
	.weak	_ZNSt27__uninitialized_default_n_1ILb0EE18__uninit_default_nIPSt4pairIiiEmEET_S5_T0_
	.type	_ZNSt27__uninitialized_default_n_1ILb0EE18__uninit_default_nIPSt4pairIiiEmEET_S5_T0_, @function
_ZNSt27__uninitialized_default_n_1ILb0EE18__uninit_default_nIPSt4pairIiiEmEET_S5_T0_:
.LFB11280:
	.cfi_startproc
	.cfi_personality 0x9b,DW.ref.__gxx_personality_v0
	.cfi_lsda 0x1b,.LLSDA11280
	endbr64
	push	rbp
	.cfi_def_cfa_offset 16
	.cfi_offset 6, -16
	mov	rbp, rsp
	.cfi_def_cfa_register 6
	push	rbx
	sub	rsp, 40
	.cfi_offset 3, -24
	mov	QWORD PTR -40[rbp], rdi
	mov	QWORD PTR -48[rbp], rsi
	mov	rax, QWORD PTR -40[rbp]
	mov	QWORD PTR -24[rbp], rax
	jmp	.L129
.L130:
	mov	rax, QWORD PTR -24[rbp]
	mov	rdi, rax
	call	_ZSt11__addressofISt4pairIiiEEPT_RS2_
	mov	rdi, rax
.LEHB9:
	call	_ZSt10_ConstructISt4pairIiiEJEEvPT_DpOT0_
.LEHE9:
	sub	QWORD PTR -48[rbp], 1
	add	QWORD PTR -24[rbp], 8
.L129:
	cmp	QWORD PTR -48[rbp], 0
	jne	.L130
	mov	rax, QWORD PTR -24[rbp]
	jmp	.L136
.L134:
	endbr64
	mov	rdi, rax
	call	__cxa_begin_catch@PLT
	mov	rdx, QWORD PTR -24[rbp]
	mov	rax, QWORD PTR -40[rbp]
	mov	rsi, rdx
	mov	rdi, rax
	call	_ZSt8_DestroyIPSt4pairIiiEEvT_S3_
.LEHB10:
	call	__cxa_rethrow@PLT
.LEHE10:
.L135:
	endbr64
	mov	rbx, rax
	call	__cxa_end_catch@PLT
	mov	rax, rbx
	mov	rdi, rax
.LEHB11:
	call	_Unwind_Resume@PLT
.LEHE11:
.L136:
	mov	rbx, QWORD PTR -8[rbp]
	leave
	.cfi_def_cfa 7, 8
	ret
	.cfi_endproc
.LFE11280:
	.section	.gcc_except_table
	.align 4
.LLSDA11280:
	.byte	0xff
	.byte	0x9b
	.uleb128 .LLSDATT11280-.LLSDATTD11280
.LLSDATTD11280:
	.byte	0x1
	.uleb128 .LLSDACSE11280-.LLSDACSB11280
.LLSDACSB11280:
	.uleb128 .LEHB9-.LFB11280
	.uleb128 .LEHE9-.LEHB9
	.uleb128 .L134-.LFB11280
	.uleb128 0x1
	.uleb128 .LEHB10-.LFB11280
	.uleb128 .LEHE10-.LEHB10
	.uleb128 .L135-.LFB11280
	.uleb128 0
	.uleb128 .LEHB11-.LFB11280
	.uleb128 .LEHE11-.LEHB11
	.uleb128 0
	.uleb128 0
.LLSDACSE11280:
	.byte	0x1
	.byte	0
	.align 4
	.long	0

.LLSDATT11280:
	.section	.text._ZNSt27__uninitialized_default_n_1ILb0EE18__uninit_default_nIPSt4pairIiiEmEET_S5_T0_,"axG",@progbits,_ZNSt27__uninitialized_default_n_1ILb0EE18__uninit_default_nIPSt4pairIiiEmEET_S5_T0_,comdat
	.size	_ZNSt27__uninitialized_default_n_1ILb0EE18__uninit_default_nIPSt4pairIiiEmEET_S5_T0_, .-_ZNSt27__uninitialized_default_n_1ILb0EE18__uninit_default_nIPSt4pairIiiEmEET_S5_T0_
	.section	.text._ZSt13__heap_selectIN9__gnu_cxx17__normal_iteratorIPSt4pairIiiESt6vectorIS3_SaIS3_EEEENS0_5__ops15_Iter_less_iterEEvT_SB_SB_T0_,"axG",@progbits,_ZSt13__heap_selectIN9__gnu_cxx17__normal_iteratorIPSt4pairIiiESt6vectorIS3_SaIS3_EEEENS0_5__ops15_Iter_less_iterEEvT_SB_SB_T0_,comdat
	.weak	_ZSt13__heap_selectIN9__gnu_cxx17__normal_iteratorIPSt4pairIiiESt6vectorIS3_SaIS3_EEEENS0_5__ops15_Iter_less_iterEEvT_SB_SB_T0_
	.type	_ZSt13__heap_selectIN9__gnu_cxx17__normal_iteratorIPSt4pairIiiESt6vectorIS3_SaIS3_EEEENS0_5__ops15_Iter_less_iterEEvT_SB_SB_T0_, @function
_ZSt13__heap_selectIN9__gnu_cxx17__normal_iteratorIPSt4pairIiiESt6vectorIS3_SaIS3_EEEENS0_5__ops15_Iter_less_iterEEvT_SB_SB_T0_:
.LFB11281:
	.cfi_startproc
	endbr64
	push	rbp
	.cfi_def_cfa_offset 16
	.cfi_offset 6, -16
	mov	rbp, rsp
	.cfi_def_cfa_register 6
	sub	rsp, 48
	mov	QWORD PTR -24[rbp], rdi
	mov	QWORD PTR -32[rbp], rsi
	mov	QWORD PTR -40[rbp], rdx
	mov	rax, QWORD PTR fs:40
	mov	QWORD PTR -8[rbp], rax
	xor	eax, eax
	lea	rdx, -41[rbp]
	mov	rcx, QWORD PTR -32[rbp]
	mov	rax, QWORD PTR -24[rbp]
	mov	rsi, rcx
	mov	rdi, rax
	call	_ZSt11__make_heapIN9__gnu_cxx17__normal_iteratorIPSt4pairIiiESt6vectorIS3_SaIS3_EEEENS0_5__ops15_Iter_less_iterEEvT_SB_RT0_
	mov	rax, QWORD PTR -32[rbp]
	mov	QWORD PTR -16[rbp], rax
	jmp	.L138
.L140:
	mov	rdx, QWORD PTR -24[rbp]
	mov	rcx, QWORD PTR -16[rbp]
	lea	rax, -41[rbp]
	mov	rsi, rcx
	mov	rdi, rax
	call	_ZNK9__gnu_cxx5__ops15_Iter_less_iterclINS_17__normal_iteratorIPSt4pairIiiESt6vectorIS5_SaIS5_EEEESA_EEbT_T0_
	test	al, al
	je	.L139
	lea	rcx, -41[rbp]
	mov	rdx, QWORD PTR -16[rbp]
	mov	rsi, QWORD PTR -32[rbp]
	mov	rax, QWORD PTR -24[rbp]
	mov	rdi, rax
	call	_ZSt10__pop_heapIN9__gnu_cxx17__normal_iteratorIPSt4pairIiiESt6vectorIS3_SaIS3_EEEENS0_5__ops15_Iter_less_iterEEvT_SB_SB_RT0_
.L139:
	lea	rax, -16[rbp]
	mov	rdi, rax
	call	_ZN9__gnu_cxx17__normal_iteratorIPSt4pairIiiESt6vectorIS2_SaIS2_EEEppEv
.L138:
	lea	rdx, -40[rbp]
	lea	rax, -16[rbp]
	mov	rsi, rdx
	mov	rdi, rax
	call	_ZN9__gnu_cxxltIPSt4pairIiiESt6vectorIS2_SaIS2_EEEEbRKNS_17__normal_iteratorIT_T0_EESC_
	test	al, al
	jne	.L140
	nop
	mov	rax, QWORD PTR -8[rbp]
	sub	rax, QWORD PTR fs:40
	je	.L141
	call	__stack_chk_fail@PLT
.L141:
	leave
	.cfi_def_cfa 7, 8
	ret
	.cfi_endproc
.LFE11281:
	.size	_ZSt13__heap_selectIN9__gnu_cxx17__normal_iteratorIPSt4pairIiiESt6vectorIS3_SaIS3_EEEENS0_5__ops15_Iter_less_iterEEvT_SB_SB_T0_, .-_ZSt13__heap_selectIN9__gnu_cxx17__normal_iteratorIPSt4pairIiiESt6vectorIS3_SaIS3_EEEENS0_5__ops15_Iter_less_iterEEvT_SB_SB_T0_
	.section	.text._ZSt11__sort_heapIN9__gnu_cxx17__normal_iteratorIPSt4pairIiiESt6vectorIS3_SaIS3_EEEENS0_5__ops15_Iter_less_iterEEvT_SB_RT0_,"axG",@progbits,_ZSt11__sort_heapIN9__gnu_cxx17__normal_iteratorIPSt4pairIiiESt6vectorIS3_SaIS3_EEEENS0_5__ops15_Iter_less_iterEEvT_SB_RT0_,comdat
	.weak	_ZSt11__sort_heapIN9__gnu_cxx17__normal_iteratorIPSt4pairIiiESt6vectorIS3_SaIS3_EEEENS0_5__ops15_Iter_less_iterEEvT_SB_RT0_
	.type	_ZSt11__sort_heapIN9__gnu_cxx17__normal_iteratorIPSt4pairIiiESt6vectorIS3_SaIS3_EEEENS0_5__ops15_Iter_less_iterEEvT_SB_RT0_, @function
_ZSt11__sort_heapIN9__gnu_cxx17__normal_iteratorIPSt4pairIiiESt6vectorIS3_SaIS3_EEEENS0_5__ops15_Iter_less_iterEEvT_SB_RT0_:
.LFB11282:
	.cfi_startproc
	endbr64
	push	rbp
	.cfi_def_cfa_offset 16
	.cfi_offset 6, -16
	mov	rbp, rsp
	.cfi_def_cfa_register 6
	sub	rsp, 32
	mov	QWORD PTR -8[rbp], rdi
	mov	QWORD PTR -16[rbp], rsi
	mov	QWORD PTR -24[rbp], rdx
	jmp	.L143
.L144:
	lea	rax, -16[rbp]
	mov	rdi, rax
	call	_ZN9__gnu_cxx17__normal_iteratorIPSt4pairIiiESt6vectorIS2_SaIS2_EEEmmEv
	mov	rcx, QWORD PTR -24[rbp]
	mov	rdx, QWORD PTR -16[rbp]
	mov	rsi, QWORD PTR -16[rbp]
	mov	rax, QWORD PTR -8[rbp]
	mov	rdi, rax
	call	_ZSt10__pop_heapIN9__gnu_cxx17__normal_iteratorIPSt4pairIiiESt6vectorIS3_SaIS3_EEEENS0_5__ops15_Iter_less_iterEEvT_SB_SB_RT0_
.L143:
	lea	rdx, -8[rbp]
	lea	rax, -16[rbp]
	mov	rsi, rdx
	mov	rdi, rax
	call	_ZN9__gnu_cxxmiIPSt4pairIiiESt6vectorIS2_SaIS2_EEEENS_17__normal_iteratorIT_T0_E15difference_typeERKSA_SD_
	cmp	rax, 1
	setg	al
	test	al, al
	jne	.L144
	nop
	nop
	leave
	.cfi_def_cfa 7, 8
	ret
	.cfi_endproc
.LFE11282:
	.size	_ZSt11__sort_heapIN9__gnu_cxx17__normal_iteratorIPSt4pairIiiESt6vectorIS3_SaIS3_EEEENS0_5__ops15_Iter_less_iterEEvT_SB_RT0_, .-_ZSt11__sort_heapIN9__gnu_cxx17__normal_iteratorIPSt4pairIiiESt6vectorIS3_SaIS3_EEEENS0_5__ops15_Iter_less_iterEEvT_SB_RT0_
	.section	.text._ZNK9__gnu_cxx17__normal_iteratorIPSt4pairIiiESt6vectorIS2_SaIS2_EEEmiEl,"axG",@progbits,_ZNK9__gnu_cxx17__normal_iteratorIPSt4pairIiiESt6vectorIS2_SaIS2_EEEmiEl,comdat
	.align 2
	.weak	_ZNK9__gnu_cxx17__normal_iteratorIPSt4pairIiiESt6vectorIS2_SaIS2_EEEmiEl
	.type	_ZNK9__gnu_cxx17__normal_iteratorIPSt4pairIiiESt6vectorIS2_SaIS2_EEEmiEl, @function
_ZNK9__gnu_cxx17__normal_iteratorIPSt4pairIiiESt6vectorIS2_SaIS2_EEEmiEl:
.LFB11283:
	.cfi_startproc
	endbr64
	push	rbp
	.cfi_def_cfa_offset 16
	.cfi_offset 6, -16
	mov	rbp, rsp
	.cfi_def_cfa_register 6
	sub	rsp, 48
	mov	QWORD PTR -40[rbp], rdi
	mov	QWORD PTR -48[rbp], rsi
	mov	rax, QWORD PTR fs:40
	mov	QWORD PTR -8[rbp], rax
	xor	eax, eax
	mov	rax, QWORD PTR -40[rbp]
	mov	rdx, QWORD PTR [rax]
	mov	rax, QWORD PTR -48[rbp]
	sal	rax, 3
	neg	rax
	add	rax, rdx
	mov	QWORD PTR -24[rbp], rax
	lea	rdx, -24[rbp]
	lea	rax, -16[rbp]
	mov	rsi, rdx
	mov	rdi, rax
	call	_ZN9__gnu_cxx17__normal_iteratorIPSt4pairIiiESt6vectorIS2_SaIS2_EEEC1ERKS3_
	mov	rax, QWORD PTR -16[rbp]
	mov	rdx, QWORD PTR -8[rbp]
	sub	rdx, QWORD PTR fs:40
	je	.L147
	call	__stack_chk_fail@PLT
.L147:
	leave
	.cfi_def_cfa 7, 8
	ret
	.cfi_endproc
.LFE11283:
	.size	_ZNK9__gnu_cxx17__normal_iteratorIPSt4pairIiiESt6vectorIS2_SaIS2_EEEmiEl, .-_ZNK9__gnu_cxx17__normal_iteratorIPSt4pairIiiESt6vectorIS2_SaIS2_EEEmiEl
	.section	.text._ZNK9__gnu_cxx5__ops15_Iter_less_iterclINS_17__normal_iteratorIPSt4pairIiiESt6vectorIS5_SaIS5_EEEESA_EEbT_T0_,"axG",@progbits,_ZNK9__gnu_cxx5__ops15_Iter_less_iterclINS_17__normal_iteratorIPSt4pairIiiESt6vectorIS5_SaIS5_EEEESA_EEbT_T0_,comdat
	.align 2
	.weak	_ZNK9__gnu_cxx5__ops15_Iter_less_iterclINS_17__normal_iteratorIPSt4pairIiiESt6vectorIS5_SaIS5_EEEESA_EEbT_T0_
	.type	_ZNK9__gnu_cxx5__ops15_Iter_less_iterclINS_17__normal_iteratorIPSt4pairIiiESt6vectorIS5_SaIS5_EEEESA_EEbT_T0_, @function
_ZNK9__gnu_cxx5__ops15_Iter_less_iterclINS_17__normal_iteratorIPSt4pairIiiESt6vectorIS5_SaIS5_EEEESA_EEbT_T0_:
.LFB11285:
	.cfi_startproc
	endbr64
	push	rbp
	.cfi_def_cfa_offset 16
	.cfi_offset 6, -16
	mov	rbp, rsp
	.cfi_def_cfa_register 6
	push	rbx
	sub	rsp, 40
	.cfi_offset 3, -24
	mov	QWORD PTR -24[rbp], rdi
	mov	QWORD PTR -32[rbp], rsi
	mov	QWORD PTR -40[rbp], rdx
	lea	rax, -40[rbp]
	mov	rdi, rax
	call	_ZNK9__gnu_cxx17__normal_iteratorIPSt4pairIiiESt6vectorIS2_SaIS2_EEEdeEv
	mov	rbx, rax
	lea	rax, -32[rbp]
	mov	rdi, rax
	call	_ZNK9__gnu_cxx17__normal_iteratorIPSt4pairIiiESt6vectorIS2_SaIS2_EEEdeEv
	mov	rsi, rbx
	mov	rdi, rax
	call	_ZStltIiiEbRKSt4pairIT_T0_ES5_
	mov	rbx, QWORD PTR -8[rbp]
	leave
	.cfi_def_cfa 7, 8
	ret
	.cfi_endproc
.LFE11285:
	.size	_ZNK9__gnu_cxx5__ops15_Iter_less_iterclINS_17__normal_iteratorIPSt4pairIiiESt6vectorIS5_SaIS5_EEEESA_EEbT_T0_, .-_ZNK9__gnu_cxx5__ops15_Iter_less_iterclINS_17__normal_iteratorIPSt4pairIiiESt6vectorIS5_SaIS5_EEEESA_EEbT_T0_
	.section	.text._ZSt22__move_median_to_firstIN9__gnu_cxx17__normal_iteratorIPSt4pairIiiESt6vectorIS3_SaIS3_EEEENS0_5__ops15_Iter_less_iterEEvT_SB_SB_SB_T0_,"axG",@progbits,_ZSt22__move_median_to_firstIN9__gnu_cxx17__normal_iteratorIPSt4pairIiiESt6vectorIS3_SaIS3_EEEENS0_5__ops15_Iter_less_iterEEvT_SB_SB_SB_T0_,comdat
	.weak	_ZSt22__move_median_to_firstIN9__gnu_cxx17__normal_iteratorIPSt4pairIiiESt6vectorIS3_SaIS3_EEEENS0_5__ops15_Iter_less_iterEEvT_SB_SB_SB_T0_
	.type	_ZSt22__move_median_to_firstIN9__gnu_cxx17__normal_iteratorIPSt4pairIiiESt6vectorIS3_SaIS3_EEEENS0_5__ops15_Iter_less_iterEEvT_SB_SB_SB_T0_, @function
_ZSt22__move_median_to_firstIN9__gnu_cxx17__normal_iteratorIPSt4pairIiiESt6vectorIS3_SaIS3_EEEENS0_5__ops15_Iter_less_iterEEvT_SB_SB_SB_T0_:
.LFB11284:
	.cfi_startproc
	endbr64
	push	rbp
	.cfi_def_cfa_offset 16
	.cfi_offset 6, -16
	mov	rbp, rsp
	.cfi_def_cfa_register 6
	sub	rsp, 48
	mov	QWORD PTR -8[rbp], rdi
	mov	QWORD PTR -16[rbp], rsi
	mov	QWORD PTR -24[rbp], rdx
	mov	QWORD PTR -32[rbp], rcx
	mov	rdx, QWORD PTR -24[rbp]
	mov	rcx, QWORD PTR -16[rbp]
	lea	rax, -33[rbp]
	mov	rsi, rcx
	mov	rdi, rax
	call	_ZNK9__gnu_cxx5__ops15_Iter_less_iterclINS_17__normal_iteratorIPSt4pairIiiESt6vectorIS5_SaIS5_EEEESA_EEbT_T0_
	test	al, al
	je	.L151
	mov	rdx, QWORD PTR -32[rbp]
	mov	rcx, QWORD PTR -24[rbp]
	lea	rax, -33[rbp]
	mov	rsi, rcx
	mov	rdi, rax
	call	_ZNK9__gnu_cxx5__ops15_Iter_less_iterclINS_17__normal_iteratorIPSt4pairIiiESt6vectorIS5_SaIS5_EEEESA_EEbT_T0_
	test	al, al
	je	.L152
	mov	rdx, QWORD PTR -24[rbp]
	mov	rax, QWORD PTR -8[rbp]
	mov	rsi, rdx
	mov	rdi, rax
	call	_ZSt9iter_swapIN9__gnu_cxx17__normal_iteratorIPSt4pairIiiESt6vectorIS3_SaIS3_EEEES8_EvT_T0_
	jmp	.L157
.L152:
	mov	rdx, QWORD PTR -32[rbp]
	mov	rcx, QWORD PTR -16[rbp]
	lea	rax, -33[rbp]
	mov	rsi, rcx
	mov	rdi, rax
	call	_ZNK9__gnu_cxx5__ops15_Iter_less_iterclINS_17__normal_iteratorIPSt4pairIiiESt6vectorIS5_SaIS5_EEEESA_EEbT_T0_
	test	al, al
	je	.L154
	mov	rdx, QWORD PTR -32[rbp]
	mov	rax, QWORD PTR -8[rbp]
	mov	rsi, rdx
	mov	rdi, rax
	call	_ZSt9iter_swapIN9__gnu_cxx17__normal_iteratorIPSt4pairIiiESt6vectorIS3_SaIS3_EEEES8_EvT_T0_
	jmp	.L157
.L154:
	mov	rdx, QWORD PTR -16[rbp]
	mov	rax, QWORD PTR -8[rbp]
	mov	rsi, rdx
	mov	rdi, rax
	call	_ZSt9iter_swapIN9__gnu_cxx17__normal_iteratorIPSt4pairIiiESt6vectorIS3_SaIS3_EEEES8_EvT_T0_
	jmp	.L157
.L151:
	mov	rdx, QWORD PTR -32[rbp]
	mov	rcx, QWORD PTR -16[rbp]
	lea	rax, -33[rbp]
	mov	rsi, rcx
	mov	rdi, rax
	call	_ZNK9__gnu_cxx5__ops15_Iter_less_iterclINS_17__normal_iteratorIPSt4pairIiiESt6vectorIS5_SaIS5_EEEESA_EEbT_T0_
	test	al, al
	je	.L155
	mov	rdx, QWORD PTR -16[rbp]
	mov	rax, QWORD PTR -8[rbp]
	mov	rsi, rdx
	mov	rdi, rax
	call	_ZSt9iter_swapIN9__gnu_cxx17__normal_iteratorIPSt4pairIiiESt6vectorIS3_SaIS3_EEEES8_EvT_T0_
	jmp	.L157
.L155:
	mov	rdx, QWORD PTR -32[rbp]
	mov	rcx, QWORD PTR -24[rbp]
	lea	rax, -33[rbp]
	mov	rsi, rcx
	mov	rdi, rax
	call	_ZNK9__gnu_cxx5__ops15_Iter_less_iterclINS_17__normal_iteratorIPSt4pairIiiESt6vectorIS5_SaIS5_EEEESA_EEbT_T0_
	test	al, al
	je	.L156
	mov	rdx, QWORD PTR -32[rbp]
	mov	rax, QWORD PTR -8[rbp]
	mov	rsi, rdx
	mov	rdi, rax
	call	_ZSt9iter_swapIN9__gnu_cxx17__normal_iteratorIPSt4pairIiiESt6vectorIS3_SaIS3_EEEES8_EvT_T0_
	jmp	.L157
.L156:
	mov	rdx, QWORD PTR -24[rbp]
	mov	rax, QWORD PTR -8[rbp]
	mov	rsi, rdx
	mov	rdi, rax
	call	_ZSt9iter_swapIN9__gnu_cxx17__normal_iteratorIPSt4pairIiiESt6vectorIS3_SaIS3_EEEES8_EvT_T0_
.L157:
	nop
	leave
	.cfi_def_cfa 7, 8
	ret
	.cfi_endproc
.LFE11284:
	.size	_ZSt22__move_median_to_firstIN9__gnu_cxx17__normal_iteratorIPSt4pairIiiESt6vectorIS3_SaIS3_EEEENS0_5__ops15_Iter_less_iterEEvT_SB_SB_SB_T0_, .-_ZSt22__move_median_to_firstIN9__gnu_cxx17__normal_iteratorIPSt4pairIiiESt6vectorIS3_SaIS3_EEEENS0_5__ops15_Iter_less_iterEEvT_SB_SB_SB_T0_
	.section	.text._ZSt21__unguarded_partitionIN9__gnu_cxx17__normal_iteratorIPSt4pairIiiESt6vectorIS3_SaIS3_EEEENS0_5__ops15_Iter_less_iterEET_SB_SB_SB_T0_,"axG",@progbits,_ZSt21__unguarded_partitionIN9__gnu_cxx17__normal_iteratorIPSt4pairIiiESt6vectorIS3_SaIS3_EEEENS0_5__ops15_Iter_less_iterEET_SB_SB_SB_T0_,comdat
	.weak	_ZSt21__unguarded_partitionIN9__gnu_cxx17__normal_iteratorIPSt4pairIiiESt6vectorIS3_SaIS3_EEEENS0_5__ops15_Iter_less_iterEET_SB_SB_SB_T0_
	.type	_ZSt21__unguarded_partitionIN9__gnu_cxx17__normal_iteratorIPSt4pairIiiESt6vectorIS3_SaIS3_EEEENS0_5__ops15_Iter_less_iterEET_SB_SB_SB_T0_, @function
_ZSt21__unguarded_partitionIN9__gnu_cxx17__normal_iteratorIPSt4pairIiiESt6vectorIS3_SaIS3_EEEENS0_5__ops15_Iter_less_iterEET_SB_SB_SB_T0_:
.LFB11286:
	.cfi_startproc
	endbr64
	push	rbp
	.cfi_def_cfa_offset 16
	.cfi_offset 6, -16
	mov	rbp, rsp
	.cfi_def_cfa_register 6
	sub	rsp, 32
	mov	QWORD PTR -8[rbp], rdi
	mov	QWORD PTR -16[rbp], rsi
	mov	QWORD PTR -24[rbp], rdx
	jmp	.L159
.L160:
	lea	rax, -8[rbp]
	mov	rdi, rax
	call	_ZN9__gnu_cxx17__normal_iteratorIPSt4pairIiiESt6vectorIS2_SaIS2_EEEppEv
.L159:
	mov	rdx, QWORD PTR -24[rbp]
	mov	rcx, QWORD PTR -8[rbp]
	lea	rax, -25[rbp]
	mov	rsi, rcx
	mov	rdi, rax
	call	_ZNK9__gnu_cxx5__ops15_Iter_less_iterclINS_17__normal_iteratorIPSt4pairIiiESt6vectorIS5_SaIS5_EEEESA_EEbT_T0_
	test	al, al
	jne	.L160
	lea	rax, -16[rbp]
	mov	rdi, rax
	call	_ZN9__gnu_cxx17__normal_iteratorIPSt4pairIiiESt6vectorIS2_SaIS2_EEEmmEv
	jmp	.L161
.L162:
	lea	rax, -16[rbp]
	mov	rdi, rax
	call	_ZN9__gnu_cxx17__normal_iteratorIPSt4pairIiiESt6vectorIS2_SaIS2_EEEmmEv
.L161:
	mov	rdx, QWORD PTR -16[rbp]
	mov	rcx, QWORD PTR -24[rbp]
	lea	rax, -25[rbp]
	mov	rsi, rcx
	mov	rdi, rax
	call	_ZNK9__gnu_cxx5__ops15_Iter_less_iterclINS_17__normal_iteratorIPSt4pairIiiESt6vectorIS5_SaIS5_EEEESA_EEbT_T0_
	test	al, al
	jne	.L162
	lea	rdx, -16[rbp]
	lea	rax, -8[rbp]
	mov	rsi, rdx
	mov	rdi, rax
	call	_ZN9__gnu_cxxltIPSt4pairIiiESt6vectorIS2_SaIS2_EEEEbRKNS_17__normal_iteratorIT_T0_EESC_
	xor	eax, 1
	test	al, al
	je	.L163
	mov	rax, QWORD PTR -8[rbp]
	jmp	.L166
.L163:
	mov	rdx, QWORD PTR -16[rbp]
	mov	rax, QWORD PTR -8[rbp]
	mov	rsi, rdx
	mov	rdi, rax
	call	_ZSt9iter_swapIN9__gnu_cxx17__normal_iteratorIPSt4pairIiiESt6vectorIS3_SaIS3_EEEES8_EvT_T0_
	lea	rax, -8[rbp]
	mov	rdi, rax
	call	_ZN9__gnu_cxx17__normal_iteratorIPSt4pairIiiESt6vectorIS2_SaIS2_EEEppEv
	jmp	.L159
.L166:
	leave
	.cfi_def_cfa 7, 8
	ret
	.cfi_endproc
.LFE11286:
	.size	_ZSt21__unguarded_partitionIN9__gnu_cxx17__normal_iteratorIPSt4pairIiiESt6vectorIS3_SaIS3_EEEENS0_5__ops15_Iter_less_iterEET_SB_SB_SB_T0_, .-_ZSt21__unguarded_partitionIN9__gnu_cxx17__normal_iteratorIPSt4pairIiiESt6vectorIS3_SaIS3_EEEENS0_5__ops15_Iter_less_iterEET_SB_SB_SB_T0_
	.section	.text._ZN9__gnu_cxxeqIPSt4pairIiiESt6vectorIS2_SaIS2_EEEEbRKNS_17__normal_iteratorIT_T0_EESC_,"axG",@progbits,_ZN9__gnu_cxxeqIPSt4pairIiiESt6vectorIS2_SaIS2_EEEEbRKNS_17__normal_iteratorIT_T0_EESC_,comdat
	.weak	_ZN9__gnu_cxxeqIPSt4pairIiiESt6vectorIS2_SaIS2_EEEEbRKNS_17__normal_iteratorIT_T0_EESC_
	.type	_ZN9__gnu_cxxeqIPSt4pairIiiESt6vectorIS2_SaIS2_EEEEbRKNS_17__normal_iteratorIT_T0_EESC_, @function
_ZN9__gnu_cxxeqIPSt4pairIiiESt6vectorIS2_SaIS2_EEEEbRKNS_17__normal_iteratorIT_T0_EESC_:
.LFB11287:
	.cfi_startproc
	endbr64
	push	rbp
	.cfi_def_cfa_offset 16
	.cfi_offset 6, -16
	mov	rbp, rsp
	.cfi_def_cfa_register 6
	push	rbx
	sub	rsp, 24
	.cfi_offset 3, -24
	mov	QWORD PTR -24[rbp], rdi
	mov	QWORD PTR -32[rbp], rsi
	mov	rax, QWORD PTR -24[rbp]
	mov	rdi, rax
	call	_ZNK9__gnu_cxx17__normal_iteratorIPSt4pairIiiESt6vectorIS2_SaIS2_EEE4baseEv
	mov	rbx, QWORD PTR [rax]
	mov	rax, QWORD PTR -32[rbp]
	mov	rdi, rax
	call	_ZNK9__gnu_cxx17__normal_iteratorIPSt4pairIiiESt6vectorIS2_SaIS2_EEE4baseEv
	mov	rax, QWORD PTR [rax]
	cmp	rbx, rax
	sete	al
	mov	rbx, QWORD PTR -8[rbp]
	leave
	.cfi_def_cfa 7, 8
	ret
	.cfi_endproc
.LFE11287:
	.size	_ZN9__gnu_cxxeqIPSt4pairIiiESt6vectorIS2_SaIS2_EEEEbRKNS_17__normal_iteratorIT_T0_EESC_, .-_ZN9__gnu_cxxeqIPSt4pairIiiESt6vectorIS2_SaIS2_EEEEbRKNS_17__normal_iteratorIT_T0_EESC_
	.section	.text._ZN9__gnu_cxx17__normal_iteratorIPSt4pairIiiESt6vectorIS2_SaIS2_EEEppEv,"axG",@progbits,_ZN9__gnu_cxx17__normal_iteratorIPSt4pairIiiESt6vectorIS2_SaIS2_EEEppEv,comdat
	.align 2
	.weak	_ZN9__gnu_cxx17__normal_iteratorIPSt4pairIiiESt6vectorIS2_SaIS2_EEEppEv
	.type	_ZN9__gnu_cxx17__normal_iteratorIPSt4pairIiiESt6vectorIS2_SaIS2_EEEppEv, @function
_ZN9__gnu_cxx17__normal_iteratorIPSt4pairIiiESt6vectorIS2_SaIS2_EEEppEv:
.LFB11288:
	.cfi_startproc
	endbr64
	push	rbp
	.cfi_def_cfa_offset 16
	.cfi_offset 6, -16
	mov	rbp, rsp
	.cfi_def_cfa_register 6
	mov	QWORD PTR -8[rbp], rdi
	mov	rax, QWORD PTR -8[rbp]
	mov	rax, QWORD PTR [rax]
	lea	rdx, 8[rax]
	mov	rax, QWORD PTR -8[rbp]
	mov	QWORD PTR [rax], rdx
	mov	rax, QWORD PTR -8[rbp]
	pop	rbp
	.cfi_def_cfa 7, 8
	ret
	.cfi_endproc
.LFE11288:
	.size	_ZN9__gnu_cxx17__normal_iteratorIPSt4pairIiiESt6vectorIS2_SaIS2_EEEppEv, .-_ZN9__gnu_cxx17__normal_iteratorIPSt4pairIiiESt6vectorIS2_SaIS2_EEEppEv
	.section	.text._ZNK9__gnu_cxx17__normal_iteratorIPSt4pairIiiESt6vectorIS2_SaIS2_EEEdeEv,"axG",@progbits,_ZNK9__gnu_cxx17__normal_iteratorIPSt4pairIiiESt6vectorIS2_SaIS2_EEEdeEv,comdat
	.align 2
	.weak	_ZNK9__gnu_cxx17__normal_iteratorIPSt4pairIiiESt6vectorIS2_SaIS2_EEEdeEv
	.type	_ZNK9__gnu_cxx17__normal_iteratorIPSt4pairIiiESt6vectorIS2_SaIS2_EEEdeEv, @function
_ZNK9__gnu_cxx17__normal_iteratorIPSt4pairIiiESt6vectorIS2_SaIS2_EEEdeEv:
.LFB11289:
	.cfi_startproc
	endbr64
	push	rbp
	.cfi_def_cfa_offset 16
	.cfi_offset 6, -16
	mov	rbp, rsp
	.cfi_def_cfa_register 6
	mov	QWORD PTR -8[rbp], rdi
	mov	rax, QWORD PTR -8[rbp]
	mov	rax, QWORD PTR [rax]
	pop	rbp
	.cfi_def_cfa 7, 8
	ret
	.cfi_endproc
.LFE11289:
	.size	_ZNK9__gnu_cxx17__normal_iteratorIPSt4pairIiiESt6vectorIS2_SaIS2_EEEdeEv, .-_ZNK9__gnu_cxx17__normal_iteratorIPSt4pairIiiESt6vectorIS2_SaIS2_EEEdeEv
	.section	.text._ZSt4moveIRSt4pairIiiEEONSt16remove_referenceIT_E4typeEOS4_,"axG",@progbits,_ZSt4moveIRSt4pairIiiEEONSt16remove_referenceIT_E4typeEOS4_,comdat
	.weak	_ZSt4moveIRSt4pairIiiEEONSt16remove_referenceIT_E4typeEOS4_
	.type	_ZSt4moveIRSt4pairIiiEEONSt16remove_referenceIT_E4typeEOS4_, @function
_ZSt4moveIRSt4pairIiiEEONSt16remove_referenceIT_E4typeEOS4_:
.LFB11290:
	.cfi_startproc
	endbr64
	push	rbp
	.cfi_def_cfa_offset 16
	.cfi_offset 6, -16
	mov	rbp, rsp
	.cfi_def_cfa_register 6
	mov	QWORD PTR -8[rbp], rdi
	mov	rax, QWORD PTR -8[rbp]
	pop	rbp
	.cfi_def_cfa 7, 8
	ret
	.cfi_endproc
.LFE11290:
	.size	_ZSt4moveIRSt4pairIiiEEONSt16remove_referenceIT_E4typeEOS4_, .-_ZSt4moveIRSt4pairIiiEEONSt16remove_referenceIT_E4typeEOS4_
	.section	.text._ZSt13move_backwardIN9__gnu_cxx17__normal_iteratorIPSt4pairIiiESt6vectorIS3_SaIS3_EEEES8_ET0_T_SA_S9_,"axG",@progbits,_ZSt13move_backwardIN9__gnu_cxx17__normal_iteratorIPSt4pairIiiESt6vectorIS3_SaIS3_EEEES8_ET0_T_SA_S9_,comdat
	.weak	_ZSt13move_backwardIN9__gnu_cxx17__normal_iteratorIPSt4pairIiiESt6vectorIS3_SaIS3_EEEES8_ET0_T_SA_S9_
	.type	_ZSt13move_backwardIN9__gnu_cxx17__normal_iteratorIPSt4pairIiiESt6vectorIS3_SaIS3_EEEES8_ET0_T_SA_S9_, @function
_ZSt13move_backwardIN9__gnu_cxx17__normal_iteratorIPSt4pairIiiESt6vectorIS3_SaIS3_EEEES8_ET0_T_SA_S9_:
.LFB11291:
	.cfi_startproc
	endbr64
	push	rbp
	.cfi_def_cfa_offset 16
	.cfi_offset 6, -16
	mov	rbp, rsp
	.cfi_def_cfa_register 6
	push	rbx
	sub	rsp, 40
	.cfi_offset 3, -24
	mov	QWORD PTR -24[rbp], rdi
	mov	QWORD PTR -32[rbp], rsi
	mov	QWORD PTR -40[rbp], rdx
	mov	rax, QWORD PTR -32[rbp]
	mov	rdi, rax
	call	_ZSt12__miter_baseIN9__gnu_cxx17__normal_iteratorIPSt4pairIiiESt6vectorIS3_SaIS3_EEEEET_S9_
	mov	rbx, rax
	mov	rax, QWORD PTR -24[rbp]
	mov	rdi, rax
	call	_ZSt12__miter_baseIN9__gnu_cxx17__normal_iteratorIPSt4pairIiiESt6vectorIS3_SaIS3_EEEEET_S9_
	mov	rcx, rax
	mov	rax, QWORD PTR -40[rbp]
	mov	rdx, rax
	mov	rsi, rbx
	mov	rdi, rcx
	call	_ZSt22__copy_move_backward_aILb1EN9__gnu_cxx17__normal_iteratorIPSt4pairIiiESt6vectorIS3_SaIS3_EEEES8_ET1_T0_SA_S9_
	mov	rbx, QWORD PTR -8[rbp]
	leave
	.cfi_def_cfa 7, 8
	ret
	.cfi_endproc
.LFE11291:
	.size	_ZSt13move_backwardIN9__gnu_cxx17__normal_iteratorIPSt4pairIiiESt6vectorIS3_SaIS3_EEEES8_ET0_T_SA_S9_, .-_ZSt13move_backwardIN9__gnu_cxx17__normal_iteratorIPSt4pairIiiESt6vectorIS3_SaIS3_EEEES8_ET0_T_SA_S9_
	.section	.text._ZNSt4pairIiiEaSEOS0_,"axG",@progbits,_ZNSt4pairIiiEaSEOS0_,comdat
	.align 2
	.weak	_ZNSt4pairIiiEaSEOS0_
	.type	_ZNSt4pairIiiEaSEOS0_, @function
_ZNSt4pairIiiEaSEOS0_:
.LFB11292:
	.cfi_startproc
	endbr64
	push	rbp
	.cfi_def_cfa_offset 16
	.cfi_offset 6, -16
	mov	rbp, rsp
	.cfi_def_cfa_register 6
	sub	rsp, 16
	mov	QWORD PTR -8[rbp], rdi
	mov	QWORD PTR -16[rbp], rsi
	mov	rax, QWORD PTR -16[rbp]
	mov	rdi, rax
	call	_ZSt7forwardIiEOT_RNSt16remove_referenceIS0_E4typeE
	mov	edx, DWORD PTR [rax]
	mov	rax, QWORD PTR -8[rbp]
	mov	DWORD PTR [rax], edx
	mov	rax, QWORD PTR -16[rbp]
	add	rax, 4
	mov	rdi, rax
	call	_ZSt7forwardIiEOT_RNSt16remove_referenceIS0_E4typeE
	mov	edx, DWORD PTR [rax]
	mov	rax, QWORD PTR -8[rbp]
	mov	DWORD PTR 4[rax], edx
	mov	rax, QWORD PTR -8[rbp]
	leave
	.cfi_def_cfa 7, 8
	ret
	.cfi_endproc
.LFE11292:
	.size	_ZNSt4pairIiiEaSEOS0_, .-_ZNSt4pairIiiEaSEOS0_
	.section	.text._ZSt25__unguarded_linear_insertIN9__gnu_cxx17__normal_iteratorIPSt4pairIiiESt6vectorIS3_SaIS3_EEEENS0_5__ops14_Val_less_iterEEvT_T0_,"axG",@progbits,_ZSt25__unguarded_linear_insertIN9__gnu_cxx17__normal_iteratorIPSt4pairIiiESt6vectorIS3_SaIS3_EEEENS0_5__ops14_Val_less_iterEEvT_T0_,comdat
	.weak	_ZSt25__unguarded_linear_insertIN9__gnu_cxx17__normal_iteratorIPSt4pairIiiESt6vectorIS3_SaIS3_EEEENS0_5__ops14_Val_less_iterEEvT_T0_
	.type	_ZSt25__unguarded_linear_insertIN9__gnu_cxx17__normal_iteratorIPSt4pairIiiESt6vectorIS3_SaIS3_EEEENS0_5__ops14_Val_less_iterEEvT_T0_, @function
_ZSt25__unguarded_linear_insertIN9__gnu_cxx17__normal_iteratorIPSt4pairIiiESt6vectorIS3_SaIS3_EEEENS0_5__ops14_Val_less_iterEEvT_T0_:
.LFB11293:
	.cfi_startproc
	endbr64
	push	rbp
	.cfi_def_cfa_offset 16
	.cfi_offset 6, -16
	mov	rbp, rsp
	.cfi_def_cfa_register 6
	push	rbx
	sub	rsp, 56
	.cfi_offset 3, -24
	mov	QWORD PTR -56[rbp], rdi
	mov	rax, QWORD PTR fs:40
	mov	QWORD PTR -24[rbp], rax
	xor	eax, eax
	lea	rax, -56[rbp]
	mov	rdi, rax
	call	_ZNK9__gnu_cxx17__normal_iteratorIPSt4pairIiiESt6vectorIS2_SaIS2_EEEdeEv
	mov	rdi, rax
	call	_ZSt4moveIRSt4pairIiiEEONSt16remove_referenceIT_E4typeEOS4_
	mov	rax, QWORD PTR [rax]
	mov	QWORD PTR -32[rbp], rax
	mov	rax, QWORD PTR -56[rbp]
	mov	QWORD PTR -40[rbp], rax
	lea	rax, -40[rbp]
	mov	rdi, rax
	call	_ZN9__gnu_cxx17__normal_iteratorIPSt4pairIiiESt6vectorIS2_SaIS2_EEEmmEv
	jmp	.L180
.L181:
	lea	rax, -40[rbp]
	mov	rdi, rax
	call	_ZNK9__gnu_cxx17__normal_iteratorIPSt4pairIiiESt6vectorIS2_SaIS2_EEEdeEv
	mov	rdi, rax
	call	_ZSt4moveIRSt4pairIiiEEONSt16remove_referenceIT_E4typeEOS4_
	mov	rbx, rax
	lea	rax, -56[rbp]
	mov	rdi, rax
	call	_ZNK9__gnu_cxx17__normal_iteratorIPSt4pairIiiESt6vectorIS2_SaIS2_EEEdeEv
	mov	rsi, rbx
	mov	rdi, rax
	call	_ZNSt4pairIiiEaSEOS0_
	mov	rax, QWORD PTR -40[rbp]
	mov	QWORD PTR -56[rbp], rax
	lea	rax, -40[rbp]
	mov	rdi, rax
	call	_ZN9__gnu_cxx17__normal_iteratorIPSt4pairIiiESt6vectorIS2_SaIS2_EEEmmEv
.L180:
	mov	rdx, QWORD PTR -40[rbp]
	lea	rcx, -32[rbp]
	lea	rax, -57[rbp]
	mov	rsi, rcx
	mov	rdi, rax
	call	_ZNK9__gnu_cxx5__ops14_Val_less_iterclISt4pairIiiENS_17__normal_iteratorIPS4_St6vectorIS4_SaIS4_EEEEEEbRT_T0_
	test	al, al
	jne	.L181
	lea	rax, -32[rbp]
	mov	rdi, rax
	call	_ZSt4moveIRSt4pairIiiEEONSt16remove_referenceIT_E4typeEOS4_
	mov	rbx, rax
	lea	rax, -56[rbp]
	mov	rdi, rax
	call	_ZNK9__gnu_cxx17__normal_iteratorIPSt4pairIiiESt6vectorIS2_SaIS2_EEEdeEv
	mov	rsi, rbx
	mov	rdi, rax
	call	_ZNSt4pairIiiEaSEOS0_
	nop
	mov	rax, QWORD PTR -24[rbp]
	sub	rax, QWORD PTR fs:40
	je	.L182
	call	__stack_chk_fail@PLT
.L182:
	mov	rbx, QWORD PTR -8[rbp]
	leave
	.cfi_def_cfa 7, 8
	ret
	.cfi_endproc
.LFE11293:
	.size	_ZSt25__unguarded_linear_insertIN9__gnu_cxx17__normal_iteratorIPSt4pairIiiESt6vectorIS3_SaIS3_EEEENS0_5__ops14_Val_less_iterEEvT_T0_, .-_ZSt25__unguarded_linear_insertIN9__gnu_cxx17__normal_iteratorIPSt4pairIiiESt6vectorIS3_SaIS3_EEEENS0_5__ops14_Val_less_iterEEvT_T0_
	.section	.text._ZNK9__gnu_cxx13new_allocatorISt4pairIiiEE11_M_max_sizeEv,"axG",@progbits,_ZNK9__gnu_cxx13new_allocatorISt4pairIiiEE11_M_max_sizeEv,comdat
	.align 2
	.weak	_ZNK9__gnu_cxx13new_allocatorISt4pairIiiEE11_M_max_sizeEv
	.type	_ZNK9__gnu_cxx13new_allocatorISt4pairIiiEE11_M_max_sizeEv, @function
_ZNK9__gnu_cxx13new_allocatorISt4pairIiiEE11_M_max_sizeEv:
.LFB11399:
	.cfi_startproc
	endbr64
	push	rbp
	.cfi_def_cfa_offset 16
	.cfi_offset 6, -16
	mov	rbp, rsp
	.cfi_def_cfa_register 6
	mov	QWORD PTR -8[rbp], rdi
	movabs	rax, 1152921504606846975
	pop	rbp
	.cfi_def_cfa 7, 8
	ret
	.cfi_endproc
.LFE11399:
	.size	_ZNK9__gnu_cxx13new_allocatorISt4pairIiiEE11_M_max_sizeEv, .-_ZNK9__gnu_cxx13new_allocatorISt4pairIiiEE11_M_max_sizeEv
	.section	.text._ZN9__gnu_cxx13new_allocatorISt4pairIiiEE8allocateEmPKv,"axG",@progbits,_ZN9__gnu_cxx13new_allocatorISt4pairIiiEE8allocateEmPKv,comdat
	.align 2
	.weak	_ZN9__gnu_cxx13new_allocatorISt4pairIiiEE8allocateEmPKv
	.type	_ZN9__gnu_cxx13new_allocatorISt4pairIiiEE8allocateEmPKv, @function
_ZN9__gnu_cxx13new_allocatorISt4pairIiiEE8allocateEmPKv:
.LFB11400:
	.cfi_startproc
	endbr64
	push	rbp
	.cfi_def_cfa_offset 16
	.cfi_offset 6, -16
	mov	rbp, rsp
	.cfi_def_cfa_register 6
	sub	rsp, 32
	mov	QWORD PTR -8[rbp], rdi
	mov	QWORD PTR -16[rbp], rsi
	mov	QWORD PTR -24[rbp], rdx
	mov	rax, QWORD PTR -8[rbp]
	mov	rdi, rax
	call	_ZNK9__gnu_cxx13new_allocatorISt4pairIiiEE11_M_max_sizeEv
	cmp	QWORD PTR -16[rbp], rax
	seta	al
	movzx	eax, al
	test	rax, rax
	setne	al
	test	al, al
	je	.L186
	movabs	rax, 2305843009213693951
	cmp	QWORD PTR -16[rbp], rax
	jbe	.L187
	call	_ZSt28__throw_bad_array_new_lengthv@PLT
.L187:
	call	_ZSt17__throw_bad_allocv@PLT
.L186:
	mov	rax, QWORD PTR -16[rbp]
	sal	rax, 3
	mov	rdi, rax
	call	_Znwm@PLT
	nop
	leave
	.cfi_def_cfa 7, 8
	ret
	.cfi_endproc
.LFE11400:
	.size	_ZN9__gnu_cxx13new_allocatorISt4pairIiiEE8allocateEmPKv, .-_ZN9__gnu_cxx13new_allocatorISt4pairIiiEE8allocateEmPKv
	.section	.text._ZSt11__addressofISt4pairIiiEEPT_RS2_,"axG",@progbits,_ZSt11__addressofISt4pairIiiEEPT_RS2_,comdat
	.weak	_ZSt11__addressofISt4pairIiiEEPT_RS2_
	.type	_ZSt11__addressofISt4pairIiiEEPT_RS2_, @function
_ZSt11__addressofISt4pairIiiEEPT_RS2_:
.LFB11401:
	.cfi_startproc
	endbr64
	push	rbp
	.cfi_def_cfa_offset 16
	.cfi_offset 6, -16
	mov	rbp, rsp
	.cfi_def_cfa_register 6
	mov	QWORD PTR -8[rbp], rdi
	mov	rax, QWORD PTR -8[rbp]
	pop	rbp
	.cfi_def_cfa 7, 8
	ret
	.cfi_endproc
.LFE11401:
	.size	_ZSt11__addressofISt4pairIiiEEPT_RS2_, .-_ZSt11__addressofISt4pairIiiEEPT_RS2_
	.section	.text._ZSt10_ConstructISt4pairIiiEJEEvPT_DpOT0_,"axG",@progbits,_ZSt10_ConstructISt4pairIiiEJEEvPT_DpOT0_,comdat
	.weak	_ZSt10_ConstructISt4pairIiiEJEEvPT_DpOT0_
	.type	_ZSt10_ConstructISt4pairIiiEJEEvPT_DpOT0_, @function
_ZSt10_ConstructISt4pairIiiEJEEvPT_DpOT0_:
.LFB11402:
	.cfi_startproc
	endbr64
	push	rbp
	.cfi_def_cfa_offset 16
	.cfi_offset 6, -16
	mov	rbp, rsp
	.cfi_def_cfa_register 6
	sub	rsp, 16
	mov	QWORD PTR -8[rbp], rdi
	mov	rax, QWORD PTR -8[rbp]
	mov	rsi, rax
	mov	edi, 8
	call	_ZnwmPv
	mov	rdi, rax
	call	_ZNSt4pairIiiEC1IiiLb1EEEv
	nop
	leave
	.cfi_def_cfa 7, 8
	ret
	.cfi_endproc
.LFE11402:
	.size	_ZSt10_ConstructISt4pairIiiEJEEvPT_DpOT0_, .-_ZSt10_ConstructISt4pairIiiEJEEvPT_DpOT0_
	.section	.text._ZSt11__make_heapIN9__gnu_cxx17__normal_iteratorIPSt4pairIiiESt6vectorIS3_SaIS3_EEEENS0_5__ops15_Iter_less_iterEEvT_SB_RT0_,"axG",@progbits,_ZSt11__make_heapIN9__gnu_cxx17__normal_iteratorIPSt4pairIiiESt6vectorIS3_SaIS3_EEEENS0_5__ops15_Iter_less_iterEEvT_SB_RT0_,comdat
	.weak	_ZSt11__make_heapIN9__gnu_cxx17__normal_iteratorIPSt4pairIiiESt6vectorIS3_SaIS3_EEEENS0_5__ops15_Iter_less_iterEEvT_SB_RT0_
	.type	_ZSt11__make_heapIN9__gnu_cxx17__normal_iteratorIPSt4pairIiiESt6vectorIS3_SaIS3_EEEENS0_5__ops15_Iter_less_iterEEvT_SB_RT0_, @function
_ZSt11__make_heapIN9__gnu_cxx17__normal_iteratorIPSt4pairIiiESt6vectorIS3_SaIS3_EEEENS0_5__ops15_Iter_less_iterEEvT_SB_RT0_:
.LFB11403:
	.cfi_startproc
	endbr64
	push	rbp
	.cfi_def_cfa_offset 16
	.cfi_offset 6, -16
	mov	rbp, rsp
	.cfi_def_cfa_register 6
	sub	rsp, 80
	mov	QWORD PTR -56[rbp], rdi
	mov	QWORD PTR -64[rbp], rsi
	mov	QWORD PTR -72[rbp], rdx
	mov	rax, QWORD PTR fs:40
	mov	QWORD PTR -8[rbp], rax
	xor	eax, eax
	lea	rdx, -56[rbp]
	lea	rax, -64[rbp]
	mov	rsi, rdx
	mov	rdi, rax
	call	_ZN9__gnu_cxxmiIPSt4pairIiiESt6vectorIS2_SaIS2_EEEENS_17__normal_iteratorIT_T0_E15difference_typeERKSA_SD_
	cmp	rax, 1
	setle	al
	test	al, al
	jne	.L198
	lea	rdx, -56[rbp]
	lea	rax, -64[rbp]
	mov	rsi, rdx
	mov	rdi, rax
	call	_ZN9__gnu_cxxmiIPSt4pairIiiESt6vectorIS2_SaIS2_EEEENS_17__normal_iteratorIT_T0_E15difference_typeERKSA_SD_
	mov	QWORD PTR -24[rbp], rax
	mov	rax, QWORD PTR -24[rbp]
	sub	rax, 2
	mov	rdx, rax
	shr	rdx, 63
	add	rax, rdx
	sar	rax
	mov	QWORD PTR -32[rbp], rax
.L196:
	mov	rdx, QWORD PTR -32[rbp]
	lea	rax, -56[rbp]
	mov	rsi, rdx
	mov	rdi, rax
	call	_ZNK9__gnu_cxx17__normal_iteratorIPSt4pairIiiESt6vectorIS2_SaIS2_EEEplEl
	mov	QWORD PTR -40[rbp], rax
	lea	rax, -40[rbp]
	mov	rdi, rax
	call	_ZNK9__gnu_cxx17__normal_iteratorIPSt4pairIiiESt6vectorIS2_SaIS2_EEEdeEv
	mov	rdi, rax
	call	_ZSt4moveIRSt4pairIiiEEONSt16remove_referenceIT_E4typeEOS4_
	mov	rax, QWORD PTR [rax]
	mov	QWORD PTR -16[rbp], rax
	lea	rax, -16[rbp]
	mov	rdi, rax
	call	_ZSt4moveIRSt4pairIiiEEONSt16remove_referenceIT_E4typeEOS4_
	mov	rcx, rax
	mov	rdx, QWORD PTR -24[rbp]
	mov	rsi, QWORD PTR -32[rbp]
	mov	rax, QWORD PTR -56[rbp]
	mov	rcx, QWORD PTR [rcx]
	mov	rdi, rax
	call	_ZSt13__adjust_heapIN9__gnu_cxx17__normal_iteratorIPSt4pairIiiESt6vectorIS3_SaIS3_EEEElS3_NS0_5__ops15_Iter_less_iterEEvT_T0_SC_T1_T2_
	cmp	QWORD PTR -32[rbp], 0
	je	.L199
	sub	QWORD PTR -32[rbp], 1
	jmp	.L196
.L198:
	nop
	jmp	.L192
.L199:
	nop
.L192:
	mov	rax, QWORD PTR -8[rbp]
	sub	rax, QWORD PTR fs:40
	je	.L197
	call	__stack_chk_fail@PLT
.L197:
	leave
	.cfi_def_cfa 7, 8
	ret
	.cfi_endproc
.LFE11403:
	.size	_ZSt11__make_heapIN9__gnu_cxx17__normal_iteratorIPSt4pairIiiESt6vectorIS3_SaIS3_EEEENS0_5__ops15_Iter_less_iterEEvT_SB_RT0_, .-_ZSt11__make_heapIN9__gnu_cxx17__normal_iteratorIPSt4pairIiiESt6vectorIS3_SaIS3_EEEENS0_5__ops15_Iter_less_iterEEvT_SB_RT0_
	.section	.text._ZN9__gnu_cxxltIPSt4pairIiiESt6vectorIS2_SaIS2_EEEEbRKNS_17__normal_iteratorIT_T0_EESC_,"axG",@progbits,_ZN9__gnu_cxxltIPSt4pairIiiESt6vectorIS2_SaIS2_EEEEbRKNS_17__normal_iteratorIT_T0_EESC_,comdat
	.weak	_ZN9__gnu_cxxltIPSt4pairIiiESt6vectorIS2_SaIS2_EEEEbRKNS_17__normal_iteratorIT_T0_EESC_
	.type	_ZN9__gnu_cxxltIPSt4pairIiiESt6vectorIS2_SaIS2_EEEEbRKNS_17__normal_iteratorIT_T0_EESC_, @function
_ZN9__gnu_cxxltIPSt4pairIiiESt6vectorIS2_SaIS2_EEEEbRKNS_17__normal_iteratorIT_T0_EESC_:
.LFB11404:
	.cfi_startproc
	endbr64
	push	rbp
	.cfi_def_cfa_offset 16
	.cfi_offset 6, -16
	mov	rbp, rsp
	.cfi_def_cfa_register 6
	push	rbx
	sub	rsp, 24
	.cfi_offset 3, -24
	mov	QWORD PTR -24[rbp], rdi
	mov	QWORD PTR -32[rbp], rsi
	mov	rax, QWORD PTR -24[rbp]
	mov	rdi, rax
	call	_ZNK9__gnu_cxx17__normal_iteratorIPSt4pairIiiESt6vectorIS2_SaIS2_EEE4baseEv
	mov	rbx, QWORD PTR [rax]
	mov	rax, QWORD PTR -32[rbp]
	mov	rdi, rax
	call	_ZNK9__gnu_cxx17__normal_iteratorIPSt4pairIiiESt6vectorIS2_SaIS2_EEE4baseEv
	mov	rax, QWORD PTR [rax]
	cmp	rbx, rax
	setb	al
	mov	rbx, QWORD PTR -8[rbp]
	leave
	.cfi_def_cfa 7, 8
	ret
	.cfi_endproc
.LFE11404:
	.size	_ZN9__gnu_cxxltIPSt4pairIiiESt6vectorIS2_SaIS2_EEEEbRKNS_17__normal_iteratorIT_T0_EESC_, .-_ZN9__gnu_cxxltIPSt4pairIiiESt6vectorIS2_SaIS2_EEEEbRKNS_17__normal_iteratorIT_T0_EESC_
	.section	.text._ZSt10__pop_heapIN9__gnu_cxx17__normal_iteratorIPSt4pairIiiESt6vectorIS3_SaIS3_EEEENS0_5__ops15_Iter_less_iterEEvT_SB_SB_RT0_,"axG",@progbits,_ZSt10__pop_heapIN9__gnu_cxx17__normal_iteratorIPSt4pairIiiESt6vectorIS3_SaIS3_EEEENS0_5__ops15_Iter_less_iterEEvT_SB_SB_RT0_,comdat
	.weak	_ZSt10__pop_heapIN9__gnu_cxx17__normal_iteratorIPSt4pairIiiESt6vectorIS3_SaIS3_EEEENS0_5__ops15_Iter_less_iterEEvT_SB_SB_RT0_
	.type	_ZSt10__pop_heapIN9__gnu_cxx17__normal_iteratorIPSt4pairIiiESt6vectorIS3_SaIS3_EEEENS0_5__ops15_Iter_less_iterEEvT_SB_SB_RT0_, @function
_ZSt10__pop_heapIN9__gnu_cxx17__normal_iteratorIPSt4pairIiiESt6vectorIS3_SaIS3_EEEENS0_5__ops15_Iter_less_iterEEvT_SB_SB_RT0_:
.LFB11405:
	.cfi_startproc
	endbr64
	push	rbp
	.cfi_def_cfa_offset 16
	.cfi_offset 6, -16
	mov	rbp, rsp
	.cfi_def_cfa_register 6
	push	rbx
	sub	rsp, 56
	.cfi_offset 3, -24
	mov	QWORD PTR -40[rbp], rdi
	mov	QWORD PTR -48[rbp], rsi
	mov	QWORD PTR -56[rbp], rdx
	mov	QWORD PTR -64[rbp], rcx
	mov	rax, QWORD PTR fs:40
	mov	QWORD PTR -24[rbp], rax
	xor	eax, eax
	lea	rax, -56[rbp]
	mov	rdi, rax
	call	_ZNK9__gnu_cxx17__normal_iteratorIPSt4pairIiiESt6vectorIS2_SaIS2_EEEdeEv
	mov	rdi, rax
	call	_ZSt4moveIRSt4pairIiiEEONSt16remove_referenceIT_E4typeEOS4_
	mov	rax, QWORD PTR [rax]
	mov	QWORD PTR -32[rbp], rax
	lea	rax, -40[rbp]
	mov	rdi, rax
	call	_ZNK9__gnu_cxx17__normal_iteratorIPSt4pairIiiESt6vectorIS2_SaIS2_EEEdeEv
	mov	rdi, rax
	call	_ZSt4moveIRSt4pairIiiEEONSt16remove_referenceIT_E4typeEOS4_
	mov	rbx, rax
	lea	rax, -56[rbp]
	mov	rdi, rax
	call	_ZNK9__gnu_cxx17__normal_iteratorIPSt4pairIiiESt6vectorIS2_SaIS2_EEEdeEv
	mov	rsi, rbx
	mov	rdi, rax
	call	_ZNSt4pairIiiEaSEOS0_
	lea	rax, -32[rbp]
	mov	rdi, rax
	call	_ZSt4moveIRSt4pairIiiEEONSt16remove_referenceIT_E4typeEOS4_
	mov	rbx, rax
	lea	rdx, -40[rbp]
	lea	rax, -48[rbp]
	mov	rsi, rdx
	mov	rdi, rax
	call	_ZN9__gnu_cxxmiIPSt4pairIiiESt6vectorIS2_SaIS2_EEEENS_17__normal_iteratorIT_T0_E15difference_typeERKSA_SD_
	mov	rdx, rax
	mov	rax, QWORD PTR -40[rbp]
	mov	rcx, QWORD PTR [rbx]
	mov	esi, 0
	mov	rdi, rax
	call	_ZSt13__adjust_heapIN9__gnu_cxx17__normal_iteratorIPSt4pairIiiESt6vectorIS3_SaIS3_EEEElS3_NS0_5__ops15_Iter_less_iterEEvT_T0_SC_T1_T2_
	nop
	mov	rax, QWORD PTR -24[rbp]
	sub	rax, QWORD PTR fs:40
	je	.L203
	call	__stack_chk_fail@PLT
.L203:
	mov	rbx, QWORD PTR -8[rbp]
	leave
	.cfi_def_cfa 7, 8
	ret
	.cfi_endproc
.LFE11405:
	.size	_ZSt10__pop_heapIN9__gnu_cxx17__normal_iteratorIPSt4pairIiiESt6vectorIS3_SaIS3_EEEENS0_5__ops15_Iter_less_iterEEvT_SB_SB_RT0_, .-_ZSt10__pop_heapIN9__gnu_cxx17__normal_iteratorIPSt4pairIiiESt6vectorIS3_SaIS3_EEEENS0_5__ops15_Iter_less_iterEEvT_SB_SB_RT0_
	.section	.text._ZN9__gnu_cxx17__normal_iteratorIPSt4pairIiiESt6vectorIS2_SaIS2_EEEmmEv,"axG",@progbits,_ZN9__gnu_cxx17__normal_iteratorIPSt4pairIiiESt6vectorIS2_SaIS2_EEEmmEv,comdat
	.align 2
	.weak	_ZN9__gnu_cxx17__normal_iteratorIPSt4pairIiiESt6vectorIS2_SaIS2_EEEmmEv
	.type	_ZN9__gnu_cxx17__normal_iteratorIPSt4pairIiiESt6vectorIS2_SaIS2_EEEmmEv, @function
_ZN9__gnu_cxx17__normal_iteratorIPSt4pairIiiESt6vectorIS2_SaIS2_EEEmmEv:
.LFB11406:
	.cfi_startproc
	endbr64
	push	rbp
	.cfi_def_cfa_offset 16
	.cfi_offset 6, -16
	mov	rbp, rsp
	.cfi_def_cfa_register 6
	mov	QWORD PTR -8[rbp], rdi
	mov	rax, QWORD PTR -8[rbp]
	mov	rax, QWORD PTR [rax]
	lea	rdx, -8[rax]
	mov	rax, QWORD PTR -8[rbp]
	mov	QWORD PTR [rax], rdx
	mov	rax, QWORD PTR -8[rbp]
	pop	rbp
	.cfi_def_cfa 7, 8
	ret
	.cfi_endproc
.LFE11406:
	.size	_ZN9__gnu_cxx17__normal_iteratorIPSt4pairIiiESt6vectorIS2_SaIS2_EEEmmEv, .-_ZN9__gnu_cxx17__normal_iteratorIPSt4pairIiiESt6vectorIS2_SaIS2_EEEmmEv
	.section	.text._ZStltIiiEbRKSt4pairIT_T0_ES5_,"axG",@progbits,_ZStltIiiEbRKSt4pairIT_T0_ES5_,comdat
	.weak	_ZStltIiiEbRKSt4pairIT_T0_ES5_
	.type	_ZStltIiiEbRKSt4pairIT_T0_ES5_, @function
_ZStltIiiEbRKSt4pairIT_T0_ES5_:
.LFB11407:
	.cfi_startproc
	endbr64
	push	rbp
	.cfi_def_cfa_offset 16
	.cfi_offset 6, -16
	mov	rbp, rsp
	.cfi_def_cfa_register 6
	mov	QWORD PTR -8[rbp], rdi
	mov	QWORD PTR -16[rbp], rsi
	mov	rax, QWORD PTR -8[rbp]
	mov	edx, DWORD PTR [rax]
	mov	rax, QWORD PTR -16[rbp]
	mov	eax, DWORD PTR [rax]
	cmp	edx, eax
	jl	.L207
	mov	rax, QWORD PTR -16[rbp]
	mov	edx, DWORD PTR [rax]
	mov	rax, QWORD PTR -8[rbp]
	mov	eax, DWORD PTR [rax]
	cmp	edx, eax
	jl	.L208
	mov	rax, QWORD PTR -8[rbp]
	mov	edx, DWORD PTR 4[rax]
	mov	rax, QWORD PTR -16[rbp]
	mov	eax, DWORD PTR 4[rax]
	cmp	edx, eax
	jge	.L208
.L207:
	mov	eax, 1
	jmp	.L209
.L208:
	mov	eax, 0
.L209:
	pop	rbp
	.cfi_def_cfa 7, 8
	ret
	.cfi_endproc
.LFE11407:
	.size	_ZStltIiiEbRKSt4pairIT_T0_ES5_, .-_ZStltIiiEbRKSt4pairIT_T0_ES5_
	.section	.text._ZSt9iter_swapIN9__gnu_cxx17__normal_iteratorIPSt4pairIiiESt6vectorIS3_SaIS3_EEEES8_EvT_T0_,"axG",@progbits,_ZSt9iter_swapIN9__gnu_cxx17__normal_iteratorIPSt4pairIiiESt6vectorIS3_SaIS3_EEEES8_EvT_T0_,comdat
	.weak	_ZSt9iter_swapIN9__gnu_cxx17__normal_iteratorIPSt4pairIiiESt6vectorIS3_SaIS3_EEEES8_EvT_T0_
	.type	_ZSt9iter_swapIN9__gnu_cxx17__normal_iteratorIPSt4pairIiiESt6vectorIS3_SaIS3_EEEES8_EvT_T0_, @function
_ZSt9iter_swapIN9__gnu_cxx17__normal_iteratorIPSt4pairIiiESt6vectorIS3_SaIS3_EEEES8_EvT_T0_:
.LFB11408:
	.cfi_startproc
	endbr64
	push	rbp
	.cfi_def_cfa_offset 16
	.cfi_offset 6, -16
	mov	rbp, rsp
	.cfi_def_cfa_register 6
	push	rbx
	sub	rsp, 24
	.cfi_offset 3, -24
	mov	QWORD PTR -24[rbp], rdi
	mov	QWORD PTR -32[rbp], rsi
	lea	rax, -32[rbp]
	mov	rdi, rax
	call	_ZNK9__gnu_cxx17__normal_iteratorIPSt4pairIiiESt6vectorIS2_SaIS2_EEEdeEv
	mov	rbx, rax
	lea	rax, -24[rbp]
	mov	rdi, rax
	call	_ZNK9__gnu_cxx17__normal_iteratorIPSt4pairIiiESt6vectorIS2_SaIS2_EEEdeEv
	mov	rsi, rbx
	mov	rdi, rax
	call	_ZSt4swapIiiENSt9enable_ifIXsrSt6__and_IJSt14__is_swappableIT_ES2_IT0_EEE5valueEvE4typeERSt4pairIS3_S5_ESC_
	nop
	mov	rbx, QWORD PTR -8[rbp]
	leave
	.cfi_def_cfa 7, 8
	ret
	.cfi_endproc
.LFE11408:
	.size	_ZSt9iter_swapIN9__gnu_cxx17__normal_iteratorIPSt4pairIiiESt6vectorIS3_SaIS3_EEEES8_EvT_T0_, .-_ZSt9iter_swapIN9__gnu_cxx17__normal_iteratorIPSt4pairIiiESt6vectorIS3_SaIS3_EEEES8_EvT_T0_
	.section	.text._ZSt12__miter_baseIN9__gnu_cxx17__normal_iteratorIPSt4pairIiiESt6vectorIS3_SaIS3_EEEEET_S9_,"axG",@progbits,_ZSt12__miter_baseIN9__gnu_cxx17__normal_iteratorIPSt4pairIiiESt6vectorIS3_SaIS3_EEEEET_S9_,comdat
	.weak	_ZSt12__miter_baseIN9__gnu_cxx17__normal_iteratorIPSt4pairIiiESt6vectorIS3_SaIS3_EEEEET_S9_
	.type	_ZSt12__miter_baseIN9__gnu_cxx17__normal_iteratorIPSt4pairIiiESt6vectorIS3_SaIS3_EEEEET_S9_, @function
_ZSt12__miter_baseIN9__gnu_cxx17__normal_iteratorIPSt4pairIiiESt6vectorIS3_SaIS3_EEEEET_S9_:
.LFB11409:
	.cfi_startproc
	endbr64
	push	rbp
	.cfi_def_cfa_offset 16
	.cfi_offset 6, -16
	mov	rbp, rsp
	.cfi_def_cfa_register 6
	mov	QWORD PTR -8[rbp], rdi
	mov	rax, QWORD PTR -8[rbp]
	pop	rbp
	.cfi_def_cfa 7, 8
	ret
	.cfi_endproc
.LFE11409:
	.size	_ZSt12__miter_baseIN9__gnu_cxx17__normal_iteratorIPSt4pairIiiESt6vectorIS3_SaIS3_EEEEET_S9_, .-_ZSt12__miter_baseIN9__gnu_cxx17__normal_iteratorIPSt4pairIiiESt6vectorIS3_SaIS3_EEEEET_S9_
	.section	.text._ZSt22__copy_move_backward_aILb1EN9__gnu_cxx17__normal_iteratorIPSt4pairIiiESt6vectorIS3_SaIS3_EEEES8_ET1_T0_SA_S9_,"axG",@progbits,_ZSt22__copy_move_backward_aILb1EN9__gnu_cxx17__normal_iteratorIPSt4pairIiiESt6vectorIS3_SaIS3_EEEES8_ET1_T0_SA_S9_,comdat
	.weak	_ZSt22__copy_move_backward_aILb1EN9__gnu_cxx17__normal_iteratorIPSt4pairIiiESt6vectorIS3_SaIS3_EEEES8_ET1_T0_SA_S9_
	.type	_ZSt22__copy_move_backward_aILb1EN9__gnu_cxx17__normal_iteratorIPSt4pairIiiESt6vectorIS3_SaIS3_EEEES8_ET1_T0_SA_S9_, @function
_ZSt22__copy_move_backward_aILb1EN9__gnu_cxx17__normal_iteratorIPSt4pairIiiESt6vectorIS3_SaIS3_EEEES8_ET1_T0_SA_S9_:
.LFB11410:
	.cfi_startproc
	endbr64
	push	rbp
	.cfi_def_cfa_offset 16
	.cfi_offset 6, -16
	mov	rbp, rsp
	.cfi_def_cfa_register 6
	push	r12
	push	rbx
	sub	rsp, 32
	.cfi_offset 12, -24
	.cfi_offset 3, -32
	mov	QWORD PTR -24[rbp], rdi
	mov	QWORD PTR -32[rbp], rsi
	mov	QWORD PTR -40[rbp], rdx
	mov	rax, QWORD PTR -40[rbp]
	mov	rdi, rax
	call	_ZSt12__niter_baseIPSt4pairIiiESt6vectorIS1_SaIS1_EEET_N9__gnu_cxx17__normal_iteratorIS6_T0_EE
	mov	r12, rax
	mov	rax, QWORD PTR -32[rbp]
	mov	rdi, rax
	call	_ZSt12__niter_baseIPSt4pairIiiESt6vectorIS1_SaIS1_EEET_N9__gnu_cxx17__normal_iteratorIS6_T0_EE
	mov	rbx, rax
	mov	rax, QWORD PTR -24[rbp]
	mov	rdi, rax
	call	_ZSt12__niter_baseIPSt4pairIiiESt6vectorIS1_SaIS1_EEET_N9__gnu_cxx17__normal_iteratorIS6_T0_EE
	mov	rdx, r12
	mov	rsi, rbx
	mov	rdi, rax
	call	_ZSt23__copy_move_backward_a1ILb1EPSt4pairIiiES2_ET1_T0_S4_S3_
	mov	rdx, rax
	mov	rax, QWORD PTR -40[rbp]
	mov	rsi, rdx
	mov	rdi, rax
	call	_ZSt12__niter_wrapIN9__gnu_cxx17__normal_iteratorIPSt4pairIiiESt6vectorIS3_SaIS3_EEEES4_ET_S9_T0_
	add	rsp, 32
	pop	rbx
	pop	r12
	pop	rbp
	.cfi_def_cfa 7, 8
	ret
	.cfi_endproc
.LFE11410:
	.size	_ZSt22__copy_move_backward_aILb1EN9__gnu_cxx17__normal_iteratorIPSt4pairIiiESt6vectorIS3_SaIS3_EEEES8_ET1_T0_SA_S9_, .-_ZSt22__copy_move_backward_aILb1EN9__gnu_cxx17__normal_iteratorIPSt4pairIiiESt6vectorIS3_SaIS3_EEEES8_ET1_T0_SA_S9_
	.section	.text._ZNK9__gnu_cxx5__ops14_Val_less_iterclISt4pairIiiENS_17__normal_iteratorIPS4_St6vectorIS4_SaIS4_EEEEEEbRT_T0_,"axG",@progbits,_ZNK9__gnu_cxx5__ops14_Val_less_iterclISt4pairIiiENS_17__normal_iteratorIPS4_St6vectorIS4_SaIS4_EEEEEEbRT_T0_,comdat
	.align 2
	.weak	_ZNK9__gnu_cxx5__ops14_Val_less_iterclISt4pairIiiENS_17__normal_iteratorIPS4_St6vectorIS4_SaIS4_EEEEEEbRT_T0_
	.type	_ZNK9__gnu_cxx5__ops14_Val_less_iterclISt4pairIiiENS_17__normal_iteratorIPS4_St6vectorIS4_SaIS4_EEEEEEbRT_T0_, @function
_ZNK9__gnu_cxx5__ops14_Val_less_iterclISt4pairIiiENS_17__normal_iteratorIPS4_St6vectorIS4_SaIS4_EEEEEEbRT_T0_:
.LFB11412:
	.cfi_startproc
	endbr64
	push	rbp
	.cfi_def_cfa_offset 16
	.cfi_offset 6, -16
	mov	rbp, rsp
	.cfi_def_cfa_register 6
	sub	rsp, 32
	mov	QWORD PTR -8[rbp], rdi
	mov	QWORD PTR -16[rbp], rsi
	mov	QWORD PTR -24[rbp], rdx
	lea	rax, -24[rbp]
	mov	rdi, rax
	call	_ZNK9__gnu_cxx17__normal_iteratorIPSt4pairIiiESt6vectorIS2_SaIS2_EEEdeEv
	mov	rdx, rax
	mov	rax, QWORD PTR -16[rbp]
	mov	rsi, rdx
	mov	rdi, rax
	call	_ZStltIiiEbRKSt4pairIT_T0_ES5_
	leave
	.cfi_def_cfa 7, 8
	ret
	.cfi_endproc
.LFE11412:
	.size	_ZNK9__gnu_cxx5__ops14_Val_less_iterclISt4pairIiiENS_17__normal_iteratorIPS4_St6vectorIS4_SaIS4_EEEEEEbRT_T0_, .-_ZNK9__gnu_cxx5__ops14_Val_less_iterclISt4pairIiiENS_17__normal_iteratorIPS4_St6vectorIS4_SaIS4_EEEEEEbRT_T0_
	.section	.text._ZNSt4pairIiiEC2IiiLb1EEEv,"axG",@progbits,_ZNSt4pairIiiEC5IiiLb1EEEv,comdat
	.align 2
	.weak	_ZNSt4pairIiiEC2IiiLb1EEEv
	.type	_ZNSt4pairIiiEC2IiiLb1EEEv, @function
_ZNSt4pairIiiEC2IiiLb1EEEv:
.LFB11481:
	.cfi_startproc
	endbr64
	push	rbp
	.cfi_def_cfa_offset 16
	.cfi_offset 6, -16
	mov	rbp, rsp
	.cfi_def_cfa_register 6
	mov	QWORD PTR -8[rbp], rdi
	mov	rax, QWORD PTR -8[rbp]
	mov	DWORD PTR [rax], 0
	mov	rax, QWORD PTR -8[rbp]
	mov	DWORD PTR 4[rax], 0
	nop
	pop	rbp
	.cfi_def_cfa 7, 8
	ret
	.cfi_endproc
.LFE11481:
	.size	_ZNSt4pairIiiEC2IiiLb1EEEv, .-_ZNSt4pairIiiEC2IiiLb1EEEv
	.weak	_ZNSt4pairIiiEC1IiiLb1EEEv
	.set	_ZNSt4pairIiiEC1IiiLb1EEEv,_ZNSt4pairIiiEC2IiiLb1EEEv
	.section	.text._ZSt13__adjust_heapIN9__gnu_cxx17__normal_iteratorIPSt4pairIiiESt6vectorIS3_SaIS3_EEEElS3_NS0_5__ops15_Iter_less_iterEEvT_T0_SC_T1_T2_,"axG",@progbits,_ZSt13__adjust_heapIN9__gnu_cxx17__normal_iteratorIPSt4pairIiiESt6vectorIS3_SaIS3_EEEElS3_NS0_5__ops15_Iter_less_iterEEvT_T0_SC_T1_T2_,comdat
	.weak	_ZSt13__adjust_heapIN9__gnu_cxx17__normal_iteratorIPSt4pairIiiESt6vectorIS3_SaIS3_EEEElS3_NS0_5__ops15_Iter_less_iterEEvT_T0_SC_T1_T2_
	.type	_ZSt13__adjust_heapIN9__gnu_cxx17__normal_iteratorIPSt4pairIiiESt6vectorIS3_SaIS3_EEEElS3_NS0_5__ops15_Iter_less_iterEEvT_T0_SC_T1_T2_, @function
_ZSt13__adjust_heapIN9__gnu_cxx17__normal_iteratorIPSt4pairIiiESt6vectorIS3_SaIS3_EEEElS3_NS0_5__ops15_Iter_less_iterEEvT_T0_SC_T1_T2_:
.LFB11483:
	.cfi_startproc
	endbr64
	push	rbp
	.cfi_def_cfa_offset 16
	.cfi_offset 6, -16
	mov	rbp, rsp
	.cfi_def_cfa_register 6
	push	rbx
	sub	rsp, 104
	.cfi_offset 3, -24
	mov	QWORD PTR -72[rbp], rdi
	mov	QWORD PTR -80[rbp], rsi
	mov	QWORD PTR -88[rbp], rdx
	mov	QWORD PTR -96[rbp], rcx
	mov	rax, QWORD PTR fs:40
	mov	QWORD PTR -24[rbp], rax
	xor	eax, eax
	mov	rax, QWORD PTR -80[rbp]
	mov	QWORD PTR -32[rbp], rax
	mov	rax, QWORD PTR -80[rbp]
	mov	QWORD PTR -40[rbp], rax
	jmp	.L220
.L222:
	mov	rax, QWORD PTR -40[rbp]
	add	rax, 1
	add	rax, rax
	mov	QWORD PTR -40[rbp], rax
	mov	rax, QWORD PTR -40[rbp]
	lea	rdx, -1[rax]
	lea	rax, -72[rbp]
	mov	rsi, rdx
	mov	rdi, rax
	call	_ZNK9__gnu_cxx17__normal_iteratorIPSt4pairIiiESt6vectorIS2_SaIS2_EEEplEl
	mov	rbx, rax
	mov	rdx, QWORD PTR -40[rbp]
	lea	rax, -72[rbp]
	mov	rsi, rdx
	mov	rdi, rax
	call	_ZNK9__gnu_cxx17__normal_iteratorIPSt4pairIiiESt6vectorIS2_SaIS2_EEEplEl
	mov	rcx, rax
	lea	rax, -97[rbp]
	mov	rdx, rbx
	mov	rsi, rcx
	mov	rdi, rax
	call	_ZNK9__gnu_cxx5__ops15_Iter_less_iterclINS_17__normal_iteratorIPSt4pairIiiESt6vectorIS5_SaIS5_EEEESA_EEbT_T0_
	test	al, al
	je	.L221
	sub	QWORD PTR -40[rbp], 1
.L221:
	mov	rdx, QWORD PTR -40[rbp]
	lea	rax, -72[rbp]
	mov	rsi, rdx
	mov	rdi, rax
	call	_ZNK9__gnu_cxx17__normal_iteratorIPSt4pairIiiESt6vectorIS2_SaIS2_EEEplEl
	mov	QWORD PTR -48[rbp], rax
	lea	rax, -48[rbp]
	mov	rdi, rax
	call	_ZNK9__gnu_cxx17__normal_iteratorIPSt4pairIiiESt6vectorIS2_SaIS2_EEEdeEv
	mov	rdi, rax
	call	_ZSt4moveIRSt4pairIiiEEONSt16remove_referenceIT_E4typeEOS4_
	mov	rbx, rax
	mov	rdx, QWORD PTR -80[rbp]
	lea	rax, -72[rbp]
	mov	rsi, rdx
	mov	rdi, rax
	call	_ZNK9__gnu_cxx17__normal_iteratorIPSt4pairIiiESt6vectorIS2_SaIS2_EEEplEl
	mov	QWORD PTR -56[rbp], rax
	lea	rax, -56[rbp]
	mov	rdi, rax
	call	_ZNK9__gnu_cxx17__normal_iteratorIPSt4pairIiiESt6vectorIS2_SaIS2_EEEdeEv
	mov	rsi, rbx
	mov	rdi, rax
	call	_ZNSt4pairIiiEaSEOS0_
	mov	rax, QWORD PTR -40[rbp]
	mov	QWORD PTR -80[rbp], rax
.L220:
	mov	rax, QWORD PTR -88[rbp]
	sub	rax, 1
	mov	rdx, rax
	shr	rdx, 63
	add	rax, rdx
	sar	rax
	cmp	QWORD PTR -40[rbp], rax
	jl	.L222
	mov	rax, QWORD PTR -88[rbp]
	and	eax, 1
	test	rax, rax
	jne	.L223
	mov	rax, QWORD PTR -88[rbp]
	sub	rax, 2
	mov	rdx, rax
	shr	rdx, 63
	add	rax, rdx
	sar	rax
	cmp	QWORD PTR -40[rbp], rax
	jne	.L223
	mov	rax, QWORD PTR -40[rbp]
	add	rax, 1
	add	rax, rax
	mov	QWORD PTR -40[rbp], rax
	mov	rax, QWORD PTR -40[rbp]
	lea	rdx, -1[rax]
	lea	rax, -72[rbp]
	mov	rsi, rdx
	mov	rdi, rax
	call	_ZNK9__gnu_cxx17__normal_iteratorIPSt4pairIiiESt6vectorIS2_SaIS2_EEEplEl
	mov	QWORD PTR -48[rbp], rax
	lea	rax, -48[rbp]
	mov	rdi, rax
	call	_ZNK9__gnu_cxx17__normal_iteratorIPSt4pairIiiESt6vectorIS2_SaIS2_EEEdeEv
	mov	rdi, rax
	call	_ZSt4moveIRSt4pairIiiEEONSt16remove_referenceIT_E4typeEOS4_
	mov	rbx, rax
	mov	rdx, QWORD PTR -80[rbp]
	lea	rax, -72[rbp]
	mov	rsi, rdx
	mov	rdi, rax
	call	_ZNK9__gnu_cxx17__normal_iteratorIPSt4pairIiiESt6vectorIS2_SaIS2_EEEplEl
	mov	QWORD PTR -56[rbp], rax
	lea	rax, -56[rbp]
	mov	rdi, rax
	call	_ZNK9__gnu_cxx17__normal_iteratorIPSt4pairIiiESt6vectorIS2_SaIS2_EEEdeEv
	mov	rsi, rbx
	mov	rdi, rax
	call	_ZNSt4pairIiiEaSEOS0_
	mov	rax, QWORD PTR -40[rbp]
	sub	rax, 1
	mov	QWORD PTR -80[rbp], rax
.L223:
	lea	rax, -97[rbp]
	mov	rdi, rax
	call	_ZSt4moveIRN9__gnu_cxx5__ops15_Iter_less_iterEEONSt16remove_referenceIT_E4typeEOS5_
	lea	rax, -48[rbp]
	mov	rdi, rax
	call	_ZN9__gnu_cxx5__ops14_Iter_less_valC1ENS0_15_Iter_less_iterE
	lea	rax, -96[rbp]
	mov	rdi, rax
	call	_ZSt4moveIRSt4pairIiiEEONSt16remove_referenceIT_E4typeEOS4_
	mov	rcx, rax
	lea	rdi, -48[rbp]
	mov	rdx, QWORD PTR -32[rbp]
	mov	rsi, QWORD PTR -80[rbp]
	mov	rax, QWORD PTR -72[rbp]
	mov	r8, rdi
	mov	rcx, QWORD PTR [rcx]
	mov	rdi, rax
	call	_ZSt11__push_heapIN9__gnu_cxx17__normal_iteratorIPSt4pairIiiESt6vectorIS3_SaIS3_EEEElS3_NS0_5__ops14_Iter_less_valEEvT_T0_SC_T1_RT2_
	nop
	mov	rax, QWORD PTR -24[rbp]
	sub	rax, QWORD PTR fs:40
	je	.L224
	call	__stack_chk_fail@PLT
.L224:
	mov	rbx, QWORD PTR -8[rbp]
	leave
	.cfi_def_cfa 7, 8
	ret
	.cfi_endproc
.LFE11483:
	.size	_ZSt13__adjust_heapIN9__gnu_cxx17__normal_iteratorIPSt4pairIiiESt6vectorIS3_SaIS3_EEEElS3_NS0_5__ops15_Iter_less_iterEEvT_T0_SC_T1_T2_, .-_ZSt13__adjust_heapIN9__gnu_cxx17__normal_iteratorIPSt4pairIiiESt6vectorIS3_SaIS3_EEEElS3_NS0_5__ops15_Iter_less_iterEEvT_T0_SC_T1_T2_
	.section	.text._ZSt4swapIiiENSt9enable_ifIXsrSt6__and_IJSt14__is_swappableIT_ES2_IT0_EEE5valueEvE4typeERSt4pairIS3_S5_ESC_,"axG",@progbits,_ZSt4swapIiiENSt9enable_ifIXsrSt6__and_IJSt14__is_swappableIT_ES2_IT0_EEE5valueEvE4typeERSt4pairIS3_S5_ESC_,comdat
	.weak	_ZSt4swapIiiENSt9enable_ifIXsrSt6__and_IJSt14__is_swappableIT_ES2_IT0_EEE5valueEvE4typeERSt4pairIS3_S5_ESC_
	.type	_ZSt4swapIiiENSt9enable_ifIXsrSt6__and_IJSt14__is_swappableIT_ES2_IT0_EEE5valueEvE4typeERSt4pairIS3_S5_ESC_, @function
_ZSt4swapIiiENSt9enable_ifIXsrSt6__and_IJSt14__is_swappableIT_ES2_IT0_EEE5valueEvE4typeERSt4pairIS3_S5_ESC_:
.LFB11484:
	.cfi_startproc
	endbr64
	push	rbp
	.cfi_def_cfa_offset 16
	.cfi_offset 6, -16
	mov	rbp, rsp
	.cfi_def_cfa_register 6
	sub	rsp, 16
	mov	QWORD PTR -8[rbp], rdi
	mov	QWORD PTR -16[rbp], rsi
	mov	rdx, QWORD PTR -16[rbp]
	mov	rax, QWORD PTR -8[rbp]
	mov	rsi, rdx
	mov	rdi, rax
	call	_ZNSt4pairIiiE4swapERS0_
	nop
	leave
	.cfi_def_cfa 7, 8
	ret
	.cfi_endproc
.LFE11484:
	.size	_ZSt4swapIiiENSt9enable_ifIXsrSt6__and_IJSt14__is_swappableIT_ES2_IT0_EEE5valueEvE4typeERSt4pairIS3_S5_ESC_, .-_ZSt4swapIiiENSt9enable_ifIXsrSt6__and_IJSt14__is_swappableIT_ES2_IT0_EEE5valueEvE4typeERSt4pairIS3_S5_ESC_
	.section	.text._ZSt12__niter_baseIPSt4pairIiiESt6vectorIS1_SaIS1_EEET_N9__gnu_cxx17__normal_iteratorIS6_T0_EE,"axG",@progbits,_ZSt12__niter_baseIPSt4pairIiiESt6vectorIS1_SaIS1_EEET_N9__gnu_cxx17__normal_iteratorIS6_T0_EE,comdat
	.weak	_ZSt12__niter_baseIPSt4pairIiiESt6vectorIS1_SaIS1_EEET_N9__gnu_cxx17__normal_iteratorIS6_T0_EE
	.type	_ZSt12__niter_baseIPSt4pairIiiESt6vectorIS1_SaIS1_EEET_N9__gnu_cxx17__normal_iteratorIS6_T0_EE, @function
_ZSt12__niter_baseIPSt4pairIiiESt6vectorIS1_SaIS1_EEET_N9__gnu_cxx17__normal_iteratorIS6_T0_EE:
.LFB11485:
	.cfi_startproc
	endbr64
	push	rbp
	.cfi_def_cfa_offset 16
	.cfi_offset 6, -16
	mov	rbp, rsp
	.cfi_def_cfa_register 6
	sub	rsp, 16
	mov	QWORD PTR -8[rbp], rdi
	lea	rax, -8[rbp]
	mov	rdi, rax
	call	_ZNK9__gnu_cxx17__normal_iteratorIPSt4pairIiiESt6vectorIS2_SaIS2_EEE4baseEv
	mov	rax, QWORD PTR [rax]
	leave
	.cfi_def_cfa 7, 8
	ret
	.cfi_endproc
.LFE11485:
	.size	_ZSt12__niter_baseIPSt4pairIiiESt6vectorIS1_SaIS1_EEET_N9__gnu_cxx17__normal_iteratorIS6_T0_EE, .-_ZSt12__niter_baseIPSt4pairIiiESt6vectorIS1_SaIS1_EEET_N9__gnu_cxx17__normal_iteratorIS6_T0_EE
	.section	.text._ZSt23__copy_move_backward_a1ILb1EPSt4pairIiiES2_ET1_T0_S4_S3_,"axG",@progbits,_ZSt23__copy_move_backward_a1ILb1EPSt4pairIiiES2_ET1_T0_S4_S3_,comdat
	.weak	_ZSt23__copy_move_backward_a1ILb1EPSt4pairIiiES2_ET1_T0_S4_S3_
	.type	_ZSt23__copy_move_backward_a1ILb1EPSt4pairIiiES2_ET1_T0_S4_S3_, @function
_ZSt23__copy_move_backward_a1ILb1EPSt4pairIiiES2_ET1_T0_S4_S3_:
.LFB11486:
	.cfi_startproc
	endbr64
	push	rbp
	.cfi_def_cfa_offset 16
	.cfi_offset 6, -16
	mov	rbp, rsp
	.cfi_def_cfa_register 6
	sub	rsp, 32
	mov	QWORD PTR -8[rbp], rdi
	mov	QWORD PTR -16[rbp], rsi
	mov	QWORD PTR -24[rbp], rdx
	mov	rdx, QWORD PTR -24[rbp]
	mov	rcx, QWORD PTR -16[rbp]
	mov	rax, QWORD PTR -8[rbp]
	mov	rsi, rcx
	mov	rdi, rax
	call	_ZSt23__copy_move_backward_a2ILb1EPSt4pairIiiES2_ET1_T0_S4_S3_
	leave
	.cfi_def_cfa 7, 8
	ret
	.cfi_endproc
.LFE11486:
	.size	_ZSt23__copy_move_backward_a1ILb1EPSt4pairIiiES2_ET1_T0_S4_S3_, .-_ZSt23__copy_move_backward_a1ILb1EPSt4pairIiiES2_ET1_T0_S4_S3_
	.section	.text._ZSt12__niter_wrapIN9__gnu_cxx17__normal_iteratorIPSt4pairIiiESt6vectorIS3_SaIS3_EEEES4_ET_S9_T0_,"axG",@progbits,_ZSt12__niter_wrapIN9__gnu_cxx17__normal_iteratorIPSt4pairIiiESt6vectorIS3_SaIS3_EEEES4_ET_S9_T0_,comdat
	.weak	_ZSt12__niter_wrapIN9__gnu_cxx17__normal_iteratorIPSt4pairIiiESt6vectorIS3_SaIS3_EEEES4_ET_S9_T0_
	.type	_ZSt12__niter_wrapIN9__gnu_cxx17__normal_iteratorIPSt4pairIiiESt6vectorIS3_SaIS3_EEEES4_ET_S9_T0_, @function
_ZSt12__niter_wrapIN9__gnu_cxx17__normal_iteratorIPSt4pairIiiESt6vectorIS3_SaIS3_EEEES4_ET_S9_T0_:
.LFB11487:
	.cfi_startproc
	endbr64
	push	rbp
	.cfi_def_cfa_offset 16
	.cfi_offset 6, -16
	mov	rbp, rsp
	.cfi_def_cfa_register 6
	sub	rsp, 16
	mov	QWORD PTR -8[rbp], rdi
	mov	QWORD PTR -16[rbp], rsi
	mov	rax, QWORD PTR -8[rbp]
	mov	rdi, rax
	call	_ZSt12__niter_baseIPSt4pairIiiESt6vectorIS1_SaIS1_EEET_N9__gnu_cxx17__normal_iteratorIS6_T0_EE
	mov	rdx, rax
	mov	rax, QWORD PTR -16[rbp]
	sub	rax, rdx
	sar	rax, 3
	mov	rdx, rax
	lea	rax, -8[rbp]
	mov	rsi, rdx
	mov	rdi, rax
	call	_ZNK9__gnu_cxx17__normal_iteratorIPSt4pairIiiESt6vectorIS2_SaIS2_EEEplEl
	leave
	.cfi_def_cfa 7, 8
	ret
	.cfi_endproc
.LFE11487:
	.size	_ZSt12__niter_wrapIN9__gnu_cxx17__normal_iteratorIPSt4pairIiiESt6vectorIS3_SaIS3_EEEES4_ET_S9_T0_, .-_ZSt12__niter_wrapIN9__gnu_cxx17__normal_iteratorIPSt4pairIiiESt6vectorIS3_SaIS3_EEEES4_ET_S9_T0_
	.section	.text._ZSt4moveIRN9__gnu_cxx5__ops15_Iter_less_iterEEONSt16remove_referenceIT_E4typeEOS5_,"axG",@progbits,_ZSt4moveIRN9__gnu_cxx5__ops15_Iter_less_iterEEONSt16remove_referenceIT_E4typeEOS5_,comdat
	.weak	_ZSt4moveIRN9__gnu_cxx5__ops15_Iter_less_iterEEONSt16remove_referenceIT_E4typeEOS5_
	.type	_ZSt4moveIRN9__gnu_cxx5__ops15_Iter_less_iterEEONSt16remove_referenceIT_E4typeEOS5_, @function
_ZSt4moveIRN9__gnu_cxx5__ops15_Iter_less_iterEEONSt16remove_referenceIT_E4typeEOS5_:
.LFB11517:
	.cfi_startproc
	endbr64
	push	rbp
	.cfi_def_cfa_offset 16
	.cfi_offset 6, -16
	mov	rbp, rsp
	.cfi_def_cfa_register 6
	mov	QWORD PTR -8[rbp], rdi
	mov	rax, QWORD PTR -8[rbp]
	pop	rbp
	.cfi_def_cfa 7, 8
	ret
	.cfi_endproc
.LFE11517:
	.size	_ZSt4moveIRN9__gnu_cxx5__ops15_Iter_less_iterEEONSt16remove_referenceIT_E4typeEOS5_, .-_ZSt4moveIRN9__gnu_cxx5__ops15_Iter_less_iterEEONSt16remove_referenceIT_E4typeEOS5_
	.section	.text._ZSt11__push_heapIN9__gnu_cxx17__normal_iteratorIPSt4pairIiiESt6vectorIS3_SaIS3_EEEElS3_NS0_5__ops14_Iter_less_valEEvT_T0_SC_T1_RT2_,"axG",@progbits,_ZSt11__push_heapIN9__gnu_cxx17__normal_iteratorIPSt4pairIiiESt6vectorIS3_SaIS3_EEEElS3_NS0_5__ops14_Iter_less_valEEvT_T0_SC_T1_RT2_,comdat
	.weak	_ZSt11__push_heapIN9__gnu_cxx17__normal_iteratorIPSt4pairIiiESt6vectorIS3_SaIS3_EEEElS3_NS0_5__ops14_Iter_less_valEEvT_T0_SC_T1_RT2_
	.type	_ZSt11__push_heapIN9__gnu_cxx17__normal_iteratorIPSt4pairIiiESt6vectorIS3_SaIS3_EEEElS3_NS0_5__ops14_Iter_less_valEEvT_T0_SC_T1_RT2_, @function
_ZSt11__push_heapIN9__gnu_cxx17__normal_iteratorIPSt4pairIiiESt6vectorIS3_SaIS3_EEEElS3_NS0_5__ops14_Iter_less_valEEvT_T0_SC_T1_RT2_:
.LFB11518:
	.cfi_startproc
	endbr64
	push	rbp
	.cfi_def_cfa_offset 16
	.cfi_offset 6, -16
	mov	rbp, rsp
	.cfi_def_cfa_register 6
	push	rbx
	sub	rsp, 88
	.cfi_offset 3, -24
	mov	QWORD PTR -56[rbp], rdi
	mov	QWORD PTR -64[rbp], rsi
	mov	QWORD PTR -72[rbp], rdx
	mov	QWORD PTR -80[rbp], rcx
	mov	QWORD PTR -88[rbp], r8
	mov	rax, QWORD PTR fs:40
	mov	QWORD PTR -24[rbp], rax
	xor	eax, eax
	mov	rax, QWORD PTR -64[rbp]
	sub	rax, 1
	mov	rdx, rax
	shr	rdx, 63
	add	rax, rdx
	sar	rax
	mov	QWORD PTR -32[rbp], rax
	jmp	.L235
.L238:
	mov	rdx, QWORD PTR -32[rbp]
	lea	rax, -56[rbp]
	mov	rsi, rdx
	mov	rdi, rax
	call	_ZNK9__gnu_cxx17__normal_iteratorIPSt4pairIiiESt6vectorIS2_SaIS2_EEEplEl
	mov	QWORD PTR -40[rbp], rax
	lea	rax, -40[rbp]
	mov	rdi, rax
	call	_ZNK9__gnu_cxx17__normal_iteratorIPSt4pairIiiESt6vectorIS2_SaIS2_EEEdeEv
	mov	rdi, rax
	call	_ZSt4moveIRSt4pairIiiEEONSt16remove_referenceIT_E4typeEOS4_
	mov	rbx, rax
	mov	rdx, QWORD PTR -64[rbp]
	lea	rax, -56[rbp]
	mov	rsi, rdx
	mov	rdi, rax
	call	_ZNK9__gnu_cxx17__normal_iteratorIPSt4pairIiiESt6vectorIS2_SaIS2_EEEplEl
	mov	QWORD PTR -48[rbp], rax
	lea	rax, -48[rbp]
	mov	rdi, rax
	call	_ZNK9__gnu_cxx17__normal_iteratorIPSt4pairIiiESt6vectorIS2_SaIS2_EEEdeEv
	mov	rsi, rbx
	mov	rdi, rax
	call	_ZNSt4pairIiiEaSEOS0_
	mov	rax, QWORD PTR -32[rbp]
	mov	QWORD PTR -64[rbp], rax
	mov	rax, QWORD PTR -64[rbp]
	sub	rax, 1
	mov	rdx, rax
	shr	rdx, 63
	add	rax, rdx
	sar	rax
	mov	QWORD PTR -32[rbp], rax
.L235:
	mov	rax, QWORD PTR -64[rbp]
	cmp	rax, QWORD PTR -72[rbp]
	jle	.L236
	mov	rdx, QWORD PTR -32[rbp]
	lea	rax, -56[rbp]
	mov	rsi, rdx
	mov	rdi, rax
	call	_ZNK9__gnu_cxx17__normal_iteratorIPSt4pairIiiESt6vectorIS2_SaIS2_EEEplEl
	mov	rcx, rax
	lea	rdx, -80[rbp]
	mov	rax, QWORD PTR -88[rbp]
	mov	rsi, rcx
	mov	rdi, rax
	call	_ZNK9__gnu_cxx5__ops14_Iter_less_valclINS_17__normal_iteratorIPSt4pairIiiESt6vectorIS5_SaIS5_EEEES5_EEbT_RT0_
	test	al, al
	je	.L236
	mov	eax, 1
	jmp	.L237
.L236:
	mov	eax, 0
.L237:
	test	al, al
	jne	.L238
	lea	rax, -80[rbp]
	mov	rdi, rax
	call	_ZSt4moveIRSt4pairIiiEEONSt16remove_referenceIT_E4typeEOS4_
	mov	rbx, rax
	mov	rdx, QWORD PTR -64[rbp]
	lea	rax, -56[rbp]
	mov	rsi, rdx
	mov	rdi, rax
	call	_ZNK9__gnu_cxx17__normal_iteratorIPSt4pairIiiESt6vectorIS2_SaIS2_EEEplEl
	mov	QWORD PTR -40[rbp], rax
	lea	rax, -40[rbp]
	mov	rdi, rax
	call	_ZNK9__gnu_cxx17__normal_iteratorIPSt4pairIiiESt6vectorIS2_SaIS2_EEEdeEv
	mov	rsi, rbx
	mov	rdi, rax
	call	_ZNSt4pairIiiEaSEOS0_
	nop
	mov	rax, QWORD PTR -24[rbp]
	sub	rax, QWORD PTR fs:40
	je	.L239
	call	__stack_chk_fail@PLT
.L239:
	mov	rbx, QWORD PTR -8[rbp]
	leave
	.cfi_def_cfa 7, 8
	ret
	.cfi_endproc
.LFE11518:
	.size	_ZSt11__push_heapIN9__gnu_cxx17__normal_iteratorIPSt4pairIiiESt6vectorIS3_SaIS3_EEEElS3_NS0_5__ops14_Iter_less_valEEvT_T0_SC_T1_RT2_, .-_ZSt11__push_heapIN9__gnu_cxx17__normal_iteratorIPSt4pairIiiESt6vectorIS3_SaIS3_EEEElS3_NS0_5__ops14_Iter_less_valEEvT_T0_SC_T1_RT2_
	.section	.text._ZNSt4pairIiiE4swapERS0_,"axG",@progbits,_ZNSt4pairIiiE4swapERS0_,comdat
	.align 2
	.weak	_ZNSt4pairIiiE4swapERS0_
	.type	_ZNSt4pairIiiE4swapERS0_, @function
_ZNSt4pairIiiE4swapERS0_:
.LFB11519:
	.cfi_startproc
	endbr64
	push	rbp
	.cfi_def_cfa_offset 16
	.cfi_offset 6, -16
	mov	rbp, rsp
	.cfi_def_cfa_register 6
	sub	rsp, 16
	mov	QWORD PTR -8[rbp], rdi
	mov	QWORD PTR -16[rbp], rsi
	mov	rdx, QWORD PTR -16[rbp]
	mov	rax, QWORD PTR -8[rbp]
	mov	rsi, rdx
	mov	rdi, rax
	call	_ZSt4swapIiENSt9enable_ifIXsrSt6__and_IJSt6__not_ISt15__is_tuple_likeIT_EESt21is_move_constructibleIS4_ESt18is_move_assignableIS4_EEE5valueEvE4typeERS4_SE_
	mov	rax, QWORD PTR -16[rbp]
	lea	rdx, 4[rax]
	mov	rax, QWORD PTR -8[rbp]
	add	rax, 4
	mov	rsi, rdx
	mov	rdi, rax
	call	_ZSt4swapIiENSt9enable_ifIXsrSt6__and_IJSt6__not_ISt15__is_tuple_likeIT_EESt21is_move_constructibleIS4_ESt18is_move_assignableIS4_EEE5valueEvE4typeERS4_SE_
	nop
	leave
	.cfi_def_cfa 7, 8
	ret
	.cfi_endproc
.LFE11519:
	.size	_ZNSt4pairIiiE4swapERS0_, .-_ZNSt4pairIiiE4swapERS0_
	.section	.text._ZSt23__copy_move_backward_a2ILb1EPSt4pairIiiES2_ET1_T0_S4_S3_,"axG",@progbits,_ZSt23__copy_move_backward_a2ILb1EPSt4pairIiiES2_ET1_T0_S4_S3_,comdat
	.weak	_ZSt23__copy_move_backward_a2ILb1EPSt4pairIiiES2_ET1_T0_S4_S3_
	.type	_ZSt23__copy_move_backward_a2ILb1EPSt4pairIiiES2_ET1_T0_S4_S3_, @function
_ZSt23__copy_move_backward_a2ILb1EPSt4pairIiiES2_ET1_T0_S4_S3_:
.LFB11520:
	.cfi_startproc
	endbr64
	push	rbp
	.cfi_def_cfa_offset 16
	.cfi_offset 6, -16
	mov	rbp, rsp
	.cfi_def_cfa_register 6
	sub	rsp, 32
	mov	QWORD PTR -8[rbp], rdi
	mov	QWORD PTR -16[rbp], rsi
	mov	QWORD PTR -24[rbp], rdx
	mov	rdx, QWORD PTR -24[rbp]
	mov	rcx, QWORD PTR -16[rbp]
	mov	rax, QWORD PTR -8[rbp]
	mov	rsi, rcx
	mov	rdi, rax
	call	_ZNSt20__copy_move_backwardILb1ELb0ESt26random_access_iterator_tagE13__copy_move_bIPSt4pairIiiES5_EET0_T_S7_S6_
	leave
	.cfi_def_cfa 7, 8
	ret
	.cfi_endproc
.LFE11520:
	.size	_ZSt23__copy_move_backward_a2ILb1EPSt4pairIiiES2_ET1_T0_S4_S3_, .-_ZSt23__copy_move_backward_a2ILb1EPSt4pairIiiES2_ET1_T0_S4_S3_
	.section	.text._ZNK9__gnu_cxx5__ops14_Iter_less_valclINS_17__normal_iteratorIPSt4pairIiiESt6vectorIS5_SaIS5_EEEES5_EEbT_RT0_,"axG",@progbits,_ZNK9__gnu_cxx5__ops14_Iter_less_valclINS_17__normal_iteratorIPSt4pairIiiESt6vectorIS5_SaIS5_EEEES5_EEbT_RT0_,comdat
	.align 2
	.weak	_ZNK9__gnu_cxx5__ops14_Iter_less_valclINS_17__normal_iteratorIPSt4pairIiiESt6vectorIS5_SaIS5_EEEES5_EEbT_RT0_
	.type	_ZNK9__gnu_cxx5__ops14_Iter_less_valclINS_17__normal_iteratorIPSt4pairIiiESt6vectorIS5_SaIS5_EEEES5_EEbT_RT0_, @function
_ZNK9__gnu_cxx5__ops14_Iter_less_valclINS_17__normal_iteratorIPSt4pairIiiESt6vectorIS5_SaIS5_EEEES5_EEbT_RT0_:
.LFB11524:
	.cfi_startproc
	endbr64
	push	rbp
	.cfi_def_cfa_offset 16
	.cfi_offset 6, -16
	mov	rbp, rsp
	.cfi_def_cfa_register 6
	sub	rsp, 32
	mov	QWORD PTR -8[rbp], rdi
	mov	QWORD PTR -16[rbp], rsi
	mov	QWORD PTR -24[rbp], rdx
	lea	rax, -16[rbp]
	mov	rdi, rax
	call	_ZNK9__gnu_cxx17__normal_iteratorIPSt4pairIiiESt6vectorIS2_SaIS2_EEEdeEv
	mov	rdx, rax
	mov	rax, QWORD PTR -24[rbp]
	mov	rsi, rax
	mov	rdi, rdx
	call	_ZStltIiiEbRKSt4pairIT_T0_ES5_
	leave
	.cfi_def_cfa 7, 8
	ret
	.cfi_endproc
.LFE11524:
	.size	_ZNK9__gnu_cxx5__ops14_Iter_less_valclINS_17__normal_iteratorIPSt4pairIiiESt6vectorIS5_SaIS5_EEEES5_EEbT_RT0_, .-_ZNK9__gnu_cxx5__ops14_Iter_less_valclINS_17__normal_iteratorIPSt4pairIiiESt6vectorIS5_SaIS5_EEEES5_EEbT_RT0_
	.section	.text._ZSt4moveIRiEONSt16remove_referenceIT_E4typeEOS2_,"axG",@progbits,_ZSt4moveIRiEONSt16remove_referenceIT_E4typeEOS2_,comdat
	.weak	_ZSt4moveIRiEONSt16remove_referenceIT_E4typeEOS2_
	.type	_ZSt4moveIRiEONSt16remove_referenceIT_E4typeEOS2_, @function
_ZSt4moveIRiEONSt16remove_referenceIT_E4typeEOS2_:
.LFB11526:
	.cfi_startproc
	endbr64
	push	rbp
	.cfi_def_cfa_offset 16
	.cfi_offset 6, -16
	mov	rbp, rsp
	.cfi_def_cfa_register 6
	mov	QWORD PTR -8[rbp], rdi
	mov	rax, QWORD PTR -8[rbp]
	pop	rbp
	.cfi_def_cfa 7, 8
	ret
	.cfi_endproc
.LFE11526:
	.size	_ZSt4moveIRiEONSt16remove_referenceIT_E4typeEOS2_, .-_ZSt4moveIRiEONSt16remove_referenceIT_E4typeEOS2_
	.section	.text._ZSt4swapIiENSt9enable_ifIXsrSt6__and_IJSt6__not_ISt15__is_tuple_likeIT_EESt21is_move_constructibleIS4_ESt18is_move_assignableIS4_EEE5valueEvE4typeERS4_SE_,"axG",@progbits,_ZSt4swapIiENSt9enable_ifIXsrSt6__and_IJSt6__not_ISt15__is_tuple_likeIT_EESt21is_move_constructibleIS4_ESt18is_move_assignableIS4_EEE5valueEvE4typeERS4_SE_,comdat
	.weak	_ZSt4swapIiENSt9enable_ifIXsrSt6__and_IJSt6__not_ISt15__is_tuple_likeIT_EESt21is_move_constructibleIS4_ESt18is_move_assignableIS4_EEE5valueEvE4typeERS4_SE_
	.type	_ZSt4swapIiENSt9enable_ifIXsrSt6__and_IJSt6__not_ISt15__is_tuple_likeIT_EESt21is_move_constructibleIS4_ESt18is_move_assignableIS4_EEE5valueEvE4typeERS4_SE_, @function
_ZSt4swapIiENSt9enable_ifIXsrSt6__and_IJSt6__not_ISt15__is_tuple_likeIT_EESt21is_move_constructibleIS4_ESt18is_move_assignableIS4_EEE5valueEvE4typeERS4_SE_:
.LFB11525:
	.cfi_startproc
	endbr64
	push	rbp
	.cfi_def_cfa_offset 16
	.cfi_offset 6, -16
	mov	rbp, rsp
	.cfi_def_cfa_register 6
	sub	rsp, 32
	mov	QWORD PTR -24[rbp], rdi
	mov	QWORD PTR -32[rbp], rsi
	mov	rax, QWORD PTR fs:40
	mov	QWORD PTR -8[rbp], rax
	xor	eax, eax
	mov	rax, QWORD PTR -24[rbp]
	mov	rdi, rax
	call	_ZSt4moveIRiEONSt16remove_referenceIT_E4typeEOS2_
	mov	eax, DWORD PTR [rax]
	mov	DWORD PTR -12[rbp], eax
	mov	rax, QWORD PTR -32[rbp]
	mov	rdi, rax
	call	_ZSt4moveIRiEONSt16remove_referenceIT_E4typeEOS2_
	mov	edx, DWORD PTR [rax]
	mov	rax, QWORD PTR -24[rbp]
	mov	DWORD PTR [rax], edx
	lea	rax, -12[rbp]
	mov	rdi, rax
	call	_ZSt4moveIRiEONSt16remove_referenceIT_E4typeEOS2_
	mov	edx, DWORD PTR [rax]
	mov	rax, QWORD PTR -32[rbp]
	mov	DWORD PTR [rax], edx
	nop
	mov	rax, QWORD PTR -8[rbp]
	sub	rax, QWORD PTR fs:40
	je	.L248
	call	__stack_chk_fail@PLT
.L248:
	leave
	.cfi_def_cfa 7, 8
	ret
	.cfi_endproc
.LFE11525:
	.size	_ZSt4swapIiENSt9enable_ifIXsrSt6__and_IJSt6__not_ISt15__is_tuple_likeIT_EESt21is_move_constructibleIS4_ESt18is_move_assignableIS4_EEE5valueEvE4typeERS4_SE_, .-_ZSt4swapIiENSt9enable_ifIXsrSt6__and_IJSt6__not_ISt15__is_tuple_likeIT_EESt21is_move_constructibleIS4_ESt18is_move_assignableIS4_EEE5valueEvE4typeERS4_SE_
	.section	.text._ZNSt20__copy_move_backwardILb1ELb0ESt26random_access_iterator_tagE13__copy_move_bIPSt4pairIiiES5_EET0_T_S7_S6_,"axG",@progbits,_ZNSt20__copy_move_backwardILb1ELb0ESt26random_access_iterator_tagE13__copy_move_bIPSt4pairIiiES5_EET0_T_S7_S6_,comdat
	.weak	_ZNSt20__copy_move_backwardILb1ELb0ESt26random_access_iterator_tagE13__copy_move_bIPSt4pairIiiES5_EET0_T_S7_S6_
	.type	_ZNSt20__copy_move_backwardILb1ELb0ESt26random_access_iterator_tagE13__copy_move_bIPSt4pairIiiES5_EET0_T_S7_S6_, @function
_ZNSt20__copy_move_backwardILb1ELb0ESt26random_access_iterator_tagE13__copy_move_bIPSt4pairIiiES5_EET0_T_S7_S6_:
.LFB11527:
	.cfi_startproc
	endbr64
	push	rbp
	.cfi_def_cfa_offset 16
	.cfi_offset 6, -16
	mov	rbp, rsp
	.cfi_def_cfa_register 6
	sub	rsp, 48
	mov	QWORD PTR -24[rbp], rdi
	mov	QWORD PTR -32[rbp], rsi
	mov	QWORD PTR -40[rbp], rdx
	mov	rax, QWORD PTR -32[rbp]
	sub	rax, QWORD PTR -24[rbp]
	sar	rax, 3
	mov	QWORD PTR -8[rbp], rax
	jmp	.L250
.L251:
	sub	QWORD PTR -32[rbp], 8
	mov	rax, QWORD PTR -32[rbp]
	mov	rdi, rax
	call	_ZSt4moveIRSt4pairIiiEEONSt16remove_referenceIT_E4typeEOS4_
	mov	rdx, rax
	sub	QWORD PTR -40[rbp], 8
	mov	rax, QWORD PTR -40[rbp]
	mov	rsi, rdx
	mov	rdi, rax
	call	_ZNSt4pairIiiEaSEOS0_
	sub	QWORD PTR -8[rbp], 1
.L250:
	cmp	QWORD PTR -8[rbp], 0
	jg	.L251
	mov	rax, QWORD PTR -40[rbp]
	leave
	.cfi_def_cfa 7, 8
	ret
	.cfi_endproc
.LFE11527:
	.size	_ZNSt20__copy_move_backwardILb1ELb0ESt26random_access_iterator_tagE13__copy_move_bIPSt4pairIiiES5_EET0_T_S7_S6_, .-_ZNSt20__copy_move_backwardILb1ELb0ESt26random_access_iterator_tagE13__copy_move_bIPSt4pairIiiES5_EET0_T_S7_S6_
	.text
	.type	_Z41__static_initialization_and_destruction_0ii, @function
_Z41__static_initialization_and_destruction_0ii:
.LFB11577:
	.cfi_startproc
	endbr64
	push	rbp
	.cfi_def_cfa_offset 16
	.cfi_offset 6, -16
	mov	rbp, rsp
	.cfi_def_cfa_register 6
	sub	rsp, 16
	mov	DWORD PTR -4[rbp], edi
	mov	DWORD PTR -8[rbp], esi
	cmp	DWORD PTR -4[rbp], 1
	jne	.L255
	cmp	DWORD PTR -8[rbp], 65535
	jne	.L255
	lea	rax, _ZStL8__ioinit[rip]
	mov	rdi, rax
	call	_ZNSt8ios_base4InitC1Ev@PLT
	lea	rax, __dso_handle[rip]
	mov	rdx, rax
	lea	rax, _ZStL8__ioinit[rip]
	mov	rsi, rax
	mov	rax, QWORD PTR _ZNSt8ios_base4InitD1Ev@GOTPCREL[rip]
	mov	rdi, rax
	call	__cxa_atexit@PLT
.L255:
	nop
	leave
	.cfi_def_cfa 7, 8
	ret
	.cfi_endproc
.LFE11577:
	.size	_Z41__static_initialization_and_destruction_0ii, .-_Z41__static_initialization_and_destruction_0ii
	.type	_GLOBAL__sub_I__Z5setupv, @function
_GLOBAL__sub_I__Z5setupv:
.LFB11600:
	.cfi_startproc
	endbr64
	push	rbp
	.cfi_def_cfa_offset 16
	.cfi_offset 6, -16
	mov	rbp, rsp
	.cfi_def_cfa_register 6
	mov	esi, 65535
	mov	edi, 1
	call	_Z41__static_initialization_and_destruction_0ii
	pop	rbp
	.cfi_def_cfa 7, 8
	ret
	.cfi_endproc
.LFE11600:
	.size	_GLOBAL__sub_I__Z5setupv, .-_GLOBAL__sub_I__Z5setupv
	.section	.init_array,"aw"
	.align 8
	.quad	_GLOBAL__sub_I__Z5setupv
	.hidden	DW.ref.__gxx_personality_v0
	.weak	DW.ref.__gxx_personality_v0
	.section	.data.rel.local.DW.ref.__gxx_personality_v0,"awG",@progbits,DW.ref.__gxx_personality_v0,comdat
	.align 8
	.type	DW.ref.__gxx_personality_v0, @object
	.size	DW.ref.__gxx_personality_v0, 8
DW.ref.__gxx_personality_v0:
	.quad	__gxx_personality_v0
	.hidden	__dso_handle
	.ident	"GCC: (Ubuntu 11.4.0-1ubuntu1~22.04.2) 11.4.0"
	.section	.note.GNU-stack,"",@progbits
	.section	.note.gnu.property,"a"
	.align 8
	.long	1f - 0f
	.long	4f - 1f
	.long	5
0:
	.string	"GNU"
1:
	.align 8
	.long	0xc0000002
	.long	3f - 2f
2:
	.long	0x3
3:
	.align 8
4:
