	.file	"G_Flood_Fill.cpp"
	.intel_syntax noprefix
	.text
	.section	.text._ZSt17__size_to_integerm,"axG",@progbits,_ZSt17__size_to_integerm,comdat
	.weak	_ZSt17__size_to_integerm
	.type	_ZSt17__size_to_integerm, @function
_ZSt17__size_to_integerm:
.LFB538:
	.cfi_startproc
	endbr64
	push	rbp
	.cfi_def_cfa_offset 16
	.cfi_offset 6, -16
	mov	rbp, rsp
	.cfi_def_cfa_register 6
	mov	QWORD PTR -8[rbp], rdi
	mov	rax, QWORD PTR -8[rbp]
	pop	rbp
	.cfi_def_cfa 7, 8
	ret
	.cfi_endproc
.LFE538:
	.size	_ZSt17__size_to_integerm, .-_ZSt17__size_to_integerm
	.section	.text._ZnwmPv,"axG",@progbits,_ZnwmPv,comdat
	.weak	_ZnwmPv
	.type	_ZnwmPv, @function
_ZnwmPv:
.LFB1007:
	.cfi_startproc
	endbr64
	push	rbp
	.cfi_def_cfa_offset 16
	.cfi_offset 6, -16
	mov	rbp, rsp
	.cfi_def_cfa_register 6
	mov	QWORD PTR -8[rbp], rdi
	mov	QWORD PTR -16[rbp], rsi
	mov	rax, QWORD PTR -16[rbp]
	pop	rbp
	.cfi_def_cfa 7, 8
	ret
	.cfi_endproc
.LFE1007:
	.size	_ZnwmPv, .-_ZnwmPv
	.section	.text._ZdlPvS_,"axG",@progbits,_ZdlPvS_,comdat
	.weak	_ZdlPvS_
	.type	_ZdlPvS_, @function
_ZdlPvS_:
.LFB1009:
	.cfi_startproc
	endbr64
	push	rbp
	.cfi_def_cfa_offset 16
	.cfi_offset 6, -16
	mov	rbp, rsp
	.cfi_def_cfa_register 6
	mov	QWORD PTR -8[rbp], rdi
	mov	QWORD PTR -16[rbp], rsi
	nop
	pop	rbp
	.cfi_def_cfa 7, 8
	ret
	.cfi_endproc
.LFE1009:
	.size	_ZdlPvS_, .-_ZdlPvS_
	.section	.text._ZSt3minImERKT_S2_S2_,"axG",@progbits,_ZSt3minImERKT_S2_S2_,comdat
	.weak	_ZSt3minImERKT_S2_S2_
	.type	_ZSt3minImERKT_S2_S2_, @function
_ZSt3minImERKT_S2_S2_:
.LFB3255:
	.cfi_startproc
	endbr64
	push	rbp
	.cfi_def_cfa_offset 16
	.cfi_offset 6, -16
	mov	rbp, rsp
	.cfi_def_cfa_register 6
	mov	QWORD PTR -8[rbp], rdi
	mov	QWORD PTR -16[rbp], rsi
	mov	rax, QWORD PTR -16[rbp]
	mov	rdx, QWORD PTR [rax]
	mov	rax, QWORD PTR -8[rbp]
	mov	rax, QWORD PTR [rax]
	cmp	rdx, rax
	jnb	.L7
	mov	rax, QWORD PTR -16[rbp]
	jmp	.L8
.L7:
	mov	rax, QWORD PTR -8[rbp]
.L8:
	pop	rbp
	.cfi_def_cfa 7, 8
	ret
	.cfi_endproc
.LFE3255:
	.size	_ZSt3minImERKT_S2_S2_, .-_ZSt3minImERKT_S2_S2_
	.section	.text._ZNSt14_Bit_referenceC2EPmm,"axG",@progbits,_ZNSt14_Bit_referenceC5EPmm,comdat
	.align 2
	.weak	_ZNSt14_Bit_referenceC2EPmm
	.type	_ZNSt14_Bit_referenceC2EPmm, @function
_ZNSt14_Bit_referenceC2EPmm:
.LFB3837:
	.cfi_startproc
	endbr64
	push	rbp
	.cfi_def_cfa_offset 16
	.cfi_offset 6, -16
	mov	rbp, rsp
	.cfi_def_cfa_register 6
	mov	QWORD PTR -8[rbp], rdi
	mov	QWORD PTR -16[rbp], rsi
	mov	QWORD PTR -24[rbp], rdx
	mov	rax, QWORD PTR -8[rbp]
	mov	rdx, QWORD PTR -16[rbp]
	mov	QWORD PTR [rax], rdx
	mov	rax, QWORD PTR -8[rbp]
	mov	rdx, QWORD PTR -24[rbp]
	mov	QWORD PTR 8[rax], rdx
	nop
	pop	rbp
	.cfi_def_cfa 7, 8
	ret
	.cfi_endproc
.LFE3837:
	.size	_ZNSt14_Bit_referenceC2EPmm, .-_ZNSt14_Bit_referenceC2EPmm
	.weak	_ZNSt14_Bit_referenceC1EPmm
	.set	_ZNSt14_Bit_referenceC1EPmm,_ZNSt14_Bit_referenceC2EPmm
	.section	.text._ZNKSt14_Bit_referencecvbEv,"axG",@progbits,_ZNKSt14_Bit_referencecvbEv,comdat
	.align 2
	.weak	_ZNKSt14_Bit_referencecvbEv
	.type	_ZNKSt14_Bit_referencecvbEv, @function
_ZNKSt14_Bit_referencecvbEv:
.LFB3842:
	.cfi_startproc
	endbr64
	push	rbp
	.cfi_def_cfa_offset 16
	.cfi_offset 6, -16
	mov	rbp, rsp
	.cfi_def_cfa_register 6
	mov	QWORD PTR -8[rbp], rdi
	mov	rax, QWORD PTR -8[rbp]
	mov	rax, QWORD PTR [rax]
	mov	rdx, QWORD PTR [rax]
	mov	rax, QWORD PTR -8[rbp]
	mov	rax, QWORD PTR 8[rax]
	and	rax, rdx
	test	rax, rax
	setne	al
	pop	rbp
	.cfi_def_cfa 7, 8
	ret
	.cfi_endproc
.LFE3842:
	.size	_ZNKSt14_Bit_referencecvbEv, .-_ZNKSt14_Bit_referencecvbEv
	.section	.text._ZNSt14_Bit_referenceaSEb,"axG",@progbits,_ZNSt14_Bit_referenceaSEb,comdat
	.align 2
	.weak	_ZNSt14_Bit_referenceaSEb
	.type	_ZNSt14_Bit_referenceaSEb, @function
_ZNSt14_Bit_referenceaSEb:
.LFB3843:
	.cfi_startproc
	endbr64
	push	rbp
	.cfi_def_cfa_offset 16
	.cfi_offset 6, -16
	mov	rbp, rsp
	.cfi_def_cfa_register 6
	mov	QWORD PTR -8[rbp], rdi
	mov	eax, esi
	mov	BYTE PTR -12[rbp], al
	cmp	BYTE PTR -12[rbp], 0
	je	.L13
	mov	rax, QWORD PTR -8[rbp]
	mov	rax, QWORD PTR [rax]
	mov	rcx, QWORD PTR [rax]
	mov	rax, QWORD PTR -8[rbp]
	mov	rdx, QWORD PTR 8[rax]
	mov	rax, QWORD PTR -8[rbp]
	mov	rax, QWORD PTR [rax]
	or	rdx, rcx
	mov	QWORD PTR [rax], rdx
	jmp	.L14
.L13:
	mov	rax, QWORD PTR -8[rbp]
	mov	rax, QWORD PTR [rax]
	mov	rdx, QWORD PTR [rax]
	mov	rax, QWORD PTR -8[rbp]
	mov	rax, QWORD PTR 8[rax]
	not	rax
	mov	rcx, rax
	mov	rax, QWORD PTR -8[rbp]
	mov	rax, QWORD PTR [rax]
	and	rdx, rcx
	mov	QWORD PTR [rax], rdx
.L14:
	mov	rax, QWORD PTR -8[rbp]
	pop	rbp
	.cfi_def_cfa 7, 8
	ret
	.cfi_endproc
.LFE3843:
	.size	_ZNSt14_Bit_referenceaSEb, .-_ZNSt14_Bit_referenceaSEb
	.section	.text._ZNSt18_Bit_iterator_baseC2EPmj,"axG",@progbits,_ZNSt18_Bit_iterator_baseC5EPmj,comdat
	.align 2
	.weak	_ZNSt18_Bit_iterator_baseC2EPmj
	.type	_ZNSt18_Bit_iterator_baseC2EPmj, @function
_ZNSt18_Bit_iterator_baseC2EPmj:
.LFB3852:
	.cfi_startproc
	endbr64
	push	rbp
	.cfi_def_cfa_offset 16
	.cfi_offset 6, -16
	mov	rbp, rsp
	.cfi_def_cfa_register 6
	mov	QWORD PTR -8[rbp], rdi
	mov	QWORD PTR -16[rbp], rsi
	mov	DWORD PTR -20[rbp], edx
	mov	rax, QWORD PTR -8[rbp]
	mov	rdx, QWORD PTR -16[rbp]
	mov	QWORD PTR [rax], rdx
	mov	rax, QWORD PTR -8[rbp]
	mov	edx, DWORD PTR -20[rbp]
	mov	DWORD PTR 8[rax], edx
	nop
	pop	rbp
	.cfi_def_cfa 7, 8
	ret
	.cfi_endproc
.LFE3852:
	.size	_ZNSt18_Bit_iterator_baseC2EPmj, .-_ZNSt18_Bit_iterator_baseC2EPmj
	.weak	_ZNSt18_Bit_iterator_baseC1EPmj
	.set	_ZNSt18_Bit_iterator_baseC1EPmj,_ZNSt18_Bit_iterator_baseC2EPmj
	.section	.text._ZNSt18_Bit_iterator_base10_M_bump_upEv,"axG",@progbits,_ZNSt18_Bit_iterator_base10_M_bump_upEv,comdat
	.align 2
	.weak	_ZNSt18_Bit_iterator_base10_M_bump_upEv
	.type	_ZNSt18_Bit_iterator_base10_M_bump_upEv, @function
_ZNSt18_Bit_iterator_base10_M_bump_upEv:
.LFB3854:
	.cfi_startproc
	endbr64
	push	rbp
	.cfi_def_cfa_offset 16
	.cfi_offset 6, -16
	mov	rbp, rsp
	.cfi_def_cfa_register 6
	mov	QWORD PTR -8[rbp], rdi
	mov	rax, QWORD PTR -8[rbp]
	mov	eax, DWORD PTR 8[rax]
	lea	ecx, 1[rax]
	mov	rdx, QWORD PTR -8[rbp]
	mov	DWORD PTR 8[rdx], ecx
	cmp	eax, 63
	sete	al
	test	al, al
	je	.L19
	mov	rax, QWORD PTR -8[rbp]
	mov	DWORD PTR 8[rax], 0
	mov	rax, QWORD PTR -8[rbp]
	mov	rax, QWORD PTR [rax]
	lea	rdx, 8[rax]
	mov	rax, QWORD PTR -8[rbp]
	mov	QWORD PTR [rax], rdx
.L19:
	nop
	pop	rbp
	.cfi_def_cfa 7, 8
	ret
	.cfi_endproc
.LFE3854:
	.size	_ZNSt18_Bit_iterator_base10_M_bump_upEv, .-_ZNSt18_Bit_iterator_base10_M_bump_upEv
	.section	.text._ZNSt18_Bit_iterator_base7_M_incrEl,"axG",@progbits,_ZNSt18_Bit_iterator_base7_M_incrEl,comdat
	.align 2
	.weak	_ZNSt18_Bit_iterator_base7_M_incrEl
	.type	_ZNSt18_Bit_iterator_base7_M_incrEl, @function
_ZNSt18_Bit_iterator_base7_M_incrEl:
.LFB3856:
	.cfi_startproc
	endbr64
	push	rbp
	.cfi_def_cfa_offset 16
	.cfi_offset 6, -16
	mov	rbp, rsp
	.cfi_def_cfa_register 6
	mov	QWORD PTR -24[rbp], rdi
	mov	QWORD PTR -32[rbp], rsi
	mov	rax, QWORD PTR -24[rbp]
	mov	eax, DWORD PTR 8[rax]
	mov	edx, eax
	mov	rax, QWORD PTR -32[rbp]
	add	rax, rdx
	mov	QWORD PTR -8[rbp], rax
	mov	rax, QWORD PTR -24[rbp]
	mov	rcx, QWORD PTR [rax]
	mov	rax, QWORD PTR -8[rbp]
	lea	rdx, 63[rax]
	test	rax, rax
	cmovs	rax, rdx
	sar	rax, 6
	sal	rax, 3
	lea	rdx, [rcx+rax]
	mov	rax, QWORD PTR -24[rbp]
	mov	QWORD PTR [rax], rdx
	mov	rax, QWORD PTR -8[rbp]
	cqo
	shr	rdx, 58
	add	rax, rdx
	and	eax, 63
	sub	rax, rdx
	mov	QWORD PTR -8[rbp], rax
	cmp	QWORD PTR -8[rbp], 0
	jns	.L21
	add	QWORD PTR -8[rbp], 64
	mov	rax, QWORD PTR -24[rbp]
	mov	rax, QWORD PTR [rax]
	lea	rdx, -8[rax]
	mov	rax, QWORD PTR -24[rbp]
	mov	QWORD PTR [rax], rdx
.L21:
	mov	rax, QWORD PTR -8[rbp]
	mov	edx, eax
	mov	rax, QWORD PTR -24[rbp]
	mov	DWORD PTR 8[rax], edx
	nop
	pop	rbp
	.cfi_def_cfa 7, 8
	ret
	.cfi_endproc
.LFE3856:
	.size	_ZNSt18_Bit_iterator_base7_M_incrEl, .-_ZNSt18_Bit_iterator_base7_M_incrEl
	.section	.text._ZStmiRKSt18_Bit_iterator_baseS1_,"axG",@progbits,_ZStmiRKSt18_Bit_iterator_baseS1_,comdat
	.weak	_ZStmiRKSt18_Bit_iterator_baseS1_
	.type	_ZStmiRKSt18_Bit_iterator_baseS1_, @function
_ZStmiRKSt18_Bit_iterator_baseS1_:
.LFB3863:
	.cfi_startproc
	endbr64
	push	rbp
	.cfi_def_cfa_offset 16
	.cfi_offset 6, -16
	mov	rbp, rsp
	.cfi_def_cfa_register 6
	mov	QWORD PTR -8[rbp], rdi
	mov	QWORD PTR -16[rbp], rsi
	mov	rax, QWORD PTR -8[rbp]
	mov	rdx, QWORD PTR [rax]
	mov	rax, QWORD PTR -16[rbp]
	mov	rcx, QWORD PTR [rax]
	mov	rax, rdx
	sub	rax, rcx
	lea	rdx, 0[0+rax*8]
	mov	rax, QWORD PTR -8[rbp]
	mov	eax, DWORD PTR 8[rax]
	mov	eax, eax
	add	rdx, rax
	mov	rax, QWORD PTR -16[rbp]
	mov	eax, DWORD PTR 8[rax]
	mov	ecx, eax
	mov	rax, rdx
	sub	rax, rcx
	pop	rbp
	.cfi_def_cfa 7, 8
	ret
	.cfi_endproc
.LFE3863:
	.size	_ZStmiRKSt18_Bit_iterator_baseS1_, .-_ZStmiRKSt18_Bit_iterator_baseS1_
	.section	.text._ZNSt13_Bit_iteratorC2Ev,"axG",@progbits,_ZNSt13_Bit_iteratorC5Ev,comdat
	.align 2
	.weak	_ZNSt13_Bit_iteratorC2Ev
	.type	_ZNSt13_Bit_iteratorC2Ev, @function
_ZNSt13_Bit_iteratorC2Ev:
.LFB3865:
	.cfi_startproc
	endbr64
	push	rbp
	.cfi_def_cfa_offset 16
	.cfi_offset 6, -16
	mov	rbp, rsp
	.cfi_def_cfa_register 6
	sub	rsp, 16
	mov	QWORD PTR -8[rbp], rdi
	mov	rax, QWORD PTR -8[rbp]
	mov	edx, 0
	mov	esi, 0
	mov	rdi, rax
	call	_ZNSt18_Bit_iterator_baseC2EPmj
	nop
	leave
	.cfi_def_cfa 7, 8
	ret
	.cfi_endproc
.LFE3865:
	.size	_ZNSt13_Bit_iteratorC2Ev, .-_ZNSt13_Bit_iteratorC2Ev
	.weak	_ZNSt13_Bit_iteratorC1Ev
	.set	_ZNSt13_Bit_iteratorC1Ev,_ZNSt13_Bit_iteratorC2Ev
	.section	.text._ZNSt13_Bit_iteratorC2EPmj,"axG",@progbits,_ZNSt13_Bit_iteratorC5EPmj,comdat
	.align 2
	.weak	_ZNSt13_Bit_iteratorC2EPmj
	.type	_ZNSt13_Bit_iteratorC2EPmj, @function
_ZNSt13_Bit_iteratorC2EPmj:
.LFB3868:
	.cfi_startproc
	endbr64
	push	rbp
	.cfi_def_cfa_offset 16
	.cfi_offset 6, -16
	mov	rbp, rsp
	.cfi_def_cfa_register 6
	sub	rsp, 32
	mov	QWORD PTR -8[rbp], rdi
	mov	QWORD PTR -16[rbp], rsi
	mov	DWORD PTR -20[rbp], edx
	mov	rax, QWORD PTR -8[rbp]
	mov	edx, DWORD PTR -20[rbp]
	mov	rcx, QWORD PTR -16[rbp]
	mov	rsi, rcx
	mov	rdi, rax
	call	_ZNSt18_Bit_iterator_baseC2EPmj
	nop
	leave
	.cfi_def_cfa 7, 8
	ret
	.cfi_endproc
.LFE3868:
	.size	_ZNSt13_Bit_iteratorC2EPmj, .-_ZNSt13_Bit_iteratorC2EPmj
	.weak	_ZNSt13_Bit_iteratorC1EPmj
	.set	_ZNSt13_Bit_iteratorC1EPmj,_ZNSt13_Bit_iteratorC2EPmj
	.section	.text._ZNKSt13_Bit_iteratordeEv,"axG",@progbits,_ZNKSt13_Bit_iteratordeEv,comdat
	.align 2
	.weak	_ZNKSt13_Bit_iteratordeEv
	.type	_ZNKSt13_Bit_iteratordeEv, @function
_ZNKSt13_Bit_iteratordeEv:
.LFB3871:
	.cfi_startproc
	endbr64
	push	rbp
	.cfi_def_cfa_offset 16
	.cfi_offset 6, -16
	mov	rbp, rsp
	.cfi_def_cfa_register 6
	sub	rsp, 48
	mov	QWORD PTR -40[rbp], rdi
	mov	rax, QWORD PTR fs:40
	mov	QWORD PTR -8[rbp], rax
	xor	eax, eax
	mov	rax, QWORD PTR -40[rbp]
	mov	eax, DWORD PTR 8[rax]
	mov	edx, 1
	mov	ecx, eax
	sal	rdx, cl
	mov	rax, QWORD PTR -40[rbp]
	mov	rcx, QWORD PTR [rax]
	lea	rax, -32[rbp]
	mov	rsi, rcx
	mov	rdi, rax
	call	_ZNSt14_Bit_referenceC1EPmm
	mov	rax, QWORD PTR -32[rbp]
	mov	rdx, QWORD PTR -24[rbp]
	mov	rcx, QWORD PTR -8[rbp]
	sub	rcx, QWORD PTR fs:40
	je	.L28
	call	__stack_chk_fail@PLT
.L28:
	leave
	.cfi_def_cfa 7, 8
	ret
	.cfi_endproc
.LFE3871:
	.size	_ZNKSt13_Bit_iteratordeEv, .-_ZNKSt13_Bit_iteratordeEv
	.section	.text._ZNSt13_Bit_iteratorppEv,"axG",@progbits,_ZNSt13_Bit_iteratorppEv,comdat
	.align 2
	.weak	_ZNSt13_Bit_iteratorppEv
	.type	_ZNSt13_Bit_iteratorppEv, @function
_ZNSt13_Bit_iteratorppEv:
.LFB3872:
	.cfi_startproc
	endbr64
	push	rbp
	.cfi_def_cfa_offset 16
	.cfi_offset 6, -16
	mov	rbp, rsp
	.cfi_def_cfa_register 6
	sub	rsp, 16
	mov	QWORD PTR -8[rbp], rdi
	mov	rax, QWORD PTR -8[rbp]
	mov	rdi, rax
	call	_ZNSt18_Bit_iterator_base10_M_bump_upEv
	mov	rax, QWORD PTR -8[rbp]
	leave
	.cfi_def_cfa 7, 8
	ret
	.cfi_endproc
.LFE3872:
	.size	_ZNSt13_Bit_iteratorppEv, .-_ZNSt13_Bit_iteratorppEv
	.section	.text._ZNSt13_Bit_iteratorpLEl,"axG",@progbits,_ZNSt13_Bit_iteratorpLEl,comdat
	.align 2
	.weak	_ZNSt13_Bit_iteratorpLEl
	.type	_ZNSt13_Bit_iteratorpLEl, @function
_ZNSt13_Bit_iteratorpLEl:
.LFB3876:
	.cfi_startproc
	endbr64
	push	rbp
	.cfi_def_cfa_offset 16
	.cfi_offset 6, -16
	mov	rbp, rsp
	.cfi_def_cfa_register 6
	sub	rsp, 16
	mov	QWORD PTR -8[rbp], rdi
	mov	QWORD PTR -16[rbp], rsi
	mov	rax, QWORD PTR -8[rbp]
	mov	rdx, QWORD PTR -16[rbp]
	mov	rsi, rdx
	mov	rdi, rax
	call	_ZNSt18_Bit_iterator_base7_M_incrEl
	mov	rax, QWORD PTR -8[rbp]
	leave
	.cfi_def_cfa 7, 8
	ret
	.cfi_endproc
.LFE3876:
	.size	_ZNSt13_Bit_iteratorpLEl, .-_ZNSt13_Bit_iteratorpLEl
	.section	.text._ZNKSt13_Bit_iteratorixEl,"axG",@progbits,_ZNKSt13_Bit_iteratorixEl,comdat
	.align 2
	.weak	_ZNKSt13_Bit_iteratorixEl
	.type	_ZNKSt13_Bit_iteratorixEl, @function
_ZNKSt13_Bit_iteratorixEl:
.LFB3878:
	.cfi_startproc
	endbr64
	push	rbp
	.cfi_def_cfa_offset 16
	.cfi_offset 6, -16
	mov	rbp, rsp
	.cfi_def_cfa_register 6
	sub	rsp, 48
	mov	QWORD PTR -40[rbp], rdi
	mov	QWORD PTR -48[rbp], rsi
	mov	rax, QWORD PTR fs:40
	mov	QWORD PTR -8[rbp], rax
	xor	eax, eax
	mov	rdx, QWORD PTR -48[rbp]
	mov	rax, QWORD PTR -40[rbp]
	mov	rsi, rdx
	mov	rdi, rax
	call	_ZStplRKSt13_Bit_iteratorl
	mov	QWORD PTR -32[rbp], rax
	mov	QWORD PTR -24[rbp], rdx
	lea	rax, -32[rbp]
	mov	rdi, rax
	call	_ZNKSt13_Bit_iteratordeEv
	mov	rcx, QWORD PTR -8[rbp]
	sub	rcx, QWORD PTR fs:40
	je	.L35
	call	__stack_chk_fail@PLT
.L35:
	leave
	.cfi_def_cfa 7, 8
	ret
	.cfi_endproc
.LFE3878:
	.size	_ZNKSt13_Bit_iteratorixEl, .-_ZNKSt13_Bit_iteratorixEl
	.section	.text._ZStplRKSt13_Bit_iteratorl,"axG",@progbits,_ZStplRKSt13_Bit_iteratorl,comdat
	.weak	_ZStplRKSt13_Bit_iteratorl
	.type	_ZStplRKSt13_Bit_iteratorl, @function
_ZStplRKSt13_Bit_iteratorl:
.LFB3879:
	.cfi_startproc
	endbr64
	push	rbp
	.cfi_def_cfa_offset 16
	.cfi_offset 6, -16
	mov	rbp, rsp
	.cfi_def_cfa_register 6
	sub	rsp, 80
	mov	QWORD PTR -56[rbp], rdi
	mov	QWORD PTR -64[rbp], rsi
	mov	rax, QWORD PTR fs:40
	mov	QWORD PTR -8[rbp], rax
	xor	eax, eax
	mov	rax, QWORD PTR -56[rbp]
	mov	rdx, QWORD PTR 8[rax]
	mov	rax, QWORD PTR [rax]
	mov	QWORD PTR -48[rbp], rax
	mov	QWORD PTR -40[rbp], rdx
	mov	rdx, QWORD PTR -64[rbp]
	lea	rax, -48[rbp]
	mov	rsi, rdx
	mov	rdi, rax
	call	_ZNSt13_Bit_iteratorpLEl
	mov	rax, QWORD PTR -48[rbp]
	mov	rdx, QWORD PTR -40[rbp]
	mov	QWORD PTR -32[rbp], rax
	mov	QWORD PTR -24[rbp], rdx
	mov	rax, QWORD PTR -32[rbp]
	mov	rdx, QWORD PTR -24[rbp]
	mov	rcx, QWORD PTR -8[rbp]
	sub	rcx, QWORD PTR fs:40
	je	.L38
	call	__stack_chk_fail@PLT
.L38:
	leave
	.cfi_def_cfa 7, 8
	ret
	.cfi_endproc
.LFE3879:
	.size	_ZStplRKSt13_Bit_iteratorl, .-_ZStplRKSt13_Bit_iteratorl
	.section	.text._ZNSt19_Bit_const_iteratorC2EPmj,"axG",@progbits,_ZNSt19_Bit_const_iteratorC5EPmj,comdat
	.align 2
	.weak	_ZNSt19_Bit_const_iteratorC2EPmj
	.type	_ZNSt19_Bit_const_iteratorC2EPmj, @function
_ZNSt19_Bit_const_iteratorC2EPmj:
.LFB3886:
	.cfi_startproc
	endbr64
	push	rbp
	.cfi_def_cfa_offset 16
	.cfi_offset 6, -16
	mov	rbp, rsp
	.cfi_def_cfa_register 6
	sub	rsp, 32
	mov	QWORD PTR -8[rbp], rdi
	mov	QWORD PTR -16[rbp], rsi
	mov	DWORD PTR -20[rbp], edx
	mov	rax, QWORD PTR -8[rbp]
	mov	edx, DWORD PTR -20[rbp]
	mov	rcx, QWORD PTR -16[rbp]
	mov	rsi, rcx
	mov	rdi, rax
	call	_ZNSt18_Bit_iterator_baseC2EPmj
	nop
	leave
	.cfi_def_cfa 7, 8
	ret
	.cfi_endproc
.LFE3886:
	.size	_ZNSt19_Bit_const_iteratorC2EPmj, .-_ZNSt19_Bit_const_iteratorC2EPmj
	.weak	_ZNSt19_Bit_const_iteratorC1EPmj
	.set	_ZNSt19_Bit_const_iteratorC1EPmj,_ZNSt19_Bit_const_iteratorC2EPmj
	.section	.text._ZNSt19_Bit_const_iteratorC2ERKSt13_Bit_iterator,"axG",@progbits,_ZNSt19_Bit_const_iteratorC5ERKSt13_Bit_iterator,comdat
	.align 2
	.weak	_ZNSt19_Bit_const_iteratorC2ERKSt13_Bit_iterator
	.type	_ZNSt19_Bit_const_iteratorC2ERKSt13_Bit_iterator, @function
_ZNSt19_Bit_const_iteratorC2ERKSt13_Bit_iterator:
.LFB3889:
	.cfi_startproc
	endbr64
	push	rbp
	.cfi_def_cfa_offset 16
	.cfi_offset 6, -16
	mov	rbp, rsp
	.cfi_def_cfa_register 6
	sub	rsp, 16
	mov	QWORD PTR -8[rbp], rdi
	mov	QWORD PTR -16[rbp], rsi
	mov	rax, QWORD PTR -8[rbp]
	mov	rdx, QWORD PTR -16[rbp]
	mov	edx, DWORD PTR 8[rdx]
	mov	rcx, QWORD PTR -16[rbp]
	mov	rcx, QWORD PTR [rcx]
	mov	rsi, rcx
	mov	rdi, rax
	call	_ZNSt18_Bit_iterator_baseC2EPmj
	nop
	leave
	.cfi_def_cfa 7, 8
	ret
	.cfi_endproc
.LFE3889:
	.size	_ZNSt19_Bit_const_iteratorC2ERKSt13_Bit_iterator, .-_ZNSt19_Bit_const_iteratorC2ERKSt13_Bit_iterator
	.weak	_ZNSt19_Bit_const_iteratorC1ERKSt13_Bit_iterator
	.set	_ZNSt19_Bit_const_iteratorC1ERKSt13_Bit_iterator,_ZNSt19_Bit_const_iteratorC2ERKSt13_Bit_iterator
	.section	.text._ZNKSt19_Bit_const_iteratordeEv,"axG",@progbits,_ZNKSt19_Bit_const_iteratordeEv,comdat
	.align 2
	.weak	_ZNKSt19_Bit_const_iteratordeEv
	.type	_ZNKSt19_Bit_const_iteratordeEv, @function
_ZNKSt19_Bit_const_iteratordeEv:
.LFB3892:
	.cfi_startproc
	endbr64
	push	rbp
	.cfi_def_cfa_offset 16
	.cfi_offset 6, -16
	mov	rbp, rsp
	.cfi_def_cfa_register 6
	sub	rsp, 48
	mov	QWORD PTR -40[rbp], rdi
	mov	rax, QWORD PTR fs:40
	mov	QWORD PTR -8[rbp], rax
	xor	eax, eax
	mov	rax, QWORD PTR -40[rbp]
	mov	eax, DWORD PTR 8[rax]
	mov	edx, 1
	mov	ecx, eax
	sal	rdx, cl
	mov	rax, QWORD PTR -40[rbp]
	mov	rcx, QWORD PTR [rax]
	lea	rax, -32[rbp]
	mov	rsi, rcx
	mov	rdi, rax
	call	_ZNSt14_Bit_referenceC1EPmm
	lea	rax, -32[rbp]
	mov	rdi, rax
	call	_ZNKSt14_Bit_referencecvbEv
	mov	rdx, QWORD PTR -8[rbp]
	sub	rdx, QWORD PTR fs:40
	je	.L43
	call	__stack_chk_fail@PLT
.L43:
	leave
	.cfi_def_cfa 7, 8
	ret
	.cfi_endproc
.LFE3892:
	.size	_ZNKSt19_Bit_const_iteratordeEv, .-_ZNKSt19_Bit_const_iteratordeEv
	.section	.text._ZNSt19_Bit_const_iteratorppEv,"axG",@progbits,_ZNSt19_Bit_const_iteratorppEv,comdat
	.align 2
	.weak	_ZNSt19_Bit_const_iteratorppEv
	.type	_ZNSt19_Bit_const_iteratorppEv, @function
_ZNSt19_Bit_const_iteratorppEv:
.LFB3893:
	.cfi_startproc
	endbr64
	push	rbp
	.cfi_def_cfa_offset 16
	.cfi_offset 6, -16
	mov	rbp, rsp
	.cfi_def_cfa_register 6
	sub	rsp, 16
	mov	QWORD PTR -8[rbp], rdi
	mov	rax, QWORD PTR -8[rbp]
	mov	rdi, rax
	call	_ZNSt18_Bit_iterator_base10_M_bump_upEv
	mov	rax, QWORD PTR -8[rbp]
	leave
	.cfi_def_cfa 7, 8
	ret
	.cfi_endproc
.LFE3893:
	.size	_ZNSt19_Bit_const_iteratorppEv, .-_ZNSt19_Bit_const_iteratorppEv
	.section	.rodata
	.type	_ZN6__pstl9execution2v1L3seqE, @object
	.size	_ZN6__pstl9execution2v1L3seqE, 1
_ZN6__pstl9execution2v1L3seqE:
	.zero	1
	.type	_ZN6__pstl9execution2v1L3parE, @object
	.size	_ZN6__pstl9execution2v1L3parE, 1
_ZN6__pstl9execution2v1L3parE:
	.zero	1
	.type	_ZN6__pstl9execution2v1L9par_unseqE, @object
	.size	_ZN6__pstl9execution2v1L9par_unseqE, 1
_ZN6__pstl9execution2v1L9par_unseqE:
	.zero	1
	.type	_ZN6__pstl9execution2v1L5unseqE, @object
	.size	_ZN6__pstl9execution2v1L5unseqE, 1
_ZN6__pstl9execution2v1L5unseqE:
	.zero	1
	.local	_ZStL8__ioinit
	.comm	_ZStL8__ioinit,1,1
	.align 4
	.type	_ZN9__gnu_cxxL21__default_lock_policyE, @object
	.size	_ZN9__gnu_cxxL21__default_lock_policyE, 4
_ZN9__gnu_cxxL21__default_lock_policyE:
	.long	2
	.align 4
	.type	_ZNSt15regex_constantsL13error_collateE, @object
	.size	_ZNSt15regex_constantsL13error_collateE, 4
_ZNSt15regex_constantsL13error_collateE:
	.zero	4
	.align 4
	.type	_ZNSt15regex_constantsL11error_ctypeE, @object
	.size	_ZNSt15regex_constantsL11error_ctypeE, 4
_ZNSt15regex_constantsL11error_ctypeE:
	.long	1
	.align 4
	.type	_ZNSt15regex_constantsL12error_escapeE, @object
	.size	_ZNSt15regex_constantsL12error_escapeE, 4
_ZNSt15regex_constantsL12error_escapeE:
	.long	2
	.align 4
	.type	_ZNSt15regex_constantsL13error_backrefE, @object
	.size	_ZNSt15regex_constantsL13error_backrefE, 4
_ZNSt15regex_constantsL13error_backrefE:
	.long	3
	.align 4
	.type	_ZNSt15regex_constantsL11error_brackE, @object
	.size	_ZNSt15regex_constantsL11error_brackE, 4
_ZNSt15regex_constantsL11error_brackE:
	.long	4
	.align 4
	.type	_ZNSt15regex_constantsL11error_parenE, @object
	.size	_ZNSt15regex_constantsL11error_parenE, 4
_ZNSt15regex_constantsL11error_parenE:
	.long	5
	.align 4
	.type	_ZNSt15regex_constantsL11error_braceE, @object
	.size	_ZNSt15regex_constantsL11error_braceE, 4
_ZNSt15regex_constantsL11error_braceE:
	.long	6
	.align 4
	.type	_ZNSt15regex_constantsL14error_badbraceE, @object
	.size	_ZNSt15regex_constantsL14error_badbraceE, 4
_ZNSt15regex_constantsL14error_badbraceE:
	.long	7
	.align 4
	.type	_ZNSt15regex_constantsL11error_rangeE, @object
	.size	_ZNSt15regex_constantsL11error_rangeE, 4
_ZNSt15regex_constantsL11error_rangeE:
	.long	8
	.align 4
	.type	_ZNSt15regex_constantsL11error_spaceE, @object
	.size	_ZNSt15regex_constantsL11error_spaceE, 4
_ZNSt15regex_constantsL11error_spaceE:
	.long	9
	.align 4
	.type	_ZNSt15regex_constantsL15error_badrepeatE, @object
	.size	_ZNSt15regex_constantsL15error_badrepeatE, 4
_ZNSt15regex_constantsL15error_badrepeatE:
	.long	10
	.align 4
	.type	_ZNSt15regex_constantsL16error_complexityE, @object
	.size	_ZNSt15regex_constantsL16error_complexityE, 4
_ZNSt15regex_constantsL16error_complexityE:
	.long	11
	.align 4
	.type	_ZNSt15regex_constantsL11error_stackE, @object
	.size	_ZNSt15regex_constantsL11error_stackE, 4
_ZNSt15regex_constantsL11error_stackE:
	.long	12
	.align 8
	.type	_ZNSt8__detailL19_S_invalid_state_idE, @object
	.size	_ZNSt8__detailL19_S_invalid_state_idE, 8
_ZNSt8__detailL19_S_invalid_state_idE:
	.quad	-1
	.section	.text._ZN9__gnu_cxx14__alloc_traitsISaIcEcE15_S_always_equalEv,"axG",@progbits,_ZN9__gnu_cxx14__alloc_traitsISaIcEcE15_S_always_equalEv,comdat
	.weak	_ZN9__gnu_cxx14__alloc_traitsISaIcEcE15_S_always_equalEv
	.type	_ZN9__gnu_cxx14__alloc_traitsISaIcEcE15_S_always_equalEv, @function
_ZN9__gnu_cxx14__alloc_traitsISaIcEcE15_S_always_equalEv:
.LFB9163:
	.cfi_startproc
	endbr64
	push	rbp
	.cfi_def_cfa_offset 16
	.cfi_offset 6, -16
	mov	rbp, rsp
	.cfi_def_cfa_register 6
	mov	eax, 1
	pop	rbp
	.cfi_def_cfa 7, 8
	ret
	.cfi_endproc
.LFE9163:
	.size	_ZN9__gnu_cxx14__alloc_traitsISaIcEcE15_S_always_equalEv, .-_ZN9__gnu_cxx14__alloc_traitsISaIcEcE15_S_always_equalEv
	.section	.rodata
.LC0:
	.string	"r"
.LC1:
	.string	"input.txt"
.LC2:
	.string	"w"
.LC3:
	.string	"output.txt"
	.text
	.globl	_Z5setupv
	.type	_Z5setupv, @function
_Z5setupv:
.LFB9704:
	.cfi_startproc
	endbr64
	push	rbp
	.cfi_def_cfa_offset 16
	.cfi_offset 6, -16
	mov	rbp, rsp
	.cfi_def_cfa_register 6
	mov	edi, 0
	call	_ZNSt8ios_base15sync_with_stdioEb@PLT
	mov	esi, 0
	lea	rax, _ZSt3cin[rip+16]
	mov	rdi, rax
	call	_ZNSt9basic_iosIcSt11char_traitsIcEE3tieEPSo@PLT
	mov	esi, 0
	lea	rax, _ZSt4cout[rip+8]
	mov	rdi, rax
	call	_ZNSt9basic_iosIcSt11char_traitsIcEE3tieEPSo@PLT
	mov	rax, QWORD PTR stdin[rip]
	mov	rdx, rax
	lea	rax, .LC0[rip]
	mov	rsi, rax
	lea	rax, .LC1[rip]
	mov	rdi, rax
	call	freopen@PLT
	mov	rax, QWORD PTR stdout[rip]
	mov	rdx, rax
	lea	rax, .LC2[rip]
	mov	rsi, rax
	lea	rax, .LC3[rip]
	mov	rdi, rax
	call	freopen@PLT
	nop
	pop	rbp
	.cfi_def_cfa 7, 8
	ret
	.cfi_endproc
.LFE9704:
	.size	_Z5setupv, .-_Z5setupv
	.globl	n
	.bss
	.align 4
	.type	n, @object
	.size	n, 4
n:
	.zero	4
	.globl	m
	.align 4
	.type	m, @object
	.size	m, 4
m:
	.zero	4
	.section	.text._ZNSt12_Vector_baseISt6vectorIcSaIcEESaIS2_EE12_Vector_implD2Ev,"axG",@progbits,_ZNSt12_Vector_baseISt6vectorIcSaIcEESaIS2_EE12_Vector_implD5Ev,comdat
	.align 2
	.weak	_ZNSt12_Vector_baseISt6vectorIcSaIcEESaIS2_EE12_Vector_implD2Ev
	.type	_ZNSt12_Vector_baseISt6vectorIcSaIcEESaIS2_EE12_Vector_implD2Ev, @function
_ZNSt12_Vector_baseISt6vectorIcSaIcEESaIS2_EE12_Vector_implD2Ev:
.LFB9709:
	.cfi_startproc
	endbr64
	push	rbp
	.cfi_def_cfa_offset 16
	.cfi_offset 6, -16
	mov	rbp, rsp
	.cfi_def_cfa_register 6
	sub	rsp, 16
	mov	QWORD PTR -8[rbp], rdi
	mov	rax, QWORD PTR -8[rbp]
	mov	rdi, rax
	call	_ZNSaISt6vectorIcSaIcEEED2Ev
	nop
	leave
	.cfi_def_cfa 7, 8
	ret
	.cfi_endproc
.LFE9709:
	.size	_ZNSt12_Vector_baseISt6vectorIcSaIcEESaIS2_EE12_Vector_implD2Ev, .-_ZNSt12_Vector_baseISt6vectorIcSaIcEESaIS2_EE12_Vector_implD2Ev
	.weak	_ZNSt12_Vector_baseISt6vectorIcSaIcEESaIS2_EE12_Vector_implD1Ev
	.set	_ZNSt12_Vector_baseISt6vectorIcSaIcEESaIS2_EE12_Vector_implD1Ev,_ZNSt12_Vector_baseISt6vectorIcSaIcEESaIS2_EE12_Vector_implD2Ev
	.section	.text._ZNSt12_Vector_baseISt6vectorIcSaIcEESaIS2_EEC2Ev,"axG",@progbits,_ZNSt12_Vector_baseISt6vectorIcSaIcEESaIS2_EEC5Ev,comdat
	.align 2
	.weak	_ZNSt12_Vector_baseISt6vectorIcSaIcEESaIS2_EEC2Ev
	.type	_ZNSt12_Vector_baseISt6vectorIcSaIcEESaIS2_EEC2Ev, @function
_ZNSt12_Vector_baseISt6vectorIcSaIcEESaIS2_EEC2Ev:
.LFB9711:
	.cfi_startproc
	endbr64
	push	rbp
	.cfi_def_cfa_offset 16
	.cfi_offset 6, -16
	mov	rbp, rsp
	.cfi_def_cfa_register 6
	sub	rsp, 16
	mov	QWORD PTR -8[rbp], rdi
	mov	rax, QWORD PTR -8[rbp]
	mov	rdi, rax
	call	_ZNSt12_Vector_baseISt6vectorIcSaIcEESaIS2_EE12_Vector_implC1Ev
	nop
	leave
	.cfi_def_cfa 7, 8
	ret
	.cfi_endproc
.LFE9711:
	.size	_ZNSt12_Vector_baseISt6vectorIcSaIcEESaIS2_EEC2Ev, .-_ZNSt12_Vector_baseISt6vectorIcSaIcEESaIS2_EEC2Ev
	.weak	_ZNSt12_Vector_baseISt6vectorIcSaIcEESaIS2_EEC1Ev
	.set	_ZNSt12_Vector_baseISt6vectorIcSaIcEESaIS2_EEC1Ev,_ZNSt12_Vector_baseISt6vectorIcSaIcEESaIS2_EEC2Ev
	.section	.text._ZNSt6vectorIS_IcSaIcEESaIS1_EEC2Ev,"axG",@progbits,_ZNSt6vectorIS_IcSaIcEESaIS1_EEC5Ev,comdat
	.align 2
	.weak	_ZNSt6vectorIS_IcSaIcEESaIS1_EEC2Ev
	.type	_ZNSt6vectorIS_IcSaIcEESaIS1_EEC2Ev, @function
_ZNSt6vectorIS_IcSaIcEESaIS1_EEC2Ev:
.LFB9713:
	.cfi_startproc
	endbr64
	push	rbp
	.cfi_def_cfa_offset 16
	.cfi_offset 6, -16
	mov	rbp, rsp
	.cfi_def_cfa_register 6
	sub	rsp, 16
	mov	QWORD PTR -8[rbp], rdi
	mov	rax, QWORD PTR -8[rbp]
	mov	rdi, rax
	call	_ZNSt12_Vector_baseISt6vectorIcSaIcEESaIS2_EEC2Ev
	nop
	leave
	.cfi_def_cfa 7, 8
	ret
	.cfi_endproc
.LFE9713:
	.size	_ZNSt6vectorIS_IcSaIcEESaIS1_EEC2Ev, .-_ZNSt6vectorIS_IcSaIcEESaIS1_EEC2Ev
	.weak	_ZNSt6vectorIS_IcSaIcEESaIS1_EEC1Ev
	.set	_ZNSt6vectorIS_IcSaIcEESaIS1_EEC1Ev,_ZNSt6vectorIS_IcSaIcEESaIS1_EEC2Ev
	.globl	arr
	.bss
	.align 16
	.type	arr, @object
	.size	arr, 24
arr:
	.zero	24
	.section	.text._ZNSt12_Vector_baseISt6vectorIbSaIbEESaIS2_EE12_Vector_implD2Ev,"axG",@progbits,_ZNSt12_Vector_baseISt6vectorIbSaIbEESaIS2_EE12_Vector_implD5Ev,comdat
	.align 2
	.weak	_ZNSt12_Vector_baseISt6vectorIbSaIbEESaIS2_EE12_Vector_implD2Ev
	.type	_ZNSt12_Vector_baseISt6vectorIbSaIbEESaIS2_EE12_Vector_implD2Ev, @function
_ZNSt12_Vector_baseISt6vectorIbSaIbEESaIS2_EE12_Vector_implD2Ev:
.LFB9719:
	.cfi_startproc
	endbr64
	push	rbp
	.cfi_def_cfa_offset 16
	.cfi_offset 6, -16
	mov	rbp, rsp
	.cfi_def_cfa_register 6
	sub	rsp, 16
	mov	QWORD PTR -8[rbp], rdi
	mov	rax, QWORD PTR -8[rbp]
	mov	rdi, rax
	call	_ZNSaISt6vectorIbSaIbEEED2Ev
	nop
	leave
	.cfi_def_cfa 7, 8
	ret
	.cfi_endproc
.LFE9719:
	.size	_ZNSt12_Vector_baseISt6vectorIbSaIbEESaIS2_EE12_Vector_implD2Ev, .-_ZNSt12_Vector_baseISt6vectorIbSaIbEESaIS2_EE12_Vector_implD2Ev
	.weak	_ZNSt12_Vector_baseISt6vectorIbSaIbEESaIS2_EE12_Vector_implD1Ev
	.set	_ZNSt12_Vector_baseISt6vectorIbSaIbEESaIS2_EE12_Vector_implD1Ev,_ZNSt12_Vector_baseISt6vectorIbSaIbEESaIS2_EE12_Vector_implD2Ev
	.section	.text._ZNSt12_Vector_baseISt6vectorIbSaIbEESaIS2_EEC2Ev,"axG",@progbits,_ZNSt12_Vector_baseISt6vectorIbSaIbEESaIS2_EEC5Ev,comdat
	.align 2
	.weak	_ZNSt12_Vector_baseISt6vectorIbSaIbEESaIS2_EEC2Ev
	.type	_ZNSt12_Vector_baseISt6vectorIbSaIbEESaIS2_EEC2Ev, @function
_ZNSt12_Vector_baseISt6vectorIbSaIbEESaIS2_EEC2Ev:
.LFB9721:
	.cfi_startproc
	endbr64
	push	rbp
	.cfi_def_cfa_offset 16
	.cfi_offset 6, -16
	mov	rbp, rsp
	.cfi_def_cfa_register 6
	sub	rsp, 16
	mov	QWORD PTR -8[rbp], rdi
	mov	rax, QWORD PTR -8[rbp]
	mov	rdi, rax
	call	_ZNSt12_Vector_baseISt6vectorIbSaIbEESaIS2_EE12_Vector_implC1Ev
	nop
	leave
	.cfi_def_cfa 7, 8
	ret
	.cfi_endproc
.LFE9721:
	.size	_ZNSt12_Vector_baseISt6vectorIbSaIbEESaIS2_EEC2Ev, .-_ZNSt12_Vector_baseISt6vectorIbSaIbEESaIS2_EEC2Ev
	.weak	_ZNSt12_Vector_baseISt6vectorIbSaIbEESaIS2_EEC1Ev
	.set	_ZNSt12_Vector_baseISt6vectorIbSaIbEESaIS2_EEC1Ev,_ZNSt12_Vector_baseISt6vectorIbSaIbEESaIS2_EEC2Ev
	.section	.text._ZNSt6vectorIS_IbSaIbEESaIS1_EEC2Ev,"axG",@progbits,_ZNSt6vectorIS_IbSaIbEESaIS1_EEC5Ev,comdat
	.align 2
	.weak	_ZNSt6vectorIS_IbSaIbEESaIS1_EEC2Ev
	.type	_ZNSt6vectorIS_IbSaIbEESaIS1_EEC2Ev, @function
_ZNSt6vectorIS_IbSaIbEESaIS1_EEC2Ev:
.LFB9723:
	.cfi_startproc
	endbr64
	push	rbp
	.cfi_def_cfa_offset 16
	.cfi_offset 6, -16
	mov	rbp, rsp
	.cfi_def_cfa_register 6
	sub	rsp, 16
	mov	QWORD PTR -8[rbp], rdi
	mov	rax, QWORD PTR -8[rbp]
	mov	rdi, rax
	call	_ZNSt12_Vector_baseISt6vectorIbSaIbEESaIS2_EEC2Ev
	nop
	leave
	.cfi_def_cfa 7, 8
	ret
	.cfi_endproc
.LFE9723:
	.size	_ZNSt6vectorIS_IbSaIbEESaIS1_EEC2Ev, .-_ZNSt6vectorIS_IbSaIbEESaIS1_EEC2Ev
	.weak	_ZNSt6vectorIS_IbSaIbEESaIS1_EEC1Ev
	.set	_ZNSt6vectorIS_IbSaIbEESaIS1_EEC1Ev,_ZNSt6vectorIS_IbSaIbEESaIS1_EEC2Ev
	.globl	vis
	.bss
	.align 16
	.type	vis, @object
	.size	vis, 24
vis:
	.zero	24
	.text
	.globl	_Z3solii
	.type	_Z3solii, @function
_Z3solii:
.LFB9725:
	.cfi_startproc
	endbr64
	push	rbp
	.cfi_def_cfa_offset 16
	.cfi_offset 6, -16
	mov	rbp, rsp
	.cfi_def_cfa_register 6
	sub	rsp, 64
	mov	DWORD PTR -52[rbp], edi
	mov	DWORD PTR -56[rbp], esi
	mov	rax, QWORD PTR fs:40
	mov	QWORD PTR -8[rbp], rax
	xor	eax, eax
	cmp	DWORD PTR -52[rbp], 0
	js	.L56
	cmp	DWORD PTR -56[rbp], 0
	js	.L56
	mov	eax, DWORD PTR n[rip]
	cmp	DWORD PTR -52[rbp], eax
	jge	.L56
	mov	eax, DWORD PTR m[rip]
	cmp	DWORD PTR -56[rbp], eax
	jge	.L56
	mov	eax, DWORD PTR -52[rbp]
	cdqe
	mov	rsi, rax
	lea	rax, arr[rip]
	mov	rdi, rax
	call	_ZNSt6vectorIS_IcSaIcEESaIS1_EEixEm
	mov	rdx, rax
	mov	eax, DWORD PTR -56[rbp]
	cdqe
	mov	rsi, rax
	mov	rdi, rdx
	call	_ZNSt6vectorIcSaIcEEixEm
	movzx	eax, BYTE PTR [rax]
	cmp	al, 42
	je	.L56
	mov	eax, DWORD PTR -52[rbp]
	cdqe
	mov	rsi, rax
	lea	rax, vis[rip]
	mov	rdi, rax
	call	_ZNSt6vectorIS_IbSaIbEESaIS1_EEixEm
	mov	rdx, rax
	mov	eax, DWORD PTR -56[rbp]
	cdqe
	mov	rsi, rax
	mov	rdi, rdx
	call	_ZNSt6vectorIbSaIbEEixEm
	mov	QWORD PTR -32[rbp], rax
	mov	QWORD PTR -24[rbp], rdx
	lea	rax, -32[rbp]
	mov	rdi, rax
	call	_ZNKSt14_Bit_referencecvbEv
	test	al, al
	je	.L57
.L56:
	mov	eax, 1
	jmp	.L58
.L57:
	mov	eax, 0
.L58:
	test	al, al
	je	.L59
	mov	eax, 0
	jmp	.L60
.L59:
	mov	eax, DWORD PTR -52[rbp]
	cdqe
	mov	rsi, rax
	lea	rax, vis[rip]
	mov	rdi, rax
	call	_ZNSt6vectorIS_IbSaIbEESaIS1_EEixEm
	mov	rdx, rax
	mov	eax, DWORD PTR -56[rbp]
	cdqe
	mov	rsi, rax
	mov	rdi, rdx
	call	_ZNSt6vectorIbSaIbEEixEm
	mov	QWORD PTR -32[rbp], rax
	mov	QWORD PTR -24[rbp], rdx
	lea	rax, -32[rbp]
	mov	esi, 1
	mov	rdi, rax
	call	_ZNSt14_Bit_referenceaSEb
	mov	DWORD PTR -36[rbp], 0
	mov	eax, DWORD PTR -52[rbp]
	lea	edx, -1[rax]
	mov	eax, DWORD PTR -56[rbp]
	mov	esi, eax
	mov	edi, edx
	call	_Z3solii
	add	DWORD PTR -36[rbp], eax
	mov	eax, DWORD PTR -52[rbp]
	lea	edx, 1[rax]
	mov	eax, DWORD PTR -56[rbp]
	mov	esi, eax
	mov	edi, edx
	call	_Z3solii
	add	DWORD PTR -36[rbp], eax
	mov	eax, DWORD PTR -56[rbp]
	lea	edx, -1[rax]
	mov	eax, DWORD PTR -52[rbp]
	mov	esi, edx
	mov	edi, eax
	call	_Z3solii
	add	DWORD PTR -36[rbp], eax
	mov	eax, DWORD PTR -56[rbp]
	lea	edx, 1[rax]
	mov	eax, DWORD PTR -52[rbp]
	mov	esi, edx
	mov	edi, eax
	call	_Z3solii
	add	DWORD PTR -36[rbp], eax
	mov	eax, DWORD PTR -36[rbp]
	add	eax, 1
.L60:
	mov	rdx, QWORD PTR -8[rbp]
	sub	rdx, QWORD PTR fs:40
	je	.L61
	call	__stack_chk_fail@PLT
.L61:
	leave
	.cfi_def_cfa 7, 8
	ret
	.cfi_endproc
.LFE9725:
	.size	_Z3solii, .-_Z3solii
	.globl	main
	.type	main, @function
main:
.LFB9726:
	.cfi_startproc
	.cfi_personality 0x9b,DW.ref.__gxx_personality_v0
	.cfi_lsda 0x1b,.LLSDA9726
	endbr64
	push	rbp
	.cfi_def_cfa_offset 16
	.cfi_offset 6, -16
	mov	rbp, rsp
	.cfi_def_cfa_register 6
	push	rbx
	sub	rsp, 88
	.cfi_offset 3, -24
	mov	rax, QWORD PTR fs:40
	mov	QWORD PTR -24[rbp], rax
	xor	eax, eax
.LEHB0:
	call	_Z5setupv
	lea	rax, n[rip]
	mov	rsi, rax
	lea	rax, _ZSt3cin[rip]
	mov	rdi, rax
	call	_ZNSirsERi@PLT
	mov	rdx, rax
	lea	rax, m[rip]
	mov	rsi, rax
	mov	rdi, rdx
	call	_ZNSirsERi@PLT
.LEHE0:
	lea	rax, -76[rbp]
	mov	rdi, rax
	call	_ZNSaIcEC1Ev@PLT
	mov	eax, DWORD PTR m[rip]
	movsx	rcx, eax
	lea	rdx, -76[rbp]
	lea	rax, -64[rbp]
	mov	rsi, rcx
	mov	rdi, rax
.LEHB1:
	call	_ZNSt6vectorIcSaIcEEC1EmRKS0_
.LEHE1:
	mov	eax, DWORD PTR n[rip]
	cdqe
	lea	rdx, -64[rbp]
	mov	rsi, rax
	lea	rax, arr[rip]
	mov	rdi, rax
.LEHB2:
	call	_ZNSt6vectorIS_IcSaIcEESaIS1_EE6resizeEmRKS1_
.LEHE2:
	lea	rax, -64[rbp]
	mov	rdi, rax
	call	_ZNSt6vectorIcSaIcEED1Ev
	lea	rax, -76[rbp]
	mov	rdi, rax
	call	_ZNSaIcED1Ev@PLT
	mov	DWORD PTR -72[rbp], 0
	jmp	.L63
.L66:
	mov	DWORD PTR -68[rbp], 0
	jmp	.L64
.L65:
	mov	eax, DWORD PTR -72[rbp]
	cdqe
	mov	rsi, rax
	lea	rax, arr[rip]
	mov	rdi, rax
	call	_ZNSt6vectorIS_IcSaIcEESaIS1_EEixEm
	mov	rdx, rax
	mov	eax, DWORD PTR -68[rbp]
	cdqe
	mov	rsi, rax
	mov	rdi, rdx
	call	_ZNSt6vectorIcSaIcEEixEm
	mov	rsi, rax
	lea	rax, _ZSt3cin[rip]
	mov	rdi, rax
.LEHB3:
	call	_ZStrsIcSt11char_traitsIcEERSt13basic_istreamIT_T0_ES6_RS3_@PLT
	add	DWORD PTR -68[rbp], 1
.L64:
	mov	eax, DWORD PTR m[rip]
	cmp	DWORD PTR -68[rbp], eax
	jl	.L65
	add	DWORD PTR -72[rbp], 1
.L63:
	mov	eax, DWORD PTR n[rip]
	cmp	DWORD PTR -72[rbp], eax
	jl	.L66
	lea	rax, -80[rbp]
	mov	rsi, rax
	lea	rax, _ZSt3cin[rip]
	mov	rdi, rax
	call	_ZNSirsERi@PLT
	mov	rdx, rax
	lea	rax, -76[rbp]
	mov	rsi, rax
	mov	rdi, rdx
	call	_ZNSirsERi@PLT
.LEHE3:
	lea	rax, -81[rbp]
	mov	rdi, rax
	call	_ZNSaIbEC1Ev
	mov	eax, DWORD PTR m[rip]
	movsx	rcx, eax
	lea	rdx, -81[rbp]
	lea	rax, -64[rbp]
	mov	rsi, rcx
	mov	rdi, rax
.LEHB4:
	call	_ZNSt6vectorIbSaIbEEC1EmRKS0_
.LEHE4:
	mov	eax, DWORD PTR n[rip]
	cdqe
	lea	rdx, -64[rbp]
	mov	rsi, rax
	lea	rax, vis[rip]
	mov	rdi, rax
.LEHB5:
	call	_ZNSt6vectorIS_IbSaIbEESaIS1_EE6resizeEmRKS1_
.LEHE5:
	lea	rax, -64[rbp]
	mov	rdi, rax
	call	_ZNSt6vectorIbSaIbEED1Ev
	lea	rax, -81[rbp]
	mov	rdi, rax
	call	_ZNSaIbED1Ev
	mov	eax, DWORD PTR -76[rbp]
	lea	edx, -1[rax]
	mov	eax, DWORD PTR -80[rbp]
	sub	eax, 1
	mov	esi, edx
	mov	edi, eax
.LEHB6:
	call	_Z3solii
	mov	esi, eax
	lea	rax, _ZSt4cout[rip]
	mov	rdi, rax
	call	_ZNSolsEi@PLT
	mov	eax, 0
	mov	rdx, QWORD PTR -24[rbp]
	sub	rdx, QWORD PTR fs:40
	je	.L72
	jmp	.L77
.L74:
	endbr64
	mov	rbx, rax
	lea	rax, -64[rbp]
	mov	rdi, rax
	call	_ZNSt6vectorIcSaIcEED1Ev
	jmp	.L69
.L73:
	endbr64
	mov	rbx, rax
.L69:
	lea	rax, -76[rbp]
	mov	rdi, rax
	call	_ZNSaIcED1Ev@PLT
	mov	rax, rbx
	mov	rdi, rax
	call	_Unwind_Resume@PLT
.L76:
	endbr64
	mov	rbx, rax
	lea	rax, -64[rbp]
	mov	rdi, rax
	call	_ZNSt6vectorIbSaIbEED1Ev
	jmp	.L71
.L75:
	endbr64
	mov	rbx, rax
.L71:
	lea	rax, -81[rbp]
	mov	rdi, rax
	call	_ZNSaIbED1Ev
	mov	rax, rbx
	mov	rdi, rax
	call	_Unwind_Resume@PLT
.LEHE6:
.L77:
	call	__stack_chk_fail@PLT
.L72:
	mov	rbx, QWORD PTR -8[rbp]
	leave
	.cfi_def_cfa 7, 8
	ret
	.cfi_endproc
.LFE9726:
	.globl	__gxx_personality_v0
	.section	.gcc_except_table,"a",@progbits
.LLSDA9726:
	.byte	0xff
	.byte	0xff
	.byte	0x1
	.uleb128 .LLSDACSE9726-.LLSDACSB9726
.LLSDACSB9726:
	.uleb128 .LEHB0-.LFB9726
	.uleb128 .LEHE0-.LEHB0
	.uleb128 0
	.uleb128 0
	.uleb128 .LEHB1-.LFB9726
	.uleb128 .LEHE1-.LEHB1
	.uleb128 .L73-.LFB9726
	.uleb128 0
	.uleb128 .LEHB2-.LFB9726
	.uleb128 .LEHE2-.LEHB2
	.uleb128 .L74-.LFB9726
	.uleb128 0
	.uleb128 .LEHB3-.LFB9726
	.uleb128 .LEHE3-.LEHB3
	.uleb128 0
	.uleb128 0
	.uleb128 .LEHB4-.LFB9726
	.uleb128 .LEHE4-.LEHB4
	.uleb128 .L75-.LFB9726
	.uleb128 0
	.uleb128 .LEHB5-.LFB9726
	.uleb128 .LEHE5-.LEHB5
	.uleb128 .L76-.LFB9726
	.uleb128 0
	.uleb128 .LEHB6-.LFB9726
	.uleb128 .LEHE6-.LEHB6
	.uleb128 0
	.uleb128 0
.LLSDACSE9726:
	.text
	.size	main, .-main
	.section	.text._ZSt3maxImERKT_S2_S2_,"axG",@progbits,_ZSt3maxImERKT_S2_S2_,comdat
	.weak	_ZSt3maxImERKT_S2_S2_
	.type	_ZSt3maxImERKT_S2_S2_, @function
_ZSt3maxImERKT_S2_S2_:
.LFB10038:
	.cfi_startproc
	endbr64
	push	rbp
	.cfi_def_cfa_offset 16
	.cfi_offset 6, -16
	mov	rbp, rsp
	.cfi_def_cfa_register 6
	mov	QWORD PTR -8[rbp], rdi
	mov	QWORD PTR -16[rbp], rsi
	mov	rax, QWORD PTR -8[rbp]
	mov	rdx, QWORD PTR [rax]
	mov	rax, QWORD PTR -16[rbp]
	mov	rax, QWORD PTR [rax]
	cmp	rdx, rax
	jnb	.L79
	mov	rax, QWORD PTR -16[rbp]
	jmp	.L80
.L79:
	mov	rax, QWORD PTR -8[rbp]
.L80:
	pop	rbp
	.cfi_def_cfa 7, 8
	ret
	.cfi_endproc
.LFE10038:
	.size	_ZSt3maxImERKT_S2_S2_, .-_ZSt3maxImERKT_S2_S2_
	.section	.text._ZNSaImED2Ev,"axG",@progbits,_ZNSaImED5Ev,comdat
	.align 2
	.weak	_ZNSaImED2Ev
	.type	_ZNSaImED2Ev, @function
_ZNSaImED2Ev:
.LFB10336:
	.cfi_startproc
	endbr64
	push	rbp
	.cfi_def_cfa_offset 16
	.cfi_offset 6, -16
	mov	rbp, rsp
	.cfi_def_cfa_register 6
	sub	rsp, 16
	mov	QWORD PTR -8[rbp], rdi
	mov	rax, QWORD PTR -8[rbp]
	mov	rdi, rax
	call	_ZN9__gnu_cxx13new_allocatorImED2Ev
	nop
	leave
	.cfi_def_cfa 7, 8
	ret
	.cfi_endproc
.LFE10336:
	.size	_ZNSaImED2Ev, .-_ZNSaImED2Ev
	.weak	_ZNSaImED1Ev
	.set	_ZNSaImED1Ev,_ZNSaImED2Ev
	.section	.text._ZNSt12_Vector_baseISt6vectorIcSaIcEESaIS2_EE12_Vector_implC2Ev,"axG",@progbits,_ZNSt12_Vector_baseISt6vectorIcSaIcEESaIS2_EE12_Vector_implC5Ev,comdat
	.align 2
	.weak	_ZNSt12_Vector_baseISt6vectorIcSaIcEESaIS2_EE12_Vector_implC2Ev
	.type	_ZNSt12_Vector_baseISt6vectorIcSaIcEESaIS2_EE12_Vector_implC2Ev, @function
_ZNSt12_Vector_baseISt6vectorIcSaIcEESaIS2_EE12_Vector_implC2Ev:
.LFB10416:
	.cfi_startproc
	endbr64
	push	rbp
	.cfi_def_cfa_offset 16
	.cfi_offset 6, -16
	mov	rbp, rsp
	.cfi_def_cfa_register 6
	sub	rsp, 16
	mov	QWORD PTR -8[rbp], rdi
	mov	rax, QWORD PTR -8[rbp]
	mov	rdi, rax
	call	_ZNSaISt6vectorIcSaIcEEEC2Ev
	mov	rax, QWORD PTR -8[rbp]
	mov	rdi, rax
	call	_ZNSt12_Vector_baseISt6vectorIcSaIcEESaIS2_EE17_Vector_impl_dataC2Ev
	nop
	leave
	.cfi_def_cfa 7, 8
	ret
	.cfi_endproc
.LFE10416:
	.size	_ZNSt12_Vector_baseISt6vectorIcSaIcEESaIS2_EE12_Vector_implC2Ev, .-_ZNSt12_Vector_baseISt6vectorIcSaIcEESaIS2_EE12_Vector_implC2Ev
	.weak	_ZNSt12_Vector_baseISt6vectorIcSaIcEESaIS2_EE12_Vector_implC1Ev
	.set	_ZNSt12_Vector_baseISt6vectorIcSaIcEESaIS2_EE12_Vector_implC1Ev,_ZNSt12_Vector_baseISt6vectorIcSaIcEESaIS2_EE12_Vector_implC2Ev
	.section	.text._ZNSaISt6vectorIcSaIcEEED2Ev,"axG",@progbits,_ZNSaISt6vectorIcSaIcEEED5Ev,comdat
	.align 2
	.weak	_ZNSaISt6vectorIcSaIcEEED2Ev
	.type	_ZNSaISt6vectorIcSaIcEEED2Ev, @function
_ZNSaISt6vectorIcSaIcEEED2Ev:
.LFB10419:
	.cfi_startproc
	endbr64
	push	rbp
	.cfi_def_cfa_offset 16
	.cfi_offset 6, -16
	mov	rbp, rsp
	.cfi_def_cfa_register 6
	sub	rsp, 16
	mov	QWORD PTR -8[rbp], rdi
	mov	rax, QWORD PTR -8[rbp]
	mov	rdi, rax
	call	_ZN9__gnu_cxx13new_allocatorISt6vectorIcSaIcEEED2Ev
	nop
	leave
	.cfi_def_cfa 7, 8
	ret
	.cfi_endproc
.LFE10419:
	.size	_ZNSaISt6vectorIcSaIcEEED2Ev, .-_ZNSaISt6vectorIcSaIcEEED2Ev
	.weak	_ZNSaISt6vectorIcSaIcEEED1Ev
	.set	_ZNSaISt6vectorIcSaIcEEED1Ev,_ZNSaISt6vectorIcSaIcEEED2Ev
	.section	.text._ZNSt12_Vector_baseISt6vectorIcSaIcEESaIS2_EED2Ev,"axG",@progbits,_ZNSt12_Vector_baseISt6vectorIcSaIcEESaIS2_EED5Ev,comdat
	.align 2
	.weak	_ZNSt12_Vector_baseISt6vectorIcSaIcEESaIS2_EED2Ev
	.type	_ZNSt12_Vector_baseISt6vectorIcSaIcEESaIS2_EED2Ev, @function
_ZNSt12_Vector_baseISt6vectorIcSaIcEESaIS2_EED2Ev:
.LFB10422:
	.cfi_startproc
	.cfi_personality 0x9b,DW.ref.__gxx_personality_v0
	.cfi_lsda 0x1b,.LLSDA10422
	endbr64
	push	rbp
	.cfi_def_cfa_offset 16
	.cfi_offset 6, -16
	mov	rbp, rsp
	.cfi_def_cfa_register 6
	sub	rsp, 16
	mov	QWORD PTR -8[rbp], rdi
	mov	rax, QWORD PTR -8[rbp]
	mov	rdx, QWORD PTR 16[rax]
	mov	rax, QWORD PTR -8[rbp]
	mov	rcx, QWORD PTR [rax]
	mov	rax, rdx
	sub	rax, rcx
	sar	rax, 3
	mov	rdx, rax
	movabs	rax, -6148914691236517205
	imul	rax, rdx
	mov	rdx, rax
	mov	rax, QWORD PTR -8[rbp]
	mov	rcx, QWORD PTR [rax]
	mov	rax, QWORD PTR -8[rbp]
	mov	rsi, rcx
	mov	rdi, rax
	call	_ZNSt12_Vector_baseISt6vectorIcSaIcEESaIS2_EE13_M_deallocateEPS2_m
	mov	rax, QWORD PTR -8[rbp]
	mov	rdi, rax
	call	_ZNSt12_Vector_baseISt6vectorIcSaIcEESaIS2_EE12_Vector_implD1Ev
	nop
	leave
	.cfi_def_cfa 7, 8
	ret
	.cfi_endproc
.LFE10422:
	.section	.gcc_except_table
.LLSDA10422:
	.byte	0xff
	.byte	0xff
	.byte	0x1
	.uleb128 .LLSDACSE10422-.LLSDACSB10422
.LLSDACSB10422:
.LLSDACSE10422:
	.section	.text._ZNSt12_Vector_baseISt6vectorIcSaIcEESaIS2_EED2Ev,"axG",@progbits,_ZNSt12_Vector_baseISt6vectorIcSaIcEESaIS2_EED5Ev,comdat
	.size	_ZNSt12_Vector_baseISt6vectorIcSaIcEESaIS2_EED2Ev, .-_ZNSt12_Vector_baseISt6vectorIcSaIcEESaIS2_EED2Ev
	.weak	_ZNSt12_Vector_baseISt6vectorIcSaIcEESaIS2_EED1Ev
	.set	_ZNSt12_Vector_baseISt6vectorIcSaIcEESaIS2_EED1Ev,_ZNSt12_Vector_baseISt6vectorIcSaIcEESaIS2_EED2Ev
	.section	.text._ZNSt12_Vector_baseISt6vectorIbSaIbEESaIS2_EE12_Vector_implC2Ev,"axG",@progbits,_ZNSt12_Vector_baseISt6vectorIbSaIbEESaIS2_EE12_Vector_implC5Ev,comdat
	.align 2
	.weak	_ZNSt12_Vector_baseISt6vectorIbSaIbEESaIS2_EE12_Vector_implC2Ev
	.type	_ZNSt12_Vector_baseISt6vectorIbSaIbEESaIS2_EE12_Vector_implC2Ev, @function
_ZNSt12_Vector_baseISt6vectorIbSaIbEESaIS2_EE12_Vector_implC2Ev:
.LFB10425:
	.cfi_startproc
	endbr64
	push	rbp
	.cfi_def_cfa_offset 16
	.cfi_offset 6, -16
	mov	rbp, rsp
	.cfi_def_cfa_register 6
	sub	rsp, 16
	mov	QWORD PTR -8[rbp], rdi
	mov	rax, QWORD PTR -8[rbp]
	mov	rdi, rax
	call	_ZNSaISt6vectorIbSaIbEEEC2Ev
	mov	rax, QWORD PTR -8[rbp]
	mov	rdi, rax
	call	_ZNSt12_Vector_baseISt6vectorIbSaIbEESaIS2_EE17_Vector_impl_dataC2Ev
	nop
	leave
	.cfi_def_cfa 7, 8
	ret
	.cfi_endproc
.LFE10425:
	.size	_ZNSt12_Vector_baseISt6vectorIbSaIbEESaIS2_EE12_Vector_implC2Ev, .-_ZNSt12_Vector_baseISt6vectorIbSaIbEESaIS2_EE12_Vector_implC2Ev
	.weak	_ZNSt12_Vector_baseISt6vectorIbSaIbEESaIS2_EE12_Vector_implC1Ev
	.set	_ZNSt12_Vector_baseISt6vectorIbSaIbEESaIS2_EE12_Vector_implC1Ev,_ZNSt12_Vector_baseISt6vectorIbSaIbEESaIS2_EE12_Vector_implC2Ev
	.section	.text._ZNSaISt6vectorIbSaIbEEED2Ev,"axG",@progbits,_ZNSaISt6vectorIbSaIbEEED5Ev,comdat
	.align 2
	.weak	_ZNSaISt6vectorIbSaIbEEED2Ev
	.type	_ZNSaISt6vectorIbSaIbEEED2Ev, @function
_ZNSaISt6vectorIbSaIbEEED2Ev:
.LFB10428:
	.cfi_startproc
	endbr64
	push	rbp
	.cfi_def_cfa_offset 16
	.cfi_offset 6, -16
	mov	rbp, rsp
	.cfi_def_cfa_register 6
	sub	rsp, 16
	mov	QWORD PTR -8[rbp], rdi
	mov	rax, QWORD PTR -8[rbp]
	mov	rdi, rax
	call	_ZN9__gnu_cxx13new_allocatorISt6vectorIbSaIbEEED2Ev
	nop
	leave
	.cfi_def_cfa 7, 8
	ret
	.cfi_endproc
.LFE10428:
	.size	_ZNSaISt6vectorIbSaIbEEED2Ev, .-_ZNSaISt6vectorIbSaIbEEED2Ev
	.weak	_ZNSaISt6vectorIbSaIbEEED1Ev
	.set	_ZNSaISt6vectorIbSaIbEEED1Ev,_ZNSaISt6vectorIbSaIbEEED2Ev
	.section	.text._ZNSt12_Vector_baseISt6vectorIbSaIbEESaIS2_EED2Ev,"axG",@progbits,_ZNSt12_Vector_baseISt6vectorIbSaIbEESaIS2_EED5Ev,comdat
	.align 2
	.weak	_ZNSt12_Vector_baseISt6vectorIbSaIbEESaIS2_EED2Ev
	.type	_ZNSt12_Vector_baseISt6vectorIbSaIbEESaIS2_EED2Ev, @function
_ZNSt12_Vector_baseISt6vectorIbSaIbEESaIS2_EED2Ev:
.LFB10431:
	.cfi_startproc
	.cfi_personality 0x9b,DW.ref.__gxx_personality_v0
	.cfi_lsda 0x1b,.LLSDA10431
	endbr64
	push	rbp
	.cfi_def_cfa_offset 16
	.cfi_offset 6, -16
	mov	rbp, rsp
	.cfi_def_cfa_register 6
	sub	rsp, 16
	mov	QWORD PTR -8[rbp], rdi
	mov	rax, QWORD PTR -8[rbp]
	mov	rdx, QWORD PTR 16[rax]
	mov	rax, QWORD PTR -8[rbp]
	mov	rcx, QWORD PTR [rax]
	mov	rax, rdx
	sub	rax, rcx
	sar	rax, 3
	mov	rdx, rax
	movabs	rax, -3689348814741910323
	imul	rax, rdx
	mov	rdx, rax
	mov	rax, QWORD PTR -8[rbp]
	mov	rcx, QWORD PTR [rax]
	mov	rax, QWORD PTR -8[rbp]
	mov	rsi, rcx
	mov	rdi, rax
	call	_ZNSt12_Vector_baseISt6vectorIbSaIbEESaIS2_EE13_M_deallocateEPS2_m
	mov	rax, QWORD PTR -8[rbp]
	mov	rdi, rax
	call	_ZNSt12_Vector_baseISt6vectorIbSaIbEESaIS2_EE12_Vector_implD1Ev
	nop
	leave
	.cfi_def_cfa 7, 8
	ret
	.cfi_endproc
.LFE10431:
	.section	.gcc_except_table
.LLSDA10431:
	.byte	0xff
	.byte	0xff
	.byte	0x1
	.uleb128 .LLSDACSE10431-.LLSDACSB10431
.LLSDACSB10431:
.LLSDACSE10431:
	.section	.text._ZNSt12_Vector_baseISt6vectorIbSaIbEESaIS2_EED2Ev,"axG",@progbits,_ZNSt12_Vector_baseISt6vectorIbSaIbEESaIS2_EED5Ev,comdat
	.size	_ZNSt12_Vector_baseISt6vectorIbSaIbEESaIS2_EED2Ev, .-_ZNSt12_Vector_baseISt6vectorIbSaIbEESaIS2_EED2Ev
	.weak	_ZNSt12_Vector_baseISt6vectorIbSaIbEESaIS2_EED1Ev
	.set	_ZNSt12_Vector_baseISt6vectorIbSaIbEESaIS2_EED1Ev,_ZNSt12_Vector_baseISt6vectorIbSaIbEESaIS2_EED2Ev
	.section	.text._ZNSt6vectorIS_IcSaIcEESaIS1_EEixEm,"axG",@progbits,_ZNSt6vectorIS_IcSaIcEESaIS1_EEixEm,comdat
	.align 2
	.weak	_ZNSt6vectorIS_IcSaIcEESaIS1_EEixEm
	.type	_ZNSt6vectorIS_IcSaIcEESaIS1_EEixEm, @function
_ZNSt6vectorIS_IcSaIcEESaIS1_EEixEm:
.LFB10433:
	.cfi_startproc
	endbr64
	push	rbp
	.cfi_def_cfa_offset 16
	.cfi_offset 6, -16
	mov	rbp, rsp
	.cfi_def_cfa_register 6
	mov	QWORD PTR -8[rbp], rdi
	mov	QWORD PTR -16[rbp], rsi
	mov	rax, QWORD PTR -8[rbp]
	mov	rcx, QWORD PTR [rax]
	mov	rdx, QWORD PTR -16[rbp]
	mov	rax, rdx
	add	rax, rax
	add	rax, rdx
	sal	rax, 3
	add	rax, rcx
	pop	rbp
	.cfi_def_cfa 7, 8
	ret
	.cfi_endproc
.LFE10433:
	.size	_ZNSt6vectorIS_IcSaIcEESaIS1_EEixEm, .-_ZNSt6vectorIS_IcSaIcEESaIS1_EEixEm
	.section	.text._ZNSt6vectorIcSaIcEEixEm,"axG",@progbits,_ZNSt6vectorIcSaIcEEixEm,comdat
	.align 2
	.weak	_ZNSt6vectorIcSaIcEEixEm
	.type	_ZNSt6vectorIcSaIcEEixEm, @function
_ZNSt6vectorIcSaIcEEixEm:
.LFB10434:
	.cfi_startproc
	endbr64
	push	rbp
	.cfi_def_cfa_offset 16
	.cfi_offset 6, -16
	mov	rbp, rsp
	.cfi_def_cfa_register 6
	mov	QWORD PTR -8[rbp], rdi
	mov	QWORD PTR -16[rbp], rsi
	mov	rax, QWORD PTR -8[rbp]
	mov	rdx, QWORD PTR [rax]
	mov	rax, QWORD PTR -16[rbp]
	add	rax, rdx
	pop	rbp
	.cfi_def_cfa 7, 8
	ret
	.cfi_endproc
.LFE10434:
	.size	_ZNSt6vectorIcSaIcEEixEm, .-_ZNSt6vectorIcSaIcEEixEm
	.section	.text._ZNSt6vectorIS_IbSaIbEESaIS1_EEixEm,"axG",@progbits,_ZNSt6vectorIS_IbSaIbEESaIS1_EEixEm,comdat
	.align 2
	.weak	_ZNSt6vectorIS_IbSaIbEESaIS1_EEixEm
	.type	_ZNSt6vectorIS_IbSaIbEESaIS1_EEixEm, @function
_ZNSt6vectorIS_IbSaIbEESaIS1_EEixEm:
.LFB10435:
	.cfi_startproc
	endbr64
	push	rbp
	.cfi_def_cfa_offset 16
	.cfi_offset 6, -16
	mov	rbp, rsp
	.cfi_def_cfa_register 6
	mov	QWORD PTR -8[rbp], rdi
	mov	QWORD PTR -16[rbp], rsi
	mov	rax, QWORD PTR -8[rbp]
	mov	rcx, QWORD PTR [rax]
	mov	rdx, QWORD PTR -16[rbp]
	mov	rax, rdx
	sal	rax, 2
	add	rax, rdx
	sal	rax, 3
	add	rax, rcx
	pop	rbp
	.cfi_def_cfa 7, 8
	ret
	.cfi_endproc
.LFE10435:
	.size	_ZNSt6vectorIS_IbSaIbEESaIS1_EEixEm, .-_ZNSt6vectorIS_IbSaIbEESaIS1_EEixEm
	.section	.text._ZNSt6vectorIbSaIbEEixEm,"axG",@progbits,_ZNSt6vectorIbSaIbEEixEm,comdat
	.align 2
	.weak	_ZNSt6vectorIbSaIbEEixEm
	.type	_ZNSt6vectorIbSaIbEEixEm, @function
_ZNSt6vectorIbSaIbEEixEm:
.LFB10436:
	.cfi_startproc
	endbr64
	push	rbp
	.cfi_def_cfa_offset 16
	.cfi_offset 6, -16
	mov	rbp, rsp
	.cfi_def_cfa_register 6
	sub	rsp, 48
	mov	QWORD PTR -40[rbp], rdi
	mov	QWORD PTR -48[rbp], rsi
	mov	rax, QWORD PTR fs:40
	mov	QWORD PTR -8[rbp], rax
	xor	eax, eax
	mov	rax, QWORD PTR -40[rbp]
	mov	rdi, rax
	call	_ZNSt6vectorIbSaIbEE5beginEv
	mov	QWORD PTR -32[rbp], rax
	mov	QWORD PTR -24[rbp], rdx
	mov	rdx, QWORD PTR -48[rbp]
	lea	rax, -32[rbp]
	mov	rsi, rdx
	mov	rdi, rax
	call	_ZNKSt13_Bit_iteratorixEl
	mov	rcx, QWORD PTR -8[rbp]
	sub	rcx, QWORD PTR fs:40
	je	.L96
	call	__stack_chk_fail@PLT
.L96:
	leave
	.cfi_def_cfa 7, 8
	ret
	.cfi_endproc
.LFE10436:
	.size	_ZNSt6vectorIbSaIbEEixEm, .-_ZNSt6vectorIbSaIbEEixEm
	.section	.text._ZNSt6vectorIcSaIcEEC2EmRKS0_,"axG",@progbits,_ZNSt6vectorIcSaIcEEC5EmRKS0_,comdat
	.align 2
	.weak	_ZNSt6vectorIcSaIcEEC2EmRKS0_
	.type	_ZNSt6vectorIcSaIcEEC2EmRKS0_, @function
_ZNSt6vectorIcSaIcEEC2EmRKS0_:
.LFB10438:
	.cfi_startproc
	.cfi_personality 0x9b,DW.ref.__gxx_personality_v0
	.cfi_lsda 0x1b,.LLSDA10438
	endbr64
	push	rbp
	.cfi_def_cfa_offset 16
	.cfi_offset 6, -16
	mov	rbp, rsp
	.cfi_def_cfa_register 6
	push	rbx
	sub	rsp, 40
	.cfi_offset 3, -24
	mov	QWORD PTR -24[rbp], rdi
	mov	QWORD PTR -32[rbp], rsi
	mov	QWORD PTR -40[rbp], rdx
	mov	rbx, QWORD PTR -24[rbp]
	mov	rdx, QWORD PTR -40[rbp]
	mov	rax, QWORD PTR -32[rbp]
	mov	rsi, rdx
	mov	rdi, rax
.LEHB7:
	call	_ZNSt6vectorIcSaIcEE17_S_check_init_lenEmRKS0_
	mov	rcx, rax
	mov	rax, QWORD PTR -40[rbp]
	mov	rdx, rax
	mov	rsi, rcx
	mov	rdi, rbx
	call	_ZNSt12_Vector_baseIcSaIcEEC2EmRKS0_
.LEHE7:
	mov	rdx, QWORD PTR -32[rbp]
	mov	rax, QWORD PTR -24[rbp]
	mov	rsi, rdx
	mov	rdi, rax
.LEHB8:
	call	_ZNSt6vectorIcSaIcEE21_M_default_initializeEm
.LEHE8:
	jmp	.L100
.L99:
	endbr64
	mov	rbx, rax
	mov	rax, QWORD PTR -24[rbp]
	mov	rdi, rax
	call	_ZNSt12_Vector_baseIcSaIcEED2Ev
	mov	rax, rbx
	mov	rdi, rax
.LEHB9:
	call	_Unwind_Resume@PLT
.LEHE9:
.L100:
	mov	rbx, QWORD PTR -8[rbp]
	leave
	.cfi_def_cfa 7, 8
	ret
	.cfi_endproc
.LFE10438:
	.section	.gcc_except_table
.LLSDA10438:
	.byte	0xff
	.byte	0xff
	.byte	0x1
	.uleb128 .LLSDACSE10438-.LLSDACSB10438
.LLSDACSB10438:
	.uleb128 .LEHB7-.LFB10438
	.uleb128 .LEHE7-.LEHB7
	.uleb128 0
	.uleb128 0
	.uleb128 .LEHB8-.LFB10438
	.uleb128 .LEHE8-.LEHB8
	.uleb128 .L99-.LFB10438
	.uleb128 0
	.uleb128 .LEHB9-.LFB10438
	.uleb128 .LEHE9-.LEHB9
	.uleb128 0
	.uleb128 0
.LLSDACSE10438:
	.section	.text._ZNSt6vectorIcSaIcEEC2EmRKS0_,"axG",@progbits,_ZNSt6vectorIcSaIcEEC5EmRKS0_,comdat
	.size	_ZNSt6vectorIcSaIcEEC2EmRKS0_, .-_ZNSt6vectorIcSaIcEEC2EmRKS0_
	.weak	_ZNSt6vectorIcSaIcEEC1EmRKS0_
	.set	_ZNSt6vectorIcSaIcEEC1EmRKS0_,_ZNSt6vectorIcSaIcEEC2EmRKS0_
	.section	.text._ZNSt6vectorIcSaIcEED2Ev,"axG",@progbits,_ZNSt6vectorIcSaIcEED5Ev,comdat
	.align 2
	.weak	_ZNSt6vectorIcSaIcEED2Ev
	.type	_ZNSt6vectorIcSaIcEED2Ev, @function
_ZNSt6vectorIcSaIcEED2Ev:
.LFB10441:
	.cfi_startproc
	.cfi_personality 0x9b,DW.ref.__gxx_personality_v0
	.cfi_lsda 0x1b,.LLSDA10441
	endbr64
	push	rbp
	.cfi_def_cfa_offset 16
	.cfi_offset 6, -16
	mov	rbp, rsp
	.cfi_def_cfa_register 6
	sub	rsp, 16
	mov	QWORD PTR -8[rbp], rdi
	mov	rax, QWORD PTR -8[rbp]
	mov	rdi, rax
	call	_ZNSt12_Vector_baseIcSaIcEE19_M_get_Tp_allocatorEv
	mov	rdx, rax
	mov	rax, QWORD PTR -8[rbp]
	mov	rcx, QWORD PTR 8[rax]
	mov	rax, QWORD PTR -8[rbp]
	mov	rax, QWORD PTR [rax]
	mov	rsi, rcx
	mov	rdi, rax
	call	_ZSt8_DestroyIPccEvT_S1_RSaIT0_E
	mov	rax, QWORD PTR -8[rbp]
	mov	rdi, rax
	call	_ZNSt12_Vector_baseIcSaIcEED2Ev
	nop
	leave
	.cfi_def_cfa 7, 8
	ret
	.cfi_endproc
.LFE10441:
	.section	.gcc_except_table
.LLSDA10441:
	.byte	0xff
	.byte	0xff
	.byte	0x1
	.uleb128 .LLSDACSE10441-.LLSDACSB10441
.LLSDACSB10441:
.LLSDACSE10441:
	.section	.text._ZNSt6vectorIcSaIcEED2Ev,"axG",@progbits,_ZNSt6vectorIcSaIcEED5Ev,comdat
	.size	_ZNSt6vectorIcSaIcEED2Ev, .-_ZNSt6vectorIcSaIcEED2Ev
	.weak	_ZNSt6vectorIcSaIcEED1Ev
	.set	_ZNSt6vectorIcSaIcEED1Ev,_ZNSt6vectorIcSaIcEED2Ev
	.section	.text._ZNSt6vectorIS_IcSaIcEESaIS1_EE6resizeEmRKS1_,"axG",@progbits,_ZNSt6vectorIS_IcSaIcEESaIS1_EE6resizeEmRKS1_,comdat
	.align 2
	.weak	_ZNSt6vectorIS_IcSaIcEESaIS1_EE6resizeEmRKS1_
	.type	_ZNSt6vectorIS_IcSaIcEESaIS1_EE6resizeEmRKS1_, @function
_ZNSt6vectorIS_IcSaIcEESaIS1_EE6resizeEmRKS1_:
.LFB10443:
	.cfi_startproc
	endbr64
	push	rbp
	.cfi_def_cfa_offset 16
	.cfi_offset 6, -16
	mov	rbp, rsp
	.cfi_def_cfa_register 6
	push	rbx
	sub	rsp, 40
	.cfi_offset 3, -24
	mov	QWORD PTR -24[rbp], rdi
	mov	QWORD PTR -32[rbp], rsi
	mov	QWORD PTR -40[rbp], rdx
	mov	rax, QWORD PTR -24[rbp]
	mov	rdi, rax
	call	_ZNKSt6vectorIS_IcSaIcEESaIS1_EE4sizeEv
	cmp	QWORD PTR -32[rbp], rax
	seta	al
	test	al, al
	je	.L103
	mov	rax, QWORD PTR -24[rbp]
	mov	rdi, rax
	call	_ZNKSt6vectorIS_IcSaIcEESaIS1_EE4sizeEv
	mov	rdx, rax
	mov	rax, QWORD PTR -32[rbp]
	sub	rax, rdx
	mov	rbx, rax
	mov	rax, QWORD PTR -24[rbp]
	mov	rdi, rax
	call	_ZNSt6vectorIS_IcSaIcEESaIS1_EE3endEv
	mov	rsi, rax
	mov	rdx, QWORD PTR -40[rbp]
	mov	rax, QWORD PTR -24[rbp]
	mov	rcx, rdx
	mov	rdx, rbx
	mov	rdi, rax
	call	_ZNSt6vectorIS_IcSaIcEESaIS1_EE14_M_fill_insertEN9__gnu_cxx17__normal_iteratorIPS1_S3_EEmRKS1_
	jmp	.L105
.L103:
	mov	rax, QWORD PTR -24[rbp]
	mov	rdi, rax
	call	_ZNKSt6vectorIS_IcSaIcEESaIS1_EE4sizeEv
	cmp	QWORD PTR -32[rbp], rax
	setb	al
	test	al, al
	je	.L105
	mov	rax, QWORD PTR -24[rbp]
	mov	rcx, QWORD PTR [rax]
	mov	rdx, QWORD PTR -32[rbp]
	mov	rax, rdx
	add	rax, rax
	add	rax, rdx
	sal	rax, 3
	lea	rdx, [rcx+rax]
	mov	rax, QWORD PTR -24[rbp]
	mov	rsi, rdx
	mov	rdi, rax
	call	_ZNSt6vectorIS_IcSaIcEESaIS1_EE15_M_erase_at_endEPS1_
.L105:
	nop
	mov	rbx, QWORD PTR -8[rbp]
	leave
	.cfi_def_cfa 7, 8
	ret
	.cfi_endproc
.LFE10443:
	.size	_ZNSt6vectorIS_IcSaIcEESaIS1_EE6resizeEmRKS1_, .-_ZNSt6vectorIS_IcSaIcEESaIS1_EE6resizeEmRKS1_
	.section	.text._ZNSaIbEC2Ev,"axG",@progbits,_ZNSaIbEC5Ev,comdat
	.align 2
	.weak	_ZNSaIbEC2Ev
	.type	_ZNSaIbEC2Ev, @function
_ZNSaIbEC2Ev:
.LFB10445:
	.cfi_startproc
	endbr64
	push	rbp
	.cfi_def_cfa_offset 16
	.cfi_offset 6, -16
	mov	rbp, rsp
	.cfi_def_cfa_register 6
	sub	rsp, 16
	mov	QWORD PTR -8[rbp], rdi
	mov	rax, QWORD PTR -8[rbp]
	mov	rdi, rax
	call	_ZN9__gnu_cxx13new_allocatorIbEC2Ev
	nop
	leave
	.cfi_def_cfa 7, 8
	ret
	.cfi_endproc
.LFE10445:
	.size	_ZNSaIbEC2Ev, .-_ZNSaIbEC2Ev
	.weak	_ZNSaIbEC1Ev
	.set	_ZNSaIbEC1Ev,_ZNSaIbEC2Ev
	.section	.text._ZNSaIbED2Ev,"axG",@progbits,_ZNSaIbED5Ev,comdat
	.align 2
	.weak	_ZNSaIbED2Ev
	.type	_ZNSaIbED2Ev, @function
_ZNSaIbED2Ev:
.LFB10448:
	.cfi_startproc
	endbr64
	push	rbp
	.cfi_def_cfa_offset 16
	.cfi_offset 6, -16
	mov	rbp, rsp
	.cfi_def_cfa_register 6
	sub	rsp, 16
	mov	QWORD PTR -8[rbp], rdi
	mov	rax, QWORD PTR -8[rbp]
	mov	rdi, rax
	call	_ZN9__gnu_cxx13new_allocatorIbED2Ev
	nop
	leave
	.cfi_def_cfa 7, 8
	ret
	.cfi_endproc
.LFE10448:
	.size	_ZNSaIbED2Ev, .-_ZNSaIbED2Ev
	.weak	_ZNSaIbED1Ev
	.set	_ZNSaIbED1Ev,_ZNSaIbED2Ev
	.section	.text._ZNSt6vectorIbSaIbEEC2EmRKS0_,"axG",@progbits,_ZNSt6vectorIbSaIbEEC5EmRKS0_,comdat
	.align 2
	.weak	_ZNSt6vectorIbSaIbEEC2EmRKS0_
	.type	_ZNSt6vectorIbSaIbEEC2EmRKS0_, @function
_ZNSt6vectorIbSaIbEEC2EmRKS0_:
.LFB10451:
	.cfi_startproc
	endbr64
	push	rbp
	.cfi_def_cfa_offset 16
	.cfi_offset 6, -16
	mov	rbp, rsp
	.cfi_def_cfa_register 6
	sub	rsp, 48
	mov	QWORD PTR -24[rbp], rdi
	mov	QWORD PTR -32[rbp], rsi
	mov	QWORD PTR -40[rbp], rdx
	mov	rax, QWORD PTR fs:40
	mov	QWORD PTR -8[rbp], rax
	xor	eax, eax
	mov	BYTE PTR -9[rbp], 0
	mov	rcx, QWORD PTR -40[rbp]
	lea	rdx, -9[rbp]
	mov	rsi, QWORD PTR -32[rbp]
	mov	rax, QWORD PTR -24[rbp]
	mov	rdi, rax
	call	_ZNSt6vectorIbSaIbEEC1EmRKbRKS0_
	nop
	mov	rax, QWORD PTR -8[rbp]
	sub	rax, QWORD PTR fs:40
	je	.L109
	call	__stack_chk_fail@PLT
.L109:
	leave
	.cfi_def_cfa 7, 8
	ret
	.cfi_endproc
.LFE10451:
	.size	_ZNSt6vectorIbSaIbEEC2EmRKS0_, .-_ZNSt6vectorIbSaIbEEC2EmRKS0_
	.weak	_ZNSt6vectorIbSaIbEEC1EmRKS0_
	.set	_ZNSt6vectorIbSaIbEEC1EmRKS0_,_ZNSt6vectorIbSaIbEEC2EmRKS0_
	.section	.text._ZNSt6vectorIbSaIbEED2Ev,"axG",@progbits,_ZNSt6vectorIbSaIbEED5Ev,comdat
	.align 2
	.weak	_ZNSt6vectorIbSaIbEED2Ev
	.type	_ZNSt6vectorIbSaIbEED2Ev, @function
_ZNSt6vectorIbSaIbEED2Ev:
.LFB10454:
	.cfi_startproc
	endbr64
	push	rbp
	.cfi_def_cfa_offset 16
	.cfi_offset 6, -16
	mov	rbp, rsp
	.cfi_def_cfa_register 6
	sub	rsp, 16
	mov	QWORD PTR -8[rbp], rdi
	mov	rax, QWORD PTR -8[rbp]
	mov	rdi, rax
	call	_ZNSt13_Bvector_baseISaIbEED2Ev
	nop
	leave
	.cfi_def_cfa 7, 8
	ret
	.cfi_endproc
.LFE10454:
	.size	_ZNSt6vectorIbSaIbEED2Ev, .-_ZNSt6vectorIbSaIbEED2Ev
	.weak	_ZNSt6vectorIbSaIbEED1Ev
	.set	_ZNSt6vectorIbSaIbEED1Ev,_ZNSt6vectorIbSaIbEED2Ev
	.section	.text._ZNSt6vectorIS_IbSaIbEESaIS1_EE6resizeEmRKS1_,"axG",@progbits,_ZNSt6vectorIS_IbSaIbEESaIS1_EE6resizeEmRKS1_,comdat
	.align 2
	.weak	_ZNSt6vectorIS_IbSaIbEESaIS1_EE6resizeEmRKS1_
	.type	_ZNSt6vectorIS_IbSaIbEESaIS1_EE6resizeEmRKS1_, @function
_ZNSt6vectorIS_IbSaIbEESaIS1_EE6resizeEmRKS1_:
.LFB10456:
	.cfi_startproc
	endbr64
	push	rbp
	.cfi_def_cfa_offset 16
	.cfi_offset 6, -16
	mov	rbp, rsp
	.cfi_def_cfa_register 6
	push	rbx
	sub	rsp, 40
	.cfi_offset 3, -24
	mov	QWORD PTR -24[rbp], rdi
	mov	QWORD PTR -32[rbp], rsi
	mov	QWORD PTR -40[rbp], rdx
	mov	rax, QWORD PTR -24[rbp]
	mov	rdi, rax
	call	_ZNKSt6vectorIS_IbSaIbEESaIS1_EE4sizeEv
	cmp	QWORD PTR -32[rbp], rax
	seta	al
	test	al, al
	je	.L112
	mov	rax, QWORD PTR -24[rbp]
	mov	rdi, rax
	call	_ZNKSt6vectorIS_IbSaIbEESaIS1_EE4sizeEv
	mov	rdx, rax
	mov	rax, QWORD PTR -32[rbp]
	sub	rax, rdx
	mov	rbx, rax
	mov	rax, QWORD PTR -24[rbp]
	mov	rdi, rax
	call	_ZNSt6vectorIS_IbSaIbEESaIS1_EE3endEv
	mov	rsi, rax
	mov	rdx, QWORD PTR -40[rbp]
	mov	rax, QWORD PTR -24[rbp]
	mov	rcx, rdx
	mov	rdx, rbx
	mov	rdi, rax
	call	_ZNSt6vectorIS_IbSaIbEESaIS1_EE14_M_fill_insertEN9__gnu_cxx17__normal_iteratorIPS1_S3_EEmRKS1_
	jmp	.L114
.L112:
	mov	rax, QWORD PTR -24[rbp]
	mov	rdi, rax
	call	_ZNKSt6vectorIS_IbSaIbEESaIS1_EE4sizeEv
	cmp	QWORD PTR -32[rbp], rax
	setb	al
	test	al, al
	je	.L114
	mov	rax, QWORD PTR -24[rbp]
	mov	rcx, QWORD PTR [rax]
	mov	rdx, QWORD PTR -32[rbp]
	mov	rax, rdx
	sal	rax, 2
	add	rax, rdx
	sal	rax, 3
	lea	rdx, [rcx+rax]
	mov	rax, QWORD PTR -24[rbp]
	mov	rsi, rdx
	mov	rdi, rax
	call	_ZNSt6vectorIS_IbSaIbEESaIS1_EE15_M_erase_at_endEPS1_
.L114:
	nop
	mov	rbx, QWORD PTR -8[rbp]
	leave
	.cfi_def_cfa 7, 8
	ret
	.cfi_endproc
.LFE10456:
	.size	_ZNSt6vectorIS_IbSaIbEESaIS1_EE6resizeEmRKS1_, .-_ZNSt6vectorIS_IbSaIbEESaIS1_EE6resizeEmRKS1_
	.section	.text._ZSt4moveIRSaIcEEONSt16remove_referenceIT_E4typeEOS3_,"axG",@progbits,_ZSt4moveIRSaIcEEONSt16remove_referenceIT_E4typeEOS3_,comdat
	.weak	_ZSt4moveIRSaIcEEONSt16remove_referenceIT_E4typeEOS3_
	.type	_ZSt4moveIRSaIcEEONSt16remove_referenceIT_E4typeEOS3_, @function
_ZSt4moveIRSaIcEEONSt16remove_referenceIT_E4typeEOS3_:
.LFB10520:
	.cfi_startproc
	endbr64
	push	rbp
	.cfi_def_cfa_offset 16
	.cfi_offset 6, -16
	mov	rbp, rsp
	.cfi_def_cfa_register 6
	mov	QWORD PTR -8[rbp], rdi
	mov	rax, QWORD PTR -8[rbp]
	pop	rbp
	.cfi_def_cfa 7, 8
	ret
	.cfi_endproc
.LFE10520:
	.size	_ZSt4moveIRSaIcEEONSt16remove_referenceIT_E4typeEOS3_, .-_ZSt4moveIRSaIcEEONSt16remove_referenceIT_E4typeEOS3_
	.section	.text._ZN9__gnu_cxx13new_allocatorImED2Ev,"axG",@progbits,_ZN9__gnu_cxx13new_allocatorImED5Ev,comdat
	.align 2
	.weak	_ZN9__gnu_cxx13new_allocatorImED2Ev
	.type	_ZN9__gnu_cxx13new_allocatorImED2Ev, @function
_ZN9__gnu_cxx13new_allocatorImED2Ev:
.LFB10748:
	.cfi_startproc
	endbr64
	push	rbp
	.cfi_def_cfa_offset 16
	.cfi_offset 6, -16
	mov	rbp, rsp
	.cfi_def_cfa_register 6
	mov	QWORD PTR -8[rbp], rdi
	nop
	pop	rbp
	.cfi_def_cfa 7, 8
	ret
	.cfi_endproc
.LFE10748:
	.size	_ZN9__gnu_cxx13new_allocatorImED2Ev, .-_ZN9__gnu_cxx13new_allocatorImED2Ev
	.weak	_ZN9__gnu_cxx13new_allocatorImED1Ev
	.set	_ZN9__gnu_cxx13new_allocatorImED1Ev,_ZN9__gnu_cxx13new_allocatorImED2Ev
	.section	.text._ZN9__gnu_cxx14__alloc_traitsISaIcEcE17_S_select_on_copyERKS1_,"axG",@progbits,_ZN9__gnu_cxx14__alloc_traitsISaIcEcE17_S_select_on_copyERKS1_,comdat
	.weak	_ZN9__gnu_cxx14__alloc_traitsISaIcEcE17_S_select_on_copyERKS1_
	.type	_ZN9__gnu_cxx14__alloc_traitsISaIcEcE17_S_select_on_copyERKS1_, @function
_ZN9__gnu_cxx14__alloc_traitsISaIcEcE17_S_select_on_copyERKS1_:
.LFB10783:
	.cfi_startproc
	endbr64
	push	rbp
	.cfi_def_cfa_offset 16
	.cfi_offset 6, -16
	mov	rbp, rsp
	.cfi_def_cfa_register 6
	sub	rsp, 32
	mov	QWORD PTR -24[rbp], rdi
	mov	QWORD PTR -32[rbp], rsi
	mov	rax, QWORD PTR fs:40
	mov	QWORD PTR -8[rbp], rax
	xor	eax, eax
	mov	rax, QWORD PTR -24[rbp]
	mov	rdx, QWORD PTR -32[rbp]
	mov	rsi, rdx
	mov	rdi, rax
	call	_ZNSt16allocator_traitsISaIcEE37select_on_container_copy_constructionERKS0_
	mov	rax, QWORD PTR -8[rbp]
	sub	rax, QWORD PTR fs:40
	je	.L120
	call	__stack_chk_fail@PLT
.L120:
	mov	rax, QWORD PTR -24[rbp]
	leave
	.cfi_def_cfa 7, 8
	ret
	.cfi_endproc
.LFE10783:
	.size	_ZN9__gnu_cxx14__alloc_traitsISaIcEcE17_S_select_on_copyERKS1_, .-_ZN9__gnu_cxx14__alloc_traitsISaIcEcE17_S_select_on_copyERKS1_
	.section	.text._ZStneRKSaIcES1_,"axG",@progbits,_ZStneRKSaIcES1_,comdat
	.weak	_ZStneRKSaIcES1_
	.type	_ZStneRKSaIcES1_, @function
_ZStneRKSaIcES1_:
.LFB10790:
	.cfi_startproc
	endbr64
	push	rbp
	.cfi_def_cfa_offset 16
	.cfi_offset 6, -16
	mov	rbp, rsp
	.cfi_def_cfa_register 6
	mov	QWORD PTR -8[rbp], rdi
	mov	QWORD PTR -16[rbp], rsi
	mov	eax, 0
	pop	rbp
	.cfi_def_cfa 7, 8
	ret
	.cfi_endproc
.LFE10790:
	.size	_ZStneRKSaIcES1_, .-_ZStneRKSaIcES1_
	.section	.text._ZSt15__alloc_on_moveISaIcEEvRT_S2_,"axG",@progbits,_ZSt15__alloc_on_moveISaIcEEvRT_S2_,comdat
	.weak	_ZSt15__alloc_on_moveISaIcEEvRT_S2_
	.type	_ZSt15__alloc_on_moveISaIcEEvRT_S2_, @function
_ZSt15__alloc_on_moveISaIcEEvRT_S2_:
.LFB10792:
	.cfi_startproc
	endbr64
	push	rbp
	.cfi_def_cfa_offset 16
	.cfi_offset 6, -16
	mov	rbp, rsp
	.cfi_def_cfa_register 6
	sub	rsp, 16
	mov	QWORD PTR -8[rbp], rdi
	mov	QWORD PTR -16[rbp], rsi
	mov	rax, QWORD PTR -16[rbp]
	mov	rdi, rax
	call	_ZSt4moveIRSaIcEEONSt16remove_referenceIT_E4typeEOS3_
	nop
	leave
	.cfi_def_cfa 7, 8
	ret
	.cfi_endproc
.LFE10792:
	.size	_ZSt15__alloc_on_moveISaIcEEvRT_S2_, .-_ZSt15__alloc_on_moveISaIcEEvRT_S2_
	.section	.text._ZN9__gnu_cxx14__alloc_traitsISaIcEcE27_S_propagate_on_copy_assignEv,"axG",@progbits,_ZN9__gnu_cxx14__alloc_traitsISaIcEcE27_S_propagate_on_copy_assignEv,comdat
	.weak	_ZN9__gnu_cxx14__alloc_traitsISaIcEcE27_S_propagate_on_copy_assignEv
	.type	_ZN9__gnu_cxx14__alloc_traitsISaIcEcE27_S_propagate_on_copy_assignEv, @function
_ZN9__gnu_cxx14__alloc_traitsISaIcEcE27_S_propagate_on_copy_assignEv:
.LFB10796:
	.cfi_startproc
	endbr64
	push	rbp
	.cfi_def_cfa_offset 16
	.cfi_offset 6, -16
	mov	rbp, rsp
	.cfi_def_cfa_register 6
	mov	eax, 0
	pop	rbp
	.cfi_def_cfa 7, 8
	ret
	.cfi_endproc
.LFE10796:
	.size	_ZN9__gnu_cxx14__alloc_traitsISaIcEcE27_S_propagate_on_copy_assignEv, .-_ZN9__gnu_cxx14__alloc_traitsISaIcEcE27_S_propagate_on_copy_assignEv
	.section	.text._ZNSaISt6vectorIcSaIcEEEC2Ev,"axG",@progbits,_ZNSaISt6vectorIcSaIcEEEC5Ev,comdat
	.align 2
	.weak	_ZNSaISt6vectorIcSaIcEEEC2Ev
	.type	_ZNSaISt6vectorIcSaIcEEEC2Ev, @function
_ZNSaISt6vectorIcSaIcEEEC2Ev:
.LFB10849:
	.cfi_startproc
	endbr64
	push	rbp
	.cfi_def_cfa_offset 16
	.cfi_offset 6, -16
	mov	rbp, rsp
	.cfi_def_cfa_register 6
	sub	rsp, 16
	mov	QWORD PTR -8[rbp], rdi
	mov	rax, QWORD PTR -8[rbp]
	mov	rdi, rax
	call	_ZN9__gnu_cxx13new_allocatorISt6vectorIcSaIcEEEC2Ev
	nop
	leave
	.cfi_def_cfa 7, 8
	ret
	.cfi_endproc
.LFE10849:
	.size	_ZNSaISt6vectorIcSaIcEEEC2Ev, .-_ZNSaISt6vectorIcSaIcEEEC2Ev
	.weak	_ZNSaISt6vectorIcSaIcEEEC1Ev
	.set	_ZNSaISt6vectorIcSaIcEEEC1Ev,_ZNSaISt6vectorIcSaIcEEEC2Ev
	.section	.text._ZNSt12_Vector_baseISt6vectorIcSaIcEESaIS2_EE17_Vector_impl_dataC2Ev,"axG",@progbits,_ZNSt12_Vector_baseISt6vectorIcSaIcEESaIS2_EE17_Vector_impl_dataC5Ev,comdat
	.align 2
	.weak	_ZNSt12_Vector_baseISt6vectorIcSaIcEESaIS2_EE17_Vector_impl_dataC2Ev
	.type	_ZNSt12_Vector_baseISt6vectorIcSaIcEESaIS2_EE17_Vector_impl_dataC2Ev, @function
_ZNSt12_Vector_baseISt6vectorIcSaIcEESaIS2_EE17_Vector_impl_dataC2Ev:
.LFB10852:
	.cfi_startproc
	endbr64
	push	rbp
	.cfi_def_cfa_offset 16
	.cfi_offset 6, -16
	mov	rbp, rsp
	.cfi_def_cfa_register 6
	mov	QWORD PTR -8[rbp], rdi
	mov	rax, QWORD PTR -8[rbp]
	mov	QWORD PTR [rax], 0
	mov	rax, QWORD PTR -8[rbp]
	mov	QWORD PTR 8[rax], 0
	mov	rax, QWORD PTR -8[rbp]
	mov	QWORD PTR 16[rax], 0
	nop
	pop	rbp
	.cfi_def_cfa 7, 8
	ret
	.cfi_endproc
.LFE10852:
	.size	_ZNSt12_Vector_baseISt6vectorIcSaIcEESaIS2_EE17_Vector_impl_dataC2Ev, .-_ZNSt12_Vector_baseISt6vectorIcSaIcEESaIS2_EE17_Vector_impl_dataC2Ev
	.weak	_ZNSt12_Vector_baseISt6vectorIcSaIcEESaIS2_EE17_Vector_impl_dataC1Ev
	.set	_ZNSt12_Vector_baseISt6vectorIcSaIcEESaIS2_EE17_Vector_impl_dataC1Ev,_ZNSt12_Vector_baseISt6vectorIcSaIcEESaIS2_EE17_Vector_impl_dataC2Ev
	.section	.text._ZN9__gnu_cxx13new_allocatorISt6vectorIcSaIcEEED2Ev,"axG",@progbits,_ZN9__gnu_cxx13new_allocatorISt6vectorIcSaIcEEED5Ev,comdat
	.align 2
	.weak	_ZN9__gnu_cxx13new_allocatorISt6vectorIcSaIcEEED2Ev
	.type	_ZN9__gnu_cxx13new_allocatorISt6vectorIcSaIcEEED2Ev, @function
_ZN9__gnu_cxx13new_allocatorISt6vectorIcSaIcEEED2Ev:
.LFB10855:
	.cfi_startproc
	endbr64
	push	rbp
	.cfi_def_cfa_offset 16
	.cfi_offset 6, -16
	mov	rbp, rsp
	.cfi_def_cfa_register 6
	mov	QWORD PTR -8[rbp], rdi
	nop
	pop	rbp
	.cfi_def_cfa 7, 8
	ret
	.cfi_endproc
.LFE10855:
	.size	_ZN9__gnu_cxx13new_allocatorISt6vectorIcSaIcEEED2Ev, .-_ZN9__gnu_cxx13new_allocatorISt6vectorIcSaIcEEED2Ev
	.weak	_ZN9__gnu_cxx13new_allocatorISt6vectorIcSaIcEEED1Ev
	.set	_ZN9__gnu_cxx13new_allocatorISt6vectorIcSaIcEEED1Ev,_ZN9__gnu_cxx13new_allocatorISt6vectorIcSaIcEEED2Ev
	.section	.text._ZNSt12_Vector_baseISt6vectorIcSaIcEESaIS2_EE13_M_deallocateEPS2_m,"axG",@progbits,_ZNSt12_Vector_baseISt6vectorIcSaIcEESaIS2_EE13_M_deallocateEPS2_m,comdat
	.align 2
	.weak	_ZNSt12_Vector_baseISt6vectorIcSaIcEESaIS2_EE13_M_deallocateEPS2_m
	.type	_ZNSt12_Vector_baseISt6vectorIcSaIcEESaIS2_EE13_M_deallocateEPS2_m, @function
_ZNSt12_Vector_baseISt6vectorIcSaIcEESaIS2_EE13_M_deallocateEPS2_m:
.LFB10857:
	.cfi_startproc
	endbr64
	push	rbp
	.cfi_def_cfa_offset 16
	.cfi_offset 6, -16
	mov	rbp, rsp
	.cfi_def_cfa_register 6
	sub	rsp, 32
	mov	QWORD PTR -8[rbp], rdi
	mov	QWORD PTR -16[rbp], rsi
	mov	QWORD PTR -24[rbp], rdx
	cmp	QWORD PTR -16[rbp], 0
	je	.L131
	mov	rax, QWORD PTR -8[rbp]
	mov	rdx, QWORD PTR -24[rbp]
	mov	rcx, QWORD PTR -16[rbp]
	mov	rsi, rcx
	mov	rdi, rax
	call	_ZNSt16allocator_traitsISaISt6vectorIcSaIcEEEE10deallocateERS3_PS2_m
.L131:
	nop
	leave
	.cfi_def_cfa 7, 8
	ret
	.cfi_endproc
.LFE10857:
	.size	_ZNSt12_Vector_baseISt6vectorIcSaIcEESaIS2_EE13_M_deallocateEPS2_m, .-_ZNSt12_Vector_baseISt6vectorIcSaIcEESaIS2_EE13_M_deallocateEPS2_m
	.section	.text._ZNSaISt6vectorIbSaIbEEEC2Ev,"axG",@progbits,_ZNSaISt6vectorIbSaIbEEEC5Ev,comdat
	.align 2
	.weak	_ZNSaISt6vectorIbSaIbEEEC2Ev
	.type	_ZNSaISt6vectorIbSaIbEEEC2Ev, @function
_ZNSaISt6vectorIbSaIbEEEC2Ev:
.LFB10859:
	.cfi_startproc
	endbr64
	push	rbp
	.cfi_def_cfa_offset 16
	.cfi_offset 6, -16
	mov	rbp, rsp
	.cfi_def_cfa_register 6
	sub	rsp, 16
	mov	QWORD PTR -8[rbp], rdi
	mov	rax, QWORD PTR -8[rbp]
	mov	rdi, rax
	call	_ZN9__gnu_cxx13new_allocatorISt6vectorIbSaIbEEEC2Ev
	nop
	leave
	.cfi_def_cfa 7, 8
	ret
	.cfi_endproc
.LFE10859:
	.size	_ZNSaISt6vectorIbSaIbEEEC2Ev, .-_ZNSaISt6vectorIbSaIbEEEC2Ev
	.weak	_ZNSaISt6vectorIbSaIbEEEC1Ev
	.set	_ZNSaISt6vectorIbSaIbEEEC1Ev,_ZNSaISt6vectorIbSaIbEEEC2Ev
	.section	.text._ZNSt12_Vector_baseISt6vectorIbSaIbEESaIS2_EE17_Vector_impl_dataC2Ev,"axG",@progbits,_ZNSt12_Vector_baseISt6vectorIbSaIbEESaIS2_EE17_Vector_impl_dataC5Ev,comdat
	.align 2
	.weak	_ZNSt12_Vector_baseISt6vectorIbSaIbEESaIS2_EE17_Vector_impl_dataC2Ev
	.type	_ZNSt12_Vector_baseISt6vectorIbSaIbEESaIS2_EE17_Vector_impl_dataC2Ev, @function
_ZNSt12_Vector_baseISt6vectorIbSaIbEESaIS2_EE17_Vector_impl_dataC2Ev:
.LFB10862:
	.cfi_startproc
	endbr64
	push	rbp
	.cfi_def_cfa_offset 16
	.cfi_offset 6, -16
	mov	rbp, rsp
	.cfi_def_cfa_register 6
	mov	QWORD PTR -8[rbp], rdi
	mov	rax, QWORD PTR -8[rbp]
	mov	QWORD PTR [rax], 0
	mov	rax, QWORD PTR -8[rbp]
	mov	QWORD PTR 8[rax], 0
	mov	rax, QWORD PTR -8[rbp]
	mov	QWORD PTR 16[rax], 0
	nop
	pop	rbp
	.cfi_def_cfa 7, 8
	ret
	.cfi_endproc
.LFE10862:
	.size	_ZNSt12_Vector_baseISt6vectorIbSaIbEESaIS2_EE17_Vector_impl_dataC2Ev, .-_ZNSt12_Vector_baseISt6vectorIbSaIbEESaIS2_EE17_Vector_impl_dataC2Ev
	.weak	_ZNSt12_Vector_baseISt6vectorIbSaIbEESaIS2_EE17_Vector_impl_dataC1Ev
	.set	_ZNSt12_Vector_baseISt6vectorIbSaIbEESaIS2_EE17_Vector_impl_dataC1Ev,_ZNSt12_Vector_baseISt6vectorIbSaIbEESaIS2_EE17_Vector_impl_dataC2Ev
	.section	.text._ZN9__gnu_cxx13new_allocatorISt6vectorIbSaIbEEED2Ev,"axG",@progbits,_ZN9__gnu_cxx13new_allocatorISt6vectorIbSaIbEEED5Ev,comdat
	.align 2
	.weak	_ZN9__gnu_cxx13new_allocatorISt6vectorIbSaIbEEED2Ev
	.type	_ZN9__gnu_cxx13new_allocatorISt6vectorIbSaIbEEED2Ev, @function
_ZN9__gnu_cxx13new_allocatorISt6vectorIbSaIbEEED2Ev:
.LFB10865:
	.cfi_startproc
	endbr64
	push	rbp
	.cfi_def_cfa_offset 16
	.cfi_offset 6, -16
	mov	rbp, rsp
	.cfi_def_cfa_register 6
	mov	QWORD PTR -8[rbp], rdi
	nop
	pop	rbp
	.cfi_def_cfa 7, 8
	ret
	.cfi_endproc
.LFE10865:
	.size	_ZN9__gnu_cxx13new_allocatorISt6vectorIbSaIbEEED2Ev, .-_ZN9__gnu_cxx13new_allocatorISt6vectorIbSaIbEEED2Ev
	.weak	_ZN9__gnu_cxx13new_allocatorISt6vectorIbSaIbEEED1Ev
	.set	_ZN9__gnu_cxx13new_allocatorISt6vectorIbSaIbEEED1Ev,_ZN9__gnu_cxx13new_allocatorISt6vectorIbSaIbEEED2Ev
	.section	.text._ZNSt12_Vector_baseISt6vectorIbSaIbEESaIS2_EE13_M_deallocateEPS2_m,"axG",@progbits,_ZNSt12_Vector_baseISt6vectorIbSaIbEESaIS2_EE13_M_deallocateEPS2_m,comdat
	.align 2
	.weak	_ZNSt12_Vector_baseISt6vectorIbSaIbEESaIS2_EE13_M_deallocateEPS2_m
	.type	_ZNSt12_Vector_baseISt6vectorIbSaIbEESaIS2_EE13_M_deallocateEPS2_m, @function
_ZNSt12_Vector_baseISt6vectorIbSaIbEESaIS2_EE13_M_deallocateEPS2_m:
.LFB10867:
	.cfi_startproc
	endbr64
	push	rbp
	.cfi_def_cfa_offset 16
	.cfi_offset 6, -16
	mov	rbp, rsp
	.cfi_def_cfa_register 6
	sub	rsp, 32
	mov	QWORD PTR -8[rbp], rdi
	mov	QWORD PTR -16[rbp], rsi
	mov	QWORD PTR -24[rbp], rdx
	cmp	QWORD PTR -16[rbp], 0
	je	.L137
	mov	rax, QWORD PTR -8[rbp]
	mov	rdx, QWORD PTR -24[rbp]
	mov	rcx, QWORD PTR -16[rbp]
	mov	rsi, rcx
	mov	rdi, rax
	call	_ZNSt16allocator_traitsISaISt6vectorIbSaIbEEEE10deallocateERS3_PS2_m
.L137:
	nop
	leave
	.cfi_def_cfa 7, 8
	ret
	.cfi_endproc
.LFE10867:
	.size	_ZNSt12_Vector_baseISt6vectorIbSaIbEESaIS2_EE13_M_deallocateEPS2_m, .-_ZNSt12_Vector_baseISt6vectorIbSaIbEESaIS2_EE13_M_deallocateEPS2_m
	.section	.text._ZNSt6vectorIbSaIbEE5beginEv,"axG",@progbits,_ZNSt6vectorIbSaIbEE5beginEv,comdat
	.align 2
	.weak	_ZNSt6vectorIbSaIbEE5beginEv
	.type	_ZNSt6vectorIbSaIbEE5beginEv, @function
_ZNSt6vectorIbSaIbEE5beginEv:
.LFB10868:
	.cfi_startproc
	endbr64
	push	rbp
	.cfi_def_cfa_offset 16
	.cfi_offset 6, -16
	mov	rbp, rsp
	.cfi_def_cfa_register 6
	sub	rsp, 80
	mov	QWORD PTR -56[rbp], rdi
	mov	rax, QWORD PTR fs:40
	mov	QWORD PTR -8[rbp], rax
	xor	eax, eax
	mov	rax, QWORD PTR -56[rbp]
	mov	rcx, QWORD PTR [rax]
	lea	rax, -48[rbp]
	mov	edx, 0
	mov	rsi, rcx
	mov	rdi, rax
	call	_ZNSt13_Bit_iteratorC1EPmj
	mov	rax, QWORD PTR -48[rbp]
	mov	rdx, QWORD PTR -40[rbp]
	mov	QWORD PTR -32[rbp], rax
	mov	QWORD PTR -24[rbp], rdx
	mov	rax, QWORD PTR -32[rbp]
	mov	rdx, QWORD PTR -24[rbp]
	mov	rcx, QWORD PTR -8[rbp]
	sub	rcx, QWORD PTR fs:40
	je	.L140
	call	__stack_chk_fail@PLT
.L140:
	leave
	.cfi_def_cfa 7, 8
	ret
	.cfi_endproc
.LFE10868:
	.size	_ZNSt6vectorIbSaIbEE5beginEv, .-_ZNSt6vectorIbSaIbEE5beginEv
	.section	.rodata
	.align 8
.LC4:
	.string	"cannot create std::vector larger than max_size()"
	.section	.text._ZNSt6vectorIcSaIcEE17_S_check_init_lenEmRKS0_,"axG",@progbits,_ZNSt6vectorIcSaIcEE17_S_check_init_lenEmRKS0_,comdat
	.weak	_ZNSt6vectorIcSaIcEE17_S_check_init_lenEmRKS0_
	.type	_ZNSt6vectorIcSaIcEE17_S_check_init_lenEmRKS0_, @function
_ZNSt6vectorIcSaIcEE17_S_check_init_lenEmRKS0_:
.LFB10869:
	.cfi_startproc
	endbr64
	push	rbp
	.cfi_def_cfa_offset 16
	.cfi_offset 6, -16
	mov	rbp, rsp
	.cfi_def_cfa_register 6
	push	rbx
	sub	rsp, 40
	.cfi_offset 3, -24
	mov	QWORD PTR -40[rbp], rdi
	mov	QWORD PTR -48[rbp], rsi
	mov	rax, QWORD PTR fs:40
	mov	QWORD PTR -24[rbp], rax
	xor	eax, eax
	mov	rdx, QWORD PTR -48[rbp]
	lea	rax, -25[rbp]
	mov	rsi, rdx
	mov	rdi, rax
	call	_ZNSaIcEC1ERKS_@PLT
	lea	rax, -25[rbp]
	mov	rdi, rax
	call	_ZNSt6vectorIcSaIcEE11_S_max_sizeERKS0_
	cmp	QWORD PTR -40[rbp], rax
	seta	bl
	lea	rax, -25[rbp]
	mov	rdi, rax
	call	_ZNSaIcED1Ev@PLT
	test	bl, bl
	je	.L142
	lea	rax, .LC4[rip]
	mov	rdi, rax
	call	_ZSt20__throw_length_errorPKc@PLT
.L142:
	mov	rax, QWORD PTR -40[rbp]
	mov	rdx, QWORD PTR -24[rbp]
	sub	rdx, QWORD PTR fs:40
	je	.L144
	call	__stack_chk_fail@PLT
.L144:
	mov	rbx, QWORD PTR -8[rbp]
	leave
	.cfi_def_cfa 7, 8
	ret
	.cfi_endproc
.LFE10869:
	.size	_ZNSt6vectorIcSaIcEE17_S_check_init_lenEmRKS0_, .-_ZNSt6vectorIcSaIcEE17_S_check_init_lenEmRKS0_
	.section	.text._ZNSt12_Vector_baseIcSaIcEE12_Vector_implD2Ev,"axG",@progbits,_ZNSt12_Vector_baseIcSaIcEE12_Vector_implD5Ev,comdat
	.align 2
	.weak	_ZNSt12_Vector_baseIcSaIcEE12_Vector_implD2Ev
	.type	_ZNSt12_Vector_baseIcSaIcEE12_Vector_implD2Ev, @function
_ZNSt12_Vector_baseIcSaIcEE12_Vector_implD2Ev:
.LFB10872:
	.cfi_startproc
	endbr64
	push	rbp
	.cfi_def_cfa_offset 16
	.cfi_offset 6, -16
	mov	rbp, rsp
	.cfi_def_cfa_register 6
	sub	rsp, 16
	mov	QWORD PTR -8[rbp], rdi
	mov	rax, QWORD PTR -8[rbp]
	mov	rdi, rax
	call	_ZNSaIcED2Ev@PLT
	nop
	leave
	.cfi_def_cfa 7, 8
	ret
	.cfi_endproc
.LFE10872:
	.size	_ZNSt12_Vector_baseIcSaIcEE12_Vector_implD2Ev, .-_ZNSt12_Vector_baseIcSaIcEE12_Vector_implD2Ev
	.weak	_ZNSt12_Vector_baseIcSaIcEE12_Vector_implD1Ev
	.set	_ZNSt12_Vector_baseIcSaIcEE12_Vector_implD1Ev,_ZNSt12_Vector_baseIcSaIcEE12_Vector_implD2Ev
	.section	.text._ZNSt12_Vector_baseIcSaIcEEC2EmRKS0_,"axG",@progbits,_ZNSt12_Vector_baseIcSaIcEEC5EmRKS0_,comdat
	.align 2
	.weak	_ZNSt12_Vector_baseIcSaIcEEC2EmRKS0_
	.type	_ZNSt12_Vector_baseIcSaIcEEC2EmRKS0_, @function
_ZNSt12_Vector_baseIcSaIcEEC2EmRKS0_:
.LFB10874:
	.cfi_startproc
	.cfi_personality 0x9b,DW.ref.__gxx_personality_v0
	.cfi_lsda 0x1b,.LLSDA10874
	endbr64
	push	rbp
	.cfi_def_cfa_offset 16
	.cfi_offset 6, -16
	mov	rbp, rsp
	.cfi_def_cfa_register 6
	push	rbx
	sub	rsp, 40
	.cfi_offset 3, -24
	mov	QWORD PTR -24[rbp], rdi
	mov	QWORD PTR -32[rbp], rsi
	mov	QWORD PTR -40[rbp], rdx
	mov	rax, QWORD PTR -24[rbp]
	mov	rdx, QWORD PTR -40[rbp]
	mov	rsi, rdx
	mov	rdi, rax
	call	_ZNSt12_Vector_baseIcSaIcEE12_Vector_implC1ERKS0_
	mov	rdx, QWORD PTR -32[rbp]
	mov	rax, QWORD PTR -24[rbp]
	mov	rsi, rdx
	mov	rdi, rax
.LEHB10:
	call	_ZNSt12_Vector_baseIcSaIcEE17_M_create_storageEm
.LEHE10:
	jmp	.L149
.L148:
	endbr64
	mov	rbx, rax
	mov	rax, QWORD PTR -24[rbp]
	mov	rdi, rax
	call	_ZNSt12_Vector_baseIcSaIcEE12_Vector_implD1Ev
	mov	rax, rbx
	mov	rdi, rax
.LEHB11:
	call	_Unwind_Resume@PLT
.LEHE11:
.L149:
	mov	rbx, QWORD PTR -8[rbp]
	leave
	.cfi_def_cfa 7, 8
	ret
	.cfi_endproc
.LFE10874:
	.section	.gcc_except_table
.LLSDA10874:
	.byte	0xff
	.byte	0xff
	.byte	0x1
	.uleb128 .LLSDACSE10874-.LLSDACSB10874
.LLSDACSB10874:
	.uleb128 .LEHB10-.LFB10874
	.uleb128 .LEHE10-.LEHB10
	.uleb128 .L148-.LFB10874
	.uleb128 0
	.uleb128 .LEHB11-.LFB10874
	.uleb128 .LEHE11-.LEHB11
	.uleb128 0
	.uleb128 0
.LLSDACSE10874:
	.section	.text._ZNSt12_Vector_baseIcSaIcEEC2EmRKS0_,"axG",@progbits,_ZNSt12_Vector_baseIcSaIcEEC5EmRKS0_,comdat
	.size	_ZNSt12_Vector_baseIcSaIcEEC2EmRKS0_, .-_ZNSt12_Vector_baseIcSaIcEEC2EmRKS0_
	.weak	_ZNSt12_Vector_baseIcSaIcEEC1EmRKS0_
	.set	_ZNSt12_Vector_baseIcSaIcEEC1EmRKS0_,_ZNSt12_Vector_baseIcSaIcEEC2EmRKS0_
	.section	.text._ZNSt12_Vector_baseIcSaIcEED2Ev,"axG",@progbits,_ZNSt12_Vector_baseIcSaIcEED5Ev,comdat
	.align 2
	.weak	_ZNSt12_Vector_baseIcSaIcEED2Ev
	.type	_ZNSt12_Vector_baseIcSaIcEED2Ev, @function
_ZNSt12_Vector_baseIcSaIcEED2Ev:
.LFB10877:
	.cfi_startproc
	.cfi_personality 0x9b,DW.ref.__gxx_personality_v0
	.cfi_lsda 0x1b,.LLSDA10877
	endbr64
	push	rbp
	.cfi_def_cfa_offset 16
	.cfi_offset 6, -16
	mov	rbp, rsp
	.cfi_def_cfa_register 6
	sub	rsp, 16
	mov	QWORD PTR -8[rbp], rdi
	mov	rax, QWORD PTR -8[rbp]
	mov	rdx, QWORD PTR 16[rax]
	mov	rax, QWORD PTR -8[rbp]
	mov	rcx, QWORD PTR [rax]
	mov	rax, rdx
	sub	rax, rcx
	mov	rdx, rax
	mov	rax, QWORD PTR -8[rbp]
	mov	rcx, QWORD PTR [rax]
	mov	rax, QWORD PTR -8[rbp]
	mov	rsi, rcx
	mov	rdi, rax
	call	_ZNSt12_Vector_baseIcSaIcEE13_M_deallocateEPcm
	mov	rax, QWORD PTR -8[rbp]
	mov	rdi, rax
	call	_ZNSt12_Vector_baseIcSaIcEE12_Vector_implD1Ev
	nop
	leave
	.cfi_def_cfa 7, 8
	ret
	.cfi_endproc
.LFE10877:
	.section	.gcc_except_table
.LLSDA10877:
	.byte	0xff
	.byte	0xff
	.byte	0x1
	.uleb128 .LLSDACSE10877-.LLSDACSB10877
.LLSDACSB10877:
.LLSDACSE10877:
	.section	.text._ZNSt12_Vector_baseIcSaIcEED2Ev,"axG",@progbits,_ZNSt12_Vector_baseIcSaIcEED5Ev,comdat
	.size	_ZNSt12_Vector_baseIcSaIcEED2Ev, .-_ZNSt12_Vector_baseIcSaIcEED2Ev
	.weak	_ZNSt12_Vector_baseIcSaIcEED1Ev
	.set	_ZNSt12_Vector_baseIcSaIcEED1Ev,_ZNSt12_Vector_baseIcSaIcEED2Ev
	.section	.text._ZNSt6vectorIcSaIcEE21_M_default_initializeEm,"axG",@progbits,_ZNSt6vectorIcSaIcEE21_M_default_initializeEm,comdat
	.align 2
	.weak	_ZNSt6vectorIcSaIcEE21_M_default_initializeEm
	.type	_ZNSt6vectorIcSaIcEE21_M_default_initializeEm, @function
_ZNSt6vectorIcSaIcEE21_M_default_initializeEm:
.LFB10879:
	.cfi_startproc
	endbr64
	push	rbp
	.cfi_def_cfa_offset 16
	.cfi_offset 6, -16
	mov	rbp, rsp
	.cfi_def_cfa_register 6
	sub	rsp, 16
	mov	QWORD PTR -8[rbp], rdi
	mov	QWORD PTR -16[rbp], rsi
	mov	rax, QWORD PTR -8[rbp]
	mov	rdi, rax
	call	_ZNSt12_Vector_baseIcSaIcEE19_M_get_Tp_allocatorEv
	mov	rdx, rax
	mov	rax, QWORD PTR -8[rbp]
	mov	rax, QWORD PTR [rax]
	mov	rcx, QWORD PTR -16[rbp]
	mov	rsi, rcx
	mov	rdi, rax
	call	_ZSt27__uninitialized_default_n_aIPcmcET_S1_T0_RSaIT1_E
	mov	rdx, QWORD PTR -8[rbp]
	mov	QWORD PTR 8[rdx], rax
	nop
	leave
	.cfi_def_cfa 7, 8
	ret
	.cfi_endproc
.LFE10879:
	.size	_ZNSt6vectorIcSaIcEE21_M_default_initializeEm, .-_ZNSt6vectorIcSaIcEE21_M_default_initializeEm
	.section	.text._ZNSt12_Vector_baseIcSaIcEE19_M_get_Tp_allocatorEv,"axG",@progbits,_ZNSt12_Vector_baseIcSaIcEE19_M_get_Tp_allocatorEv,comdat
	.align 2
	.weak	_ZNSt12_Vector_baseIcSaIcEE19_M_get_Tp_allocatorEv
	.type	_ZNSt12_Vector_baseIcSaIcEE19_M_get_Tp_allocatorEv, @function
_ZNSt12_Vector_baseIcSaIcEE19_M_get_Tp_allocatorEv:
.LFB10880:
	.cfi_startproc
	endbr64
	push	rbp
	.cfi_def_cfa_offset 16
	.cfi_offset 6, -16
	mov	rbp, rsp
	.cfi_def_cfa_register 6
	mov	QWORD PTR -8[rbp], rdi
	mov	rax, QWORD PTR -8[rbp]
	pop	rbp
	.cfi_def_cfa 7, 8
	ret
	.cfi_endproc
.LFE10880:
	.size	_ZNSt12_Vector_baseIcSaIcEE19_M_get_Tp_allocatorEv, .-_ZNSt12_Vector_baseIcSaIcEE19_M_get_Tp_allocatorEv
	.section	.text._ZSt8_DestroyIPccEvT_S1_RSaIT0_E,"axG",@progbits,_ZSt8_DestroyIPccEvT_S1_RSaIT0_E,comdat
	.weak	_ZSt8_DestroyIPccEvT_S1_RSaIT0_E
	.type	_ZSt8_DestroyIPccEvT_S1_RSaIT0_E, @function
_ZSt8_DestroyIPccEvT_S1_RSaIT0_E:
.LFB10881:
	.cfi_startproc
	endbr64
	push	rbp
	.cfi_def_cfa_offset 16
	.cfi_offset 6, -16
	mov	rbp, rsp
	.cfi_def_cfa_register 6
	sub	rsp, 32
	mov	QWORD PTR -8[rbp], rdi
	mov	QWORD PTR -16[rbp], rsi
	mov	QWORD PTR -24[rbp], rdx
	mov	rdx, QWORD PTR -16[rbp]
	mov	rax, QWORD PTR -8[rbp]
	mov	rsi, rdx
	mov	rdi, rax
	call	_ZSt8_DestroyIPcEvT_S1_
	nop
	leave
	.cfi_def_cfa 7, 8
	ret
	.cfi_endproc
.LFE10881:
	.size	_ZSt8_DestroyIPccEvT_S1_RSaIT0_E, .-_ZSt8_DestroyIPccEvT_S1_RSaIT0_E
	.section	.text._ZNKSt6vectorIS_IcSaIcEESaIS1_EE4sizeEv,"axG",@progbits,_ZNKSt6vectorIS_IcSaIcEESaIS1_EE4sizeEv,comdat
	.align 2
	.weak	_ZNKSt6vectorIS_IcSaIcEESaIS1_EE4sizeEv
	.type	_ZNKSt6vectorIS_IcSaIcEESaIS1_EE4sizeEv, @function
_ZNKSt6vectorIS_IcSaIcEESaIS1_EE4sizeEv:
.LFB10882:
	.cfi_startproc
	endbr64
	push	rbp
	.cfi_def_cfa_offset 16
	.cfi_offset 6, -16
	mov	rbp, rsp
	.cfi_def_cfa_register 6
	mov	QWORD PTR -8[rbp], rdi
	mov	rax, QWORD PTR -8[rbp]
	mov	rdx, QWORD PTR 8[rax]
	mov	rax, QWORD PTR -8[rbp]
	mov	rcx, QWORD PTR [rax]
	mov	rax, rdx
	sub	rax, rcx
	sar	rax, 3
	mov	rdx, rax
	movabs	rax, -6148914691236517205
	imul	rax, rdx
	pop	rbp
	.cfi_def_cfa 7, 8
	ret
	.cfi_endproc
.LFE10882:
	.size	_ZNKSt6vectorIS_IcSaIcEESaIS1_EE4sizeEv, .-_ZNKSt6vectorIS_IcSaIcEESaIS1_EE4sizeEv
	.section	.rodata
.LC5:
	.string	"vector::_M_fill_insert"
	.section	.text._ZNSt6vectorIS_IcSaIcEESaIS1_EE14_M_fill_insertEN9__gnu_cxx17__normal_iteratorIPS1_S3_EEmRKS1_,"axG",@progbits,_ZNSt6vectorIS_IcSaIcEESaIS1_EE14_M_fill_insertEN9__gnu_cxx17__normal_iteratorIPS1_S3_EEmRKS1_,comdat
	.align 2
	.weak	_ZNSt6vectorIS_IcSaIcEESaIS1_EE14_M_fill_insertEN9__gnu_cxx17__normal_iteratorIPS1_S3_EEmRKS1_
	.type	_ZNSt6vectorIS_IcSaIcEESaIS1_EE14_M_fill_insertEN9__gnu_cxx17__normal_iteratorIPS1_S3_EEmRKS1_, @function
_ZNSt6vectorIS_IcSaIcEESaIS1_EE14_M_fill_insertEN9__gnu_cxx17__normal_iteratorIPS1_S3_EEmRKS1_:
.LFB10883:
	.cfi_startproc
	.cfi_personality 0x9b,DW.ref.__gxx_personality_v0
	.cfi_lsda 0x1b,.LLSDA10883
	endbr64
	push	rbp
	.cfi_def_cfa_offset 16
	.cfi_offset 6, -16
	mov	rbp, rsp
	.cfi_def_cfa_register 6
	push	r12
	push	rbx
	sub	rsp, 144
	.cfi_offset 12, -24
	.cfi_offset 3, -32
	mov	QWORD PTR -136[rbp], rdi
	mov	QWORD PTR -144[rbp], rsi
	mov	QWORD PTR -152[rbp], rdx
	mov	QWORD PTR -160[rbp], rcx
	mov	rax, QWORD PTR fs:40
	mov	QWORD PTR -24[rbp], rax
	xor	eax, eax
	cmp	QWORD PTR -152[rbp], 0
	je	.L171
	mov	rax, QWORD PTR -136[rbp]
	mov	rdx, QWORD PTR 16[rax]
	mov	rax, QWORD PTR -136[rbp]
	mov	rcx, QWORD PTR 8[rax]
	mov	rax, rdx
	sub	rax, rcx
	sar	rax, 3
	mov	rdx, rax
	movabs	rax, -6148914691236517205
	imul	rax, rdx
	cmp	QWORD PTR -152[rbp], rax
	ja	.L159
	mov	rdx, QWORD PTR -160[rbp]
	mov	rcx, QWORD PTR -136[rbp]
	lea	rax, -64[rbp]
	mov	rsi, rcx
	mov	rdi, rax
.LEHB12:
	call	_ZNSt6vectorIS_IcSaIcEESaIS1_EE16_Temporary_valueC1IJRKS1_EEEPS3_DpOT_
.LEHE12:
	lea	rax, -64[rbp]
	mov	rdi, rax
.LEHB13:
	call	_ZNSt6vectorIS_IcSaIcEESaIS1_EE16_Temporary_value6_M_valEv
	mov	QWORD PTR -88[rbp], rax
	mov	rax, QWORD PTR -136[rbp]
	mov	rdi, rax
	call	_ZNSt6vectorIS_IcSaIcEESaIS1_EE3endEv
	mov	QWORD PTR -128[rbp], rax
	lea	rdx, -144[rbp]
	lea	rax, -128[rbp]
	mov	rsi, rdx
	mov	rdi, rax
	call	_ZN9__gnu_cxxmiIPSt6vectorIcSaIcEES1_IS3_SaIS3_EEEENS_17__normal_iteratorIT_T0_E15difference_typeERKSA_SD_
	mov	QWORD PTR -80[rbp], rax
	mov	rax, QWORD PTR -136[rbp]
	mov	rax, QWORD PTR 8[rax]
	mov	QWORD PTR -72[rbp], rax
	mov	rax, QWORD PTR -80[rbp]
	cmp	rax, QWORD PTR -152[rbp]
	jbe	.L160
	mov	rax, QWORD PTR -136[rbp]
	mov	rdi, rax
	call	_ZNSt12_Vector_baseISt6vectorIcSaIcEESaIS2_EE19_M_get_Tp_allocatorEv
	mov	rdi, rax
	mov	rax, QWORD PTR -136[rbp]
	mov	rdx, QWORD PTR 8[rax]
	mov	rax, QWORD PTR -136[rbp]
	mov	rsi, QWORD PTR 8[rax]
	mov	rax, QWORD PTR -136[rbp]
	mov	r8, QWORD PTR 8[rax]
	mov	rcx, QWORD PTR -152[rbp]
	mov	rax, rcx
	add	rax, rax
	add	rax, rcx
	sal	rax, 3
	neg	rax
	add	rax, r8
	mov	rcx, rdi
	mov	rdi, rax
	call	_ZSt22__uninitialized_move_aIPSt6vectorIcSaIcEES3_SaIS2_EET0_T_S6_S5_RT1_
	mov	rax, QWORD PTR -136[rbp]
	mov	rcx, QWORD PTR 8[rax]
	mov	rdx, QWORD PTR -152[rbp]
	mov	rax, rdx
	add	rax, rax
	add	rax, rdx
	sal	rax, 3
	lea	rdx, [rcx+rax]
	mov	rax, QWORD PTR -136[rbp]
	mov	QWORD PTR 8[rax], rdx
	mov	rdx, QWORD PTR -152[rbp]
	mov	rax, rdx
	add	rax, rax
	add	rax, rdx
	sal	rax, 3
	neg	rax
	mov	rdx, rax
	mov	rax, QWORD PTR -72[rbp]
	lea	rbx, [rdx+rax]
	lea	rax, -144[rbp]
	mov	rdi, rax
	call	_ZNK9__gnu_cxx17__normal_iteratorIPSt6vectorIcSaIcEES1_IS3_SaIS3_EEE4baseEv
	mov	rax, QWORD PTR [rax]
	mov	rdx, QWORD PTR -72[rbp]
	mov	rsi, rbx
	mov	rdi, rax
	call	_ZSt13move_backwardIPSt6vectorIcSaIcEES3_ET0_T_S5_S4_
	lea	rax, -144[rbp]
	mov	rdi, rax
	call	_ZNK9__gnu_cxx17__normal_iteratorIPSt6vectorIcSaIcEES1_IS3_SaIS3_EEE4baseEv
	mov	rcx, QWORD PTR [rax]
	mov	rdx, QWORD PTR -152[rbp]
	mov	rax, rdx
	add	rax, rax
	add	rax, rdx
	sal	rax, 3
	lea	rbx, [rcx+rax]
	lea	rax, -144[rbp]
	mov	rdi, rax
	call	_ZNK9__gnu_cxx17__normal_iteratorIPSt6vectorIcSaIcEES1_IS3_SaIS3_EEE4baseEv
	mov	rax, QWORD PTR [rax]
	mov	rdx, QWORD PTR -88[rbp]
	mov	rsi, rbx
	mov	rdi, rax
	call	_ZSt4fillIPSt6vectorIcSaIcEES2_EvT_S4_RKT0_
	jmp	.L161
.L160:
	mov	rax, QWORD PTR -136[rbp]
	mov	rdi, rax
	call	_ZNSt12_Vector_baseISt6vectorIcSaIcEESaIS2_EE19_M_get_Tp_allocatorEv
	mov	rcx, rax
	mov	rax, QWORD PTR -152[rbp]
	sub	rax, QWORD PTR -80[rbp]
	mov	rsi, rax
	mov	rax, QWORD PTR -136[rbp]
	mov	rax, QWORD PTR 8[rax]
	mov	rdx, QWORD PTR -88[rbp]
	mov	rdi, rax
	call	_ZSt24__uninitialized_fill_n_aIPSt6vectorIcSaIcEEmS2_S2_ET_S4_T0_RKT1_RSaIT2_E
	mov	rdx, QWORD PTR -136[rbp]
	mov	QWORD PTR 8[rdx], rax
	mov	rax, QWORD PTR -136[rbp]
	mov	rdi, rax
	call	_ZNSt12_Vector_baseISt6vectorIcSaIcEESaIS2_EE19_M_get_Tp_allocatorEv
	mov	r12, rax
	mov	rax, QWORD PTR -136[rbp]
	mov	rbx, QWORD PTR 8[rax]
	lea	rax, -144[rbp]
	mov	rdi, rax
	call	_ZNK9__gnu_cxx17__normal_iteratorIPSt6vectorIcSaIcEES1_IS3_SaIS3_EEE4baseEv
	mov	rax, QWORD PTR [rax]
	mov	rsi, QWORD PTR -72[rbp]
	mov	rcx, r12
	mov	rdx, rbx
	mov	rdi, rax
	call	_ZSt22__uninitialized_move_aIPSt6vectorIcSaIcEES3_SaIS2_EET0_T_S6_S5_RT1_
	mov	rax, QWORD PTR -136[rbp]
	mov	rcx, QWORD PTR 8[rax]
	mov	rdx, QWORD PTR -80[rbp]
	mov	rax, rdx
	add	rax, rax
	add	rax, rdx
	sal	rax, 3
	lea	rdx, [rcx+rax]
	mov	rax, QWORD PTR -136[rbp]
	mov	QWORD PTR 8[rax], rdx
	lea	rax, -144[rbp]
	mov	rdi, rax
	call	_ZNK9__gnu_cxx17__normal_iteratorIPSt6vectorIcSaIcEES1_IS3_SaIS3_EEE4baseEv
	mov	rax, QWORD PTR [rax]
	mov	rdx, QWORD PTR -88[rbp]
	mov	rcx, QWORD PTR -72[rbp]
	mov	rsi, rcx
	mov	rdi, rax
	call	_ZSt4fillIPSt6vectorIcSaIcEES2_EvT_S4_RKT0_
.LEHE13:
.L161:
	lea	rax, -64[rbp]
	mov	rdi, rax
	call	_ZNSt6vectorIS_IcSaIcEESaIS1_EE16_Temporary_valueD1Ev
	jmp	.L171
.L159:
	mov	rcx, QWORD PTR -152[rbp]
	mov	rax, QWORD PTR -136[rbp]
	lea	rdx, .LC5[rip]
	mov	rsi, rcx
	mov	rdi, rax
.LEHB14:
	call	_ZNKSt6vectorIS_IcSaIcEESaIS1_EE12_M_check_lenEmPKc
	mov	QWORD PTR -112[rbp], rax
	mov	rax, QWORD PTR -136[rbp]
	mov	rdi, rax
	call	_ZNSt6vectorIS_IcSaIcEESaIS1_EE5beginEv
	mov	QWORD PTR -128[rbp], rax
	lea	rdx, -128[rbp]
	lea	rax, -144[rbp]
	mov	rsi, rdx
	mov	rdi, rax
	call	_ZN9__gnu_cxxmiIPSt6vectorIcSaIcEES1_IS3_SaIS3_EEEENS_17__normal_iteratorIT_T0_E15difference_typeERKSA_SD_
	mov	QWORD PTR -104[rbp], rax
	mov	rax, QWORD PTR -136[rbp]
	mov	rdx, QWORD PTR -112[rbp]
	mov	rsi, rdx
	mov	rdi, rax
	call	_ZNSt12_Vector_baseISt6vectorIcSaIcEESaIS2_EE11_M_allocateEm
.LEHE14:
	mov	QWORD PTR -96[rbp], rax
	mov	rax, QWORD PTR -96[rbp]
	mov	QWORD PTR -120[rbp], rax
	mov	rax, QWORD PTR -136[rbp]
	mov	rdi, rax
	call	_ZNSt12_Vector_baseISt6vectorIcSaIcEESaIS2_EE19_M_get_Tp_allocatorEv
	mov	rcx, rax
	mov	rdx, QWORD PTR -104[rbp]
	mov	rax, rdx
	add	rax, rax
	add	rax, rdx
	sal	rax, 3
	mov	rdx, rax
	mov	rax, QWORD PTR -96[rbp]
	lea	rdi, [rdx+rax]
	mov	rdx, QWORD PTR -160[rbp]
	mov	rax, QWORD PTR -152[rbp]
	mov	rsi, rax
.LEHB15:
	call	_ZSt24__uninitialized_fill_n_aIPSt6vectorIcSaIcEEmS2_S2_ET_S4_T0_RKT1_RSaIT2_E
	mov	QWORD PTR -120[rbp], 0
	mov	rax, QWORD PTR -136[rbp]
	mov	rdi, rax
	call	_ZNSt12_Vector_baseISt6vectorIcSaIcEESaIS2_EE19_M_get_Tp_allocatorEv
	mov	rbx, rax
	lea	rax, -144[rbp]
	mov	rdi, rax
	call	_ZNK9__gnu_cxx17__normal_iteratorIPSt6vectorIcSaIcEES1_IS3_SaIS3_EEE4baseEv
	mov	rsi, QWORD PTR [rax]
	mov	rax, QWORD PTR -136[rbp]
	mov	rax, QWORD PTR [rax]
	mov	rdx, QWORD PTR -96[rbp]
	mov	rcx, rbx
	mov	rdi, rax
	call	_ZSt34__uninitialized_move_if_noexcept_aIPSt6vectorIcSaIcEES3_SaIS2_EET0_T_S6_S5_RT1_
	mov	QWORD PTR -120[rbp], rax
	mov	rdx, QWORD PTR -152[rbp]
	mov	rax, rdx
	add	rax, rax
	add	rax, rdx
	sal	rax, 3
	add	QWORD PTR -120[rbp], rax
	mov	rax, QWORD PTR -136[rbp]
	mov	rdi, rax
	call	_ZNSt12_Vector_baseISt6vectorIcSaIcEESaIS2_EE19_M_get_Tp_allocatorEv
	mov	r12, rax
	mov	rax, QWORD PTR -136[rbp]
	mov	rbx, QWORD PTR 8[rax]
	lea	rax, -144[rbp]
	mov	rdi, rax
	call	_ZNK9__gnu_cxx17__normal_iteratorIPSt6vectorIcSaIcEES1_IS3_SaIS3_EEE4baseEv
	mov	rax, QWORD PTR [rax]
	mov	rdx, QWORD PTR -120[rbp]
	mov	rcx, r12
	mov	rsi, rbx
	mov	rdi, rax
	call	_ZSt34__uninitialized_move_if_noexcept_aIPSt6vectorIcSaIcEES3_SaIS2_EET0_T_S6_S5_RT1_
.LEHE15:
	mov	QWORD PTR -120[rbp], rax
	mov	rax, QWORD PTR -136[rbp]
	mov	rdi, rax
	call	_ZNSt12_Vector_baseISt6vectorIcSaIcEESaIS2_EE19_M_get_Tp_allocatorEv
	mov	rdx, rax
	mov	rax, QWORD PTR -136[rbp]
	mov	rcx, QWORD PTR 8[rax]
	mov	rax, QWORD PTR -136[rbp]
	mov	rax, QWORD PTR [rax]
	mov	rsi, rcx
	mov	rdi, rax
.LEHB16:
	call	_ZSt8_DestroyIPSt6vectorIcSaIcEES2_EvT_S4_RSaIT0_E
	mov	rax, QWORD PTR -136[rbp]
	mov	rdx, QWORD PTR -136[rbp]
	mov	rcx, QWORD PTR 16[rdx]
	mov	rdx, QWORD PTR -136[rbp]
	mov	rsi, QWORD PTR [rdx]
	sub	rcx, rsi
	mov	rdx, rcx
	mov	rcx, rdx
	sar	rcx, 3
	movabs	rdx, -6148914691236517205
	imul	rdx, rcx
	mov	rsi, rdx
	mov	rdx, QWORD PTR -136[rbp]
	mov	rcx, QWORD PTR [rdx]
	mov	rdx, rsi
	mov	rsi, rcx
	mov	rdi, rax
	call	_ZNSt12_Vector_baseISt6vectorIcSaIcEESaIS2_EE13_M_deallocateEPS2_m
	mov	rax, QWORD PTR -136[rbp]
	mov	rdx, QWORD PTR -96[rbp]
	mov	QWORD PTR [rax], rdx
	mov	rax, QWORD PTR -136[rbp]
	mov	rdx, QWORD PTR -120[rbp]
	mov	QWORD PTR 8[rax], rdx
	mov	rdx, QWORD PTR -112[rbp]
	mov	rax, rdx
	add	rax, rax
	add	rax, rdx
	sal	rax, 3
	mov	rdx, rax
	mov	rax, QWORD PTR -96[rbp]
	add	rdx, rax
	mov	rax, QWORD PTR -136[rbp]
	mov	QWORD PTR 16[rax], rdx
	jmp	.L171
.L168:
	endbr64
	mov	rbx, rax
	lea	rax, -64[rbp]
	mov	rdi, rax
	call	_ZNSt6vectorIS_IcSaIcEESaIS1_EE16_Temporary_valueD1Ev
	mov	rax, rbx
	mov	rdi, rax
	call	_Unwind_Resume@PLT
.LEHE16:
.L169:
	endbr64
	mov	rdi, rax
	call	__cxa_begin_catch@PLT
	cmp	QWORD PTR -120[rbp], 0
	jne	.L164
	mov	rax, QWORD PTR -136[rbp]
	mov	rdi, rax
	call	_ZNSt12_Vector_baseISt6vectorIcSaIcEESaIS2_EE19_M_get_Tp_allocatorEv
	mov	rsi, rax
	mov	rdx, QWORD PTR -104[rbp]
	mov	rax, QWORD PTR -152[rbp]
	add	rdx, rax
	mov	rax, rdx
	add	rax, rax
	add	rax, rdx
	sal	rax, 3
	mov	rdx, rax
	mov	rax, QWORD PTR -96[rbp]
	lea	rcx, [rdx+rax]
	mov	rdx, QWORD PTR -104[rbp]
	mov	rax, rdx
	add	rax, rax
	add	rax, rdx
	sal	rax, 3
	mov	rdx, rax
	mov	rax, QWORD PTR -96[rbp]
	add	rax, rdx
	mov	rdx, rsi
	mov	rsi, rcx
	mov	rdi, rax
.LEHB17:
	call	_ZSt8_DestroyIPSt6vectorIcSaIcEES2_EvT_S4_RSaIT0_E
	jmp	.L165
.L164:
	mov	rax, QWORD PTR -136[rbp]
	mov	rdi, rax
	call	_ZNSt12_Vector_baseISt6vectorIcSaIcEESaIS2_EE19_M_get_Tp_allocatorEv
	mov	rdx, rax
	mov	rcx, QWORD PTR -120[rbp]
	mov	rax, QWORD PTR -96[rbp]
	mov	rsi, rcx
	mov	rdi, rax
	call	_ZSt8_DestroyIPSt6vectorIcSaIcEES2_EvT_S4_RSaIT0_E
.L165:
	mov	rax, QWORD PTR -136[rbp]
	mov	rdx, QWORD PTR -112[rbp]
	mov	rcx, QWORD PTR -96[rbp]
	mov	rsi, rcx
	mov	rdi, rax
	call	_ZNSt12_Vector_baseISt6vectorIcSaIcEESaIS2_EE13_M_deallocateEPS2_m
	call	__cxa_rethrow@PLT
.LEHE17:
.L170:
	endbr64
	mov	rbx, rax
	call	__cxa_end_catch@PLT
	mov	rax, rbx
	mov	rdi, rax
.LEHB18:
	call	_Unwind_Resume@PLT
.LEHE18:
.L171:
	nop
	mov	rax, QWORD PTR -24[rbp]
	sub	rax, QWORD PTR fs:40
	je	.L167
	call	__stack_chk_fail@PLT
.L167:
	add	rsp, 144
	pop	rbx
	pop	r12
	pop	rbp
	.cfi_def_cfa 7, 8
	ret
	.cfi_endproc
.LFE10883:
	.section	.gcc_except_table
	.align 4
.LLSDA10883:
	.byte	0xff
	.byte	0x9b
	.uleb128 .LLSDATT10883-.LLSDATTD10883
.LLSDATTD10883:
	.byte	0x1
	.uleb128 .LLSDACSE10883-.LLSDACSB10883
.LLSDACSB10883:
	.uleb128 .LEHB12-.LFB10883
	.uleb128 .LEHE12-.LEHB12
	.uleb128 0
	.uleb128 0
	.uleb128 .LEHB13-.LFB10883
	.uleb128 .LEHE13-.LEHB13
	.uleb128 .L168-.LFB10883
	.uleb128 0
	.uleb128 .LEHB14-.LFB10883
	.uleb128 .LEHE14-.LEHB14
	.uleb128 0
	.uleb128 0
	.uleb128 .LEHB15-.LFB10883
	.uleb128 .LEHE15-.LEHB15
	.uleb128 .L169-.LFB10883
	.uleb128 0x1
	.uleb128 .LEHB16-.LFB10883
	.uleb128 .LEHE16-.LEHB16
	.uleb128 0
	.uleb128 0
	.uleb128 .LEHB17-.LFB10883
	.uleb128 .LEHE17-.LEHB17
	.uleb128 .L170-.LFB10883
	.uleb128 0
	.uleb128 .LEHB18-.LFB10883
	.uleb128 .LEHE18-.LEHB18
	.uleb128 0
	.uleb128 0
.LLSDACSE10883:
	.byte	0x1
	.byte	0
	.align 4
	.long	0

.LLSDATT10883:
	.section	.text._ZNSt6vectorIS_IcSaIcEESaIS1_EE14_M_fill_insertEN9__gnu_cxx17__normal_iteratorIPS1_S3_EEmRKS1_,"axG",@progbits,_ZNSt6vectorIS_IcSaIcEESaIS1_EE14_M_fill_insertEN9__gnu_cxx17__normal_iteratorIPS1_S3_EEmRKS1_,comdat
	.size	_ZNSt6vectorIS_IcSaIcEESaIS1_EE14_M_fill_insertEN9__gnu_cxx17__normal_iteratorIPS1_S3_EEmRKS1_, .-_ZNSt6vectorIS_IcSaIcEESaIS1_EE14_M_fill_insertEN9__gnu_cxx17__normal_iteratorIPS1_S3_EEmRKS1_
	.section	.text._ZNSt6vectorIS_IcSaIcEESaIS1_EE3endEv,"axG",@progbits,_ZNSt6vectorIS_IcSaIcEESaIS1_EE3endEv,comdat
	.align 2
	.weak	_ZNSt6vectorIS_IcSaIcEESaIS1_EE3endEv
	.type	_ZNSt6vectorIS_IcSaIcEESaIS1_EE3endEv, @function
_ZNSt6vectorIS_IcSaIcEESaIS1_EE3endEv:
.LFB10884:
	.cfi_startproc
	endbr64
	push	rbp
	.cfi_def_cfa_offset 16
	.cfi_offset 6, -16
	mov	rbp, rsp
	.cfi_def_cfa_register 6
	sub	rsp, 32
	mov	QWORD PTR -24[rbp], rdi
	mov	rax, QWORD PTR fs:40
	mov	QWORD PTR -8[rbp], rax
	xor	eax, eax
	mov	rax, QWORD PTR -24[rbp]
	lea	rdx, 8[rax]
	lea	rax, -16[rbp]
	mov	rsi, rdx
	mov	rdi, rax
	call	_ZN9__gnu_cxx17__normal_iteratorIPSt6vectorIcSaIcEES1_IS3_SaIS3_EEEC1ERKS4_
	mov	rax, QWORD PTR -16[rbp]
	mov	rdx, QWORD PTR -8[rbp]
	sub	rdx, QWORD PTR fs:40
	je	.L174
	call	__stack_chk_fail@PLT
.L174:
	leave
	.cfi_def_cfa 7, 8
	ret
	.cfi_endproc
.LFE10884:
	.size	_ZNSt6vectorIS_IcSaIcEESaIS1_EE3endEv, .-_ZNSt6vectorIS_IcSaIcEESaIS1_EE3endEv
	.section	.text._ZNSt6vectorIS_IcSaIcEESaIS1_EE15_M_erase_at_endEPS1_,"axG",@progbits,_ZNSt6vectorIS_IcSaIcEESaIS1_EE15_M_erase_at_endEPS1_,comdat
	.align 2
	.weak	_ZNSt6vectorIS_IcSaIcEESaIS1_EE15_M_erase_at_endEPS1_
	.type	_ZNSt6vectorIS_IcSaIcEESaIS1_EE15_M_erase_at_endEPS1_, @function
_ZNSt6vectorIS_IcSaIcEESaIS1_EE15_M_erase_at_endEPS1_:
.LFB10885:
	.cfi_startproc
	.cfi_personality 0x9b,DW.ref.__gxx_personality_v0
	.cfi_lsda 0x1b,.LLSDA10885
	endbr64
	push	rbp
	.cfi_def_cfa_offset 16
	.cfi_offset 6, -16
	mov	rbp, rsp
	.cfi_def_cfa_register 6
	sub	rsp, 32
	mov	QWORD PTR -24[rbp], rdi
	mov	QWORD PTR -32[rbp], rsi
	mov	rax, QWORD PTR -24[rbp]
	mov	rax, QWORD PTR 8[rax]
	sub	rax, QWORD PTR -32[rbp]
	sar	rax, 3
	mov	rdx, rax
	movabs	rax, -6148914691236517205
	imul	rax, rdx
	mov	QWORD PTR -8[rbp], rax
	cmp	QWORD PTR -8[rbp], 0
	je	.L177
	mov	rax, QWORD PTR -24[rbp]
	mov	rdi, rax
	call	_ZNSt12_Vector_baseISt6vectorIcSaIcEESaIS2_EE19_M_get_Tp_allocatorEv
	mov	rdx, rax
	mov	rax, QWORD PTR -24[rbp]
	mov	rcx, QWORD PTR 8[rax]
	mov	rax, QWORD PTR -32[rbp]
	mov	rsi, rcx
	mov	rdi, rax
	call	_ZSt8_DestroyIPSt6vectorIcSaIcEES2_EvT_S4_RSaIT0_E
	mov	rax, QWORD PTR -24[rbp]
	mov	rdx, QWORD PTR -32[rbp]
	mov	QWORD PTR 8[rax], rdx
.L177:
	nop
	leave
	.cfi_def_cfa 7, 8
	ret
	.cfi_endproc
.LFE10885:
	.section	.gcc_except_table
.LLSDA10885:
	.byte	0xff
	.byte	0xff
	.byte	0x1
	.uleb128 .LLSDACSE10885-.LLSDACSB10885
.LLSDACSB10885:
.LLSDACSE10885:
	.section	.text._ZNSt6vectorIS_IcSaIcEESaIS1_EE15_M_erase_at_endEPS1_,"axG",@progbits,_ZNSt6vectorIS_IcSaIcEESaIS1_EE15_M_erase_at_endEPS1_,comdat
	.size	_ZNSt6vectorIS_IcSaIcEESaIS1_EE15_M_erase_at_endEPS1_, .-_ZNSt6vectorIS_IcSaIcEESaIS1_EE15_M_erase_at_endEPS1_
	.section	.text._ZN9__gnu_cxx13new_allocatorIbEC2Ev,"axG",@progbits,_ZN9__gnu_cxx13new_allocatorIbEC5Ev,comdat
	.align 2
	.weak	_ZN9__gnu_cxx13new_allocatorIbEC2Ev
	.type	_ZN9__gnu_cxx13new_allocatorIbEC2Ev, @function
_ZN9__gnu_cxx13new_allocatorIbEC2Ev:
.LFB10887:
	.cfi_startproc
	endbr64
	push	rbp
	.cfi_def_cfa_offset 16
	.cfi_offset 6, -16
	mov	rbp, rsp
	.cfi_def_cfa_register 6
	mov	QWORD PTR -8[rbp], rdi
	nop
	pop	rbp
	.cfi_def_cfa 7, 8
	ret
	.cfi_endproc
.LFE10887:
	.size	_ZN9__gnu_cxx13new_allocatorIbEC2Ev, .-_ZN9__gnu_cxx13new_allocatorIbEC2Ev
	.weak	_ZN9__gnu_cxx13new_allocatorIbEC1Ev
	.set	_ZN9__gnu_cxx13new_allocatorIbEC1Ev,_ZN9__gnu_cxx13new_allocatorIbEC2Ev
	.section	.text._ZN9__gnu_cxx13new_allocatorIbED2Ev,"axG",@progbits,_ZN9__gnu_cxx13new_allocatorIbED5Ev,comdat
	.align 2
	.weak	_ZN9__gnu_cxx13new_allocatorIbED2Ev
	.type	_ZN9__gnu_cxx13new_allocatorIbED2Ev, @function
_ZN9__gnu_cxx13new_allocatorIbED2Ev:
.LFB10890:
	.cfi_startproc
	endbr64
	push	rbp
	.cfi_def_cfa_offset 16
	.cfi_offset 6, -16
	mov	rbp, rsp
	.cfi_def_cfa_register 6
	mov	QWORD PTR -8[rbp], rdi
	nop
	pop	rbp
	.cfi_def_cfa 7, 8
	ret
	.cfi_endproc
.LFE10890:
	.size	_ZN9__gnu_cxx13new_allocatorIbED2Ev, .-_ZN9__gnu_cxx13new_allocatorIbED2Ev
	.weak	_ZN9__gnu_cxx13new_allocatorIbED1Ev
	.set	_ZN9__gnu_cxx13new_allocatorIbED1Ev,_ZN9__gnu_cxx13new_allocatorIbED2Ev
	.section	.text._ZNSt6vectorIbSaIbEEC2EmRKbRKS0_,"axG",@progbits,_ZNSt6vectorIbSaIbEEC5EmRKbRKS0_,comdat
	.align 2
	.weak	_ZNSt6vectorIbSaIbEEC2EmRKbRKS0_
	.type	_ZNSt6vectorIbSaIbEEC2EmRKbRKS0_, @function
_ZNSt6vectorIbSaIbEEC2EmRKbRKS0_:
.LFB10893:
	.cfi_startproc
	.cfi_personality 0x9b,DW.ref.__gxx_personality_v0
	.cfi_lsda 0x1b,.LLSDA10893
	endbr64
	push	rbp
	.cfi_def_cfa_offset 16
	.cfi_offset 6, -16
	mov	rbp, rsp
	.cfi_def_cfa_register 6
	push	rbx
	sub	rsp, 40
	.cfi_offset 3, -24
	mov	QWORD PTR -24[rbp], rdi
	mov	QWORD PTR -32[rbp], rsi
	mov	QWORD PTR -40[rbp], rdx
	mov	QWORD PTR -48[rbp], rcx
	mov	rax, QWORD PTR -24[rbp]
	mov	rdx, QWORD PTR -48[rbp]
	mov	rsi, rdx
	mov	rdi, rax
	call	_ZNSt13_Bvector_baseISaIbEEC2ERKS0_
	mov	rdx, QWORD PTR -32[rbp]
	mov	rax, QWORD PTR -24[rbp]
	mov	rsi, rdx
	mov	rdi, rax
.LEHB19:
	call	_ZNSt6vectorIbSaIbEE13_M_initializeEm
.LEHE19:
	mov	rax, QWORD PTR -40[rbp]
	movzx	eax, BYTE PTR [rax]
	movzx	edx, al
	mov	rax, QWORD PTR -24[rbp]
	mov	esi, edx
	mov	rdi, rax
	call	_ZNSt6vectorIbSaIbEE19_M_initialize_valueEb
	jmp	.L183
.L182:
	endbr64
	mov	rbx, rax
	mov	rax, QWORD PTR -24[rbp]
	mov	rdi, rax
	call	_ZNSt13_Bvector_baseISaIbEED2Ev
	mov	rax, rbx
	mov	rdi, rax
.LEHB20:
	call	_Unwind_Resume@PLT
.LEHE20:
.L183:
	mov	rbx, QWORD PTR -8[rbp]
	leave
	.cfi_def_cfa 7, 8
	ret
	.cfi_endproc
.LFE10893:
	.section	.gcc_except_table
.LLSDA10893:
	.byte	0xff
	.byte	0xff
	.byte	0x1
	.uleb128 .LLSDACSE10893-.LLSDACSB10893
.LLSDACSB10893:
	.uleb128 .LEHB19-.LFB10893
	.uleb128 .LEHE19-.LEHB19
	.uleb128 .L182-.LFB10893
	.uleb128 0
	.uleb128 .LEHB20-.LFB10893
	.uleb128 .LEHE20-.LEHB20
	.uleb128 0
	.uleb128 0
.LLSDACSE10893:
	.section	.text._ZNSt6vectorIbSaIbEEC2EmRKbRKS0_,"axG",@progbits,_ZNSt6vectorIbSaIbEEC5EmRKbRKS0_,comdat
	.size	_ZNSt6vectorIbSaIbEEC2EmRKbRKS0_, .-_ZNSt6vectorIbSaIbEEC2EmRKbRKS0_
	.weak	_ZNSt6vectorIbSaIbEEC1EmRKbRKS0_
	.set	_ZNSt6vectorIbSaIbEEC1EmRKbRKS0_,_ZNSt6vectorIbSaIbEEC2EmRKbRKS0_
	.section	.text._ZNSt13_Bvector_baseISaIbEE13_Bvector_implD2Ev,"axG",@progbits,_ZNSt13_Bvector_baseISaIbEE13_Bvector_implD5Ev,comdat
	.align 2
	.weak	_ZNSt13_Bvector_baseISaIbEE13_Bvector_implD2Ev
	.type	_ZNSt13_Bvector_baseISaIbEE13_Bvector_implD2Ev, @function
_ZNSt13_Bvector_baseISaIbEE13_Bvector_implD2Ev:
.LFB10897:
	.cfi_startproc
	endbr64
	push	rbp
	.cfi_def_cfa_offset 16
	.cfi_offset 6, -16
	mov	rbp, rsp
	.cfi_def_cfa_register 6
	sub	rsp, 16
	mov	QWORD PTR -8[rbp], rdi
	mov	rax, QWORD PTR -8[rbp]
	mov	rdi, rax
	call	_ZNSaImED2Ev
	nop
	leave
	.cfi_def_cfa 7, 8
	ret
	.cfi_endproc
.LFE10897:
	.size	_ZNSt13_Bvector_baseISaIbEE13_Bvector_implD2Ev, .-_ZNSt13_Bvector_baseISaIbEE13_Bvector_implD2Ev
	.weak	_ZNSt13_Bvector_baseISaIbEE13_Bvector_implD1Ev
	.set	_ZNSt13_Bvector_baseISaIbEE13_Bvector_implD1Ev,_ZNSt13_Bvector_baseISaIbEE13_Bvector_implD2Ev
	.section	.text._ZNSt13_Bvector_baseISaIbEED2Ev,"axG",@progbits,_ZNSt13_Bvector_baseISaIbEED5Ev,comdat
	.align 2
	.weak	_ZNSt13_Bvector_baseISaIbEED2Ev
	.type	_ZNSt13_Bvector_baseISaIbEED2Ev, @function
_ZNSt13_Bvector_baseISaIbEED2Ev:
.LFB10899:
	.cfi_startproc
	.cfi_personality 0x9b,DW.ref.__gxx_personality_v0
	.cfi_lsda 0x1b,.LLSDA10899
	endbr64
	push	rbp
	.cfi_def_cfa_offset 16
	.cfi_offset 6, -16
	mov	rbp, rsp
	.cfi_def_cfa_register 6
	sub	rsp, 16
	mov	QWORD PTR -8[rbp], rdi
	mov	rax, QWORD PTR -8[rbp]
	mov	rdi, rax
	call	_ZNSt13_Bvector_baseISaIbEE13_M_deallocateEv
	mov	rax, QWORD PTR -8[rbp]
	mov	rdi, rax
	call	_ZNSt13_Bvector_baseISaIbEE13_Bvector_implD1Ev
	nop
	leave
	.cfi_def_cfa 7, 8
	ret
	.cfi_endproc
.LFE10899:
	.section	.gcc_except_table
.LLSDA10899:
	.byte	0xff
	.byte	0xff
	.byte	0x1
	.uleb128 .LLSDACSE10899-.LLSDACSB10899
.LLSDACSB10899:
.LLSDACSE10899:
	.section	.text._ZNSt13_Bvector_baseISaIbEED2Ev,"axG",@progbits,_ZNSt13_Bvector_baseISaIbEED5Ev,comdat
	.size	_ZNSt13_Bvector_baseISaIbEED2Ev, .-_ZNSt13_Bvector_baseISaIbEED2Ev
	.weak	_ZNSt13_Bvector_baseISaIbEED1Ev
	.set	_ZNSt13_Bvector_baseISaIbEED1Ev,_ZNSt13_Bvector_baseISaIbEED2Ev
	.section	.text._ZNKSt6vectorIS_IbSaIbEESaIS1_EE4sizeEv,"axG",@progbits,_ZNKSt6vectorIS_IbSaIbEESaIS1_EE4sizeEv,comdat
	.align 2
	.weak	_ZNKSt6vectorIS_IbSaIbEESaIS1_EE4sizeEv
	.type	_ZNKSt6vectorIS_IbSaIbEESaIS1_EE4sizeEv, @function
_ZNKSt6vectorIS_IbSaIbEESaIS1_EE4sizeEv:
.LFB10901:
	.cfi_startproc
	endbr64
	push	rbp
	.cfi_def_cfa_offset 16
	.cfi_offset 6, -16
	mov	rbp, rsp
	.cfi_def_cfa_register 6
	mov	QWORD PTR -8[rbp], rdi
	mov	rax, QWORD PTR -8[rbp]
	mov	rdx, QWORD PTR 8[rax]
	mov	rax, QWORD PTR -8[rbp]
	mov	rcx, QWORD PTR [rax]
	mov	rax, rdx
	sub	rax, rcx
	sar	rax, 3
	mov	rdx, rax
	movabs	rax, -3689348814741910323
	imul	rax, rdx
	pop	rbp
	.cfi_def_cfa 7, 8
	ret
	.cfi_endproc
.LFE10901:
	.size	_ZNKSt6vectorIS_IbSaIbEESaIS1_EE4sizeEv, .-_ZNKSt6vectorIS_IbSaIbEESaIS1_EE4sizeEv
	.section	.text._ZNSt6vectorIS_IbSaIbEESaIS1_EE14_M_fill_insertEN9__gnu_cxx17__normal_iteratorIPS1_S3_EEmRKS1_,"axG",@progbits,_ZNSt6vectorIS_IbSaIbEESaIS1_EE14_M_fill_insertEN9__gnu_cxx17__normal_iteratorIPS1_S3_EEmRKS1_,comdat
	.align 2
	.weak	_ZNSt6vectorIS_IbSaIbEESaIS1_EE14_M_fill_insertEN9__gnu_cxx17__normal_iteratorIPS1_S3_EEmRKS1_
	.type	_ZNSt6vectorIS_IbSaIbEESaIS1_EE14_M_fill_insertEN9__gnu_cxx17__normal_iteratorIPS1_S3_EEmRKS1_, @function
_ZNSt6vectorIS_IbSaIbEESaIS1_EE14_M_fill_insertEN9__gnu_cxx17__normal_iteratorIPS1_S3_EEmRKS1_:
.LFB10902:
	.cfi_startproc
	.cfi_personality 0x9b,DW.ref.__gxx_personality_v0
	.cfi_lsda 0x1b,.LLSDA10902
	endbr64
	push	rbp
	.cfi_def_cfa_offset 16
	.cfi_offset 6, -16
	mov	rbp, rsp
	.cfi_def_cfa_register 6
	push	r12
	push	rbx
	sub	rsp, 160
	.cfi_offset 12, -24
	.cfi_offset 3, -32
	mov	QWORD PTR -152[rbp], rdi
	mov	QWORD PTR -160[rbp], rsi
	mov	QWORD PTR -168[rbp], rdx
	mov	QWORD PTR -176[rbp], rcx
	mov	rax, QWORD PTR fs:40
	mov	QWORD PTR -24[rbp], rax
	xor	eax, eax
	cmp	QWORD PTR -168[rbp], 0
	je	.L202
	mov	rax, QWORD PTR -152[rbp]
	mov	rdx, QWORD PTR 16[rax]
	mov	rax, QWORD PTR -152[rbp]
	mov	rcx, QWORD PTR 8[rax]
	mov	rax, rdx
	sub	rax, rcx
	sar	rax, 3
	mov	rdx, rax
	movabs	rax, -3689348814741910323
	imul	rax, rdx
	cmp	QWORD PTR -168[rbp], rax
	ja	.L190
	mov	rdx, QWORD PTR -176[rbp]
	mov	rcx, QWORD PTR -152[rbp]
	lea	rax, -80[rbp]
	mov	rsi, rcx
	mov	rdi, rax
.LEHB21:
	call	_ZNSt6vectorIS_IbSaIbEESaIS1_EE16_Temporary_valueC1IJRKS1_EEEPS3_DpOT_
.LEHE21:
	lea	rax, -80[rbp]
	mov	rdi, rax
.LEHB22:
	call	_ZNSt6vectorIS_IbSaIbEESaIS1_EE16_Temporary_value6_M_valEv
	mov	QWORD PTR -104[rbp], rax
	mov	rax, QWORD PTR -152[rbp]
	mov	rdi, rax
	call	_ZNSt6vectorIS_IbSaIbEESaIS1_EE3endEv
	mov	QWORD PTR -144[rbp], rax
	lea	rdx, -160[rbp]
	lea	rax, -144[rbp]
	mov	rsi, rdx
	mov	rdi, rax
	call	_ZN9__gnu_cxxmiIPSt6vectorIbSaIbEES1_IS3_SaIS3_EEEENS_17__normal_iteratorIT_T0_E15difference_typeERKSA_SD_
	mov	QWORD PTR -96[rbp], rax
	mov	rax, QWORD PTR -152[rbp]
	mov	rax, QWORD PTR 8[rax]
	mov	QWORD PTR -88[rbp], rax
	mov	rax, QWORD PTR -96[rbp]
	cmp	rax, QWORD PTR -168[rbp]
	jbe	.L191
	mov	rax, QWORD PTR -152[rbp]
	mov	rdi, rax
	call	_ZNSt12_Vector_baseISt6vectorIbSaIbEESaIS2_EE19_M_get_Tp_allocatorEv
	mov	rdi, rax
	mov	rax, QWORD PTR -152[rbp]
	mov	rdx, QWORD PTR 8[rax]
	mov	rax, QWORD PTR -152[rbp]
	mov	rsi, QWORD PTR 8[rax]
	mov	rax, QWORD PTR -152[rbp]
	mov	r8, QWORD PTR 8[rax]
	mov	rcx, QWORD PTR -168[rbp]
	mov	rax, rcx
	sal	rax, 2
	add	rax, rcx
	sal	rax, 3
	neg	rax
	add	rax, r8
	mov	rcx, rdi
	mov	rdi, rax
	call	_ZSt22__uninitialized_move_aIPSt6vectorIbSaIbEES3_SaIS2_EET0_T_S6_S5_RT1_
	mov	rax, QWORD PTR -152[rbp]
	mov	rcx, QWORD PTR 8[rax]
	mov	rdx, QWORD PTR -168[rbp]
	mov	rax, rdx
	sal	rax, 2
	add	rax, rdx
	sal	rax, 3
	lea	rdx, [rcx+rax]
	mov	rax, QWORD PTR -152[rbp]
	mov	QWORD PTR 8[rax], rdx
	mov	rdx, QWORD PTR -168[rbp]
	mov	rax, rdx
	sal	rax, 2
	add	rax, rdx
	sal	rax, 3
	neg	rax
	mov	rdx, rax
	mov	rax, QWORD PTR -88[rbp]
	lea	rbx, [rdx+rax]
	lea	rax, -160[rbp]
	mov	rdi, rax
	call	_ZNK9__gnu_cxx17__normal_iteratorIPSt6vectorIbSaIbEES1_IS3_SaIS3_EEE4baseEv
	mov	rax, QWORD PTR [rax]
	mov	rdx, QWORD PTR -88[rbp]
	mov	rsi, rbx
	mov	rdi, rax
	call	_ZSt13move_backwardIPSt6vectorIbSaIbEES3_ET0_T_S5_S4_
	lea	rax, -160[rbp]
	mov	rdi, rax
	call	_ZNK9__gnu_cxx17__normal_iteratorIPSt6vectorIbSaIbEES1_IS3_SaIS3_EEE4baseEv
	mov	rcx, QWORD PTR [rax]
	mov	rdx, QWORD PTR -168[rbp]
	mov	rax, rdx
	sal	rax, 2
	add	rax, rdx
	sal	rax, 3
	lea	rbx, [rcx+rax]
	lea	rax, -160[rbp]
	mov	rdi, rax
	call	_ZNK9__gnu_cxx17__normal_iteratorIPSt6vectorIbSaIbEES1_IS3_SaIS3_EEE4baseEv
	mov	rax, QWORD PTR [rax]
	mov	rdx, QWORD PTR -104[rbp]
	mov	rsi, rbx
	mov	rdi, rax
	call	_ZSt4fillIPSt6vectorIbSaIbEES2_EvT_S4_RKT0_
	jmp	.L192
.L191:
	mov	rax, QWORD PTR -152[rbp]
	mov	rdi, rax
	call	_ZNSt12_Vector_baseISt6vectorIbSaIbEESaIS2_EE19_M_get_Tp_allocatorEv
	mov	rcx, rax
	mov	rax, QWORD PTR -168[rbp]
	sub	rax, QWORD PTR -96[rbp]
	mov	rsi, rax
	mov	rax, QWORD PTR -152[rbp]
	mov	rax, QWORD PTR 8[rax]
	mov	rdx, QWORD PTR -104[rbp]
	mov	rdi, rax
	call	_ZSt24__uninitialized_fill_n_aIPSt6vectorIbSaIbEEmS2_S2_ET_S4_T0_RKT1_RSaIT2_E
	mov	rdx, QWORD PTR -152[rbp]
	mov	QWORD PTR 8[rdx], rax
	mov	rax, QWORD PTR -152[rbp]
	mov	rdi, rax
	call	_ZNSt12_Vector_baseISt6vectorIbSaIbEESaIS2_EE19_M_get_Tp_allocatorEv
	mov	r12, rax
	mov	rax, QWORD PTR -152[rbp]
	mov	rbx, QWORD PTR 8[rax]
	lea	rax, -160[rbp]
	mov	rdi, rax
	call	_ZNK9__gnu_cxx17__normal_iteratorIPSt6vectorIbSaIbEES1_IS3_SaIS3_EEE4baseEv
	mov	rax, QWORD PTR [rax]
	mov	rsi, QWORD PTR -88[rbp]
	mov	rcx, r12
	mov	rdx, rbx
	mov	rdi, rax
	call	_ZSt22__uninitialized_move_aIPSt6vectorIbSaIbEES3_SaIS2_EET0_T_S6_S5_RT1_
	mov	rax, QWORD PTR -152[rbp]
	mov	rcx, QWORD PTR 8[rax]
	mov	rdx, QWORD PTR -96[rbp]
	mov	rax, rdx
	sal	rax, 2
	add	rax, rdx
	sal	rax, 3
	lea	rdx, [rcx+rax]
	mov	rax, QWORD PTR -152[rbp]
	mov	QWORD PTR 8[rax], rdx
	lea	rax, -160[rbp]
	mov	rdi, rax
	call	_ZNK9__gnu_cxx17__normal_iteratorIPSt6vectorIbSaIbEES1_IS3_SaIS3_EEE4baseEv
	mov	rax, QWORD PTR [rax]
	mov	rdx, QWORD PTR -104[rbp]
	mov	rcx, QWORD PTR -88[rbp]
	mov	rsi, rcx
	mov	rdi, rax
	call	_ZSt4fillIPSt6vectorIbSaIbEES2_EvT_S4_RKT0_
.LEHE22:
.L192:
	lea	rax, -80[rbp]
	mov	rdi, rax
	call	_ZNSt6vectorIS_IbSaIbEESaIS1_EE16_Temporary_valueD1Ev
	jmp	.L202
.L190:
	mov	rcx, QWORD PTR -168[rbp]
	mov	rax, QWORD PTR -152[rbp]
	lea	rdx, .LC5[rip]
	mov	rsi, rcx
	mov	rdi, rax
.LEHB23:
	call	_ZNKSt6vectorIS_IbSaIbEESaIS1_EE12_M_check_lenEmPKc
	mov	QWORD PTR -128[rbp], rax
	mov	rax, QWORD PTR -152[rbp]
	mov	rdi, rax
	call	_ZNSt6vectorIS_IbSaIbEESaIS1_EE5beginEv
	mov	QWORD PTR -144[rbp], rax
	lea	rdx, -144[rbp]
	lea	rax, -160[rbp]
	mov	rsi, rdx
	mov	rdi, rax
	call	_ZN9__gnu_cxxmiIPSt6vectorIbSaIbEES1_IS3_SaIS3_EEEENS_17__normal_iteratorIT_T0_E15difference_typeERKSA_SD_
	mov	QWORD PTR -120[rbp], rax
	mov	rax, QWORD PTR -152[rbp]
	mov	rdx, QWORD PTR -128[rbp]
	mov	rsi, rdx
	mov	rdi, rax
	call	_ZNSt12_Vector_baseISt6vectorIbSaIbEESaIS2_EE11_M_allocateEm
.LEHE23:
	mov	QWORD PTR -112[rbp], rax
	mov	rax, QWORD PTR -112[rbp]
	mov	QWORD PTR -136[rbp], rax
	mov	rax, QWORD PTR -152[rbp]
	mov	rdi, rax
	call	_ZNSt12_Vector_baseISt6vectorIbSaIbEESaIS2_EE19_M_get_Tp_allocatorEv
	mov	rcx, rax
	mov	rdx, QWORD PTR -120[rbp]
	mov	rax, rdx
	sal	rax, 2
	add	rax, rdx
	sal	rax, 3
	mov	rdx, rax
	mov	rax, QWORD PTR -112[rbp]
	lea	rdi, [rdx+rax]
	mov	rdx, QWORD PTR -176[rbp]
	mov	rax, QWORD PTR -168[rbp]
	mov	rsi, rax
.LEHB24:
	call	_ZSt24__uninitialized_fill_n_aIPSt6vectorIbSaIbEEmS2_S2_ET_S4_T0_RKT1_RSaIT2_E
	mov	QWORD PTR -136[rbp], 0
	mov	rax, QWORD PTR -152[rbp]
	mov	rdi, rax
	call	_ZNSt12_Vector_baseISt6vectorIbSaIbEESaIS2_EE19_M_get_Tp_allocatorEv
	mov	rbx, rax
	lea	rax, -160[rbp]
	mov	rdi, rax
	call	_ZNK9__gnu_cxx17__normal_iteratorIPSt6vectorIbSaIbEES1_IS3_SaIS3_EEE4baseEv
	mov	rsi, QWORD PTR [rax]
	mov	rax, QWORD PTR -152[rbp]
	mov	rax, QWORD PTR [rax]
	mov	rdx, QWORD PTR -112[rbp]
	mov	rcx, rbx
	mov	rdi, rax
	call	_ZSt34__uninitialized_move_if_noexcept_aIPSt6vectorIbSaIbEES3_SaIS2_EET0_T_S6_S5_RT1_
	mov	QWORD PTR -136[rbp], rax
	mov	rdx, QWORD PTR -168[rbp]
	mov	rax, rdx
	sal	rax, 2
	add	rax, rdx
	sal	rax, 3
	add	QWORD PTR -136[rbp], rax
	mov	rax, QWORD PTR -152[rbp]
	mov	rdi, rax
	call	_ZNSt12_Vector_baseISt6vectorIbSaIbEESaIS2_EE19_M_get_Tp_allocatorEv
	mov	r12, rax
	mov	rax, QWORD PTR -152[rbp]
	mov	rbx, QWORD PTR 8[rax]
	lea	rax, -160[rbp]
	mov	rdi, rax
	call	_ZNK9__gnu_cxx17__normal_iteratorIPSt6vectorIbSaIbEES1_IS3_SaIS3_EEE4baseEv
	mov	rax, QWORD PTR [rax]
	mov	rdx, QWORD PTR -136[rbp]
	mov	rcx, r12
	mov	rsi, rbx
	mov	rdi, rax
	call	_ZSt34__uninitialized_move_if_noexcept_aIPSt6vectorIbSaIbEES3_SaIS2_EET0_T_S6_S5_RT1_
.LEHE24:
	mov	QWORD PTR -136[rbp], rax
	mov	rax, QWORD PTR -152[rbp]
	mov	rdi, rax
	call	_ZNSt12_Vector_baseISt6vectorIbSaIbEESaIS2_EE19_M_get_Tp_allocatorEv
	mov	rdx, rax
	mov	rax, QWORD PTR -152[rbp]
	mov	rcx, QWORD PTR 8[rax]
	mov	rax, QWORD PTR -152[rbp]
	mov	rax, QWORD PTR [rax]
	mov	rsi, rcx
	mov	rdi, rax
.LEHB25:
	call	_ZSt8_DestroyIPSt6vectorIbSaIbEES2_EvT_S4_RSaIT0_E
	mov	rax, QWORD PTR -152[rbp]
	mov	rdx, QWORD PTR -152[rbp]
	mov	rcx, QWORD PTR 16[rdx]
	mov	rdx, QWORD PTR -152[rbp]
	mov	rsi, QWORD PTR [rdx]
	sub	rcx, rsi
	mov	rdx, rcx
	mov	rcx, rdx
	sar	rcx, 3
	movabs	rdx, -3689348814741910323
	imul	rdx, rcx
	mov	rsi, rdx
	mov	rdx, QWORD PTR -152[rbp]
	mov	rcx, QWORD PTR [rdx]
	mov	rdx, rsi
	mov	rsi, rcx
	mov	rdi, rax
	call	_ZNSt12_Vector_baseISt6vectorIbSaIbEESaIS2_EE13_M_deallocateEPS2_m
	mov	rax, QWORD PTR -152[rbp]
	mov	rdx, QWORD PTR -112[rbp]
	mov	QWORD PTR [rax], rdx
	mov	rax, QWORD PTR -152[rbp]
	mov	rdx, QWORD PTR -136[rbp]
	mov	QWORD PTR 8[rax], rdx
	mov	rdx, QWORD PTR -128[rbp]
	mov	rax, rdx
	sal	rax, 2
	add	rax, rdx
	sal	rax, 3
	mov	rdx, rax
	mov	rax, QWORD PTR -112[rbp]
	add	rdx, rax
	mov	rax, QWORD PTR -152[rbp]
	mov	QWORD PTR 16[rax], rdx
	jmp	.L202
.L199:
	endbr64
	mov	rbx, rax
	lea	rax, -80[rbp]
	mov	rdi, rax
	call	_ZNSt6vectorIS_IbSaIbEESaIS1_EE16_Temporary_valueD1Ev
	mov	rax, rbx
	mov	rdi, rax
	call	_Unwind_Resume@PLT
.LEHE25:
.L200:
	endbr64
	mov	rdi, rax
	call	__cxa_begin_catch@PLT
	cmp	QWORD PTR -136[rbp], 0
	jne	.L195
	mov	rax, QWORD PTR -152[rbp]
	mov	rdi, rax
	call	_ZNSt12_Vector_baseISt6vectorIbSaIbEESaIS2_EE19_M_get_Tp_allocatorEv
	mov	rsi, rax
	mov	rdx, QWORD PTR -120[rbp]
	mov	rax, QWORD PTR -168[rbp]
	add	rdx, rax
	mov	rax, rdx
	sal	rax, 2
	add	rax, rdx
	sal	rax, 3
	mov	rdx, rax
	mov	rax, QWORD PTR -112[rbp]
	lea	rcx, [rdx+rax]
	mov	rdx, QWORD PTR -120[rbp]
	mov	rax, rdx
	sal	rax, 2
	add	rax, rdx
	sal	rax, 3
	mov	rdx, rax
	mov	rax, QWORD PTR -112[rbp]
	add	rax, rdx
	mov	rdx, rsi
	mov	rsi, rcx
	mov	rdi, rax
.LEHB26:
	call	_ZSt8_DestroyIPSt6vectorIbSaIbEES2_EvT_S4_RSaIT0_E
	jmp	.L196
.L195:
	mov	rax, QWORD PTR -152[rbp]
	mov	rdi, rax
	call	_ZNSt12_Vector_baseISt6vectorIbSaIbEESaIS2_EE19_M_get_Tp_allocatorEv
	mov	rdx, rax
	mov	rcx, QWORD PTR -136[rbp]
	mov	rax, QWORD PTR -112[rbp]
	mov	rsi, rcx
	mov	rdi, rax
	call	_ZSt8_DestroyIPSt6vectorIbSaIbEES2_EvT_S4_RSaIT0_E
.L196:
	mov	rax, QWORD PTR -152[rbp]
	mov	rdx, QWORD PTR -128[rbp]
	mov	rcx, QWORD PTR -112[rbp]
	mov	rsi, rcx
	mov	rdi, rax
	call	_ZNSt12_Vector_baseISt6vectorIbSaIbEESaIS2_EE13_M_deallocateEPS2_m
	call	__cxa_rethrow@PLT
.LEHE26:
.L201:
	endbr64
	mov	rbx, rax
	call	__cxa_end_catch@PLT
	mov	rax, rbx
	mov	rdi, rax
.LEHB27:
	call	_Unwind_Resume@PLT
.LEHE27:
.L202:
	nop
	mov	rax, QWORD PTR -24[rbp]
	sub	rax, QWORD PTR fs:40
	je	.L198
	call	__stack_chk_fail@PLT
.L198:
	add	rsp, 160
	pop	rbx
	pop	r12
	pop	rbp
	.cfi_def_cfa 7, 8
	ret
	.cfi_endproc
.LFE10902:
	.section	.gcc_except_table
	.align 4
.LLSDA10902:
	.byte	0xff
	.byte	0x9b
	.uleb128 .LLSDATT10902-.LLSDATTD10902
.LLSDATTD10902:
	.byte	0x1
	.uleb128 .LLSDACSE10902-.LLSDACSB10902
.LLSDACSB10902:
	.uleb128 .LEHB21-.LFB10902
	.uleb128 .LEHE21-.LEHB21
	.uleb128 0
	.uleb128 0
	.uleb128 .LEHB22-.LFB10902
	.uleb128 .LEHE22-.LEHB22
	.uleb128 .L199-.LFB10902
	.uleb128 0
	.uleb128 .LEHB23-.LFB10902
	.uleb128 .LEHE23-.LEHB23
	.uleb128 0
	.uleb128 0
	.uleb128 .LEHB24-.LFB10902
	.uleb128 .LEHE24-.LEHB24
	.uleb128 .L200-.LFB10902
	.uleb128 0x1
	.uleb128 .LEHB25-.LFB10902
	.uleb128 .LEHE25-.LEHB25
	.uleb128 0
	.uleb128 0
	.uleb128 .LEHB26-.LFB10902
	.uleb128 .LEHE26-.LEHB26
	.uleb128 .L201-.LFB10902
	.uleb128 0
	.uleb128 .LEHB27-.LFB10902
	.uleb128 .LEHE27-.LEHB27
	.uleb128 0
	.uleb128 0
.LLSDACSE10902:
	.byte	0x1
	.byte	0
	.align 4
	.long	0

.LLSDATT10902:
	.section	.text._ZNSt6vectorIS_IbSaIbEESaIS1_EE14_M_fill_insertEN9__gnu_cxx17__normal_iteratorIPS1_S3_EEmRKS1_,"axG",@progbits,_ZNSt6vectorIS_IbSaIbEESaIS1_EE14_M_fill_insertEN9__gnu_cxx17__normal_iteratorIPS1_S3_EEmRKS1_,comdat
	.size	_ZNSt6vectorIS_IbSaIbEESaIS1_EE14_M_fill_insertEN9__gnu_cxx17__normal_iteratorIPS1_S3_EEmRKS1_, .-_ZNSt6vectorIS_IbSaIbEESaIS1_EE14_M_fill_insertEN9__gnu_cxx17__normal_iteratorIPS1_S3_EEmRKS1_
	.section	.text._ZNSt6vectorIS_IbSaIbEESaIS1_EE3endEv,"axG",@progbits,_ZNSt6vectorIS_IbSaIbEESaIS1_EE3endEv,comdat
	.align 2
	.weak	_ZNSt6vectorIS_IbSaIbEESaIS1_EE3endEv
	.type	_ZNSt6vectorIS_IbSaIbEESaIS1_EE3endEv, @function
_ZNSt6vectorIS_IbSaIbEESaIS1_EE3endEv:
.LFB10903:
	.cfi_startproc
	endbr64
	push	rbp
	.cfi_def_cfa_offset 16
	.cfi_offset 6, -16
	mov	rbp, rsp
	.cfi_def_cfa_register 6
	sub	rsp, 32
	mov	QWORD PTR -24[rbp], rdi
	mov	rax, QWORD PTR fs:40
	mov	QWORD PTR -8[rbp], rax
	xor	eax, eax
	mov	rax, QWORD PTR -24[rbp]
	lea	rdx, 8[rax]
	lea	rax, -16[rbp]
	mov	rsi, rdx
	mov	rdi, rax
	call	_ZN9__gnu_cxx17__normal_iteratorIPSt6vectorIbSaIbEES1_IS3_SaIS3_EEEC1ERKS4_
	mov	rax, QWORD PTR -16[rbp]
	mov	rdx, QWORD PTR -8[rbp]
	sub	rdx, QWORD PTR fs:40
	je	.L205
	call	__stack_chk_fail@PLT
.L205:
	leave
	.cfi_def_cfa 7, 8
	ret
	.cfi_endproc
.LFE10903:
	.size	_ZNSt6vectorIS_IbSaIbEESaIS1_EE3endEv, .-_ZNSt6vectorIS_IbSaIbEESaIS1_EE3endEv
	.section	.text._ZNSt6vectorIS_IbSaIbEESaIS1_EE15_M_erase_at_endEPS1_,"axG",@progbits,_ZNSt6vectorIS_IbSaIbEESaIS1_EE15_M_erase_at_endEPS1_,comdat
	.align 2
	.weak	_ZNSt6vectorIS_IbSaIbEESaIS1_EE15_M_erase_at_endEPS1_
	.type	_ZNSt6vectorIS_IbSaIbEESaIS1_EE15_M_erase_at_endEPS1_, @function
_ZNSt6vectorIS_IbSaIbEESaIS1_EE15_M_erase_at_endEPS1_:
.LFB10904:
	.cfi_startproc
	.cfi_personality 0x9b,DW.ref.__gxx_personality_v0
	.cfi_lsda 0x1b,.LLSDA10904
	endbr64
	push	rbp
	.cfi_def_cfa_offset 16
	.cfi_offset 6, -16
	mov	rbp, rsp
	.cfi_def_cfa_register 6
	sub	rsp, 32
	mov	QWORD PTR -24[rbp], rdi
	mov	QWORD PTR -32[rbp], rsi
	mov	rax, QWORD PTR -24[rbp]
	mov	rax, QWORD PTR 8[rax]
	sub	rax, QWORD PTR -32[rbp]
	sar	rax, 3
	mov	rdx, rax
	movabs	rax, -3689348814741910323
	imul	rax, rdx
	mov	QWORD PTR -8[rbp], rax
	cmp	QWORD PTR -8[rbp], 0
	je	.L208
	mov	rax, QWORD PTR -24[rbp]
	mov	rdi, rax
	call	_ZNSt12_Vector_baseISt6vectorIbSaIbEESaIS2_EE19_M_get_Tp_allocatorEv
	mov	rdx, rax
	mov	rax, QWORD PTR -24[rbp]
	mov	rcx, QWORD PTR 8[rax]
	mov	rax, QWORD PTR -32[rbp]
	mov	rsi, rcx
	mov	rdi, rax
	call	_ZSt8_DestroyIPSt6vectorIbSaIbEES2_EvT_S4_RSaIT0_E
	mov	rax, QWORD PTR -24[rbp]
	mov	rdx, QWORD PTR -32[rbp]
	mov	QWORD PTR 8[rax], rdx
.L208:
	nop
	leave
	.cfi_def_cfa 7, 8
	ret
	.cfi_endproc
.LFE10904:
	.section	.gcc_except_table
.LLSDA10904:
	.byte	0xff
	.byte	0xff
	.byte	0x1
	.uleb128 .LLSDACSE10904-.LLSDACSB10904
.LLSDACSB10904:
.LLSDACSE10904:
	.section	.text._ZNSt6vectorIS_IbSaIbEESaIS1_EE15_M_erase_at_endEPS1_,"axG",@progbits,_ZNSt6vectorIS_IbSaIbEESaIS1_EE15_M_erase_at_endEPS1_,comdat
	.size	_ZNSt6vectorIS_IbSaIbEESaIS1_EE15_M_erase_at_endEPS1_, .-_ZNSt6vectorIS_IbSaIbEESaIS1_EE15_M_erase_at_endEPS1_
	.section	.text._ZN9__gnu_cxx13new_allocatorImEC2Ev,"axG",@progbits,_ZN9__gnu_cxx13new_allocatorImEC5Ev,comdat
	.align 2
	.weak	_ZN9__gnu_cxx13new_allocatorImEC2Ev
	.type	_ZN9__gnu_cxx13new_allocatorImEC2Ev, @function
_ZN9__gnu_cxx13new_allocatorImEC2Ev:
.LFB11058:
	.cfi_startproc
	endbr64
	push	rbp
	.cfi_def_cfa_offset 16
	.cfi_offset 6, -16
	mov	rbp, rsp
	.cfi_def_cfa_register 6
	mov	QWORD PTR -8[rbp], rdi
	nop
	pop	rbp
	.cfi_def_cfa 7, 8
	ret
	.cfi_endproc
.LFE11058:
	.size	_ZN9__gnu_cxx13new_allocatorImEC2Ev, .-_ZN9__gnu_cxx13new_allocatorImEC2Ev
	.weak	_ZN9__gnu_cxx13new_allocatorImEC1Ev
	.set	_ZN9__gnu_cxx13new_allocatorImEC1Ev,_ZN9__gnu_cxx13new_allocatorImEC2Ev
	.section	.text._ZNSt16allocator_traitsISaImEE10deallocateERS0_Pmm,"axG",@progbits,_ZNSt16allocator_traitsISaImEE10deallocateERS0_Pmm,comdat
	.weak	_ZNSt16allocator_traitsISaImEE10deallocateERS0_Pmm
	.type	_ZNSt16allocator_traitsISaImEE10deallocateERS0_Pmm, @function
_ZNSt16allocator_traitsISaImEE10deallocateERS0_Pmm:
.LFB11060:
	.cfi_startproc
	endbr64
	push	rbp
	.cfi_def_cfa_offset 16
	.cfi_offset 6, -16
	mov	rbp, rsp
	.cfi_def_cfa_register 6
	sub	rsp, 32
	mov	QWORD PTR -8[rbp], rdi
	mov	QWORD PTR -16[rbp], rsi
	mov	QWORD PTR -24[rbp], rdx
	mov	rdx, QWORD PTR -24[rbp]
	mov	rcx, QWORD PTR -16[rbp]
	mov	rax, QWORD PTR -8[rbp]
	mov	rsi, rcx
	mov	rdi, rax
	call	_ZN9__gnu_cxx13new_allocatorImE10deallocateEPmm
	nop
	leave
	.cfi_def_cfa 7, 8
	ret
	.cfi_endproc
.LFE11060:
	.size	_ZNSt16allocator_traitsISaImEE10deallocateERS0_Pmm, .-_ZNSt16allocator_traitsISaImEE10deallocateERS0_Pmm
	.section	.text._ZNSt16allocator_traitsISaIcEE37select_on_container_copy_constructionERKS0_,"axG",@progbits,_ZNSt16allocator_traitsISaIcEE37select_on_container_copy_constructionERKS0_,comdat
	.weak	_ZNSt16allocator_traitsISaIcEE37select_on_container_copy_constructionERKS0_
	.type	_ZNSt16allocator_traitsISaIcEE37select_on_container_copy_constructionERKS0_, @function
_ZNSt16allocator_traitsISaIcEE37select_on_container_copy_constructionERKS0_:
.LFB11066:
	.cfi_startproc
	endbr64
	push	rbp
	.cfi_def_cfa_offset 16
	.cfi_offset 6, -16
	mov	rbp, rsp
	.cfi_def_cfa_register 6
	sub	rsp, 16
	mov	QWORD PTR -8[rbp], rdi
	mov	QWORD PTR -16[rbp], rsi
	mov	rdx, QWORD PTR -16[rbp]
	mov	rax, QWORD PTR -8[rbp]
	mov	rsi, rdx
	mov	rdi, rax
	call	_ZNSaIcEC1ERKS_@PLT
	mov	rax, QWORD PTR -8[rbp]
	leave
	.cfi_def_cfa 7, 8
	ret
	.cfi_endproc
.LFE11066:
	.size	_ZNSt16allocator_traitsISaIcEE37select_on_container_copy_constructionERKS0_, .-_ZNSt16allocator_traitsISaIcEE37select_on_container_copy_constructionERKS0_
	.section	.text._ZNSt16allocator_traitsISaIcEE10deallocateERS0_Pcm,"axG",@progbits,_ZNSt16allocator_traitsISaIcEE10deallocateERS0_Pcm,comdat
	.weak	_ZNSt16allocator_traitsISaIcEE10deallocateERS0_Pcm
	.type	_ZNSt16allocator_traitsISaIcEE10deallocateERS0_Pcm, @function
_ZNSt16allocator_traitsISaIcEE10deallocateERS0_Pcm:
.LFB11072:
	.cfi_startproc
	endbr64
	push	rbp
	.cfi_def_cfa_offset 16
	.cfi_offset 6, -16
	mov	rbp, rsp
	.cfi_def_cfa_register 6
	sub	rsp, 32
	mov	QWORD PTR -8[rbp], rdi
	mov	QWORD PTR -16[rbp], rsi
	mov	QWORD PTR -24[rbp], rdx
	mov	rdx, QWORD PTR -24[rbp]
	mov	rcx, QWORD PTR -16[rbp]
	mov	rax, QWORD PTR -8[rbp]
	mov	rsi, rcx
	mov	rdi, rax
	call	_ZN9__gnu_cxx13new_allocatorIcE10deallocateEPcm
	nop
	leave
	.cfi_def_cfa 7, 8
	ret
	.cfi_endproc
.LFE11072:
	.size	_ZNSt16allocator_traitsISaIcEE10deallocateERS0_Pcm, .-_ZNSt16allocator_traitsISaIcEE10deallocateERS0_Pcm
	.section	.text._ZNSt16allocator_traitsISaIcEE8allocateERS0_m,"axG",@progbits,_ZNSt16allocator_traitsISaIcEE8allocateERS0_m,comdat
	.weak	_ZNSt16allocator_traitsISaIcEE8allocateERS0_m
	.type	_ZNSt16allocator_traitsISaIcEE8allocateERS0_m, @function
_ZNSt16allocator_traitsISaIcEE8allocateERS0_m:
.LFB11073:
	.cfi_startproc
	endbr64
	push	rbp
	.cfi_def_cfa_offset 16
	.cfi_offset 6, -16
	mov	rbp, rsp
	.cfi_def_cfa_register 6
	sub	rsp, 16
	mov	QWORD PTR -8[rbp], rdi
	mov	QWORD PTR -16[rbp], rsi
	mov	rcx, QWORD PTR -16[rbp]
	mov	rax, QWORD PTR -8[rbp]
	mov	edx, 0
	mov	rsi, rcx
	mov	rdi, rax
	call	_ZN9__gnu_cxx13new_allocatorIcE8allocateEmPKv
	leave
	.cfi_def_cfa 7, 8
	ret
	.cfi_endproc
.LFE11073:
	.size	_ZNSt16allocator_traitsISaIcEE8allocateERS0_m, .-_ZNSt16allocator_traitsISaIcEE8allocateERS0_m
	.section	.text._ZSt15__alloc_on_copyISaIcEEvRT_RKS1_,"axG",@progbits,_ZSt15__alloc_on_copyISaIcEEvRT_RKS1_,comdat
	.weak	_ZSt15__alloc_on_copyISaIcEEvRT_RKS1_
	.type	_ZSt15__alloc_on_copyISaIcEEvRT_RKS1_, @function
_ZSt15__alloc_on_copyISaIcEEvRT_RKS1_:
.LFB11074:
	.cfi_startproc
	endbr64
	push	rbp
	.cfi_def_cfa_offset 16
	.cfi_offset 6, -16
	mov	rbp, rsp
	.cfi_def_cfa_register 6
	mov	QWORD PTR -8[rbp], rdi
	mov	QWORD PTR -16[rbp], rsi
	nop
	pop	rbp
	.cfi_def_cfa 7, 8
	ret
	.cfi_endproc
.LFE11074:
	.size	_ZSt15__alloc_on_copyISaIcEEvRT_RKS1_, .-_ZSt15__alloc_on_copyISaIcEEvRT_RKS1_
	.section	.text._ZN9__gnu_cxx13new_allocatorISt6vectorIcSaIcEEEC2Ev,"axG",@progbits,_ZN9__gnu_cxx13new_allocatorISt6vectorIcSaIcEEEC5Ev,comdat
	.align 2
	.weak	_ZN9__gnu_cxx13new_allocatorISt6vectorIcSaIcEEEC2Ev
	.type	_ZN9__gnu_cxx13new_allocatorISt6vectorIcSaIcEEEC2Ev, @function
_ZN9__gnu_cxx13new_allocatorISt6vectorIcSaIcEEEC2Ev:
.LFB11102:
	.cfi_startproc
	endbr64
	push	rbp
	.cfi_def_cfa_offset 16
	.cfi_offset 6, -16
	mov	rbp, rsp
	.cfi_def_cfa_register 6
	mov	QWORD PTR -8[rbp], rdi
	nop
	pop	rbp
	.cfi_def_cfa 7, 8
	ret
	.cfi_endproc
.LFE11102:
	.size	_ZN9__gnu_cxx13new_allocatorISt6vectorIcSaIcEEEC2Ev, .-_ZN9__gnu_cxx13new_allocatorISt6vectorIcSaIcEEEC2Ev
	.weak	_ZN9__gnu_cxx13new_allocatorISt6vectorIcSaIcEEEC1Ev
	.set	_ZN9__gnu_cxx13new_allocatorISt6vectorIcSaIcEEEC1Ev,_ZN9__gnu_cxx13new_allocatorISt6vectorIcSaIcEEEC2Ev
	.section	.text._ZNSt16allocator_traitsISaISt6vectorIcSaIcEEEE10deallocateERS3_PS2_m,"axG",@progbits,_ZNSt16allocator_traitsISaISt6vectorIcSaIcEEEE10deallocateERS3_PS2_m,comdat
	.weak	_ZNSt16allocator_traitsISaISt6vectorIcSaIcEEEE10deallocateERS3_PS2_m
	.type	_ZNSt16allocator_traitsISaISt6vectorIcSaIcEEEE10deallocateERS3_PS2_m, @function
_ZNSt16allocator_traitsISaISt6vectorIcSaIcEEEE10deallocateERS3_PS2_m:
.LFB11104:
	.cfi_startproc
	endbr64
	push	rbp
	.cfi_def_cfa_offset 16
	.cfi_offset 6, -16
	mov	rbp, rsp
	.cfi_def_cfa_register 6
	sub	rsp, 32
	mov	QWORD PTR -8[rbp], rdi
	mov	QWORD PTR -16[rbp], rsi
	mov	QWORD PTR -24[rbp], rdx
	mov	rdx, QWORD PTR -24[rbp]
	mov	rcx, QWORD PTR -16[rbp]
	mov	rax, QWORD PTR -8[rbp]
	mov	rsi, rcx
	mov	rdi, rax
	call	_ZN9__gnu_cxx13new_allocatorISt6vectorIcSaIcEEE10deallocateEPS3_m
	nop
	leave
	.cfi_def_cfa 7, 8
	ret
	.cfi_endproc
.LFE11104:
	.size	_ZNSt16allocator_traitsISaISt6vectorIcSaIcEEEE10deallocateERS3_PS2_m, .-_ZNSt16allocator_traitsISaISt6vectorIcSaIcEEEE10deallocateERS3_PS2_m
	.section	.text._ZN9__gnu_cxx13new_allocatorISt6vectorIbSaIbEEEC2Ev,"axG",@progbits,_ZN9__gnu_cxx13new_allocatorISt6vectorIbSaIbEEEC5Ev,comdat
	.align 2
	.weak	_ZN9__gnu_cxx13new_allocatorISt6vectorIbSaIbEEEC2Ev
	.type	_ZN9__gnu_cxx13new_allocatorISt6vectorIbSaIbEEEC2Ev, @function
_ZN9__gnu_cxx13new_allocatorISt6vectorIbSaIbEEEC2Ev:
.LFB11106:
	.cfi_startproc
	endbr64
	push	rbp
	.cfi_def_cfa_offset 16
	.cfi_offset 6, -16
	mov	rbp, rsp
	.cfi_def_cfa_register 6
	mov	QWORD PTR -8[rbp], rdi
	nop
	pop	rbp
	.cfi_def_cfa 7, 8
	ret
	.cfi_endproc
.LFE11106:
	.size	_ZN9__gnu_cxx13new_allocatorISt6vectorIbSaIbEEEC2Ev, .-_ZN9__gnu_cxx13new_allocatorISt6vectorIbSaIbEEEC2Ev
	.weak	_ZN9__gnu_cxx13new_allocatorISt6vectorIbSaIbEEEC1Ev
	.set	_ZN9__gnu_cxx13new_allocatorISt6vectorIbSaIbEEEC1Ev,_ZN9__gnu_cxx13new_allocatorISt6vectorIbSaIbEEEC2Ev
	.section	.text._ZNSt16allocator_traitsISaISt6vectorIbSaIbEEEE10deallocateERS3_PS2_m,"axG",@progbits,_ZNSt16allocator_traitsISaISt6vectorIbSaIbEEEE10deallocateERS3_PS2_m,comdat
	.weak	_ZNSt16allocator_traitsISaISt6vectorIbSaIbEEEE10deallocateERS3_PS2_m
	.type	_ZNSt16allocator_traitsISaISt6vectorIbSaIbEEEE10deallocateERS3_PS2_m, @function
_ZNSt16allocator_traitsISaISt6vectorIbSaIbEEEE10deallocateERS3_PS2_m:
.LFB11108:
	.cfi_startproc
	endbr64
	push	rbp
	.cfi_def_cfa_offset 16
	.cfi_offset 6, -16
	mov	rbp, rsp
	.cfi_def_cfa_register 6
	sub	rsp, 32
	mov	QWORD PTR -8[rbp], rdi
	mov	QWORD PTR -16[rbp], rsi
	mov	QWORD PTR -24[rbp], rdx
	mov	rdx, QWORD PTR -24[rbp]
	mov	rcx, QWORD PTR -16[rbp]
	mov	rax, QWORD PTR -8[rbp]
	mov	rsi, rcx
	mov	rdi, rax
	call	_ZN9__gnu_cxx13new_allocatorISt6vectorIbSaIbEEE10deallocateEPS3_m
	nop
	leave
	.cfi_def_cfa 7, 8
	ret
	.cfi_endproc
.LFE11108:
	.size	_ZNSt16allocator_traitsISaISt6vectorIbSaIbEEEE10deallocateERS3_PS2_m, .-_ZNSt16allocator_traitsISaISt6vectorIbSaIbEEEE10deallocateERS3_PS2_m
	.section	.text._ZNSt6vectorIcSaIcEE11_S_max_sizeERKS0_,"axG",@progbits,_ZNSt6vectorIcSaIcEE11_S_max_sizeERKS0_,comdat
	.weak	_ZNSt6vectorIcSaIcEE11_S_max_sizeERKS0_
	.type	_ZNSt6vectorIcSaIcEE11_S_max_sizeERKS0_, @function
_ZNSt6vectorIcSaIcEE11_S_max_sizeERKS0_:
.LFB11109:
	.cfi_startproc
	endbr64
	push	rbp
	.cfi_def_cfa_offset 16
	.cfi_offset 6, -16
	mov	rbp, rsp
	.cfi_def_cfa_register 6
	sub	rsp, 48
	mov	QWORD PTR -40[rbp], rdi
	mov	rax, QWORD PTR fs:40
	mov	QWORD PTR -8[rbp], rax
	xor	eax, eax
	movabs	rax, 9223372036854775807
	mov	QWORD PTR -24[rbp], rax
	mov	rax, QWORD PTR -40[rbp]
	mov	rdi, rax
	call	_ZNSt16allocator_traitsISaIcEE8max_sizeERKS0_
	mov	QWORD PTR -16[rbp], rax
	lea	rdx, -16[rbp]
	lea	rax, -24[rbp]
	mov	rsi, rdx
	mov	rdi, rax
	call	_ZSt3minImERKT_S2_S2_
	mov	rax, QWORD PTR [rax]
	mov	rdx, QWORD PTR -8[rbp]
	sub	rdx, QWORD PTR fs:40
	je	.L223
	call	__stack_chk_fail@PLT
.L223:
	leave
	.cfi_def_cfa 7, 8
	ret
	.cfi_endproc
.LFE11109:
	.size	_ZNSt6vectorIcSaIcEE11_S_max_sizeERKS0_, .-_ZNSt6vectorIcSaIcEE11_S_max_sizeERKS0_
	.section	.text._ZNSt12_Vector_baseIcSaIcEE12_Vector_implC2ERKS0_,"axG",@progbits,_ZNSt12_Vector_baseIcSaIcEE12_Vector_implC5ERKS0_,comdat
	.align 2
	.weak	_ZNSt12_Vector_baseIcSaIcEE12_Vector_implC2ERKS0_
	.type	_ZNSt12_Vector_baseIcSaIcEE12_Vector_implC2ERKS0_, @function
_ZNSt12_Vector_baseIcSaIcEE12_Vector_implC2ERKS0_:
.LFB11111:
	.cfi_startproc
	endbr64
	push	rbp
	.cfi_def_cfa_offset 16
	.cfi_offset 6, -16
	mov	rbp, rsp
	.cfi_def_cfa_register 6
	sub	rsp, 16
	mov	QWORD PTR -8[rbp], rdi
	mov	QWORD PTR -16[rbp], rsi
	mov	rdx, QWORD PTR -16[rbp]
	mov	rax, QWORD PTR -8[rbp]
	mov	rsi, rdx
	mov	rdi, rax
	call	_ZNSaIcEC2ERKS_@PLT
	mov	rax, QWORD PTR -8[rbp]
	mov	rdi, rax
	call	_ZNSt12_Vector_baseIcSaIcEE17_Vector_impl_dataC2Ev
	nop
	leave
	.cfi_def_cfa 7, 8
	ret
	.cfi_endproc
.LFE11111:
	.size	_ZNSt12_Vector_baseIcSaIcEE12_Vector_implC2ERKS0_, .-_ZNSt12_Vector_baseIcSaIcEE12_Vector_implC2ERKS0_
	.weak	_ZNSt12_Vector_baseIcSaIcEE12_Vector_implC1ERKS0_
	.set	_ZNSt12_Vector_baseIcSaIcEE12_Vector_implC1ERKS0_,_ZNSt12_Vector_baseIcSaIcEE12_Vector_implC2ERKS0_
	.section	.text._ZNSt12_Vector_baseIcSaIcEE17_M_create_storageEm,"axG",@progbits,_ZNSt12_Vector_baseIcSaIcEE17_M_create_storageEm,comdat
	.align 2
	.weak	_ZNSt12_Vector_baseIcSaIcEE17_M_create_storageEm
	.type	_ZNSt12_Vector_baseIcSaIcEE17_M_create_storageEm, @function
_ZNSt12_Vector_baseIcSaIcEE17_M_create_storageEm:
.LFB11113:
	.cfi_startproc
	endbr64
	push	rbp
	.cfi_def_cfa_offset 16
	.cfi_offset 6, -16
	mov	rbp, rsp
	.cfi_def_cfa_register 6
	sub	rsp, 16
	mov	QWORD PTR -8[rbp], rdi
	mov	QWORD PTR -16[rbp], rsi
	mov	rdx, QWORD PTR -16[rbp]
	mov	rax, QWORD PTR -8[rbp]
	mov	rsi, rdx
	mov	rdi, rax
	call	_ZNSt12_Vector_baseIcSaIcEE11_M_allocateEm
	mov	rdx, QWORD PTR -8[rbp]
	mov	QWORD PTR [rdx], rax
	mov	rax, QWORD PTR -8[rbp]
	mov	rdx, QWORD PTR [rax]
	mov	rax, QWORD PTR -8[rbp]
	mov	QWORD PTR 8[rax], rdx
	mov	rax, QWORD PTR -8[rbp]
	mov	rdx, QWORD PTR [rax]
	mov	rax, QWORD PTR -16[rbp]
	add	rdx, rax
	mov	rax, QWORD PTR -8[rbp]
	mov	QWORD PTR 16[rax], rdx
	nop
	leave
	.cfi_def_cfa 7, 8
	ret
	.cfi_endproc
.LFE11113:
	.size	_ZNSt12_Vector_baseIcSaIcEE17_M_create_storageEm, .-_ZNSt12_Vector_baseIcSaIcEE17_M_create_storageEm
	.section	.text._ZNSt12_Vector_baseIcSaIcEE13_M_deallocateEPcm,"axG",@progbits,_ZNSt12_Vector_baseIcSaIcEE13_M_deallocateEPcm,comdat
	.align 2
	.weak	_ZNSt12_Vector_baseIcSaIcEE13_M_deallocateEPcm
	.type	_ZNSt12_Vector_baseIcSaIcEE13_M_deallocateEPcm, @function
_ZNSt12_Vector_baseIcSaIcEE13_M_deallocateEPcm:
.LFB11114:
	.cfi_startproc
	endbr64
	push	rbp
	.cfi_def_cfa_offset 16
	.cfi_offset 6, -16
	mov	rbp, rsp
	.cfi_def_cfa_register 6
	sub	rsp, 32
	mov	QWORD PTR -8[rbp], rdi
	mov	QWORD PTR -16[rbp], rsi
	mov	QWORD PTR -24[rbp], rdx
	cmp	QWORD PTR -16[rbp], 0
	je	.L228
	mov	rax, QWORD PTR -8[rbp]
	mov	rdx, QWORD PTR -24[rbp]
	mov	rcx, QWORD PTR -16[rbp]
	mov	rsi, rcx
	mov	rdi, rax
	call	_ZNSt16allocator_traitsISaIcEE10deallocateERS0_Pcm
.L228:
	nop
	leave
	.cfi_def_cfa 7, 8
	ret
	.cfi_endproc
.LFE11114:
	.size	_ZNSt12_Vector_baseIcSaIcEE13_M_deallocateEPcm, .-_ZNSt12_Vector_baseIcSaIcEE13_M_deallocateEPcm
	.section	.text._ZSt27__uninitialized_default_n_aIPcmcET_S1_T0_RSaIT1_E,"axG",@progbits,_ZSt27__uninitialized_default_n_aIPcmcET_S1_T0_RSaIT1_E,comdat
	.weak	_ZSt27__uninitialized_default_n_aIPcmcET_S1_T0_RSaIT1_E
	.type	_ZSt27__uninitialized_default_n_aIPcmcET_S1_T0_RSaIT1_E, @function
_ZSt27__uninitialized_default_n_aIPcmcET_S1_T0_RSaIT1_E:
.LFB11115:
	.cfi_startproc
	endbr64
	push	rbp
	.cfi_def_cfa_offset 16
	.cfi_offset 6, -16
	mov	rbp, rsp
	.cfi_def_cfa_register 6
	sub	rsp, 32
	mov	QWORD PTR -8[rbp], rdi
	mov	QWORD PTR -16[rbp], rsi
	mov	QWORD PTR -24[rbp], rdx
	mov	rdx, QWORD PTR -16[rbp]
	mov	rax, QWORD PTR -8[rbp]
	mov	rsi, rdx
	mov	rdi, rax
	call	_ZSt25__uninitialized_default_nIPcmET_S1_T0_
	leave
	.cfi_def_cfa 7, 8
	ret
	.cfi_endproc
.LFE11115:
	.size	_ZSt27__uninitialized_default_n_aIPcmcET_S1_T0_RSaIT1_E, .-_ZSt27__uninitialized_default_n_aIPcmcET_S1_T0_RSaIT1_E
	.section	.text._ZSt8_DestroyIPcEvT_S1_,"axG",@progbits,_ZSt8_DestroyIPcEvT_S1_,comdat
	.weak	_ZSt8_DestroyIPcEvT_S1_
	.type	_ZSt8_DestroyIPcEvT_S1_, @function
_ZSt8_DestroyIPcEvT_S1_:
.LFB11116:
	.cfi_startproc
	endbr64
	push	rbp
	.cfi_def_cfa_offset 16
	.cfi_offset 6, -16
	mov	rbp, rsp
	.cfi_def_cfa_register 6
	sub	rsp, 16
	mov	QWORD PTR -8[rbp], rdi
	mov	QWORD PTR -16[rbp], rsi
	mov	rdx, QWORD PTR -16[rbp]
	mov	rax, QWORD PTR -8[rbp]
	mov	rsi, rdx
	mov	rdi, rax
	call	_ZNSt12_Destroy_auxILb1EE9__destroyIPcEEvT_S3_
	nop
	leave
	.cfi_def_cfa 7, 8
	ret
	.cfi_endproc
.LFE11116:
	.size	_ZSt8_DestroyIPcEvT_S1_, .-_ZSt8_DestroyIPcEvT_S1_
	.section	.text._ZNSt6vectorIS_IcSaIcEESaIS1_EE16_Temporary_valueC2IJRKS1_EEEPS3_DpOT_,"axG",@progbits,_ZNSt6vectorIS_IcSaIcEESaIS1_EE16_Temporary_valueC5IJRKS1_EEEPS3_DpOT_,comdat
	.align 2
	.weak	_ZNSt6vectorIS_IcSaIcEESaIS1_EE16_Temporary_valueC2IJRKS1_EEEPS3_DpOT_
	.type	_ZNSt6vectorIS_IcSaIcEESaIS1_EE16_Temporary_valueC2IJRKS1_EEEPS3_DpOT_, @function
_ZNSt6vectorIS_IcSaIcEESaIS1_EE16_Temporary_valueC2IJRKS1_EEEPS3_DpOT_:
.LFB11119:
	.cfi_startproc
	endbr64
	push	rbp
	.cfi_def_cfa_offset 16
	.cfi_offset 6, -16
	mov	rbp, rsp
	.cfi_def_cfa_register 6
	push	rbx
	sub	rsp, 40
	.cfi_offset 3, -24
	mov	QWORD PTR -24[rbp], rdi
	mov	QWORD PTR -32[rbp], rsi
	mov	QWORD PTR -40[rbp], rdx
	mov	rax, QWORD PTR -24[rbp]
	mov	rdx, QWORD PTR -32[rbp]
	mov	QWORD PTR [rax], rdx
	mov	rax, QWORD PTR -40[rbp]
	mov	rdi, rax
	call	_ZSt7forwardIRKSt6vectorIcSaIcEEEOT_RNSt16remove_referenceIS5_E4typeE
	mov	rbx, rax
	mov	rax, QWORD PTR -24[rbp]
	mov	rdi, rax
	call	_ZNSt6vectorIS_IcSaIcEESaIS1_EE16_Temporary_value6_M_ptrEv
	mov	rcx, rax
	mov	rax, QWORD PTR -24[rbp]
	mov	rax, QWORD PTR [rax]
	mov	rdx, rbx
	mov	rsi, rcx
	mov	rdi, rax
	call	_ZNSt16allocator_traitsISaISt6vectorIcSaIcEEEE9constructIS2_JRKS2_EEEvRS3_PT_DpOT0_
	nop
	mov	rbx, QWORD PTR -8[rbp]
	leave
	.cfi_def_cfa 7, 8
	ret
	.cfi_endproc
.LFE11119:
	.size	_ZNSt6vectorIS_IcSaIcEESaIS1_EE16_Temporary_valueC2IJRKS1_EEEPS3_DpOT_, .-_ZNSt6vectorIS_IcSaIcEESaIS1_EE16_Temporary_valueC2IJRKS1_EEEPS3_DpOT_
	.weak	_ZNSt6vectorIS_IcSaIcEESaIS1_EE16_Temporary_valueC1IJRKS1_EEEPS3_DpOT_
	.set	_ZNSt6vectorIS_IcSaIcEESaIS1_EE16_Temporary_valueC1IJRKS1_EEEPS3_DpOT_,_ZNSt6vectorIS_IcSaIcEESaIS1_EE16_Temporary_valueC2IJRKS1_EEEPS3_DpOT_
	.section	.text._ZNSt6vectorIS_IcSaIcEESaIS1_EE16_Temporary_valueD2Ev,"axG",@progbits,_ZNSt6vectorIS_IcSaIcEESaIS1_EE16_Temporary_valueD5Ev,comdat
	.align 2
	.weak	_ZNSt6vectorIS_IcSaIcEESaIS1_EE16_Temporary_valueD2Ev
	.type	_ZNSt6vectorIS_IcSaIcEESaIS1_EE16_Temporary_valueD2Ev, @function
_ZNSt6vectorIS_IcSaIcEESaIS1_EE16_Temporary_valueD2Ev:
.LFB11122:
	.cfi_startproc
	endbr64
	push	rbp
	.cfi_def_cfa_offset 16
	.cfi_offset 6, -16
	mov	rbp, rsp
	.cfi_def_cfa_register 6
	sub	rsp, 16
	mov	QWORD PTR -8[rbp], rdi
	mov	rax, QWORD PTR -8[rbp]
	mov	rdi, rax
	call	_ZNSt6vectorIS_IcSaIcEESaIS1_EE16_Temporary_value6_M_ptrEv
	mov	rdx, rax
	mov	rax, QWORD PTR -8[rbp]
	mov	rax, QWORD PTR [rax]
	mov	rsi, rdx
	mov	rdi, rax
	call	_ZNSt16allocator_traitsISaISt6vectorIcSaIcEEEE7destroyIS2_EEvRS3_PT_
	nop
	leave
	.cfi_def_cfa 7, 8
	ret
	.cfi_endproc
.LFE11122:
	.size	_ZNSt6vectorIS_IcSaIcEESaIS1_EE16_Temporary_valueD2Ev, .-_ZNSt6vectorIS_IcSaIcEESaIS1_EE16_Temporary_valueD2Ev
	.weak	_ZNSt6vectorIS_IcSaIcEESaIS1_EE16_Temporary_valueD1Ev
	.set	_ZNSt6vectorIS_IcSaIcEESaIS1_EE16_Temporary_valueD1Ev,_ZNSt6vectorIS_IcSaIcEESaIS1_EE16_Temporary_valueD2Ev
	.section	.text._ZNSt6vectorIS_IcSaIcEESaIS1_EE16_Temporary_value6_M_valEv,"axG",@progbits,_ZNSt6vectorIS_IcSaIcEESaIS1_EE16_Temporary_value6_M_valEv,comdat
	.align 2
	.weak	_ZNSt6vectorIS_IcSaIcEESaIS1_EE16_Temporary_value6_M_valEv
	.type	_ZNSt6vectorIS_IcSaIcEESaIS1_EE16_Temporary_value6_M_valEv, @function
_ZNSt6vectorIS_IcSaIcEESaIS1_EE16_Temporary_value6_M_valEv:
.LFB11124:
	.cfi_startproc
	endbr64
	push	rbp
	.cfi_def_cfa_offset 16
	.cfi_offset 6, -16
	mov	rbp, rsp
	.cfi_def_cfa_register 6
	sub	rsp, 16
	mov	QWORD PTR -8[rbp], rdi
	mov	rax, QWORD PTR -8[rbp]
	mov	rdi, rax
	call	_ZNSt6vectorIS_IcSaIcEESaIS1_EE16_Temporary_value6_M_ptrEv
	leave
	.cfi_def_cfa 7, 8
	ret
	.cfi_endproc
.LFE11124:
	.size	_ZNSt6vectorIS_IcSaIcEESaIS1_EE16_Temporary_value6_M_valEv, .-_ZNSt6vectorIS_IcSaIcEESaIS1_EE16_Temporary_value6_M_valEv
	.section	.text._ZN9__gnu_cxxmiIPSt6vectorIcSaIcEES1_IS3_SaIS3_EEEENS_17__normal_iteratorIT_T0_E15difference_typeERKSA_SD_,"axG",@progbits,_ZN9__gnu_cxxmiIPSt6vectorIcSaIcEES1_IS3_SaIS3_EEEENS_17__normal_iteratorIT_T0_E15difference_typeERKSA_SD_,comdat
	.weak	_ZN9__gnu_cxxmiIPSt6vectorIcSaIcEES1_IS3_SaIS3_EEEENS_17__normal_iteratorIT_T0_E15difference_typeERKSA_SD_
	.type	_ZN9__gnu_cxxmiIPSt6vectorIcSaIcEES1_IS3_SaIS3_EEEENS_17__normal_iteratorIT_T0_E15difference_typeERKSA_SD_, @function
_ZN9__gnu_cxxmiIPSt6vectorIcSaIcEES1_IS3_SaIS3_EEEENS_17__normal_iteratorIT_T0_E15difference_typeERKSA_SD_:
.LFB11125:
	.cfi_startproc
	endbr64
	push	rbp
	.cfi_def_cfa_offset 16
	.cfi_offset 6, -16
	mov	rbp, rsp
	.cfi_def_cfa_register 6
	push	rbx
	sub	rsp, 24
	.cfi_offset 3, -24
	mov	QWORD PTR -24[rbp], rdi
	mov	QWORD PTR -32[rbp], rsi
	mov	rax, QWORD PTR -24[rbp]
	mov	rdi, rax
	call	_ZNK9__gnu_cxx17__normal_iteratorIPSt6vectorIcSaIcEES1_IS3_SaIS3_EEE4baseEv
	mov	rbx, QWORD PTR [rax]
	mov	rax, QWORD PTR -32[rbp]
	mov	rdi, rax
	call	_ZNK9__gnu_cxx17__normal_iteratorIPSt6vectorIcSaIcEES1_IS3_SaIS3_EEE4baseEv
	mov	rdx, QWORD PTR [rax]
	mov	rax, rbx
	sub	rax, rdx
	sar	rax, 3
	mov	rdx, rax
	movabs	rax, -6148914691236517205
	imul	rax, rdx
	mov	rbx, QWORD PTR -8[rbp]
	leave
	.cfi_def_cfa 7, 8
	ret
	.cfi_endproc
.LFE11125:
	.size	_ZN9__gnu_cxxmiIPSt6vectorIcSaIcEES1_IS3_SaIS3_EEEENS_17__normal_iteratorIT_T0_E15difference_typeERKSA_SD_, .-_ZN9__gnu_cxxmiIPSt6vectorIcSaIcEES1_IS3_SaIS3_EEEENS_17__normal_iteratorIT_T0_E15difference_typeERKSA_SD_
	.section	.text._ZNSt12_Vector_baseISt6vectorIcSaIcEESaIS2_EE19_M_get_Tp_allocatorEv,"axG",@progbits,_ZNSt12_Vector_baseISt6vectorIcSaIcEESaIS2_EE19_M_get_Tp_allocatorEv,comdat
	.align 2
	.weak	_ZNSt12_Vector_baseISt6vectorIcSaIcEESaIS2_EE19_M_get_Tp_allocatorEv
	.type	_ZNSt12_Vector_baseISt6vectorIcSaIcEESaIS2_EE19_M_get_Tp_allocatorEv, @function
_ZNSt12_Vector_baseISt6vectorIcSaIcEESaIS2_EE19_M_get_Tp_allocatorEv:
.LFB11126:
	.cfi_startproc
	endbr64
	push	rbp
	.cfi_def_cfa_offset 16
	.cfi_offset 6, -16
	mov	rbp, rsp
	.cfi_def_cfa_register 6
	mov	QWORD PTR -8[rbp], rdi
	mov	rax, QWORD PTR -8[rbp]
	pop	rbp
	.cfi_def_cfa 7, 8
	ret
	.cfi_endproc
.LFE11126:
	.size	_ZNSt12_Vector_baseISt6vectorIcSaIcEESaIS2_EE19_M_get_Tp_allocatorEv, .-_ZNSt12_Vector_baseISt6vectorIcSaIcEESaIS2_EE19_M_get_Tp_allocatorEv
	.section	.text._ZSt22__uninitialized_move_aIPSt6vectorIcSaIcEES3_SaIS2_EET0_T_S6_S5_RT1_,"axG",@progbits,_ZSt22__uninitialized_move_aIPSt6vectorIcSaIcEES3_SaIS2_EET0_T_S6_S5_RT1_,comdat
	.weak	_ZSt22__uninitialized_move_aIPSt6vectorIcSaIcEES3_SaIS2_EET0_T_S6_S5_RT1_
	.type	_ZSt22__uninitialized_move_aIPSt6vectorIcSaIcEES3_SaIS2_EET0_T_S6_S5_RT1_, @function
_ZSt22__uninitialized_move_aIPSt6vectorIcSaIcEES3_SaIS2_EET0_T_S6_S5_RT1_:
.LFB11127:
	.cfi_startproc
	endbr64
	push	rbp
	.cfi_def_cfa_offset 16
	.cfi_offset 6, -16
	mov	rbp, rsp
	.cfi_def_cfa_register 6
	push	rbx
	sub	rsp, 40
	.cfi_offset 3, -24
	mov	QWORD PTR -24[rbp], rdi
	mov	QWORD PTR -32[rbp], rsi
	mov	QWORD PTR -40[rbp], rdx
	mov	QWORD PTR -48[rbp], rcx
	mov	rax, QWORD PTR -32[rbp]
	mov	rdi, rax
	call	_ZSt18make_move_iteratorIPSt6vectorIcSaIcEEESt13move_iteratorIT_ES5_
	mov	rbx, rax
	mov	rax, QWORD PTR -24[rbp]
	mov	rdi, rax
	call	_ZSt18make_move_iteratorIPSt6vectorIcSaIcEEESt13move_iteratorIT_ES5_
	mov	rdi, rax
	mov	rdx, QWORD PTR -48[rbp]
	mov	rax, QWORD PTR -40[rbp]
	mov	rcx, rdx
	mov	rdx, rax
	mov	rsi, rbx
	call	_ZSt22__uninitialized_copy_aISt13move_iteratorIPSt6vectorIcSaIcEEES4_S3_ET0_T_S7_S6_RSaIT1_E
	mov	rbx, QWORD PTR -8[rbp]
	leave
	.cfi_def_cfa 7, 8
	ret
	.cfi_endproc
.LFE11127:
	.size	_ZSt22__uninitialized_move_aIPSt6vectorIcSaIcEES3_SaIS2_EET0_T_S6_S5_RT1_, .-_ZSt22__uninitialized_move_aIPSt6vectorIcSaIcEES3_SaIS2_EET0_T_S6_S5_RT1_
	.section	.text._ZNK9__gnu_cxx17__normal_iteratorIPSt6vectorIcSaIcEES1_IS3_SaIS3_EEE4baseEv,"axG",@progbits,_ZNK9__gnu_cxx17__normal_iteratorIPSt6vectorIcSaIcEES1_IS3_SaIS3_EEE4baseEv,comdat
	.align 2
	.weak	_ZNK9__gnu_cxx17__normal_iteratorIPSt6vectorIcSaIcEES1_IS3_SaIS3_EEE4baseEv
	.type	_ZNK9__gnu_cxx17__normal_iteratorIPSt6vectorIcSaIcEES1_IS3_SaIS3_EEE4baseEv, @function
_ZNK9__gnu_cxx17__normal_iteratorIPSt6vectorIcSaIcEES1_IS3_SaIS3_EEE4baseEv:
.LFB11128:
	.cfi_startproc
	endbr64
	push	rbp
	.cfi_def_cfa_offset 16
	.cfi_offset 6, -16
	mov	rbp, rsp
	.cfi_def_cfa_register 6
	mov	QWORD PTR -8[rbp], rdi
	mov	rax, QWORD PTR -8[rbp]
	pop	rbp
	.cfi_def_cfa 7, 8
	ret
	.cfi_endproc
.LFE11128:
	.size	_ZNK9__gnu_cxx17__normal_iteratorIPSt6vectorIcSaIcEES1_IS3_SaIS3_EEE4baseEv, .-_ZNK9__gnu_cxx17__normal_iteratorIPSt6vectorIcSaIcEES1_IS3_SaIS3_EEE4baseEv
	.section	.text._ZSt13move_backwardIPSt6vectorIcSaIcEES3_ET0_T_S5_S4_,"axG",@progbits,_ZSt13move_backwardIPSt6vectorIcSaIcEES3_ET0_T_S5_S4_,comdat
	.weak	_ZSt13move_backwardIPSt6vectorIcSaIcEES3_ET0_T_S5_S4_
	.type	_ZSt13move_backwardIPSt6vectorIcSaIcEES3_ET0_T_S5_S4_, @function
_ZSt13move_backwardIPSt6vectorIcSaIcEES3_ET0_T_S5_S4_:
.LFB11129:
	.cfi_startproc
	endbr64
	push	rbp
	.cfi_def_cfa_offset 16
	.cfi_offset 6, -16
	mov	rbp, rsp
	.cfi_def_cfa_register 6
	push	rbx
	sub	rsp, 40
	.cfi_offset 3, -24
	mov	QWORD PTR -24[rbp], rdi
	mov	QWORD PTR -32[rbp], rsi
	mov	QWORD PTR -40[rbp], rdx
	mov	rax, QWORD PTR -32[rbp]
	mov	rdi, rax
	call	_ZSt12__miter_baseIPSt6vectorIcSaIcEEET_S4_
	mov	rbx, rax
	mov	rax, QWORD PTR -24[rbp]
	mov	rdi, rax
	call	_ZSt12__miter_baseIPSt6vectorIcSaIcEEET_S4_
	mov	rcx, rax
	mov	rax, QWORD PTR -40[rbp]
	mov	rdx, rax
	mov	rsi, rbx
	mov	rdi, rcx
	call	_ZSt22__copy_move_backward_aILb1EPSt6vectorIcSaIcEES3_ET1_T0_S5_S4_
	mov	rbx, QWORD PTR -8[rbp]
	leave
	.cfi_def_cfa 7, 8
	ret
	.cfi_endproc
.LFE11129:
	.size	_ZSt13move_backwardIPSt6vectorIcSaIcEES3_ET0_T_S5_S4_, .-_ZSt13move_backwardIPSt6vectorIcSaIcEES3_ET0_T_S5_S4_
	.section	.text._ZSt4fillIPSt6vectorIcSaIcEES2_EvT_S4_RKT0_,"axG",@progbits,_ZSt4fillIPSt6vectorIcSaIcEES2_EvT_S4_RKT0_,comdat
	.weak	_ZSt4fillIPSt6vectorIcSaIcEES2_EvT_S4_RKT0_
	.type	_ZSt4fillIPSt6vectorIcSaIcEES2_EvT_S4_RKT0_, @function
_ZSt4fillIPSt6vectorIcSaIcEES2_EvT_S4_RKT0_:
.LFB11130:
	.cfi_startproc
	endbr64
	push	rbp
	.cfi_def_cfa_offset 16
	.cfi_offset 6, -16
	mov	rbp, rsp
	.cfi_def_cfa_register 6
	sub	rsp, 32
	mov	QWORD PTR -8[rbp], rdi
	mov	QWORD PTR -16[rbp], rsi
	mov	QWORD PTR -24[rbp], rdx
	mov	rdx, QWORD PTR -24[rbp]
	mov	rcx, QWORD PTR -16[rbp]
	mov	rax, QWORD PTR -8[rbp]
	mov	rsi, rcx
	mov	rdi, rax
	call	_ZSt8__fill_aIPSt6vectorIcSaIcEES2_EvT_S4_RKT0_
	nop
	leave
	.cfi_def_cfa 7, 8
	ret
	.cfi_endproc
.LFE11130:
	.size	_ZSt4fillIPSt6vectorIcSaIcEES2_EvT_S4_RKT0_, .-_ZSt4fillIPSt6vectorIcSaIcEES2_EvT_S4_RKT0_
	.section	.text._ZSt24__uninitialized_fill_n_aIPSt6vectorIcSaIcEEmS2_S2_ET_S4_T0_RKT1_RSaIT2_E,"axG",@progbits,_ZSt24__uninitialized_fill_n_aIPSt6vectorIcSaIcEEmS2_S2_ET_S4_T0_RKT1_RSaIT2_E,comdat
	.weak	_ZSt24__uninitialized_fill_n_aIPSt6vectorIcSaIcEEmS2_S2_ET_S4_T0_RKT1_RSaIT2_E
	.type	_ZSt24__uninitialized_fill_n_aIPSt6vectorIcSaIcEEmS2_S2_ET_S4_T0_RKT1_RSaIT2_E, @function
_ZSt24__uninitialized_fill_n_aIPSt6vectorIcSaIcEEmS2_S2_ET_S4_T0_RKT1_RSaIT2_E:
.LFB11131:
	.cfi_startproc
	endbr64
	push	rbp
	.cfi_def_cfa_offset 16
	.cfi_offset 6, -16
	mov	rbp, rsp
	.cfi_def_cfa_register 6
	sub	rsp, 32
	mov	QWORD PTR -8[rbp], rdi
	mov	QWORD PTR -16[rbp], rsi
	mov	QWORD PTR -24[rbp], rdx
	mov	QWORD PTR -32[rbp], rcx
	mov	rdx, QWORD PTR -24[rbp]
	mov	rcx, QWORD PTR -16[rbp]
	mov	rax, QWORD PTR -8[rbp]
	mov	rsi, rcx
	mov	rdi, rax
	call	_ZSt20uninitialized_fill_nIPSt6vectorIcSaIcEEmS2_ET_S4_T0_RKT1_
	leave
	.cfi_def_cfa 7, 8
	ret
	.cfi_endproc
.LFE11131:
	.size	_ZSt24__uninitialized_fill_n_aIPSt6vectorIcSaIcEEmS2_S2_ET_S4_T0_RKT1_RSaIT2_E, .-_ZSt24__uninitialized_fill_n_aIPSt6vectorIcSaIcEEmS2_S2_ET_S4_T0_RKT1_RSaIT2_E
	.section	.text._ZNKSt6vectorIS_IcSaIcEESaIS1_EE12_M_check_lenEmPKc,"axG",@progbits,_ZNKSt6vectorIS_IcSaIcEESaIS1_EE12_M_check_lenEmPKc,comdat
	.align 2
	.weak	_ZNKSt6vectorIS_IcSaIcEESaIS1_EE12_M_check_lenEmPKc
	.type	_ZNKSt6vectorIS_IcSaIcEESaIS1_EE12_M_check_lenEmPKc, @function
_ZNKSt6vectorIS_IcSaIcEESaIS1_EE12_M_check_lenEmPKc:
.LFB11132:
	.cfi_startproc
	endbr64
	push	rbp
	.cfi_def_cfa_offset 16
	.cfi_offset 6, -16
	mov	rbp, rsp
	.cfi_def_cfa_register 6
	push	rbx
	sub	rsp, 72
	.cfi_offset 3, -24
	mov	QWORD PTR -56[rbp], rdi
	mov	QWORD PTR -64[rbp], rsi
	mov	QWORD PTR -72[rbp], rdx
	mov	rax, QWORD PTR fs:40
	mov	QWORD PTR -24[rbp], rax
	xor	eax, eax
	mov	rax, QWORD PTR -56[rbp]
	mov	rdi, rax
	call	_ZNKSt6vectorIS_IcSaIcEESaIS1_EE8max_sizeEv
	mov	rbx, rax
	mov	rax, QWORD PTR -56[rbp]
	mov	rdi, rax
	call	_ZNKSt6vectorIS_IcSaIcEESaIS1_EE4sizeEv
	sub	rbx, rax
	mov	rdx, rbx
	mov	rax, QWORD PTR -64[rbp]
	cmp	rdx, rax
	setb	al
	test	al, al
	je	.L250
	mov	rax, QWORD PTR -72[rbp]
	mov	rdi, rax
	call	_ZSt20__throw_length_errorPKc@PLT
.L250:
	mov	rax, QWORD PTR -56[rbp]
	mov	rdi, rax
	call	_ZNKSt6vectorIS_IcSaIcEESaIS1_EE4sizeEv
	mov	rbx, rax
	mov	rax, QWORD PTR -56[rbp]
	mov	rdi, rax
	call	_ZNKSt6vectorIS_IcSaIcEESaIS1_EE4sizeEv
	mov	QWORD PTR -40[rbp], rax
	lea	rdx, -64[rbp]
	lea	rax, -40[rbp]
	mov	rsi, rdx
	mov	rdi, rax
	call	_ZSt3maxImERKT_S2_S2_
	mov	rax, QWORD PTR [rax]
	add	rax, rbx
	mov	QWORD PTR -32[rbp], rax
	mov	rax, QWORD PTR -56[rbp]
	mov	rdi, rax
	call	_ZNKSt6vectorIS_IcSaIcEESaIS1_EE4sizeEv
	cmp	QWORD PTR -32[rbp], rax
	jb	.L251
	mov	rax, QWORD PTR -56[rbp]
	mov	rdi, rax
	call	_ZNKSt6vectorIS_IcSaIcEESaIS1_EE8max_sizeEv
	cmp	QWORD PTR -32[rbp], rax
	jbe	.L252
.L251:
	mov	rax, QWORD PTR -56[rbp]
	mov	rdi, rax
	call	_ZNKSt6vectorIS_IcSaIcEESaIS1_EE8max_sizeEv
	jmp	.L253
.L252:
	mov	rax, QWORD PTR -32[rbp]
.L253:
	mov	rdx, QWORD PTR -24[rbp]
	sub	rdx, QWORD PTR fs:40
	je	.L255
	call	__stack_chk_fail@PLT
.L255:
	mov	rbx, QWORD PTR -8[rbp]
	leave
	.cfi_def_cfa 7, 8
	ret
	.cfi_endproc
.LFE11132:
	.size	_ZNKSt6vectorIS_IcSaIcEESaIS1_EE12_M_check_lenEmPKc, .-_ZNKSt6vectorIS_IcSaIcEESaIS1_EE12_M_check_lenEmPKc
	.section	.text._ZNSt6vectorIS_IcSaIcEESaIS1_EE5beginEv,"axG",@progbits,_ZNSt6vectorIS_IcSaIcEESaIS1_EE5beginEv,comdat
	.align 2
	.weak	_ZNSt6vectorIS_IcSaIcEESaIS1_EE5beginEv
	.type	_ZNSt6vectorIS_IcSaIcEESaIS1_EE5beginEv, @function
_ZNSt6vectorIS_IcSaIcEESaIS1_EE5beginEv:
.LFB11133:
	.cfi_startproc
	endbr64
	push	rbp
	.cfi_def_cfa_offset 16
	.cfi_offset 6, -16
	mov	rbp, rsp
	.cfi_def_cfa_register 6
	sub	rsp, 32
	mov	QWORD PTR -24[rbp], rdi
	mov	rax, QWORD PTR fs:40
	mov	QWORD PTR -8[rbp], rax
	xor	eax, eax
	mov	rdx, QWORD PTR -24[rbp]
	lea	rax, -16[rbp]
	mov	rsi, rdx
	mov	rdi, rax
	call	_ZN9__gnu_cxx17__normal_iteratorIPSt6vectorIcSaIcEES1_IS3_SaIS3_EEEC1ERKS4_
	mov	rax, QWORD PTR -16[rbp]
	mov	rdx, QWORD PTR -8[rbp]
	sub	rdx, QWORD PTR fs:40
	je	.L258
	call	__stack_chk_fail@PLT
.L258:
	leave
	.cfi_def_cfa 7, 8
	ret
	.cfi_endproc
.LFE11133:
	.size	_ZNSt6vectorIS_IcSaIcEESaIS1_EE5beginEv, .-_ZNSt6vectorIS_IcSaIcEESaIS1_EE5beginEv
	.section	.text._ZNSt12_Vector_baseISt6vectorIcSaIcEESaIS2_EE11_M_allocateEm,"axG",@progbits,_ZNSt12_Vector_baseISt6vectorIcSaIcEESaIS2_EE11_M_allocateEm,comdat
	.align 2
	.weak	_ZNSt12_Vector_baseISt6vectorIcSaIcEESaIS2_EE11_M_allocateEm
	.type	_ZNSt12_Vector_baseISt6vectorIcSaIcEESaIS2_EE11_M_allocateEm, @function
_ZNSt12_Vector_baseISt6vectorIcSaIcEESaIS2_EE11_M_allocateEm:
.LFB11134:
	.cfi_startproc
	endbr64
	push	rbp
	.cfi_def_cfa_offset 16
	.cfi_offset 6, -16
	mov	rbp, rsp
	.cfi_def_cfa_register 6
	sub	rsp, 16
	mov	QWORD PTR -8[rbp], rdi
	mov	QWORD PTR -16[rbp], rsi
	cmp	QWORD PTR -16[rbp], 0
	je	.L260
	mov	rax, QWORD PTR -8[rbp]
	mov	rdx, QWORD PTR -16[rbp]
	mov	rsi, rdx
	mov	rdi, rax
	call	_ZNSt16allocator_traitsISaISt6vectorIcSaIcEEEE8allocateERS3_m
	jmp	.L262
.L260:
	mov	eax, 0
.L262:
	leave
	.cfi_def_cfa 7, 8
	ret
	.cfi_endproc
.LFE11134:
	.size	_ZNSt12_Vector_baseISt6vectorIcSaIcEESaIS2_EE11_M_allocateEm, .-_ZNSt12_Vector_baseISt6vectorIcSaIcEESaIS2_EE11_M_allocateEm
	.section	.text._ZSt34__uninitialized_move_if_noexcept_aIPSt6vectorIcSaIcEES3_SaIS2_EET0_T_S6_S5_RT1_,"axG",@progbits,_ZSt34__uninitialized_move_if_noexcept_aIPSt6vectorIcSaIcEES3_SaIS2_EET0_T_S6_S5_RT1_,comdat
	.weak	_ZSt34__uninitialized_move_if_noexcept_aIPSt6vectorIcSaIcEES3_SaIS2_EET0_T_S6_S5_RT1_
	.type	_ZSt34__uninitialized_move_if_noexcept_aIPSt6vectorIcSaIcEES3_SaIS2_EET0_T_S6_S5_RT1_, @function
_ZSt34__uninitialized_move_if_noexcept_aIPSt6vectorIcSaIcEES3_SaIS2_EET0_T_S6_S5_RT1_:
.LFB11135:
	.cfi_startproc
	endbr64
	push	rbp
	.cfi_def_cfa_offset 16
	.cfi_offset 6, -16
	mov	rbp, rsp
	.cfi_def_cfa_register 6
	push	rbx
	sub	rsp, 40
	.cfi_offset 3, -24
	mov	QWORD PTR -24[rbp], rdi
	mov	QWORD PTR -32[rbp], rsi
	mov	QWORD PTR -40[rbp], rdx
	mov	QWORD PTR -48[rbp], rcx
	mov	rax, QWORD PTR -32[rbp]
	mov	rdi, rax
	call	_ZSt32__make_move_if_noexcept_iteratorISt6vectorIcSaIcEESt13move_iteratorIPS2_EET0_PT_
	mov	rbx, rax
	mov	rax, QWORD PTR -24[rbp]
	mov	rdi, rax
	call	_ZSt32__make_move_if_noexcept_iteratorISt6vectorIcSaIcEESt13move_iteratorIPS2_EET0_PT_
	mov	rdi, rax
	mov	rdx, QWORD PTR -48[rbp]
	mov	rax, QWORD PTR -40[rbp]
	mov	rcx, rdx
	mov	rdx, rax
	mov	rsi, rbx
	call	_ZSt22__uninitialized_copy_aISt13move_iteratorIPSt6vectorIcSaIcEEES4_S3_ET0_T_S7_S6_RSaIT1_E
	mov	rbx, QWORD PTR -8[rbp]
	leave
	.cfi_def_cfa 7, 8
	ret
	.cfi_endproc
.LFE11135:
	.size	_ZSt34__uninitialized_move_if_noexcept_aIPSt6vectorIcSaIcEES3_SaIS2_EET0_T_S6_S5_RT1_, .-_ZSt34__uninitialized_move_if_noexcept_aIPSt6vectorIcSaIcEES3_SaIS2_EET0_T_S6_S5_RT1_
	.section	.text._ZSt8_DestroyIPSt6vectorIcSaIcEES2_EvT_S4_RSaIT0_E,"axG",@progbits,_ZSt8_DestroyIPSt6vectorIcSaIcEES2_EvT_S4_RSaIT0_E,comdat
	.weak	_ZSt8_DestroyIPSt6vectorIcSaIcEES2_EvT_S4_RSaIT0_E
	.type	_ZSt8_DestroyIPSt6vectorIcSaIcEES2_EvT_S4_RSaIT0_E, @function
_ZSt8_DestroyIPSt6vectorIcSaIcEES2_EvT_S4_RSaIT0_E:
.LFB11136:
	.cfi_startproc
	endbr64
	push	rbp
	.cfi_def_cfa_offset 16
	.cfi_offset 6, -16
	mov	rbp, rsp
	.cfi_def_cfa_register 6
	sub	rsp, 32
	mov	QWORD PTR -8[rbp], rdi
	mov	QWORD PTR -16[rbp], rsi
	mov	QWORD PTR -24[rbp], rdx
	mov	rdx, QWORD PTR -16[rbp]
	mov	rax, QWORD PTR -8[rbp]
	mov	rsi, rdx
	mov	rdi, rax
	call	_ZSt8_DestroyIPSt6vectorIcSaIcEEEvT_S4_
	nop
	leave
	.cfi_def_cfa 7, 8
	ret
	.cfi_endproc
.LFE11136:
	.size	_ZSt8_DestroyIPSt6vectorIcSaIcEES2_EvT_S4_RSaIT0_E, .-_ZSt8_DestroyIPSt6vectorIcSaIcEES2_EvT_S4_RSaIT0_E
	.section	.text._ZN9__gnu_cxx17__normal_iteratorIPSt6vectorIcSaIcEES1_IS3_SaIS3_EEEC2ERKS4_,"axG",@progbits,_ZN9__gnu_cxx17__normal_iteratorIPSt6vectorIcSaIcEES1_IS3_SaIS3_EEEC5ERKS4_,comdat
	.align 2
	.weak	_ZN9__gnu_cxx17__normal_iteratorIPSt6vectorIcSaIcEES1_IS3_SaIS3_EEEC2ERKS4_
	.type	_ZN9__gnu_cxx17__normal_iteratorIPSt6vectorIcSaIcEES1_IS3_SaIS3_EEEC2ERKS4_, @function
_ZN9__gnu_cxx17__normal_iteratorIPSt6vectorIcSaIcEES1_IS3_SaIS3_EEEC2ERKS4_:
.LFB11138:
	.cfi_startproc
	endbr64
	push	rbp
	.cfi_def_cfa_offset 16
	.cfi_offset 6, -16
	mov	rbp, rsp
	.cfi_def_cfa_register 6
	mov	QWORD PTR -8[rbp], rdi
	mov	QWORD PTR -16[rbp], rsi
	mov	rax, QWORD PTR -16[rbp]
	mov	rdx, QWORD PTR [rax]
	mov	rax, QWORD PTR -8[rbp]
	mov	QWORD PTR [rax], rdx
	nop
	pop	rbp
	.cfi_def_cfa 7, 8
	ret
	.cfi_endproc
.LFE11138:
	.size	_ZN9__gnu_cxx17__normal_iteratorIPSt6vectorIcSaIcEES1_IS3_SaIS3_EEEC2ERKS4_, .-_ZN9__gnu_cxx17__normal_iteratorIPSt6vectorIcSaIcEES1_IS3_SaIS3_EEEC2ERKS4_
	.weak	_ZN9__gnu_cxx17__normal_iteratorIPSt6vectorIcSaIcEES1_IS3_SaIS3_EEEC1ERKS4_
	.set	_ZN9__gnu_cxx17__normal_iteratorIPSt6vectorIcSaIcEES1_IS3_SaIS3_EEEC1ERKS4_,_ZN9__gnu_cxx17__normal_iteratorIPSt6vectorIcSaIcEES1_IS3_SaIS3_EEEC2ERKS4_
	.section	.text._ZNSt13_Bvector_baseISaIbEEC2ERKS0_,"axG",@progbits,_ZNSt13_Bvector_baseISaIbEEC5ERKS0_,comdat
	.align 2
	.weak	_ZNSt13_Bvector_baseISaIbEEC2ERKS0_
	.type	_ZNSt13_Bvector_baseISaIbEEC2ERKS0_, @function
_ZNSt13_Bvector_baseISaIbEEC2ERKS0_:
.LFB11141:
	.cfi_startproc
	endbr64
	push	rbp
	.cfi_def_cfa_offset 16
	.cfi_offset 6, -16
	mov	rbp, rsp
	.cfi_def_cfa_register 6
	push	rbx
	sub	rsp, 40
	.cfi_offset 3, -24
	mov	QWORD PTR -40[rbp], rdi
	mov	QWORD PTR -48[rbp], rsi
	mov	rax, QWORD PTR fs:40
	mov	QWORD PTR -24[rbp], rax
	xor	eax, eax
	mov	rbx, QWORD PTR -40[rbp]
	mov	rdx, QWORD PTR -48[rbp]
	lea	rax, -25[rbp]
	mov	rsi, rdx
	mov	rdi, rax
	call	_ZNSaImEC1IbEERKSaIT_E
	lea	rax, -25[rbp]
	mov	rsi, rax
	mov	rdi, rbx
	call	_ZNSt13_Bvector_baseISaIbEE13_Bvector_implC1ERKSaImE
	lea	rax, -25[rbp]
	mov	rdi, rax
	call	_ZNSaImED1Ev
	nop
	mov	rax, QWORD PTR -24[rbp]
	sub	rax, QWORD PTR fs:40
	je	.L268
	call	__stack_chk_fail@PLT
.L268:
	mov	rbx, QWORD PTR -8[rbp]
	leave
	.cfi_def_cfa 7, 8
	ret
	.cfi_endproc
.LFE11141:
	.size	_ZNSt13_Bvector_baseISaIbEEC2ERKS0_, .-_ZNSt13_Bvector_baseISaIbEEC2ERKS0_
	.weak	_ZNSt13_Bvector_baseISaIbEEC1ERKS0_
	.set	_ZNSt13_Bvector_baseISaIbEEC1ERKS0_,_ZNSt13_Bvector_baseISaIbEEC2ERKS0_
	.section	.text._ZNSt6vectorIbSaIbEE13_M_initializeEm,"axG",@progbits,_ZNSt6vectorIbSaIbEE13_M_initializeEm,comdat
	.align 2
	.weak	_ZNSt6vectorIbSaIbEE13_M_initializeEm
	.type	_ZNSt6vectorIbSaIbEE13_M_initializeEm, @function
_ZNSt6vectorIbSaIbEE13_M_initializeEm:
.LFB11143:
	.cfi_startproc
	endbr64
	push	rbp
	.cfi_def_cfa_offset 16
	.cfi_offset 6, -16
	mov	rbp, rsp
	.cfi_def_cfa_register 6
	sub	rsp, 80
	mov	QWORD PTR -72[rbp], rdi
	mov	QWORD PTR -80[rbp], rsi
	mov	rax, QWORD PTR fs:40
	mov	QWORD PTR -8[rbp], rax
	xor	eax, eax
	cmp	QWORD PTR -80[rbp], 0
	je	.L272
	mov	rax, QWORD PTR -72[rbp]
	mov	rdx, QWORD PTR -80[rbp]
	mov	rsi, rdx
	mov	rdi, rax
	call	_ZNSt13_Bvector_baseISaIbEE11_M_allocateEm
	mov	QWORD PTR -56[rbp], rax
	mov	rax, QWORD PTR -80[rbp]
	mov	rdi, rax
	call	_ZNSt13_Bvector_baseISaIbEE8_S_nwordEm
	lea	rdx, 0[0+rax*8]
	mov	rax, QWORD PTR -56[rbp]
	add	rdx, rax
	mov	rax, QWORD PTR -72[rbp]
	mov	QWORD PTR 32[rax], rdx
	mov	rax, QWORD PTR -56[rbp]
	mov	rdi, rax
	call	_ZSt11__addressofImEPT_RS0_
	mov	rcx, rax
	lea	rax, -48[rbp]
	mov	edx, 0
	mov	rsi, rcx
	mov	rdi, rax
	call	_ZNSt13_Bit_iteratorC1EPmj
	mov	rax, QWORD PTR -72[rbp]
	mov	rdx, QWORD PTR -48[rbp]
	mov	QWORD PTR [rax], rdx
	mov	edx, DWORD PTR -40[rbp]
	mov	DWORD PTR 8[rax], edx
	mov	rdx, QWORD PTR -80[rbp]
	lea	rax, -48[rbp]
	mov	rsi, rdx
	mov	rdi, rax
	call	_ZStplRKSt13_Bit_iteratorl
	mov	QWORD PTR -32[rbp], rax
	mov	QWORD PTR -24[rbp], rdx
	mov	rax, QWORD PTR -72[rbp]
	mov	rdx, QWORD PTR -32[rbp]
	mov	QWORD PTR 16[rax], rdx
	mov	edx, DWORD PTR -24[rbp]
	mov	DWORD PTR 24[rax], edx
.L272:
	nop
	mov	rax, QWORD PTR -8[rbp]
	sub	rax, QWORD PTR fs:40
	je	.L271
	call	__stack_chk_fail@PLT
.L271:
	leave
	.cfi_def_cfa 7, 8
	ret
	.cfi_endproc
.LFE11143:
	.size	_ZNSt6vectorIbSaIbEE13_M_initializeEm, .-_ZNSt6vectorIbSaIbEE13_M_initializeEm
	.section	.text._ZNSt6vectorIbSaIbEE19_M_initialize_valueEb,"axG",@progbits,_ZNSt6vectorIbSaIbEE19_M_initialize_valueEb,comdat
	.align 2
	.weak	_ZNSt6vectorIbSaIbEE19_M_initialize_valueEb
	.type	_ZNSt6vectorIbSaIbEE19_M_initialize_valueEb, @function
_ZNSt6vectorIbSaIbEE19_M_initialize_valueEb:
.LFB11144:
	.cfi_startproc
	endbr64
	push	rbp
	.cfi_def_cfa_offset 16
	.cfi_offset 6, -16
	mov	rbp, rsp
	.cfi_def_cfa_register 6
	sub	rsp, 32
	mov	QWORD PTR -24[rbp], rdi
	mov	eax, esi
	mov	BYTE PTR -28[rbp], al
	mov	rax, QWORD PTR -24[rbp]
	mov	rax, QWORD PTR [rax]
	mov	QWORD PTR -8[rbp], rax
	cmp	QWORD PTR -8[rbp], 0
	je	.L277
	mov	rax, QWORD PTR -24[rbp]
	mov	rdi, rax
	call	_ZNKSt13_Bvector_baseISaIbEE13_Bvector_impl11_M_end_addrEv
	sub	rax, QWORD PTR -8[rbp]
	mov	rdx, rax
	cmp	BYTE PTR -28[rbp], 0
	je	.L275
	mov	ecx, -1
	jmp	.L276
.L275:
	mov	ecx, 0
.L276:
	mov	rax, QWORD PTR -8[rbp]
	mov	esi, ecx
	mov	rdi, rax
	call	memset@PLT
.L277:
	nop
	leave
	.cfi_def_cfa 7, 8
	ret
	.cfi_endproc
.LFE11144:
	.size	_ZNSt6vectorIbSaIbEE19_M_initialize_valueEb, .-_ZNSt6vectorIbSaIbEE19_M_initialize_valueEb
	.section	.text._ZNSt13_Bvector_baseISaIbEE13_M_deallocateEv,"axG",@progbits,_ZNSt13_Bvector_baseISaIbEE13_M_deallocateEv,comdat
	.align 2
	.weak	_ZNSt13_Bvector_baseISaIbEE13_M_deallocateEv
	.type	_ZNSt13_Bvector_baseISaIbEE13_M_deallocateEv, @function
_ZNSt13_Bvector_baseISaIbEE13_M_deallocateEv:
.LFB11145:
	.cfi_startproc
	endbr64
	push	rbp
	.cfi_def_cfa_offset 16
	.cfi_offset 6, -16
	mov	rbp, rsp
	.cfi_def_cfa_register 6
	sub	rsp, 32
	mov	QWORD PTR -24[rbp], rdi
	mov	rax, QWORD PTR -24[rbp]
	mov	rax, QWORD PTR [rax]
	test	rax, rax
	je	.L280
	mov	rax, QWORD PTR -24[rbp]
	mov	rdi, rax
	call	_ZNKSt13_Bvector_baseISaIbEE13_Bvector_impl11_M_end_addrEv
	mov	rdx, QWORD PTR -24[rbp]
	mov	rdx, QWORD PTR [rdx]
	sub	rax, rdx
	sar	rax, 3
	mov	QWORD PTR -8[rbp], rax
	mov	rax, QWORD PTR -24[rbp]
	mov	rdx, QWORD PTR 32[rax]
	mov	rax, QWORD PTR -8[rbp]
	sal	rax, 3
	neg	rax
	lea	rcx, [rdx+rax]
	mov	rax, QWORD PTR -24[rbp]
	mov	rdx, QWORD PTR -8[rbp]
	mov	rsi, rcx
	mov	rdi, rax
	call	_ZNSt16allocator_traitsISaImEE10deallocateERS0_Pmm
	mov	rax, QWORD PTR -24[rbp]
	mov	rdi, rax
	call	_ZNSt13_Bvector_baseISaIbEE18_Bvector_impl_data8_M_resetEv
.L280:
	nop
	leave
	.cfi_def_cfa 7, 8
	ret
	.cfi_endproc
.LFE11145:
	.size	_ZNSt13_Bvector_baseISaIbEE13_M_deallocateEv, .-_ZNSt13_Bvector_baseISaIbEE13_M_deallocateEv
	.section	.text._ZNSt6vectorIS_IbSaIbEESaIS1_EE16_Temporary_valueC2IJRKS1_EEEPS3_DpOT_,"axG",@progbits,_ZNSt6vectorIS_IbSaIbEESaIS1_EE16_Temporary_valueC5IJRKS1_EEEPS3_DpOT_,comdat
	.align 2
	.weak	_ZNSt6vectorIS_IbSaIbEESaIS1_EE16_Temporary_valueC2IJRKS1_EEEPS3_DpOT_
	.type	_ZNSt6vectorIS_IbSaIbEESaIS1_EE16_Temporary_valueC2IJRKS1_EEEPS3_DpOT_, @function
_ZNSt6vectorIS_IbSaIbEESaIS1_EE16_Temporary_valueC2IJRKS1_EEEPS3_DpOT_:
.LFB11148:
	.cfi_startproc
	endbr64
	push	rbp
	.cfi_def_cfa_offset 16
	.cfi_offset 6, -16
	mov	rbp, rsp
	.cfi_def_cfa_register 6
	push	rbx
	sub	rsp, 40
	.cfi_offset 3, -24
	mov	QWORD PTR -24[rbp], rdi
	mov	QWORD PTR -32[rbp], rsi
	mov	QWORD PTR -40[rbp], rdx
	mov	rax, QWORD PTR -24[rbp]
	mov	rdx, QWORD PTR -32[rbp]
	mov	QWORD PTR [rax], rdx
	mov	rax, QWORD PTR -40[rbp]
	mov	rdi, rax
	call	_ZSt7forwardIRKSt6vectorIbSaIbEEEOT_RNSt16remove_referenceIS5_E4typeE
	mov	rbx, rax
	mov	rax, QWORD PTR -24[rbp]
	mov	rdi, rax
	call	_ZNSt6vectorIS_IbSaIbEESaIS1_EE16_Temporary_value6_M_ptrEv
	mov	rcx, rax
	mov	rax, QWORD PTR -24[rbp]
	mov	rax, QWORD PTR [rax]
	mov	rdx, rbx
	mov	rsi, rcx
	mov	rdi, rax
	call	_ZNSt16allocator_traitsISaISt6vectorIbSaIbEEEE9constructIS2_JRKS2_EEEvRS3_PT_DpOT0_
	nop
	mov	rbx, QWORD PTR -8[rbp]
	leave
	.cfi_def_cfa 7, 8
	ret
	.cfi_endproc
.LFE11148:
	.size	_ZNSt6vectorIS_IbSaIbEESaIS1_EE16_Temporary_valueC2IJRKS1_EEEPS3_DpOT_, .-_ZNSt6vectorIS_IbSaIbEESaIS1_EE16_Temporary_valueC2IJRKS1_EEEPS3_DpOT_
	.weak	_ZNSt6vectorIS_IbSaIbEESaIS1_EE16_Temporary_valueC1IJRKS1_EEEPS3_DpOT_
	.set	_ZNSt6vectorIS_IbSaIbEESaIS1_EE16_Temporary_valueC1IJRKS1_EEEPS3_DpOT_,_ZNSt6vectorIS_IbSaIbEESaIS1_EE16_Temporary_valueC2IJRKS1_EEEPS3_DpOT_
	.section	.text._ZNSt6vectorIS_IbSaIbEESaIS1_EE16_Temporary_valueD2Ev,"axG",@progbits,_ZNSt6vectorIS_IbSaIbEESaIS1_EE16_Temporary_valueD5Ev,comdat
	.align 2
	.weak	_ZNSt6vectorIS_IbSaIbEESaIS1_EE16_Temporary_valueD2Ev
	.type	_ZNSt6vectorIS_IbSaIbEESaIS1_EE16_Temporary_valueD2Ev, @function
_ZNSt6vectorIS_IbSaIbEESaIS1_EE16_Temporary_valueD2Ev:
.LFB11151:
	.cfi_startproc
	endbr64
	push	rbp
	.cfi_def_cfa_offset 16
	.cfi_offset 6, -16
	mov	rbp, rsp
	.cfi_def_cfa_register 6
	sub	rsp, 16
	mov	QWORD PTR -8[rbp], rdi
	mov	rax, QWORD PTR -8[rbp]
	mov	rdi, rax
	call	_ZNSt6vectorIS_IbSaIbEESaIS1_EE16_Temporary_value6_M_ptrEv
	mov	rdx, rax
	mov	rax, QWORD PTR -8[rbp]
	mov	rax, QWORD PTR [rax]
	mov	rsi, rdx
	mov	rdi, rax
	call	_ZNSt16allocator_traitsISaISt6vectorIbSaIbEEEE7destroyIS2_EEvRS3_PT_
	nop
	leave
	.cfi_def_cfa 7, 8
	ret
	.cfi_endproc
.LFE11151:
	.size	_ZNSt6vectorIS_IbSaIbEESaIS1_EE16_Temporary_valueD2Ev, .-_ZNSt6vectorIS_IbSaIbEESaIS1_EE16_Temporary_valueD2Ev
	.weak	_ZNSt6vectorIS_IbSaIbEESaIS1_EE16_Temporary_valueD1Ev
	.set	_ZNSt6vectorIS_IbSaIbEESaIS1_EE16_Temporary_valueD1Ev,_ZNSt6vectorIS_IbSaIbEESaIS1_EE16_Temporary_valueD2Ev
	.section	.text._ZNSt6vectorIS_IbSaIbEESaIS1_EE16_Temporary_value6_M_valEv,"axG",@progbits,_ZNSt6vectorIS_IbSaIbEESaIS1_EE16_Temporary_value6_M_valEv,comdat
	.align 2
	.weak	_ZNSt6vectorIS_IbSaIbEESaIS1_EE16_Temporary_value6_M_valEv
	.type	_ZNSt6vectorIS_IbSaIbEESaIS1_EE16_Temporary_value6_M_valEv, @function
_ZNSt6vectorIS_IbSaIbEESaIS1_EE16_Temporary_value6_M_valEv:
.LFB11153:
	.cfi_startproc
	endbr64
	push	rbp
	.cfi_def_cfa_offset 16
	.cfi_offset 6, -16
	mov	rbp, rsp
	.cfi_def_cfa_register 6
	sub	rsp, 16
	mov	QWORD PTR -8[rbp], rdi
	mov	rax, QWORD PTR -8[rbp]
	mov	rdi, rax
	call	_ZNSt6vectorIS_IbSaIbEESaIS1_EE16_Temporary_value6_M_ptrEv
	leave
	.cfi_def_cfa 7, 8
	ret
	.cfi_endproc
.LFE11153:
	.size	_ZNSt6vectorIS_IbSaIbEESaIS1_EE16_Temporary_value6_M_valEv, .-_ZNSt6vectorIS_IbSaIbEESaIS1_EE16_Temporary_value6_M_valEv
	.section	.text._ZN9__gnu_cxxmiIPSt6vectorIbSaIbEES1_IS3_SaIS3_EEEENS_17__normal_iteratorIT_T0_E15difference_typeERKSA_SD_,"axG",@progbits,_ZN9__gnu_cxxmiIPSt6vectorIbSaIbEES1_IS3_SaIS3_EEEENS_17__normal_iteratorIT_T0_E15difference_typeERKSA_SD_,comdat
	.weak	_ZN9__gnu_cxxmiIPSt6vectorIbSaIbEES1_IS3_SaIS3_EEEENS_17__normal_iteratorIT_T0_E15difference_typeERKSA_SD_
	.type	_ZN9__gnu_cxxmiIPSt6vectorIbSaIbEES1_IS3_SaIS3_EEEENS_17__normal_iteratorIT_T0_E15difference_typeERKSA_SD_, @function
_ZN9__gnu_cxxmiIPSt6vectorIbSaIbEES1_IS3_SaIS3_EEEENS_17__normal_iteratorIT_T0_E15difference_typeERKSA_SD_:
.LFB11154:
	.cfi_startproc
	endbr64
	push	rbp
	.cfi_def_cfa_offset 16
	.cfi_offset 6, -16
	mov	rbp, rsp
	.cfi_def_cfa_register 6
	push	rbx
	sub	rsp, 24
	.cfi_offset 3, -24
	mov	QWORD PTR -24[rbp], rdi
	mov	QWORD PTR -32[rbp], rsi
	mov	rax, QWORD PTR -24[rbp]
	mov	rdi, rax
	call	_ZNK9__gnu_cxx17__normal_iteratorIPSt6vectorIbSaIbEES1_IS3_SaIS3_EEE4baseEv
	mov	rbx, QWORD PTR [rax]
	mov	rax, QWORD PTR -32[rbp]
	mov	rdi, rax
	call	_ZNK9__gnu_cxx17__normal_iteratorIPSt6vectorIbSaIbEES1_IS3_SaIS3_EEE4baseEv
	mov	rdx, QWORD PTR [rax]
	mov	rax, rbx
	sub	rax, rdx
	sar	rax, 3
	mov	rdx, rax
	movabs	rax, -3689348814741910323
	imul	rax, rdx
	mov	rbx, QWORD PTR -8[rbp]
	leave
	.cfi_def_cfa 7, 8
	ret
	.cfi_endproc
.LFE11154:
	.size	_ZN9__gnu_cxxmiIPSt6vectorIbSaIbEES1_IS3_SaIS3_EEEENS_17__normal_iteratorIT_T0_E15difference_typeERKSA_SD_, .-_ZN9__gnu_cxxmiIPSt6vectorIbSaIbEES1_IS3_SaIS3_EEEENS_17__normal_iteratorIT_T0_E15difference_typeERKSA_SD_
	.section	.text._ZNSt12_Vector_baseISt6vectorIbSaIbEESaIS2_EE19_M_get_Tp_allocatorEv,"axG",@progbits,_ZNSt12_Vector_baseISt6vectorIbSaIbEESaIS2_EE19_M_get_Tp_allocatorEv,comdat
	.align 2
	.weak	_ZNSt12_Vector_baseISt6vectorIbSaIbEESaIS2_EE19_M_get_Tp_allocatorEv
	.type	_ZNSt12_Vector_baseISt6vectorIbSaIbEESaIS2_EE19_M_get_Tp_allocatorEv, @function
_ZNSt12_Vector_baseISt6vectorIbSaIbEESaIS2_EE19_M_get_Tp_allocatorEv:
.LFB11155:
	.cfi_startproc
	endbr64
	push	rbp
	.cfi_def_cfa_offset 16
	.cfi_offset 6, -16
	mov	rbp, rsp
	.cfi_def_cfa_register 6
	mov	QWORD PTR -8[rbp], rdi
	mov	rax, QWORD PTR -8[rbp]
	pop	rbp
	.cfi_def_cfa 7, 8
	ret
	.cfi_endproc
.LFE11155:
	.size	_ZNSt12_Vector_baseISt6vectorIbSaIbEESaIS2_EE19_M_get_Tp_allocatorEv, .-_ZNSt12_Vector_baseISt6vectorIbSaIbEESaIS2_EE19_M_get_Tp_allocatorEv
	.section	.text._ZSt22__uninitialized_move_aIPSt6vectorIbSaIbEES3_SaIS2_EET0_T_S6_S5_RT1_,"axG",@progbits,_ZSt22__uninitialized_move_aIPSt6vectorIbSaIbEES3_SaIS2_EET0_T_S6_S5_RT1_,comdat
	.weak	_ZSt22__uninitialized_move_aIPSt6vectorIbSaIbEES3_SaIS2_EET0_T_S6_S5_RT1_
	.type	_ZSt22__uninitialized_move_aIPSt6vectorIbSaIbEES3_SaIS2_EET0_T_S6_S5_RT1_, @function
_ZSt22__uninitialized_move_aIPSt6vectorIbSaIbEES3_SaIS2_EET0_T_S6_S5_RT1_:
.LFB11156:
	.cfi_startproc
	endbr64
	push	rbp
	.cfi_def_cfa_offset 16
	.cfi_offset 6, -16
	mov	rbp, rsp
	.cfi_def_cfa_register 6
	push	rbx
	sub	rsp, 40
	.cfi_offset 3, -24
	mov	QWORD PTR -24[rbp], rdi
	mov	QWORD PTR -32[rbp], rsi
	mov	QWORD PTR -40[rbp], rdx
	mov	QWORD PTR -48[rbp], rcx
	mov	rax, QWORD PTR -32[rbp]
	mov	rdi, rax
	call	_ZSt18make_move_iteratorIPSt6vectorIbSaIbEEESt13move_iteratorIT_ES5_
	mov	rbx, rax
	mov	rax, QWORD PTR -24[rbp]
	mov	rdi, rax
	call	_ZSt18make_move_iteratorIPSt6vectorIbSaIbEEESt13move_iteratorIT_ES5_
	mov	rdi, rax
	mov	rdx, QWORD PTR -48[rbp]
	mov	rax, QWORD PTR -40[rbp]
	mov	rcx, rdx
	mov	rdx, rax
	mov	rsi, rbx
	call	_ZSt22__uninitialized_copy_aISt13move_iteratorIPSt6vectorIbSaIbEEES4_S3_ET0_T_S7_S6_RSaIT1_E
	mov	rbx, QWORD PTR -8[rbp]
	leave
	.cfi_def_cfa 7, 8
	ret
	.cfi_endproc
.LFE11156:
	.size	_ZSt22__uninitialized_move_aIPSt6vectorIbSaIbEES3_SaIS2_EET0_T_S6_S5_RT1_, .-_ZSt22__uninitialized_move_aIPSt6vectorIbSaIbEES3_SaIS2_EET0_T_S6_S5_RT1_
	.section	.text._ZNK9__gnu_cxx17__normal_iteratorIPSt6vectorIbSaIbEES1_IS3_SaIS3_EEE4baseEv,"axG",@progbits,_ZNK9__gnu_cxx17__normal_iteratorIPSt6vectorIbSaIbEES1_IS3_SaIS3_EEE4baseEv,comdat
	.align 2
	.weak	_ZNK9__gnu_cxx17__normal_iteratorIPSt6vectorIbSaIbEES1_IS3_SaIS3_EEE4baseEv
	.type	_ZNK9__gnu_cxx17__normal_iteratorIPSt6vectorIbSaIbEES1_IS3_SaIS3_EEE4baseEv, @function
_ZNK9__gnu_cxx17__normal_iteratorIPSt6vectorIbSaIbEES1_IS3_SaIS3_EEE4baseEv:
.LFB11157:
	.cfi_startproc
	endbr64
	push	rbp
	.cfi_def_cfa_offset 16
	.cfi_offset 6, -16
	mov	rbp, rsp
	.cfi_def_cfa_register 6
	mov	QWORD PTR -8[rbp], rdi
	mov	rax, QWORD PTR -8[rbp]
	pop	rbp
	.cfi_def_cfa 7, 8
	ret
	.cfi_endproc
.LFE11157:
	.size	_ZNK9__gnu_cxx17__normal_iteratorIPSt6vectorIbSaIbEES1_IS3_SaIS3_EEE4baseEv, .-_ZNK9__gnu_cxx17__normal_iteratorIPSt6vectorIbSaIbEES1_IS3_SaIS3_EEE4baseEv
	.section	.text._ZSt13move_backwardIPSt6vectorIbSaIbEES3_ET0_T_S5_S4_,"axG",@progbits,_ZSt13move_backwardIPSt6vectorIbSaIbEES3_ET0_T_S5_S4_,comdat
	.weak	_ZSt13move_backwardIPSt6vectorIbSaIbEES3_ET0_T_S5_S4_
	.type	_ZSt13move_backwardIPSt6vectorIbSaIbEES3_ET0_T_S5_S4_, @function
_ZSt13move_backwardIPSt6vectorIbSaIbEES3_ET0_T_S5_S4_:
.LFB11158:
	.cfi_startproc
	endbr64
	push	rbp
	.cfi_def_cfa_offset 16
	.cfi_offset 6, -16
	mov	rbp, rsp
	.cfi_def_cfa_register 6
	push	rbx
	sub	rsp, 40
	.cfi_offset 3, -24
	mov	QWORD PTR -24[rbp], rdi
	mov	QWORD PTR -32[rbp], rsi
	mov	QWORD PTR -40[rbp], rdx
	mov	rax, QWORD PTR -32[rbp]
	mov	rdi, rax
	call	_ZSt12__miter_baseIPSt6vectorIbSaIbEEET_S4_
	mov	rbx, rax
	mov	rax, QWORD PTR -24[rbp]
	mov	rdi, rax
	call	_ZSt12__miter_baseIPSt6vectorIbSaIbEEET_S4_
	mov	rcx, rax
	mov	rax, QWORD PTR -40[rbp]
	mov	rdx, rax
	mov	rsi, rbx
	mov	rdi, rcx
	call	_ZSt22__copy_move_backward_aILb1EPSt6vectorIbSaIbEES3_ET1_T0_S5_S4_
	mov	rbx, QWORD PTR -8[rbp]
	leave
	.cfi_def_cfa 7, 8
	ret
	.cfi_endproc
.LFE11158:
	.size	_ZSt13move_backwardIPSt6vectorIbSaIbEES3_ET0_T_S5_S4_, .-_ZSt13move_backwardIPSt6vectorIbSaIbEES3_ET0_T_S5_S4_
	.section	.text._ZSt4fillIPSt6vectorIbSaIbEES2_EvT_S4_RKT0_,"axG",@progbits,_ZSt4fillIPSt6vectorIbSaIbEES2_EvT_S4_RKT0_,comdat
	.weak	_ZSt4fillIPSt6vectorIbSaIbEES2_EvT_S4_RKT0_
	.type	_ZSt4fillIPSt6vectorIbSaIbEES2_EvT_S4_RKT0_, @function
_ZSt4fillIPSt6vectorIbSaIbEES2_EvT_S4_RKT0_:
.LFB11159:
	.cfi_startproc
	endbr64
	push	rbp
	.cfi_def_cfa_offset 16
	.cfi_offset 6, -16
	mov	rbp, rsp
	.cfi_def_cfa_register 6
	sub	rsp, 32
	mov	QWORD PTR -8[rbp], rdi
	mov	QWORD PTR -16[rbp], rsi
	mov	QWORD PTR -24[rbp], rdx
	mov	rdx, QWORD PTR -24[rbp]
	mov	rcx, QWORD PTR -16[rbp]
	mov	rax, QWORD PTR -8[rbp]
	mov	rsi, rcx
	mov	rdi, rax
	call	_ZSt8__fill_aIPSt6vectorIbSaIbEES2_EvT_S4_RKT0_
	nop
	leave
	.cfi_def_cfa 7, 8
	ret
	.cfi_endproc
.LFE11159:
	.size	_ZSt4fillIPSt6vectorIbSaIbEES2_EvT_S4_RKT0_, .-_ZSt4fillIPSt6vectorIbSaIbEES2_EvT_S4_RKT0_
	.section	.text._ZSt24__uninitialized_fill_n_aIPSt6vectorIbSaIbEEmS2_S2_ET_S4_T0_RKT1_RSaIT2_E,"axG",@progbits,_ZSt24__uninitialized_fill_n_aIPSt6vectorIbSaIbEEmS2_S2_ET_S4_T0_RKT1_RSaIT2_E,comdat
	.weak	_ZSt24__uninitialized_fill_n_aIPSt6vectorIbSaIbEEmS2_S2_ET_S4_T0_RKT1_RSaIT2_E
	.type	_ZSt24__uninitialized_fill_n_aIPSt6vectorIbSaIbEEmS2_S2_ET_S4_T0_RKT1_RSaIT2_E, @function
_ZSt24__uninitialized_fill_n_aIPSt6vectorIbSaIbEEmS2_S2_ET_S4_T0_RKT1_RSaIT2_E:
.LFB11160:
	.cfi_startproc
	endbr64
	push	rbp
	.cfi_def_cfa_offset 16
	.cfi_offset 6, -16
	mov	rbp, rsp
	.cfi_def_cfa_register 6
	sub	rsp, 32
	mov	QWORD PTR -8[rbp], rdi
	mov	QWORD PTR -16[rbp], rsi
	mov	QWORD PTR -24[rbp], rdx
	mov	QWORD PTR -32[rbp], rcx
	mov	rdx, QWORD PTR -24[rbp]
	mov	rcx, QWORD PTR -16[rbp]
	mov	rax, QWORD PTR -8[rbp]
	mov	rsi, rcx
	mov	rdi, rax
	call	_ZSt20uninitialized_fill_nIPSt6vectorIbSaIbEEmS2_ET_S4_T0_RKT1_
	leave
	.cfi_def_cfa 7, 8
	ret
	.cfi_endproc
.LFE11160:
	.size	_ZSt24__uninitialized_fill_n_aIPSt6vectorIbSaIbEEmS2_S2_ET_S4_T0_RKT1_RSaIT2_E, .-_ZSt24__uninitialized_fill_n_aIPSt6vectorIbSaIbEEmS2_S2_ET_S4_T0_RKT1_RSaIT2_E
	.section	.text._ZNKSt6vectorIS_IbSaIbEESaIS1_EE12_M_check_lenEmPKc,"axG",@progbits,_ZNKSt6vectorIS_IbSaIbEESaIS1_EE12_M_check_lenEmPKc,comdat
	.align 2
	.weak	_ZNKSt6vectorIS_IbSaIbEESaIS1_EE12_M_check_lenEmPKc
	.type	_ZNKSt6vectorIS_IbSaIbEESaIS1_EE12_M_check_lenEmPKc, @function
_ZNKSt6vectorIS_IbSaIbEESaIS1_EE12_M_check_lenEmPKc:
.LFB11161:
	.cfi_startproc
	endbr64
	push	rbp
	.cfi_def_cfa_offset 16
	.cfi_offset 6, -16
	mov	rbp, rsp
	.cfi_def_cfa_register 6
	push	rbx
	sub	rsp, 72
	.cfi_offset 3, -24
	mov	QWORD PTR -56[rbp], rdi
	mov	QWORD PTR -64[rbp], rsi
	mov	QWORD PTR -72[rbp], rdx
	mov	rax, QWORD PTR fs:40
	mov	QWORD PTR -24[rbp], rax
	xor	eax, eax
	mov	rax, QWORD PTR -56[rbp]
	mov	rdi, rax
	call	_ZNKSt6vectorIS_IbSaIbEESaIS1_EE8max_sizeEv
	mov	rbx, rax
	mov	rax, QWORD PTR -56[rbp]
	mov	rdi, rax
	call	_ZNKSt6vectorIS_IbSaIbEESaIS1_EE4sizeEv
	sub	rbx, rax
	mov	rdx, rbx
	mov	rax, QWORD PTR -64[rbp]
	cmp	rdx, rax
	setb	al
	test	al, al
	je	.L299
	mov	rax, QWORD PTR -72[rbp]
	mov	rdi, rax
	call	_ZSt20__throw_length_errorPKc@PLT
.L299:
	mov	rax, QWORD PTR -56[rbp]
	mov	rdi, rax
	call	_ZNKSt6vectorIS_IbSaIbEESaIS1_EE4sizeEv
	mov	rbx, rax
	mov	rax, QWORD PTR -56[rbp]
	mov	rdi, rax
	call	_ZNKSt6vectorIS_IbSaIbEESaIS1_EE4sizeEv
	mov	QWORD PTR -40[rbp], rax
	lea	rdx, -64[rbp]
	lea	rax, -40[rbp]
	mov	rsi, rdx
	mov	rdi, rax
	call	_ZSt3maxImERKT_S2_S2_
	mov	rax, QWORD PTR [rax]
	add	rax, rbx
	mov	QWORD PTR -32[rbp], rax
	mov	rax, QWORD PTR -56[rbp]
	mov	rdi, rax
	call	_ZNKSt6vectorIS_IbSaIbEESaIS1_EE4sizeEv
	cmp	QWORD PTR -32[rbp], rax
	jb	.L300
	mov	rax, QWORD PTR -56[rbp]
	mov	rdi, rax
	call	_ZNKSt6vectorIS_IbSaIbEESaIS1_EE8max_sizeEv
	cmp	QWORD PTR -32[rbp], rax
	jbe	.L301
.L300:
	mov	rax, QWORD PTR -56[rbp]
	mov	rdi, rax
	call	_ZNKSt6vectorIS_IbSaIbEESaIS1_EE8max_sizeEv
	jmp	.L302
.L301:
	mov	rax, QWORD PTR -32[rbp]
.L302:
	mov	rdx, QWORD PTR -24[rbp]
	sub	rdx, QWORD PTR fs:40
	je	.L304
	call	__stack_chk_fail@PLT
.L304:
	mov	rbx, QWORD PTR -8[rbp]
	leave
	.cfi_def_cfa 7, 8
	ret
	.cfi_endproc
.LFE11161:
	.size	_ZNKSt6vectorIS_IbSaIbEESaIS1_EE12_M_check_lenEmPKc, .-_ZNKSt6vectorIS_IbSaIbEESaIS1_EE12_M_check_lenEmPKc
	.section	.text._ZNSt6vectorIS_IbSaIbEESaIS1_EE5beginEv,"axG",@progbits,_ZNSt6vectorIS_IbSaIbEESaIS1_EE5beginEv,comdat
	.align 2
	.weak	_ZNSt6vectorIS_IbSaIbEESaIS1_EE5beginEv
	.type	_ZNSt6vectorIS_IbSaIbEESaIS1_EE5beginEv, @function
_ZNSt6vectorIS_IbSaIbEESaIS1_EE5beginEv:
.LFB11162:
	.cfi_startproc
	endbr64
	push	rbp
	.cfi_def_cfa_offset 16
	.cfi_offset 6, -16
	mov	rbp, rsp
	.cfi_def_cfa_register 6
	sub	rsp, 32
	mov	QWORD PTR -24[rbp], rdi
	mov	rax, QWORD PTR fs:40
	mov	QWORD PTR -8[rbp], rax
	xor	eax, eax
	mov	rdx, QWORD PTR -24[rbp]
	lea	rax, -16[rbp]
	mov	rsi, rdx
	mov	rdi, rax
	call	_ZN9__gnu_cxx17__normal_iteratorIPSt6vectorIbSaIbEES1_IS3_SaIS3_EEEC1ERKS4_
	mov	rax, QWORD PTR -16[rbp]
	mov	rdx, QWORD PTR -8[rbp]
	sub	rdx, QWORD PTR fs:40
	je	.L307
	call	__stack_chk_fail@PLT
.L307:
	leave
	.cfi_def_cfa 7, 8
	ret
	.cfi_endproc
.LFE11162:
	.size	_ZNSt6vectorIS_IbSaIbEESaIS1_EE5beginEv, .-_ZNSt6vectorIS_IbSaIbEESaIS1_EE5beginEv
	.section	.text._ZNSt12_Vector_baseISt6vectorIbSaIbEESaIS2_EE11_M_allocateEm,"axG",@progbits,_ZNSt12_Vector_baseISt6vectorIbSaIbEESaIS2_EE11_M_allocateEm,comdat
	.align 2
	.weak	_ZNSt12_Vector_baseISt6vectorIbSaIbEESaIS2_EE11_M_allocateEm
	.type	_ZNSt12_Vector_baseISt6vectorIbSaIbEESaIS2_EE11_M_allocateEm, @function
_ZNSt12_Vector_baseISt6vectorIbSaIbEESaIS2_EE11_M_allocateEm:
.LFB11163:
	.cfi_startproc
	endbr64
	push	rbp
	.cfi_def_cfa_offset 16
	.cfi_offset 6, -16
	mov	rbp, rsp
	.cfi_def_cfa_register 6
	sub	rsp, 16
	mov	QWORD PTR -8[rbp], rdi
	mov	QWORD PTR -16[rbp], rsi
	cmp	QWORD PTR -16[rbp], 0
	je	.L309
	mov	rax, QWORD PTR -8[rbp]
	mov	rdx, QWORD PTR -16[rbp]
	mov	rsi, rdx
	mov	rdi, rax
	call	_ZNSt16allocator_traitsISaISt6vectorIbSaIbEEEE8allocateERS3_m
	jmp	.L311
.L309:
	mov	eax, 0
.L311:
	leave
	.cfi_def_cfa 7, 8
	ret
	.cfi_endproc
.LFE11163:
	.size	_ZNSt12_Vector_baseISt6vectorIbSaIbEESaIS2_EE11_M_allocateEm, .-_ZNSt12_Vector_baseISt6vectorIbSaIbEESaIS2_EE11_M_allocateEm
	.section	.text._ZSt34__uninitialized_move_if_noexcept_aIPSt6vectorIbSaIbEES3_SaIS2_EET0_T_S6_S5_RT1_,"axG",@progbits,_ZSt34__uninitialized_move_if_noexcept_aIPSt6vectorIbSaIbEES3_SaIS2_EET0_T_S6_S5_RT1_,comdat
	.weak	_ZSt34__uninitialized_move_if_noexcept_aIPSt6vectorIbSaIbEES3_SaIS2_EET0_T_S6_S5_RT1_
	.type	_ZSt34__uninitialized_move_if_noexcept_aIPSt6vectorIbSaIbEES3_SaIS2_EET0_T_S6_S5_RT1_, @function
_ZSt34__uninitialized_move_if_noexcept_aIPSt6vectorIbSaIbEES3_SaIS2_EET0_T_S6_S5_RT1_:
.LFB11164:
	.cfi_startproc
	endbr64
	push	rbp
	.cfi_def_cfa_offset 16
	.cfi_offset 6, -16
	mov	rbp, rsp
	.cfi_def_cfa_register 6
	push	rbx
	sub	rsp, 40
	.cfi_offset 3, -24
	mov	QWORD PTR -24[rbp], rdi
	mov	QWORD PTR -32[rbp], rsi
	mov	QWORD PTR -40[rbp], rdx
	mov	QWORD PTR -48[rbp], rcx
	mov	rax, QWORD PTR -32[rbp]
	mov	rdi, rax
	call	_ZSt32__make_move_if_noexcept_iteratorISt6vectorIbSaIbEESt13move_iteratorIPS2_EET0_PT_
	mov	rbx, rax
	mov	rax, QWORD PTR -24[rbp]
	mov	rdi, rax
	call	_ZSt32__make_move_if_noexcept_iteratorISt6vectorIbSaIbEESt13move_iteratorIPS2_EET0_PT_
	mov	rdi, rax
	mov	rdx, QWORD PTR -48[rbp]
	mov	rax, QWORD PTR -40[rbp]
	mov	rcx, rdx
	mov	rdx, rax
	mov	rsi, rbx
	call	_ZSt22__uninitialized_copy_aISt13move_iteratorIPSt6vectorIbSaIbEEES4_S3_ET0_T_S7_S6_RSaIT1_E
	mov	rbx, QWORD PTR -8[rbp]
	leave
	.cfi_def_cfa 7, 8
	ret
	.cfi_endproc
.LFE11164:
	.size	_ZSt34__uninitialized_move_if_noexcept_aIPSt6vectorIbSaIbEES3_SaIS2_EET0_T_S6_S5_RT1_, .-_ZSt34__uninitialized_move_if_noexcept_aIPSt6vectorIbSaIbEES3_SaIS2_EET0_T_S6_S5_RT1_
	.section	.text._ZSt8_DestroyIPSt6vectorIbSaIbEES2_EvT_S4_RSaIT0_E,"axG",@progbits,_ZSt8_DestroyIPSt6vectorIbSaIbEES2_EvT_S4_RSaIT0_E,comdat
	.weak	_ZSt8_DestroyIPSt6vectorIbSaIbEES2_EvT_S4_RSaIT0_E
	.type	_ZSt8_DestroyIPSt6vectorIbSaIbEES2_EvT_S4_RSaIT0_E, @function
_ZSt8_DestroyIPSt6vectorIbSaIbEES2_EvT_S4_RSaIT0_E:
.LFB11165:
	.cfi_startproc
	endbr64
	push	rbp
	.cfi_def_cfa_offset 16
	.cfi_offset 6, -16
	mov	rbp, rsp
	.cfi_def_cfa_register 6
	sub	rsp, 32
	mov	QWORD PTR -8[rbp], rdi
	mov	QWORD PTR -16[rbp], rsi
	mov	QWORD PTR -24[rbp], rdx
	mov	rdx, QWORD PTR -16[rbp]
	mov	rax, QWORD PTR -8[rbp]
	mov	rsi, rdx
	mov	rdi, rax
	call	_ZSt8_DestroyIPSt6vectorIbSaIbEEEvT_S4_
	nop
	leave
	.cfi_def_cfa 7, 8
	ret
	.cfi_endproc
.LFE11165:
	.size	_ZSt8_DestroyIPSt6vectorIbSaIbEES2_EvT_S4_RSaIT0_E, .-_ZSt8_DestroyIPSt6vectorIbSaIbEES2_EvT_S4_RSaIT0_E
	.section	.text._ZN9__gnu_cxx17__normal_iteratorIPSt6vectorIbSaIbEES1_IS3_SaIS3_EEEC2ERKS4_,"axG",@progbits,_ZN9__gnu_cxx17__normal_iteratorIPSt6vectorIbSaIbEES1_IS3_SaIS3_EEEC5ERKS4_,comdat
	.align 2
	.weak	_ZN9__gnu_cxx17__normal_iteratorIPSt6vectorIbSaIbEES1_IS3_SaIS3_EEEC2ERKS4_
	.type	_ZN9__gnu_cxx17__normal_iteratorIPSt6vectorIbSaIbEES1_IS3_SaIS3_EEEC2ERKS4_, @function
_ZN9__gnu_cxx17__normal_iteratorIPSt6vectorIbSaIbEES1_IS3_SaIS3_EEEC2ERKS4_:
.LFB11167:
	.cfi_startproc
	endbr64
	push	rbp
	.cfi_def_cfa_offset 16
	.cfi_offset 6, -16
	mov	rbp, rsp
	.cfi_def_cfa_register 6
	mov	QWORD PTR -8[rbp], rdi
	mov	QWORD PTR -16[rbp], rsi
	mov	rax, QWORD PTR -16[rbp]
	mov	rdx, QWORD PTR [rax]
	mov	rax, QWORD PTR -8[rbp]
	mov	QWORD PTR [rax], rdx
	nop
	pop	rbp
	.cfi_def_cfa 7, 8
	ret
	.cfi_endproc
.LFE11167:
	.size	_ZN9__gnu_cxx17__normal_iteratorIPSt6vectorIbSaIbEES1_IS3_SaIS3_EEEC2ERKS4_, .-_ZN9__gnu_cxx17__normal_iteratorIPSt6vectorIbSaIbEES1_IS3_SaIS3_EEEC2ERKS4_
	.weak	_ZN9__gnu_cxx17__normal_iteratorIPSt6vectorIbSaIbEES1_IS3_SaIS3_EEEC1ERKS4_
	.set	_ZN9__gnu_cxx17__normal_iteratorIPSt6vectorIbSaIbEES1_IS3_SaIS3_EEEC1ERKS4_,_ZN9__gnu_cxx17__normal_iteratorIPSt6vectorIbSaIbEES1_IS3_SaIS3_EEEC2ERKS4_
	.section	.text._ZN9__gnu_cxx13new_allocatorImE10deallocateEPmm,"axG",@progbits,_ZN9__gnu_cxx13new_allocatorImE10deallocateEPmm,comdat
	.align 2
	.weak	_ZN9__gnu_cxx13new_allocatorImE10deallocateEPmm
	.type	_ZN9__gnu_cxx13new_allocatorImE10deallocateEPmm, @function
_ZN9__gnu_cxx13new_allocatorImE10deallocateEPmm:
.LFB11267:
	.cfi_startproc
	endbr64
	push	rbp
	.cfi_def_cfa_offset 16
	.cfi_offset 6, -16
	mov	rbp, rsp
	.cfi_def_cfa_register 6
	sub	rsp, 32
	mov	QWORD PTR -8[rbp], rdi
	mov	QWORD PTR -16[rbp], rsi
	mov	QWORD PTR -24[rbp], rdx
	mov	rax, QWORD PTR -24[rbp]
	lea	rdx, 0[0+rax*8]
	mov	rax, QWORD PTR -16[rbp]
	mov	rsi, rdx
	mov	rdi, rax
	call	_ZdlPvm@PLT
	leave
	.cfi_def_cfa 7, 8
	ret
	.cfi_endproc
.LFE11267:
	.size	_ZN9__gnu_cxx13new_allocatorImE10deallocateEPmm, .-_ZN9__gnu_cxx13new_allocatorImE10deallocateEPmm
	.section	.text._ZN9__gnu_cxx13new_allocatorIcE10deallocateEPcm,"axG",@progbits,_ZN9__gnu_cxx13new_allocatorIcE10deallocateEPcm,comdat
	.align 2
	.weak	_ZN9__gnu_cxx13new_allocatorIcE10deallocateEPcm
	.type	_ZN9__gnu_cxx13new_allocatorIcE10deallocateEPcm, @function
_ZN9__gnu_cxx13new_allocatorIcE10deallocateEPcm:
.LFB11273:
	.cfi_startproc
	endbr64
	push	rbp
	.cfi_def_cfa_offset 16
	.cfi_offset 6, -16
	mov	rbp, rsp
	.cfi_def_cfa_register 6
	sub	rsp, 32
	mov	QWORD PTR -8[rbp], rdi
	mov	QWORD PTR -16[rbp], rsi
	mov	QWORD PTR -24[rbp], rdx
	mov	rdx, QWORD PTR -24[rbp]
	mov	rax, QWORD PTR -16[rbp]
	mov	rsi, rdx
	mov	rdi, rax
	call	_ZdlPvm@PLT
	leave
	.cfi_def_cfa 7, 8
	ret
	.cfi_endproc
.LFE11273:
	.size	_ZN9__gnu_cxx13new_allocatorIcE10deallocateEPcm, .-_ZN9__gnu_cxx13new_allocatorIcE10deallocateEPcm
	.section	.text._ZNK9__gnu_cxx13new_allocatorIcE11_M_max_sizeEv,"axG",@progbits,_ZNK9__gnu_cxx13new_allocatorIcE11_M_max_sizeEv,comdat
	.align 2
	.weak	_ZNK9__gnu_cxx13new_allocatorIcE11_M_max_sizeEv
	.type	_ZNK9__gnu_cxx13new_allocatorIcE11_M_max_sizeEv, @function
_ZNK9__gnu_cxx13new_allocatorIcE11_M_max_sizeEv:
.LFB11275:
	.cfi_startproc
	endbr64
	push	rbp
	.cfi_def_cfa_offset 16
	.cfi_offset 6, -16
	mov	rbp, rsp
	.cfi_def_cfa_register 6
	mov	QWORD PTR -8[rbp], rdi
	movabs	rax, 9223372036854775807
	pop	rbp
	.cfi_def_cfa 7, 8
	ret
	.cfi_endproc
.LFE11275:
	.size	_ZNK9__gnu_cxx13new_allocatorIcE11_M_max_sizeEv, .-_ZNK9__gnu_cxx13new_allocatorIcE11_M_max_sizeEv
	.section	.text._ZN9__gnu_cxx13new_allocatorIcE8allocateEmPKv,"axG",@progbits,_ZN9__gnu_cxx13new_allocatorIcE8allocateEmPKv,comdat
	.align 2
	.weak	_ZN9__gnu_cxx13new_allocatorIcE8allocateEmPKv
	.type	_ZN9__gnu_cxx13new_allocatorIcE8allocateEmPKv, @function
_ZN9__gnu_cxx13new_allocatorIcE8allocateEmPKv:
.LFB11274:
	.cfi_startproc
	endbr64
	push	rbp
	.cfi_def_cfa_offset 16
	.cfi_offset 6, -16
	mov	rbp, rsp
	.cfi_def_cfa_register 6
	sub	rsp, 32
	mov	QWORD PTR -8[rbp], rdi
	mov	QWORD PTR -16[rbp], rsi
	mov	QWORD PTR -24[rbp], rdx
	mov	rax, QWORD PTR -8[rbp]
	mov	rdi, rax
	call	_ZNK9__gnu_cxx13new_allocatorIcE11_M_max_sizeEv
	cmp	QWORD PTR -16[rbp], rax
	seta	al
	movzx	eax, al
	test	rax, rax
	setne	al
	test	al, al
	je	.L323
	call	_ZSt17__throw_bad_allocv@PLT
.L323:
	mov	rax, QWORD PTR -16[rbp]
	mov	rdi, rax
	call	_Znwm@PLT
	nop
	leave
	.cfi_def_cfa 7, 8
	ret
	.cfi_endproc
.LFE11274:
	.size	_ZN9__gnu_cxx13new_allocatorIcE8allocateEmPKv, .-_ZN9__gnu_cxx13new_allocatorIcE8allocateEmPKv
	.section	.text._ZN9__gnu_cxx13new_allocatorISt6vectorIcSaIcEEE10deallocateEPS3_m,"axG",@progbits,_ZN9__gnu_cxx13new_allocatorISt6vectorIcSaIcEEE10deallocateEPS3_m,comdat
	.align 2
	.weak	_ZN9__gnu_cxx13new_allocatorISt6vectorIcSaIcEEE10deallocateEPS3_m
	.type	_ZN9__gnu_cxx13new_allocatorISt6vectorIcSaIcEEE10deallocateEPS3_m, @function
_ZN9__gnu_cxx13new_allocatorISt6vectorIcSaIcEEE10deallocateEPS3_m:
.LFB11305:
	.cfi_startproc
	endbr64
	push	rbp
	.cfi_def_cfa_offset 16
	.cfi_offset 6, -16
	mov	rbp, rsp
	.cfi_def_cfa_register 6
	sub	rsp, 32
	mov	QWORD PTR -8[rbp], rdi
	mov	QWORD PTR -16[rbp], rsi
	mov	QWORD PTR -24[rbp], rdx
	mov	rdx, QWORD PTR -24[rbp]
	mov	rax, rdx
	add	rax, rax
	add	rax, rdx
	sal	rax, 3
	mov	rdx, rax
	mov	rax, QWORD PTR -16[rbp]
	mov	rsi, rdx
	mov	rdi, rax
	call	_ZdlPvm@PLT
	leave
	.cfi_def_cfa 7, 8
	ret
	.cfi_endproc
.LFE11305:
	.size	_ZN9__gnu_cxx13new_allocatorISt6vectorIcSaIcEEE10deallocateEPS3_m, .-_ZN9__gnu_cxx13new_allocatorISt6vectorIcSaIcEEE10deallocateEPS3_m
	.section	.text._ZN9__gnu_cxx13new_allocatorISt6vectorIbSaIbEEE10deallocateEPS3_m,"axG",@progbits,_ZN9__gnu_cxx13new_allocatorISt6vectorIbSaIbEEE10deallocateEPS3_m,comdat
	.align 2
	.weak	_ZN9__gnu_cxx13new_allocatorISt6vectorIbSaIbEEE10deallocateEPS3_m
	.type	_ZN9__gnu_cxx13new_allocatorISt6vectorIbSaIbEEE10deallocateEPS3_m, @function
_ZN9__gnu_cxx13new_allocatorISt6vectorIbSaIbEEE10deallocateEPS3_m:
.LFB11306:
	.cfi_startproc
	endbr64
	push	rbp
	.cfi_def_cfa_offset 16
	.cfi_offset 6, -16
	mov	rbp, rsp
	.cfi_def_cfa_register 6
	sub	rsp, 32
	mov	QWORD PTR -8[rbp], rdi
	mov	QWORD PTR -16[rbp], rsi
	mov	QWORD PTR -24[rbp], rdx
	mov	rdx, QWORD PTR -24[rbp]
	mov	rax, rdx
	sal	rax, 2
	add	rax, rdx
	sal	rax, 3
	mov	rdx, rax
	mov	rax, QWORD PTR -16[rbp]
	mov	rsi, rdx
	mov	rdi, rax
	call	_ZdlPvm@PLT
	leave
	.cfi_def_cfa 7, 8
	ret
	.cfi_endproc
.LFE11306:
	.size	_ZN9__gnu_cxx13new_allocatorISt6vectorIbSaIbEEE10deallocateEPS3_m, .-_ZN9__gnu_cxx13new_allocatorISt6vectorIbSaIbEEE10deallocateEPS3_m
	.section	.text._ZNSt16allocator_traitsISaIcEE8max_sizeERKS0_,"axG",@progbits,_ZNSt16allocator_traitsISaIcEE8max_sizeERKS0_,comdat
	.weak	_ZNSt16allocator_traitsISaIcEE8max_sizeERKS0_
	.type	_ZNSt16allocator_traitsISaIcEE8max_sizeERKS0_, @function
_ZNSt16allocator_traitsISaIcEE8max_sizeERKS0_:
.LFB11307:
	.cfi_startproc
	endbr64
	push	rbp
	.cfi_def_cfa_offset 16
	.cfi_offset 6, -16
	mov	rbp, rsp
	.cfi_def_cfa_register 6
	sub	rsp, 16
	mov	QWORD PTR -8[rbp], rdi
	mov	rax, QWORD PTR -8[rbp]
	mov	rdi, rax
	call	_ZNK9__gnu_cxx13new_allocatorIcE8max_sizeEv
	leave
	.cfi_def_cfa 7, 8
	ret
	.cfi_endproc
.LFE11307:
	.size	_ZNSt16allocator_traitsISaIcEE8max_sizeERKS0_, .-_ZNSt16allocator_traitsISaIcEE8max_sizeERKS0_
	.section	.text._ZNSt12_Vector_baseIcSaIcEE17_Vector_impl_dataC2Ev,"axG",@progbits,_ZNSt12_Vector_baseIcSaIcEE17_Vector_impl_dataC5Ev,comdat
	.align 2
	.weak	_ZNSt12_Vector_baseIcSaIcEE17_Vector_impl_dataC2Ev
	.type	_ZNSt12_Vector_baseIcSaIcEE17_Vector_impl_dataC2Ev, @function
_ZNSt12_Vector_baseIcSaIcEE17_Vector_impl_dataC2Ev:
.LFB11309:
	.cfi_startproc
	endbr64
	push	rbp
	.cfi_def_cfa_offset 16
	.cfi_offset 6, -16
	mov	rbp, rsp
	.cfi_def_cfa_register 6
	mov	QWORD PTR -8[rbp], rdi
	mov	rax, QWORD PTR -8[rbp]
	mov	QWORD PTR [rax], 0
	mov	rax, QWORD PTR -8[rbp]
	mov	QWORD PTR 8[rax], 0
	mov	rax, QWORD PTR -8[rbp]
	mov	QWORD PTR 16[rax], 0
	nop
	pop	rbp
	.cfi_def_cfa 7, 8
	ret
	.cfi_endproc
.LFE11309:
	.size	_ZNSt12_Vector_baseIcSaIcEE17_Vector_impl_dataC2Ev, .-_ZNSt12_Vector_baseIcSaIcEE17_Vector_impl_dataC2Ev
	.weak	_ZNSt12_Vector_baseIcSaIcEE17_Vector_impl_dataC1Ev
	.set	_ZNSt12_Vector_baseIcSaIcEE17_Vector_impl_dataC1Ev,_ZNSt12_Vector_baseIcSaIcEE17_Vector_impl_dataC2Ev
	.section	.text._ZNSt12_Vector_baseIcSaIcEE11_M_allocateEm,"axG",@progbits,_ZNSt12_Vector_baseIcSaIcEE11_M_allocateEm,comdat
	.align 2
	.weak	_ZNSt12_Vector_baseIcSaIcEE11_M_allocateEm
	.type	_ZNSt12_Vector_baseIcSaIcEE11_M_allocateEm, @function
_ZNSt12_Vector_baseIcSaIcEE11_M_allocateEm:
.LFB11311:
	.cfi_startproc
	endbr64
	push	rbp
	.cfi_def_cfa_offset 16
	.cfi_offset 6, -16
	mov	rbp, rsp
	.cfi_def_cfa_register 6
	sub	rsp, 16
	mov	QWORD PTR -8[rbp], rdi
	mov	QWORD PTR -16[rbp], rsi
	cmp	QWORD PTR -16[rbp], 0
	je	.L333
	mov	rax, QWORD PTR -8[rbp]
	mov	rdx, QWORD PTR -16[rbp]
	mov	rsi, rdx
	mov	rdi, rax
	call	_ZNSt16allocator_traitsISaIcEE8allocateERS0_m
	jmp	.L335
.L333:
	mov	eax, 0
.L335:
	leave
	.cfi_def_cfa 7, 8
	ret
	.cfi_endproc
.LFE11311:
	.size	_ZNSt12_Vector_baseIcSaIcEE11_M_allocateEm, .-_ZNSt12_Vector_baseIcSaIcEE11_M_allocateEm
	.section	.text._ZSt25__uninitialized_default_nIPcmET_S1_T0_,"axG",@progbits,_ZSt25__uninitialized_default_nIPcmET_S1_T0_,comdat
	.weak	_ZSt25__uninitialized_default_nIPcmET_S1_T0_
	.type	_ZSt25__uninitialized_default_nIPcmET_S1_T0_, @function
_ZSt25__uninitialized_default_nIPcmET_S1_T0_:
.LFB11312:
	.cfi_startproc
	endbr64
	push	rbp
	.cfi_def_cfa_offset 16
	.cfi_offset 6, -16
	mov	rbp, rsp
	.cfi_def_cfa_register 6
	sub	rsp, 32
	mov	QWORD PTR -24[rbp], rdi
	mov	QWORD PTR -32[rbp], rsi
	mov	BYTE PTR -1[rbp], 1
	mov	rdx, QWORD PTR -32[rbp]
	mov	rax, QWORD PTR -24[rbp]
	mov	rsi, rdx
	mov	rdi, rax
	call	_ZNSt27__uninitialized_default_n_1ILb1EE18__uninit_default_nIPcmEET_S3_T0_
	leave
	.cfi_def_cfa 7, 8
	ret
	.cfi_endproc
.LFE11312:
	.size	_ZSt25__uninitialized_default_nIPcmET_S1_T0_, .-_ZSt25__uninitialized_default_nIPcmET_S1_T0_
	.section	.text._ZNSt12_Destroy_auxILb1EE9__destroyIPcEEvT_S3_,"axG",@progbits,_ZNSt12_Destroy_auxILb1EE9__destroyIPcEEvT_S3_,comdat
	.weak	_ZNSt12_Destroy_auxILb1EE9__destroyIPcEEvT_S3_
	.type	_ZNSt12_Destroy_auxILb1EE9__destroyIPcEEvT_S3_, @function
_ZNSt12_Destroy_auxILb1EE9__destroyIPcEEvT_S3_:
.LFB11313:
	.cfi_startproc
	endbr64
	push	rbp
	.cfi_def_cfa_offset 16
	.cfi_offset 6, -16
	mov	rbp, rsp
	.cfi_def_cfa_register 6
	mov	QWORD PTR -8[rbp], rdi
	mov	QWORD PTR -16[rbp], rsi
	nop
	pop	rbp
	.cfi_def_cfa 7, 8
	ret
	.cfi_endproc
.LFE11313:
	.size	_ZNSt12_Destroy_auxILb1EE9__destroyIPcEEvT_S3_, .-_ZNSt12_Destroy_auxILb1EE9__destroyIPcEEvT_S3_
	.section	.text._ZNSt6vectorIS_IcSaIcEESaIS1_EE16_Temporary_value6_M_ptrEv,"axG",@progbits,_ZNSt6vectorIS_IcSaIcEESaIS1_EE16_Temporary_value6_M_ptrEv,comdat
	.align 2
	.weak	_ZNSt6vectorIS_IcSaIcEESaIS1_EE16_Temporary_value6_M_ptrEv
	.type	_ZNSt6vectorIS_IcSaIcEESaIS1_EE16_Temporary_value6_M_ptrEv, @function
_ZNSt6vectorIS_IcSaIcEESaIS1_EE16_Temporary_value6_M_ptrEv:
.LFB11314:
	.cfi_startproc
	endbr64
	push	rbp
	.cfi_def_cfa_offset 16
	.cfi_offset 6, -16
	mov	rbp, rsp
	.cfi_def_cfa_register 6
	mov	QWORD PTR -8[rbp], rdi
	mov	rax, QWORD PTR -8[rbp]
	add	rax, 8
	pop	rbp
	.cfi_def_cfa 7, 8
	ret
	.cfi_endproc
.LFE11314:
	.size	_ZNSt6vectorIS_IcSaIcEESaIS1_EE16_Temporary_value6_M_ptrEv, .-_ZNSt6vectorIS_IcSaIcEESaIS1_EE16_Temporary_value6_M_ptrEv
	.section	.text._ZSt7forwardIRKSt6vectorIcSaIcEEEOT_RNSt16remove_referenceIS5_E4typeE,"axG",@progbits,_ZSt7forwardIRKSt6vectorIcSaIcEEEOT_RNSt16remove_referenceIS5_E4typeE,comdat
	.weak	_ZSt7forwardIRKSt6vectorIcSaIcEEEOT_RNSt16remove_referenceIS5_E4typeE
	.type	_ZSt7forwardIRKSt6vectorIcSaIcEEEOT_RNSt16remove_referenceIS5_E4typeE, @function
_ZSt7forwardIRKSt6vectorIcSaIcEEEOT_RNSt16remove_referenceIS5_E4typeE:
.LFB11315:
	.cfi_startproc
	endbr64
	push	rbp
	.cfi_def_cfa_offset 16
	.cfi_offset 6, -16
	mov	rbp, rsp
	.cfi_def_cfa_register 6
	mov	QWORD PTR -8[rbp], rdi
	mov	rax, QWORD PTR -8[rbp]
	pop	rbp
	.cfi_def_cfa 7, 8
	ret
	.cfi_endproc
.LFE11315:
	.size	_ZSt7forwardIRKSt6vectorIcSaIcEEEOT_RNSt16remove_referenceIS5_E4typeE, .-_ZSt7forwardIRKSt6vectorIcSaIcEEEOT_RNSt16remove_referenceIS5_E4typeE
	.section	.text._ZNSt16allocator_traitsISaISt6vectorIcSaIcEEEE9constructIS2_JRKS2_EEEvRS3_PT_DpOT0_,"axG",@progbits,_ZNSt16allocator_traitsISaISt6vectorIcSaIcEEEE9constructIS2_JRKS2_EEEvRS3_PT_DpOT0_,comdat
	.weak	_ZNSt16allocator_traitsISaISt6vectorIcSaIcEEEE9constructIS2_JRKS2_EEEvRS3_PT_DpOT0_
	.type	_ZNSt16allocator_traitsISaISt6vectorIcSaIcEEEE9constructIS2_JRKS2_EEEvRS3_PT_DpOT0_, @function
_ZNSt16allocator_traitsISaISt6vectorIcSaIcEEEE9constructIS2_JRKS2_EEEvRS3_PT_DpOT0_:
.LFB11316:
	.cfi_startproc
	endbr64
	push	rbp
	.cfi_def_cfa_offset 16
	.cfi_offset 6, -16
	mov	rbp, rsp
	.cfi_def_cfa_register 6
	sub	rsp, 32
	mov	QWORD PTR -8[rbp], rdi
	mov	QWORD PTR -16[rbp], rsi
	mov	QWORD PTR -24[rbp], rdx
	mov	rax, QWORD PTR -24[rbp]
	mov	rdi, rax
	call	_ZSt7forwardIRKSt6vectorIcSaIcEEEOT_RNSt16remove_referenceIS5_E4typeE
	mov	rdx, rax
	mov	rcx, QWORD PTR -16[rbp]
	mov	rax, QWORD PTR -8[rbp]
	mov	rsi, rcx
	mov	rdi, rax
	call	_ZN9__gnu_cxx13new_allocatorISt6vectorIcSaIcEEE9constructIS3_JRKS3_EEEvPT_DpOT0_
	nop
	leave
	.cfi_def_cfa 7, 8
	ret
	.cfi_endproc
.LFE11316:
	.size	_ZNSt16allocator_traitsISaISt6vectorIcSaIcEEEE9constructIS2_JRKS2_EEEvRS3_PT_DpOT0_, .-_ZNSt16allocator_traitsISaISt6vectorIcSaIcEEEE9constructIS2_JRKS2_EEEvRS3_PT_DpOT0_
	.section	.text._ZNSt16allocator_traitsISaISt6vectorIcSaIcEEEE7destroyIS2_EEvRS3_PT_,"axG",@progbits,_ZNSt16allocator_traitsISaISt6vectorIcSaIcEEEE7destroyIS2_EEvRS3_PT_,comdat
	.weak	_ZNSt16allocator_traitsISaISt6vectorIcSaIcEEEE7destroyIS2_EEvRS3_PT_
	.type	_ZNSt16allocator_traitsISaISt6vectorIcSaIcEEEE7destroyIS2_EEvRS3_PT_, @function
_ZNSt16allocator_traitsISaISt6vectorIcSaIcEEEE7destroyIS2_EEvRS3_PT_:
.LFB11317:
	.cfi_startproc
	endbr64
	push	rbp
	.cfi_def_cfa_offset 16
	.cfi_offset 6, -16
	mov	rbp, rsp
	.cfi_def_cfa_register 6
	sub	rsp, 16
	mov	QWORD PTR -8[rbp], rdi
	mov	QWORD PTR -16[rbp], rsi
	mov	rdx, QWORD PTR -16[rbp]
	mov	rax, QWORD PTR -8[rbp]
	mov	rsi, rdx
	mov	rdi, rax
	call	_ZN9__gnu_cxx13new_allocatorISt6vectorIcSaIcEEE7destroyIS3_EEvPT_
	nop
	leave
	.cfi_def_cfa 7, 8
	ret
	.cfi_endproc
.LFE11317:
	.size	_ZNSt16allocator_traitsISaISt6vectorIcSaIcEEEE7destroyIS2_EEvRS3_PT_, .-_ZNSt16allocator_traitsISaISt6vectorIcSaIcEEEE7destroyIS2_EEvRS3_PT_
	.section	.text._ZSt18make_move_iteratorIPSt6vectorIcSaIcEEESt13move_iteratorIT_ES5_,"axG",@progbits,_ZSt18make_move_iteratorIPSt6vectorIcSaIcEEESt13move_iteratorIT_ES5_,comdat
	.weak	_ZSt18make_move_iteratorIPSt6vectorIcSaIcEEESt13move_iteratorIT_ES5_
	.type	_ZSt18make_move_iteratorIPSt6vectorIcSaIcEEESt13move_iteratorIT_ES5_, @function
_ZSt18make_move_iteratorIPSt6vectorIcSaIcEEESt13move_iteratorIT_ES5_:
.LFB11318:
	.cfi_startproc
	endbr64
	push	rbp
	.cfi_def_cfa_offset 16
	.cfi_offset 6, -16
	mov	rbp, rsp
	.cfi_def_cfa_register 6
	sub	rsp, 32
	mov	QWORD PTR -24[rbp], rdi
	mov	rax, QWORD PTR fs:40
	mov	QWORD PTR -8[rbp], rax
	xor	eax, eax
	lea	rax, -24[rbp]
	mov	rdi, rax
	call	_ZSt4moveIRPSt6vectorIcSaIcEEEONSt16remove_referenceIT_E4typeEOS6_
	mov	rdx, QWORD PTR [rax]
	lea	rax, -16[rbp]
	mov	rsi, rdx
	mov	rdi, rax
	call	_ZNSt13move_iteratorIPSt6vectorIcSaIcEEEC1ES3_
	mov	rax, QWORD PTR -16[rbp]
	mov	rdx, QWORD PTR -8[rbp]
	sub	rdx, QWORD PTR fs:40
	je	.L347
	call	__stack_chk_fail@PLT
.L347:
	leave
	.cfi_def_cfa 7, 8
	ret
	.cfi_endproc
.LFE11318:
	.size	_ZSt18make_move_iteratorIPSt6vectorIcSaIcEEESt13move_iteratorIT_ES5_, .-_ZSt18make_move_iteratorIPSt6vectorIcSaIcEEESt13move_iteratorIT_ES5_
	.section	.text._ZSt22__uninitialized_copy_aISt13move_iteratorIPSt6vectorIcSaIcEEES4_S3_ET0_T_S7_S6_RSaIT1_E,"axG",@progbits,_ZSt22__uninitialized_copy_aISt13move_iteratorIPSt6vectorIcSaIcEEES4_S3_ET0_T_S7_S6_RSaIT1_E,comdat
	.weak	_ZSt22__uninitialized_copy_aISt13move_iteratorIPSt6vectorIcSaIcEEES4_S3_ET0_T_S7_S6_RSaIT1_E
	.type	_ZSt22__uninitialized_copy_aISt13move_iteratorIPSt6vectorIcSaIcEEES4_S3_ET0_T_S7_S6_RSaIT1_E, @function
_ZSt22__uninitialized_copy_aISt13move_iteratorIPSt6vectorIcSaIcEEES4_S3_ET0_T_S7_S6_RSaIT1_E:
.LFB11319:
	.cfi_startproc
	endbr64
	push	rbp
	.cfi_def_cfa_offset 16
	.cfi_offset 6, -16
	mov	rbp, rsp
	.cfi_def_cfa_register 6
	sub	rsp, 32
	mov	QWORD PTR -8[rbp], rdi
	mov	QWORD PTR -16[rbp], rsi
	mov	QWORD PTR -24[rbp], rdx
	mov	QWORD PTR -32[rbp], rcx
	mov	rdx, QWORD PTR -24[rbp]
	mov	rcx, QWORD PTR -16[rbp]
	mov	rax, QWORD PTR -8[rbp]
	mov	rsi, rcx
	mov	rdi, rax
	call	_ZSt18uninitialized_copyISt13move_iteratorIPSt6vectorIcSaIcEEES4_ET0_T_S7_S6_
	leave
	.cfi_def_cfa 7, 8
	ret
	.cfi_endproc
.LFE11319:
	.size	_ZSt22__uninitialized_copy_aISt13move_iteratorIPSt6vectorIcSaIcEEES4_S3_ET0_T_S7_S6_RSaIT1_E, .-_ZSt22__uninitialized_copy_aISt13move_iteratorIPSt6vectorIcSaIcEEES4_S3_ET0_T_S7_S6_RSaIT1_E
	.section	.text._ZSt12__miter_baseIPSt6vectorIcSaIcEEET_S4_,"axG",@progbits,_ZSt12__miter_baseIPSt6vectorIcSaIcEEET_S4_,comdat
	.weak	_ZSt12__miter_baseIPSt6vectorIcSaIcEEET_S4_
	.type	_ZSt12__miter_baseIPSt6vectorIcSaIcEEET_S4_, @function
_ZSt12__miter_baseIPSt6vectorIcSaIcEEET_S4_:
.LFB11320:
	.cfi_startproc
	endbr64
	push	rbp
	.cfi_def_cfa_offset 16
	.cfi_offset 6, -16
	mov	rbp, rsp
	.cfi_def_cfa_register 6
	mov	QWORD PTR -8[rbp], rdi
	mov	rax, QWORD PTR -8[rbp]
	pop	rbp
	.cfi_def_cfa 7, 8
	ret
	.cfi_endproc
.LFE11320:
	.size	_ZSt12__miter_baseIPSt6vectorIcSaIcEEET_S4_, .-_ZSt12__miter_baseIPSt6vectorIcSaIcEEET_S4_
	.section	.text._ZSt22__copy_move_backward_aILb1EPSt6vectorIcSaIcEES3_ET1_T0_S5_S4_,"axG",@progbits,_ZSt22__copy_move_backward_aILb1EPSt6vectorIcSaIcEES3_ET1_T0_S5_S4_,comdat
	.weak	_ZSt22__copy_move_backward_aILb1EPSt6vectorIcSaIcEES3_ET1_T0_S5_S4_
	.type	_ZSt22__copy_move_backward_aILb1EPSt6vectorIcSaIcEES3_ET1_T0_S5_S4_, @function
_ZSt22__copy_move_backward_aILb1EPSt6vectorIcSaIcEES3_ET1_T0_S5_S4_:
.LFB11321:
	.cfi_startproc
	endbr64
	push	rbp
	.cfi_def_cfa_offset 16
	.cfi_offset 6, -16
	mov	rbp, rsp
	.cfi_def_cfa_register 6
	push	r12
	push	rbx
	sub	rsp, 32
	.cfi_offset 12, -24
	.cfi_offset 3, -32
	mov	QWORD PTR -24[rbp], rdi
	mov	QWORD PTR -32[rbp], rsi
	mov	QWORD PTR -40[rbp], rdx
	mov	rax, QWORD PTR -40[rbp]
	mov	rdi, rax
	call	_ZSt12__niter_baseIPSt6vectorIcSaIcEEET_S4_
	mov	r12, rax
	mov	rax, QWORD PTR -32[rbp]
	mov	rdi, rax
	call	_ZSt12__niter_baseIPSt6vectorIcSaIcEEET_S4_
	mov	rbx, rax
	mov	rax, QWORD PTR -24[rbp]
	mov	rdi, rax
	call	_ZSt12__niter_baseIPSt6vectorIcSaIcEEET_S4_
	mov	rdx, r12
	mov	rsi, rbx
	mov	rdi, rax
	call	_ZSt23__copy_move_backward_a1ILb1EPSt6vectorIcSaIcEES3_ET1_T0_S5_S4_
	mov	rdx, rax
	lea	rax, -40[rbp]
	mov	rsi, rdx
	mov	rdi, rax
	call	_ZSt12__niter_wrapIPSt6vectorIcSaIcEEET_RKS4_S4_
	add	rsp, 32
	pop	rbx
	pop	r12
	pop	rbp
	.cfi_def_cfa 7, 8
	ret
	.cfi_endproc
.LFE11321:
	.size	_ZSt22__copy_move_backward_aILb1EPSt6vectorIcSaIcEES3_ET1_T0_S5_S4_, .-_ZSt22__copy_move_backward_aILb1EPSt6vectorIcSaIcEES3_ET1_T0_S5_S4_
	.section	.text._ZSt8__fill_aIPSt6vectorIcSaIcEES2_EvT_S4_RKT0_,"axG",@progbits,_ZSt8__fill_aIPSt6vectorIcSaIcEES2_EvT_S4_RKT0_,comdat
	.weak	_ZSt8__fill_aIPSt6vectorIcSaIcEES2_EvT_S4_RKT0_
	.type	_ZSt8__fill_aIPSt6vectorIcSaIcEES2_EvT_S4_RKT0_, @function
_ZSt8__fill_aIPSt6vectorIcSaIcEES2_EvT_S4_RKT0_:
.LFB11323:
	.cfi_startproc
	endbr64
	push	rbp
	.cfi_def_cfa_offset 16
	.cfi_offset 6, -16
	mov	rbp, rsp
	.cfi_def_cfa_register 6
	sub	rsp, 32
	mov	QWORD PTR -8[rbp], rdi
	mov	QWORD PTR -16[rbp], rsi
	mov	QWORD PTR -24[rbp], rdx
	mov	rdx, QWORD PTR -24[rbp]
	mov	rcx, QWORD PTR -16[rbp]
	mov	rax, QWORD PTR -8[rbp]
	mov	rsi, rcx
	mov	rdi, rax
	call	_ZSt9__fill_a1IPSt6vectorIcSaIcEES2_EN9__gnu_cxx11__enable_ifIXntsrSt11__is_scalarIT0_E7__valueEvE6__typeET_SB_RKS7_
	nop
	leave
	.cfi_def_cfa 7, 8
	ret
	.cfi_endproc
.LFE11323:
	.size	_ZSt8__fill_aIPSt6vectorIcSaIcEES2_EvT_S4_RKT0_, .-_ZSt8__fill_aIPSt6vectorIcSaIcEES2_EvT_S4_RKT0_
	.section	.text._ZSt20uninitialized_fill_nIPSt6vectorIcSaIcEEmS2_ET_S4_T0_RKT1_,"axG",@progbits,_ZSt20uninitialized_fill_nIPSt6vectorIcSaIcEEmS2_ET_S4_T0_RKT1_,comdat
	.weak	_ZSt20uninitialized_fill_nIPSt6vectorIcSaIcEEmS2_ET_S4_T0_RKT1_
	.type	_ZSt20uninitialized_fill_nIPSt6vectorIcSaIcEEmS2_ET_S4_T0_RKT1_, @function
_ZSt20uninitialized_fill_nIPSt6vectorIcSaIcEEmS2_ET_S4_T0_RKT1_:
.LFB11324:
	.cfi_startproc
	endbr64
	push	rbp
	.cfi_def_cfa_offset 16
	.cfi_offset 6, -16
	mov	rbp, rsp
	.cfi_def_cfa_register 6
	sub	rsp, 48
	mov	QWORD PTR -24[rbp], rdi
	mov	QWORD PTR -32[rbp], rsi
	mov	QWORD PTR -40[rbp], rdx
	mov	BYTE PTR -1[rbp], 1
	mov	rdx, QWORD PTR -40[rbp]
	mov	rcx, QWORD PTR -32[rbp]
	mov	rax, QWORD PTR -24[rbp]
	mov	rsi, rcx
	mov	rdi, rax
	call	_ZNSt22__uninitialized_fill_nILb0EE15__uninit_fill_nIPSt6vectorIcSaIcEEmS4_EET_S6_T0_RKT1_
	leave
	.cfi_def_cfa 7, 8
	ret
	.cfi_endproc
.LFE11324:
	.size	_ZSt20uninitialized_fill_nIPSt6vectorIcSaIcEEmS2_ET_S4_T0_RKT1_, .-_ZSt20uninitialized_fill_nIPSt6vectorIcSaIcEEmS2_ET_S4_T0_RKT1_
	.section	.text._ZNKSt6vectorIS_IcSaIcEESaIS1_EE8max_sizeEv,"axG",@progbits,_ZNKSt6vectorIS_IcSaIcEESaIS1_EE8max_sizeEv,comdat
	.align 2
	.weak	_ZNKSt6vectorIS_IcSaIcEESaIS1_EE8max_sizeEv
	.type	_ZNKSt6vectorIS_IcSaIcEESaIS1_EE8max_sizeEv, @function
_ZNKSt6vectorIS_IcSaIcEESaIS1_EE8max_sizeEv:
.LFB11325:
	.cfi_startproc
	endbr64
	push	rbp
	.cfi_def_cfa_offset 16
	.cfi_offset 6, -16
	mov	rbp, rsp
	.cfi_def_cfa_register 6
	sub	rsp, 16
	mov	QWORD PTR -8[rbp], rdi
	mov	rax, QWORD PTR -8[rbp]
	mov	rdi, rax
	call	_ZNKSt12_Vector_baseISt6vectorIcSaIcEESaIS2_EE19_M_get_Tp_allocatorEv
	mov	rdi, rax
	call	_ZNSt6vectorIS_IcSaIcEESaIS1_EE11_S_max_sizeERKS2_
	leave
	.cfi_def_cfa 7, 8
	ret
	.cfi_endproc
.LFE11325:
	.size	_ZNKSt6vectorIS_IcSaIcEESaIS1_EE8max_sizeEv, .-_ZNKSt6vectorIS_IcSaIcEESaIS1_EE8max_sizeEv
	.section	.text._ZNSt16allocator_traitsISaISt6vectorIcSaIcEEEE8allocateERS3_m,"axG",@progbits,_ZNSt16allocator_traitsISaISt6vectorIcSaIcEEEE8allocateERS3_m,comdat
	.weak	_ZNSt16allocator_traitsISaISt6vectorIcSaIcEEEE8allocateERS3_m
	.type	_ZNSt16allocator_traitsISaISt6vectorIcSaIcEEEE8allocateERS3_m, @function
_ZNSt16allocator_traitsISaISt6vectorIcSaIcEEEE8allocateERS3_m:
.LFB11326:
	.cfi_startproc
	endbr64
	push	rbp
	.cfi_def_cfa_offset 16
	.cfi_offset 6, -16
	mov	rbp, rsp
	.cfi_def_cfa_register 6
	sub	rsp, 16
	mov	QWORD PTR -8[rbp], rdi
	mov	QWORD PTR -16[rbp], rsi
	mov	rcx, QWORD PTR -16[rbp]
	mov	rax, QWORD PTR -8[rbp]
	mov	edx, 0
	mov	rsi, rcx
	mov	rdi, rax
	call	_ZN9__gnu_cxx13new_allocatorISt6vectorIcSaIcEEE8allocateEmPKv
	leave
	.cfi_def_cfa 7, 8
	ret
	.cfi_endproc
.LFE11326:
	.size	_ZNSt16allocator_traitsISaISt6vectorIcSaIcEEEE8allocateERS3_m, .-_ZNSt16allocator_traitsISaISt6vectorIcSaIcEEEE8allocateERS3_m
	.section	.text._ZSt32__make_move_if_noexcept_iteratorISt6vectorIcSaIcEESt13move_iteratorIPS2_EET0_PT_,"axG",@progbits,_ZSt32__make_move_if_noexcept_iteratorISt6vectorIcSaIcEESt13move_iteratorIPS2_EET0_PT_,comdat
	.weak	_ZSt32__make_move_if_noexcept_iteratorISt6vectorIcSaIcEESt13move_iteratorIPS2_EET0_PT_
	.type	_ZSt32__make_move_if_noexcept_iteratorISt6vectorIcSaIcEESt13move_iteratorIPS2_EET0_PT_, @function
_ZSt32__make_move_if_noexcept_iteratorISt6vectorIcSaIcEESt13move_iteratorIPS2_EET0_PT_:
.LFB11327:
	.cfi_startproc
	endbr64
	push	rbp
	.cfi_def_cfa_offset 16
	.cfi_offset 6, -16
	mov	rbp, rsp
	.cfi_def_cfa_register 6
	sub	rsp, 32
	mov	QWORD PTR -24[rbp], rdi
	mov	rax, QWORD PTR fs:40
	mov	QWORD PTR -8[rbp], rax
	xor	eax, eax
	mov	rdx, QWORD PTR -24[rbp]
	lea	rax, -16[rbp]
	mov	rsi, rdx
	mov	rdi, rax
	call	_ZNSt13move_iteratorIPSt6vectorIcSaIcEEEC1ES3_
	mov	rax, QWORD PTR -16[rbp]
	mov	rdx, QWORD PTR -8[rbp]
	sub	rdx, QWORD PTR fs:40
	je	.L363
	call	__stack_chk_fail@PLT
.L363:
	leave
	.cfi_def_cfa 7, 8
	ret
	.cfi_endproc
.LFE11327:
	.size	_ZSt32__make_move_if_noexcept_iteratorISt6vectorIcSaIcEESt13move_iteratorIPS2_EET0_PT_, .-_ZSt32__make_move_if_noexcept_iteratorISt6vectorIcSaIcEESt13move_iteratorIPS2_EET0_PT_
	.section	.text._ZSt8_DestroyIPSt6vectorIcSaIcEEEvT_S4_,"axG",@progbits,_ZSt8_DestroyIPSt6vectorIcSaIcEEEvT_S4_,comdat
	.weak	_ZSt8_DestroyIPSt6vectorIcSaIcEEEvT_S4_
	.type	_ZSt8_DestroyIPSt6vectorIcSaIcEEEvT_S4_, @function
_ZSt8_DestroyIPSt6vectorIcSaIcEEEvT_S4_:
.LFB11328:
	.cfi_startproc
	endbr64
	push	rbp
	.cfi_def_cfa_offset 16
	.cfi_offset 6, -16
	mov	rbp, rsp
	.cfi_def_cfa_register 6
	sub	rsp, 16
	mov	QWORD PTR -8[rbp], rdi
	mov	QWORD PTR -16[rbp], rsi
	mov	rdx, QWORD PTR -16[rbp]
	mov	rax, QWORD PTR -8[rbp]
	mov	rsi, rdx
	mov	rdi, rax
	call	_ZNSt12_Destroy_auxILb0EE9__destroyIPSt6vectorIcSaIcEEEEvT_S6_
	nop
	leave
	.cfi_def_cfa 7, 8
	ret
	.cfi_endproc
.LFE11328:
	.size	_ZSt8_DestroyIPSt6vectorIcSaIcEEEvT_S4_, .-_ZSt8_DestroyIPSt6vectorIcSaIcEEEvT_S4_
	.section	.text._ZNSaImEC2IbEERKSaIT_E,"axG",@progbits,_ZNSaImEC5IbEERKSaIT_E,comdat
	.align 2
	.weak	_ZNSaImEC2IbEERKSaIT_E
	.type	_ZNSaImEC2IbEERKSaIT_E, @function
_ZNSaImEC2IbEERKSaIT_E:
.LFB11330:
	.cfi_startproc
	endbr64
	push	rbp
	.cfi_def_cfa_offset 16
	.cfi_offset 6, -16
	mov	rbp, rsp
	.cfi_def_cfa_register 6
	sub	rsp, 16
	mov	QWORD PTR -8[rbp], rdi
	mov	QWORD PTR -16[rbp], rsi
	mov	rax, QWORD PTR -8[rbp]
	mov	rdi, rax
	call	_ZN9__gnu_cxx13new_allocatorImEC2Ev
	nop
	leave
	.cfi_def_cfa 7, 8
	ret
	.cfi_endproc
.LFE11330:
	.size	_ZNSaImEC2IbEERKSaIT_E, .-_ZNSaImEC2IbEERKSaIT_E
	.weak	_ZNSaImEC1IbEERKSaIT_E
	.set	_ZNSaImEC1IbEERKSaIT_E,_ZNSaImEC2IbEERKSaIT_E
	.section	.text._ZNSt13_Bvector_baseISaIbEE13_Bvector_implC2ERKSaImE,"axG",@progbits,_ZNSt13_Bvector_baseISaIbEE13_Bvector_implC5ERKSaImE,comdat
	.align 2
	.weak	_ZNSt13_Bvector_baseISaIbEE13_Bvector_implC2ERKSaImE
	.type	_ZNSt13_Bvector_baseISaIbEE13_Bvector_implC2ERKSaImE, @function
_ZNSt13_Bvector_baseISaIbEE13_Bvector_implC2ERKSaImE:
.LFB11333:
	.cfi_startproc
	endbr64
	push	rbp
	.cfi_def_cfa_offset 16
	.cfi_offset 6, -16
	mov	rbp, rsp
	.cfi_def_cfa_register 6
	sub	rsp, 16
	mov	QWORD PTR -8[rbp], rdi
	mov	QWORD PTR -16[rbp], rsi
	mov	rdx, QWORD PTR -16[rbp]
	mov	rax, QWORD PTR -8[rbp]
	mov	rsi, rdx
	mov	rdi, rax
	call	_ZNSaImEC2ERKS_
	mov	rax, QWORD PTR -8[rbp]
	mov	rdi, rax
	call	_ZNSt13_Bvector_baseISaIbEE18_Bvector_impl_dataC2Ev
	nop
	leave
	.cfi_def_cfa 7, 8
	ret
	.cfi_endproc
.LFE11333:
	.size	_ZNSt13_Bvector_baseISaIbEE13_Bvector_implC2ERKSaImE, .-_ZNSt13_Bvector_baseISaIbEE13_Bvector_implC2ERKSaImE
	.weak	_ZNSt13_Bvector_baseISaIbEE13_Bvector_implC1ERKSaImE
	.set	_ZNSt13_Bvector_baseISaIbEE13_Bvector_implC1ERKSaImE,_ZNSt13_Bvector_baseISaIbEE13_Bvector_implC2ERKSaImE
	.section	.text._ZNSt13_Bvector_baseISaIbEE11_M_allocateEm,"axG",@progbits,_ZNSt13_Bvector_baseISaIbEE11_M_allocateEm,comdat
	.align 2
	.weak	_ZNSt13_Bvector_baseISaIbEE11_M_allocateEm
	.type	_ZNSt13_Bvector_baseISaIbEE11_M_allocateEm, @function
_ZNSt13_Bvector_baseISaIbEE11_M_allocateEm:
.LFB11335:
	.cfi_startproc
	endbr64
	push	rbp
	.cfi_def_cfa_offset 16
	.cfi_offset 6, -16
	mov	rbp, rsp
	.cfi_def_cfa_register 6
	sub	rsp, 16
	mov	QWORD PTR -8[rbp], rdi
	mov	QWORD PTR -16[rbp], rsi
	mov	rax, QWORD PTR -16[rbp]
	mov	rdi, rax
	call	_ZNSt13_Bvector_baseISaIbEE8_S_nwordEm
	mov	rdx, rax
	mov	rax, QWORD PTR -8[rbp]
	mov	rsi, rdx
	mov	rdi, rax
	call	_ZNSt16allocator_traitsISaImEE8allocateERS0_m
	leave
	.cfi_def_cfa 7, 8
	ret
	.cfi_endproc
.LFE11335:
	.size	_ZNSt13_Bvector_baseISaIbEE11_M_allocateEm, .-_ZNSt13_Bvector_baseISaIbEE11_M_allocateEm
	.section	.text._ZNSt13_Bvector_baseISaIbEE8_S_nwordEm,"axG",@progbits,_ZNSt13_Bvector_baseISaIbEE8_S_nwordEm,comdat
	.weak	_ZNSt13_Bvector_baseISaIbEE8_S_nwordEm
	.type	_ZNSt13_Bvector_baseISaIbEE8_S_nwordEm, @function
_ZNSt13_Bvector_baseISaIbEE8_S_nwordEm:
.LFB11336:
	.cfi_startproc
	endbr64
	push	rbp
	.cfi_def_cfa_offset 16
	.cfi_offset 6, -16
	mov	rbp, rsp
	.cfi_def_cfa_register 6
	mov	QWORD PTR -8[rbp], rdi
	mov	rax, QWORD PTR -8[rbp]
	add	rax, 63
	shr	rax, 6
	pop	rbp
	.cfi_def_cfa 7, 8
	ret
	.cfi_endproc
.LFE11336:
	.size	_ZNSt13_Bvector_baseISaIbEE8_S_nwordEm, .-_ZNSt13_Bvector_baseISaIbEE8_S_nwordEm
	.section	.text._ZSt11__addressofImEPT_RS0_,"axG",@progbits,_ZSt11__addressofImEPT_RS0_,comdat
	.weak	_ZSt11__addressofImEPT_RS0_
	.type	_ZSt11__addressofImEPT_RS0_, @function
_ZSt11__addressofImEPT_RS0_:
.LFB11337:
	.cfi_startproc
	endbr64
	push	rbp
	.cfi_def_cfa_offset 16
	.cfi_offset 6, -16
	mov	rbp, rsp
	.cfi_def_cfa_register 6
	mov	QWORD PTR -8[rbp], rdi
	mov	rax, QWORD PTR -8[rbp]
	pop	rbp
	.cfi_def_cfa 7, 8
	ret
	.cfi_endproc
.LFE11337:
	.size	_ZSt11__addressofImEPT_RS0_, .-_ZSt11__addressofImEPT_RS0_
	.section	.text._ZNKSt13_Bvector_baseISaIbEE13_Bvector_impl11_M_end_addrEv,"axG",@progbits,_ZNKSt13_Bvector_baseISaIbEE13_Bvector_impl11_M_end_addrEv,comdat
	.align 2
	.weak	_ZNKSt13_Bvector_baseISaIbEE13_Bvector_impl11_M_end_addrEv
	.type	_ZNKSt13_Bvector_baseISaIbEE13_Bvector_impl11_M_end_addrEv, @function
_ZNKSt13_Bvector_baseISaIbEE13_Bvector_impl11_M_end_addrEv:
.LFB11338:
	.cfi_startproc
	endbr64
	push	rbp
	.cfi_def_cfa_offset 16
	.cfi_offset 6, -16
	mov	rbp, rsp
	.cfi_def_cfa_register 6
	sub	rsp, 16
	mov	QWORD PTR -8[rbp], rdi
	mov	rax, QWORD PTR -8[rbp]
	mov	rax, QWORD PTR 32[rax]
	test	rax, rax
	je	.L374
	mov	rax, QWORD PTR -8[rbp]
	mov	rax, QWORD PTR 32[rax]
	sub	rax, 8
	mov	rdi, rax
	call	_ZSt11__addressofImEPT_RS0_
	add	rax, 8
	jmp	.L375
.L374:
	mov	eax, 0
.L375:
	leave
	.cfi_def_cfa 7, 8
	ret
	.cfi_endproc
.LFE11338:
	.size	_ZNKSt13_Bvector_baseISaIbEE13_Bvector_impl11_M_end_addrEv, .-_ZNKSt13_Bvector_baseISaIbEE13_Bvector_impl11_M_end_addrEv
	.section	.text._ZNSt13_Bvector_baseISaIbEE18_Bvector_impl_data8_M_resetEv,"axG",@progbits,_ZNSt13_Bvector_baseISaIbEE18_Bvector_impl_data8_M_resetEv,comdat
	.align 2
	.weak	_ZNSt13_Bvector_baseISaIbEE18_Bvector_impl_data8_M_resetEv
	.type	_ZNSt13_Bvector_baseISaIbEE18_Bvector_impl_data8_M_resetEv, @function
_ZNSt13_Bvector_baseISaIbEE18_Bvector_impl_data8_M_resetEv:
.LFB11339:
	.cfi_startproc
	endbr64
	push	rbp
	.cfi_def_cfa_offset 16
	.cfi_offset 6, -16
	mov	rbp, rsp
	.cfi_def_cfa_register 6
	push	rbx
	sub	rsp, 72
	.cfi_offset 3, -24
	mov	QWORD PTR -72[rbp], rdi
	mov	rax, QWORD PTR fs:40
	mov	QWORD PTR -24[rbp], rax
	xor	eax, eax
	lea	rax, -64[rbp]
	mov	rdi, rax
	call	_ZNSt13_Bvector_baseISaIbEE18_Bvector_impl_dataC1Ev
	mov	rax, QWORD PTR -72[rbp]
	mov	rcx, QWORD PTR -64[rbp]
	mov	rbx, QWORD PTR -56[rbp]
	mov	QWORD PTR [rax], rcx
	mov	QWORD PTR 8[rax], rbx
	mov	rcx, QWORD PTR -48[rbp]
	mov	rbx, QWORD PTR -40[rbp]
	mov	QWORD PTR 16[rax], rcx
	mov	QWORD PTR 24[rax], rbx
	mov	rdx, QWORD PTR -32[rbp]
	mov	QWORD PTR 32[rax], rdx
	nop
	mov	rax, QWORD PTR -24[rbp]
	sub	rax, QWORD PTR fs:40
	je	.L377
	call	__stack_chk_fail@PLT
.L377:
	mov	rbx, QWORD PTR -8[rbp]
	leave
	.cfi_def_cfa 7, 8
	ret
	.cfi_endproc
.LFE11339:
	.size	_ZNSt13_Bvector_baseISaIbEE18_Bvector_impl_data8_M_resetEv, .-_ZNSt13_Bvector_baseISaIbEE18_Bvector_impl_data8_M_resetEv
	.section	.text._ZNSt6vectorIS_IbSaIbEESaIS1_EE16_Temporary_value6_M_ptrEv,"axG",@progbits,_ZNSt6vectorIS_IbSaIbEESaIS1_EE16_Temporary_value6_M_ptrEv,comdat
	.align 2
	.weak	_ZNSt6vectorIS_IbSaIbEESaIS1_EE16_Temporary_value6_M_ptrEv
	.type	_ZNSt6vectorIS_IbSaIbEESaIS1_EE16_Temporary_value6_M_ptrEv, @function
_ZNSt6vectorIS_IbSaIbEESaIS1_EE16_Temporary_value6_M_ptrEv:
.LFB11340:
	.cfi_startproc
	endbr64
	push	rbp
	.cfi_def_cfa_offset 16
	.cfi_offset 6, -16
	mov	rbp, rsp
	.cfi_def_cfa_register 6
	mov	QWORD PTR -8[rbp], rdi
	mov	rax, QWORD PTR -8[rbp]
	add	rax, 8
	pop	rbp
	.cfi_def_cfa 7, 8
	ret
	.cfi_endproc
.LFE11340:
	.size	_ZNSt6vectorIS_IbSaIbEESaIS1_EE16_Temporary_value6_M_ptrEv, .-_ZNSt6vectorIS_IbSaIbEESaIS1_EE16_Temporary_value6_M_ptrEv
	.section	.text._ZSt7forwardIRKSt6vectorIbSaIbEEEOT_RNSt16remove_referenceIS5_E4typeE,"axG",@progbits,_ZSt7forwardIRKSt6vectorIbSaIbEEEOT_RNSt16remove_referenceIS5_E4typeE,comdat
	.weak	_ZSt7forwardIRKSt6vectorIbSaIbEEEOT_RNSt16remove_referenceIS5_E4typeE
	.type	_ZSt7forwardIRKSt6vectorIbSaIbEEEOT_RNSt16remove_referenceIS5_E4typeE, @function
_ZSt7forwardIRKSt6vectorIbSaIbEEEOT_RNSt16remove_referenceIS5_E4typeE:
.LFB11341:
	.cfi_startproc
	endbr64
	push	rbp
	.cfi_def_cfa_offset 16
	.cfi_offset 6, -16
	mov	rbp, rsp
	.cfi_def_cfa_register 6
	mov	QWORD PTR -8[rbp], rdi
	mov	rax, QWORD PTR -8[rbp]
	pop	rbp
	.cfi_def_cfa 7, 8
	ret
	.cfi_endproc
.LFE11341:
	.size	_ZSt7forwardIRKSt6vectorIbSaIbEEEOT_RNSt16remove_referenceIS5_E4typeE, .-_ZSt7forwardIRKSt6vectorIbSaIbEEEOT_RNSt16remove_referenceIS5_E4typeE
	.section	.text._ZNSt16allocator_traitsISaISt6vectorIbSaIbEEEE9constructIS2_JRKS2_EEEvRS3_PT_DpOT0_,"axG",@progbits,_ZNSt16allocator_traitsISaISt6vectorIbSaIbEEEE9constructIS2_JRKS2_EEEvRS3_PT_DpOT0_,comdat
	.weak	_ZNSt16allocator_traitsISaISt6vectorIbSaIbEEEE9constructIS2_JRKS2_EEEvRS3_PT_DpOT0_
	.type	_ZNSt16allocator_traitsISaISt6vectorIbSaIbEEEE9constructIS2_JRKS2_EEEvRS3_PT_DpOT0_, @function
_ZNSt16allocator_traitsISaISt6vectorIbSaIbEEEE9constructIS2_JRKS2_EEEvRS3_PT_DpOT0_:
.LFB11342:
	.cfi_startproc
	endbr64
	push	rbp
	.cfi_def_cfa_offset 16
	.cfi_offset 6, -16
	mov	rbp, rsp
	.cfi_def_cfa_register 6
	sub	rsp, 32
	mov	QWORD PTR -8[rbp], rdi
	mov	QWORD PTR -16[rbp], rsi
	mov	QWORD PTR -24[rbp], rdx
	mov	rax, QWORD PTR -24[rbp]
	mov	rdi, rax
	call	_ZSt7forwardIRKSt6vectorIbSaIbEEEOT_RNSt16remove_referenceIS5_E4typeE
	mov	rdx, rax
	mov	rcx, QWORD PTR -16[rbp]
	mov	rax, QWORD PTR -8[rbp]
	mov	rsi, rcx
	mov	rdi, rax
	call	_ZN9__gnu_cxx13new_allocatorISt6vectorIbSaIbEEE9constructIS3_JRKS3_EEEvPT_DpOT0_
	nop
	leave
	.cfi_def_cfa 7, 8
	ret
	.cfi_endproc
.LFE11342:
	.size	_ZNSt16allocator_traitsISaISt6vectorIbSaIbEEEE9constructIS2_JRKS2_EEEvRS3_PT_DpOT0_, .-_ZNSt16allocator_traitsISaISt6vectorIbSaIbEEEE9constructIS2_JRKS2_EEEvRS3_PT_DpOT0_
	.section	.text._ZNSt16allocator_traitsISaISt6vectorIbSaIbEEEE7destroyIS2_EEvRS3_PT_,"axG",@progbits,_ZNSt16allocator_traitsISaISt6vectorIbSaIbEEEE7destroyIS2_EEvRS3_PT_,comdat
	.weak	_ZNSt16allocator_traitsISaISt6vectorIbSaIbEEEE7destroyIS2_EEvRS3_PT_
	.type	_ZNSt16allocator_traitsISaISt6vectorIbSaIbEEEE7destroyIS2_EEvRS3_PT_, @function
_ZNSt16allocator_traitsISaISt6vectorIbSaIbEEEE7destroyIS2_EEvRS3_PT_:
.LFB11343:
	.cfi_startproc
	endbr64
	push	rbp
	.cfi_def_cfa_offset 16
	.cfi_offset 6, -16
	mov	rbp, rsp
	.cfi_def_cfa_register 6
	sub	rsp, 16
	mov	QWORD PTR -8[rbp], rdi
	mov	QWORD PTR -16[rbp], rsi
	mov	rdx, QWORD PTR -16[rbp]
	mov	rax, QWORD PTR -8[rbp]
	mov	rsi, rdx
	mov	rdi, rax
	call	_ZN9__gnu_cxx13new_allocatorISt6vectorIbSaIbEEE7destroyIS3_EEvPT_
	nop
	leave
	.cfi_def_cfa 7, 8
	ret
	.cfi_endproc
.LFE11343:
	.size	_ZNSt16allocator_traitsISaISt6vectorIbSaIbEEEE7destroyIS2_EEvRS3_PT_, .-_ZNSt16allocator_traitsISaISt6vectorIbSaIbEEEE7destroyIS2_EEvRS3_PT_
	.section	.text._ZSt18make_move_iteratorIPSt6vectorIbSaIbEEESt13move_iteratorIT_ES5_,"axG",@progbits,_ZSt18make_move_iteratorIPSt6vectorIbSaIbEEESt13move_iteratorIT_ES5_,comdat
	.weak	_ZSt18make_move_iteratorIPSt6vectorIbSaIbEEESt13move_iteratorIT_ES5_
	.type	_ZSt18make_move_iteratorIPSt6vectorIbSaIbEEESt13move_iteratorIT_ES5_, @function
_ZSt18make_move_iteratorIPSt6vectorIbSaIbEEESt13move_iteratorIT_ES5_:
.LFB11344:
	.cfi_startproc
	endbr64
	push	rbp
	.cfi_def_cfa_offset 16
	.cfi_offset 6, -16
	mov	rbp, rsp
	.cfi_def_cfa_register 6
	sub	rsp, 32
	mov	QWORD PTR -24[rbp], rdi
	mov	rax, QWORD PTR fs:40
	mov	QWORD PTR -8[rbp], rax
	xor	eax, eax
	lea	rax, -24[rbp]
	mov	rdi, rax
	call	_ZSt4moveIRPSt6vectorIbSaIbEEEONSt16remove_referenceIT_E4typeEOS6_
	mov	rdx, QWORD PTR [rax]
	lea	rax, -16[rbp]
	mov	rsi, rdx
	mov	rdi, rax
	call	_ZNSt13move_iteratorIPSt6vectorIbSaIbEEEC1ES3_
	mov	rax, QWORD PTR -16[rbp]
	mov	rdx, QWORD PTR -8[rbp]
	sub	rdx, QWORD PTR fs:40
	je	.L386
	call	__stack_chk_fail@PLT
.L386:
	leave
	.cfi_def_cfa 7, 8
	ret
	.cfi_endproc
.LFE11344:
	.size	_ZSt18make_move_iteratorIPSt6vectorIbSaIbEEESt13move_iteratorIT_ES5_, .-_ZSt18make_move_iteratorIPSt6vectorIbSaIbEEESt13move_iteratorIT_ES5_
	.section	.text._ZSt22__uninitialized_copy_aISt13move_iteratorIPSt6vectorIbSaIbEEES4_S3_ET0_T_S7_S6_RSaIT1_E,"axG",@progbits,_ZSt22__uninitialized_copy_aISt13move_iteratorIPSt6vectorIbSaIbEEES4_S3_ET0_T_S7_S6_RSaIT1_E,comdat
	.weak	_ZSt22__uninitialized_copy_aISt13move_iteratorIPSt6vectorIbSaIbEEES4_S3_ET0_T_S7_S6_RSaIT1_E
	.type	_ZSt22__uninitialized_copy_aISt13move_iteratorIPSt6vectorIbSaIbEEES4_S3_ET0_T_S7_S6_RSaIT1_E, @function
_ZSt22__uninitialized_copy_aISt13move_iteratorIPSt6vectorIbSaIbEEES4_S3_ET0_T_S7_S6_RSaIT1_E:
.LFB11345:
	.cfi_startproc
	endbr64
	push	rbp
	.cfi_def_cfa_offset 16
	.cfi_offset 6, -16
	mov	rbp, rsp
	.cfi_def_cfa_register 6
	sub	rsp, 32
	mov	QWORD PTR -8[rbp], rdi
	mov	QWORD PTR -16[rbp], rsi
	mov	QWORD PTR -24[rbp], rdx
	mov	QWORD PTR -32[rbp], rcx
	mov	rdx, QWORD PTR -24[rbp]
	mov	rcx, QWORD PTR -16[rbp]
	mov	rax, QWORD PTR -8[rbp]
	mov	rsi, rcx
	mov	rdi, rax
	call	_ZSt18uninitialized_copyISt13move_iteratorIPSt6vectorIbSaIbEEES4_ET0_T_S7_S6_
	leave
	.cfi_def_cfa 7, 8
	ret
	.cfi_endproc
.LFE11345:
	.size	_ZSt22__uninitialized_copy_aISt13move_iteratorIPSt6vectorIbSaIbEEES4_S3_ET0_T_S7_S6_RSaIT1_E, .-_ZSt22__uninitialized_copy_aISt13move_iteratorIPSt6vectorIbSaIbEEES4_S3_ET0_T_S7_S6_RSaIT1_E
	.section	.text._ZSt12__miter_baseIPSt6vectorIbSaIbEEET_S4_,"axG",@progbits,_ZSt12__miter_baseIPSt6vectorIbSaIbEEET_S4_,comdat
	.weak	_ZSt12__miter_baseIPSt6vectorIbSaIbEEET_S4_
	.type	_ZSt12__miter_baseIPSt6vectorIbSaIbEEET_S4_, @function
_ZSt12__miter_baseIPSt6vectorIbSaIbEEET_S4_:
.LFB11346:
	.cfi_startproc
	endbr64
	push	rbp
	.cfi_def_cfa_offset 16
	.cfi_offset 6, -16
	mov	rbp, rsp
	.cfi_def_cfa_register 6
	mov	QWORD PTR -8[rbp], rdi
	mov	rax, QWORD PTR -8[rbp]
	pop	rbp
	.cfi_def_cfa 7, 8
	ret
	.cfi_endproc
.LFE11346:
	.size	_ZSt12__miter_baseIPSt6vectorIbSaIbEEET_S4_, .-_ZSt12__miter_baseIPSt6vectorIbSaIbEEET_S4_
	.section	.text._ZSt22__copy_move_backward_aILb1EPSt6vectorIbSaIbEES3_ET1_T0_S5_S4_,"axG",@progbits,_ZSt22__copy_move_backward_aILb1EPSt6vectorIbSaIbEES3_ET1_T0_S5_S4_,comdat
	.weak	_ZSt22__copy_move_backward_aILb1EPSt6vectorIbSaIbEES3_ET1_T0_S5_S4_
	.type	_ZSt22__copy_move_backward_aILb1EPSt6vectorIbSaIbEES3_ET1_T0_S5_S4_, @function
_ZSt22__copy_move_backward_aILb1EPSt6vectorIbSaIbEES3_ET1_T0_S5_S4_:
.LFB11347:
	.cfi_startproc
	endbr64
	push	rbp
	.cfi_def_cfa_offset 16
	.cfi_offset 6, -16
	mov	rbp, rsp
	.cfi_def_cfa_register 6
	push	r12
	push	rbx
	sub	rsp, 32
	.cfi_offset 12, -24
	.cfi_offset 3, -32
	mov	QWORD PTR -24[rbp], rdi
	mov	QWORD PTR -32[rbp], rsi
	mov	QWORD PTR -40[rbp], rdx
	mov	rax, QWORD PTR -40[rbp]
	mov	rdi, rax
	call	_ZSt12__niter_baseIPSt6vectorIbSaIbEEET_S4_
	mov	r12, rax
	mov	rax, QWORD PTR -32[rbp]
	mov	rdi, rax
	call	_ZSt12__niter_baseIPSt6vectorIbSaIbEEET_S4_
	mov	rbx, rax
	mov	rax, QWORD PTR -24[rbp]
	mov	rdi, rax
	call	_ZSt12__niter_baseIPSt6vectorIbSaIbEEET_S4_
	mov	rdx, r12
	mov	rsi, rbx
	mov	rdi, rax
	call	_ZSt23__copy_move_backward_a1ILb1EPSt6vectorIbSaIbEES3_ET1_T0_S5_S4_
	mov	rdx, rax
	lea	rax, -40[rbp]
	mov	rsi, rdx
	mov	rdi, rax
	call	_ZSt12__niter_wrapIPSt6vectorIbSaIbEEET_RKS4_S4_
	add	rsp, 32
	pop	rbx
	pop	r12
	pop	rbp
	.cfi_def_cfa 7, 8
	ret
	.cfi_endproc
.LFE11347:
	.size	_ZSt22__copy_move_backward_aILb1EPSt6vectorIbSaIbEES3_ET1_T0_S5_S4_, .-_ZSt22__copy_move_backward_aILb1EPSt6vectorIbSaIbEES3_ET1_T0_S5_S4_
	.section	.text._ZSt8__fill_aIPSt6vectorIbSaIbEES2_EvT_S4_RKT0_,"axG",@progbits,_ZSt8__fill_aIPSt6vectorIbSaIbEES2_EvT_S4_RKT0_,comdat
	.weak	_ZSt8__fill_aIPSt6vectorIbSaIbEES2_EvT_S4_RKT0_
	.type	_ZSt8__fill_aIPSt6vectorIbSaIbEES2_EvT_S4_RKT0_, @function
_ZSt8__fill_aIPSt6vectorIbSaIbEES2_EvT_S4_RKT0_:
.LFB11349:
	.cfi_startproc
	endbr64
	push	rbp
	.cfi_def_cfa_offset 16
	.cfi_offset 6, -16
	mov	rbp, rsp
	.cfi_def_cfa_register 6
	sub	rsp, 32
	mov	QWORD PTR -8[rbp], rdi
	mov	QWORD PTR -16[rbp], rsi
	mov	QWORD PTR -24[rbp], rdx
	mov	rdx, QWORD PTR -24[rbp]
	mov	rcx, QWORD PTR -16[rbp]
	mov	rax, QWORD PTR -8[rbp]
	mov	rsi, rcx
	mov	rdi, rax
	call	_ZSt9__fill_a1IPSt6vectorIbSaIbEES2_EN9__gnu_cxx11__enable_ifIXntsrSt11__is_scalarIT0_E7__valueEvE6__typeET_SB_RKS7_
	nop
	leave
	.cfi_def_cfa 7, 8
	ret
	.cfi_endproc
.LFE11349:
	.size	_ZSt8__fill_aIPSt6vectorIbSaIbEES2_EvT_S4_RKT0_, .-_ZSt8__fill_aIPSt6vectorIbSaIbEES2_EvT_S4_RKT0_
	.section	.text._ZSt20uninitialized_fill_nIPSt6vectorIbSaIbEEmS2_ET_S4_T0_RKT1_,"axG",@progbits,_ZSt20uninitialized_fill_nIPSt6vectorIbSaIbEEmS2_ET_S4_T0_RKT1_,comdat
	.weak	_ZSt20uninitialized_fill_nIPSt6vectorIbSaIbEEmS2_ET_S4_T0_RKT1_
	.type	_ZSt20uninitialized_fill_nIPSt6vectorIbSaIbEEmS2_ET_S4_T0_RKT1_, @function
_ZSt20uninitialized_fill_nIPSt6vectorIbSaIbEEmS2_ET_S4_T0_RKT1_:
.LFB11350:
	.cfi_startproc
	endbr64
	push	rbp
	.cfi_def_cfa_offset 16
	.cfi_offset 6, -16
	mov	rbp, rsp
	.cfi_def_cfa_register 6
	sub	rsp, 48
	mov	QWORD PTR -24[rbp], rdi
	mov	QWORD PTR -32[rbp], rsi
	mov	QWORD PTR -40[rbp], rdx
	mov	BYTE PTR -1[rbp], 1
	mov	rdx, QWORD PTR -40[rbp]
	mov	rcx, QWORD PTR -32[rbp]
	mov	rax, QWORD PTR -24[rbp]
	mov	rsi, rcx
	mov	rdi, rax
	call	_ZNSt22__uninitialized_fill_nILb0EE15__uninit_fill_nIPSt6vectorIbSaIbEEmS4_EET_S6_T0_RKT1_
	leave
	.cfi_def_cfa 7, 8
	ret
	.cfi_endproc
.LFE11350:
	.size	_ZSt20uninitialized_fill_nIPSt6vectorIbSaIbEEmS2_ET_S4_T0_RKT1_, .-_ZSt20uninitialized_fill_nIPSt6vectorIbSaIbEEmS2_ET_S4_T0_RKT1_
	.section	.text._ZNKSt6vectorIS_IbSaIbEESaIS1_EE8max_sizeEv,"axG",@progbits,_ZNKSt6vectorIS_IbSaIbEESaIS1_EE8max_sizeEv,comdat
	.align 2
	.weak	_ZNKSt6vectorIS_IbSaIbEESaIS1_EE8max_sizeEv
	.type	_ZNKSt6vectorIS_IbSaIbEESaIS1_EE8max_sizeEv, @function
_ZNKSt6vectorIS_IbSaIbEESaIS1_EE8max_sizeEv:
.LFB11351:
	.cfi_startproc
	endbr64
	push	rbp
	.cfi_def_cfa_offset 16
	.cfi_offset 6, -16
	mov	rbp, rsp
	.cfi_def_cfa_register 6
	sub	rsp, 16
	mov	QWORD PTR -8[rbp], rdi
	mov	rax, QWORD PTR -8[rbp]
	mov	rdi, rax
	call	_ZNKSt12_Vector_baseISt6vectorIbSaIbEESaIS2_EE19_M_get_Tp_allocatorEv
	mov	rdi, rax
	call	_ZNSt6vectorIS_IbSaIbEESaIS1_EE11_S_max_sizeERKS2_
	leave
	.cfi_def_cfa 7, 8
	ret
	.cfi_endproc
.LFE11351:
	.size	_ZNKSt6vectorIS_IbSaIbEESaIS1_EE8max_sizeEv, .-_ZNKSt6vectorIS_IbSaIbEESaIS1_EE8max_sizeEv
	.section	.text._ZNSt16allocator_traitsISaISt6vectorIbSaIbEEEE8allocateERS3_m,"axG",@progbits,_ZNSt16allocator_traitsISaISt6vectorIbSaIbEEEE8allocateERS3_m,comdat
	.weak	_ZNSt16allocator_traitsISaISt6vectorIbSaIbEEEE8allocateERS3_m
	.type	_ZNSt16allocator_traitsISaISt6vectorIbSaIbEEEE8allocateERS3_m, @function
_ZNSt16allocator_traitsISaISt6vectorIbSaIbEEEE8allocateERS3_m:
.LFB11352:
	.cfi_startproc
	endbr64
	push	rbp
	.cfi_def_cfa_offset 16
	.cfi_offset 6, -16
	mov	rbp, rsp
	.cfi_def_cfa_register 6
	sub	rsp, 16
	mov	QWORD PTR -8[rbp], rdi
	mov	QWORD PTR -16[rbp], rsi
	mov	rcx, QWORD PTR -16[rbp]
	mov	rax, QWORD PTR -8[rbp]
	mov	edx, 0
	mov	rsi, rcx
	mov	rdi, rax
	call	_ZN9__gnu_cxx13new_allocatorISt6vectorIbSaIbEEE8allocateEmPKv
	leave
	.cfi_def_cfa 7, 8
	ret
	.cfi_endproc
.LFE11352:
	.size	_ZNSt16allocator_traitsISaISt6vectorIbSaIbEEEE8allocateERS3_m, .-_ZNSt16allocator_traitsISaISt6vectorIbSaIbEEEE8allocateERS3_m
	.section	.text._ZSt32__make_move_if_noexcept_iteratorISt6vectorIbSaIbEESt13move_iteratorIPS2_EET0_PT_,"axG",@progbits,_ZSt32__make_move_if_noexcept_iteratorISt6vectorIbSaIbEESt13move_iteratorIPS2_EET0_PT_,comdat
	.weak	_ZSt32__make_move_if_noexcept_iteratorISt6vectorIbSaIbEESt13move_iteratorIPS2_EET0_PT_
	.type	_ZSt32__make_move_if_noexcept_iteratorISt6vectorIbSaIbEESt13move_iteratorIPS2_EET0_PT_, @function
_ZSt32__make_move_if_noexcept_iteratorISt6vectorIbSaIbEESt13move_iteratorIPS2_EET0_PT_:
.LFB11353:
	.cfi_startproc
	endbr64
	push	rbp
	.cfi_def_cfa_offset 16
	.cfi_offset 6, -16
	mov	rbp, rsp
	.cfi_def_cfa_register 6
	sub	rsp, 32
	mov	QWORD PTR -24[rbp], rdi
	mov	rax, QWORD PTR fs:40
	mov	QWORD PTR -8[rbp], rax
	xor	eax, eax
	mov	rdx, QWORD PTR -24[rbp]
	lea	rax, -16[rbp]
	mov	rsi, rdx
	mov	rdi, rax
	call	_ZNSt13move_iteratorIPSt6vectorIbSaIbEEEC1ES3_
	mov	rax, QWORD PTR -16[rbp]
	mov	rdx, QWORD PTR -8[rbp]
	sub	rdx, QWORD PTR fs:40
	je	.L402
	call	__stack_chk_fail@PLT
.L402:
	leave
	.cfi_def_cfa 7, 8
	ret
	.cfi_endproc
.LFE11353:
	.size	_ZSt32__make_move_if_noexcept_iteratorISt6vectorIbSaIbEESt13move_iteratorIPS2_EET0_PT_, .-_ZSt32__make_move_if_noexcept_iteratorISt6vectorIbSaIbEESt13move_iteratorIPS2_EET0_PT_
	.section	.text._ZSt8_DestroyIPSt6vectorIbSaIbEEEvT_S4_,"axG",@progbits,_ZSt8_DestroyIPSt6vectorIbSaIbEEEvT_S4_,comdat
	.weak	_ZSt8_DestroyIPSt6vectorIbSaIbEEEvT_S4_
	.type	_ZSt8_DestroyIPSt6vectorIbSaIbEEEvT_S4_, @function
_ZSt8_DestroyIPSt6vectorIbSaIbEEEvT_S4_:
.LFB11354:
	.cfi_startproc
	endbr64
	push	rbp
	.cfi_def_cfa_offset 16
	.cfi_offset 6, -16
	mov	rbp, rsp
	.cfi_def_cfa_register 6
	sub	rsp, 16
	mov	QWORD PTR -8[rbp], rdi
	mov	QWORD PTR -16[rbp], rsi
	mov	rdx, QWORD PTR -16[rbp]
	mov	rax, QWORD PTR -8[rbp]
	mov	rsi, rdx
	mov	rdi, rax
	call	_ZNSt12_Destroy_auxILb0EE9__destroyIPSt6vectorIbSaIbEEEEvT_S6_
	nop
	leave
	.cfi_def_cfa 7, 8
	ret
	.cfi_endproc
.LFE11354:
	.size	_ZSt8_DestroyIPSt6vectorIbSaIbEEEvT_S4_, .-_ZSt8_DestroyIPSt6vectorIbSaIbEEEvT_S4_
	.section	.text._ZSt11__addressofIcEPT_RS0_,"axG",@progbits,_ZSt11__addressofIcEPT_RS0_,comdat
	.weak	_ZSt11__addressofIcEPT_RS0_
	.type	_ZSt11__addressofIcEPT_RS0_, @function
_ZSt11__addressofIcEPT_RS0_:
.LFB11359:
	.cfi_startproc
	endbr64
	push	rbp
	.cfi_def_cfa_offset 16
	.cfi_offset 6, -16
	mov	rbp, rsp
	.cfi_def_cfa_register 6
	mov	QWORD PTR -8[rbp], rdi
	mov	rax, QWORD PTR -8[rbp]
	pop	rbp
	.cfi_def_cfa 7, 8
	ret
	.cfi_endproc
.LFE11359:
	.size	_ZSt11__addressofIcEPT_RS0_, .-_ZSt11__addressofIcEPT_RS0_
	.section	.text._ZSt19__iterator_categoryIPcENSt15iterator_traitsIT_E17iterator_categoryERKS2_,"axG",@progbits,_ZSt19__iterator_categoryIPcENSt15iterator_traitsIT_E17iterator_categoryERKS2_,comdat
	.weak	_ZSt19__iterator_categoryIPcENSt15iterator_traitsIT_E17iterator_categoryERKS2_
	.type	_ZSt19__iterator_categoryIPcENSt15iterator_traitsIT_E17iterator_categoryERKS2_, @function
_ZSt19__iterator_categoryIPcENSt15iterator_traitsIT_E17iterator_categoryERKS2_:
.LFB11426:
	.cfi_startproc
	endbr64
	push	rbp
	.cfi_def_cfa_offset 16
	.cfi_offset 6, -16
	mov	rbp, rsp
	.cfi_def_cfa_register 6
	mov	QWORD PTR -8[rbp], rdi
	pop	rbp
	.cfi_def_cfa 7, 8
	ret
	.cfi_endproc
.LFE11426:
	.size	_ZSt19__iterator_categoryIPcENSt15iterator_traitsIT_E17iterator_categoryERKS2_, .-_ZSt19__iterator_categoryIPcENSt15iterator_traitsIT_E17iterator_categoryERKS2_
	.section	.text._ZNK9__gnu_cxx13new_allocatorIcE8max_sizeEv,"axG",@progbits,_ZNK9__gnu_cxx13new_allocatorIcE8max_sizeEv,comdat
	.align 2
	.weak	_ZNK9__gnu_cxx13new_allocatorIcE8max_sizeEv
	.type	_ZNK9__gnu_cxx13new_allocatorIcE8max_sizeEv, @function
_ZNK9__gnu_cxx13new_allocatorIcE8max_sizeEv:
.LFB11438:
	.cfi_startproc
	endbr64
	push	rbp
	.cfi_def_cfa_offset 16
	.cfi_offset 6, -16
	mov	rbp, rsp
	.cfi_def_cfa_register 6
	sub	rsp, 16
	mov	QWORD PTR -8[rbp], rdi
	mov	rax, QWORD PTR -8[rbp]
	mov	rdi, rax
	call	_ZNK9__gnu_cxx13new_allocatorIcE11_M_max_sizeEv
	leave
	.cfi_def_cfa 7, 8
	ret
	.cfi_endproc
.LFE11438:
	.size	_ZNK9__gnu_cxx13new_allocatorIcE8max_sizeEv, .-_ZNK9__gnu_cxx13new_allocatorIcE8max_sizeEv
	.section	.text._ZNSt27__uninitialized_default_n_1ILb1EE18__uninit_default_nIPcmEET_S3_T0_,"axG",@progbits,_ZNSt27__uninitialized_default_n_1ILb1EE18__uninit_default_nIPcmEET_S3_T0_,comdat
	.weak	_ZNSt27__uninitialized_default_n_1ILb1EE18__uninit_default_nIPcmEET_S3_T0_
	.type	_ZNSt27__uninitialized_default_n_1ILb1EE18__uninit_default_nIPcmEET_S3_T0_, @function
_ZNSt27__uninitialized_default_n_1ILb1EE18__uninit_default_nIPcmEET_S3_T0_:
.LFB11439:
	.cfi_startproc
	endbr64
	push	rbp
	.cfi_def_cfa_offset 16
	.cfi_offset 6, -16
	mov	rbp, rsp
	.cfi_def_cfa_register 6
	sub	rsp, 32
	mov	QWORD PTR -24[rbp], rdi
	mov	QWORD PTR -32[rbp], rsi
	cmp	QWORD PTR -32[rbp], 0
	je	.L411
	mov	rax, QWORD PTR -24[rbp]
	mov	rdi, rax
	call	_ZSt11__addressofIcEPT_RS0_
	mov	QWORD PTR -8[rbp], rax
	mov	rax, QWORD PTR -8[rbp]
	mov	rdi, rax
	call	_ZSt10_ConstructIcJEEvPT_DpOT0_
	add	QWORD PTR -24[rbp], 1
	mov	rax, QWORD PTR -32[rbp]
	lea	rcx, -1[rax]
	mov	rdx, QWORD PTR -8[rbp]
	mov	rax, QWORD PTR -24[rbp]
	mov	rsi, rcx
	mov	rdi, rax
	call	_ZSt6fill_nIPcmcET_S1_T0_RKT1_
	mov	QWORD PTR -24[rbp], rax
.L411:
	mov	rax, QWORD PTR -24[rbp]
	leave
	.cfi_def_cfa 7, 8
	ret
	.cfi_endproc
.LFE11439:
	.size	_ZNSt27__uninitialized_default_n_1ILb1EE18__uninit_default_nIPcmEET_S3_T0_, .-_ZNSt27__uninitialized_default_n_1ILb1EE18__uninit_default_nIPcmEET_S3_T0_
	.section	.text._ZN9__gnu_cxx13new_allocatorISt6vectorIcSaIcEEE9constructIS3_JRKS3_EEEvPT_DpOT0_,"axG",@progbits,_ZN9__gnu_cxx13new_allocatorISt6vectorIcSaIcEEE9constructIS3_JRKS3_EEEvPT_DpOT0_,comdat
	.align 2
	.weak	_ZN9__gnu_cxx13new_allocatorISt6vectorIcSaIcEEE9constructIS3_JRKS3_EEEvPT_DpOT0_
	.type	_ZN9__gnu_cxx13new_allocatorISt6vectorIcSaIcEEE9constructIS3_JRKS3_EEEvPT_DpOT0_, @function
_ZN9__gnu_cxx13new_allocatorISt6vectorIcSaIcEEE9constructIS3_JRKS3_EEEvPT_DpOT0_:
.LFB11440:
	.cfi_startproc
	.cfi_personality 0x9b,DW.ref.__gxx_personality_v0
	.cfi_lsda 0x1b,.LLSDA11440
	endbr64
	push	rbp
	.cfi_def_cfa_offset 16
	.cfi_offset 6, -16
	mov	rbp, rsp
	.cfi_def_cfa_register 6
	push	r13
	push	r12
	push	rbx
	sub	rsp, 40
	.cfi_offset 13, -24
	.cfi_offset 12, -32
	.cfi_offset 3, -40
	mov	QWORD PTR -40[rbp], rdi
	mov	QWORD PTR -48[rbp], rsi
	mov	QWORD PTR -56[rbp], rdx
	mov	rax, QWORD PTR -56[rbp]
	mov	rdi, rax
	call	_ZSt7forwardIRKSt6vectorIcSaIcEEEOT_RNSt16remove_referenceIS5_E4typeE
	mov	r13, rax
	mov	rbx, QWORD PTR -48[rbp]
	mov	rsi, rbx
	mov	edi, 24
	call	_ZnwmPv
	mov	r12, rax
	mov	rsi, r13
	mov	rdi, r12
.LEHB28:
	call	_ZNSt6vectorIcSaIcEEC1ERKS1_
.LEHE28:
	jmp	.L416
.L415:
	endbr64
	mov	r13, rax
	mov	rsi, rbx
	mov	rdi, r12
	call	_ZdlPvS_
	mov	rax, r13
	mov	rdi, rax
.LEHB29:
	call	_Unwind_Resume@PLT
.LEHE29:
.L416:
	add	rsp, 40
	pop	rbx
	pop	r12
	pop	r13
	pop	rbp
	.cfi_def_cfa 7, 8
	ret
	.cfi_endproc
.LFE11440:
	.section	.gcc_except_table
.LLSDA11440:
	.byte	0xff
	.byte	0xff
	.byte	0x1
	.uleb128 .LLSDACSE11440-.LLSDACSB11440
.LLSDACSB11440:
	.uleb128 .LEHB28-.LFB11440
	.uleb128 .LEHE28-.LEHB28
	.uleb128 .L415-.LFB11440
	.uleb128 0
	.uleb128 .LEHB29-.LFB11440
	.uleb128 .LEHE29-.LEHB29
	.uleb128 0
	.uleb128 0
.LLSDACSE11440:
	.section	.text._ZN9__gnu_cxx13new_allocatorISt6vectorIcSaIcEEE9constructIS3_JRKS3_EEEvPT_DpOT0_,"axG",@progbits,_ZN9__gnu_cxx13new_allocatorISt6vectorIcSaIcEEE9constructIS3_JRKS3_EEEvPT_DpOT0_,comdat
	.size	_ZN9__gnu_cxx13new_allocatorISt6vectorIcSaIcEEE9constructIS3_JRKS3_EEEvPT_DpOT0_, .-_ZN9__gnu_cxx13new_allocatorISt6vectorIcSaIcEEE9constructIS3_JRKS3_EEEvPT_DpOT0_
	.section	.text._ZN9__gnu_cxx13new_allocatorISt6vectorIcSaIcEEE7destroyIS3_EEvPT_,"axG",@progbits,_ZN9__gnu_cxx13new_allocatorISt6vectorIcSaIcEEE7destroyIS3_EEvPT_,comdat
	.align 2
	.weak	_ZN9__gnu_cxx13new_allocatorISt6vectorIcSaIcEEE7destroyIS3_EEvPT_
	.type	_ZN9__gnu_cxx13new_allocatorISt6vectorIcSaIcEEE7destroyIS3_EEvPT_, @function
_ZN9__gnu_cxx13new_allocatorISt6vectorIcSaIcEEE7destroyIS3_EEvPT_:
.LFB11441:
	.cfi_startproc
	endbr64
	push	rbp
	.cfi_def_cfa_offset 16
	.cfi_offset 6, -16
	mov	rbp, rsp
	.cfi_def_cfa_register 6
	sub	rsp, 16
	mov	QWORD PTR -8[rbp], rdi
	mov	QWORD PTR -16[rbp], rsi
	mov	rax, QWORD PTR -16[rbp]
	mov	rdi, rax
	call	_ZNSt6vectorIcSaIcEED1Ev
	nop
	leave
	.cfi_def_cfa 7, 8
	ret
	.cfi_endproc
.LFE11441:
	.size	_ZN9__gnu_cxx13new_allocatorISt6vectorIcSaIcEEE7destroyIS3_EEvPT_, .-_ZN9__gnu_cxx13new_allocatorISt6vectorIcSaIcEEE7destroyIS3_EEvPT_
	.section	.text._ZSt4moveIRPSt6vectorIcSaIcEEEONSt16remove_referenceIT_E4typeEOS6_,"axG",@progbits,_ZSt4moveIRPSt6vectorIcSaIcEEEONSt16remove_referenceIT_E4typeEOS6_,comdat
	.weak	_ZSt4moveIRPSt6vectorIcSaIcEEEONSt16remove_referenceIT_E4typeEOS6_
	.type	_ZSt4moveIRPSt6vectorIcSaIcEEEONSt16remove_referenceIT_E4typeEOS6_, @function
_ZSt4moveIRPSt6vectorIcSaIcEEEONSt16remove_referenceIT_E4typeEOS6_:
.LFB11442:
	.cfi_startproc
	endbr64
	push	rbp
	.cfi_def_cfa_offset 16
	.cfi_offset 6, -16
	mov	rbp, rsp
	.cfi_def_cfa_register 6
	mov	QWORD PTR -8[rbp], rdi
	mov	rax, QWORD PTR -8[rbp]
	pop	rbp
	.cfi_def_cfa 7, 8
	ret
	.cfi_endproc
.LFE11442:
	.size	_ZSt4moveIRPSt6vectorIcSaIcEEEONSt16remove_referenceIT_E4typeEOS6_, .-_ZSt4moveIRPSt6vectorIcSaIcEEEONSt16remove_referenceIT_E4typeEOS6_
	.section	.text._ZNSt13move_iteratorIPSt6vectorIcSaIcEEEC2ES3_,"axG",@progbits,_ZNSt13move_iteratorIPSt6vectorIcSaIcEEEC5ES3_,comdat
	.align 2
	.weak	_ZNSt13move_iteratorIPSt6vectorIcSaIcEEEC2ES3_
	.type	_ZNSt13move_iteratorIPSt6vectorIcSaIcEEEC2ES3_, @function
_ZNSt13move_iteratorIPSt6vectorIcSaIcEEEC2ES3_:
.LFB11444:
	.cfi_startproc
	endbr64
	push	rbp
	.cfi_def_cfa_offset 16
	.cfi_offset 6, -16
	mov	rbp, rsp
	.cfi_def_cfa_register 6
	sub	rsp, 16
	mov	QWORD PTR -8[rbp], rdi
	mov	QWORD PTR -16[rbp], rsi
	lea	rax, -16[rbp]
	mov	rdi, rax
	call	_ZSt4moveIRPSt6vectorIcSaIcEEEONSt16remove_referenceIT_E4typeEOS6_
	mov	rdx, QWORD PTR [rax]
	mov	rax, QWORD PTR -8[rbp]
	mov	QWORD PTR [rax], rdx
	nop
	leave
	.cfi_def_cfa 7, 8
	ret
	.cfi_endproc
.LFE11444:
	.size	_ZNSt13move_iteratorIPSt6vectorIcSaIcEEEC2ES3_, .-_ZNSt13move_iteratorIPSt6vectorIcSaIcEEEC2ES3_
	.weak	_ZNSt13move_iteratorIPSt6vectorIcSaIcEEEC1ES3_
	.set	_ZNSt13move_iteratorIPSt6vectorIcSaIcEEEC1ES3_,_ZNSt13move_iteratorIPSt6vectorIcSaIcEEEC2ES3_
	.section	.text._ZSt18uninitialized_copyISt13move_iteratorIPSt6vectorIcSaIcEEES4_ET0_T_S7_S6_,"axG",@progbits,_ZSt18uninitialized_copyISt13move_iteratorIPSt6vectorIcSaIcEEES4_ET0_T_S7_S6_,comdat
	.weak	_ZSt18uninitialized_copyISt13move_iteratorIPSt6vectorIcSaIcEEES4_ET0_T_S7_S6_
	.type	_ZSt18uninitialized_copyISt13move_iteratorIPSt6vectorIcSaIcEEES4_ET0_T_S7_S6_, @function
_ZSt18uninitialized_copyISt13move_iteratorIPSt6vectorIcSaIcEEES4_ET0_T_S7_S6_:
.LFB11446:
	.cfi_startproc
	endbr64
	push	rbp
	.cfi_def_cfa_offset 16
	.cfi_offset 6, -16
	mov	rbp, rsp
	.cfi_def_cfa_register 6
	sub	rsp, 48
	mov	QWORD PTR -24[rbp], rdi
	mov	QWORD PTR -32[rbp], rsi
	mov	QWORD PTR -40[rbp], rdx
	mov	BYTE PTR -1[rbp], 1
	mov	rdx, QWORD PTR -40[rbp]
	mov	rcx, QWORD PTR -32[rbp]
	mov	rax, QWORD PTR -24[rbp]
	mov	rsi, rcx
	mov	rdi, rax
	call	_ZNSt20__uninitialized_copyILb0EE13__uninit_copyISt13move_iteratorIPSt6vectorIcSaIcEEES6_EET0_T_S9_S8_
	leave
	.cfi_def_cfa 7, 8
	ret
	.cfi_endproc
.LFE11446:
	.size	_ZSt18uninitialized_copyISt13move_iteratorIPSt6vectorIcSaIcEEES4_ET0_T_S7_S6_, .-_ZSt18uninitialized_copyISt13move_iteratorIPSt6vectorIcSaIcEEES4_ET0_T_S7_S6_
	.section	.text._ZSt12__niter_baseIPSt6vectorIcSaIcEEET_S4_,"axG",@progbits,_ZSt12__niter_baseIPSt6vectorIcSaIcEEET_S4_,comdat
	.weak	_ZSt12__niter_baseIPSt6vectorIcSaIcEEET_S4_
	.type	_ZSt12__niter_baseIPSt6vectorIcSaIcEEET_S4_, @function
_ZSt12__niter_baseIPSt6vectorIcSaIcEEET_S4_:
.LFB11448:
	.cfi_startproc
	endbr64
	push	rbp
	.cfi_def_cfa_offset 16
	.cfi_offset 6, -16
	mov	rbp, rsp
	.cfi_def_cfa_register 6
	mov	QWORD PTR -8[rbp], rdi
	mov	rax, QWORD PTR -8[rbp]
	pop	rbp
	.cfi_def_cfa 7, 8
	ret
	.cfi_endproc
.LFE11448:
	.size	_ZSt12__niter_baseIPSt6vectorIcSaIcEEET_S4_, .-_ZSt12__niter_baseIPSt6vectorIcSaIcEEET_S4_
	.section	.text._ZSt23__copy_move_backward_a1ILb1EPSt6vectorIcSaIcEES3_ET1_T0_S5_S4_,"axG",@progbits,_ZSt23__copy_move_backward_a1ILb1EPSt6vectorIcSaIcEES3_ET1_T0_S5_S4_,comdat
	.weak	_ZSt23__copy_move_backward_a1ILb1EPSt6vectorIcSaIcEES3_ET1_T0_S5_S4_
	.type	_ZSt23__copy_move_backward_a1ILb1EPSt6vectorIcSaIcEES3_ET1_T0_S5_S4_, @function
_ZSt23__copy_move_backward_a1ILb1EPSt6vectorIcSaIcEES3_ET1_T0_S5_S4_:
.LFB11449:
	.cfi_startproc
	endbr64
	push	rbp
	.cfi_def_cfa_offset 16
	.cfi_offset 6, -16
	mov	rbp, rsp
	.cfi_def_cfa_register 6
	sub	rsp, 32
	mov	QWORD PTR -8[rbp], rdi
	mov	QWORD PTR -16[rbp], rsi
	mov	QWORD PTR -24[rbp], rdx
	mov	rdx, QWORD PTR -24[rbp]
	mov	rcx, QWORD PTR -16[rbp]
	mov	rax, QWORD PTR -8[rbp]
	mov	rsi, rcx
	mov	rdi, rax
	call	_ZSt23__copy_move_backward_a2ILb1EPSt6vectorIcSaIcEES3_ET1_T0_S5_S4_
	leave
	.cfi_def_cfa 7, 8
	ret
	.cfi_endproc
.LFE11449:
	.size	_ZSt23__copy_move_backward_a1ILb1EPSt6vectorIcSaIcEES3_ET1_T0_S5_S4_, .-_ZSt23__copy_move_backward_a1ILb1EPSt6vectorIcSaIcEES3_ET1_T0_S5_S4_
	.section	.text._ZSt12__niter_wrapIPSt6vectorIcSaIcEEET_RKS4_S4_,"axG",@progbits,_ZSt12__niter_wrapIPSt6vectorIcSaIcEEET_RKS4_S4_,comdat
	.weak	_ZSt12__niter_wrapIPSt6vectorIcSaIcEEET_RKS4_S4_
	.type	_ZSt12__niter_wrapIPSt6vectorIcSaIcEEET_RKS4_S4_, @function
_ZSt12__niter_wrapIPSt6vectorIcSaIcEEET_RKS4_S4_:
.LFB11450:
	.cfi_startproc
	endbr64
	push	rbp
	.cfi_def_cfa_offset 16
	.cfi_offset 6, -16
	mov	rbp, rsp
	.cfi_def_cfa_register 6
	mov	QWORD PTR -8[rbp], rdi
	mov	QWORD PTR -16[rbp], rsi
	mov	rax, QWORD PTR -16[rbp]
	pop	rbp
	.cfi_def_cfa 7, 8
	ret
	.cfi_endproc
.LFE11450:
	.size	_ZSt12__niter_wrapIPSt6vectorIcSaIcEEET_RKS4_S4_, .-_ZSt12__niter_wrapIPSt6vectorIcSaIcEEET_RKS4_S4_
	.section	.text._ZSt9__fill_a1IPSt6vectorIcSaIcEES2_EN9__gnu_cxx11__enable_ifIXntsrSt11__is_scalarIT0_E7__valueEvE6__typeET_SB_RKS7_,"axG",@progbits,_ZSt9__fill_a1IPSt6vectorIcSaIcEES2_EN9__gnu_cxx11__enable_ifIXntsrSt11__is_scalarIT0_E7__valueEvE6__typeET_SB_RKS7_,comdat
	.weak	_ZSt9__fill_a1IPSt6vectorIcSaIcEES2_EN9__gnu_cxx11__enable_ifIXntsrSt11__is_scalarIT0_E7__valueEvE6__typeET_SB_RKS7_
	.type	_ZSt9__fill_a1IPSt6vectorIcSaIcEES2_EN9__gnu_cxx11__enable_ifIXntsrSt11__is_scalarIT0_E7__valueEvE6__typeET_SB_RKS7_, @function
_ZSt9__fill_a1IPSt6vectorIcSaIcEES2_EN9__gnu_cxx11__enable_ifIXntsrSt11__is_scalarIT0_E7__valueEvE6__typeET_SB_RKS7_:
.LFB11451:
	.cfi_startproc
	endbr64
	push	rbp
	.cfi_def_cfa_offset 16
	.cfi_offset 6, -16
	mov	rbp, rsp
	.cfi_def_cfa_register 6
	sub	rsp, 32
	mov	QWORD PTR -8[rbp], rdi
	mov	QWORD PTR -16[rbp], rsi
	mov	QWORD PTR -24[rbp], rdx
	jmp	.L430
.L431:
	mov	rdx, QWORD PTR -24[rbp]
	mov	rax, QWORD PTR -8[rbp]
	mov	rsi, rdx
	mov	rdi, rax
	call	_ZNSt6vectorIcSaIcEEaSERKS1_
	add	QWORD PTR -8[rbp], 24
.L430:
	mov	rax, QWORD PTR -8[rbp]
	cmp	rax, QWORD PTR -16[rbp]
	jne	.L431
	nop
	nop
	leave
	.cfi_def_cfa 7, 8
	ret
	.cfi_endproc
.LFE11451:
	.size	_ZSt9__fill_a1IPSt6vectorIcSaIcEES2_EN9__gnu_cxx11__enable_ifIXntsrSt11__is_scalarIT0_E7__valueEvE6__typeET_SB_RKS7_, .-_ZSt9__fill_a1IPSt6vectorIcSaIcEES2_EN9__gnu_cxx11__enable_ifIXntsrSt11__is_scalarIT0_E7__valueEvE6__typeET_SB_RKS7_
	.section	.text._ZNSt22__uninitialized_fill_nILb0EE15__uninit_fill_nIPSt6vectorIcSaIcEEmS4_EET_S6_T0_RKT1_,"axG",@progbits,_ZNSt22__uninitialized_fill_nILb0EE15__uninit_fill_nIPSt6vectorIcSaIcEEmS4_EET_S6_T0_RKT1_,comdat
	.weak	_ZNSt22__uninitialized_fill_nILb0EE15__uninit_fill_nIPSt6vectorIcSaIcEEmS4_EET_S6_T0_RKT1_
	.type	_ZNSt22__uninitialized_fill_nILb0EE15__uninit_fill_nIPSt6vectorIcSaIcEEmS4_EET_S6_T0_RKT1_, @function
_ZNSt22__uninitialized_fill_nILb0EE15__uninit_fill_nIPSt6vectorIcSaIcEEmS4_EET_S6_T0_RKT1_:
.LFB11452:
	.cfi_startproc
	.cfi_personality 0x9b,DW.ref.__gxx_personality_v0
	.cfi_lsda 0x1b,.LLSDA11452
	endbr64
	push	rbp
	.cfi_def_cfa_offset 16
	.cfi_offset 6, -16
	mov	rbp, rsp
	.cfi_def_cfa_register 6
	push	rbx
	sub	rsp, 56
	.cfi_offset 3, -24
	mov	QWORD PTR -40[rbp], rdi
	mov	QWORD PTR -48[rbp], rsi
	mov	QWORD PTR -56[rbp], rdx
	mov	rax, QWORD PTR -40[rbp]
	mov	QWORD PTR -24[rbp], rax
	jmp	.L433
.L434:
	mov	rax, QWORD PTR -24[rbp]
	mov	rdi, rax
	call	_ZSt11__addressofISt6vectorIcSaIcEEEPT_RS3_
	mov	rdx, rax
	mov	rax, QWORD PTR -56[rbp]
	mov	rsi, rax
	mov	rdi, rdx
.LEHB30:
	call	_ZSt10_ConstructISt6vectorIcSaIcEEJRKS2_EEvPT_DpOT0_
.LEHE30:
	sub	QWORD PTR -48[rbp], 1
	add	QWORD PTR -24[rbp], 24
.L433:
	cmp	QWORD PTR -48[rbp], 0
	jne	.L434
	mov	rax, QWORD PTR -24[rbp]
	jmp	.L440
.L438:
	endbr64
	mov	rdi, rax
	call	__cxa_begin_catch@PLT
	mov	rdx, QWORD PTR -24[rbp]
	mov	rax, QWORD PTR -40[rbp]
	mov	rsi, rdx
	mov	rdi, rax
.LEHB31:
	call	_ZSt8_DestroyIPSt6vectorIcSaIcEEEvT_S4_
	call	__cxa_rethrow@PLT
.LEHE31:
.L439:
	endbr64
	mov	rbx, rax
	call	__cxa_end_catch@PLT
	mov	rax, rbx
	mov	rdi, rax
.LEHB32:
	call	_Unwind_Resume@PLT
.LEHE32:
.L440:
	mov	rbx, QWORD PTR -8[rbp]
	leave
	.cfi_def_cfa 7, 8
	ret
	.cfi_endproc
.LFE11452:
	.section	.gcc_except_table
	.align 4
.LLSDA11452:
	.byte	0xff
	.byte	0x9b
	.uleb128 .LLSDATT11452-.LLSDATTD11452
.LLSDATTD11452:
	.byte	0x1
	.uleb128 .LLSDACSE11452-.LLSDACSB11452
.LLSDACSB11452:
	.uleb128 .LEHB30-.LFB11452
	.uleb128 .LEHE30-.LEHB30
	.uleb128 .L438-.LFB11452
	.uleb128 0x1
	.uleb128 .LEHB31-.LFB11452
	.uleb128 .LEHE31-.LEHB31
	.uleb128 .L439-.LFB11452
	.uleb128 0
	.uleb128 .LEHB32-.LFB11452
	.uleb128 .LEHE32-.LEHB32
	.uleb128 0
	.uleb128 0
.LLSDACSE11452:
	.byte	0x1
	.byte	0
	.align 4
	.long	0

.LLSDATT11452:
	.section	.text._ZNSt22__uninitialized_fill_nILb0EE15__uninit_fill_nIPSt6vectorIcSaIcEEmS4_EET_S6_T0_RKT1_,"axG",@progbits,_ZNSt22__uninitialized_fill_nILb0EE15__uninit_fill_nIPSt6vectorIcSaIcEEmS4_EET_S6_T0_RKT1_,comdat
	.size	_ZNSt22__uninitialized_fill_nILb0EE15__uninit_fill_nIPSt6vectorIcSaIcEEmS4_EET_S6_T0_RKT1_, .-_ZNSt22__uninitialized_fill_nILb0EE15__uninit_fill_nIPSt6vectorIcSaIcEEmS4_EET_S6_T0_RKT1_
	.section	.text._ZNSt6vectorIS_IcSaIcEESaIS1_EE11_S_max_sizeERKS2_,"axG",@progbits,_ZNSt6vectorIS_IcSaIcEESaIS1_EE11_S_max_sizeERKS2_,comdat
	.weak	_ZNSt6vectorIS_IcSaIcEESaIS1_EE11_S_max_sizeERKS2_
	.type	_ZNSt6vectorIS_IcSaIcEESaIS1_EE11_S_max_sizeERKS2_, @function
_ZNSt6vectorIS_IcSaIcEESaIS1_EE11_S_max_sizeERKS2_:
.LFB11453:
	.cfi_startproc
	endbr64
	push	rbp
	.cfi_def_cfa_offset 16
	.cfi_offset 6, -16
	mov	rbp, rsp
	.cfi_def_cfa_register 6
	sub	rsp, 48
	mov	QWORD PTR -40[rbp], rdi
	mov	rax, QWORD PTR fs:40
	mov	QWORD PTR -8[rbp], rax
	xor	eax, eax
	movabs	rax, 384307168202282325
	mov	QWORD PTR -24[rbp], rax
	mov	rax, QWORD PTR -40[rbp]
	mov	rdi, rax
	call	_ZNSt16allocator_traitsISaISt6vectorIcSaIcEEEE8max_sizeERKS3_
	mov	QWORD PTR -16[rbp], rax
	lea	rdx, -16[rbp]
	lea	rax, -24[rbp]
	mov	rsi, rdx
	mov	rdi, rax
	call	_ZSt3minImERKT_S2_S2_
	mov	rax, QWORD PTR [rax]
	mov	rdx, QWORD PTR -8[rbp]
	sub	rdx, QWORD PTR fs:40
	je	.L443
	call	__stack_chk_fail@PLT
.L443:
	leave
	.cfi_def_cfa 7, 8
	ret
	.cfi_endproc
.LFE11453:
	.size	_ZNSt6vectorIS_IcSaIcEESaIS1_EE11_S_max_sizeERKS2_, .-_ZNSt6vectorIS_IcSaIcEESaIS1_EE11_S_max_sizeERKS2_
	.section	.text._ZNKSt12_Vector_baseISt6vectorIcSaIcEESaIS2_EE19_M_get_Tp_allocatorEv,"axG",@progbits,_ZNKSt12_Vector_baseISt6vectorIcSaIcEESaIS2_EE19_M_get_Tp_allocatorEv,comdat
	.align 2
	.weak	_ZNKSt12_Vector_baseISt6vectorIcSaIcEESaIS2_EE19_M_get_Tp_allocatorEv
	.type	_ZNKSt12_Vector_baseISt6vectorIcSaIcEESaIS2_EE19_M_get_Tp_allocatorEv, @function
_ZNKSt12_Vector_baseISt6vectorIcSaIcEESaIS2_EE19_M_get_Tp_allocatorEv:
.LFB11454:
	.cfi_startproc
	endbr64
	push	rbp
	.cfi_def_cfa_offset 16
	.cfi_offset 6, -16
	mov	rbp, rsp
	.cfi_def_cfa_register 6
	mov	QWORD PTR -8[rbp], rdi
	mov	rax, QWORD PTR -8[rbp]
	pop	rbp
	.cfi_def_cfa 7, 8
	ret
	.cfi_endproc
.LFE11454:
	.size	_ZNKSt12_Vector_baseISt6vectorIcSaIcEESaIS2_EE19_M_get_Tp_allocatorEv, .-_ZNKSt12_Vector_baseISt6vectorIcSaIcEESaIS2_EE19_M_get_Tp_allocatorEv
	.section	.text._ZNK9__gnu_cxx13new_allocatorISt6vectorIcSaIcEEE11_M_max_sizeEv,"axG",@progbits,_ZNK9__gnu_cxx13new_allocatorISt6vectorIcSaIcEEE11_M_max_sizeEv,comdat
	.align 2
	.weak	_ZNK9__gnu_cxx13new_allocatorISt6vectorIcSaIcEEE11_M_max_sizeEv
	.type	_ZNK9__gnu_cxx13new_allocatorISt6vectorIcSaIcEEE11_M_max_sizeEv, @function
_ZNK9__gnu_cxx13new_allocatorISt6vectorIcSaIcEEE11_M_max_sizeEv:
.LFB11456:
	.cfi_startproc
	endbr64
	push	rbp
	.cfi_def_cfa_offset 16
	.cfi_offset 6, -16
	mov	rbp, rsp
	.cfi_def_cfa_register 6
	mov	QWORD PTR -8[rbp], rdi
	movabs	rax, 384307168202282325
	pop	rbp
	.cfi_def_cfa 7, 8
	ret
	.cfi_endproc
.LFE11456:
	.size	_ZNK9__gnu_cxx13new_allocatorISt6vectorIcSaIcEEE11_M_max_sizeEv, .-_ZNK9__gnu_cxx13new_allocatorISt6vectorIcSaIcEEE11_M_max_sizeEv
	.section	.text._ZN9__gnu_cxx13new_allocatorISt6vectorIcSaIcEEE8allocateEmPKv,"axG",@progbits,_ZN9__gnu_cxx13new_allocatorISt6vectorIcSaIcEEE8allocateEmPKv,comdat
	.align 2
	.weak	_ZN9__gnu_cxx13new_allocatorISt6vectorIcSaIcEEE8allocateEmPKv
	.type	_ZN9__gnu_cxx13new_allocatorISt6vectorIcSaIcEEE8allocateEmPKv, @function
_ZN9__gnu_cxx13new_allocatorISt6vectorIcSaIcEEE8allocateEmPKv:
.LFB11455:
	.cfi_startproc
	endbr64
	push	rbp
	.cfi_def_cfa_offset 16
	.cfi_offset 6, -16
	mov	rbp, rsp
	.cfi_def_cfa_register 6
	sub	rsp, 32
	mov	QWORD PTR -8[rbp], rdi
	mov	QWORD PTR -16[rbp], rsi
	mov	QWORD PTR -24[rbp], rdx
	mov	rax, QWORD PTR -8[rbp]
	mov	rdi, rax
	call	_ZNK9__gnu_cxx13new_allocatorISt6vectorIcSaIcEEE11_M_max_sizeEv
	cmp	QWORD PTR -16[rbp], rax
	seta	al
	movzx	eax, al
	test	rax, rax
	setne	al
	test	al, al
	je	.L449
	movabs	rax, 768614336404564650
	cmp	QWORD PTR -16[rbp], rax
	jbe	.L450
	call	_ZSt28__throw_bad_array_new_lengthv@PLT
.L450:
	call	_ZSt17__throw_bad_allocv@PLT
.L449:
	mov	rdx, QWORD PTR -16[rbp]
	mov	rax, rdx
	add	rax, rax
	add	rax, rdx
	sal	rax, 3
	mov	rdi, rax
	call	_Znwm@PLT
	nop
	leave
	.cfi_def_cfa 7, 8
	ret
	.cfi_endproc
.LFE11455:
	.size	_ZN9__gnu_cxx13new_allocatorISt6vectorIcSaIcEEE8allocateEmPKv, .-_ZN9__gnu_cxx13new_allocatorISt6vectorIcSaIcEEE8allocateEmPKv
	.section	.text._ZNSt12_Destroy_auxILb0EE9__destroyIPSt6vectorIcSaIcEEEEvT_S6_,"axG",@progbits,_ZNSt12_Destroy_auxILb0EE9__destroyIPSt6vectorIcSaIcEEEEvT_S6_,comdat
	.weak	_ZNSt12_Destroy_auxILb0EE9__destroyIPSt6vectorIcSaIcEEEEvT_S6_
	.type	_ZNSt12_Destroy_auxILb0EE9__destroyIPSt6vectorIcSaIcEEEEvT_S6_, @function
_ZNSt12_Destroy_auxILb0EE9__destroyIPSt6vectorIcSaIcEEEEvT_S6_:
.LFB11457:
	.cfi_startproc
	endbr64
	push	rbp
	.cfi_def_cfa_offset 16
	.cfi_offset 6, -16
	mov	rbp, rsp
	.cfi_def_cfa_register 6
	sub	rsp, 16
	mov	QWORD PTR -8[rbp], rdi
	mov	QWORD PTR -16[rbp], rsi
	jmp	.L453
.L454:
	mov	rax, QWORD PTR -8[rbp]
	mov	rdi, rax
	call	_ZSt11__addressofISt6vectorIcSaIcEEEPT_RS3_
	mov	rdi, rax
	call	_ZSt8_DestroyISt6vectorIcSaIcEEEvPT_
	add	QWORD PTR -8[rbp], 24
.L453:
	mov	rax, QWORD PTR -8[rbp]
	cmp	rax, QWORD PTR -16[rbp]
	jne	.L454
	nop
	nop
	leave
	.cfi_def_cfa 7, 8
	ret
	.cfi_endproc
.LFE11457:
	.size	_ZNSt12_Destroy_auxILb0EE9__destroyIPSt6vectorIcSaIcEEEEvT_S6_, .-_ZNSt12_Destroy_auxILb0EE9__destroyIPSt6vectorIcSaIcEEEEvT_S6_
	.section	.text._ZNSaImEC2ERKS_,"axG",@progbits,_ZNSaImEC5ERKS_,comdat
	.align 2
	.weak	_ZNSaImEC2ERKS_
	.type	_ZNSaImEC2ERKS_, @function
_ZNSaImEC2ERKS_:
.LFB11459:
	.cfi_startproc
	endbr64
	push	rbp
	.cfi_def_cfa_offset 16
	.cfi_offset 6, -16
	mov	rbp, rsp
	.cfi_def_cfa_register 6
	sub	rsp, 16
	mov	QWORD PTR -8[rbp], rdi
	mov	QWORD PTR -16[rbp], rsi
	mov	rdx, QWORD PTR -16[rbp]
	mov	rax, QWORD PTR -8[rbp]
	mov	rsi, rdx
	mov	rdi, rax
	call	_ZN9__gnu_cxx13new_allocatorImEC2ERKS1_
	nop
	leave
	.cfi_def_cfa 7, 8
	ret
	.cfi_endproc
.LFE11459:
	.size	_ZNSaImEC2ERKS_, .-_ZNSaImEC2ERKS_
	.weak	_ZNSaImEC1ERKS_
	.set	_ZNSaImEC1ERKS_,_ZNSaImEC2ERKS_
	.section	.text._ZNSt13_Bvector_baseISaIbEE18_Bvector_impl_dataC2Ev,"axG",@progbits,_ZNSt13_Bvector_baseISaIbEE18_Bvector_impl_dataC5Ev,comdat
	.align 2
	.weak	_ZNSt13_Bvector_baseISaIbEE18_Bvector_impl_dataC2Ev
	.type	_ZNSt13_Bvector_baseISaIbEE18_Bvector_impl_dataC2Ev, @function
_ZNSt13_Bvector_baseISaIbEE18_Bvector_impl_dataC2Ev:
.LFB11462:
	.cfi_startproc
	endbr64
	push	rbp
	.cfi_def_cfa_offset 16
	.cfi_offset 6, -16
	mov	rbp, rsp
	.cfi_def_cfa_register 6
	sub	rsp, 16
	mov	QWORD PTR -8[rbp], rdi
	mov	rax, QWORD PTR -8[rbp]
	mov	rdi, rax
	call	_ZNSt13_Bit_iteratorC1Ev
	mov	rax, QWORD PTR -8[rbp]
	add	rax, 16
	mov	rdi, rax
	call	_ZNSt13_Bit_iteratorC1Ev
	mov	rax, QWORD PTR -8[rbp]
	mov	QWORD PTR 32[rax], 0
	nop
	leave
	.cfi_def_cfa 7, 8
	ret
	.cfi_endproc
.LFE11462:
	.size	_ZNSt13_Bvector_baseISaIbEE18_Bvector_impl_dataC2Ev, .-_ZNSt13_Bvector_baseISaIbEE18_Bvector_impl_dataC2Ev
	.weak	_ZNSt13_Bvector_baseISaIbEE18_Bvector_impl_dataC1Ev
	.set	_ZNSt13_Bvector_baseISaIbEE18_Bvector_impl_dataC1Ev,_ZNSt13_Bvector_baseISaIbEE18_Bvector_impl_dataC2Ev
	.section	.text._ZNSt16allocator_traitsISaImEE8allocateERS0_m,"axG",@progbits,_ZNSt16allocator_traitsISaImEE8allocateERS0_m,comdat
	.weak	_ZNSt16allocator_traitsISaImEE8allocateERS0_m
	.type	_ZNSt16allocator_traitsISaImEE8allocateERS0_m, @function
_ZNSt16allocator_traitsISaImEE8allocateERS0_m:
.LFB11464:
	.cfi_startproc
	endbr64
	push	rbp
	.cfi_def_cfa_offset 16
	.cfi_offset 6, -16
	mov	rbp, rsp
	.cfi_def_cfa_register 6
	sub	rsp, 16
	mov	QWORD PTR -8[rbp], rdi
	mov	QWORD PTR -16[rbp], rsi
	mov	rcx, QWORD PTR -16[rbp]
	mov	rax, QWORD PTR -8[rbp]
	mov	edx, 0
	mov	rsi, rcx
	mov	rdi, rax
	call	_ZN9__gnu_cxx13new_allocatorImE8allocateEmPKv
	leave
	.cfi_def_cfa 7, 8
	ret
	.cfi_endproc
.LFE11464:
	.size	_ZNSt16allocator_traitsISaImEE8allocateERS0_m, .-_ZNSt16allocator_traitsISaImEE8allocateERS0_m
	.section	.text._ZN9__gnu_cxx13new_allocatorISt6vectorIbSaIbEEE9constructIS3_JRKS3_EEEvPT_DpOT0_,"axG",@progbits,_ZN9__gnu_cxx13new_allocatorISt6vectorIbSaIbEEE9constructIS3_JRKS3_EEEvPT_DpOT0_,comdat
	.align 2
	.weak	_ZN9__gnu_cxx13new_allocatorISt6vectorIbSaIbEEE9constructIS3_JRKS3_EEEvPT_DpOT0_
	.type	_ZN9__gnu_cxx13new_allocatorISt6vectorIbSaIbEEE9constructIS3_JRKS3_EEEvPT_DpOT0_, @function
_ZN9__gnu_cxx13new_allocatorISt6vectorIbSaIbEEE9constructIS3_JRKS3_EEEvPT_DpOT0_:
.LFB11465:
	.cfi_startproc
	.cfi_personality 0x9b,DW.ref.__gxx_personality_v0
	.cfi_lsda 0x1b,.LLSDA11465
	endbr64
	push	rbp
	.cfi_def_cfa_offset 16
	.cfi_offset 6, -16
	mov	rbp, rsp
	.cfi_def_cfa_register 6
	push	r13
	push	r12
	push	rbx
	sub	rsp, 40
	.cfi_offset 13, -24
	.cfi_offset 12, -32
	.cfi_offset 3, -40
	mov	QWORD PTR -40[rbp], rdi
	mov	QWORD PTR -48[rbp], rsi
	mov	QWORD PTR -56[rbp], rdx
	mov	rax, QWORD PTR -56[rbp]
	mov	rdi, rax
	call	_ZSt7forwardIRKSt6vectorIbSaIbEEEOT_RNSt16remove_referenceIS5_E4typeE
	mov	r13, rax
	mov	rbx, QWORD PTR -48[rbp]
	mov	rsi, rbx
	mov	edi, 40
	call	_ZnwmPv
	mov	r12, rax
	mov	rsi, r13
	mov	rdi, r12
.LEHB33:
	call	_ZNSt6vectorIbSaIbEEC1ERKS1_
.LEHE33:
	jmp	.L462
.L461:
	endbr64
	mov	r13, rax
	mov	rsi, rbx
	mov	rdi, r12
	call	_ZdlPvS_
	mov	rax, r13
	mov	rdi, rax
.LEHB34:
	call	_Unwind_Resume@PLT
.LEHE34:
.L462:
	add	rsp, 40
	pop	rbx
	pop	r12
	pop	r13
	pop	rbp
	.cfi_def_cfa 7, 8
	ret
	.cfi_endproc
.LFE11465:
	.section	.gcc_except_table
.LLSDA11465:
	.byte	0xff
	.byte	0xff
	.byte	0x1
	.uleb128 .LLSDACSE11465-.LLSDACSB11465
.LLSDACSB11465:
	.uleb128 .LEHB33-.LFB11465
	.uleb128 .LEHE33-.LEHB33
	.uleb128 .L461-.LFB11465
	.uleb128 0
	.uleb128 .LEHB34-.LFB11465
	.uleb128 .LEHE34-.LEHB34
	.uleb128 0
	.uleb128 0
.LLSDACSE11465:
	.section	.text._ZN9__gnu_cxx13new_allocatorISt6vectorIbSaIbEEE9constructIS3_JRKS3_EEEvPT_DpOT0_,"axG",@progbits,_ZN9__gnu_cxx13new_allocatorISt6vectorIbSaIbEEE9constructIS3_JRKS3_EEEvPT_DpOT0_,comdat
	.size	_ZN9__gnu_cxx13new_allocatorISt6vectorIbSaIbEEE9constructIS3_JRKS3_EEEvPT_DpOT0_, .-_ZN9__gnu_cxx13new_allocatorISt6vectorIbSaIbEEE9constructIS3_JRKS3_EEEvPT_DpOT0_
	.section	.text._ZN9__gnu_cxx13new_allocatorISt6vectorIbSaIbEEE7destroyIS3_EEvPT_,"axG",@progbits,_ZN9__gnu_cxx13new_allocatorISt6vectorIbSaIbEEE7destroyIS3_EEvPT_,comdat
	.align 2
	.weak	_ZN9__gnu_cxx13new_allocatorISt6vectorIbSaIbEEE7destroyIS3_EEvPT_
	.type	_ZN9__gnu_cxx13new_allocatorISt6vectorIbSaIbEEE7destroyIS3_EEvPT_, @function
_ZN9__gnu_cxx13new_allocatorISt6vectorIbSaIbEEE7destroyIS3_EEvPT_:
.LFB11466:
	.cfi_startproc
	endbr64
	push	rbp
	.cfi_def_cfa_offset 16
	.cfi_offset 6, -16
	mov	rbp, rsp
	.cfi_def_cfa_register 6
	sub	rsp, 16
	mov	QWORD PTR -8[rbp], rdi
	mov	QWORD PTR -16[rbp], rsi
	mov	rax, QWORD PTR -16[rbp]
	mov	rdi, rax
	call	_ZNSt6vectorIbSaIbEED1Ev
	nop
	leave
	.cfi_def_cfa 7, 8
	ret
	.cfi_endproc
.LFE11466:
	.size	_ZN9__gnu_cxx13new_allocatorISt6vectorIbSaIbEEE7destroyIS3_EEvPT_, .-_ZN9__gnu_cxx13new_allocatorISt6vectorIbSaIbEEE7destroyIS3_EEvPT_
	.section	.text._ZSt4moveIRPSt6vectorIbSaIbEEEONSt16remove_referenceIT_E4typeEOS6_,"axG",@progbits,_ZSt4moveIRPSt6vectorIbSaIbEEEONSt16remove_referenceIT_E4typeEOS6_,comdat
	.weak	_ZSt4moveIRPSt6vectorIbSaIbEEEONSt16remove_referenceIT_E4typeEOS6_
	.type	_ZSt4moveIRPSt6vectorIbSaIbEEEONSt16remove_referenceIT_E4typeEOS6_, @function
_ZSt4moveIRPSt6vectorIbSaIbEEEONSt16remove_referenceIT_E4typeEOS6_:
.LFB11467:
	.cfi_startproc
	endbr64
	push	rbp
	.cfi_def_cfa_offset 16
	.cfi_offset 6, -16
	mov	rbp, rsp
	.cfi_def_cfa_register 6
	mov	QWORD PTR -8[rbp], rdi
	mov	rax, QWORD PTR -8[rbp]
	pop	rbp
	.cfi_def_cfa 7, 8
	ret
	.cfi_endproc
.LFE11467:
	.size	_ZSt4moveIRPSt6vectorIbSaIbEEEONSt16remove_referenceIT_E4typeEOS6_, .-_ZSt4moveIRPSt6vectorIbSaIbEEEONSt16remove_referenceIT_E4typeEOS6_
	.section	.text._ZNSt13move_iteratorIPSt6vectorIbSaIbEEEC2ES3_,"axG",@progbits,_ZNSt13move_iteratorIPSt6vectorIbSaIbEEEC5ES3_,comdat
	.align 2
	.weak	_ZNSt13move_iteratorIPSt6vectorIbSaIbEEEC2ES3_
	.type	_ZNSt13move_iteratorIPSt6vectorIbSaIbEEEC2ES3_, @function
_ZNSt13move_iteratorIPSt6vectorIbSaIbEEEC2ES3_:
.LFB11469:
	.cfi_startproc
	endbr64
	push	rbp
	.cfi_def_cfa_offset 16
	.cfi_offset 6, -16
	mov	rbp, rsp
	.cfi_def_cfa_register 6
	sub	rsp, 16
	mov	QWORD PTR -8[rbp], rdi
	mov	QWORD PTR -16[rbp], rsi
	lea	rax, -16[rbp]
	mov	rdi, rax
	call	_ZSt4moveIRPSt6vectorIbSaIbEEEONSt16remove_referenceIT_E4typeEOS6_
	mov	rdx, QWORD PTR [rax]
	mov	rax, QWORD PTR -8[rbp]
	mov	QWORD PTR [rax], rdx
	nop
	leave
	.cfi_def_cfa 7, 8
	ret
	.cfi_endproc
.LFE11469:
	.size	_ZNSt13move_iteratorIPSt6vectorIbSaIbEEEC2ES3_, .-_ZNSt13move_iteratorIPSt6vectorIbSaIbEEEC2ES3_
	.weak	_ZNSt13move_iteratorIPSt6vectorIbSaIbEEEC1ES3_
	.set	_ZNSt13move_iteratorIPSt6vectorIbSaIbEEEC1ES3_,_ZNSt13move_iteratorIPSt6vectorIbSaIbEEEC2ES3_
	.section	.text._ZN9__gnu_cxx14__alloc_traitsISaImEmE27_S_propagate_on_move_assignEv,"axG",@progbits,_ZN9__gnu_cxx14__alloc_traitsISaImEmE27_S_propagate_on_move_assignEv,comdat
	.weak	_ZN9__gnu_cxx14__alloc_traitsISaImEmE27_S_propagate_on_move_assignEv
	.type	_ZN9__gnu_cxx14__alloc_traitsISaImEmE27_S_propagate_on_move_assignEv, @function
_ZN9__gnu_cxx14__alloc_traitsISaImEmE27_S_propagate_on_move_assignEv:
.LFB11473:
	.cfi_startproc
	endbr64
	push	rbp
	.cfi_def_cfa_offset 16
	.cfi_offset 6, -16
	mov	rbp, rsp
	.cfi_def_cfa_register 6
	mov	eax, 1
	pop	rbp
	.cfi_def_cfa 7, 8
	ret
	.cfi_endproc
.LFE11473:
	.size	_ZN9__gnu_cxx14__alloc_traitsISaImEmE27_S_propagate_on_move_assignEv, .-_ZN9__gnu_cxx14__alloc_traitsISaImEmE27_S_propagate_on_move_assignEv
	.section	.text._ZSt18uninitialized_copyISt13move_iteratorIPSt6vectorIbSaIbEEES4_ET0_T_S7_S6_,"axG",@progbits,_ZSt18uninitialized_copyISt13move_iteratorIPSt6vectorIbSaIbEEES4_ET0_T_S7_S6_,comdat
	.weak	_ZSt18uninitialized_copyISt13move_iteratorIPSt6vectorIbSaIbEEES4_ET0_T_S7_S6_
	.type	_ZSt18uninitialized_copyISt13move_iteratorIPSt6vectorIbSaIbEEES4_ET0_T_S7_S6_, @function
_ZSt18uninitialized_copyISt13move_iteratorIPSt6vectorIbSaIbEEES4_ET0_T_S7_S6_:
.LFB11471:
	.cfi_startproc
	endbr64
	push	rbp
	.cfi_def_cfa_offset 16
	.cfi_offset 6, -16
	mov	rbp, rsp
	.cfi_def_cfa_register 6
	sub	rsp, 48
	mov	QWORD PTR -24[rbp], rdi
	mov	QWORD PTR -32[rbp], rsi
	mov	QWORD PTR -40[rbp], rdx
	mov	BYTE PTR -1[rbp], 1
	mov	rdx, QWORD PTR -40[rbp]
	mov	rcx, QWORD PTR -32[rbp]
	mov	rax, QWORD PTR -24[rbp]
	mov	rsi, rcx
	mov	rdi, rax
	call	_ZNSt20__uninitialized_copyILb0EE13__uninit_copyISt13move_iteratorIPSt6vectorIbSaIbEEES6_EET0_T_S9_S8_
	leave
	.cfi_def_cfa 7, 8
	ret
	.cfi_endproc
.LFE11471:
	.size	_ZSt18uninitialized_copyISt13move_iteratorIPSt6vectorIbSaIbEEES4_ET0_T_S7_S6_, .-_ZSt18uninitialized_copyISt13move_iteratorIPSt6vectorIbSaIbEEES4_ET0_T_S7_S6_
	.section	.text._ZSt12__niter_baseIPSt6vectorIbSaIbEEET_S4_,"axG",@progbits,_ZSt12__niter_baseIPSt6vectorIbSaIbEEET_S4_,comdat
	.weak	_ZSt12__niter_baseIPSt6vectorIbSaIbEEET_S4_
	.type	_ZSt12__niter_baseIPSt6vectorIbSaIbEEET_S4_, @function
_ZSt12__niter_baseIPSt6vectorIbSaIbEEET_S4_:
.LFB11476:
	.cfi_startproc
	endbr64
	push	rbp
	.cfi_def_cfa_offset 16
	.cfi_offset 6, -16
	mov	rbp, rsp
	.cfi_def_cfa_register 6
	mov	QWORD PTR -8[rbp], rdi
	mov	rax, QWORD PTR -8[rbp]
	pop	rbp
	.cfi_def_cfa 7, 8
	ret
	.cfi_endproc
.LFE11476:
	.size	_ZSt12__niter_baseIPSt6vectorIbSaIbEEET_S4_, .-_ZSt12__niter_baseIPSt6vectorIbSaIbEEET_S4_
	.section	.text._ZSt23__copy_move_backward_a1ILb1EPSt6vectorIbSaIbEES3_ET1_T0_S5_S4_,"axG",@progbits,_ZSt23__copy_move_backward_a1ILb1EPSt6vectorIbSaIbEES3_ET1_T0_S5_S4_,comdat
	.weak	_ZSt23__copy_move_backward_a1ILb1EPSt6vectorIbSaIbEES3_ET1_T0_S5_S4_
	.type	_ZSt23__copy_move_backward_a1ILb1EPSt6vectorIbSaIbEES3_ET1_T0_S5_S4_, @function
_ZSt23__copy_move_backward_a1ILb1EPSt6vectorIbSaIbEES3_ET1_T0_S5_S4_:
.LFB11477:
	.cfi_startproc
	endbr64
	push	rbp
	.cfi_def_cfa_offset 16
	.cfi_offset 6, -16
	mov	rbp, rsp
	.cfi_def_cfa_register 6
	sub	rsp, 32
	mov	QWORD PTR -8[rbp], rdi
	mov	QWORD PTR -16[rbp], rsi
	mov	QWORD PTR -24[rbp], rdx
	mov	rdx, QWORD PTR -24[rbp]
	mov	rcx, QWORD PTR -16[rbp]
	mov	rax, QWORD PTR -8[rbp]
	mov	rsi, rcx
	mov	rdi, rax
	call	_ZSt23__copy_move_backward_a2ILb1EPSt6vectorIbSaIbEES3_ET1_T0_S5_S4_
	leave
	.cfi_def_cfa 7, 8
	ret
	.cfi_endproc
.LFE11477:
	.size	_ZSt23__copy_move_backward_a1ILb1EPSt6vectorIbSaIbEES3_ET1_T0_S5_S4_, .-_ZSt23__copy_move_backward_a1ILb1EPSt6vectorIbSaIbEES3_ET1_T0_S5_S4_
	.section	.text._ZSt12__niter_wrapIPSt6vectorIbSaIbEEET_RKS4_S4_,"axG",@progbits,_ZSt12__niter_wrapIPSt6vectorIbSaIbEEET_RKS4_S4_,comdat
	.weak	_ZSt12__niter_wrapIPSt6vectorIbSaIbEEET_RKS4_S4_
	.type	_ZSt12__niter_wrapIPSt6vectorIbSaIbEEET_RKS4_S4_, @function
_ZSt12__niter_wrapIPSt6vectorIbSaIbEEET_RKS4_S4_:
.LFB11478:
	.cfi_startproc
	endbr64
	push	rbp
	.cfi_def_cfa_offset 16
	.cfi_offset 6, -16
	mov	rbp, rsp
	.cfi_def_cfa_register 6
	mov	QWORD PTR -8[rbp], rdi
	mov	QWORD PTR -16[rbp], rsi
	mov	rax, QWORD PTR -16[rbp]
	pop	rbp
	.cfi_def_cfa 7, 8
	ret
	.cfi_endproc
.LFE11478:
	.size	_ZSt12__niter_wrapIPSt6vectorIbSaIbEEET_RKS4_S4_, .-_ZSt12__niter_wrapIPSt6vectorIbSaIbEEET_RKS4_S4_
	.section	.text._ZSt9__fill_a1IPSt6vectorIbSaIbEES2_EN9__gnu_cxx11__enable_ifIXntsrSt11__is_scalarIT0_E7__valueEvE6__typeET_SB_RKS7_,"axG",@progbits,_ZSt9__fill_a1IPSt6vectorIbSaIbEES2_EN9__gnu_cxx11__enable_ifIXntsrSt11__is_scalarIT0_E7__valueEvE6__typeET_SB_RKS7_,comdat
	.weak	_ZSt9__fill_a1IPSt6vectorIbSaIbEES2_EN9__gnu_cxx11__enable_ifIXntsrSt11__is_scalarIT0_E7__valueEvE6__typeET_SB_RKS7_
	.type	_ZSt9__fill_a1IPSt6vectorIbSaIbEES2_EN9__gnu_cxx11__enable_ifIXntsrSt11__is_scalarIT0_E7__valueEvE6__typeET_SB_RKS7_, @function
_ZSt9__fill_a1IPSt6vectorIbSaIbEES2_EN9__gnu_cxx11__enable_ifIXntsrSt11__is_scalarIT0_E7__valueEvE6__typeET_SB_RKS7_:
.LFB11479:
	.cfi_startproc
	endbr64
	push	rbp
	.cfi_def_cfa_offset 16
	.cfi_offset 6, -16
	mov	rbp, rsp
	.cfi_def_cfa_register 6
	sub	rsp, 32
	mov	QWORD PTR -8[rbp], rdi
	mov	QWORD PTR -16[rbp], rsi
	mov	QWORD PTR -24[rbp], rdx
	jmp	.L478
.L479:
	mov	rdx, QWORD PTR -24[rbp]
	mov	rax, QWORD PTR -8[rbp]
	mov	rsi, rdx
	mov	rdi, rax
	call	_ZNSt6vectorIbSaIbEEaSERKS1_
	add	QWORD PTR -8[rbp], 40
.L478:
	mov	rax, QWORD PTR -8[rbp]
	cmp	rax, QWORD PTR -16[rbp]
	jne	.L479
	nop
	nop
	leave
	.cfi_def_cfa 7, 8
	ret
	.cfi_endproc
.LFE11479:
	.size	_ZSt9__fill_a1IPSt6vectorIbSaIbEES2_EN9__gnu_cxx11__enable_ifIXntsrSt11__is_scalarIT0_E7__valueEvE6__typeET_SB_RKS7_, .-_ZSt9__fill_a1IPSt6vectorIbSaIbEES2_EN9__gnu_cxx11__enable_ifIXntsrSt11__is_scalarIT0_E7__valueEvE6__typeET_SB_RKS7_
	.section	.text._ZNSt22__uninitialized_fill_nILb0EE15__uninit_fill_nIPSt6vectorIbSaIbEEmS4_EET_S6_T0_RKT1_,"axG",@progbits,_ZNSt22__uninitialized_fill_nILb0EE15__uninit_fill_nIPSt6vectorIbSaIbEEmS4_EET_S6_T0_RKT1_,comdat
	.weak	_ZNSt22__uninitialized_fill_nILb0EE15__uninit_fill_nIPSt6vectorIbSaIbEEmS4_EET_S6_T0_RKT1_
	.type	_ZNSt22__uninitialized_fill_nILb0EE15__uninit_fill_nIPSt6vectorIbSaIbEEmS4_EET_S6_T0_RKT1_, @function
_ZNSt22__uninitialized_fill_nILb0EE15__uninit_fill_nIPSt6vectorIbSaIbEEmS4_EET_S6_T0_RKT1_:
.LFB11480:
	.cfi_startproc
	.cfi_personality 0x9b,DW.ref.__gxx_personality_v0
	.cfi_lsda 0x1b,.LLSDA11480
	endbr64
	push	rbp
	.cfi_def_cfa_offset 16
	.cfi_offset 6, -16
	mov	rbp, rsp
	.cfi_def_cfa_register 6
	push	rbx
	sub	rsp, 56
	.cfi_offset 3, -24
	mov	QWORD PTR -40[rbp], rdi
	mov	QWORD PTR -48[rbp], rsi
	mov	QWORD PTR -56[rbp], rdx
	mov	rax, QWORD PTR -40[rbp]
	mov	QWORD PTR -24[rbp], rax
	jmp	.L481
.L482:
	mov	rax, QWORD PTR -24[rbp]
	mov	rdi, rax
	call	_ZSt11__addressofISt6vectorIbSaIbEEEPT_RS3_
	mov	rdx, rax
	mov	rax, QWORD PTR -56[rbp]
	mov	rsi, rax
	mov	rdi, rdx
.LEHB35:
	call	_ZSt10_ConstructISt6vectorIbSaIbEEJRKS2_EEvPT_DpOT0_
.LEHE35:
	sub	QWORD PTR -48[rbp], 1
	add	QWORD PTR -24[rbp], 40
.L481:
	cmp	QWORD PTR -48[rbp], 0
	jne	.L482
	mov	rax, QWORD PTR -24[rbp]
	jmp	.L488
.L486:
	endbr64
	mov	rdi, rax
