	.file	"Sweep Line.cpp"
	.intel_syntax noprefix
	.text
	.section	.text._ZnwmPv,"axG",@progbits,_ZnwmPv,comdat
	.weak	_ZnwmPv
	.type	_ZnwmPv, @function
_ZnwmPv:
.LFB38:
	.cfi_startproc
	endbr64
	push	rbp
	.cfi_def_cfa_offset 16
	.cfi_offset 6, -16
	mov	rbp, rsp
	.cfi_def_cfa_register 6
	mov	QWORD PTR -8[rbp], rdi
	mov	QWORD PTR -16[rbp], rsi
	mov	rax, QWORD PTR -16[rbp]
	pop	rbp
	.cfi_def_cfa 7, 8
	ret
	.cfi_endproc
.LFE38:
	.size	_ZnwmPv, .-_ZnwmPv
	.section	.text._ZdlPvS_,"axG",@progbits,_ZdlPvS_,comdat
	.weak	_ZdlPvS_
	.type	_ZdlPvS_, @function
_ZdlPvS_:
.LFB40:
	.cfi_startproc
	endbr64
	push	rbp
	.cfi_def_cfa_offset 16
	.cfi_offset 6, -16
	mov	rbp, rsp
	.cfi_def_cfa_register 6
	mov	QWORD PTR -8[rbp], rdi
	mov	QWORD PTR -16[rbp], rsi
	nop
	pop	rbp
	.cfi_def_cfa 7, 8
	ret
	.cfi_endproc
.LFE40:
	.size	_ZdlPvS_, .-_ZdlPvS_
	.section	.text._ZSt17__size_to_integerm,"axG",@progbits,_ZSt17__size_to_integerm,comdat
	.weak	_ZSt17__size_to_integerm
	.type	_ZSt17__size_to_integerm, @function
_ZSt17__size_to_integerm:
.LFB371:
	.cfi_startproc
	endbr64
	push	rbp
	.cfi_def_cfa_offset 16
	.cfi_offset 6, -16
	mov	rbp, rsp
	.cfi_def_cfa_register 6
	mov	QWORD PTR -8[rbp], rdi
	mov	rax, QWORD PTR -8[rbp]
	pop	rbp
	.cfi_def_cfa 7, 8
	ret
	.cfi_endproc
.LFE371:
	.size	_ZSt17__size_to_integerm, .-_ZSt17__size_to_integerm
	.local	_ZStL8__ioinit
	.comm	_ZStL8__ioinit,1,1
	.section	.text._ZSt3minImERKT_S2_S2_,"axG",@progbits,_ZSt3minImERKT_S2_S2_,comdat
	.weak	_ZSt3minImERKT_S2_S2_
	.type	_ZSt3minImERKT_S2_S2_, @function
_ZSt3minImERKT_S2_S2_:
.LFB3255:
	.cfi_startproc
	endbr64
	push	rbp
	.cfi_def_cfa_offset 16
	.cfi_offset 6, -16
	mov	rbp, rsp
	.cfi_def_cfa_register 6
	mov	QWORD PTR -8[rbp], rdi
	mov	QWORD PTR -16[rbp], rsi
	mov	rax, QWORD PTR -16[rbp]
	mov	rdx, QWORD PTR [rax]
	mov	rax, QWORD PTR -8[rbp]
	mov	rax, QWORD PTR [rax]
	cmp	rdx, rax
	jnb	.L7
	mov	rax, QWORD PTR -16[rbp]
	jmp	.L8
.L7:
	mov	rax, QWORD PTR -8[rbp]
.L8:
	pop	rbp
	.cfi_def_cfa 7, 8
	ret
	.cfi_endproc
.LFE3255:
	.size	_ZSt3minImERKT_S2_S2_, .-_ZSt3minImERKT_S2_S2_
	.section	.rodata
	.type	_ZN6__pstl9execution2v1L3seqE, @object
	.size	_ZN6__pstl9execution2v1L3seqE, 1
_ZN6__pstl9execution2v1L3seqE:
	.zero	1
	.type	_ZN6__pstl9execution2v1L3parE, @object
	.size	_ZN6__pstl9execution2v1L3parE, 1
_ZN6__pstl9execution2v1L3parE:
	.zero	1
	.type	_ZN6__pstl9execution2v1L9par_unseqE, @object
	.size	_ZN6__pstl9execution2v1L9par_unseqE, 1
_ZN6__pstl9execution2v1L9par_unseqE:
	.zero	1
	.type	_ZN6__pstl9execution2v1L5unseqE, @object
	.size	_ZN6__pstl9execution2v1L5unseqE, 1
_ZN6__pstl9execution2v1L5unseqE:
	.zero	1
	.align 4
	.type	_ZN9__gnu_cxxL21__default_lock_policyE, @object
	.size	_ZN9__gnu_cxxL21__default_lock_policyE, 4
_ZN9__gnu_cxxL21__default_lock_policyE:
	.long	2
	.align 4
	.type	_ZNSt15regex_constantsL13error_collateE, @object
	.size	_ZNSt15regex_constantsL13error_collateE, 4
_ZNSt15regex_constantsL13error_collateE:
	.zero	4
	.align 4
	.type	_ZNSt15regex_constantsL11error_ctypeE, @object
	.size	_ZNSt15regex_constantsL11error_ctypeE, 4
_ZNSt15regex_constantsL11error_ctypeE:
	.long	1
	.align 4
	.type	_ZNSt15regex_constantsL12error_escapeE, @object
	.size	_ZNSt15regex_constantsL12error_escapeE, 4
_ZNSt15regex_constantsL12error_escapeE:
	.long	2
	.align 4
	.type	_ZNSt15regex_constantsL13error_backrefE, @object
	.size	_ZNSt15regex_constantsL13error_backrefE, 4
_ZNSt15regex_constantsL13error_backrefE:
	.long	3
	.align 4
	.type	_ZNSt15regex_constantsL11error_brackE, @object
	.size	_ZNSt15regex_constantsL11error_brackE, 4
_ZNSt15regex_constantsL11error_brackE:
	.long	4
	.align 4
	.type	_ZNSt15regex_constantsL11error_parenE, @object
	.size	_ZNSt15regex_constantsL11error_parenE, 4
_ZNSt15regex_constantsL11error_parenE:
	.long	5
	.align 4
	.type	_ZNSt15regex_constantsL11error_braceE, @object
	.size	_ZNSt15regex_constantsL11error_braceE, 4
_ZNSt15regex_constantsL11error_braceE:
	.long	6
	.align 4
	.type	_ZNSt15regex_constantsL14error_badbraceE, @object
	.size	_ZNSt15regex_constantsL14error_badbraceE, 4
_ZNSt15regex_constantsL14error_badbraceE:
	.long	7
	.align 4
	.type	_ZNSt15regex_constantsL11error_rangeE, @object
	.size	_ZNSt15regex_constantsL11error_rangeE, 4
_ZNSt15regex_constantsL11error_rangeE:
	.long	8
	.align 4
	.type	_ZNSt15regex_constantsL11error_spaceE, @object
	.size	_ZNSt15regex_constantsL11error_spaceE, 4
_ZNSt15regex_constantsL11error_spaceE:
	.long	9
	.align 4
	.type	_ZNSt15regex_constantsL15error_badrepeatE, @object
	.size	_ZNSt15regex_constantsL15error_badrepeatE, 4
_ZNSt15regex_constantsL15error_badrepeatE:
	.long	10
	.align 4
	.type	_ZNSt15regex_constantsL16error_complexityE, @object
	.size	_ZNSt15regex_constantsL16error_complexityE, 4
_ZNSt15regex_constantsL16error_complexityE:
	.long	11
	.align 4
	.type	_ZNSt15regex_constantsL11error_stackE, @object
	.size	_ZNSt15regex_constantsL11error_stackE, 4
_ZNSt15regex_constantsL11error_stackE:
	.long	12
	.align 8
	.type	_ZNSt8__detailL19_S_invalid_state_idE, @object
	.size	_ZNSt8__detailL19_S_invalid_state_idE, 8
_ZNSt8__detailL19_S_invalid_state_idE:
	.quad	-1
	.align 4
	.type	_ZL2Md, @object
	.size	_ZL2Md, 4
_ZL2Md:
	.long	1000000007
	.section	.text._ZNKSt16initializer_listIiE5beginEv,"axG",@progbits,_ZNKSt16initializer_listIiE5beginEv,comdat
	.align 2
	.weak	_ZNKSt16initializer_listIiE5beginEv
	.type	_ZNKSt16initializer_listIiE5beginEv, @function
_ZNKSt16initializer_listIiE5beginEv:
.LFB9705:
	.cfi_startproc
	endbr64
	push	rbp
	.cfi_def_cfa_offset 16
	.cfi_offset 6, -16
	mov	rbp, rsp
	.cfi_def_cfa_register 6
	mov	QWORD PTR -8[rbp], rdi
	mov	rax, QWORD PTR -8[rbp]
	mov	rax, QWORD PTR [rax]
	pop	rbp
	.cfi_def_cfa 7, 8
	ret
	.cfi_endproc
.LFE9705:
	.size	_ZNKSt16initializer_listIiE5beginEv, .-_ZNKSt16initializer_listIiE5beginEv
	.section	.text._ZNKSt16initializer_listIiE3endEv,"axG",@progbits,_ZNKSt16initializer_listIiE3endEv,comdat
	.align 2
	.weak	_ZNKSt16initializer_listIiE3endEv
	.type	_ZNKSt16initializer_listIiE3endEv, @function
_ZNKSt16initializer_listIiE3endEv:
.LFB9706:
	.cfi_startproc
	endbr64
	push	rbp
	.cfi_def_cfa_offset 16
	.cfi_offset 6, -16
	mov	rbp, rsp
	.cfi_def_cfa_register 6
	push	rbx
	sub	rsp, 24
	.cfi_offset 3, -24
	mov	QWORD PTR -24[rbp], rdi
	mov	rax, QWORD PTR -24[rbp]
	mov	rdi, rax
	call	_ZNKSt16initializer_listIiE5beginEv
	mov	rbx, rax
	mov	rax, QWORD PTR -24[rbp]
	mov	rdi, rax
	call	_ZNKSt16initializer_listIiE4sizeEv
	sal	rax, 2
	add	rax, rbx
	mov	rbx, QWORD PTR -8[rbp]
	leave
	.cfi_def_cfa 7, 8
	ret
	.cfi_endproc
.LFE9706:
	.size	_ZNKSt16initializer_listIiE3endEv, .-_ZNKSt16initializer_listIiE3endEv
	.text
	.globl	main
	.type	main, @function
main:
.LFB9704:
	.cfi_startproc
	.cfi_personality 0x9b,DW.ref.__gxx_personality_v0
	.cfi_lsda 0x1b,.LLSDA9704
	endbr64
	push	rbp
	.cfi_def_cfa_offset 16
	.cfi_offset 6, -16
	mov	rbp, rsp
	.cfi_def_cfa_register 6
	push	r12
	push	rbx
	sub	rsp, 176
	.cfi_offset 12, -24
	.cfi_offset 3, -32
	mov	rax, QWORD PTR fs:40
	mov	QWORD PTR -24[rbp], rax
	xor	eax, eax
	mov	edi, 0
.LEHB0:
	call	_ZNSt8ios_base15sync_with_stdioEb@PLT
	mov	esi, 0
	lea	rax, _ZSt3cin[rip+16]
	mov	rdi, rax
	call	_ZNSt9basic_iosIcSt11char_traitsIcEE3tieEPSo@PLT
	mov	esi, 0
	lea	rax, _ZSt4cout[rip+8]
	mov	rdi, rax
	call	_ZNSt9basic_iosIcSt11char_traitsIcEE3tieEPSo@PLT
	lea	rax, -188[rbp]
	mov	rsi, rax
	lea	rax, _ZSt3cin[rip]
	mov	rdi, rax
	call	_ZNSirsERi@PLT
.LEHE0:
	lea	rax, -64[rbp]
	mov	rdi, rax
	call	_ZNSaIiEC1Ev
	mov	eax, DWORD PTR -188[rbp]
	add	eax, 1
	movsx	rcx, eax
	lea	rdx, -64[rbp]
	lea	rax, -128[rbp]
	mov	rsi, rcx
	mov	rdi, rax
.LEHB1:
	call	_ZNSt6vectorIiSaIiEEC1EmRKS0_
.LEHE1:
	lea	rax, -64[rbp]
	mov	rdi, rax
	call	_ZNSaIiED1Ev
	mov	DWORD PTR -180[rbp], 1
	jmp	.L14
.L15:
	mov	eax, DWORD PTR -180[rbp]
	movsx	rdx, eax
	lea	rax, -128[rbp]
	mov	rsi, rdx
	mov	rdi, rax
	call	_ZNSt6vectorIiSaIiEEixEm
	mov	rsi, rax
	lea	rax, _ZSt3cin[rip]
	mov	rdi, rax
.LEHB2:
	call	_ZNSirsERi@PLT
	add	DWORD PTR -180[rbp], 1
.L14:
	mov	eax, DWORD PTR -188[rbp]
	cmp	DWORD PTR -180[rbp], eax
	jle	.L15
	mov	eax, DWORD PTR -188[rbp]
	cmp	eax, 1
	jne	.L16
	lea	rax, -128[rbp]
	mov	esi, 1
	mov	rdi, rax
	call	_ZNSt6vectorIiSaIiEEixEm
	mov	eax, DWORD PTR [rax]
	test	eax, eax
	jne	.L17
	mov	eax, 2
	jmp	.L18
.L17:
	mov	eax, 0
.L18:
	mov	esi, eax
	lea	rax, _ZSt4cout[rip]
	mov	rdi, rax
	call	_ZNSolsEi@PLT
.LEHE2:
	mov	r12d, 0
	mov	ebx, 0
	jmp	.L19
.L16:
	lea	rax, -189[rbp]
	mov	rdi, rax
	call	_ZNSaISt6vectorIiSaIiEEEC1Ev
	lea	rax, -190[rbp]
	mov	rdi, rax
	call	_ZNSaIiEC1Ev
	mov	DWORD PTR -184[rbp], 0
	lea	rcx, -190[rbp]
	lea	rdx, -184[rbp]
	lea	rax, -64[rbp]
	mov	esi, 4
	mov	rdi, rax
.LEHB3:
	call	_ZNSt6vectorIiSaIiEEC1EmRKiRKS0_
.LEHE3:
	mov	eax, DWORD PTR -188[rbp]
	movsx	rsi, eax
	lea	rcx, -189[rbp]
	lea	rdx, -64[rbp]
	lea	rax, -96[rbp]
	mov	rdi, rax
.LEHB4:
	call	_ZNSt6vectorIS_IiSaIiEESaIS1_EEC1EmRKS1_RKS2_
.LEHE4:
	lea	rax, -64[rbp]
	mov	rdi, rax
	call	_ZNSt6vectorIiSaIiEED1Ev
	lea	rax, -190[rbp]
	mov	rdi, rax
	call	_ZNSaIiED1Ev
	lea	rax, -189[rbp]
	mov	rdi, rax
	call	_ZNSaISt6vectorIiSaIiEEED1Ev
	mov	DWORD PTR -176[rbp], 0
	jmp	.L20
.L21:
	lea	rax, -128[rbp]
	mov	esi, 1
	mov	rdi, rax
	call	_ZNSt6vectorIiSaIiEEixEm
	mov	edx, DWORD PTR [rax]
	mov	eax, DWORD PTR -176[rbp]
	mov	ecx, eax
	sar	ecx, 31
	shr	ecx, 31
	add	eax, ecx
	and	eax, 1
	sub	eax, ecx
	cmp	edx, eax
	sete	al
	movzx	ebx, al
	lea	rax, -96[rbp]
	mov	esi, 1
	mov	rdi, rax
	call	_ZNSt6vectorIS_IiSaIiEESaIS1_EEixEm
	mov	rdx, rax
	mov	eax, DWORD PTR -176[rbp]
	cdqe
	mov	rsi, rax
	mov	rdi, rdx
	call	_ZNSt6vectorIiSaIiEEixEm
	mov	DWORD PTR [rax], ebx
	add	DWORD PTR -176[rbp], 1
.L20:
	cmp	DWORD PTR -176[rbp], 3
	jle	.L21
	mov	DWORD PTR -172[rbp], 2
	jmp	.L22
.L28:
	mov	DWORD PTR -168[rbp], 0
	jmp	.L23
.L27:
	mov	DWORD PTR -32[rbp], 0
	mov	DWORD PTR -28[rbp], 1
	mov	QWORD PTR -64[rbp], 0
	mov	QWORD PTR -56[rbp], 0
	mov	QWORD PTR -56[rbp], 2
	lea	rax, -32[rbp]
	mov	QWORD PTR -64[rbp], rax
	lea	rax, -64[rbp]
	mov	QWORD PTR -144[rbp], rax
	mov	rax, QWORD PTR -144[rbp]
	mov	rdi, rax
	call	_ZNKSt16initializer_listIiE5beginEv
	mov	QWORD PTR -152[rbp], rax
	mov	rax, QWORD PTR -144[rbp]
	mov	rdi, rax
	call	_ZNKSt16initializer_listIiE3endEv
	mov	QWORD PTR -136[rbp], rax
	jmp	.L24
.L26:
	mov	rax, QWORD PTR -152[rbp]
	mov	eax, DWORD PTR [rax]
	mov	DWORD PTR -156[rbp], eax
	mov	eax, DWORD PTR -168[rbp]
	mov	edx, eax
	shr	edx, 31
	add	eax, edx
	sar	eax
	mov	edx, eax
	mov	eax, DWORD PTR -156[rbp]
	lea	ebx, [rdx+rax]
	mov	eax, DWORD PTR -172[rbp]
	movsx	rdx, eax
	lea	rax, -128[rbp]
	mov	rsi, rdx
	mov	rdi, rax
	call	_ZNSt6vectorIiSaIiEEixEm
	mov	eax, DWORD PTR [rax]
	cmp	ebx, eax
	sete	al
	test	al, al
	je	.L25
	mov	eax, DWORD PTR -172[rbp]
	movsx	rdx, eax
	lea	rax, -96[rbp]
	mov	rsi, rdx
	mov	rdi, rax
	call	_ZNSt6vectorIS_IiSaIiEESaIS1_EEixEm
	mov	rdx, rax
	mov	eax, DWORD PTR -168[rbp]
	and	eax, 1
	lea	ecx, [rax+rax]
	mov	eax, DWORD PTR -156[rbp]
	add	eax, ecx
	cdqe
	mov	rsi, rax
	mov	rdi, rdx
	call	_ZNSt6vectorIiSaIiEEixEm
	mov	ebx, DWORD PTR [rax]
	mov	eax, DWORD PTR -172[rbp]
	sub	eax, 1
	movsx	rdx, eax
	lea	rax, -96[rbp]
	mov	rsi, rdx
	mov	rdi, rax
	call	_ZNSt6vectorIS_IiSaIiEESaIS1_EEixEm
	mov	rdx, rax
	mov	eax, DWORD PTR -168[rbp]
	cdqe
	mov	rsi, rax
	mov	rdi, rdx
	call	_ZNSt6vectorIiSaIiEEixEm
	mov	eax, DWORD PTR [rax]
	add	eax, ebx
	movsx	rdx, eax
	imul	rdx, rdx, 1152921497
	shr	rdx, 32
	sar	edx, 28
	mov	ecx, eax
	sar	ecx, 31
	mov	ebx, edx
	sub	ebx, ecx
	imul	edx, ebx, 1000000007
	sub	eax, edx
	mov	ebx, eax
	mov	eax, DWORD PTR -172[rbp]
	movsx	rdx, eax
	lea	rax, -96[rbp]
	mov	rsi, rdx
	mov	rdi, rax
	call	_ZNSt6vectorIS_IiSaIiEESaIS1_EEixEm
	mov	rdx, rax
	mov	eax, DWORD PTR -168[rbp]
	and	eax, 1
	lea	ecx, [rax+rax]
	mov	eax, DWORD PTR -156[rbp]
	add	eax, ecx
	cdqe
	mov	rsi, rax
	mov	rdi, rdx
	call	_ZNSt6vectorIiSaIiEEixEm
	mov	DWORD PTR [rax], ebx
.L25:
	add	QWORD PTR -152[rbp], 4
.L24:
	mov	rax, QWORD PTR -152[rbp]
	cmp	rax, QWORD PTR -136[rbp]
	jne	.L26
	add	DWORD PTR -168[rbp], 1
.L23:
	cmp	DWORD PTR -168[rbp], 3
	jle	.L27
	add	DWORD PTR -172[rbp], 1
.L22:
	mov	eax, DWORD PTR -188[rbp]
	cmp	DWORD PTR -172[rbp], eax
	jl	.L28
	mov	DWORD PTR -164[rbp], 0
	mov	DWORD PTR -160[rbp], 0
	jmp	.L29
.L31:
	mov	eax, DWORD PTR -188[rbp]
	movsx	rdx, eax
	lea	rax, -128[rbp]
	mov	rsi, rdx
	mov	rdi, rax
	call	_ZNSt6vectorIiSaIiEEixEm
	mov	edx, DWORD PTR [rax]
	mov	eax, DWORD PTR -160[rbp]
	mov	ecx, eax
	shr	ecx, 31
	add	eax, ecx
	sar	eax
	cmp	edx, eax
	sete	al
	test	al, al
	je	.L30
	mov	eax, DWORD PTR -188[rbp]
	sub	eax, 1
	movsx	rdx, eax
	lea	rax, -96[rbp]
	mov	rsi, rdx
	mov	rdi, rax
	call	_ZNSt6vectorIS_IiSaIiEESaIS1_EEixEm
	mov	rdx, rax
	mov	eax, DWORD PTR -160[rbp]
	cdqe
	mov	rsi, rax
	mov	rdi, rdx
	call	_ZNSt6vectorIiSaIiEEixEm
	mov	edx, DWORD PTR [rax]
	mov	eax, DWORD PTR -164[rbp]
	add	eax, edx
	movsx	rdx, eax
	imul	rdx, rdx, 1152921497
	shr	rdx, 32
	sar	edx, 28
	mov	ecx, eax
	sar	ecx, 31
	sub	edx, ecx
	mov	DWORD PTR -164[rbp], edx
	mov	edx, DWORD PTR -164[rbp]
	imul	edx, edx, 1000000007
	sub	eax, edx
	mov	DWORD PTR -164[rbp], eax
.L30:
	add	DWORD PTR -160[rbp], 1
.L29:
	cmp	DWORD PTR -160[rbp], 3
	jle	.L31
	mov	eax, DWORD PTR -164[rbp]
	mov	esi, eax
	lea	rax, _ZSt4cout[rip]
	mov	rdi, rax
.LEHB5:
	call	_ZNSolsEi@PLT
.LEHE5:
	lea	rax, -96[rbp]
	mov	rdi, rax
	call	_ZNSt6vectorIS_IiSaIiEESaIS1_EED1Ev
	mov	ebx, 1
.L19:
	lea	rax, -128[rbp]
	mov	rdi, rax
	call	_ZNSt6vectorIiSaIiEED1Ev
	cmp	ebx, 1
	jne	.L33
	mov	r12d, 0
.L33:
	mov	eax, r12d
	mov	rdx, QWORD PTR -24[rbp]
	sub	rdx, QWORD PTR fs:40
	je	.L39
	jmp	.L45
.L40:
	endbr64
	mov	rbx, rax
	lea	rax, -64[rbp]
	mov	rdi, rax
	call	_ZNSaIiED1Ev
	mov	rax, rbx
	mov	rdi, rax
.LEHB6:
	call	_Unwind_Resume@PLT
.L43:
	endbr64
	mov	rbx, rax
	lea	rax, -64[rbp]
	mov	rdi, rax
	call	_ZNSt6vectorIiSaIiEED1Ev
	jmp	.L36
.L42:
	endbr64
	mov	rbx, rax
.L36:
	lea	rax, -190[rbp]
	mov	rdi, rax
	call	_ZNSaIiED1Ev
	lea	rax, -189[rbp]
	mov	rdi, rax
	call	_ZNSaISt6vectorIiSaIiEEED1Ev
	jmp	.L37
.L44:
	endbr64
	mov	rbx, rax
	lea	rax, -96[rbp]
	mov	rdi, rax
	call	_ZNSt6vectorIS_IiSaIiEESaIS1_EED1Ev
	jmp	.L37
.L41:
	endbr64
	mov	rbx, rax
.L37:
	lea	rax, -128[rbp]
	mov	rdi, rax
	call	_ZNSt6vectorIiSaIiEED1Ev
	mov	rax, rbx
	mov	rdi, rax
	call	_Unwind_Resume@PLT
.LEHE6:
.L45:
	call	__stack_chk_fail@PLT
.L39:
	add	rsp, 176
	pop	rbx
	pop	r12
	pop	rbp
	.cfi_def_cfa 7, 8
	ret
	.cfi_endproc
.LFE9704:
	.globl	__gxx_personality_v0
	.section	.gcc_except_table,"a",@progbits
.LLSDA9704:
	.byte	0xff
	.byte	0xff
	.byte	0x1
	.uleb128 .LLSDACSE9704-.LLSDACSB9704
.LLSDACSB9704:
	.uleb128 .LEHB0-.LFB9704
	.uleb128 .LEHE0-.LEHB0
	.uleb128 0
	.uleb128 0
	.uleb128 .LEHB1-.LFB9704
	.uleb128 .LEHE1-.LEHB1
	.uleb128 .L40-.LFB9704
	.uleb128 0
	.uleb128 .LEHB2-.LFB9704
	.uleb128 .LEHE2-.LEHB2
	.uleb128 .L41-.LFB9704
	.uleb128 0
	.uleb128 .LEHB3-.LFB9704
	.uleb128 .LEHE3-.LEHB3
	.uleb128 .L42-.LFB9704
	.uleb128 0
	.uleb128 .LEHB4-.LFB9704
	.uleb128 .LEHE4-.LEHB4
	.uleb128 .L43-.LFB9704
	.uleb128 0
	.uleb128 .LEHB5-.LFB9704
	.uleb128 .LEHE5-.LEHB5
	.uleb128 .L44-.LFB9704
	.uleb128 0
	.uleb128 .LEHB6-.LFB9704
	.uleb128 .LEHE6-.LEHB6
	.uleb128 0
	.uleb128 0
.LLSDACSE9704:
	.text
	.size	main, .-main
	.section	.text._ZNSaIiEC2Ev,"axG",@progbits,_ZNSaIiEC5Ev,comdat
	.align 2
	.weak	_ZNSaIiEC2Ev
	.type	_ZNSaIiEC2Ev, @function
_ZNSaIiEC2Ev:
.LFB10396:
	.cfi_startproc
	endbr64
	push	rbp
	.cfi_def_cfa_offset 16
	.cfi_offset 6, -16
	mov	rbp, rsp
	.cfi_def_cfa_register 6
	sub	rsp, 16
	mov	QWORD PTR -8[rbp], rdi
	mov	rax, QWORD PTR -8[rbp]
	mov	rdi, rax
	call	_ZN9__gnu_cxx13new_allocatorIiEC2Ev
	nop
	leave
	.cfi_def_cfa 7, 8
	ret
	.cfi_endproc
.LFE10396:
	.size	_ZNSaIiEC2Ev, .-_ZNSaIiEC2Ev
	.weak	_ZNSaIiEC1Ev
	.set	_ZNSaIiEC1Ev,_ZNSaIiEC2Ev
	.section	.text._ZNSaIiED2Ev,"axG",@progbits,_ZNSaIiED5Ev,comdat
	.align 2
	.weak	_ZNSaIiED2Ev
	.type	_ZNSaIiED2Ev, @function
_ZNSaIiED2Ev:
.LFB10399:
	.cfi_startproc
	endbr64
	push	rbp
	.cfi_def_cfa_offset 16
	.cfi_offset 6, -16
	mov	rbp, rsp
	.cfi_def_cfa_register 6
	sub	rsp, 16
	mov	QWORD PTR -8[rbp], rdi
	mov	rax, QWORD PTR -8[rbp]
	mov	rdi, rax
	call	_ZN9__gnu_cxx13new_allocatorIiED2Ev
	nop
	leave
	.cfi_def_cfa 7, 8
	ret
	.cfi_endproc
.LFE10399:
	.size	_ZNSaIiED2Ev, .-_ZNSaIiED2Ev
	.weak	_ZNSaIiED1Ev
	.set	_ZNSaIiED1Ev,_ZNSaIiED2Ev
	.section	.text._ZNSt6vectorIiSaIiEEC2EmRKS0_,"axG",@progbits,_ZNSt6vectorIiSaIiEEC5EmRKS0_,comdat
	.align 2
	.weak	_ZNSt6vectorIiSaIiEEC2EmRKS0_
	.type	_ZNSt6vectorIiSaIiEEC2EmRKS0_, @function
_ZNSt6vectorIiSaIiEEC2EmRKS0_:
.LFB10402:
	.cfi_startproc
	.cfi_personality 0x9b,DW.ref.__gxx_personality_v0
	.cfi_lsda 0x1b,.LLSDA10402
	endbr64
	push	rbp
	.cfi_def_cfa_offset 16
	.cfi_offset 6, -16
	mov	rbp, rsp
	.cfi_def_cfa_register 6
	push	rbx
	sub	rsp, 40
	.cfi_offset 3, -24
	mov	QWORD PTR -24[rbp], rdi
	mov	QWORD PTR -32[rbp], rsi
	mov	QWORD PTR -40[rbp], rdx
	mov	rbx, QWORD PTR -24[rbp]
	mov	rdx, QWORD PTR -40[rbp]
	mov	rax, QWORD PTR -32[rbp]
	mov	rsi, rdx
	mov	rdi, rax
.LEHB7:
	call	_ZNSt6vectorIiSaIiEE17_S_check_init_lenEmRKS0_
	mov	rcx, rax
	mov	rax, QWORD PTR -40[rbp]
	mov	rdx, rax
	mov	rsi, rcx
	mov	rdi, rbx
	call	_ZNSt12_Vector_baseIiSaIiEEC2EmRKS0_
.LEHE7:
	mov	rdx, QWORD PTR -32[rbp]
	mov	rax, QWORD PTR -24[rbp]
	mov	rsi, rdx
	mov	rdi, rax
.LEHB8:
	call	_ZNSt6vectorIiSaIiEE21_M_default_initializeEm
.LEHE8:
	jmp	.L51
.L50:
	endbr64
	mov	rbx, rax
	mov	rax, QWORD PTR -24[rbp]
	mov	rdi, rax
	call	_ZNSt12_Vector_baseIiSaIiEED2Ev
	mov	rax, rbx
	mov	rdi, rax
.LEHB9:
	call	_Unwind_Resume@PLT
.LEHE9:
.L51:
	mov	rbx, QWORD PTR -8[rbp]
	leave
	.cfi_def_cfa 7, 8
	ret
	.cfi_endproc
.LFE10402:
	.section	.gcc_except_table
.LLSDA10402:
	.byte	0xff
	.byte	0xff
	.byte	0x1
	.uleb128 .LLSDACSE10402-.LLSDACSB10402
.LLSDACSB10402:
	.uleb128 .LEHB7-.LFB10402
	.uleb128 .LEHE7-.LEHB7
	.uleb128 0
	.uleb128 0
	.uleb128 .LEHB8-.LFB10402
	.uleb128 .LEHE8-.LEHB8
	.uleb128 .L50-.LFB10402
	.uleb128 0
	.uleb128 .LEHB9-.LFB10402
	.uleb128 .LEHE9-.LEHB9
	.uleb128 0
	.uleb128 0
.LLSDACSE10402:
	.section	.text._ZNSt6vectorIiSaIiEEC2EmRKS0_,"axG",@progbits,_ZNSt6vectorIiSaIiEEC5EmRKS0_,comdat
	.size	_ZNSt6vectorIiSaIiEEC2EmRKS0_, .-_ZNSt6vectorIiSaIiEEC2EmRKS0_
	.weak	_ZNSt6vectorIiSaIiEEC1EmRKS0_
	.set	_ZNSt6vectorIiSaIiEEC1EmRKS0_,_ZNSt6vectorIiSaIiEEC2EmRKS0_
	.section	.text._ZNSt6vectorIiSaIiEED2Ev,"axG",@progbits,_ZNSt6vectorIiSaIiEED5Ev,comdat
	.align 2
	.weak	_ZNSt6vectorIiSaIiEED2Ev
	.type	_ZNSt6vectorIiSaIiEED2Ev, @function
_ZNSt6vectorIiSaIiEED2Ev:
.LFB10405:
	.cfi_startproc
	.cfi_personality 0x9b,DW.ref.__gxx_personality_v0
	.cfi_lsda 0x1b,.LLSDA10405
	endbr64
	push	rbp
	.cfi_def_cfa_offset 16
	.cfi_offset 6, -16
	mov	rbp, rsp
	.cfi_def_cfa_register 6
	sub	rsp, 16
	mov	QWORD PTR -8[rbp], rdi
	mov	rax, QWORD PTR -8[rbp]
	mov	rdi, rax
	call	_ZNSt12_Vector_baseIiSaIiEE19_M_get_Tp_allocatorEv
	mov	rdx, rax
	mov	rax, QWORD PTR -8[rbp]
	mov	rcx, QWORD PTR 8[rax]
	mov	rax, QWORD PTR -8[rbp]
	mov	rax, QWORD PTR [rax]
	mov	rsi, rcx
	mov	rdi, rax
	call	_ZSt8_DestroyIPiiEvT_S1_RSaIT0_E
	mov	rax, QWORD PTR -8[rbp]
	mov	rdi, rax
	call	_ZNSt12_Vector_baseIiSaIiEED2Ev
	nop
	leave
	.cfi_def_cfa 7, 8
	ret
	.cfi_endproc
.LFE10405:
	.section	.gcc_except_table
.LLSDA10405:
	.byte	0xff
	.byte	0xff
	.byte	0x1
	.uleb128 .LLSDACSE10405-.LLSDACSB10405
.LLSDACSB10405:
.LLSDACSE10405:
	.section	.text._ZNSt6vectorIiSaIiEED2Ev,"axG",@progbits,_ZNSt6vectorIiSaIiEED5Ev,comdat
	.size	_ZNSt6vectorIiSaIiEED2Ev, .-_ZNSt6vectorIiSaIiEED2Ev
	.weak	_ZNSt6vectorIiSaIiEED1Ev
	.set	_ZNSt6vectorIiSaIiEED1Ev,_ZNSt6vectorIiSaIiEED2Ev
	.section	.text._ZNSt6vectorIiSaIiEEixEm,"axG",@progbits,_ZNSt6vectorIiSaIiEEixEm,comdat
	.align 2
	.weak	_ZNSt6vectorIiSaIiEEixEm
	.type	_ZNSt6vectorIiSaIiEEixEm, @function
_ZNSt6vectorIiSaIiEEixEm:
.LFB10407:
	.cfi_startproc
	endbr64
	push	rbp
	.cfi_def_cfa_offset 16
	.cfi_offset 6, -16
	mov	rbp, rsp
	.cfi_def_cfa_register 6
	mov	QWORD PTR -8[rbp], rdi
	mov	QWORD PTR -16[rbp], rsi
	mov	rax, QWORD PTR -8[rbp]
	mov	rdx, QWORD PTR [rax]
	mov	rax, QWORD PTR -16[rbp]
	sal	rax, 2
	add	rax, rdx
	pop	rbp
	.cfi_def_cfa 7, 8
	ret
	.cfi_endproc
.LFE10407:
	.size	_ZNSt6vectorIiSaIiEEixEm, .-_ZNSt6vectorIiSaIiEEixEm
	.section	.text._ZNSt6vectorIiSaIiEEC2EmRKiRKS0_,"axG",@progbits,_ZNSt6vectorIiSaIiEEC5EmRKiRKS0_,comdat
	.align 2
	.weak	_ZNSt6vectorIiSaIiEEC2EmRKiRKS0_
	.type	_ZNSt6vectorIiSaIiEEC2EmRKiRKS0_, @function
_ZNSt6vectorIiSaIiEEC2EmRKiRKS0_:
.LFB10409:
	.cfi_startproc
	.cfi_personality 0x9b,DW.ref.__gxx_personality_v0
	.cfi_lsda 0x1b,.LLSDA10409
	endbr64
	push	rbp
	.cfi_def_cfa_offset 16
	.cfi_offset 6, -16
	mov	rbp, rsp
	.cfi_def_cfa_register 6
	push	rbx
	sub	rsp, 40
	.cfi_offset 3, -24
	mov	QWORD PTR -24[rbp], rdi
	mov	QWORD PTR -32[rbp], rsi
	mov	QWORD PTR -40[rbp], rdx
	mov	QWORD PTR -48[rbp], rcx
	mov	rbx, QWORD PTR -24[rbp]
	mov	rdx, QWORD PTR -48[rbp]
	mov	rax, QWORD PTR -32[rbp]
	mov	rsi, rdx
	mov	rdi, rax
.LEHB10:
	call	_ZNSt6vectorIiSaIiEE17_S_check_init_lenEmRKS0_
	mov	rcx, rax
	mov	rax, QWORD PTR -48[rbp]
	mov	rdx, rax
	mov	rsi, rcx
	mov	rdi, rbx
	call	_ZNSt12_Vector_baseIiSaIiEEC2EmRKS0_
.LEHE10:
	mov	rdx, QWORD PTR -40[rbp]
	mov	rcx, QWORD PTR -32[rbp]
	mov	rax, QWORD PTR -24[rbp]
	mov	rsi, rcx
	mov	rdi, rax
.LEHB11:
	call	_ZNSt6vectorIiSaIiEE18_M_fill_initializeEmRKi
.LEHE11:
	jmp	.L58
.L57:
	endbr64
	mov	rbx, rax
	mov	rax, QWORD PTR -24[rbp]
	mov	rdi, rax
	call	_ZNSt12_Vector_baseIiSaIiEED2Ev
	mov	rax, rbx
	mov	rdi, rax
.LEHB12:
	call	_Unwind_Resume@PLT
.LEHE12:
.L58:
	mov	rbx, QWORD PTR -8[rbp]
	leave
	.cfi_def_cfa 7, 8
	ret
	.cfi_endproc
.LFE10409:
	.section	.gcc_except_table
.LLSDA10409:
	.byte	0xff
	.byte	0xff
	.byte	0x1
	.uleb128 .LLSDACSE10409-.LLSDACSB10409
.LLSDACSB10409:
	.uleb128 .LEHB10-.LFB10409
	.uleb128 .LEHE10-.LEHB10
	.uleb128 0
	.uleb128 0
	.uleb128 .LEHB11-.LFB10409
	.uleb128 .LEHE11-.LEHB11
	.uleb128 .L57-.LFB10409
	.uleb128 0
	.uleb128 .LEHB12-.LFB10409
	.uleb128 .LEHE12-.LEHB12
	.uleb128 0
	.uleb128 0
.LLSDACSE10409:
	.section	.text._ZNSt6vectorIiSaIiEEC2EmRKiRKS0_,"axG",@progbits,_ZNSt6vectorIiSaIiEEC5EmRKiRKS0_,comdat
	.size	_ZNSt6vectorIiSaIiEEC2EmRKiRKS0_, .-_ZNSt6vectorIiSaIiEEC2EmRKiRKS0_
	.weak	_ZNSt6vectorIiSaIiEEC1EmRKiRKS0_
	.set	_ZNSt6vectorIiSaIiEEC1EmRKiRKS0_,_ZNSt6vectorIiSaIiEEC2EmRKiRKS0_
	.section	.text._ZNSaISt6vectorIiSaIiEEEC2Ev,"axG",@progbits,_ZNSaISt6vectorIiSaIiEEEC5Ev,comdat
	.align 2
	.weak	_ZNSaISt6vectorIiSaIiEEEC2Ev
	.type	_ZNSaISt6vectorIiSaIiEEEC2Ev, @function
_ZNSaISt6vectorIiSaIiEEEC2Ev:
.LFB10412:
	.cfi_startproc
	endbr64
	push	rbp
	.cfi_def_cfa_offset 16
	.cfi_offset 6, -16
	mov	rbp, rsp
	.cfi_def_cfa_register 6
	sub	rsp, 16
	mov	QWORD PTR -8[rbp], rdi
	mov	rax, QWORD PTR -8[rbp]
	mov	rdi, rax
	call	_ZN9__gnu_cxx13new_allocatorISt6vectorIiSaIiEEEC2Ev
	nop
	leave
	.cfi_def_cfa 7, 8
	ret
	.cfi_endproc
.LFE10412:
	.size	_ZNSaISt6vectorIiSaIiEEEC2Ev, .-_ZNSaISt6vectorIiSaIiEEEC2Ev
	.weak	_ZNSaISt6vectorIiSaIiEEEC1Ev
	.set	_ZNSaISt6vectorIiSaIiEEEC1Ev,_ZNSaISt6vectorIiSaIiEEEC2Ev
	.section	.text._ZNSaISt6vectorIiSaIiEEED2Ev,"axG",@progbits,_ZNSaISt6vectorIiSaIiEEED5Ev,comdat
	.align 2
	.weak	_ZNSaISt6vectorIiSaIiEEED2Ev
	.type	_ZNSaISt6vectorIiSaIiEEED2Ev, @function
_ZNSaISt6vectorIiSaIiEEED2Ev:
.LFB10415:
	.cfi_startproc
	endbr64
	push	rbp
	.cfi_def_cfa_offset 16
	.cfi_offset 6, -16
	mov	rbp, rsp
	.cfi_def_cfa_register 6
	sub	rsp, 16
	mov	QWORD PTR -8[rbp], rdi
	mov	rax, QWORD PTR -8[rbp]
	mov	rdi, rax
	call	_ZN9__gnu_cxx13new_allocatorISt6vectorIiSaIiEEED2Ev
	nop
	leave
	.cfi_def_cfa 7, 8
	ret
	.cfi_endproc
.LFE10415:
	.size	_ZNSaISt6vectorIiSaIiEEED2Ev, .-_ZNSaISt6vectorIiSaIiEEED2Ev
	.weak	_ZNSaISt6vectorIiSaIiEEED1Ev
	.set	_ZNSaISt6vectorIiSaIiEEED1Ev,_ZNSaISt6vectorIiSaIiEEED2Ev
	.section	.text._ZNSt6vectorIS_IiSaIiEESaIS1_EEC2EmRKS1_RKS2_,"axG",@progbits,_ZNSt6vectorIS_IiSaIiEESaIS1_EEC5EmRKS1_RKS2_,comdat
	.align 2
	.weak	_ZNSt6vectorIS_IiSaIiEESaIS1_EEC2EmRKS1_RKS2_
	.type	_ZNSt6vectorIS_IiSaIiEESaIS1_EEC2EmRKS1_RKS2_, @function
_ZNSt6vectorIS_IiSaIiEESaIS1_EEC2EmRKS1_RKS2_:
.LFB10418:
	.cfi_startproc
	.cfi_personality 0x9b,DW.ref.__gxx_personality_v0
	.cfi_lsda 0x1b,.LLSDA10418
	endbr64
	push	rbp
	.cfi_def_cfa_offset 16
	.cfi_offset 6, -16
	mov	rbp, rsp
	.cfi_def_cfa_register 6
	push	rbx
	sub	rsp, 40
	.cfi_offset 3, -24
	mov	QWORD PTR -24[rbp], rdi
	mov	QWORD PTR -32[rbp], rsi
	mov	QWORD PTR -40[rbp], rdx
	mov	QWORD PTR -48[rbp], rcx
	mov	rbx, QWORD PTR -24[rbp]
	mov	rdx, QWORD PTR -48[rbp]
	mov	rax, QWORD PTR -32[rbp]
	mov	rsi, rdx
	mov	rdi, rax
.LEHB13:
	call	_ZNSt6vectorIS_IiSaIiEESaIS1_EE17_S_check_init_lenEmRKS2_
	mov	rcx, rax
	mov	rax, QWORD PTR -48[rbp]
	mov	rdx, rax
	mov	rsi, rcx
	mov	rdi, rbx
	call	_ZNSt12_Vector_baseISt6vectorIiSaIiEESaIS2_EEC2EmRKS3_
.LEHE13:
	mov	rdx, QWORD PTR -40[rbp]
	mov	rcx, QWORD PTR -32[rbp]
	mov	rax, QWORD PTR -24[rbp]
	mov	rsi, rcx
	mov	rdi, rax
.LEHB14:
	call	_ZNSt6vectorIS_IiSaIiEESaIS1_EE18_M_fill_initializeEmRKS1_
.LEHE14:
	jmp	.L64
.L63:
	endbr64
	mov	rbx, rax
	mov	rax, QWORD PTR -24[rbp]
	mov	rdi, rax
	call	_ZNSt12_Vector_baseISt6vectorIiSaIiEESaIS2_EED2Ev
	mov	rax, rbx
	mov	rdi, rax
.LEHB15:
	call	_Unwind_Resume@PLT
.LEHE15:
.L64:
	mov	rbx, QWORD PTR -8[rbp]
	leave
	.cfi_def_cfa 7, 8
	ret
	.cfi_endproc
.LFE10418:
	.section	.gcc_except_table
.LLSDA10418:
	.byte	0xff
	.byte	0xff
	.byte	0x1
	.uleb128 .LLSDACSE10418-.LLSDACSB10418
.LLSDACSB10418:
	.uleb128 .LEHB13-.LFB10418
	.uleb128 .LEHE13-.LEHB13
	.uleb128 0
	.uleb128 0
	.uleb128 .LEHB14-.LFB10418
	.uleb128 .LEHE14-.LEHB14
	.uleb128 .L63-.LFB10418
	.uleb128 0
	.uleb128 .LEHB15-.LFB10418
	.uleb128 .LEHE15-.LEHB15
	.uleb128 0
	.uleb128 0
.LLSDACSE10418:
	.section	.text._ZNSt6vectorIS_IiSaIiEESaIS1_EEC2EmRKS1_RKS2_,"axG",@progbits,_ZNSt6vectorIS_IiSaIiEESaIS1_EEC5EmRKS1_RKS2_,comdat
	.size	_ZNSt6vectorIS_IiSaIiEESaIS1_EEC2EmRKS1_RKS2_, .-_ZNSt6vectorIS_IiSaIiEESaIS1_EEC2EmRKS1_RKS2_
	.weak	_ZNSt6vectorIS_IiSaIiEESaIS1_EEC1EmRKS1_RKS2_
	.set	_ZNSt6vectorIS_IiSaIiEESaIS1_EEC1EmRKS1_RKS2_,_ZNSt6vectorIS_IiSaIiEESaIS1_EEC2EmRKS1_RKS2_
	.section	.text._ZNSt6vectorIS_IiSaIiEESaIS1_EED2Ev,"axG",@progbits,_ZNSt6vectorIS_IiSaIiEESaIS1_EED5Ev,comdat
	.align 2
	.weak	_ZNSt6vectorIS_IiSaIiEESaIS1_EED2Ev
	.type	_ZNSt6vectorIS_IiSaIiEESaIS1_EED2Ev, @function
_ZNSt6vectorIS_IiSaIiEESaIS1_EED2Ev:
.LFB10421:
	.cfi_startproc
	.cfi_personality 0x9b,DW.ref.__gxx_personality_v0
	.cfi_lsda 0x1b,.LLSDA10421
	endbr64
	push	rbp
	.cfi_def_cfa_offset 16
	.cfi_offset 6, -16
	mov	rbp, rsp
	.cfi_def_cfa_register 6
	sub	rsp, 16
	mov	QWORD PTR -8[rbp], rdi
	mov	rax, QWORD PTR -8[rbp]
	mov	rdi, rax
	call	_ZNSt12_Vector_baseISt6vectorIiSaIiEESaIS2_EE19_M_get_Tp_allocatorEv
	mov	rdx, rax
	mov	rax, QWORD PTR -8[rbp]
	mov	rcx, QWORD PTR 8[rax]
	mov	rax, QWORD PTR -8[rbp]
	mov	rax, QWORD PTR [rax]
	mov	rsi, rcx
	mov	rdi, rax
	call	_ZSt8_DestroyIPSt6vectorIiSaIiEES2_EvT_S4_RSaIT0_E
	mov	rax, QWORD PTR -8[rbp]
	mov	rdi, rax
	call	_ZNSt12_Vector_baseISt6vectorIiSaIiEESaIS2_EED2Ev
	nop
	leave
	.cfi_def_cfa 7, 8
	ret
	.cfi_endproc
.LFE10421:
	.section	.gcc_except_table
.LLSDA10421:
	.byte	0xff
	.byte	0xff
	.byte	0x1
	.uleb128 .LLSDACSE10421-.LLSDACSB10421
.LLSDACSB10421:
.LLSDACSE10421:
	.section	.text._ZNSt6vectorIS_IiSaIiEESaIS1_EED2Ev,"axG",@progbits,_ZNSt6vectorIS_IiSaIiEESaIS1_EED5Ev,comdat
	.size	_ZNSt6vectorIS_IiSaIiEESaIS1_EED2Ev, .-_ZNSt6vectorIS_IiSaIiEESaIS1_EED2Ev
	.weak	_ZNSt6vectorIS_IiSaIiEESaIS1_EED1Ev
	.set	_ZNSt6vectorIS_IiSaIiEESaIS1_EED1Ev,_ZNSt6vectorIS_IiSaIiEESaIS1_EED2Ev
	.section	.text._ZNSt6vectorIS_IiSaIiEESaIS1_EEixEm,"axG",@progbits,_ZNSt6vectorIS_IiSaIiEESaIS1_EEixEm,comdat
	.align 2
	.weak	_ZNSt6vectorIS_IiSaIiEESaIS1_EEixEm
	.type	_ZNSt6vectorIS_IiSaIiEESaIS1_EEixEm, @function
_ZNSt6vectorIS_IiSaIiEESaIS1_EEixEm:
.LFB10423:
	.cfi_startproc
	endbr64
	push	rbp
	.cfi_def_cfa_offset 16
	.cfi_offset 6, -16
	mov	rbp, rsp
	.cfi_def_cfa_register 6
	mov	QWORD PTR -8[rbp], rdi
	mov	QWORD PTR -16[rbp], rsi
	mov	rax, QWORD PTR -8[rbp]
	mov	rcx, QWORD PTR [rax]
	mov	rdx, QWORD PTR -16[rbp]
	mov	rax, rdx
	add	rax, rax
	add	rax, rdx
	sal	rax, 3
	add	rax, rcx
	pop	rbp
	.cfi_def_cfa 7, 8
	ret
	.cfi_endproc
.LFE10423:
	.size	_ZNSt6vectorIS_IiSaIiEESaIS1_EEixEm, .-_ZNSt6vectorIS_IiSaIiEESaIS1_EEixEm
	.section	.text._ZNKSt16initializer_listIiE4sizeEv,"axG",@progbits,_ZNKSt16initializer_listIiE4sizeEv,comdat
	.align 2
	.weak	_ZNKSt16initializer_listIiE4sizeEv
	.type	_ZNKSt16initializer_listIiE4sizeEv, @function
_ZNKSt16initializer_listIiE4sizeEv:
.LFB10424:
	.cfi_startproc
	endbr64
	push	rbp
	.cfi_def_cfa_offset 16
	.cfi_offset 6, -16
	mov	rbp, rsp
	.cfi_def_cfa_register 6
	mov	QWORD PTR -8[rbp], rdi
	mov	rax, QWORD PTR -8[rbp]
	mov	rax, QWORD PTR 8[rax]
	pop	rbp
	.cfi_def_cfa 7, 8
	ret
	.cfi_endproc
.LFE10424:
	.size	_ZNKSt16initializer_listIiE4sizeEv, .-_ZNKSt16initializer_listIiE4sizeEv
	.section	.text._ZN9__gnu_cxx13new_allocatorIiEC2Ev,"axG",@progbits,_ZN9__gnu_cxx13new_allocatorIiEC5Ev,comdat
	.align 2
	.weak	_ZN9__gnu_cxx13new_allocatorIiEC2Ev
	.type	_ZN9__gnu_cxx13new_allocatorIiEC2Ev, @function
_ZN9__gnu_cxx13new_allocatorIiEC2Ev:
.LFB10817:
	.cfi_startproc
	endbr64
	push	rbp
	.cfi_def_cfa_offset 16
	.cfi_offset 6, -16
	mov	rbp, rsp
	.cfi_def_cfa_register 6
	mov	QWORD PTR -8[rbp], rdi
	nop
	pop	rbp
	.cfi_def_cfa 7, 8
	ret
	.cfi_endproc
.LFE10817:
	.size	_ZN9__gnu_cxx13new_allocatorIiEC2Ev, .-_ZN9__gnu_cxx13new_allocatorIiEC2Ev
	.weak	_ZN9__gnu_cxx13new_allocatorIiEC1Ev
	.set	_ZN9__gnu_cxx13new_allocatorIiEC1Ev,_ZN9__gnu_cxx13new_allocatorIiEC2Ev
	.section	.text._ZN9__gnu_cxx13new_allocatorIiED2Ev,"axG",@progbits,_ZN9__gnu_cxx13new_allocatorIiED5Ev,comdat
	.align 2
	.weak	_ZN9__gnu_cxx13new_allocatorIiED2Ev
	.type	_ZN9__gnu_cxx13new_allocatorIiED2Ev, @function
_ZN9__gnu_cxx13new_allocatorIiED2Ev:
.LFB10820:
	.cfi_startproc
	endbr64
	push	rbp
	.cfi_def_cfa_offset 16
	.cfi_offset 6, -16
	mov	rbp, rsp
	.cfi_def_cfa_register 6
	mov	QWORD PTR -8[rbp], rdi
	nop
	pop	rbp
	.cfi_def_cfa 7, 8
	ret
	.cfi_endproc
.LFE10820:
	.size	_ZN9__gnu_cxx13new_allocatorIiED2Ev, .-_ZN9__gnu_cxx13new_allocatorIiED2Ev
	.weak	_ZN9__gnu_cxx13new_allocatorIiED1Ev
	.set	_ZN9__gnu_cxx13new_allocatorIiED1Ev,_ZN9__gnu_cxx13new_allocatorIiED2Ev
	.section	.rodata
	.align 8
.LC0:
	.string	"cannot create std::vector larger than max_size()"
	.section	.text._ZNSt6vectorIiSaIiEE17_S_check_init_lenEmRKS0_,"axG",@progbits,_ZNSt6vectorIiSaIiEE17_S_check_init_lenEmRKS0_,comdat
	.weak	_ZNSt6vectorIiSaIiEE17_S_check_init_lenEmRKS0_
	.type	_ZNSt6vectorIiSaIiEE17_S_check_init_lenEmRKS0_, @function
_ZNSt6vectorIiSaIiEE17_S_check_init_lenEmRKS0_:
.LFB10822:
	.cfi_startproc
	endbr64
	push	rbp
	.cfi_def_cfa_offset 16
	.cfi_offset 6, -16
	mov	rbp, rsp
	.cfi_def_cfa_register 6
	push	rbx
	sub	rsp, 40
	.cfi_offset 3, -24
	mov	QWORD PTR -40[rbp], rdi
	mov	QWORD PTR -48[rbp], rsi
	mov	rax, QWORD PTR fs:40
	mov	QWORD PTR -24[rbp], rax
	xor	eax, eax
	mov	rdx, QWORD PTR -48[rbp]
	lea	rax, -25[rbp]
	mov	rsi, rdx
	mov	rdi, rax
	call	_ZNSaIiEC1ERKS_
	lea	rax, -25[rbp]
	mov	rdi, rax
	call	_ZNSt6vectorIiSaIiEE11_S_max_sizeERKS0_
	cmp	QWORD PTR -40[rbp], rax
	seta	bl
	lea	rax, -25[rbp]
	mov	rdi, rax
	call	_ZNSaIiED1Ev
	test	bl, bl
	je	.L73
	lea	rax, .LC0[rip]
	mov	rdi, rax
	call	_ZSt20__throw_length_errorPKc@PLT
.L73:
	mov	rax, QWORD PTR -40[rbp]
	mov	rdx, QWORD PTR -24[rbp]
	sub	rdx, QWORD PTR fs:40
	je	.L75
	call	__stack_chk_fail@PLT
.L75:
	mov	rbx, QWORD PTR -8[rbp]
	leave
	.cfi_def_cfa 7, 8
	ret
	.cfi_endproc
.LFE10822:
	.size	_ZNSt6vectorIiSaIiEE17_S_check_init_lenEmRKS0_, .-_ZNSt6vectorIiSaIiEE17_S_check_init_lenEmRKS0_
	.section	.text._ZNSt12_Vector_baseIiSaIiEE12_Vector_implD2Ev,"axG",@progbits,_ZNSt12_Vector_baseIiSaIiEE12_Vector_implD5Ev,comdat
	.align 2
	.weak	_ZNSt12_Vector_baseIiSaIiEE12_Vector_implD2Ev
	.type	_ZNSt12_Vector_baseIiSaIiEE12_Vector_implD2Ev, @function
_ZNSt12_Vector_baseIiSaIiEE12_Vector_implD2Ev:
.LFB10825:
	.cfi_startproc
	endbr64
	push	rbp
	.cfi_def_cfa_offset 16
	.cfi_offset 6, -16
	mov	rbp, rsp
	.cfi_def_cfa_register 6
	sub	rsp, 16
	mov	QWORD PTR -8[rbp], rdi
	mov	rax, QWORD PTR -8[rbp]
	mov	rdi, rax
	call	_ZNSaIiED2Ev
	nop
	leave
	.cfi_def_cfa 7, 8
	ret
	.cfi_endproc
.LFE10825:
	.size	_ZNSt12_Vector_baseIiSaIiEE12_Vector_implD2Ev, .-_ZNSt12_Vector_baseIiSaIiEE12_Vector_implD2Ev
	.weak	_ZNSt12_Vector_baseIiSaIiEE12_Vector_implD1Ev
	.set	_ZNSt12_Vector_baseIiSaIiEE12_Vector_implD1Ev,_ZNSt12_Vector_baseIiSaIiEE12_Vector_implD2Ev
	.section	.text._ZNSt12_Vector_baseIiSaIiEEC2EmRKS0_,"axG",@progbits,_ZNSt12_Vector_baseIiSaIiEEC5EmRKS0_,comdat
	.align 2
	.weak	_ZNSt12_Vector_baseIiSaIiEEC2EmRKS0_
	.type	_ZNSt12_Vector_baseIiSaIiEEC2EmRKS0_, @function
_ZNSt12_Vector_baseIiSaIiEEC2EmRKS0_:
.LFB10827:
	.cfi_startproc
	.cfi_personality 0x9b,DW.ref.__gxx_personality_v0
	.cfi_lsda 0x1b,.LLSDA10827
	endbr64
	push	rbp
	.cfi_def_cfa_offset 16
	.cfi_offset 6, -16
	mov	rbp, rsp
	.cfi_def_cfa_register 6
	push	rbx
	sub	rsp, 40
	.cfi_offset 3, -24
	mov	QWORD PTR -24[rbp], rdi
	mov	QWORD PTR -32[rbp], rsi
	mov	QWORD PTR -40[rbp], rdx
	mov	rax, QWORD PTR -24[rbp]
	mov	rdx, QWORD PTR -40[rbp]
	mov	rsi, rdx
	mov	rdi, rax
	call	_ZNSt12_Vector_baseIiSaIiEE12_Vector_implC1ERKS0_
	mov	rdx, QWORD PTR -32[rbp]
	mov	rax, QWORD PTR -24[rbp]
	mov	rsi, rdx
	mov	rdi, rax
.LEHB16:
	call	_ZNSt12_Vector_baseIiSaIiEE17_M_create_storageEm
.LEHE16:
	jmp	.L80
.L79:
	endbr64
	mov	rbx, rax
	mov	rax, QWORD PTR -24[rbp]
	mov	rdi, rax
	call	_ZNSt12_Vector_baseIiSaIiEE12_Vector_implD1Ev
	mov	rax, rbx
	mov	rdi, rax
.LEHB17:
	call	_Unwind_Resume@PLT
.LEHE17:
.L80:
	mov	rbx, QWORD PTR -8[rbp]
	leave
	.cfi_def_cfa 7, 8
	ret
	.cfi_endproc
.LFE10827:
	.section	.gcc_except_table
.LLSDA10827:
	.byte	0xff
	.byte	0xff
	.byte	0x1
	.uleb128 .LLSDACSE10827-.LLSDACSB10827
.LLSDACSB10827:
	.uleb128 .LEHB16-.LFB10827
	.uleb128 .LEHE16-.LEHB16
	.uleb128 .L79-.LFB10827
	.uleb128 0
	.uleb128 .LEHB17-.LFB10827
	.uleb128 .LEHE17-.LEHB17
	.uleb128 0
	.uleb128 0
.LLSDACSE10827:
	.section	.text._ZNSt12_Vector_baseIiSaIiEEC2EmRKS0_,"axG",@progbits,_ZNSt12_Vector_baseIiSaIiEEC5EmRKS0_,comdat
	.size	_ZNSt12_Vector_baseIiSaIiEEC2EmRKS0_, .-_ZNSt12_Vector_baseIiSaIiEEC2EmRKS0_
	.weak	_ZNSt12_Vector_baseIiSaIiEEC1EmRKS0_
	.set	_ZNSt12_Vector_baseIiSaIiEEC1EmRKS0_,_ZNSt12_Vector_baseIiSaIiEEC2EmRKS0_
	.section	.text._ZNSt12_Vector_baseIiSaIiEED2Ev,"axG",@progbits,_ZNSt12_Vector_baseIiSaIiEED5Ev,comdat
	.align 2
	.weak	_ZNSt12_Vector_baseIiSaIiEED2Ev
	.type	_ZNSt12_Vector_baseIiSaIiEED2Ev, @function
_ZNSt12_Vector_baseIiSaIiEED2Ev:
.LFB10830:
	.cfi_startproc
	.cfi_personality 0x9b,DW.ref.__gxx_personality_v0
	.cfi_lsda 0x1b,.LLSDA10830
	endbr64
	push	rbp
	.cfi_def_cfa_offset 16
	.cfi_offset 6, -16
	mov	rbp, rsp
	.cfi_def_cfa_register 6
	sub	rsp, 16
	mov	QWORD PTR -8[rbp], rdi
	mov	rax, QWORD PTR -8[rbp]
	mov	rdx, QWORD PTR 16[rax]
	mov	rax, QWORD PTR -8[rbp]
	mov	rcx, QWORD PTR [rax]
	mov	rax, rdx
	sub	rax, rcx
	sar	rax, 2
	mov	rdx, rax
	mov	rax, QWORD PTR -8[rbp]
	mov	rcx, QWORD PTR [rax]
	mov	rax, QWORD PTR -8[rbp]
	mov	rsi, rcx
	mov	rdi, rax
	call	_ZNSt12_Vector_baseIiSaIiEE13_M_deallocateEPim
	mov	rax, QWORD PTR -8[rbp]
	mov	rdi, rax
	call	_ZNSt12_Vector_baseIiSaIiEE12_Vector_implD1Ev
	nop
	leave
	.cfi_def_cfa 7, 8
	ret
	.cfi_endproc
.LFE10830:
	.section	.gcc_except_table
.LLSDA10830:
	.byte	0xff
	.byte	0xff
	.byte	0x1
	.uleb128 .LLSDACSE10830-.LLSDACSB10830
.LLSDACSB10830:
.LLSDACSE10830:
	.section	.text._ZNSt12_Vector_baseIiSaIiEED2Ev,"axG",@progbits,_ZNSt12_Vector_baseIiSaIiEED5Ev,comdat
	.size	_ZNSt12_Vector_baseIiSaIiEED2Ev, .-_ZNSt12_Vector_baseIiSaIiEED2Ev
	.weak	_ZNSt12_Vector_baseIiSaIiEED1Ev
	.set	_ZNSt12_Vector_baseIiSaIiEED1Ev,_ZNSt12_Vector_baseIiSaIiEED2Ev
	.section	.text._ZNSt6vectorIiSaIiEE21_M_default_initializeEm,"axG",@progbits,_ZNSt6vectorIiSaIiEE21_M_default_initializeEm,comdat
	.align 2
	.weak	_ZNSt6vectorIiSaIiEE21_M_default_initializeEm
	.type	_ZNSt6vectorIiSaIiEE21_M_default_initializeEm, @function
_ZNSt6vectorIiSaIiEE21_M_default_initializeEm:
.LFB10832:
	.cfi_startproc
	endbr64
	push	rbp
	.cfi_def_cfa_offset 16
	.cfi_offset 6, -16
	mov	rbp, rsp
	.cfi_def_cfa_register 6
	sub	rsp, 16
	mov	QWORD PTR -8[rbp], rdi
	mov	QWORD PTR -16[rbp], rsi
	mov	rax, QWORD PTR -8[rbp]
	mov	rdi, rax
	call	_ZNSt12_Vector_baseIiSaIiEE19_M_get_Tp_allocatorEv
	mov	rdx, rax
	mov	rax, QWORD PTR -8[rbp]
	mov	rax, QWORD PTR [rax]
	mov	rcx, QWORD PTR -16[rbp]
	mov	rsi, rcx
	mov	rdi, rax
	call	_ZSt27__uninitialized_default_n_aIPimiET_S1_T0_RSaIT1_E
	mov	rdx, QWORD PTR -8[rbp]
	mov	QWORD PTR 8[rdx], rax
	nop
	leave
	.cfi_def_cfa 7, 8
	ret
	.cfi_endproc
.LFE10832:
	.size	_ZNSt6vectorIiSaIiEE21_M_default_initializeEm, .-_ZNSt6vectorIiSaIiEE21_M_default_initializeEm
	.section	.text._ZNSt12_Vector_baseIiSaIiEE19_M_get_Tp_allocatorEv,"axG",@progbits,_ZNSt12_Vector_baseIiSaIiEE19_M_get_Tp_allocatorEv,comdat
	.align 2
	.weak	_ZNSt12_Vector_baseIiSaIiEE19_M_get_Tp_allocatorEv
	.type	_ZNSt12_Vector_baseIiSaIiEE19_M_get_Tp_allocatorEv, @function
_ZNSt12_Vector_baseIiSaIiEE19_M_get_Tp_allocatorEv:
.LFB10833:
	.cfi_startproc
	endbr64
	push	rbp
	.cfi_def_cfa_offset 16
	.cfi_offset 6, -16
	mov	rbp, rsp
	.cfi_def_cfa_register 6
	mov	QWORD PTR -8[rbp], rdi
	mov	rax, QWORD PTR -8[rbp]
	pop	rbp
	.cfi_def_cfa 7, 8
	ret
	.cfi_endproc
.LFE10833:
	.size	_ZNSt12_Vector_baseIiSaIiEE19_M_get_Tp_allocatorEv, .-_ZNSt12_Vector_baseIiSaIiEE19_M_get_Tp_allocatorEv
	.section	.text._ZSt8_DestroyIPiiEvT_S1_RSaIT0_E,"axG",@progbits,_ZSt8_DestroyIPiiEvT_S1_RSaIT0_E,comdat
	.weak	_ZSt8_DestroyIPiiEvT_S1_RSaIT0_E
	.type	_ZSt8_DestroyIPiiEvT_S1_RSaIT0_E, @function
_ZSt8_DestroyIPiiEvT_S1_RSaIT0_E:
.LFB10834:
	.cfi_startproc
	endbr64
	push	rbp
	.cfi_def_cfa_offset 16
	.cfi_offset 6, -16
	mov	rbp, rsp
	.cfi_def_cfa_register 6
	sub	rsp, 32
	mov	QWORD PTR -8[rbp], rdi
	mov	QWORD PTR -16[rbp], rsi
	mov	QWORD PTR -24[rbp], rdx
	mov	rdx, QWORD PTR -16[rbp]
	mov	rax, QWORD PTR -8[rbp]
	mov	rsi, rdx
	mov	rdi, rax
	call	_ZSt8_DestroyIPiEvT_S1_
	nop
	leave
	.cfi_def_cfa 7, 8
	ret
	.cfi_endproc
.LFE10834:
	.size	_ZSt8_DestroyIPiiEvT_S1_RSaIT0_E, .-_ZSt8_DestroyIPiiEvT_S1_RSaIT0_E
	.section	.text._ZNSt6vectorIiSaIiEE18_M_fill_initializeEmRKi,"axG",@progbits,_ZNSt6vectorIiSaIiEE18_M_fill_initializeEmRKi,comdat
	.align 2
	.weak	_ZNSt6vectorIiSaIiEE18_M_fill_initializeEmRKi
	.type	_ZNSt6vectorIiSaIiEE18_M_fill_initializeEmRKi, @function
_ZNSt6vectorIiSaIiEE18_M_fill_initializeEmRKi:
.LFB10835:
	.cfi_startproc
	endbr64
	push	rbp
	.cfi_def_cfa_offset 16
	.cfi_offset 6, -16
	mov	rbp, rsp
	.cfi_def_cfa_register 6
	sub	rsp, 32
	mov	QWORD PTR -8[rbp], rdi
	mov	QWORD PTR -16[rbp], rsi
	mov	QWORD PTR -24[rbp], rdx
	mov	rax, QWORD PTR -8[rbp]
	mov	rdi, rax
	call	_ZNSt12_Vector_baseIiSaIiEE19_M_get_Tp_allocatorEv
	mov	rcx, rax
	mov	rax, QWORD PTR -8[rbp]
	mov	rax, QWORD PTR [rax]
	mov	rdx, QWORD PTR -24[rbp]
	mov	rsi, QWORD PTR -16[rbp]
	mov	rdi, rax
	call	_ZSt24__uninitialized_fill_n_aIPimiiET_S1_T0_RKT1_RSaIT2_E
	mov	rdx, QWORD PTR -8[rbp]
	mov	QWORD PTR 8[rdx], rax
	nop
	leave
	.cfi_def_cfa 7, 8
	ret
	.cfi_endproc
.LFE10835:
	.size	_ZNSt6vectorIiSaIiEE18_M_fill_initializeEmRKi, .-_ZNSt6vectorIiSaIiEE18_M_fill_initializeEmRKi
	.section	.text._ZN9__gnu_cxx13new_allocatorISt6vectorIiSaIiEEEC2Ev,"axG",@progbits,_ZN9__gnu_cxx13new_allocatorISt6vectorIiSaIiEEEC5Ev,comdat
	.align 2
	.weak	_ZN9__gnu_cxx13new_allocatorISt6vectorIiSaIiEEEC2Ev
	.type	_ZN9__gnu_cxx13new_allocatorISt6vectorIiSaIiEEEC2Ev, @function
_ZN9__gnu_cxx13new_allocatorISt6vectorIiSaIiEEEC2Ev:
.LFB10837:
	.cfi_startproc
	endbr64
	push	rbp
	.cfi_def_cfa_offset 16
	.cfi_offset 6, -16
	mov	rbp, rsp
	.cfi_def_cfa_register 6
	mov	QWORD PTR -8[rbp], rdi
	nop
	pop	rbp
	.cfi_def_cfa 7, 8
	ret
	.cfi_endproc
.LFE10837:
	.size	_ZN9__gnu_cxx13new_allocatorISt6vectorIiSaIiEEEC2Ev, .-_ZN9__gnu_cxx13new_allocatorISt6vectorIiSaIiEEEC2Ev
	.weak	_ZN9__gnu_cxx13new_allocatorISt6vectorIiSaIiEEEC1Ev
	.set	_ZN9__gnu_cxx13new_allocatorISt6vectorIiSaIiEEEC1Ev,_ZN9__gnu_cxx13new_allocatorISt6vectorIiSaIiEEEC2Ev
	.section	.text._ZN9__gnu_cxx13new_allocatorISt6vectorIiSaIiEEED2Ev,"axG",@progbits,_ZN9__gnu_cxx13new_allocatorISt6vectorIiSaIiEEED5Ev,comdat
	.align 2
	.weak	_ZN9__gnu_cxx13new_allocatorISt6vectorIiSaIiEEED2Ev
	.type	_ZN9__gnu_cxx13new_allocatorISt6vectorIiSaIiEEED2Ev, @function
_ZN9__gnu_cxx13new_allocatorISt6vectorIiSaIiEEED2Ev:
.LFB10840:
	.cfi_startproc
	endbr64
	push	rbp
	.cfi_def_cfa_offset 16
	.cfi_offset 6, -16
	mov	rbp, rsp
	.cfi_def_cfa_register 6
	mov	QWORD PTR -8[rbp], rdi
	nop
	pop	rbp
	.cfi_def_cfa 7, 8
	ret
	.cfi_endproc
.LFE10840:
	.size	_ZN9__gnu_cxx13new_allocatorISt6vectorIiSaIiEEED2Ev, .-_ZN9__gnu_cxx13new_allocatorISt6vectorIiSaIiEEED2Ev
	.weak	_ZN9__gnu_cxx13new_allocatorISt6vectorIiSaIiEEED1Ev
	.set	_ZN9__gnu_cxx13new_allocatorISt6vectorIiSaIiEEED1Ev,_ZN9__gnu_cxx13new_allocatorISt6vectorIiSaIiEEED2Ev
	.section	.text._ZNSt6vectorIS_IiSaIiEESaIS1_EE17_S_check_init_lenEmRKS2_,"axG",@progbits,_ZNSt6vectorIS_IiSaIiEESaIS1_EE17_S_check_init_lenEmRKS2_,comdat
	.weak	_ZNSt6vectorIS_IiSaIiEESaIS1_EE17_S_check_init_lenEmRKS2_
	.type	_ZNSt6vectorIS_IiSaIiEESaIS1_EE17_S_check_init_lenEmRKS2_, @function
_ZNSt6vectorIS_IiSaIiEESaIS1_EE17_S_check_init_lenEmRKS2_:
.LFB10842:
	.cfi_startproc
	endbr64
	push	rbp
	.cfi_def_cfa_offset 16
	.cfi_offset 6, -16
	mov	rbp, rsp
	.cfi_def_cfa_register 6
	push	rbx
	sub	rsp, 40
	.cfi_offset 3, -24
	mov	QWORD PTR -40[rbp], rdi
	mov	QWORD PTR -48[rbp], rsi
	mov	rax, QWORD PTR fs:40
	mov	QWORD PTR -24[rbp], rax
	xor	eax, eax
	mov	rdx, QWORD PTR -48[rbp]
	lea	rax, -25[rbp]
	mov	rsi, rdx
	mov	rdi, rax
	call	_ZNSaISt6vectorIiSaIiEEEC1ERKS2_
	lea	rax, -25[rbp]
	mov	rdi, rax
	call	_ZNSt6vectorIS_IiSaIiEESaIS1_EE11_S_max_sizeERKS2_
	cmp	QWORD PTR -40[rbp], rax
	seta	bl
	lea	rax, -25[rbp]
	mov	rdi, rax
	call	_ZNSaISt6vectorIiSaIiEEED1Ev
	test	bl, bl
	je	.L90
	lea	rax, .LC0[rip]
	mov	rdi, rax
	call	_ZSt20__throw_length_errorPKc@PLT
.L90:
	mov	rax, QWORD PTR -40[rbp]
	mov	rdx, QWORD PTR -24[rbp]
	sub	rdx, QWORD PTR fs:40
	je	.L92
	call	__stack_chk_fail@PLT
.L92:
	mov	rbx, QWORD PTR -8[rbp]
	leave
	.cfi_def_cfa 7, 8
	ret
	.cfi_endproc
.LFE10842:
	.size	_ZNSt6vectorIS_IiSaIiEESaIS1_EE17_S_check_init_lenEmRKS2_, .-_ZNSt6vectorIS_IiSaIiEESaIS1_EE17_S_check_init_lenEmRKS2_
	.section	.text._ZNSt12_Vector_baseISt6vectorIiSaIiEESaIS2_EE12_Vector_implD2Ev,"axG",@progbits,_ZNSt12_Vector_baseISt6vectorIiSaIiEESaIS2_EE12_Vector_implD5Ev,comdat
	.align 2
	.weak	_ZNSt12_Vector_baseISt6vectorIiSaIiEESaIS2_EE12_Vector_implD2Ev
	.type	_ZNSt12_Vector_baseISt6vectorIiSaIiEESaIS2_EE12_Vector_implD2Ev, @function
_ZNSt12_Vector_baseISt6vectorIiSaIiEESaIS2_EE12_Vector_implD2Ev:
.LFB10845:
	.cfi_startproc
	endbr64
	push	rbp
	.cfi_def_cfa_offset 16
	.cfi_offset 6, -16
	mov	rbp, rsp
	.cfi_def_cfa_register 6
	sub	rsp, 16
	mov	QWORD PTR -8[rbp], rdi
	mov	rax, QWORD PTR -8[rbp]
	mov	rdi, rax
	call	_ZNSaISt6vectorIiSaIiEEED2Ev
	nop
	leave
	.cfi_def_cfa 7, 8
	ret
	.cfi_endproc
.LFE10845:
	.size	_ZNSt12_Vector_baseISt6vectorIiSaIiEESaIS2_EE12_Vector_implD2Ev, .-_ZNSt12_Vector_baseISt6vectorIiSaIiEESaIS2_EE12_Vector_implD2Ev
	.weak	_ZNSt12_Vector_baseISt6vectorIiSaIiEESaIS2_EE12_Vector_implD1Ev
	.set	_ZNSt12_Vector_baseISt6vectorIiSaIiEESaIS2_EE12_Vector_implD1Ev,_ZNSt12_Vector_baseISt6vectorIiSaIiEESaIS2_EE12_Vector_implD2Ev
	.section	.text._ZNSt12_Vector_baseISt6vectorIiSaIiEESaIS2_EEC2EmRKS3_,"axG",@progbits,_ZNSt12_Vector_baseISt6vectorIiSaIiEESaIS2_EEC5EmRKS3_,comdat
	.align 2
	.weak	_ZNSt12_Vector_baseISt6vectorIiSaIiEESaIS2_EEC2EmRKS3_
	.type	_ZNSt12_Vector_baseISt6vectorIiSaIiEESaIS2_EEC2EmRKS3_, @function
_ZNSt12_Vector_baseISt6vectorIiSaIiEESaIS2_EEC2EmRKS3_:
.LFB10847:
	.cfi_startproc
	.cfi_personality 0x9b,DW.ref.__gxx_personality_v0
	.cfi_lsda 0x1b,.LLSDA10847
	endbr64
	push	rbp
	.cfi_def_cfa_offset 16
	.cfi_offset 6, -16
	mov	rbp, rsp
	.cfi_def_cfa_register 6
	push	rbx
	sub	rsp, 40
	.cfi_offset 3, -24
	mov	QWORD PTR -24[rbp], rdi
	mov	QWORD PTR -32[rbp], rsi
	mov	QWORD PTR -40[rbp], rdx
	mov	rax, QWORD PTR -24[rbp]
	mov	rdx, QWORD PTR -40[rbp]
	mov	rsi, rdx
	mov	rdi, rax
	call	_ZNSt12_Vector_baseISt6vectorIiSaIiEESaIS2_EE12_Vector_implC1ERKS3_
	mov	rdx, QWORD PTR -32[rbp]
	mov	rax, QWORD PTR -24[rbp]
	mov	rsi, rdx
	mov	rdi, rax
.LEHB18:
	call	_ZNSt12_Vector_baseISt6vectorIiSaIiEESaIS2_EE17_M_create_storageEm
.LEHE18:
	jmp	.L97
.L96:
	endbr64
	mov	rbx, rax
	mov	rax, QWORD PTR -24[rbp]
	mov	rdi, rax
	call	_ZNSt12_Vector_baseISt6vectorIiSaIiEESaIS2_EE12_Vector_implD1Ev
	mov	rax, rbx
	mov	rdi, rax
.LEHB19:
	call	_Unwind_Resume@PLT
.LEHE19:
.L97:
	mov	rbx, QWORD PTR -8[rbp]
	leave
	.cfi_def_cfa 7, 8
	ret
	.cfi_endproc
.LFE10847:
	.section	.gcc_except_table
.LLSDA10847:
	.byte	0xff
	.byte	0xff
	.byte	0x1
	.uleb128 .LLSDACSE10847-.LLSDACSB10847
.LLSDACSB10847:
	.uleb128 .LEHB18-.LFB10847
	.uleb128 .LEHE18-.LEHB18
	.uleb128 .L96-.LFB10847
	.uleb128 0
	.uleb128 .LEHB19-.LFB10847
	.uleb128 .LEHE19-.LEHB19
	.uleb128 0
	.uleb128 0
.LLSDACSE10847:
	.section	.text._ZNSt12_Vector_baseISt6vectorIiSaIiEESaIS2_EEC2EmRKS3_,"axG",@progbits,_ZNSt12_Vector_baseISt6vectorIiSaIiEESaIS2_EEC5EmRKS3_,comdat
	.size	_ZNSt12_Vector_baseISt6vectorIiSaIiEESaIS2_EEC2EmRKS3_, .-_ZNSt12_Vector_baseISt6vectorIiSaIiEESaIS2_EEC2EmRKS3_
	.weak	_ZNSt12_Vector_baseISt6vectorIiSaIiEESaIS2_EEC1EmRKS3_
	.set	_ZNSt12_Vector_baseISt6vectorIiSaIiEESaIS2_EEC1EmRKS3_,_ZNSt12_Vector_baseISt6vectorIiSaIiEESaIS2_EEC2EmRKS3_
	.section	.text._ZNSt12_Vector_baseISt6vectorIiSaIiEESaIS2_EED2Ev,"axG",@progbits,_ZNSt12_Vector_baseISt6vectorIiSaIiEESaIS2_EED5Ev,comdat
	.align 2
	.weak	_ZNSt12_Vector_baseISt6vectorIiSaIiEESaIS2_EED2Ev
	.type	_ZNSt12_Vector_baseISt6vectorIiSaIiEESaIS2_EED2Ev, @function
_ZNSt12_Vector_baseISt6vectorIiSaIiEESaIS2_EED2Ev:
.LFB10850:
	.cfi_startproc
	.cfi_personality 0x9b,DW.ref.__gxx_personality_v0
	.cfi_lsda 0x1b,.LLSDA10850
	endbr64
	push	rbp
	.cfi_def_cfa_offset 16
	.cfi_offset 6, -16
	mov	rbp, rsp
	.cfi_def_cfa_register 6
	sub	rsp, 16
	mov	QWORD PTR -8[rbp], rdi
	mov	rax, QWORD PTR -8[rbp]
	mov	rdx, QWORD PTR 16[rax]
	mov	rax, QWORD PTR -8[rbp]
	mov	rcx, QWORD PTR [rax]
	mov	rax, rdx
	sub	rax, rcx
	sar	rax, 3
	mov	rdx, rax
	movabs	rax, -6148914691236517205
	imul	rax, rdx
	mov	rdx, rax
	mov	rax, QWORD PTR -8[rbp]
	mov	rcx, QWORD PTR [rax]
	mov	rax, QWORD PTR -8[rbp]
	mov	rsi, rcx
	mov	rdi, rax
	call	_ZNSt12_Vector_baseISt6vectorIiSaIiEESaIS2_EE13_M_deallocateEPS2_m
	mov	rax, QWORD PTR -8[rbp]
	mov	rdi, rax
	call	_ZNSt12_Vector_baseISt6vectorIiSaIiEESaIS2_EE12_Vector_implD1Ev
	nop
	leave
	.cfi_def_cfa 7, 8
	ret
	.cfi_endproc
.LFE10850:
	.section	.gcc_except_table
.LLSDA10850:
	.byte	0xff
	.byte	0xff
	.byte	0x1
	.uleb128 .LLSDACSE10850-.LLSDACSB10850
.LLSDACSB10850:
.LLSDACSE10850:
	.section	.text._ZNSt12_Vector_baseISt6vectorIiSaIiEESaIS2_EED2Ev,"axG",@progbits,_ZNSt12_Vector_baseISt6vectorIiSaIiEESaIS2_EED5Ev,comdat
	.size	_ZNSt12_Vector_baseISt6vectorIiSaIiEESaIS2_EED2Ev, .-_ZNSt12_Vector_baseISt6vectorIiSaIiEESaIS2_EED2Ev
	.weak	_ZNSt12_Vector_baseISt6vectorIiSaIiEESaIS2_EED1Ev
	.set	_ZNSt12_Vector_baseISt6vectorIiSaIiEESaIS2_EED1Ev,_ZNSt12_Vector_baseISt6vectorIiSaIiEESaIS2_EED2Ev
	.section	.text._ZNSt6vectorIS_IiSaIiEESaIS1_EE18_M_fill_initializeEmRKS1_,"axG",@progbits,_ZNSt6vectorIS_IiSaIiEESaIS1_EE18_M_fill_initializeEmRKS1_,comdat
	.align 2
	.weak	_ZNSt6vectorIS_IiSaIiEESaIS1_EE18_M_fill_initializeEmRKS1_
	.type	_ZNSt6vectorIS_IiSaIiEESaIS1_EE18_M_fill_initializeEmRKS1_, @function
_ZNSt6vectorIS_IiSaIiEESaIS1_EE18_M_fill_initializeEmRKS1_:
.LFB10852:
	.cfi_startproc
	endbr64
	push	rbp
	.cfi_def_cfa_offset 16
	.cfi_offset 6, -16
	mov	rbp, rsp
	.cfi_def_cfa_register 6
	sub	rsp, 32
	mov	QWORD PTR -8[rbp], rdi
	mov	QWORD PTR -16[rbp], rsi
	mov	QWORD PTR -24[rbp], rdx
	mov	rax, QWORD PTR -8[rbp]
	mov	rdi, rax
	call	_ZNSt12_Vector_baseISt6vectorIiSaIiEESaIS2_EE19_M_get_Tp_allocatorEv
	mov	rcx, rax
	mov	rax, QWORD PTR -8[rbp]
	mov	rax, QWORD PTR [rax]
	mov	rdx, QWORD PTR -24[rbp]
	mov	rsi, QWORD PTR -16[rbp]
	mov	rdi, rax
	call	_ZSt24__uninitialized_fill_n_aIPSt6vectorIiSaIiEEmS2_S2_ET_S4_T0_RKT1_RSaIT2_E
	mov	rdx, QWORD PTR -8[rbp]
	mov	QWORD PTR 8[rdx], rax
	nop
	leave
	.cfi_def_cfa 7, 8
	ret
	.cfi_endproc
.LFE10852:
	.size	_ZNSt6vectorIS_IiSaIiEESaIS1_EE18_M_fill_initializeEmRKS1_, .-_ZNSt6vectorIS_IiSaIiEESaIS1_EE18_M_fill_initializeEmRKS1_
	.section	.text._ZNSt12_Vector_baseISt6vectorIiSaIiEESaIS2_EE19_M_get_Tp_allocatorEv,"axG",@progbits,_ZNSt12_Vector_baseISt6vectorIiSaIiEESaIS2_EE19_M_get_Tp_allocatorEv,comdat
	.align 2
	.weak	_ZNSt12_Vector_baseISt6vectorIiSaIiEESaIS2_EE19_M_get_Tp_allocatorEv
	.type	_ZNSt12_Vector_baseISt6vectorIiSaIiEESaIS2_EE19_M_get_Tp_allocatorEv, @function
_ZNSt12_Vector_baseISt6vectorIiSaIiEESaIS2_EE19_M_get_Tp_allocatorEv:
.LFB10853:
	.cfi_startproc
	endbr64
	push	rbp
	.cfi_def_cfa_offset 16
	.cfi_offset 6, -16
	mov	rbp, rsp
	.cfi_def_cfa_register 6
	mov	QWORD PTR -8[rbp], rdi
	mov	rax, QWORD PTR -8[rbp]
	pop	rbp
	.cfi_def_cfa 7, 8
	ret
	.cfi_endproc
.LFE10853:
	.size	_ZNSt12_Vector_baseISt6vectorIiSaIiEESaIS2_EE19_M_get_Tp_allocatorEv, .-_ZNSt12_Vector_baseISt6vectorIiSaIiEESaIS2_EE19_M_get_Tp_allocatorEv
	.section	.text._ZSt8_DestroyIPSt6vectorIiSaIiEES2_EvT_S4_RSaIT0_E,"axG",@progbits,_ZSt8_DestroyIPSt6vectorIiSaIiEES2_EvT_S4_RSaIT0_E,comdat
	.weak	_ZSt8_DestroyIPSt6vectorIiSaIiEES2_EvT_S4_RSaIT0_E
	.type	_ZSt8_DestroyIPSt6vectorIiSaIiEES2_EvT_S4_RSaIT0_E, @function
_ZSt8_DestroyIPSt6vectorIiSaIiEES2_EvT_S4_RSaIT0_E:
.LFB10854:
	.cfi_startproc
	endbr64
	push	rbp
	.cfi_def_cfa_offset 16
	.cfi_offset 6, -16
	mov	rbp, rsp
	.cfi_def_cfa_register 6
	sub	rsp, 32
	mov	QWORD PTR -8[rbp], rdi
	mov	QWORD PTR -16[rbp], rsi
	mov	QWORD PTR -24[rbp], rdx
	mov	rdx, QWORD PTR -16[rbp]
	mov	rax, QWORD PTR -8[rbp]
	mov	rsi, rdx
	mov	rdi, rax
	call	_ZSt8_DestroyIPSt6vectorIiSaIiEEEvT_S4_
	nop
	leave
	.cfi_def_cfa 7, 8
	ret
	.cfi_endproc
.LFE10854:
	.size	_ZSt8_DestroyIPSt6vectorIiSaIiEES2_EvT_S4_RSaIT0_E, .-_ZSt8_DestroyIPSt6vectorIiSaIiEES2_EvT_S4_RSaIT0_E
	.section	.text._ZNSt6vectorIiSaIiEE11_S_max_sizeERKS0_,"axG",@progbits,_ZNSt6vectorIiSaIiEE11_S_max_sizeERKS0_,comdat
	.weak	_ZNSt6vectorIiSaIiEE11_S_max_sizeERKS0_
	.type	_ZNSt6vectorIiSaIiEE11_S_max_sizeERKS0_, @function
_ZNSt6vectorIiSaIiEE11_S_max_sizeERKS0_:
.LFB11051:
	.cfi_startproc
	endbr64
	push	rbp
	.cfi_def_cfa_offset 16
	.cfi_offset 6, -16
	mov	rbp, rsp
	.cfi_def_cfa_register 6
	sub	rsp, 48
	mov	QWORD PTR -40[rbp], rdi
	mov	rax, QWORD PTR fs:40
	mov	QWORD PTR -8[rbp], rax
	xor	eax, eax
	movabs	rax, 2305843009213693951
	mov	QWORD PTR -24[rbp], rax
	mov	rax, QWORD PTR -40[rbp]
	mov	rdi, rax
	call	_ZNSt16allocator_traitsISaIiEE8max_sizeERKS0_
	mov	QWORD PTR -16[rbp], rax
	lea	rdx, -16[rbp]
	lea	rax, -24[rbp]
	mov	rsi, rdx
	mov	rdi, rax
	call	_ZSt3minImERKT_S2_S2_
	mov	rax, QWORD PTR [rax]
	mov	rdx, QWORD PTR -8[rbp]
	sub	rdx, QWORD PTR fs:40
	je	.L105
	call	__stack_chk_fail@PLT
.L105:
	leave
	.cfi_def_cfa 7, 8
	ret
	.cfi_endproc
.LFE11051:
	.size	_ZNSt6vectorIiSaIiEE11_S_max_sizeERKS0_, .-_ZNSt6vectorIiSaIiEE11_S_max_sizeERKS0_
	.section	.text._ZNSaIiEC2ERKS_,"axG",@progbits,_ZNSaIiEC5ERKS_,comdat
	.align 2
	.weak	_ZNSaIiEC2ERKS_
	.type	_ZNSaIiEC2ERKS_, @function
_ZNSaIiEC2ERKS_:
.LFB11053:
	.cfi_startproc
	endbr64
	push	rbp
	.cfi_def_cfa_offset 16
	.cfi_offset 6, -16
	mov	rbp, rsp
	.cfi_def_cfa_register 6
	sub	rsp, 16
	mov	QWORD PTR -8[rbp], rdi
	mov	QWORD PTR -16[rbp], rsi
	mov	rdx, QWORD PTR -16[rbp]
	mov	rax, QWORD PTR -8[rbp]
	mov	rsi, rdx
	mov	rdi, rax
	call	_ZN9__gnu_cxx13new_allocatorIiEC2ERKS1_
	nop
	leave
	.cfi_def_cfa 7, 8
	ret
	.cfi_endproc
.LFE11053:
	.size	_ZNSaIiEC2ERKS_, .-_ZNSaIiEC2ERKS_
	.weak	_ZNSaIiEC1ERKS_
	.set	_ZNSaIiEC1ERKS_,_ZNSaIiEC2ERKS_
	.section	.text._ZNSt12_Vector_baseIiSaIiEE12_Vector_implC2ERKS0_,"axG",@progbits,_ZNSt12_Vector_baseIiSaIiEE12_Vector_implC5ERKS0_,comdat
	.align 2
	.weak	_ZNSt12_Vector_baseIiSaIiEE12_Vector_implC2ERKS0_
	.type	_ZNSt12_Vector_baseIiSaIiEE12_Vector_implC2ERKS0_, @function
_ZNSt12_Vector_baseIiSaIiEE12_Vector_implC2ERKS0_:
.LFB11056:
	.cfi_startproc
	endbr64
	push	rbp
	.cfi_def_cfa_offset 16
	.cfi_offset 6, -16
	mov	rbp, rsp
	.cfi_def_cfa_register 6
	sub	rsp, 16
	mov	QWORD PTR -8[rbp], rdi
	mov	QWORD PTR -16[rbp], rsi
	mov	rdx, QWORD PTR -16[rbp]
	mov	rax, QWORD PTR -8[rbp]
	mov	rsi, rdx
	mov	rdi, rax
	call	_ZNSaIiEC2ERKS_
	mov	rax, QWORD PTR -8[rbp]
	mov	rdi, rax
	call	_ZNSt12_Vector_baseIiSaIiEE17_Vector_impl_dataC2Ev
	nop
	leave
	.cfi_def_cfa 7, 8
	ret
	.cfi_endproc
.LFE11056:
	.size	_ZNSt12_Vector_baseIiSaIiEE12_Vector_implC2ERKS0_, .-_ZNSt12_Vector_baseIiSaIiEE12_Vector_implC2ERKS0_
	.weak	_ZNSt12_Vector_baseIiSaIiEE12_Vector_implC1ERKS0_
	.set	_ZNSt12_Vector_baseIiSaIiEE12_Vector_implC1ERKS0_,_ZNSt12_Vector_baseIiSaIiEE12_Vector_implC2ERKS0_
	.section	.text._ZNSt12_Vector_baseIiSaIiEE17_M_create_storageEm,"axG",@progbits,_ZNSt12_Vector_baseIiSaIiEE17_M_create_storageEm,comdat
	.align 2
	.weak	_ZNSt12_Vector_baseIiSaIiEE17_M_create_storageEm
	.type	_ZNSt12_Vector_baseIiSaIiEE17_M_create_storageEm, @function
_ZNSt12_Vector_baseIiSaIiEE17_M_create_storageEm:
.LFB11058:
	.cfi_startproc
	endbr64
	push	rbp
	.cfi_def_cfa_offset 16
	.cfi_offset 6, -16
	mov	rbp, rsp
	.cfi_def_cfa_register 6
	sub	rsp, 16
	mov	QWORD PTR -8[rbp], rdi
	mov	QWORD PTR -16[rbp], rsi
	mov	rdx, QWORD PTR -16[rbp]
	mov	rax, QWORD PTR -8[rbp]
	mov	rsi, rdx
	mov	rdi, rax
	call	_ZNSt12_Vector_baseIiSaIiEE11_M_allocateEm
	mov	rdx, QWORD PTR -8[rbp]
	mov	QWORD PTR [rdx], rax
	mov	rax, QWORD PTR -8[rbp]
	mov	rdx, QWORD PTR [rax]
	mov	rax, QWORD PTR -8[rbp]
	mov	QWORD PTR 8[rax], rdx
	mov	rax, QWORD PTR -8[rbp]
	mov	rdx, QWORD PTR [rax]
	mov	rax, QWORD PTR -16[rbp]
	sal	rax, 2
	add	rdx, rax
	mov	rax, QWORD PTR -8[rbp]
	mov	QWORD PTR 16[rax], rdx
	nop
	leave
	.cfi_def_cfa 7, 8
	ret
	.cfi_endproc
.LFE11058:
	.size	_ZNSt12_Vector_baseIiSaIiEE17_M_create_storageEm, .-_ZNSt12_Vector_baseIiSaIiEE17_M_create_storageEm
	.section	.text._ZNSt12_Vector_baseIiSaIiEE13_M_deallocateEPim,"axG",@progbits,_ZNSt12_Vector_baseIiSaIiEE13_M_deallocateEPim,comdat
	.align 2
	.weak	_ZNSt12_Vector_baseIiSaIiEE13_M_deallocateEPim
	.type	_ZNSt12_Vector_baseIiSaIiEE13_M_deallocateEPim, @function
_ZNSt12_Vector_baseIiSaIiEE13_M_deallocateEPim:
.LFB11059:
	.cfi_startproc
	endbr64
	push	rbp
	.cfi_def_cfa_offset 16
	.cfi_offset 6, -16
	mov	rbp, rsp
	.cfi_def_cfa_register 6
	sub	rsp, 32
	mov	QWORD PTR -8[rbp], rdi
	mov	QWORD PTR -16[rbp], rsi
	mov	QWORD PTR -24[rbp], rdx
	cmp	QWORD PTR -16[rbp], 0
	je	.L111
	mov	rax, QWORD PTR -8[rbp]
	mov	rdx, QWORD PTR -24[rbp]
	mov	rcx, QWORD PTR -16[rbp]
	mov	rsi, rcx
	mov	rdi, rax
	call	_ZNSt16allocator_traitsISaIiEE10deallocateERS0_Pim
.L111:
	nop
	leave
	.cfi_def_cfa 7, 8
	ret
	.cfi_endproc
.LFE11059:
	.size	_ZNSt12_Vector_baseIiSaIiEE13_M_deallocateEPim, .-_ZNSt12_Vector_baseIiSaIiEE13_M_deallocateEPim
	.section	.text._ZSt27__uninitialized_default_n_aIPimiET_S1_T0_RSaIT1_E,"axG",@progbits,_ZSt27__uninitialized_default_n_aIPimiET_S1_T0_RSaIT1_E,comdat
	.weak	_ZSt27__uninitialized_default_n_aIPimiET_S1_T0_RSaIT1_E
	.type	_ZSt27__uninitialized_default_n_aIPimiET_S1_T0_RSaIT1_E, @function
_ZSt27__uninitialized_default_n_aIPimiET_S1_T0_RSaIT1_E:
.LFB11060:
	.cfi_startproc
	endbr64
	push	rbp
	.cfi_def_cfa_offset 16
	.cfi_offset 6, -16
	mov	rbp, rsp
	.cfi_def_cfa_register 6
	sub	rsp, 32
	mov	QWORD PTR -8[rbp], rdi
	mov	QWORD PTR -16[rbp], rsi
	mov	QWORD PTR -24[rbp], rdx
	mov	rdx, QWORD PTR -16[rbp]
	mov	rax, QWORD PTR -8[rbp]
	mov	rsi, rdx
	mov	rdi, rax
	call	_ZSt25__uninitialized_default_nIPimET_S1_T0_
	leave
	.cfi_def_cfa 7, 8
	ret
	.cfi_endproc
.LFE11060:
	.size	_ZSt27__uninitialized_default_n_aIPimiET_S1_T0_RSaIT1_E, .-_ZSt27__uninitialized_default_n_aIPimiET_S1_T0_RSaIT1_E
	.section	.text._ZSt8_DestroyIPiEvT_S1_,"axG",@progbits,_ZSt8_DestroyIPiEvT_S1_,comdat
	.weak	_ZSt8_DestroyIPiEvT_S1_
	.type	_ZSt8_DestroyIPiEvT_S1_, @function
_ZSt8_DestroyIPiEvT_S1_:
.LFB11061:
	.cfi_startproc
	endbr64
	push	rbp
	.cfi_def_cfa_offset 16
	.cfi_offset 6, -16
	mov	rbp, rsp
	.cfi_def_cfa_register 6
	sub	rsp, 16
	mov	QWORD PTR -8[rbp], rdi
	mov	QWORD PTR -16[rbp], rsi
	mov	rdx, QWORD PTR -16[rbp]
	mov	rax, QWORD PTR -8[rbp]
	mov	rsi, rdx
	mov	rdi, rax
	call	_ZNSt12_Destroy_auxILb1EE9__destroyIPiEEvT_S3_
	nop
	leave
	.cfi_def_cfa 7, 8
	ret
	.cfi_endproc
.LFE11061:
	.size	_ZSt8_DestroyIPiEvT_S1_, .-_ZSt8_DestroyIPiEvT_S1_
	.section	.text._ZSt24__uninitialized_fill_n_aIPimiiET_S1_T0_RKT1_RSaIT2_E,"axG",@progbits,_ZSt24__uninitialized_fill_n_aIPimiiET_S1_T0_RKT1_RSaIT2_E,comdat
	.weak	_ZSt24__uninitialized_fill_n_aIPimiiET_S1_T0_RKT1_RSaIT2_E
	.type	_ZSt24__uninitialized_fill_n_aIPimiiET_S1_T0_RKT1_RSaIT2_E, @function
_ZSt24__uninitialized_fill_n_aIPimiiET_S1_T0_RKT1_RSaIT2_E:
.LFB11063:
	.cfi_startproc
	endbr64
	push	rbp
	.cfi_def_cfa_offset 16
	.cfi_offset 6, -16
	mov	rbp, rsp
	.cfi_def_cfa_register 6
	sub	rsp, 32
	mov	QWORD PTR -8[rbp], rdi
	mov	QWORD PTR -16[rbp], rsi
	mov	QWORD PTR -24[rbp], rdx
	mov	QWORD PTR -32[rbp], rcx
	mov	rdx, QWORD PTR -24[rbp]
	mov	rcx, QWORD PTR -16[rbp]
	mov	rax, QWORD PTR -8[rbp]
	mov	rsi, rcx
	mov	rdi, rax
	call	_ZSt20uninitialized_fill_nIPimiET_S1_T0_RKT1_
	leave
	.cfi_def_cfa 7, 8
	ret
	.cfi_endproc
.LFE11063:
	.size	_ZSt24__uninitialized_fill_n_aIPimiiET_S1_T0_RKT1_RSaIT2_E, .-_ZSt24__uninitialized_fill_n_aIPimiiET_S1_T0_RKT1_RSaIT2_E
	.section	.text._ZNSt6vectorIS_IiSaIiEESaIS1_EE11_S_max_sizeERKS2_,"axG",@progbits,_ZNSt6vectorIS_IiSaIiEESaIS1_EE11_S_max_sizeERKS2_,comdat
	.weak	_ZNSt6vectorIS_IiSaIiEESaIS1_EE11_S_max_sizeERKS2_
	.type	_ZNSt6vectorIS_IiSaIiEESaIS1_EE11_S_max_sizeERKS2_, @function
_ZNSt6vectorIS_IiSaIiEESaIS1_EE11_S_max_sizeERKS2_:
.LFB11064:
	.cfi_startproc
	endbr64
	push	rbp
	.cfi_def_cfa_offset 16
	.cfi_offset 6, -16
	mov	rbp, rsp
	.cfi_def_cfa_register 6
	sub	rsp, 48
	mov	QWORD PTR -40[rbp], rdi
	mov	rax, QWORD PTR fs:40
	mov	QWORD PTR -8[rbp], rax
	xor	eax, eax
	movabs	rax, 384307168202282325
	mov	QWORD PTR -24[rbp], rax
	mov	rax, QWORD PTR -40[rbp]
	mov	rdi, rax
	call	_ZNSt16allocator_traitsISaISt6vectorIiSaIiEEEE8max_sizeERKS3_
	mov	QWORD PTR -16[rbp], rax
	lea	rdx, -16[rbp]
	lea	rax, -24[rbp]
	mov	rsi, rdx
	mov	rdi, rax
	call	_ZSt3minImERKT_S2_S2_
	mov	rax, QWORD PTR [rax]
	mov	rdx, QWORD PTR -8[rbp]
	sub	rdx, QWORD PTR fs:40
	je	.L119
	call	__stack_chk_fail@PLT
.L119:
	leave
	.cfi_def_cfa 7, 8
	ret
	.cfi_endproc
.LFE11064:
	.size	_ZNSt6vectorIS_IiSaIiEESaIS1_EE11_S_max_sizeERKS2_, .-_ZNSt6vectorIS_IiSaIiEESaIS1_EE11_S_max_sizeERKS2_
	.section	.text._ZNSaISt6vectorIiSaIiEEEC2ERKS2_,"axG",@progbits,_ZNSaISt6vectorIiSaIiEEEC5ERKS2_,comdat
	.align 2
	.weak	_ZNSaISt6vectorIiSaIiEEEC2ERKS2_
	.type	_ZNSaISt6vectorIiSaIiEEEC2ERKS2_, @function
_ZNSaISt6vectorIiSaIiEEEC2ERKS2_:
.LFB11066:
	.cfi_startproc
	endbr64
	push	rbp
	.cfi_def_cfa_offset 16
	.cfi_offset 6, -16
	mov	rbp, rsp
	.cfi_def_cfa_register 6
	sub	rsp, 16
	mov	QWORD PTR -8[rbp], rdi
	mov	QWORD PTR -16[rbp], rsi
	mov	rdx, QWORD PTR -16[rbp]
	mov	rax, QWORD PTR -8[rbp]
	mov	rsi, rdx
	mov	rdi, rax
	call	_ZN9__gnu_cxx13new_allocatorISt6vectorIiSaIiEEEC2ERKS4_
	nop
	leave
	.cfi_def_cfa 7, 8
	ret
	.cfi_endproc
.LFE11066:
	.size	_ZNSaISt6vectorIiSaIiEEEC2ERKS2_, .-_ZNSaISt6vectorIiSaIiEEEC2ERKS2_
	.weak	_ZNSaISt6vectorIiSaIiEEEC1ERKS2_
	.set	_ZNSaISt6vectorIiSaIiEEEC1ERKS2_,_ZNSaISt6vectorIiSaIiEEEC2ERKS2_
	.section	.text._ZNSt12_Vector_baseISt6vectorIiSaIiEESaIS2_EE12_Vector_implC2ERKS3_,"axG",@progbits,_ZNSt12_Vector_baseISt6vectorIiSaIiEESaIS2_EE12_Vector_implC5ERKS3_,comdat
	.align 2
	.weak	_ZNSt12_Vector_baseISt6vectorIiSaIiEESaIS2_EE12_Vector_implC2ERKS3_
	.type	_ZNSt12_Vector_baseISt6vectorIiSaIiEESaIS2_EE12_Vector_implC2ERKS3_, @function
_ZNSt12_Vector_baseISt6vectorIiSaIiEESaIS2_EE12_Vector_implC2ERKS3_:
.LFB11069:
	.cfi_startproc
	endbr64
	push	rbp
	.cfi_def_cfa_offset 16
	.cfi_offset 6, -16
	mov	rbp, rsp
	.cfi_def_cfa_register 6
	sub	rsp, 16
	mov	QWORD PTR -8[rbp], rdi
	mov	QWORD PTR -16[rbp], rsi
	mov	rdx, QWORD PTR -16[rbp]
	mov	rax, QWORD PTR -8[rbp]
	mov	rsi, rdx
	mov	rdi, rax
	call	_ZNSaISt6vectorIiSaIiEEEC2ERKS2_
	mov	rax, QWORD PTR -8[rbp]
	mov	rdi, rax
	call	_ZNSt12_Vector_baseISt6vectorIiSaIiEESaIS2_EE17_Vector_impl_dataC2Ev
	nop
	leave
	.cfi_def_cfa 7, 8
	ret
	.cfi_endproc
.LFE11069:
	.size	_ZNSt12_Vector_baseISt6vectorIiSaIiEESaIS2_EE12_Vector_implC2ERKS3_, .-_ZNSt12_Vector_baseISt6vectorIiSaIiEESaIS2_EE12_Vector_implC2ERKS3_
	.weak	_ZNSt12_Vector_baseISt6vectorIiSaIiEESaIS2_EE12_Vector_implC1ERKS3_
	.set	_ZNSt12_Vector_baseISt6vectorIiSaIiEESaIS2_EE12_Vector_implC1ERKS3_,_ZNSt12_Vector_baseISt6vectorIiSaIiEESaIS2_EE12_Vector_implC2ERKS3_
	.section	.text._ZNSt12_Vector_baseISt6vectorIiSaIiEESaIS2_EE17_M_create_storageEm,"axG",@progbits,_ZNSt12_Vector_baseISt6vectorIiSaIiEESaIS2_EE17_M_create_storageEm,comdat
	.align 2
	.weak	_ZNSt12_Vector_baseISt6vectorIiSaIiEESaIS2_EE17_M_create_storageEm
	.type	_ZNSt12_Vector_baseISt6vectorIiSaIiEESaIS2_EE17_M_create_storageEm, @function
_ZNSt12_Vector_baseISt6vectorIiSaIiEESaIS2_EE17_M_create_storageEm:
.LFB11071:
	.cfi_startproc
	endbr64
	push	rbp
	.cfi_def_cfa_offset 16
	.cfi_offset 6, -16
	mov	rbp, rsp
	.cfi_def_cfa_register 6
	sub	rsp, 16
	mov	QWORD PTR -8[rbp], rdi
	mov	QWORD PTR -16[rbp], rsi
	mov	rdx, QWORD PTR -16[rbp]
	mov	rax, QWORD PTR -8[rbp]
	mov	rsi, rdx
	mov	rdi, rax
	call	_ZNSt12_Vector_baseISt6vectorIiSaIiEESaIS2_EE11_M_allocateEm
	mov	rdx, QWORD PTR -8[rbp]
	mov	QWORD PTR [rdx], rax
	mov	rax, QWORD PTR -8[rbp]
	mov	rdx, QWORD PTR [rax]
	mov	rax, QWORD PTR -8[rbp]
	mov	QWORD PTR 8[rax], rdx
	mov	rax, QWORD PTR -8[rbp]
	mov	rcx, QWORD PTR [rax]
	mov	rdx, QWORD PTR -16[rbp]
	mov	rax, rdx
	add	rax, rax
	add	rax, rdx
	sal	rax, 3
	lea	rdx, [rcx+rax]
	mov	rax, QWORD PTR -8[rbp]
	mov	QWORD PTR 16[rax], rdx
	nop
	leave
	.cfi_def_cfa 7, 8
	ret
	.cfi_endproc
.LFE11071:
	.size	_ZNSt12_Vector_baseISt6vectorIiSaIiEESaIS2_EE17_M_create_storageEm, .-_ZNSt12_Vector_baseISt6vectorIiSaIiEESaIS2_EE17_M_create_storageEm
	.section	.text._ZNSt12_Vector_baseISt6vectorIiSaIiEESaIS2_EE13_M_deallocateEPS2_m,"axG",@progbits,_ZNSt12_Vector_baseISt6vectorIiSaIiEESaIS2_EE13_M_deallocateEPS2_m,comdat
	.align 2
	.weak	_ZNSt12_Vector_baseISt6vectorIiSaIiEESaIS2_EE13_M_deallocateEPS2_m
	.type	_ZNSt12_Vector_baseISt6vectorIiSaIiEESaIS2_EE13_M_deallocateEPS2_m, @function
_ZNSt12_Vector_baseISt6vectorIiSaIiEESaIS2_EE13_M_deallocateEPS2_m:
.LFB11072:
	.cfi_startproc
	endbr64
	push	rbp
	.cfi_def_cfa_offset 16
	.cfi_offset 6, -16
	mov	rbp, rsp
	.cfi_def_cfa_register 6
	sub	rsp, 32
	mov	QWORD PTR -8[rbp], rdi
	mov	QWORD PTR -16[rbp], rsi
	mov	QWORD PTR -24[rbp], rdx
	cmp	QWORD PTR -16[rbp], 0
	je	.L125
	mov	rax, QWORD PTR -8[rbp]
	mov	rdx, QWORD PTR -24[rbp]
	mov	rcx, QWORD PTR -16[rbp]
	mov	rsi, rcx
	mov	rdi, rax
	call	_ZNSt16allocator_traitsISaISt6vectorIiSaIiEEEE10deallocateERS3_PS2_m
.L125:
	nop
	leave
	.cfi_def_cfa 7, 8
	ret
	.cfi_endproc
.LFE11072:
	.size	_ZNSt12_Vector_baseISt6vectorIiSaIiEESaIS2_EE13_M_deallocateEPS2_m, .-_ZNSt12_Vector_baseISt6vectorIiSaIiEESaIS2_EE13_M_deallocateEPS2_m
	.section	.text._ZSt24__uninitialized_fill_n_aIPSt6vectorIiSaIiEEmS2_S2_ET_S4_T0_RKT1_RSaIT2_E,"axG",@progbits,_ZSt24__uninitialized_fill_n_aIPSt6vectorIiSaIiEEmS2_S2_ET_S4_T0_RKT1_RSaIT2_E,comdat
	.weak	_ZSt24__uninitialized_fill_n_aIPSt6vectorIiSaIiEEmS2_S2_ET_S4_T0_RKT1_RSaIT2_E
	.type	_ZSt24__uninitialized_fill_n_aIPSt6vectorIiSaIiEEmS2_S2_ET_S4_T0_RKT1_RSaIT2_E, @function
_ZSt24__uninitialized_fill_n_aIPSt6vectorIiSaIiEEmS2_S2_ET_S4_T0_RKT1_RSaIT2_E:
.LFB11073:
	.cfi_startproc
	endbr64
	push	rbp
	.cfi_def_cfa_offset 16
	.cfi_offset 6, -16
	mov	rbp, rsp
	.cfi_def_cfa_register 6
	sub	rsp, 32
	mov	QWORD PTR -8[rbp], rdi
	mov	QWORD PTR -16[rbp], rsi
	mov	QWORD PTR -24[rbp], rdx
	mov	QWORD PTR -32[rbp], rcx
	mov	rdx, QWORD PTR -24[rbp]
	mov	rcx, QWORD PTR -16[rbp]
	mov	rax, QWORD PTR -8[rbp]
	mov	rsi, rcx
	mov	rdi, rax
	call	_ZSt20uninitialized_fill_nIPSt6vectorIiSaIiEEmS2_ET_S4_T0_RKT1_
	leave
	.cfi_def_cfa 7, 8
	ret
	.cfi_endproc
.LFE11073:
	.size	_ZSt24__uninitialized_fill_n_aIPSt6vectorIiSaIiEEmS2_S2_ET_S4_T0_RKT1_RSaIT2_E, .-_ZSt24__uninitialized_fill_n_aIPSt6vectorIiSaIiEEmS2_S2_ET_S4_T0_RKT1_RSaIT2_E
	.section	.text._ZSt8_DestroyIPSt6vectorIiSaIiEEEvT_S4_,"axG",@progbits,_ZSt8_DestroyIPSt6vectorIiSaIiEEEvT_S4_,comdat
	.weak	_ZSt8_DestroyIPSt6vectorIiSaIiEEEvT_S4_
	.type	_ZSt8_DestroyIPSt6vectorIiSaIiEEEvT_S4_, @function
_ZSt8_DestroyIPSt6vectorIiSaIiEEEvT_S4_:
.LFB11074:
	.cfi_startproc
	endbr64
	push	rbp
	.cfi_def_cfa_offset 16
	.cfi_offset 6, -16
	mov	rbp, rsp
	.cfi_def_cfa_register 6
	sub	rsp, 16
	mov	QWORD PTR -8[rbp], rdi
	mov	QWORD PTR -16[rbp], rsi
	mov	rdx, QWORD PTR -16[rbp]
	mov	rax, QWORD PTR -8[rbp]
	mov	rsi, rdx
	mov	rdi, rax
	call	_ZNSt12_Destroy_auxILb0EE9__destroyIPSt6vectorIiSaIiEEEEvT_S6_
	nop
	leave
	.cfi_def_cfa 7, 8
	ret
	.cfi_endproc
.LFE11074:
	.size	_ZSt8_DestroyIPSt6vectorIiSaIiEEEvT_S4_, .-_ZSt8_DestroyIPSt6vectorIiSaIiEEEvT_S4_
	.section	.text._ZNSt16allocator_traitsISaIiEE8max_sizeERKS0_,"axG",@progbits,_ZNSt16allocator_traitsISaIiEE8max_sizeERKS0_,comdat
	.weak	_ZNSt16allocator_traitsISaIiEE8max_sizeERKS0_
	.type	_ZNSt16allocator_traitsISaIiEE8max_sizeERKS0_, @function
_ZNSt16allocator_traitsISaIiEE8max_sizeERKS0_:
.LFB11212:
	.cfi_startproc
	endbr64
	push	rbp
	.cfi_def_cfa_offset 16
	.cfi_offset 6, -16
	mov	rbp, rsp
	.cfi_def_cfa_register 6
	sub	rsp, 16
	mov	QWORD PTR -8[rbp], rdi
	mov	rax, QWORD PTR -8[rbp]
	mov	rdi, rax
	call	_ZNK9__gnu_cxx13new_allocatorIiE8max_sizeEv
	leave
	.cfi_def_cfa 7, 8
	ret
	.cfi_endproc
.LFE11212:
	.size	_ZNSt16allocator_traitsISaIiEE8max_sizeERKS0_, .-_ZNSt16allocator_traitsISaIiEE8max_sizeERKS0_
	.section	.text._ZN9__gnu_cxx13new_allocatorIiEC2ERKS1_,"axG",@progbits,_ZN9__gnu_cxx13new_allocatorIiEC5ERKS1_,comdat
	.align 2
	.weak	_ZN9__gnu_cxx13new_allocatorIiEC2ERKS1_
	.type	_ZN9__gnu_cxx13new_allocatorIiEC2ERKS1_, @function
_ZN9__gnu_cxx13new_allocatorIiEC2ERKS1_:
.LFB11214:
	.cfi_startproc
	endbr64
	push	rbp
	.cfi_def_cfa_offset 16
	.cfi_offset 6, -16
	mov	rbp, rsp
	.cfi_def_cfa_register 6
	mov	QWORD PTR -8[rbp], rdi
	mov	QWORD PTR -16[rbp], rsi
	nop
	pop	rbp
	.cfi_def_cfa 7, 8
	ret
	.cfi_endproc
.LFE11214:
	.size	_ZN9__gnu_cxx13new_allocatorIiEC2ERKS1_, .-_ZN9__gnu_cxx13new_allocatorIiEC2ERKS1_
	.weak	_ZN9__gnu_cxx13new_allocatorIiEC1ERKS1_
	.set	_ZN9__gnu_cxx13new_allocatorIiEC1ERKS1_,_ZN9__gnu_cxx13new_allocatorIiEC2ERKS1_
	.section	.text._ZNSt12_Vector_baseIiSaIiEE17_Vector_impl_dataC2Ev,"axG",@progbits,_ZNSt12_Vector_baseIiSaIiEE17_Vector_impl_dataC5Ev,comdat
	.align 2
	.weak	_ZNSt12_Vector_baseIiSaIiEE17_Vector_impl_dataC2Ev
	.type	_ZNSt12_Vector_baseIiSaIiEE17_Vector_impl_dataC2Ev, @function
_ZNSt12_Vector_baseIiSaIiEE17_Vector_impl_dataC2Ev:
.LFB11217:
	.cfi_startproc
	endbr64
	push	rbp
	.cfi_def_cfa_offset 16
	.cfi_offset 6, -16
	mov	rbp, rsp
	.cfi_def_cfa_register 6
	mov	QWORD PTR -8[rbp], rdi
	mov	rax, QWORD PTR -8[rbp]
	mov	QWORD PTR [rax], 0
	mov	rax, QWORD PTR -8[rbp]
	mov	QWORD PTR 8[rax], 0
	mov	rax, QWORD PTR -8[rbp]
	mov	QWORD PTR 16[rax], 0
	nop
	pop	rbp
	.cfi_def_cfa 7, 8
	ret
	.cfi_endproc
.LFE11217:
	.size	_ZNSt12_Vector_baseIiSaIiEE17_Vector_impl_dataC2Ev, .-_ZNSt12_Vector_baseIiSaIiEE17_Vector_impl_dataC2Ev
	.weak	_ZNSt12_Vector_baseIiSaIiEE17_Vector_impl_dataC1Ev
	.set	_ZNSt12_Vector_baseIiSaIiEE17_Vector_impl_dataC1Ev,_ZNSt12_Vector_baseIiSaIiEE17_Vector_impl_dataC2Ev
	.section	.text._ZNSt12_Vector_baseIiSaIiEE11_M_allocateEm,"axG",@progbits,_ZNSt12_Vector_baseIiSaIiEE11_M_allocateEm,comdat
	.align 2
	.weak	_ZNSt12_Vector_baseIiSaIiEE11_M_allocateEm
	.type	_ZNSt12_Vector_baseIiSaIiEE11_M_allocateEm, @function
_ZNSt12_Vector_baseIiSaIiEE11_M_allocateEm:
.LFB11219:
	.cfi_startproc
	endbr64
	push	rbp
	.cfi_def_cfa_offset 16
	.cfi_offset 6, -16
	mov	rbp, rsp
	.cfi_def_cfa_register 6
	sub	rsp, 16
	mov	QWORD PTR -8[rbp], rdi
	mov	QWORD PTR -16[rbp], rsi
	cmp	QWORD PTR -16[rbp], 0
	je	.L134
	mov	rax, QWORD PTR -8[rbp]
	mov	rdx, QWORD PTR -16[rbp]
	mov	rsi, rdx
	mov	rdi, rax
	call	_ZNSt16allocator_traitsISaIiEE8allocateERS0_m
	jmp	.L136
.L134:
	mov	eax, 0
.L136:
	leave
	.cfi_def_cfa 7, 8
	ret
	.cfi_endproc
.LFE11219:
	.size	_ZNSt12_Vector_baseIiSaIiEE11_M_allocateEm, .-_ZNSt12_Vector_baseIiSaIiEE11_M_allocateEm
	.section	.text._ZNSt16allocator_traitsISaIiEE10deallocateERS0_Pim,"axG",@progbits,_ZNSt16allocator_traitsISaIiEE10deallocateERS0_Pim,comdat
	.weak	_ZNSt16allocator_traitsISaIiEE10deallocateERS0_Pim
	.type	_ZNSt16allocator_traitsISaIiEE10deallocateERS0_Pim, @function
_ZNSt16allocator_traitsISaIiEE10deallocateERS0_Pim:
.LFB11220:
	.cfi_startproc
	endbr64
	push	rbp
	.cfi_def_cfa_offset 16
	.cfi_offset 6, -16
	mov	rbp, rsp
	.cfi_def_cfa_register 6
	sub	rsp, 32
	mov	QWORD PTR -8[rbp], rdi
	mov	QWORD PTR -16[rbp], rsi
	mov	QWORD PTR -24[rbp], rdx
	mov	rdx, QWORD PTR -24[rbp]
	mov	rcx, QWORD PTR -16[rbp]
	mov	rax, QWORD PTR -8[rbp]
	mov	rsi, rcx
	mov	rdi, rax
	call	_ZN9__gnu_cxx13new_allocatorIiE10deallocateEPim
	nop
	leave
	.cfi_def_cfa 7, 8
	ret
	.cfi_endproc
.LFE11220:
	.size	_ZNSt16allocator_traitsISaIiEE10deallocateERS0_Pim, .-_ZNSt16allocator_traitsISaIiEE10deallocateERS0_Pim
	.section	.text._ZSt25__uninitialized_default_nIPimET_S1_T0_,"axG",@progbits,_ZSt25__uninitialized_default_nIPimET_S1_T0_,comdat
	.weak	_ZSt25__uninitialized_default_nIPimET_S1_T0_
	.type	_ZSt25__uninitialized_default_nIPimET_S1_T0_, @function
_ZSt25__uninitialized_default_nIPimET_S1_T0_:
.LFB11221:
	.cfi_startproc
	endbr64
	push	rbp
	.cfi_def_cfa_offset 16
	.cfi_offset 6, -16
	mov	rbp, rsp
	.cfi_def_cfa_register 6
	sub	rsp, 32
	mov	QWORD PTR -24[rbp], rdi
	mov	QWORD PTR -32[rbp], rsi
	mov	BYTE PTR -1[rbp], 1
	mov	rdx, QWORD PTR -32[rbp]
	mov	rax, QWORD PTR -24[rbp]
	mov	rsi, rdx
	mov	rdi, rax
	call	_ZNSt27__uninitialized_default_n_1ILb1EE18__uninit_default_nIPimEET_S3_T0_
	leave
	.cfi_def_cfa 7, 8
	ret
	.cfi_endproc
.LFE11221:
	.size	_ZSt25__uninitialized_default_nIPimET_S1_T0_, .-_ZSt25__uninitialized_default_nIPimET_S1_T0_
	.section	.text._ZNSt12_Destroy_auxILb1EE9__destroyIPiEEvT_S3_,"axG",@progbits,_ZNSt12_Destroy_auxILb1EE9__destroyIPiEEvT_S3_,comdat
	.weak	_ZNSt12_Destroy_auxILb1EE9__destroyIPiEEvT_S3_
	.type	_ZNSt12_Destroy_auxILb1EE9__destroyIPiEEvT_S3_, @function
_ZNSt12_Destroy_auxILb1EE9__destroyIPiEEvT_S3_:
.LFB11222:
	.cfi_startproc
	endbr64
	push	rbp
	.cfi_def_cfa_offset 16
	.cfi_offset 6, -16
	mov	rbp, rsp
	.cfi_def_cfa_register 6
	mov	QWORD PTR -8[rbp], rdi
	mov	QWORD PTR -16[rbp], rsi
	nop
	pop	rbp
	.cfi_def_cfa 7, 8
	ret
	.cfi_endproc
.LFE11222:
	.size	_ZNSt12_Destroy_auxILb1EE9__destroyIPiEEvT_S3_, .-_ZNSt12_Destroy_auxILb1EE9__destroyIPiEEvT_S3_
	.section	.text._ZSt20uninitialized_fill_nIPimiET_S1_T0_RKT1_,"axG",@progbits,_ZSt20uninitialized_fill_nIPimiET_S1_T0_RKT1_,comdat
	.weak	_ZSt20uninitialized_fill_nIPimiET_S1_T0_RKT1_
	.type	_ZSt20uninitialized_fill_nIPimiET_S1_T0_RKT1_, @function
_ZSt20uninitialized_fill_nIPimiET_S1_T0_RKT1_:
.LFB11223:
	.cfi_startproc
	endbr64
	push	rbp
	.cfi_def_cfa_offset 16
	.cfi_offset 6, -16
	mov	rbp, rsp
	.cfi_def_cfa_register 6
	sub	rsp, 48
	mov	QWORD PTR -24[rbp], rdi
	mov	QWORD PTR -32[rbp], rsi
	mov	QWORD PTR -40[rbp], rdx
	mov	BYTE PTR -1[rbp], 1
	mov	rdx, QWORD PTR -40[rbp]
	mov	rcx, QWORD PTR -32[rbp]
	mov	rax, QWORD PTR -24[rbp]
	mov	rsi, rcx
	mov	rdi, rax
	call	_ZNSt22__uninitialized_fill_nILb1EE15__uninit_fill_nIPimiEET_S3_T0_RKT1_
	leave
	.cfi_def_cfa 7, 8
	ret
	.cfi_endproc
.LFE11223:
	.size	_ZSt20uninitialized_fill_nIPimiET_S1_T0_RKT1_, .-_ZSt20uninitialized_fill_nIPimiET_S1_T0_RKT1_
	.section	.text._ZNSt16allocator_traitsISaISt6vectorIiSaIiEEEE8max_sizeERKS3_,"axG",@progbits,_ZNSt16allocator_traitsISaISt6vectorIiSaIiEEEE8max_sizeERKS3_,comdat
	.weak	_ZNSt16allocator_traitsISaISt6vectorIiSaIiEEEE8max_sizeERKS3_
	.type	_ZNSt16allocator_traitsISaISt6vectorIiSaIiEEEE8max_sizeERKS3_, @function
_ZNSt16allocator_traitsISaISt6vectorIiSaIiEEEE8max_sizeERKS3_:
.LFB11224:
	.cfi_startproc
	endbr64
	push	rbp
	.cfi_def_cfa_offset 16
	.cfi_offset 6, -16
	mov	rbp, rsp
	.cfi_def_cfa_register 6
	sub	rsp, 16
	mov	QWORD PTR -8[rbp], rdi
	mov	rax, QWORD PTR -8[rbp]
	mov	rdi, rax
	call	_ZNK9__gnu_cxx13new_allocatorISt6vectorIiSaIiEEE8max_sizeEv
	leave
	.cfi_def_cfa 7, 8
	ret
	.cfi_endproc
.LFE11224:
	.size	_ZNSt16allocator_traitsISaISt6vectorIiSaIiEEEE8max_sizeERKS3_, .-_ZNSt16allocator_traitsISaISt6vectorIiSaIiEEEE8max_sizeERKS3_
	.section	.text._ZN9__gnu_cxx13new_allocatorISt6vectorIiSaIiEEEC2ERKS4_,"axG",@progbits,_ZN9__gnu_cxx13new_allocatorISt6vectorIiSaIiEEEC5ERKS4_,comdat
	.align 2
	.weak	_ZN9__gnu_cxx13new_allocatorISt6vectorIiSaIiEEEC2ERKS4_
	.type	_ZN9__gnu_cxx13new_allocatorISt6vectorIiSaIiEEEC2ERKS4_, @function
_ZN9__gnu_cxx13new_allocatorISt6vectorIiSaIiEEEC2ERKS4_:
.LFB11226:
	.cfi_startproc
	endbr64
	push	rbp
	.cfi_def_cfa_offset 16
	.cfi_offset 6, -16
	mov	rbp, rsp
	.cfi_def_cfa_register 6
	mov	QWORD PTR -8[rbp], rdi
	mov	QWORD PTR -16[rbp], rsi
	nop
	pop	rbp
	.cfi_def_cfa 7, 8
	ret
	.cfi_endproc
.LFE11226:
	.size	_ZN9__gnu_cxx13new_allocatorISt6vectorIiSaIiEEEC2ERKS4_, .-_ZN9__gnu_cxx13new_allocatorISt6vectorIiSaIiEEEC2ERKS4_
	.weak	_ZN9__gnu_cxx13new_allocatorISt6vectorIiSaIiEEEC1ERKS4_
	.set	_ZN9__gnu_cxx13new_allocatorISt6vectorIiSaIiEEEC1ERKS4_,_ZN9__gnu_cxx13new_allocatorISt6vectorIiSaIiEEEC2ERKS4_
	.section	.text._ZNSt12_Vector_baseISt6vectorIiSaIiEESaIS2_EE17_Vector_impl_dataC2Ev,"axG",@progbits,_ZNSt12_Vector_baseISt6vectorIiSaIiEESaIS2_EE17_Vector_impl_dataC5Ev,comdat
	.align 2
	.weak	_ZNSt12_Vector_baseISt6vectorIiSaIiEESaIS2_EE17_Vector_impl_dataC2Ev
	.type	_ZNSt12_Vector_baseISt6vectorIiSaIiEESaIS2_EE17_Vector_impl_dataC2Ev, @function
_ZNSt12_Vector_baseISt6vectorIiSaIiEESaIS2_EE17_Vector_impl_dataC2Ev:
.LFB11229:
	.cfi_startproc
	endbr64
	push	rbp
	.cfi_def_cfa_offset 16
	.cfi_offset 6, -16
	mov	rbp, rsp
	.cfi_def_cfa_register 6
	mov	QWORD PTR -8[rbp], rdi
	mov	rax, QWORD PTR -8[rbp]
	mov	QWORD PTR [rax], 0
	mov	rax, QWORD PTR -8[rbp]
	mov	QWORD PTR 8[rax], 0
	mov	rax, QWORD PTR -8[rbp]
	mov	QWORD PTR 16[rax], 0
	nop
	pop	rbp
	.cfi_def_cfa 7, 8
	ret
	.cfi_endproc
.LFE11229:
	.size	_ZNSt12_Vector_baseISt6vectorIiSaIiEESaIS2_EE17_Vector_impl_dataC2Ev, .-_ZNSt12_Vector_baseISt6vectorIiSaIiEESaIS2_EE17_Vector_impl_dataC2Ev
	.weak	_ZNSt12_Vector_baseISt6vectorIiSaIiEESaIS2_EE17_Vector_impl_dataC1Ev
	.set	_ZNSt12_Vector_baseISt6vectorIiSaIiEESaIS2_EE17_Vector_impl_dataC1Ev,_ZNSt12_Vector_baseISt6vectorIiSaIiEESaIS2_EE17_Vector_impl_dataC2Ev
	.section	.text._ZNSt12_Vector_baseISt6vectorIiSaIiEESaIS2_EE11_M_allocateEm,"axG",@progbits,_ZNSt12_Vector_baseISt6vectorIiSaIiEESaIS2_EE11_M_allocateEm,comdat
	.align 2
	.weak	_ZNSt12_Vector_baseISt6vectorIiSaIiEESaIS2_EE11_M_allocateEm
	.type	_ZNSt12_Vector_baseISt6vectorIiSaIiEESaIS2_EE11_M_allocateEm, @function
_ZNSt12_Vector_baseISt6vectorIiSaIiEESaIS2_EE11_M_allocateEm:
.LFB11231:
	.cfi_startproc
	endbr64
	push	rbp
	.cfi_def_cfa_offset 16
	.cfi_offset 6, -16
	mov	rbp, rsp
	.cfi_def_cfa_register 6
	sub	rsp, 16
	mov	QWORD PTR -8[rbp], rdi
	mov	QWORD PTR -16[rbp], rsi
	cmp	QWORD PTR -16[rbp], 0
	je	.L148
	mov	rax, QWORD PTR -8[rbp]
	mov	rdx, QWORD PTR -16[rbp]
	mov	rsi, rdx
	mov	rdi, rax
	call	_ZNSt16allocator_traitsISaISt6vectorIiSaIiEEEE8allocateERS3_m
	jmp	.L150
.L148:
	mov	eax, 0
.L150:
	leave
	.cfi_def_cfa 7, 8
	ret
	.cfi_endproc
.LFE11231:
	.size	_ZNSt12_Vector_baseISt6vectorIiSaIiEESaIS2_EE11_M_allocateEm, .-_ZNSt12_Vector_baseISt6vectorIiSaIiEESaIS2_EE11_M_allocateEm
	.section	.text._ZNSt16allocator_traitsISaISt6vectorIiSaIiEEEE10deallocateERS3_PS2_m,"axG",@progbits,_ZNSt16allocator_traitsISaISt6vectorIiSaIiEEEE10deallocateERS3_PS2_m,comdat
	.weak	_ZNSt16allocator_traitsISaISt6vectorIiSaIiEEEE10deallocateERS3_PS2_m
	.type	_ZNSt16allocator_traitsISaISt6vectorIiSaIiEEEE10deallocateERS3_PS2_m, @function
_ZNSt16allocator_traitsISaISt6vectorIiSaIiEEEE10deallocateERS3_PS2_m:
.LFB11232:
	.cfi_startproc
	endbr64
	push	rbp
	.cfi_def_cfa_offset 16
	.cfi_offset 6, -16
	mov	rbp, rsp
	.cfi_def_cfa_register 6
	sub	rsp, 32
	mov	QWORD PTR -8[rbp], rdi
	mov	QWORD PTR -16[rbp], rsi
	mov	QWORD PTR -24[rbp], rdx
	mov	rdx, QWORD PTR -24[rbp]
	mov	rcx, QWORD PTR -16[rbp]
	mov	rax, QWORD PTR -8[rbp]
	mov	rsi, rcx
	mov	rdi, rax
	call	_ZN9__gnu_cxx13new_allocatorISt6vectorIiSaIiEEE10deallocateEPS3_m
	nop
	leave
	.cfi_def_cfa 7, 8
	ret
	.cfi_endproc
.LFE11232:
	.size	_ZNSt16allocator_traitsISaISt6vectorIiSaIiEEEE10deallocateERS3_PS2_m, .-_ZNSt16allocator_traitsISaISt6vectorIiSaIiEEEE10deallocateERS3_PS2_m
	.section	.text._ZSt20uninitialized_fill_nIPSt6vectorIiSaIiEEmS2_ET_S4_T0_RKT1_,"axG",@progbits,_ZSt20uninitialized_fill_nIPSt6vectorIiSaIiEEmS2_ET_S4_T0_RKT1_,comdat
	.weak	_ZSt20uninitialized_fill_nIPSt6vectorIiSaIiEEmS2_ET_S4_T0_RKT1_
	.type	_ZSt20uninitialized_fill_nIPSt6vectorIiSaIiEEmS2_ET_S4_T0_RKT1_, @function
_ZSt20uninitialized_fill_nIPSt6vectorIiSaIiEEmS2_ET_S4_T0_RKT1_:
.LFB11233:
	.cfi_startproc
	endbr64
	push	rbp
	.cfi_def_cfa_offset 16
	.cfi_offset 6, -16
	mov	rbp, rsp
	.cfi_def_cfa_register 6
	sub	rsp, 48
	mov	QWORD PTR -24[rbp], rdi
	mov	QWORD PTR -32[rbp], rsi
	mov	QWORD PTR -40[rbp], rdx
	mov	BYTE PTR -1[rbp], 1
	mov	rdx, QWORD PTR -40[rbp]
	mov	rcx, QWORD PTR -32[rbp]
	mov	rax, QWORD PTR -24[rbp]
	mov	rsi, rcx
	mov	rdi, rax
	call	_ZNSt22__uninitialized_fill_nILb0EE15__uninit_fill_nIPSt6vectorIiSaIiEEmS4_EET_S6_T0_RKT1_
	leave
	.cfi_def_cfa 7, 8
	ret
	.cfi_endproc
.LFE11233:
	.size	_ZSt20uninitialized_fill_nIPSt6vectorIiSaIiEEmS2_ET_S4_T0_RKT1_, .-_ZSt20uninitialized_fill_nIPSt6vectorIiSaIiEEmS2_ET_S4_T0_RKT1_
	.section	.text._ZNSt12_Destroy_auxILb0EE9__destroyIPSt6vectorIiSaIiEEEEvT_S6_,"axG",@progbits,_ZNSt12_Destroy_auxILb0EE9__destroyIPSt6vectorIiSaIiEEEEvT_S6_,comdat
	.weak	_ZNSt12_Destroy_auxILb0EE9__destroyIPSt6vectorIiSaIiEEEEvT_S6_
	.type	_ZNSt12_Destroy_auxILb0EE9__destroyIPSt6vectorIiSaIiEEEEvT_S6_, @function
_ZNSt12_Destroy_auxILb0EE9__destroyIPSt6vectorIiSaIiEEEEvT_S6_:
.LFB11234:
	.cfi_startproc
	endbr64
	push	rbp
	.cfi_def_cfa_offset 16
	.cfi_offset 6, -16
	mov	rbp, rsp
	.cfi_def_cfa_register 6
	sub	rsp, 16
	mov	QWORD PTR -8[rbp], rdi
	mov	QWORD PTR -16[rbp], rsi
	jmp	.L155
.L156:
	mov	rax, QWORD PTR -8[rbp]
	mov	rdi, rax
	call	_ZSt11__addressofISt6vectorIiSaIiEEEPT_RS3_
	mov	rdi, rax
	call	_ZSt8_DestroyISt6vectorIiSaIiEEEvPT_
	add	QWORD PTR -8[rbp], 24
.L155:
	mov	rax, QWORD PTR -8[rbp]
	cmp	rax, QWORD PTR -16[rbp]
	jne	.L156
	nop
	nop
	leave
	.cfi_def_cfa 7, 8
	ret
	.cfi_endproc
.LFE11234:
	.size	_ZNSt12_Destroy_auxILb0EE9__destroyIPSt6vectorIiSaIiEEEEvT_S6_, .-_ZNSt12_Destroy_auxILb0EE9__destroyIPSt6vectorIiSaIiEEEEvT_S6_
	.section	.text._ZNK9__gnu_cxx13new_allocatorIiE8max_sizeEv,"axG",@progbits,_ZNK9__gnu_cxx13new_allocatorIiE8max_sizeEv,comdat
	.align 2
	.weak	_ZNK9__gnu_cxx13new_allocatorIiE8max_sizeEv
	.type	_ZNK9__gnu_cxx13new_allocatorIiE8max_sizeEv, @function
_ZNK9__gnu_cxx13new_allocatorIiE8max_sizeEv:
.LFB11319:
	.cfi_startproc
	endbr64
	push	rbp
	.cfi_def_cfa_offset 16
	.cfi_offset 6, -16
	mov	rbp, rsp
	.cfi_def_cfa_register 6
	sub	rsp, 16
	mov	QWORD PTR -8[rbp], rdi
	mov	rax, QWORD PTR -8[rbp]
	mov	rdi, rax
	call	_ZNK9__gnu_cxx13new_allocatorIiE11_M_max_sizeEv
	leave
	.cfi_def_cfa 7, 8
	ret
	.cfi_endproc
.LFE11319:
	.size	_ZNK9__gnu_cxx13new_allocatorIiE8max_sizeEv, .-_ZNK9__gnu_cxx13new_allocatorIiE8max_sizeEv
	.section	.text._ZNSt16allocator_traitsISaIiEE8allocateERS0_m,"axG",@progbits,_ZNSt16allocator_traitsISaIiEE8allocateERS0_m,comdat
	.weak	_ZNSt16allocator_traitsISaIiEE8allocateERS0_m
	.type	_ZNSt16allocator_traitsISaIiEE8allocateERS0_m, @function
_ZNSt16allocator_traitsISaIiEE8allocateERS0_m:
.LFB11320:
	.cfi_startproc
	endbr64
	push	rbp
	.cfi_def_cfa_offset 16
	.cfi_offset 6, -16
	mov	rbp, rsp
	.cfi_def_cfa_register 6
	sub	rsp, 16
	mov	QWORD PTR -8[rbp], rdi
	mov	QWORD PTR -16[rbp], rsi
	mov	rcx, QWORD PTR -16[rbp]
	mov	rax, QWORD PTR -8[rbp]
	mov	edx, 0
	mov	rsi, rcx
	mov	rdi, rax
	call	_ZN9__gnu_cxx13new_allocatorIiE8allocateEmPKv
	leave
	.cfi_def_cfa 7, 8
	ret
	.cfi_endproc
.LFE11320:
	.size	_ZNSt16allocator_traitsISaIiEE8allocateERS0_m, .-_ZNSt16allocator_traitsISaIiEE8allocateERS0_m
	.section	.text._ZN9__gnu_cxx13new_allocatorIiE10deallocateEPim,"axG",@progbits,_ZN9__gnu_cxx13new_allocatorIiE10deallocateEPim,comdat
	.align 2
	.weak	_ZN9__gnu_cxx13new_allocatorIiE10deallocateEPim
	.type	_ZN9__gnu_cxx13new_allocatorIiE10deallocateEPim, @function
_ZN9__gnu_cxx13new_allocatorIiE10deallocateEPim:
.LFB11321:
	.cfi_startproc
	endbr64
	push	rbp
	.cfi_def_cfa_offset 16
	.cfi_offset 6, -16
	mov	rbp, rsp
	.cfi_def_cfa_register 6
	sub	rsp, 32
	mov	QWORD PTR -8[rbp], rdi
	mov	QWORD PTR -16[rbp], rsi
	mov	QWORD PTR -24[rbp], rdx
	mov	rax, QWORD PTR -24[rbp]
	lea	rdx, 0[0+rax*4]
	mov	rax, QWORD PTR -16[rbp]
	mov	rsi, rdx
	mov	rdi, rax
	call	_ZdlPvm@PLT
	leave
	.cfi_def_cfa 7, 8
	ret
	.cfi_endproc
.LFE11321:
	.size	_ZN9__gnu_cxx13new_allocatorIiE10deallocateEPim, .-_ZN9__gnu_cxx13new_allocatorIiE10deallocateEPim
	.section	.text._ZSt11__addressofIiEPT_RS0_,"axG",@progbits,_ZSt11__addressofIiEPT_RS0_,comdat
	.weak	_ZSt11__addressofIiEPT_RS0_
	.type	_ZSt11__addressofIiEPT_RS0_, @function
_ZSt11__addressofIiEPT_RS0_:
.LFB11323:
	.cfi_startproc
	endbr64
	push	rbp
	.cfi_def_cfa_offset 16
	.cfi_offset 6, -16
	mov	rbp, rsp
	.cfi_def_cfa_register 6
	mov	QWORD PTR -8[rbp], rdi
	mov	rax, QWORD PTR -8[rbp]
	pop	rbp
	.cfi_def_cfa 7, 8
	ret
	.cfi_endproc
.LFE11323:
	.size	_ZSt11__addressofIiEPT_RS0_, .-_ZSt11__addressofIiEPT_RS0_
	.section	.text._ZNSt27__uninitialized_default_n_1ILb1EE18__uninit_default_nIPimEET_S3_T0_,"axG",@progbits,_ZNSt27__uninitialized_default_n_1ILb1EE18__uninit_default_nIPimEET_S3_T0_,comdat
	.weak	_ZNSt27__uninitialized_default_n_1ILb1EE18__uninit_default_nIPimEET_S3_T0_
	.type	_ZNSt27__uninitialized_default_n_1ILb1EE18__uninit_default_nIPimEET_S3_T0_, @function
_ZNSt27__uninitialized_default_n_1ILb1EE18__uninit_default_nIPimEET_S3_T0_:
.LFB11322:
	.cfi_startproc
	endbr64
	push	rbp
	.cfi_def_cfa_offset 16
	.cfi_offset 6, -16
	mov	rbp, rsp
	.cfi_def_cfa_register 6
	sub	rsp, 32
	mov	QWORD PTR -24[rbp], rdi
	mov	QWORD PTR -32[rbp], rsi
	cmp	QWORD PTR -32[rbp], 0
	je	.L166
	mov	rax, QWORD PTR -24[rbp]
	mov	rdi, rax
	call	_ZSt11__addressofIiEPT_RS0_
	mov	QWORD PTR -8[rbp], rax
	mov	rax, QWORD PTR -8[rbp]
	mov	rdi, rax
	call	_ZSt10_ConstructIiJEEvPT_DpOT0_
	add	QWORD PTR -24[rbp], 4
	mov	rax, QWORD PTR -32[rbp]
	lea	rcx, -1[rax]
	mov	rdx, QWORD PTR -8[rbp]
	mov	rax, QWORD PTR -24[rbp]
	mov	rsi, rcx
	mov	rdi, rax
	call	_ZSt6fill_nIPimiET_S1_T0_RKT1_
	mov	QWORD PTR -24[rbp], rax
.L166:
	mov	rax, QWORD PTR -24[rbp]
	leave
	.cfi_def_cfa 7, 8
	ret
	.cfi_endproc
.LFE11322:
	.size	_ZNSt27__uninitialized_default_n_1ILb1EE18__uninit_default_nIPimEET_S3_T0_, .-_ZNSt27__uninitialized_default_n_1ILb1EE18__uninit_default_nIPimEET_S3_T0_
	.section	.text._ZNSt22__uninitialized_fill_nILb1EE15__uninit_fill_nIPimiEET_S3_T0_RKT1_,"axG",@progbits,_ZNSt22__uninitialized_fill_nILb1EE15__uninit_fill_nIPimiEET_S3_T0_RKT1_,comdat
	.weak	_ZNSt22__uninitialized_fill_nILb1EE15__uninit_fill_nIPimiEET_S3_T0_RKT1_
	.type	_ZNSt22__uninitialized_fill_nILb1EE15__uninit_fill_nIPimiEET_S3_T0_RKT1_, @function
_ZNSt22__uninitialized_fill_nILb1EE15__uninit_fill_nIPimiEET_S3_T0_RKT1_:
.LFB11324:
	.cfi_startproc
	endbr64
	push	rbp
	.cfi_def_cfa_offset 16
	.cfi_offset 6, -16
	mov	rbp, rsp
	.cfi_def_cfa_register 6
	sub	rsp, 32
	mov	QWORD PTR -8[rbp], rdi
	mov	QWORD PTR -16[rbp], rsi
	mov	QWORD PTR -24[rbp], rdx
	mov	rdx, QWORD PTR -24[rbp]
	mov	rcx, QWORD PTR -16[rbp]
	mov	rax, QWORD PTR -8[rbp]
	mov	rsi, rcx
	mov	rdi, rax
	call	_ZSt6fill_nIPimiET_S1_T0_RKT1_
	leave
	.cfi_def_cfa 7, 8
	ret
	.cfi_endproc
.LFE11324:
	.size	_ZNSt22__uninitialized_fill_nILb1EE15__uninit_fill_nIPimiEET_S3_T0_RKT1_, .-_ZNSt22__uninitialized_fill_nILb1EE15__uninit_fill_nIPimiEET_S3_T0_RKT1_
	.section	.text._ZNK9__gnu_cxx13new_allocatorISt6vectorIiSaIiEEE8max_sizeEv,"axG",@progbits,_ZNK9__gnu_cxx13new_allocatorISt6vectorIiSaIiEEE8max_sizeEv,comdat
	.align 2
	.weak	_ZNK9__gnu_cxx13new_allocatorISt6vectorIiSaIiEEE8max_sizeEv
	.type	_ZNK9__gnu_cxx13new_allocatorISt6vectorIiSaIiEEE8max_sizeEv, @function
_ZNK9__gnu_cxx13new_allocatorISt6vectorIiSaIiEEE8max_sizeEv:
.LFB11325:
	.cfi_startproc
	endbr64
	push	rbp
	.cfi_def_cfa_offset 16
	.cfi_offset 6, -16
	mov	rbp, rsp
	.cfi_def_cfa_register 6
	sub	rsp, 16
	mov	QWORD PTR -8[rbp], rdi
	mov	rax, QWORD PTR -8[rbp]
	mov	rdi, rax
	call	_ZNK9__gnu_cxx13new_allocatorISt6vectorIiSaIiEEE11_M_max_sizeEv
	leave
	.cfi_def_cfa 7, 8
	ret
	.cfi_endproc
.LFE11325:
	.size	_ZNK9__gnu_cxx13new_allocatorISt6vectorIiSaIiEEE8max_sizeEv, .-_ZNK9__gnu_cxx13new_allocatorISt6vectorIiSaIiEEE8max_sizeEv
	.section	.text._ZNSt16allocator_traitsISaISt6vectorIiSaIiEEEE8allocateERS3_m,"axG",@progbits,_ZNSt16allocator_traitsISaISt6vectorIiSaIiEEEE8allocateERS3_m,comdat
	.weak	_ZNSt16allocator_traitsISaISt6vectorIiSaIiEEEE8allocateERS3_m
	.type	_ZNSt16allocator_traitsISaISt6vectorIiSaIiEEEE8allocateERS3_m, @function
_ZNSt16allocator_traitsISaISt6vectorIiSaIiEEEE8allocateERS3_m:
.LFB11326:
	.cfi_startproc
	endbr64
	push	rbp
	.cfi_def_cfa_offset 16
	.cfi_offset 6, -16
	mov	rbp, rsp
	.cfi_def_cfa_register 6
	sub	rsp, 16
	mov	QWORD PTR -8[rbp], rdi
	mov	QWORD PTR -16[rbp], rsi
	mov	rcx, QWORD PTR -16[rbp]
	mov	rax, QWORD PTR -8[rbp]
	mov	edx, 0
	mov	rsi, rcx
	mov	rdi, rax
	call	_ZN9__gnu_cxx13new_allocatorISt6vectorIiSaIiEEE8allocateEmPKv
	leave
	.cfi_def_cfa 7, 8
	ret
	.cfi_endproc
.LFE11326:
	.size	_ZNSt16allocator_traitsISaISt6vectorIiSaIiEEEE8allocateERS3_m, .-_ZNSt16allocator_traitsISaISt6vectorIiSaIiEEEE8allocateERS3_m
	.section	.text._ZN9__gnu_cxx13new_allocatorISt6vectorIiSaIiEEE10deallocateEPS3_m,"axG",@progbits,_ZN9__gnu_cxx13new_allocatorISt6vectorIiSaIiEEE10deallocateEPS3_m,comdat
	.align 2
	.weak	_ZN9__gnu_cxx13new_allocatorISt6vectorIiSaIiEEE10deallocateEPS3_m
	.type	_ZN9__gnu_cxx13new_allocatorISt6vectorIiSaIiEEE10deallocateEPS3_m, @function
_ZN9__gnu_cxx13new_allocatorISt6vectorIiSaIiEEE10deallocateEPS3_m:
.LFB11327:
	.cfi_startproc
	endbr64
	push	rbp
	.cfi_def_cfa_offset 16
	.cfi_offset 6, -16
	mov	rbp, rsp
	.cfi_def_cfa_register 6
	sub	rsp, 32
	mov	QWORD PTR -8[rbp], rdi
	mov	QWORD PTR -16[rbp], rsi
	mov	QWORD PTR -24[rbp], rdx
	mov	rdx, QWORD PTR -24[rbp]
	mov	rax, rdx
	add	rax, rax
	add	rax, rdx
	sal	rax, 3
	mov	rdx, rax
	mov	rax, QWORD PTR -16[rbp]
	mov	rsi, rdx
	mov	rdi, rax
	call	_ZdlPvm@PLT
	leave
	.cfi_def_cfa 7, 8
	ret
	.cfi_endproc
.LFE11327:
	.size	_ZN9__gnu_cxx13new_allocatorISt6vectorIiSaIiEEE10deallocateEPS3_m, .-_ZN9__gnu_cxx13new_allocatorISt6vectorIiSaIiEEE10deallocateEPS3_m
	.section	.text._ZNSt22__uninitialized_fill_nILb0EE15__uninit_fill_nIPSt6vectorIiSaIiEEmS4_EET_S6_T0_RKT1_,"axG",@progbits,_ZNSt22__uninitialized_fill_nILb0EE15__uninit_fill_nIPSt6vectorIiSaIiEEmS4_EET_S6_T0_RKT1_,comdat
	.weak	_ZNSt22__uninitialized_fill_nILb0EE15__uninit_fill_nIPSt6vectorIiSaIiEEmS4_EET_S6_T0_RKT1_
	.type	_ZNSt22__uninitialized_fill_nILb0EE15__uninit_fill_nIPSt6vectorIiSaIiEEmS4_EET_S6_T0_RKT1_, @function
_ZNSt22__uninitialized_fill_nILb0EE15__uninit_fill_nIPSt6vectorIiSaIiEEmS4_EET_S6_T0_RKT1_:
.LFB11328:
	.cfi_startproc
	.cfi_personality 0x9b,DW.ref.__gxx_personality_v0
	.cfi_lsda 0x1b,.LLSDA11328
	endbr64
	push	rbp
	.cfi_def_cfa_offset 16
	.cfi_offset 6, -16
	mov	rbp, rsp
	.cfi_def_cfa_register 6
	push	rbx
	sub	rsp, 56
	.cfi_offset 3, -24
	mov	QWORD PTR -40[rbp], rdi
	mov	QWORD PTR -48[rbp], rsi
	mov	QWORD PTR -56[rbp], rdx
	mov	rax, QWORD PTR -40[rbp]
	mov	QWORD PTR -24[rbp], rax
	jmp	.L177
.L178:
	mov	rax, QWORD PTR -24[rbp]
	mov	rdi, rax
	call	_ZSt11__addressofISt6vectorIiSaIiEEEPT_RS3_
	mov	rdx, rax
	mov	rax, QWORD PTR -56[rbp]
	mov	rsi, rax
	mov	rdi, rdx
.LEHB20:
	call	_ZSt10_ConstructISt6vectorIiSaIiEEJRKS2_EEvPT_DpOT0_
.LEHE20:
	sub	QWORD PTR -48[rbp], 1
	add	QWORD PTR -24[rbp], 24
.L177:
	cmp	QWORD PTR -48[rbp], 0
	jne	.L178
	mov	rax, QWORD PTR -24[rbp]
	jmp	.L184
.L182:
	endbr64
	mov	rdi, rax
	call	__cxa_begin_catch@PLT
	mov	rdx, QWORD PTR -24[rbp]
	mov	rax, QWORD PTR -40[rbp]
	mov	rsi, rdx
	mov	rdi, rax
.LEHB21:
	call	_ZSt8_DestroyIPSt6vectorIiSaIiEEEvT_S4_
	call	__cxa_rethrow@PLT
.LEHE21:
.L183:
	endbr64
	mov	rbx, rax
	call	__cxa_end_catch@PLT
	mov	rax, rbx
	mov	rdi, rax
.LEHB22:
	call	_Unwind_Resume@PLT
.LEHE22:
.L184:
	mov	rbx, QWORD PTR -8[rbp]
	leave
	.cfi_def_cfa 7, 8
	ret
	.cfi_endproc
.LFE11328:
	.section	.gcc_except_table
	.align 4
.LLSDA11328:
	.byte	0xff
	.byte	0x9b
	.uleb128 .LLSDATT11328-.LLSDATTD11328
.LLSDATTD11328:
	.byte	0x1
	.uleb128 .LLSDACSE11328-.LLSDACSB11328
.LLSDACSB11328:
	.uleb128 .LEHB20-.LFB11328
	.uleb128 .LEHE20-.LEHB20
	.uleb128 .L182-.LFB11328
	.uleb128 0x1
	.uleb128 .LEHB21-.LFB11328
	.uleb128 .LEHE21-.LEHB21
	.uleb128 .L183-.LFB11328
	.uleb128 0
	.uleb128 .LEHB22-.LFB11328
	.uleb128 .LEHE22-.LEHB22
	.uleb128 0
	.uleb128 0
.LLSDACSE11328:
	.byte	0x1
	.byte	0
	.align 4
	.long	0

.LLSDATT11328:
	.section	.text._ZNSt22__uninitialized_fill_nILb0EE15__uninit_fill_nIPSt6vectorIiSaIiEEmS4_EET_S6_T0_RKT1_,"axG",@progbits,_ZNSt22__uninitialized_fill_nILb0EE15__uninit_fill_nIPSt6vectorIiSaIiEEmS4_EET_S6_T0_RKT1_,comdat
	.size	_ZNSt22__uninitialized_fill_nILb0EE15__uninit_fill_nIPSt6vectorIiSaIiEEmS4_EET_S6_T0_RKT1_, .-_ZNSt22__uninitialized_fill_nILb0EE15__uninit_fill_nIPSt6vectorIiSaIiEEmS4_EET_S6_T0_RKT1_
	.section	.text._ZSt11__addressofISt6vectorIiSaIiEEEPT_RS3_,"axG",@progbits,_ZSt11__addressofISt6vectorIiSaIiEEEPT_RS3_,comdat
	.weak	_ZSt11__addressofISt6vectorIiSaIiEEEPT_RS3_
	.type	_ZSt11__addressofISt6vectorIiSaIiEEEPT_RS3_, @function
_ZSt11__addressofISt6vectorIiSaIiEEEPT_RS3_:
.LFB11329:
	.cfi_startproc
	endbr64
	push	rbp
	.cfi_def_cfa_offset 16
	.cfi_offset 6, -16
	mov	rbp, rsp
	.cfi_def_cfa_register 6
	mov	QWORD PTR -8[rbp], rdi
	mov	rax, QWORD PTR -8[rbp]
	pop	rbp
	.cfi_def_cfa 7, 8
	ret
	.cfi_endproc
.LFE11329:
	.size	_ZSt11__addressofISt6vectorIiSaIiEEEPT_RS3_, .-_ZSt11__addressofISt6vectorIiSaIiEEEPT_RS3_
	.section	.text._ZSt8_DestroyISt6vectorIiSaIiEEEvPT_,"axG",@progbits,_ZSt8_DestroyISt6vectorIiSaIiEEEvPT_,comdat
	.weak	_ZSt8_DestroyISt6vectorIiSaIiEEEvPT_
	.type	_ZSt8_DestroyISt6vectorIiSaIiEEEvPT_, @function
_ZSt8_DestroyISt6vectorIiSaIiEEEvPT_:
.LFB11330:
	.cfi_startproc
	endbr64
	push	rbp
	.cfi_def_cfa_offset 16
	.cfi_offset 6, -16
	mov	rbp, rsp
	.cfi_def_cfa_register 6
	sub	rsp, 16
	mov	QWORD PTR -8[rbp], rdi
	mov	rax, QWORD PTR -8[rbp]
	mov	rdi, rax
	call	_ZNSt6vectorIiSaIiEED1Ev
	nop
	leave
	.cfi_def_cfa 7, 8
	ret
	.cfi_endproc
.LFE11330:
	.size	_ZSt8_DestroyISt6vectorIiSaIiEEEvPT_, .-_ZSt8_DestroyISt6vectorIiSaIiEEEvPT_
	.section	.text._ZNK9__gnu_cxx13new_allocatorIiE11_M_max_sizeEv,"axG",@progbits,_ZNK9__gnu_cxx13new_allocatorIiE11_M_max_sizeEv,comdat
	.align 2
	.weak	_ZNK9__gnu_cxx13new_allocatorIiE11_M_max_sizeEv
	.type	_ZNK9__gnu_cxx13new_allocatorIiE11_M_max_sizeEv, @function
_ZNK9__gnu_cxx13new_allocatorIiE11_M_max_sizeEv:
.LFB11436:
	.cfi_startproc
	endbr64
	push	rbp
	.cfi_def_cfa_offset 16
	.cfi_offset 6, -16
	mov	rbp, rsp
	.cfi_def_cfa_register 6
	mov	QWORD PTR -8[rbp], rdi
	movabs	rax, 2305843009213693951
	pop	rbp
	.cfi_def_cfa 7, 8
	ret
	.cfi_endproc
.LFE11436:
	.size	_ZNK9__gnu_cxx13new_allocatorIiE11_M_max_sizeEv, .-_ZNK9__gnu_cxx13new_allocatorIiE11_M_max_sizeEv
	.section	.text._ZN9__gnu_cxx13new_allocatorIiE8allocateEmPKv,"axG",@progbits,_ZN9__gnu_cxx13new_allocatorIiE8allocateEmPKv,comdat
	.align 2
	.weak	_ZN9__gnu_cxx13new_allocatorIiE8allocateEmPKv
	.type	_ZN9__gnu_cxx13new_allocatorIiE8allocateEmPKv, @function
_ZN9__gnu_cxx13new_allocatorIiE8allocateEmPKv:
.LFB11437:
	.cfi_startproc
	endbr64
	push	rbp
	.cfi_def_cfa_offset 16
	.cfi_offset 6, -16
	mov	rbp, rsp
	.cfi_def_cfa_register 6
	sub	rsp, 32
	mov	QWORD PTR -8[rbp], rdi
	mov	QWORD PTR -16[rbp], rsi
	mov	QWORD PTR -24[rbp], rdx
	mov	rax, QWORD PTR -8[rbp]
	mov	rdi, rax
	call	_ZNK9__gnu_cxx13new_allocatorIiE11_M_max_sizeEv
	cmp	QWORD PTR -16[rbp], rax
	seta	al
	movzx	eax, al
	test	rax, rax
	setne	al
	test	al, al
	je	.L191
	movabs	rax, 4611686018427387903
	cmp	QWORD PTR -16[rbp], rax
	jbe	.L192
	call	_ZSt28__throw_bad_array_new_lengthv@PLT
.L192:
	call	_ZSt17__throw_bad_allocv@PLT
.L191:
	mov	rax, QWORD PTR -16[rbp]
	sal	rax, 2
	mov	rdi, rax
	call	_Znwm@PLT
	nop
	leave
	.cfi_def_cfa 7, 8
	ret
	.cfi_endproc
.LFE11437:
	.size	_ZN9__gnu_cxx13new_allocatorIiE8allocateEmPKv, .-_ZN9__gnu_cxx13new_allocatorIiE8allocateEmPKv
	.section	.text._ZSt10_ConstructIiJEEvPT_DpOT0_,"axG",@progbits,_ZSt10_ConstructIiJEEvPT_DpOT0_,comdat
	.weak	_ZSt10_ConstructIiJEEvPT_DpOT0_
	.type	_ZSt10_ConstructIiJEEvPT_DpOT0_, @function
_ZSt10_ConstructIiJEEvPT_DpOT0_:
.LFB11438:
	.cfi_startproc
	endbr64
	push	rbp
	.cfi_def_cfa_offset 16
	.cfi_offset 6, -16
	mov	rbp, rsp
	.cfi_def_cfa_register 6
	sub	rsp, 16
	mov	QWORD PTR -8[rbp], rdi
	mov	rax, QWORD PTR -8[rbp]
	mov	rsi, rax
	mov	edi, 4
	call	_ZnwmPv
	mov	DWORD PTR [rax], 0
	nop
	leave
	.cfi_def_cfa 7, 8
	ret
	.cfi_endproc
.LFE11438:
	.size	_ZSt10_ConstructIiJEEvPT_DpOT0_, .-_ZSt10_ConstructIiJEEvPT_DpOT0_
	.section	.text._ZSt6fill_nIPimiET_S1_T0_RKT1_,"axG",@progbits,_ZSt6fill_nIPimiET_S1_T0_RKT1_,comdat
	.weak	_ZSt6fill_nIPimiET_S1_T0_RKT1_
	.type	_ZSt6fill_nIPimiET_S1_T0_RKT1_, @function
_ZSt6fill_nIPimiET_S1_T0_RKT1_:
.LFB11439:
	.cfi_startproc
	endbr64
	push	rbp
	.cfi_def_cfa_offset 16
	.cfi_offset 6, -16
	mov	rbp, rsp
	.cfi_def_cfa_register 6
	sub	rsp, 32
	mov	QWORD PTR -8[rbp], rdi
	mov	QWORD PTR -16[rbp], rsi
	mov	QWORD PTR -24[rbp], rdx
	lea	rax, -8[rbp]
	mov	rdi, rax
	call	_ZSt19__iterator_categoryIPiENSt15iterator_traitsIT_E17iterator_categoryERKS2_
	mov	rax, QWORD PTR -16[rbp]
	mov	rdi, rax
	call	_ZSt17__size_to_integerm
	mov	rcx, rax
	mov	rax, QWORD PTR -8[rbp]
	mov	rdx, QWORD PTR -24[rbp]
	mov	rsi, rcx
	mov	rdi, rax
	call	_ZSt10__fill_n_aIPimiET_S1_T0_RKT1_St26random_access_iterator_tag
	leave
	.cfi_def_cfa 7, 8
	ret
	.cfi_endproc
.LFE11439:
	.size	_ZSt6fill_nIPimiET_S1_T0_RKT1_, .-_ZSt6fill_nIPimiET_S1_T0_RKT1_
	.section	.text._ZNK9__gnu_cxx13new_allocatorISt6vectorIiSaIiEEE11_M_max_sizeEv,"axG",@progbits,_ZNK9__gnu_cxx13new_allocatorISt6vectorIiSaIiEEE11_M_max_sizeEv,comdat
	.align 2
	.weak	_ZNK9__gnu_cxx13new_allocatorISt6vectorIiSaIiEEE11_M_max_sizeEv
	.type	_ZNK9__gnu_cxx13new_allocatorISt6vectorIiSaIiEEE11_M_max_sizeEv, @function
_ZNK9__gnu_cxx13new_allocatorISt6vectorIiSaIiEEE11_M_max_sizeEv:
.LFB11440:
	.cfi_startproc
	endbr64
	push	rbp
	.cfi_def_cfa_offset 16
	.cfi_offset 6, -16
	mov	rbp, rsp
	.cfi_def_cfa_register 6
	mov	QWORD PTR -8[rbp], rdi
	movabs	rax, 384307168202282325
	pop	rbp
	.cfi_def_cfa 7, 8
	ret
	.cfi_endproc
.LFE11440:
	.size	_ZNK9__gnu_cxx13new_allocatorISt6vectorIiSaIiEEE11_M_max_sizeEv, .-_ZNK9__gnu_cxx13new_allocatorISt6vectorIiSaIiEEE11_M_max_sizeEv
	.section	.text._ZN9__gnu_cxx13new_allocatorISt6vectorIiSaIiEEE8allocateEmPKv,"axG",@progbits,_ZN9__gnu_cxx13new_allocatorISt6vectorIiSaIiEEE8allocateEmPKv,comdat
	.align 2
	.weak	_ZN9__gnu_cxx13new_allocatorISt6vectorIiSaIiEEE8allocateEmPKv
	.type	_ZN9__gnu_cxx13new_allocatorISt6vectorIiSaIiEEE8allocateEmPKv, @function
_ZN9__gnu_cxx13new_allocatorISt6vectorIiSaIiEEE8allocateEmPKv:
.LFB11441:
	.cfi_startproc
	endbr64
	push	rbp
	.cfi_def_cfa_offset 16
	.cfi_offset 6, -16
	mov	rbp, rsp
	.cfi_def_cfa_register 6
	sub	rsp, 32
	mov	QWORD PTR -8[rbp], rdi
	mov	QWORD PTR -16[rbp], rsi
	mov	QWORD PTR -24[rbp], rdx
	mov	rax, QWORD PTR -8[rbp]
	mov	rdi, rax
	call	_ZNK9__gnu_cxx13new_allocatorISt6vectorIiSaIiEEE11_M_max_sizeEv
	cmp	QWORD PTR -16[rbp], rax
	seta	al
	movzx	eax, al
	test	rax, rax
	setne	al
	test	al, al
	je	.L200
	movabs	rax, 768614336404564650
	cmp	QWORD PTR -16[rbp], rax
	jbe	.L201
	call	_ZSt28__throw_bad_array_new_lengthv@PLT
.L201:
	call	_ZSt17__throw_bad_allocv@PLT
.L200:
	mov	rdx, QWORD PTR -16[rbp]
	mov	rax, rdx
	add	rax, rax
	add	rax, rdx
	sal	rax, 3
	mov	rdi, rax
	call	_Znwm@PLT
	nop
	leave
	.cfi_def_cfa 7, 8
	ret
	.cfi_endproc
.LFE11441:
	.size	_ZN9__gnu_cxx13new_allocatorISt6vectorIiSaIiEEE8allocateEmPKv, .-_ZN9__gnu_cxx13new_allocatorISt6vectorIiSaIiEEE8allocateEmPKv
	.section	.text._ZSt10_ConstructISt6vectorIiSaIiEEJRKS2_EEvPT_DpOT0_,"axG",@progbits,_ZSt10_ConstructISt6vectorIiSaIiEEJRKS2_EEvPT_DpOT0_,comdat
	.weak	_ZSt10_ConstructISt6vectorIiSaIiEEJRKS2_EEvPT_DpOT0_
	.type	_ZSt10_ConstructISt6vectorIiSaIiEEJRKS2_EEvPT_DpOT0_, @function
_ZSt10_ConstructISt6vectorIiSaIiEEJRKS2_EEvPT_DpOT0_:
.LFB11442:
	.cfi_startproc
	.cfi_personality 0x9b,DW.ref.__gxx_personality_v0
	.cfi_lsda 0x1b,.LLSDA11442
	endbr64
	push	rbp
	.cfi_def_cfa_offset 16
	.cfi_offset 6, -16
	mov	rbp, rsp
	.cfi_def_cfa_register 6
	push	r13
	push	r12
	push	rbx
	sub	rsp, 24
	.cfi_offset 13, -24
	.cfi_offset 12, -32
	.cfi_offset 3, -40
	mov	QWORD PTR -40[rbp], rdi
	mov	QWORD PTR -48[rbp], rsi
	mov	rax, QWORD PTR -48[rbp]
	mov	rdi, rax
	call	_ZSt7forwardIRKSt6vectorIiSaIiEEEOT_RNSt16remove_referenceIS5_E4typeE
	mov	r13, rax
	mov	rbx, QWORD PTR -40[rbp]
	mov	rsi, rbx
	mov	edi, 24
	call	_ZnwmPv
	mov	r12, rax
	mov	rsi, r13
	mov	rdi, r12
.LEHB23:
	call	_ZNSt6vectorIiSaIiEEC1ERKS1_
.LEHE23:
	jmp	.L206
.L205:
	endbr64
	mov	r13, rax
	mov	rsi, rbx
	mov	rdi, r12
	call	_ZdlPvS_
	mov	rax, r13
	mov	rdi, rax
.LEHB24:
	call	_Unwind_Resume@PLT
.LEHE24:
.L206:
	add	rsp, 24
	pop	rbx
	pop	r12
	pop	r13
	pop	rbp
	.cfi_def_cfa 7, 8
	ret
	.cfi_endproc
.LFE11442:
	.section	.gcc_except_table
.LLSDA11442:
	.byte	0xff
	.byte	0xff
	.byte	0x1
	.uleb128 .LLSDACSE11442-.LLSDACSB11442
.LLSDACSB11442:
	.uleb128 .LEHB23-.LFB11442
	.uleb128 .LEHE23-.LEHB23
	.uleb128 .L205-.LFB11442
	.uleb128 0
	.uleb128 .LEHB24-.LFB11442
	.uleb128 .LEHE24-.LEHB24
	.uleb128 0
	.uleb128 0
.LLSDACSE11442:
	.section	.text._ZSt10_ConstructISt6vectorIiSaIiEEJRKS2_EEvPT_DpOT0_,"axG",@progbits,_ZSt10_ConstructISt6vectorIiSaIiEEJRKS2_EEvPT_DpOT0_,comdat
	.size	_ZSt10_ConstructISt6vectorIiSaIiEEJRKS2_EEvPT_DpOT0_, .-_ZSt10_ConstructISt6vectorIiSaIiEEJRKS2_EEvPT_DpOT0_
	.section	.text._ZSt19__iterator_categoryIPiENSt15iterator_traitsIT_E17iterator_categoryERKS2_,"axG",@progbits,_ZSt19__iterator_categoryIPiENSt15iterator_traitsIT_E17iterator_categoryERKS2_,comdat
	.weak	_ZSt19__iterator_categoryIPiENSt15iterator_traitsIT_E17iterator_categoryERKS2_
	.type	_ZSt19__iterator_categoryIPiENSt15iterator_traitsIT_E17iterator_categoryERKS2_, @function
_ZSt19__iterator_categoryIPiENSt15iterator_traitsIT_E17iterator_categoryERKS2_:
.LFB11510:
	.cfi_startproc
	endbr64
	push	rbp
	.cfi_def_cfa_offset 16
	.cfi_offset 6, -16
	mov	rbp, rsp
	.cfi_def_cfa_register 6
	mov	QWORD PTR -8[rbp], rdi
	pop	rbp
	.cfi_def_cfa 7, 8
	ret
	.cfi_endproc
.LFE11510:
	.size	_ZSt19__iterator_categoryIPiENSt15iterator_traitsIT_E17iterator_categoryERKS2_, .-_ZSt19__iterator_categoryIPiENSt15iterator_traitsIT_E17iterator_categoryERKS2_
	.section	.text._ZSt10__fill_n_aIPimiET_S1_T0_RKT1_St26random_access_iterator_tag,"axG",@progbits,_ZSt10__fill_n_aIPimiET_S1_T0_RKT1_St26random_access_iterator_tag,comdat
	.weak	_ZSt10__fill_n_aIPimiET_S1_T0_RKT1_St26random_access_iterator_tag
	.type	_ZSt10__fill_n_aIPimiET_S1_T0_RKT1_St26random_access_iterator_tag, @function
_ZSt10__fill_n_aIPimiET_S1_T0_RKT1_St26random_access_iterator_tag:
.LFB11511:
	.cfi_startproc
	endbr64
	push	rbp
	.cfi_def_cfa_offset 16
	.cfi_offset 6, -16
	mov	rbp, rsp
	.cfi_def_cfa_register 6
	sub	rsp, 32
	mov	QWORD PTR -8[rbp], rdi
	mov	QWORD PTR -16[rbp], rsi
	mov	QWORD PTR -24[rbp], rdx
	cmp	QWORD PTR -16[rbp], 0
	jne	.L210
	mov	rax, QWORD PTR -8[rbp]
	jmp	.L211
.L210:
	mov	rax, QWORD PTR -16[rbp]
	lea	rdx, 0[0+rax*4]
	mov	rax, QWORD PTR -8[rbp]
	lea	rcx, [rdx+rax]
	mov	rdx, QWORD PTR -24[rbp]
	mov	rax, QWORD PTR -8[rbp]
	mov	rsi, rcx
	mov	rdi, rax
	call	_ZSt8__fill_aIPiiEvT_S1_RKT0_
	mov	rax, QWORD PTR -16[rbp]
	lea	rdx, 0[0+rax*4]
	mov	rax, QWORD PTR -8[rbp]
	add	rax, rdx
.L211:
	leave
	.cfi_def_cfa 7, 8
	ret
	.cfi_endproc
.LFE11511:
	.size	_ZSt10__fill_n_aIPimiET_S1_T0_RKT1_St26random_access_iterator_tag, .-_ZSt10__fill_n_aIPimiET_S1_T0_RKT1_St26random_access_iterator_tag
	.section	.text._ZSt7forwardIRKSt6vectorIiSaIiEEEOT_RNSt16remove_referenceIS5_E4typeE,"axG",@progbits,_ZSt7forwardIRKSt6vectorIiSaIiEEEOT_RNSt16remove_referenceIS5_E4typeE,comdat
	.weak	_ZSt7forwardIRKSt6vectorIiSaIiEEEOT_RNSt16remove_referenceIS5_E4typeE
	.type	_ZSt7forwardIRKSt6vectorIiSaIiEEEOT_RNSt16remove_referenceIS5_E4typeE, @function
_ZSt7forwardIRKSt6vectorIiSaIiEEEOT_RNSt16remove_referenceIS5_E4typeE:
.LFB11512:
	.cfi_startproc
	endbr64
	push	rbp
	.cfi_def_cfa_offset 16
	.cfi_offset 6, -16
	mov	rbp, rsp
	.cfi_def_cfa_register 6
	mov	QWORD PTR -8[rbp], rdi
	mov	rax, QWORD PTR -8[rbp]
	pop	rbp
	.cfi_def_cfa 7, 8
	ret
	.cfi_endproc
.LFE11512:
	.size	_ZSt7forwardIRKSt6vectorIiSaIiEEEOT_RNSt16remove_referenceIS5_E4typeE, .-_ZSt7forwardIRKSt6vectorIiSaIiEEEOT_RNSt16remove_referenceIS5_E4typeE
	.section	.text._ZNSt6vectorIiSaIiEEC2ERKS1_,"axG",@progbits,_ZNSt6vectorIiSaIiEEC5ERKS1_,comdat
	.align 2
	.weak	_ZNSt6vectorIiSaIiEEC2ERKS1_
	.type	_ZNSt6vectorIiSaIiEEC2ERKS1_, @function
_ZNSt6vectorIiSaIiEEC2ERKS1_:
.LFB11514:
	.cfi_startproc
	.cfi_personality 0x9b,DW.ref.__gxx_personality_v0
	.cfi_lsda 0x1b,.LLSDA11514
	endbr64
	push	rbp
	.cfi_def_cfa_offset 16
	.cfi_offset 6, -16
	mov	rbp, rsp
	.cfi_def_cfa_register 6
	push	r13
	push	r12
	push	rbx
	sub	rsp, 40
	.cfi_offset 13, -24
	.cfi_offset 12, -32
	.cfi_offset 3, -40
	mov	QWORD PTR -56[rbp], rdi
	mov	QWORD PTR -64[rbp], rsi
	mov	rax, QWORD PTR fs:40
	mov	QWORD PTR -40[rbp], rax
	xor	eax, eax
	mov	rbx, QWORD PTR -56[rbp]
	mov	rax, QWORD PTR -64[rbp]
	mov	rdi, rax
	call	_ZNKSt12_Vector_baseIiSaIiEE19_M_get_Tp_allocatorEv
	mov	rdx, rax
	lea	rax, -41[rbp]
	mov	rsi, rdx
	mov	rdi, rax
.LEHB25:
	call	_ZN9__gnu_cxx14__alloc_traitsISaIiEiE17_S_select_on_copyERKS1_
.LEHE25:
	mov	rax, QWORD PTR -64[rbp]
	mov	rdi, rax
	call	_ZNKSt6vectorIiSaIiEE4sizeEv
	mov	rcx, rax
	lea	rax, -41[rbp]
	mov	rdx, rax
	mov	rsi, rcx
	mov	rdi, rbx
.LEHB26:
	call	_ZNSt12_Vector_baseIiSaIiEEC2EmRKS0_
.LEHE26:
	lea	rax, -41[rbp]
	mov	rdi, rax
	call	_ZNSaIiED1Ev
	mov	rax, QWORD PTR -56[rbp]
	mov	rdi, rax
	call	_ZNSt12_Vector_baseIiSaIiEE19_M_get_Tp_allocatorEv
	mov	r13, rax
	mov	rax, QWORD PTR -56[rbp]
	mov	rbx, QWORD PTR [rax]
	mov	rax, QWORD PTR -64[rbp]
	mov	rdi, rax
	call	_ZNKSt6vectorIiSaIiEE3endEv
	mov	r12, rax
	mov	rax, QWORD PTR -64[rbp]
	mov	rdi, rax
	call	_ZNKSt6vectorIiSaIiEE5beginEv
	mov	rcx, r13
	mov	rdx, rbx
	mov	rsi, r12
	mov	rdi, rax
.LEHB27:
	call	_ZSt22__uninitialized_copy_aIN9__gnu_cxx17__normal_iteratorIPKiSt6vectorIiSaIiEEEEPiiET0_T_SA_S9_RSaIT1_E
.LEHE27:
	mov	rdx, QWORD PTR -56[rbp]
	mov	QWORD PTR 8[rdx], rax
	nop
	mov	rax, QWORD PTR -40[rbp]
	sub	rax, QWORD PTR fs:40
	je	.L217
	jmp	.L220
.L218:
	endbr64
	mov	rbx, rax
	lea	rax, -41[rbp]
	mov	rdi, rax
	call	_ZNSaIiED1Ev
	mov	rax, rbx
	mov	rdi, rax
.LEHB28:
	call	_Unwind_Resume@PLT
.L219:
	endbr64
	mov	rbx, rax
	mov	rax, QWORD PTR -56[rbp]
	mov	rdi, rax
	call	_ZNSt12_Vector_baseIiSaIiEED2Ev
	mov	rax, rbx
	mov	rdi, rax
	call	_Unwind_Resume@PLT
.LEHE28:
.L220:
	call	__stack_chk_fail@PLT
.L217:
	add	rsp, 40
	pop	rbx
	pop	r12
	pop	r13
	pop	rbp
	.cfi_def_cfa 7, 8
	ret
	.cfi_endproc
.LFE11514:
	.section	.gcc_except_table
.LLSDA11514:
	.byte	0xff
	.byte	0xff
	.byte	0x1
	.uleb128 .LLSDACSE11514-.LLSDACSB11514
.LLSDACSB11514:
	.uleb128 .LEHB25-.LFB11514
	.uleb128 .LEHE25-.LEHB25
	.uleb128 0
	.uleb128 0
	.uleb128 .LEHB26-.LFB11514
	.uleb128 .LEHE26-.LEHB26
	.uleb128 .L218-.LFB11514
	.uleb128 0
	.uleb128 .LEHB27-.LFB11514
	.uleb128 .LEHE27-.LEHB27
	.uleb128 .L219-.LFB11514
	.uleb128 0
	.uleb128 .LEHB28-.LFB11514
	.uleb128 .LEHE28-.LEHB28
	.uleb128 0
	.uleb128 0
.LLSDACSE11514:
	.section	.text._ZNSt6vectorIiSaIiEEC2ERKS1_,"axG",@progbits,_ZNSt6vectorIiSaIiEEC5ERKS1_,comdat
	.size	_ZNSt6vectorIiSaIiEEC2ERKS1_, .-_ZNSt6vectorIiSaIiEEC2ERKS1_
	.weak	_ZNSt6vectorIiSaIiEEC1ERKS1_
	.set	_ZNSt6vectorIiSaIiEEC1ERKS1_,_ZNSt6vectorIiSaIiEEC2ERKS1_
	.section	.text._ZSt8__fill_aIPiiEvT_S1_RKT0_,"axG",@progbits,_ZSt8__fill_aIPiiEvT_S1_RKT0_,comdat
	.weak	_ZSt8__fill_aIPiiEvT_S1_RKT0_
	.type	_ZSt8__fill_aIPiiEvT_S1_RKT0_, @function
_ZSt8__fill_aIPiiEvT_S1_RKT0_:
.LFB11545:
	.cfi_startproc
	endbr64
	push	rbp
	.cfi_def_cfa_offset 16
	.cfi_offset 6, -16
	mov	rbp, rsp
	.cfi_def_cfa_register 6
	sub	rsp, 32
	mov	QWORD PTR -8[rbp], rdi
	mov	QWORD PTR -16[rbp], rsi
	mov	QWORD PTR -24[rbp], rdx
	mov	rdx, QWORD PTR -24[rbp]
	mov	rcx, QWORD PTR -16[rbp]
	mov	rax, QWORD PTR -8[rbp]
	mov	rsi, rcx
	mov	rdi, rax
	call	_ZSt9__fill_a1IPiiEN9__gnu_cxx11__enable_ifIXsrSt11__is_scalarIT0_E7__valueEvE6__typeET_S8_RKS4_
	nop
	leave
	.cfi_def_cfa 7, 8
	ret
	.cfi_endproc
.LFE11545:
	.size	_ZSt8__fill_aIPiiEvT_S1_RKT0_, .-_ZSt8__fill_aIPiiEvT_S1_RKT0_
	.section	.text._ZNKSt6vectorIiSaIiEE4sizeEv,"axG",@progbits,_ZNKSt6vectorIiSaIiEE4sizeEv,comdat
	.align 2
	.weak	_ZNKSt6vectorIiSaIiEE4sizeEv
	.type	_ZNKSt6vectorIiSaIiEE4sizeEv, @function
_ZNKSt6vectorIiSaIiEE4sizeEv:
.LFB11546:
	.cfi_startproc
	endbr64
	push	rbp
	.cfi_def_cfa_offset 16
	.cfi_offset 6, -16
	mov	rbp, rsp
	.cfi_def_cfa_register 6
	mov	QWORD PTR -8[rbp], rdi
	mov	rax, QWORD PTR -8[rbp]
	mov	rdx, QWORD PTR 8[rax]
	mov	rax, QWORD PTR -8[rbp]
	mov	rcx, QWORD PTR [rax]
	mov	rax, rdx
	sub	rax, rcx
	sar	rax, 2
	pop	rbp
	.cfi_def_cfa 7, 8
	ret
	.cfi_endproc
.LFE11546:
	.size	_ZNKSt6vectorIiSaIiEE4sizeEv, .-_ZNKSt6vectorIiSaIiEE4sizeEv
	.section	.text._ZN9__gnu_cxx14__alloc_traitsISaIiEiE17_S_select_on_copyERKS1_,"axG",@progbits,_ZN9__gnu_cxx14__alloc_traitsISaIiEiE17_S_select_on_copyERKS1_,comdat
	.weak	_ZN9__gnu_cxx14__alloc_traitsISaIiEiE17_S_select_on_copyERKS1_
	.type	_ZN9__gnu_cxx14__alloc_traitsISaIiEiE17_S_select_on_copyERKS1_, @function
_ZN9__gnu_cxx14__alloc_traitsISaIiEiE17_S_select_on_copyERKS1_:
.LFB11547:
	.cfi_startproc
	endbr64
	push	rbp
	.cfi_def_cfa_offset 16
	.cfi_offset 6, -16
	mov	rbp, rsp
	.cfi_def_cfa_register 6
	sub	rsp, 32
	mov	QWORD PTR -24[rbp], rdi
	mov	QWORD PTR -32[rbp], rsi
	mov	rax, QWORD PTR fs:40
	mov	QWORD PTR -8[rbp], rax
	xor	eax, eax
	mov	rax, QWORD PTR -24[rbp]
	mov	rdx, QWORD PTR -32[rbp]
	mov	rsi, rdx
	mov	rdi, rax
	call	_ZNSt16allocator_traitsISaIiEE37select_on_container_copy_constructionERKS0_
	mov	rax, QWORD PTR -8[rbp]
	sub	rax, QWORD PTR fs:40
	je	.L226
	call	__stack_chk_fail@PLT
.L226:
	mov	rax, QWORD PTR -24[rbp]
	leave
	.cfi_def_cfa 7, 8
	ret
	.cfi_endproc
.LFE11547:
	.size	_ZN9__gnu_cxx14__alloc_traitsISaIiEiE17_S_select_on_copyERKS1_, .-_ZN9__gnu_cxx14__alloc_traitsISaIiEiE17_S_select_on_copyERKS1_
	.section	.text._ZNKSt12_Vector_baseIiSaIiEE19_M_get_Tp_allocatorEv,"axG",@progbits,_ZNKSt12_Vector_baseIiSaIiEE19_M_get_Tp_allocatorEv,comdat
	.align 2
	.weak	_ZNKSt12_Vector_baseIiSaIiEE19_M_get_Tp_allocatorEv
	.type	_ZNKSt12_Vector_baseIiSaIiEE19_M_get_Tp_allocatorEv, @function
_ZNKSt12_Vector_baseIiSaIiEE19_M_get_Tp_allocatorEv:
.LFB11548:
	.cfi_startproc
	endbr64
	push	rbp
	.cfi_def_cfa_offset 16
	.cfi_offset 6, -16
	mov	rbp, rsp
	.cfi_def_cfa_register 6
	mov	QWORD PTR -8[rbp], rdi
	mov	rax, QWORD PTR -8[rbp]
	pop	rbp
	.cfi_def_cfa 7, 8
	ret
	.cfi_endproc
.LFE11548:
	.size	_ZNKSt12_Vector_baseIiSaIiEE19_M_get_Tp_allocatorEv, .-_ZNKSt12_Vector_baseIiSaIiEE19_M_get_Tp_allocatorEv
	.section	.text._ZNKSt6vectorIiSaIiEE5beginEv,"axG",@progbits,_ZNKSt6vectorIiSaIiEE5beginEv,comdat
	.align 2
	.weak	_ZNKSt6vectorIiSaIiEE5beginEv
	.type	_ZNKSt6vectorIiSaIiEE5beginEv, @function
_ZNKSt6vectorIiSaIiEE5beginEv:
.LFB11549:
	.cfi_startproc
	endbr64
	push	rbp
	.cfi_def_cfa_offset 16
	.cfi_offset 6, -16
	mov	rbp, rsp
	.cfi_def_cfa_register 6
	sub	rsp, 32
	mov	QWORD PTR -24[rbp], rdi
	mov	rax, QWORD PTR fs:40
	mov	QWORD PTR -8[rbp], rax
	xor	eax, eax
	mov	rdx, QWORD PTR -24[rbp]
	lea	rax, -16[rbp]
	mov	rsi, rdx
	mov	rdi, rax
	call	_ZN9__gnu_cxx17__normal_iteratorIPKiSt6vectorIiSaIiEEEC1ERKS2_
	mov	rax, QWORD PTR -16[rbp]
	mov	rdx, QWORD PTR -8[rbp]
	sub	rdx, QWORD PTR fs:40
	je	.L231
	call	__stack_chk_fail@PLT
.L231:
	leave
	.cfi_def_cfa 7, 8
	ret
	.cfi_endproc
.LFE11549:
	.size	_ZNKSt6vectorIiSaIiEE5beginEv, .-_ZNKSt6vectorIiSaIiEE5beginEv
	.section	.text._ZNKSt6vectorIiSaIiEE3endEv,"axG",@progbits,_ZNKSt6vectorIiSaIiEE3endEv,comdat
	.align 2
	.weak	_ZNKSt6vectorIiSaIiEE3endEv
	.type	_ZNKSt6vectorIiSaIiEE3endEv, @function
_ZNKSt6vectorIiSaIiEE3endEv:
.LFB11550:
	.cfi_startproc
	endbr64
	push	rbp
	.cfi_def_cfa_offset 16
	.cfi_offset 6, -16
	mov	rbp, rsp
	.cfi_def_cfa_register 6
	sub	rsp, 32
	mov	QWORD PTR -24[rbp], rdi
	mov	rax, QWORD PTR fs:40
	mov	QWORD PTR -8[rbp], rax
	xor	eax, eax
	mov	rax, QWORD PTR -24[rbp]
	lea	rdx, 8[rax]
	lea	rax, -16[rbp]
	mov	rsi, rdx
	mov	rdi, rax
	call	_ZN9__gnu_cxx17__normal_iteratorIPKiSt6vectorIiSaIiEEEC1ERKS2_
	mov	rax, QWORD PTR -16[rbp]
	mov	rdx, QWORD PTR -8[rbp]
	sub	rdx, QWORD PTR fs:40
	je	.L234
	call	__stack_chk_fail@PLT
.L234:
	leave
	.cfi_def_cfa 7, 8
	ret
	.cfi_endproc
.LFE11550:
	.size	_ZNKSt6vectorIiSaIiEE3endEv, .-_ZNKSt6vectorIiSaIiEE3endEv
	.section	.text._ZSt22__uninitialized_copy_aIN9__gnu_cxx17__normal_iteratorIPKiSt6vectorIiSaIiEEEEPiiET0_T_SA_S9_RSaIT1_E,"axG",@progbits,_ZSt22__uninitialized_copy_aIN9__gnu_cxx17__normal_iteratorIPKiSt6vectorIiSaIiEEEEPiiET0_T_SA_S9_RSaIT1_E,comdat
	.weak	_ZSt22__uninitialized_copy_aIN9__gnu_cxx17__normal_iteratorIPKiSt6vectorIiSaIiEEEEPiiET0_T_SA_S9_RSaIT1_E
	.type	_ZSt22__uninitialized_copy_aIN9__gnu_cxx17__normal_iteratorIPKiSt6vectorIiSaIiEEEEPiiET0_T_SA_S9_RSaIT1_E, @function
_ZSt22__uninitialized_copy_aIN9__gnu_cxx17__normal_iteratorIPKiSt6vectorIiSaIiEEEEPiiET0_T_SA_S9_RSaIT1_E:
.LFB11551:
	.cfi_startproc
	endbr64
	push	rbp
	.cfi_def_cfa_offset 16
	.cfi_offset 6, -16
	mov	rbp, rsp
	.cfi_def_cfa_register 6
	sub	rsp, 32
	mov	QWORD PTR -8[rbp], rdi
	mov	QWORD PTR -16[rbp], rsi
	mov	QWORD PTR -24[rbp], rdx
	mov	QWORD PTR -32[rbp], rcx
	mov	rdx, QWORD PTR -24[rbp]
	mov	rcx, QWORD PTR -16[rbp]
	mov	rax, QWORD PTR -8[rbp]
	mov	rsi, rcx
	mov	rdi, rax
	call	_ZSt18uninitialized_copyIN9__gnu_cxx17__normal_iteratorIPKiSt6vectorIiSaIiEEEEPiET0_T_SA_S9_
	leave
	.cfi_def_cfa 7, 8
	ret
	.cfi_endproc
.LFE11551:
	.size	_ZSt22__uninitialized_copy_aIN9__gnu_cxx17__normal_iteratorIPKiSt6vectorIiSaIiEEEEPiiET0_T_SA_S9_RSaIT1_E, .-_ZSt22__uninitialized_copy_aIN9__gnu_cxx17__normal_iteratorIPKiSt6vectorIiSaIiEEEEPiiET0_T_SA_S9_RSaIT1_E
	.section	.text._ZSt9__fill_a1IPiiEN9__gnu_cxx11__enable_ifIXsrSt11__is_scalarIT0_E7__valueEvE6__typeET_S8_RKS4_,"axG",@progbits,_ZSt9__fill_a1IPiiEN9__gnu_cxx11__enable_ifIXsrSt11__is_scalarIT0_E7__valueEvE6__typeET_S8_RKS4_,comdat
	.weak	_ZSt9__fill_a1IPiiEN9__gnu_cxx11__enable_ifIXsrSt11__is_scalarIT0_E7__valueEvE6__typeET_S8_RKS4_
	.type	_ZSt9__fill_a1IPiiEN9__gnu_cxx11__enable_ifIXsrSt11__is_scalarIT0_E7__valueEvE6__typeET_S8_RKS4_, @function
_ZSt9__fill_a1IPiiEN9__gnu_cxx11__enable_ifIXsrSt11__is_scalarIT0_E7__valueEvE6__typeET_S8_RKS4_:
.LFB11555:
	.cfi_startproc
	endbr64
	push	rbp
	.cfi_def_cfa_offset 16
	.cfi_offset 6, -16
	mov	rbp, rsp
	.cfi_def_cfa_register 6
	mov	QWORD PTR -24[rbp], rdi
	mov	QWORD PTR -32[rbp], rsi
	mov	QWORD PTR -40[rbp], rdx
	mov	rax, QWORD PTR -40[rbp]
	mov	eax, DWORD PTR [rax]
	mov	DWORD PTR -4[rbp], eax
	jmp	.L238
.L239:
	mov	rax, QWORD PTR -24[rbp]
	mov	edx, DWORD PTR -4[rbp]
	mov	DWORD PTR [rax], edx
	add	QWORD PTR -24[rbp], 4
.L238:
	mov	rax, QWORD PTR -24[rbp]
	cmp	rax, QWORD PTR -32[rbp]
	jne	.L239
	nop
	nop
	pop	rbp
	.cfi_def_cfa 7, 8
	ret
	.cfi_endproc
.LFE11555:
	.size	_ZSt9__fill_a1IPiiEN9__gnu_cxx11__enable_ifIXsrSt11__is_scalarIT0_E7__valueEvE6__typeET_S8_RKS4_, .-_ZSt9__fill_a1IPiiEN9__gnu_cxx11__enable_ifIXsrSt11__is_scalarIT0_E7__valueEvE6__typeET_S8_RKS4_
	.section	.text._ZNSt16allocator_traitsISaIiEE37select_on_container_copy_constructionERKS0_,"axG",@progbits,_ZNSt16allocator_traitsISaIiEE37select_on_container_copy_constructionERKS0_,comdat
	.weak	_ZNSt16allocator_traitsISaIiEE37select_on_container_copy_constructionERKS0_
	.type	_ZNSt16allocator_traitsISaIiEE37select_on_container_copy_constructionERKS0_, @function
_ZNSt16allocator_traitsISaIiEE37select_on_container_copy_constructionERKS0_:
.LFB11556:
	.cfi_startproc
	endbr64
	push	rbp
	.cfi_def_cfa_offset 16
	.cfi_offset 6, -16
	mov	rbp, rsp
	.cfi_def_cfa_register 6
	sub	rsp, 16
	mov	QWORD PTR -8[rbp], rdi
	mov	QWORD PTR -16[rbp], rsi
	mov	rdx, QWORD PTR -16[rbp]
	mov	rax, QWORD PTR -8[rbp]
	mov	rsi, rdx
	mov	rdi, rax
	call	_ZNSaIiEC1ERKS_
	mov	rax, QWORD PTR -8[rbp]
	leave
	.cfi_def_cfa 7, 8
	ret
	.cfi_endproc
.LFE11556:
	.size	_ZNSt16allocator_traitsISaIiEE37select_on_container_copy_constructionERKS0_, .-_ZNSt16allocator_traitsISaIiEE37select_on_container_copy_constructionERKS0_
	.section	.text._ZN9__gnu_cxx17__normal_iteratorIPKiSt6vectorIiSaIiEEEC2ERKS2_,"axG",@progbits,_ZN9__gnu_cxx17__normal_iteratorIPKiSt6vectorIiSaIiEEEC5ERKS2_,comdat
	.align 2
	.weak	_ZN9__gnu_cxx17__normal_iteratorIPKiSt6vectorIiSaIiEEEC2ERKS2_
	.type	_ZN9__gnu_cxx17__normal_iteratorIPKiSt6vectorIiSaIiEEEC2ERKS2_, @function
_ZN9__gnu_cxx17__normal_iteratorIPKiSt6vectorIiSaIiEEEC2ERKS2_:
.LFB11558:
	.cfi_startproc
	endbr64
	push	rbp
	.cfi_def_cfa_offset 16
	.cfi_offset 6, -16
	mov	rbp, rsp
	.cfi_def_cfa_register 6
	mov	QWORD PTR -8[rbp], rdi
	mov	QWORD PTR -16[rbp], rsi
	mov	rax, QWORD PTR -16[rbp]
	mov	rdx, QWORD PTR [rax]
	mov	rax, QWORD PTR -8[rbp]
	mov	QWORD PTR [rax], rdx
	nop
	pop	rbp
	.cfi_def_cfa 7, 8
	ret
	.cfi_endproc
.LFE11558:
	.size	_ZN9__gnu_cxx17__normal_iteratorIPKiSt6vectorIiSaIiEEEC2ERKS2_, .-_ZN9__gnu_cxx17__normal_iteratorIPKiSt6vectorIiSaIiEEEC2ERKS2_
	.weak	_ZN9__gnu_cxx17__normal_iteratorIPKiSt6vectorIiSaIiEEEC1ERKS2_
	.set	_ZN9__gnu_cxx17__normal_iteratorIPKiSt6vectorIiSaIiEEEC1ERKS2_,_ZN9__gnu_cxx17__normal_iteratorIPKiSt6vectorIiSaIiEEEC2ERKS2_
	.section	.text._ZSt18uninitialized_copyIN9__gnu_cxx17__normal_iteratorIPKiSt6vectorIiSaIiEEEEPiET0_T_SA_S9_,"axG",@progbits,_ZSt18uninitialized_copyIN9__gnu_cxx17__normal_iteratorIPKiSt6vectorIiSaIiEEEEPiET0_T_SA_S9_,comdat
	.weak	_ZSt18uninitialized_copyIN9__gnu_cxx17__normal_iteratorIPKiSt6vectorIiSaIiEEEEPiET0_T_SA_S9_
	.type	_ZSt18uninitialized_copyIN9__gnu_cxx17__normal_iteratorIPKiSt6vectorIiSaIiEEEEPiET0_T_SA_S9_, @function
_ZSt18uninitialized_copyIN9__gnu_cxx17__normal_iteratorIPKiSt6vectorIiSaIiEEEEPiET0_T_SA_S9_:
.LFB11560:
	.cfi_startproc
	endbr64
	push	rbp
	.cfi_def_cfa_offset 16
	.cfi_offset 6, -16
	mov	rbp, rsp
	.cfi_def_cfa_register 6
	sub	rsp, 48
	mov	QWORD PTR -24[rbp], rdi
	mov	QWORD PTR -32[rbp], rsi
	mov	QWORD PTR -40[rbp], rdx
	mov	BYTE PTR -1[rbp], 1
	mov	rdx, QWORD PTR -40[rbp]
	mov	rcx, QWORD PTR -32[rbp]
	mov	rax, QWORD PTR -24[rbp]
	mov	rsi, rcx
	mov	rdi, rax
	call	_ZNSt20__uninitialized_copyILb1EE13__uninit_copyIN9__gnu_cxx17__normal_iteratorIPKiSt6vectorIiSaIiEEEEPiEET0_T_SC_SB_
	leave
	.cfi_def_cfa 7, 8
	ret
	.cfi_endproc
.LFE11560:
	.size	_ZSt18uninitialized_copyIN9__gnu_cxx17__normal_iteratorIPKiSt6vectorIiSaIiEEEEPiET0_T_SA_S9_, .-_ZSt18uninitialized_copyIN9__gnu_cxx17__normal_iteratorIPKiSt6vectorIiSaIiEEEEPiET0_T_SA_S9_
	.section	.text._ZNSt20__uninitialized_copyILb1EE13__uninit_copyIN9__gnu_cxx17__normal_iteratorIPKiSt6vectorIiSaIiEEEEPiEET0_T_SC_SB_,"axG",@progbits,_ZNSt20__uninitialized_copyILb1EE13__uninit_copyIN9__gnu_cxx17__normal_iteratorIPKiSt6vectorIiSaIiEEEEPiEET0_T_SC_SB_,comdat
	.weak	_ZNSt20__uninitialized_copyILb1EE13__uninit_copyIN9__gnu_cxx17__normal_iteratorIPKiSt6vectorIiSaIiEEEEPiEET0_T_SC_SB_
	.type	_ZNSt20__uninitialized_copyILb1EE13__uninit_copyIN9__gnu_cxx17__normal_iteratorIPKiSt6vectorIiSaIiEEEEPiEET0_T_SC_SB_, @function
_ZNSt20__uninitialized_copyILb1EE13__uninit_copyIN9__gnu_cxx17__normal_iteratorIPKiSt6vectorIiSaIiEEEEPiEET0_T_SC_SB_:
.LFB11573:
	.cfi_startproc
	endbr64
	push	rbp
	.cfi_def_cfa_offset 16
	.cfi_offset 6, -16
	mov	rbp, rsp
	.cfi_def_cfa_register 6
	sub	rsp, 32
	mov	QWORD PTR -8[rbp], rdi
	mov	QWORD PTR -16[rbp], rsi
	mov	QWORD PTR -24[rbp], rdx
	mov	rdx, QWORD PTR -24[rbp]
	mov	rcx, QWORD PTR -16[rbp]
	mov	rax, QWORD PTR -8[rbp]
	mov	rsi, rcx
	mov	rdi, rax
	call	_ZSt4copyIN9__gnu_cxx17__normal_iteratorIPKiSt6vectorIiSaIiEEEEPiET0_T_SA_S9_
	leave
	.cfi_def_cfa 7, 8
	ret
	.cfi_endproc
.LFE11573:
	.size	_ZNSt20__uninitialized_copyILb1EE13__uninit_copyIN9__gnu_cxx17__normal_iteratorIPKiSt6vectorIiSaIiEEEEPiEET0_T_SC_SB_, .-_ZNSt20__uninitialized_copyILb1EE13__uninit_copyIN9__gnu_cxx17__normal_iteratorIPKiSt6vectorIiSaIiEEEEPiEET0_T_SC_SB_
	.section	.text._ZSt4copyIN9__gnu_cxx17__normal_iteratorIPKiSt6vectorIiSaIiEEEEPiET0_T_SA_S9_,"axG",@progbits,_ZSt4copyIN9__gnu_cxx17__normal_iteratorIPKiSt6vectorIiSaIiEEEEPiET0_T_SA_S9_,comdat
	.weak	_ZSt4copyIN9__gnu_cxx17__normal_iteratorIPKiSt6vectorIiSaIiEEEEPiET0_T_SA_S9_
	.type	_ZSt4copyIN9__gnu_cxx17__normal_iteratorIPKiSt6vectorIiSaIiEEEEPiET0_T_SA_S9_, @function
_ZSt4copyIN9__gnu_cxx17__normal_iteratorIPKiSt6vectorIiSaIiEEEEPiET0_T_SA_S9_:
.LFB11575:
	.cfi_startproc
	endbr64
	push	rbp
	.cfi_def_cfa_offset 16
	.cfi_offset 6, -16
	mov	rbp, rsp
	.cfi_def_cfa_register 6
	push	rbx
	sub	rsp, 40
	.cfi_offset 3, -24
	mov	QWORD PTR -24[rbp], rdi
	mov	QWORD PTR -32[rbp], rsi
	mov	QWORD PTR -40[rbp], rdx
	mov	rax, QWORD PTR -32[rbp]
	mov	rdi, rax
	call	_ZSt12__miter_baseIN9__gnu_cxx17__normal_iteratorIPKiSt6vectorIiSaIiEEEEET_S8_
	mov	rbx, rax
	mov	rax, QWORD PTR -24[rbp]
	mov	rdi, rax
	call	_ZSt12__miter_baseIN9__gnu_cxx17__normal_iteratorIPKiSt6vectorIiSaIiEEEEET_S8_
	mov	rcx, rax
	mov	rax, QWORD PTR -40[rbp]
	mov	rdx, rax
	mov	rsi, rbx
	mov	rdi, rcx
	call	_ZSt13__copy_move_aILb0EN9__gnu_cxx17__normal_iteratorIPKiSt6vectorIiSaIiEEEEPiET1_T0_SA_S9_
	mov	rbx, QWORD PTR -8[rbp]
	leave
	.cfi_def_cfa 7, 8
	ret
	.cfi_endproc
.LFE11575:
	.size	_ZSt4copyIN9__gnu_cxx17__normal_iteratorIPKiSt6vectorIiSaIiEEEEPiET0_T_SA_S9_, .-_ZSt4copyIN9__gnu_cxx17__normal_iteratorIPKiSt6vectorIiSaIiEEEEPiET0_T_SA_S9_
	.section	.text._ZSt12__miter_baseIN9__gnu_cxx17__normal_iteratorIPKiSt6vectorIiSaIiEEEEET_S8_,"axG",@progbits,_ZSt12__miter_baseIN9__gnu_cxx17__normal_iteratorIPKiSt6vectorIiSaIiEEEEET_S8_,comdat
	.weak	_ZSt12__miter_baseIN9__gnu_cxx17__normal_iteratorIPKiSt6vectorIiSaIiEEEEET_S8_
	.type	_ZSt12__miter_baseIN9__gnu_cxx17__normal_iteratorIPKiSt6vectorIiSaIiEEEEET_S8_, @function
_ZSt12__miter_baseIN9__gnu_cxx17__normal_iteratorIPKiSt6vectorIiSaIiEEEEET_S8_:
.LFB11577:
	.cfi_startproc
	endbr64
	push	rbp
	.cfi_def_cfa_offset 16
	.cfi_offset 6, -16
	mov	rbp, rsp
	.cfi_def_cfa_register 6
	mov	QWORD PTR -8[rbp], rdi
	mov	rax, QWORD PTR -8[rbp]
	pop	rbp
	.cfi_def_cfa 7, 8
	ret
	.cfi_endproc
.LFE11577:
	.size	_ZSt12__miter_baseIN9__gnu_cxx17__normal_iteratorIPKiSt6vectorIiSaIiEEEEET_S8_, .-_ZSt12__miter_baseIN9__gnu_cxx17__normal_iteratorIPKiSt6vectorIiSaIiEEEEET_S8_
	.section	.text._ZSt13__copy_move_aILb0EN9__gnu_cxx17__normal_iteratorIPKiSt6vectorIiSaIiEEEEPiET1_T0_SA_S9_,"axG",@progbits,_ZSt13__copy_move_aILb0EN9__gnu_cxx17__normal_iteratorIPKiSt6vectorIiSaIiEEEEPiET1_T0_SA_S9_,comdat
	.weak	_ZSt13__copy_move_aILb0EN9__gnu_cxx17__normal_iteratorIPKiSt6vectorIiSaIiEEEEPiET1_T0_SA_S9_
	.type	_ZSt13__copy_move_aILb0EN9__gnu_cxx17__normal_iteratorIPKiSt6vectorIiSaIiEEEEPiET1_T0_SA_S9_, @function
_ZSt13__copy_move_aILb0EN9__gnu_cxx17__normal_iteratorIPKiSt6vectorIiSaIiEEEEPiET1_T0_SA_S9_:
.LFB11578:
	.cfi_startproc
	endbr64
	push	rbp
	.cfi_def_cfa_offset 16
	.cfi_offset 6, -16
	mov	rbp, rsp
	.cfi_def_cfa_register 6
	push	r12
	push	rbx
	sub	rsp, 32
	.cfi_offset 12, -24
	.cfi_offset 3, -32
	mov	QWORD PTR -24[rbp], rdi
	mov	QWORD PTR -32[rbp], rsi
	mov	QWORD PTR -40[rbp], rdx
	mov	rax, QWORD PTR -40[rbp]
	mov	rdi, rax
	call	_ZSt12__niter_baseIPiET_S1_
	mov	r12, rax
	mov	rax, QWORD PTR -32[rbp]
	mov	rdi, rax
	call	_ZSt12__niter_baseIPKiSt6vectorIiSaIiEEET_N9__gnu_cxx17__normal_iteratorIS5_T0_EE
	mov	rbx, rax
	mov	rax, QWORD PTR -24[rbp]
	mov	rdi, rax
	call	_ZSt12__niter_baseIPKiSt6vectorIiSaIiEEET_N9__gnu_cxx17__normal_iteratorIS5_T0_EE
	mov	rdx, r12
	mov	rsi, rbx
	mov	rdi, rax
	call	_ZSt14__copy_move_a1ILb0EPKiPiET1_T0_S4_S3_
	mov	rdx, rax
	lea	rax, -40[rbp]
	mov	rsi, rdx
	mov	rdi, rax
	call	_ZSt12__niter_wrapIPiET_RKS1_S1_
	add	rsp, 32
	pop	rbx
	pop	r12
	pop	rbp
	.cfi_def_cfa 7, 8
	ret
	.cfi_endproc
.LFE11578:
	.size	_ZSt13__copy_move_aILb0EN9__gnu_cxx17__normal_iteratorIPKiSt6vectorIiSaIiEEEEPiET1_T0_SA_S9_, .-_ZSt13__copy_move_aILb0EN9__gnu_cxx17__normal_iteratorIPKiSt6vectorIiSaIiEEEEPiET1_T0_SA_S9_
	.section	.text._ZSt12__niter_baseIPKiSt6vectorIiSaIiEEET_N9__gnu_cxx17__normal_iteratorIS5_T0_EE,"axG",@progbits,_ZSt12__niter_baseIPKiSt6vectorIiSaIiEEET_N9__gnu_cxx17__normal_iteratorIS5_T0_EE,comdat
	.weak	_ZSt12__niter_baseIPKiSt6vectorIiSaIiEEET_N9__gnu_cxx17__normal_iteratorIS5_T0_EE
	.type	_ZSt12__niter_baseIPKiSt6vectorIiSaIiEEET_N9__gnu_cxx17__normal_iteratorIS5_T0_EE, @function
_ZSt12__niter_baseIPKiSt6vectorIiSaIiEEET_N9__gnu_cxx17__normal_iteratorIS5_T0_EE:
.LFB11581:
	.cfi_startproc
	endbr64
	push	rbp
	.cfi_def_cfa_offset 16
	.cfi_offset 6, -16
	mov	rbp, rsp
	.cfi_def_cfa_register 6
	sub	rsp, 16
	mov	QWORD PTR -8[rbp], rdi
	lea	rax, -8[rbp]
	mov	rdi, rax
	call	_ZNK9__gnu_cxx17__normal_iteratorIPKiSt6vectorIiSaIiEEE4baseEv
	mov	rax, QWORD PTR [rax]
	leave
	.cfi_def_cfa 7, 8
	ret
	.cfi_endproc
.LFE11581:
	.size	_ZSt12__niter_baseIPKiSt6vectorIiSaIiEEET_N9__gnu_cxx17__normal_iteratorIS5_T0_EE, .-_ZSt12__niter_baseIPKiSt6vectorIiSaIiEEET_N9__gnu_cxx17__normal_iteratorIS5_T0_EE
	.section	.text._ZSt12__niter_baseIPiET_S1_,"axG",@progbits,_ZSt12__niter_baseIPiET_S1_,comdat
	.weak	_ZSt12__niter_baseIPiET_S1_
	.type	_ZSt12__niter_baseIPiET_S1_, @function
_ZSt12__niter_baseIPiET_S1_:
.LFB11582:
	.cfi_startproc
	endbr64
	push	rbp
	.cfi_def_cfa_offset 16
	.cfi_offset 6, -16
	mov	rbp, rsp
	.cfi_def_cfa_register 6
	mov	QWORD PTR -8[rbp], rdi
	mov	rax, QWORD PTR -8[rbp]
	pop	rbp
	.cfi_def_cfa 7, 8
	ret
	.cfi_endproc
.LFE11582:
	.size	_ZSt12__niter_baseIPiET_S1_, .-_ZSt12__niter_baseIPiET_S1_
	.section	.text._ZSt14__copy_move_a1ILb0EPKiPiET1_T0_S4_S3_,"axG",@progbits,_ZSt14__copy_move_a1ILb0EPKiPiET1_T0_S4_S3_,comdat
	.weak	_ZSt14__copy_move_a1ILb0EPKiPiET1_T0_S4_S3_
	.type	_ZSt14__copy_move_a1ILb0EPKiPiET1_T0_S4_S3_, @function
_ZSt14__copy_move_a1ILb0EPKiPiET1_T0_S4_S3_:
.LFB11583:
	.cfi_startproc
	endbr64
	push	rbp
	.cfi_def_cfa_offset 16
	.cfi_offset 6, -16
	mov	rbp, rsp
	.cfi_def_cfa_register 6
	sub	rsp, 32
	mov	QWORD PTR -8[rbp], rdi
	mov	QWORD PTR -16[rbp], rsi
	mov	QWORD PTR -24[rbp], rdx
	mov	rdx, QWORD PTR -24[rbp]
	mov	rcx, QWORD PTR -16[rbp]
	mov	rax, QWORD PTR -8[rbp]
	mov	rsi, rcx
	mov	rdi, rax
	call	_ZSt14__copy_move_a2ILb0EPKiPiET1_T0_S4_S3_
	leave
	.cfi_def_cfa 7, 8
	ret
	.cfi_endproc
.LFE11583:
	.size	_ZSt14__copy_move_a1ILb0EPKiPiET1_T0_S4_S3_, .-_ZSt14__copy_move_a1ILb0EPKiPiET1_T0_S4_S3_
	.section	.text._ZSt12__niter_wrapIPiET_RKS1_S1_,"axG",@progbits,_ZSt12__niter_wrapIPiET_RKS1_S1_,comdat
	.weak	_ZSt12__niter_wrapIPiET_RKS1_S1_
	.type	_ZSt12__niter_wrapIPiET_RKS1_S1_, @function
_ZSt12__niter_wrapIPiET_RKS1_S1_:
.LFB11584:
	.cfi_startproc
	endbr64
	push	rbp
	.cfi_def_cfa_offset 16
	.cfi_offset 6, -16
	mov	rbp, rsp
	.cfi_def_cfa_register 6
	mov	QWORD PTR -8[rbp], rdi
	mov	QWORD PTR -16[rbp], rsi
	mov	rax, QWORD PTR -16[rbp]
	pop	rbp
	.cfi_def_cfa 7, 8
	ret
	.cfi_endproc
.LFE11584:
	.size	_ZSt12__niter_wrapIPiET_RKS1_S1_, .-_ZSt12__niter_wrapIPiET_RKS1_S1_
	.section	.text._ZNK9__gnu_cxx17__normal_iteratorIPKiSt6vectorIiSaIiEEE4baseEv,"axG",@progbits,_ZNK9__gnu_cxx17__normal_iteratorIPKiSt6vectorIiSaIiEEE4baseEv,comdat
	.align 2
	.weak	_ZNK9__gnu_cxx17__normal_iteratorIPKiSt6vectorIiSaIiEEE4baseEv
	.type	_ZNK9__gnu_cxx17__normal_iteratorIPKiSt6vectorIiSaIiEEE4baseEv, @function
_ZNK9__gnu_cxx17__normal_iteratorIPKiSt6vectorIiSaIiEEE4baseEv:
.LFB11585:
	.cfi_startproc
	endbr64
	push	rbp
	.cfi_def_cfa_offset 16
	.cfi_offset 6, -16
	mov	rbp, rsp
	.cfi_def_cfa_register 6
	mov	QWORD PTR -8[rbp], rdi
	mov	rax, QWORD PTR -8[rbp]
	pop	rbp
	.cfi_def_cfa 7, 8
	ret
	.cfi_endproc
.LFE11585:
	.size	_ZNK9__gnu_cxx17__normal_iteratorIPKiSt6vectorIiSaIiEEE4baseEv, .-_ZNK9__gnu_cxx17__normal_iteratorIPKiSt6vectorIiSaIiEEE4baseEv
	.section	.text._ZSt14__copy_move_a2ILb0EPKiPiET1_T0_S4_S3_,"axG",@progbits,_ZSt14__copy_move_a2ILb0EPKiPiET1_T0_S4_S3_,comdat
	.weak	_ZSt14__copy_move_a2ILb0EPKiPiET1_T0_S4_S3_
	.type	_ZSt14__copy_move_a2ILb0EPKiPiET1_T0_S4_S3_, @function
_ZSt14__copy_move_a2ILb0EPKiPiET1_T0_S4_S3_:
.LFB11586:
	.cfi_startproc
	endbr64
	push	rbp
	.cfi_def_cfa_offset 16
	.cfi_offset 6, -16
	mov	rbp, rsp
	.cfi_def_cfa_register 6
	sub	rsp, 32
	mov	QWORD PTR -8[rbp], rdi
	mov	QWORD PTR -16[rbp], rsi
	mov	QWORD PTR -24[rbp], rdx
	mov	rdx, QWORD PTR -24[rbp]
	mov	rcx, QWORD PTR -16[rbp]
	mov	rax, QWORD PTR -8[rbp]
	mov	rsi, rcx
	mov	rdi, rax
	call	_ZNSt11__copy_moveILb0ELb1ESt26random_access_iterator_tagE8__copy_mIiEEPT_PKS3_S6_S4_
	leave
	.cfi_def_cfa 7, 8
	ret
	.cfi_endproc
.LFE11586:
	.size	_ZSt14__copy_move_a2ILb0EPKiPiET1_T0_S4_S3_, .-_ZSt14__copy_move_a2ILb0EPKiPiET1_T0_S4_S3_
	.section	.text._ZNSt11__copy_moveILb0ELb1ESt26random_access_iterator_tagE8__copy_mIiEEPT_PKS3_S6_S4_,"axG",@progbits,_ZNSt11__copy_moveILb0ELb1ESt26random_access_iterator_tagE8__copy_mIiEEPT_PKS3_S6_S4_,comdat
	.weak	_ZNSt11__copy_moveILb0ELb1ESt26random_access_iterator_tagE8__copy_mIiEEPT_PKS3_S6_S4_
	.type	_ZNSt11__copy_moveILb0ELb1ESt26random_access_iterator_tagE8__copy_mIiEEPT_PKS3_S6_S4_, @function
_ZNSt11__copy_moveILb0ELb1ESt26random_access_iterator_tagE8__copy_mIiEEPT_PKS3_S6_S4_:
.LFB11587:
	.cfi_startproc
	endbr64
	push	rbp
	.cfi_def_cfa_offset 16
	.cfi_offset 6, -16
	mov	rbp, rsp
	.cfi_def_cfa_register 6
	sub	rsp, 48
	mov	QWORD PTR -24[rbp], rdi
	mov	QWORD PTR -32[rbp], rsi
	mov	QWORD PTR -40[rbp], rdx
	mov	rax, QWORD PTR -32[rbp]
	sub	rax, QWORD PTR -24[rbp]
	sar	rax, 2
	mov	QWORD PTR -8[rbp], rax
	cmp	QWORD PTR -8[rbp], 0
	je	.L266
	mov	rax, QWORD PTR -8[rbp]
	lea	rdx, 0[0+rax*4]
	mov	rcx, QWORD PTR -24[rbp]
	mov	rax, QWORD PTR -40[rbp]
	mov	rsi, rcx
	mov	rdi, rax
	call	memmove@PLT
.L266:
	mov	rax, QWORD PTR -8[rbp]
	lea	rdx, 0[0+rax*4]
	mov	rax, QWORD PTR -40[rbp]
	add	rax, rdx
	leave
	.cfi_def_cfa 7, 8
	ret
	.cfi_endproc
.LFE11587:
	.size	_ZNSt11__copy_moveILb0ELb1ESt26random_access_iterator_tagE8__copy_mIiEEPT_PKS3_S6_S4_, .-_ZNSt11__copy_moveILb0ELb1ESt26random_access_iterator_tagE8__copy_mIiEEPT_PKS3_S6_S4_
	.text
	.type	_Z41__static_initialization_and_destruction_0ii, @function
_Z41__static_initialization_and_destruction_0ii:
.LFB11624:
	.cfi_startproc
	endbr64
	push	rbp
	.cfi_def_cfa_offset 16
	.cfi_offset 6, -16
	mov	rbp, rsp
	.cfi_def_cfa_register 6
	sub	rsp, 16
	mov	DWORD PTR -4[rbp], edi
	mov	DWORD PTR -8[rbp], esi
	cmp	DWORD PTR -4[rbp], 1
	jne	.L270
	cmp	DWORD PTR -8[rbp], 65535
	jne	.L270
	lea	rax, _ZStL8__ioinit[rip]
	mov	rdi, rax
	call	_ZNSt8ios_base4InitC1Ev@PLT
	lea	rax, __dso_handle[rip]
	mov	rdx, rax
	lea	rax, _ZStL8__ioinit[rip]
	mov	rsi, rax
	mov	rax, QWORD PTR _ZNSt8ios_base4InitD1Ev@GOTPCREL[rip]
	mov	rdi, rax
	call	__cxa_atexit@PLT
.L270:
	nop
	leave
	.cfi_def_cfa 7, 8
	ret
	.cfi_endproc
.LFE11624:
	.size	_Z41__static_initialization_and_destruction_0ii, .-_Z41__static_initialization_and_destruction_0ii
	.type	_GLOBAL__sub_I_main, @function
_GLOBAL__sub_I_main:
.LFB11647:
	.cfi_startproc
	endbr64
	push	rbp
	.cfi_def_cfa_offset 16
	.cfi_offset 6, -16
	mov	rbp, rsp
	.cfi_def_cfa_register 6
	mov	esi, 65535
	mov	edi, 1
	call	_Z41__static_initialization_and_destruction_0ii
	pop	rbp
	.cfi_def_cfa 7, 8
	ret
	.cfi_endproc
.LFE11647:
	.size	_GLOBAL__sub_I_main, .-_GLOBAL__sub_I_main
	.section	.init_array,"aw"
	.align 8
	.quad	_GLOBAL__sub_I_main
	.hidden	DW.ref.__gxx_personality_v0
	.weak	DW.ref.__gxx_personality_v0
	.section	.data.rel.local.DW.ref.__gxx_personality_v0,"awG",@progbits,DW.ref.__gxx_personality_v0,comdat
	.align 8
	.type	DW.ref.__gxx_personality_v0, @object
	.size	DW.ref.__gxx_personality_v0, 8
DW.ref.__gxx_personality_v0:
	.quad	__gxx_personality_v0
	.hidden	__dso_handle
	.ident	"GCC: (Ubuntu 11.4.0-1ubuntu1~22.04.2) 11.4.0"
	.section	.note.GNU-stack,"",@progbits
	.section	.note.gnu.property,"a"
	.align 8
	.long	1f - 0f
	.long	4f - 1f
	.long	5
0:
	.string	"GNU"
1:
	.align 8
	.long	0xc0000002
	.long	3f - 2f
2:
	.long	0x3
3:
	.align 8
4:
