	.file	"Clock Conversion.cpp"
	.intel_syntax noprefix
	.text
	.section	.text._ZNSt11char_traitsIcE6lengthEPKc,"axG",@progbits,_ZNSt11char_traitsIcE6lengthEPKc,comdat
	.weak	_ZNSt11char_traitsIcE6lengthEPKc
	.type	_ZNSt11char_traitsIcE6lengthEPKc, @function
_ZNSt11char_traitsIcE6lengthEPKc:
.LFB450:
	.cfi_startproc
	endbr64
	push	rbp
	.cfi_def_cfa_offset 16
	.cfi_offset 6, -16
	mov	rbp, rsp
	.cfi_def_cfa_register 6
	sub	rsp, 32
	mov	QWORD PTR -24[rbp], rdi
	mov	rax, QWORD PTR -24[rbp]
	mov	QWORD PTR -8[rbp], rax
	mov	eax, 0
	test	al, al
	je	.L3
	mov	rax, QWORD PTR -24[rbp]
	mov	rdi, rax
	call	_ZN9__gnu_cxx11char_traitsIcE6lengthEPKc
	jmp	.L4
.L3:
	mov	rax, QWORD PTR -24[rbp]
	mov	rdi, rax
	call	strlen@PLT
	nop
.L4:
	leave
	.cfi_def_cfa 7, 8
	ret
	.cfi_endproc
.LFE450:
	.size	_ZNSt11char_traitsIcE6lengthEPKc, .-_ZNSt11char_traitsIcE6lengthEPKc
	.section	.text._ZNSt7__cxx119to_stringEi,"axG",@progbits,_ZNSt7__cxx119to_stringEi,comdat
	.weak	_ZNSt7__cxx119to_stringEi
	.type	_ZNSt7__cxx119to_stringEi, @function
_ZNSt7__cxx119to_stringEi:
.LFB1141:
	.cfi_startproc
	.cfi_personality 0x9b,DW.ref.__gxx_personality_v0
	.cfi_lsda 0x1b,.LLSDA1141
	endbr64
	push	rbp
	.cfi_def_cfa_offset 16
	.cfi_offset 6, -16
	mov	rbp, rsp
	.cfi_def_cfa_register 6
	push	rbx
	sub	rsp, 56
	.cfi_offset 3, -24
	mov	QWORD PTR -56[rbp], rdi
	mov	DWORD PTR -60[rbp], esi
	mov	rax, QWORD PTR fs:40
	mov	QWORD PTR -24[rbp], rax
	xor	eax, eax
	mov	eax, DWORD PTR -60[rbp]
	shr	eax, 31
	mov	BYTE PTR -33[rbp], al
	cmp	BYTE PTR -33[rbp], 0
	je	.L6
	mov	eax, DWORD PTR -60[rbp]
	neg	eax
	jmp	.L7
.L6:
	mov	eax, DWORD PTR -60[rbp]
.L7:
	mov	DWORD PTR -32[rbp], eax
	mov	eax, DWORD PTR -32[rbp]
	mov	esi, 10
	mov	edi, eax
	call	_ZNSt8__detail14__to_chars_lenIjEEjT_i
	mov	DWORD PTR -28[rbp], eax
	lea	rax, -34[rbp]
	mov	rdi, rax
	call	_ZNSaIcEC1Ev@PLT
	movzx	edx, BYTE PTR -33[rbp]
	mov	eax, DWORD PTR -28[rbp]
	add	eax, edx
	mov	esi, eax
	lea	rdx, -34[rbp]
	mov	rax, QWORD PTR -56[rbp]
	mov	rcx, rdx
	mov	edx, 45
	mov	rdi, rax
.LEHB0:
	call	_ZNSt7__cxx1112basic_stringIcSt11char_traitsIcESaIcEEC1IS3_EEmcRKS3_
.LEHE0:
	lea	rax, -34[rbp]
	mov	rdi, rax
	call	_ZNSaIcED1Ev@PLT
	movzx	edx, BYTE PTR -33[rbp]
	mov	rax, QWORD PTR -56[rbp]
	mov	rsi, rdx
	mov	rdi, rax
.LEHB1:
	call	_ZNSt7__cxx1112basic_stringIcSt11char_traitsIcESaIcEEixEm@PLT
.LEHE1:
	mov	rcx, rax
	mov	edx, DWORD PTR -32[rbp]
	mov	eax, DWORD PTR -28[rbp]
	mov	esi, eax
	mov	rdi, rcx
	call	_ZNSt8__detail18__to_chars_10_implIjEEvPcjT_
	nop
	mov	rax, QWORD PTR -24[rbp]
	sub	rax, QWORD PTR fs:40
	je	.L11
	jmp	.L14
.L12:
	endbr64
	mov	rbx, rax
	lea	rax, -34[rbp]
	mov	rdi, rax
	call	_ZNSaIcED1Ev@PLT
	mov	rax, rbx
	mov	rdi, rax
.LEHB2:
	call	_Unwind_Resume@PLT
.L13:
	endbr64
	mov	rbx, rax
	mov	rax, QWORD PTR -56[rbp]
	mov	rdi, rax
	call	_ZNSt7__cxx1112basic_stringIcSt11char_traitsIcESaIcEED1Ev@PLT
	mov	rax, rbx
	mov	rdi, rax
	call	_Unwind_Resume@PLT
.LEHE2:
.L14:
	call	__stack_chk_fail@PLT
.L11:
	mov	rax, QWORD PTR -56[rbp]
	mov	rbx, QWORD PTR -8[rbp]
	leave
	.cfi_def_cfa 7, 8
	ret
	.cfi_endproc
.LFE1141:
	.globl	__gxx_personality_v0
	.section	.gcc_except_table._ZNSt7__cxx119to_stringEi,"aG",@progbits,_ZNSt7__cxx119to_stringEi,comdat
.LLSDA1141:
	.byte	0xff
	.byte	0xff
	.byte	0x1
	.uleb128 .LLSDACSE1141-.LLSDACSB1141
.LLSDACSB1141:
	.uleb128 .LEHB0-.LFB1141
	.uleb128 .LEHE0-.LEHB0
	.uleb128 .L12-.LFB1141
	.uleb128 0
	.uleb128 .LEHB1-.LFB1141
	.uleb128 .LEHE1-.LEHB1
	.uleb128 .L13-.LFB1141
	.uleb128 0
	.uleb128 .LEHB2-.LFB1141
	.uleb128 .LEHE2-.LEHB2
	.uleb128 0
	.uleb128 0
.LLSDACSE1141:
	.section	.text._ZNSt7__cxx119to_stringEi,"axG",@progbits,_ZNSt7__cxx119to_stringEi,comdat
	.size	_ZNSt7__cxx119to_stringEi, .-_ZNSt7__cxx119to_stringEi
	.section	.text._ZNSt8__detail14__to_chars_lenIjEEjT_i,"axG",@progbits,_ZNSt8__detail14__to_chars_lenIjEEjT_i,comdat
	.weak	_ZNSt8__detail14__to_chars_lenIjEEjT_i
	.type	_ZNSt8__detail14__to_chars_lenIjEEjT_i, @function
_ZNSt8__detail14__to_chars_lenIjEEjT_i:
.LFB1143:
	.cfi_startproc
	endbr64
	push	rbp
	.cfi_def_cfa_offset 16
	.cfi_offset 6, -16
	mov	rbp, rsp
	.cfi_def_cfa_register 6
	mov	DWORD PTR -36[rbp], edi
	mov	DWORD PTR -40[rbp], esi
	mov	DWORD PTR -20[rbp], 1
	mov	eax, DWORD PTR -40[rbp]
	imul	eax, eax
	mov	DWORD PTR -16[rbp], eax
	mov	eax, DWORD PTR -40[rbp]
	mov	edx, DWORD PTR -16[rbp]
	imul	eax, edx
	mov	DWORD PTR -12[rbp], eax
	mov	eax, DWORD PTR -40[rbp]
	imul	eax, DWORD PTR -12[rbp]
	mov	eax, eax
	mov	QWORD PTR -8[rbp], rax
.L21:
	mov	eax, DWORD PTR -40[rbp]
	cmp	DWORD PTR -36[rbp], eax
	jnb	.L16
	mov	eax, DWORD PTR -20[rbp]
	jmp	.L17
.L16:
	mov	eax, DWORD PTR -36[rbp]
	cmp	eax, DWORD PTR -16[rbp]
	jnb	.L18
	mov	eax, DWORD PTR -20[rbp]
	add	eax, 1
	jmp	.L17
.L18:
	mov	eax, DWORD PTR -36[rbp]
	cmp	eax, DWORD PTR -12[rbp]
	jnb	.L19
	mov	eax, DWORD PTR -20[rbp]
	add	eax, 2
	jmp	.L17
.L19:
	mov	eax, DWORD PTR -36[rbp]
	cmp	QWORD PTR -8[rbp], rax
	jbe	.L20
	mov	eax, DWORD PTR -20[rbp]
	add	eax, 3
	jmp	.L17
.L20:
	mov	eax, DWORD PTR -36[rbp]
	mov	edx, 0
	div	QWORD PTR -8[rbp]
	mov	DWORD PTR -36[rbp], eax
	add	DWORD PTR -20[rbp], 4
	jmp	.L21
.L17:
	pop	rbp
	.cfi_def_cfa 7, 8
	ret
	.cfi_endproc
.LFE1143:
	.size	_ZNSt8__detail14__to_chars_lenIjEEjT_i, .-_ZNSt8__detail14__to_chars_lenIjEEjT_i
	.local	_ZStL8__ioinit
	.comm	_ZStL8__ioinit,1,1
	.section	.rodata
.LC0:
	.string	"AM"
.LC1:
	.string	"PM"
.LC2:
	.string	"0"
.LC3:
	.string	":"
.LC4:
	.string	" "
	.text
	.globl	main
	.type	main, @function
main:
.LFB1731:
	.cfi_startproc
	.cfi_personality 0x9b,DW.ref.__gxx_personality_v0
	.cfi_lsda 0x1b,.LLSDA1731
	endbr64
	push	rbp
	.cfi_def_cfa_offset 16
	.cfi_offset 6, -16
	mov	rbp, rsp
	.cfi_def_cfa_register 6
	push	rbx
	sub	rsp, 232
	.cfi_offset 3, -24
	mov	rax, QWORD PTR fs:40
	mov	QWORD PTR -24[rbp], rax
	xor	eax, eax
	lea	rax, -236[rbp]
	mov	rsi, rax
	lea	rax, _ZSt3cin[rip]
	mov	rdi, rax
.LEHB3:
	call	_ZNSirsERi@PLT
.LEHE3:
	jmp	.L23
.L32:
	lea	rax, -224[rbp]
	mov	rdi, rax
	call	_ZNSt7__cxx1112basic_stringIcSt11char_traitsIcESaIcEEC1Ev@PLT
	lea	rax, -224[rbp]
	mov	rsi, rax
	lea	rax, _ZSt3cin[rip]
	mov	rdi, rax
.LEHB4:
	call	_ZStrsIcSt11char_traitsIcESaIcEERSt13basic_istreamIT_T0_ES7_RNSt7__cxx1112basic_stringIS4_S5_T1_EE@PLT
	lea	rax, -224[rbp]
	mov	esi, 0
	mov	rdi, rax
	call	_ZNSt7__cxx1112basic_stringIcSt11char_traitsIcESaIcEEixEm@PLT
	movzx	eax, BYTE PTR [rax]
	movsx	eax, al
	lea	edx, -48[rax]
	mov	eax, edx
	sal	eax, 2
	add	eax, edx
	add	eax, eax
	mov	ebx, eax
	lea	rax, -224[rbp]
	mov	esi, 1
	mov	rdi, rax
	call	_ZNSt7__cxx1112basic_stringIcSt11char_traitsIcESaIcEEixEm@PLT
	movzx	eax, BYTE PTR [rax]
	movsx	eax, al
	sub	eax, 48
	add	eax, ebx
	mov	DWORD PTR -232[rbp], eax
	lea	rax, -224[rbp]
	mov	esi, 3
	mov	rdi, rax
	call	_ZNSt7__cxx1112basic_stringIcSt11char_traitsIcESaIcEEixEm@PLT
	movzx	eax, BYTE PTR [rax]
	movsx	eax, al
	lea	edx, -48[rax]
	mov	eax, edx
	sal	eax, 2
	add	eax, edx
	add	eax, eax
	mov	ebx, eax
	lea	rax, -224[rbp]
	mov	esi, 4
	mov	rdi, rax
	call	_ZNSt7__cxx1112basic_stringIcSt11char_traitsIcESaIcEEixEm@PLT
.LEHE4:
	movzx	eax, BYTE PTR [rax]
	movsx	eax, al
	sub	eax, 48
	add	eax, ebx
	mov	DWORD PTR -228[rbp], eax
	lea	rax, -192[rbp]
	mov	rdi, rax
	call	_ZNSt7__cxx1112basic_stringIcSt11char_traitsIcESaIcEEC1Ev@PLT
	cmp	DWORD PTR -232[rbp], 11
	jg	.L24
	lea	rax, -192[rbp]
	lea	rdx, .LC0[rip]
	mov	rsi, rdx
	mov	rdi, rax
.LEHB5:
	call	_ZNSt7__cxx1112basic_stringIcSt11char_traitsIcESaIcEEaSEPKc@PLT
	jmp	.L25
.L24:
	lea	rax, -192[rbp]
	lea	rdx, .LC1[rip]
	mov	rsi, rdx
	mov	rdi, rax
	call	_ZNSt7__cxx1112basic_stringIcSt11char_traitsIcESaIcEEaSEPKc@PLT
.LEHE5:
.L25:
	cmp	DWORD PTR -232[rbp], 0
	jne	.L26
	mov	DWORD PTR -232[rbp], 12
	jmp	.L27
.L26:
	cmp	DWORD PTR -232[rbp], 12
	jle	.L27
	sub	DWORD PTR -232[rbp], 12
.L27:
	lea	rax, -160[rbp]
	mov	rdi, rax
	call	_ZNSt7__cxx1112basic_stringIcSt11char_traitsIcESaIcEEC1Ev@PLT
	cmp	DWORD PTR -232[rbp], 9
	jg	.L28
	lea	rax, -160[rbp]
	lea	rdx, .LC2[rip]
	mov	rsi, rdx
	mov	rdi, rax
.LEHB6:
	call	_ZNSt7__cxx1112basic_stringIcSt11char_traitsIcESaIcEEaSEPKc@PLT
	lea	rax, -64[rbp]
	mov	edx, DWORD PTR -232[rbp]
	mov	esi, edx
	mov	rdi, rax
	call	_ZNSt7__cxx119to_stringEi
.LEHE6:
	lea	rdx, -64[rbp]
	lea	rax, -160[rbp]
	mov	rsi, rdx
	mov	rdi, rax
.LEHB7:
	call	_ZNSt7__cxx1112basic_stringIcSt11char_traitsIcESaIcEEpLERKS4_@PLT
.LEHE7:
	lea	rax, -64[rbp]
	mov	rdi, rax
	call	_ZNSt7__cxx1112basic_stringIcSt11char_traitsIcESaIcEED1Ev@PLT
	jmp	.L29
.L28:
	lea	rax, -128[rbp]
	mov	edx, DWORD PTR -232[rbp]
	mov	esi, edx
	mov	rdi, rax
.LEHB8:
	call	_ZNSt7__cxx119to_stringEi
.LEHE8:
	lea	rdx, -128[rbp]
	lea	rax, -160[rbp]
	mov	rsi, rdx
	mov	rdi, rax
	call	_ZNSt7__cxx1112basic_stringIcSt11char_traitsIcESaIcEEaSEOS4_@PLT
	lea	rax, -128[rbp]
	mov	rdi, rax
	call	_ZNSt7__cxx1112basic_stringIcSt11char_traitsIcESaIcEED1Ev@PLT
.L29:
	lea	rax, -96[rbp]
	mov	rdi, rax
	call	_ZNSt7__cxx1112basic_stringIcSt11char_traitsIcESaIcEEC1Ev@PLT
	cmp	DWORD PTR -228[rbp], 9
	jg	.L30
	lea	rax, -96[rbp]
	lea	rdx, .LC2[rip]
	mov	rsi, rdx
	mov	rdi, rax
.LEHB9:
	call	_ZNSt7__cxx1112basic_stringIcSt11char_traitsIcESaIcEEaSEPKc@PLT
	lea	rax, -64[rbp]
	mov	edx, DWORD PTR -228[rbp]
	mov	esi, edx
	mov	rdi, rax
	call	_ZNSt7__cxx119to_stringEi
.LEHE9:
	lea	rdx, -64[rbp]
	lea	rax, -96[rbp]
	mov	rsi, rdx
	mov	rdi, rax
.LEHB10:
	call	_ZNSt7__cxx1112basic_stringIcSt11char_traitsIcESaIcEEpLERKS4_@PLT
.LEHE10:
	lea	rax, -64[rbp]
	mov	rdi, rax
	call	_ZNSt7__cxx1112basic_stringIcSt11char_traitsIcESaIcEED1Ev@PLT
	jmp	.L31
.L30:
	lea	rax, -64[rbp]
	mov	edx, DWORD PTR -228[rbp]
	mov	esi, edx
	mov	rdi, rax
.LEHB11:
	call	_ZNSt7__cxx119to_stringEi
	lea	rdx, -64[rbp]
	lea	rax, -96[rbp]
	mov	rsi, rdx
	mov	rdi, rax
	call	_ZNSt7__cxx1112basic_stringIcSt11char_traitsIcESaIcEEaSEOS4_@PLT
	lea	rax, -64[rbp]
	mov	rdi, rax
	call	_ZNSt7__cxx1112basic_stringIcSt11char_traitsIcESaIcEED1Ev@PLT
.L31:
	lea	rax, -160[rbp]
	mov	rsi, rax
	lea	rax, _ZSt4cout[rip]
	mov	rdi, rax
	call	_ZStlsIcSt11char_traitsIcESaIcEERSt13basic_ostreamIT_T0_ES7_RKNSt7__cxx1112basic_stringIS4_S5_T1_EE@PLT
	mov	rbx, rax
	lea	rax, -64[rbp]
	lea	rdx, -96[rbp]
	lea	rcx, .LC3[rip]
	mov	rsi, rcx
	mov	rdi, rax
	call	_ZStplIcSt11char_traitsIcESaIcEENSt7__cxx1112basic_stringIT_T0_T1_EEPKS5_RKS8_
.LEHE11:
	lea	rax, -64[rbp]
	mov	rsi, rax
	mov	rdi, rbx
.LEHB12:
	call	_ZStlsIcSt11char_traitsIcESaIcEERSt13basic_ostreamIT_T0_ES7_RKNSt7__cxx1112basic_stringIS4_S5_T1_EE@PLT
	mov	rdx, rax
	lea	rax, .LC4[rip]
	mov	rsi, rax
	mov	rdi, rdx
	call	_ZStlsISt11char_traitsIcEERSt13basic_ostreamIcT_ES5_PKc@PLT
	mov	rdx, rax
	lea	rax, -192[rbp]
	mov	rsi, rax
	mov	rdi, rdx
	call	_ZStlsIcSt11char_traitsIcESaIcEERSt13basic_ostreamIT_T0_ES7_RKNSt7__cxx1112basic_stringIS4_S5_T1_EE@PLT
	mov	rdx, QWORD PTR _ZSt4endlIcSt11char_traitsIcEERSt13basic_ostreamIT_T0_ES6_@GOTPCREL[rip]
	mov	rsi, rdx
	mov	rdi, rax
	call	_ZNSolsEPFRSoS_E@PLT
.LEHE12:
	lea	rax, -64[rbp]
	mov	rdi, rax
	call	_ZNSt7__cxx1112basic_stringIcSt11char_traitsIcESaIcEED1Ev@PLT
	lea	rax, -96[rbp]
	mov	rdi, rax
	call	_ZNSt7__cxx1112basic_stringIcSt11char_traitsIcESaIcEED1Ev@PLT
	lea	rax, -160[rbp]
	mov	rdi, rax
	call	_ZNSt7__cxx1112basic_stringIcSt11char_traitsIcESaIcEED1Ev@PLT
	lea	rax, -192[rbp]
	mov	rdi, rax
	call	_ZNSt7__cxx1112basic_stringIcSt11char_traitsIcESaIcEED1Ev@PLT
	lea	rax, -224[rbp]
	mov	rdi, rax
	call	_ZNSt7__cxx1112basic_stringIcSt11char_traitsIcESaIcEED1Ev@PLT
.L23:
	mov	eax, DWORD PTR -236[rbp]
	lea	edx, -1[rax]
	mov	DWORD PTR -236[rbp], edx
	test	eax, eax
	setne	al
	test	al, al
	jne	.L32
	mov	eax, 0
	mov	rdx, QWORD PTR -24[rbp]
	sub	rdx, QWORD PTR fs:40
	je	.L41
	jmp	.L49
.L45:
	endbr64
	mov	rbx, rax
	lea	rax, -64[rbp]
	mov	rdi, rax
	call	_ZNSt7__cxx1112basic_stringIcSt11char_traitsIcESaIcEED1Ev@PLT
	jmp	.L35
.L47:
	endbr64
	mov	rbx, rax
	lea	rax, -64[rbp]
	mov	rdi, rax
	call	_ZNSt7__cxx1112basic_stringIcSt11char_traitsIcESaIcEED1Ev@PLT
	jmp	.L37
.L48:
	endbr64
	mov	rbx, rax
	lea	rax, -64[rbp]
	mov	rdi, rax
	call	_ZNSt7__cxx1112basic_stringIcSt11char_traitsIcESaIcEED1Ev@PLT
	jmp	.L37
.L46:
	endbr64
	mov	rbx, rax
.L37:
	lea	rax, -96[rbp]
	mov	rdi, rax
	call	_ZNSt7__cxx1112basic_stringIcSt11char_traitsIcESaIcEED1Ev@PLT
	jmp	.L35
.L44:
	endbr64
	mov	rbx, rax
.L35:
	lea	rax, -160[rbp]
	mov	rdi, rax
	call	_ZNSt7__cxx1112basic_stringIcSt11char_traitsIcESaIcEED1Ev@PLT
	jmp	.L39
.L43:
	endbr64
	mov	rbx, rax
.L39:
	lea	rax, -192[rbp]
	mov	rdi, rax
	call	_ZNSt7__cxx1112basic_stringIcSt11char_traitsIcESaIcEED1Ev@PLT
	jmp	.L40
.L42:
	endbr64
	mov	rbx, rax
.L40:
	lea	rax, -224[rbp]
	mov	rdi, rax
	call	_ZNSt7__cxx1112basic_stringIcSt11char_traitsIcESaIcEED1Ev@PLT
	mov	rax, rbx
	mov	rdi, rax
.LEHB13:
	call	_Unwind_Resume@PLT
.LEHE13:
.L49:
	call	__stack_chk_fail@PLT
.L41:
	mov	rbx, QWORD PTR -8[rbp]
	leave
	.cfi_def_cfa 7, 8
	ret
	.cfi_endproc
.LFE1731:
	.section	.gcc_except_table,"a",@progbits
.LLSDA1731:
	.byte	0xff
	.byte	0xff
	.byte	0x1
	.uleb128 .LLSDACSE1731-.LLSDACSB1731
.LLSDACSB1731:
	.uleb128 .LEHB3-.LFB1731
	.uleb128 .LEHE3-.LEHB3
	.uleb128 0
	.uleb128 0
	.uleb128 .LEHB4-.LFB1731
	.uleb128 .LEHE4-.LEHB4
	.uleb128 .L42-.LFB1731
	.uleb128 0
	.uleb128 .LEHB5-.LFB1731
	.uleb128 .LEHE5-.LEHB5
	.uleb128 .L43-.LFB1731
	.uleb128 0
	.uleb128 .LEHB6-.LFB1731
	.uleb128 .LEHE6-.LEHB6
	.uleb128 .L44-.LFB1731
	.uleb128 0
	.uleb128 .LEHB7-.LFB1731
	.uleb128 .LEHE7-.LEHB7
	.uleb128 .L45-.LFB1731
	.uleb128 0
	.uleb128 .LEHB8-.LFB1731
	.uleb128 .LEHE8-.LEHB8
	.uleb128 .L44-.LFB1731
	.uleb128 0
	.uleb128 .LEHB9-.LFB1731
	.uleb128 .LEHE9-.LEHB9
	.uleb128 .L46-.LFB1731
	.uleb128 0
	.uleb128 .LEHB10-.LFB1731
	.uleb128 .LEHE10-.LEHB10
	.uleb128 .L47-.LFB1731
	.uleb128 0
	.uleb128 .LEHB11-.LFB1731
	.uleb128 .LEHE11-.LEHB11
	.uleb128 .L46-.LFB1731
	.uleb128 0
	.uleb128 .LEHB12-.LFB1731
	.uleb128 .LEHE12-.LEHB12
	.uleb128 .L48-.LFB1731
	.uleb128 0
	.uleb128 .LEHB13-.LFB1731
	.uleb128 .LEHE13-.LEHB13
	.uleb128 0
	.uleb128 0
.LLSDACSE1731:
	.text
	.size	main, .-main
	.section	.text._ZN9__gnu_cxx11char_traitsIcE2eqERKcS3_,"axG",@progbits,_ZN9__gnu_cxx11char_traitsIcE2eqERKcS3_,comdat
	.weak	_ZN9__gnu_cxx11char_traitsIcE2eqERKcS3_
	.type	_ZN9__gnu_cxx11char_traitsIcE2eqERKcS3_, @function
_ZN9__gnu_cxx11char_traitsIcE2eqERKcS3_:
.LFB1737:
	.cfi_startproc
	endbr64
	push	rbp
	.cfi_def_cfa_offset 16
	.cfi_offset 6, -16
	mov	rbp, rsp
	.cfi_def_cfa_register 6
	mov	QWORD PTR -8[rbp], rdi
	mov	QWORD PTR -16[rbp], rsi
	mov	rax, QWORD PTR -8[rbp]
	movzx	edx, BYTE PTR [rax]
	mov	rax, QWORD PTR -16[rbp]
	movzx	eax, BYTE PTR [rax]
	cmp	dl, al
	sete	al
	pop	rbp
	.cfi_def_cfa 7, 8
	ret
	.cfi_endproc
.LFE1737:
	.size	_ZN9__gnu_cxx11char_traitsIcE2eqERKcS3_, .-_ZN9__gnu_cxx11char_traitsIcE2eqERKcS3_
	.section	.text._ZN9__gnu_cxx11char_traitsIcE6lengthEPKc,"axG",@progbits,_ZN9__gnu_cxx11char_traitsIcE6lengthEPKc,comdat
	.align 2
	.weak	_ZN9__gnu_cxx11char_traitsIcE6lengthEPKc
	.type	_ZN9__gnu_cxx11char_traitsIcE6lengthEPKc, @function
_ZN9__gnu_cxx11char_traitsIcE6lengthEPKc:
.LFB1736:
	.cfi_startproc
	endbr64
	push	rbp
	.cfi_def_cfa_offset 16
	.cfi_offset 6, -16
	mov	rbp, rsp
	.cfi_def_cfa_register 6
	sub	rsp, 48
	mov	QWORD PTR -40[rbp], rdi
	mov	rax, QWORD PTR fs:40
	mov	QWORD PTR -8[rbp], rax
	xor	eax, eax
	mov	QWORD PTR -16[rbp], 0
	jmp	.L53
.L54:
	add	QWORD PTR -16[rbp], 1
.L53:
	mov	BYTE PTR -17[rbp], 0
	mov	rdx, QWORD PTR -40[rbp]
	mov	rax, QWORD PTR -16[rbp]
	add	rdx, rax
	lea	rax, -17[rbp]
	mov	rsi, rax
	mov	rdi, rdx
	call	_ZN9__gnu_cxx11char_traitsIcE2eqERKcS3_
	xor	eax, 1
	test	al, al
	jne	.L54
	mov	rax, QWORD PTR -16[rbp]
	mov	rdx, QWORD PTR -8[rbp]
	sub	rdx, QWORD PTR fs:40
	je	.L56
	call	__stack_chk_fail@PLT
.L56:
	leave
	.cfi_def_cfa 7, 8
	ret
	.cfi_endproc
.LFE1736:
	.size	_ZN9__gnu_cxx11char_traitsIcE6lengthEPKc, .-_ZN9__gnu_cxx11char_traitsIcE6lengthEPKc
	.section	.text._ZNSt7__cxx1112basic_stringIcSt11char_traitsIcESaIcEE12_Alloc_hiderD2Ev,"axG",@progbits,_ZNSt7__cxx1112basic_stringIcSt11char_traitsIcESaIcEE12_Alloc_hiderD5Ev,comdat
	.align 2
	.weak	_ZNSt7__cxx1112basic_stringIcSt11char_traitsIcESaIcEE12_Alloc_hiderD2Ev
	.type	_ZNSt7__cxx1112basic_stringIcSt11char_traitsIcESaIcEE12_Alloc_hiderD2Ev, @function
_ZNSt7__cxx1112basic_stringIcSt11char_traitsIcESaIcEE12_Alloc_hiderD2Ev:
.LFB1844:
	.cfi_startproc
	endbr64
	push	rbp
	.cfi_def_cfa_offset 16
	.cfi_offset 6, -16
	mov	rbp, rsp
	.cfi_def_cfa_register 6
	sub	rsp, 16
	mov	QWORD PTR -8[rbp], rdi
	mov	rax, QWORD PTR -8[rbp]
	mov	rdi, rax
	call	_ZNSaIcED2Ev@PLT
	nop
	leave
	.cfi_def_cfa 7, 8
	ret
	.cfi_endproc
.LFE1844:
	.size	_ZNSt7__cxx1112basic_stringIcSt11char_traitsIcESaIcEE12_Alloc_hiderD2Ev, .-_ZNSt7__cxx1112basic_stringIcSt11char_traitsIcESaIcEE12_Alloc_hiderD2Ev
	.weak	_ZNSt7__cxx1112basic_stringIcSt11char_traitsIcESaIcEE12_Alloc_hiderD1Ev
	.set	_ZNSt7__cxx1112basic_stringIcSt11char_traitsIcESaIcEE12_Alloc_hiderD1Ev,_ZNSt7__cxx1112basic_stringIcSt11char_traitsIcESaIcEE12_Alloc_hiderD2Ev
	.section	.text._ZNSt7__cxx1112basic_stringIcSt11char_traitsIcESaIcEEC2IS3_EEmcRKS3_,"axG",@progbits,_ZNSt7__cxx1112basic_stringIcSt11char_traitsIcESaIcEEC5IS3_EEmcRKS3_,comdat
	.align 2
	.weak	_ZNSt7__cxx1112basic_stringIcSt11char_traitsIcESaIcEEC2IS3_EEmcRKS3_
	.type	_ZNSt7__cxx1112basic_stringIcSt11char_traitsIcESaIcEEC2IS3_EEmcRKS3_, @function
_ZNSt7__cxx1112basic_stringIcSt11char_traitsIcESaIcEEC2IS3_EEmcRKS3_:
.LFB1846:
	.cfi_startproc
	.cfi_personality 0x9b,DW.ref.__gxx_personality_v0
	.cfi_lsda 0x1b,.LLSDA1846
	endbr64
	push	rbp
	.cfi_def_cfa_offset 16
	.cfi_offset 6, -16
	mov	rbp, rsp
	.cfi_def_cfa_register 6
	push	rbx
	sub	rsp, 40
	.cfi_offset 3, -24
	mov	QWORD PTR -24[rbp], rdi
	mov	QWORD PTR -32[rbp], rsi
	mov	eax, edx
	mov	QWORD PTR -48[rbp], rcx
	mov	BYTE PTR -36[rbp], al
	mov	rbx, QWORD PTR -24[rbp]
	mov	rax, QWORD PTR -24[rbp]
	mov	rdi, rax
.LEHB14:
	call	_ZNSt7__cxx1112basic_stringIcSt11char_traitsIcESaIcEE13_M_local_dataEv@PLT
	mov	rcx, rax
	mov	rax, QWORD PTR -48[rbp]
	mov	rdx, rax
	mov	rsi, rcx
	mov	rdi, rbx
	call	_ZNSt7__cxx1112basic_stringIcSt11char_traitsIcESaIcEE12_Alloc_hiderC1EPcRKS3_@PLT
.LEHE14:
	movsx	edx, BYTE PTR -36[rbp]
	mov	rcx, QWORD PTR -32[rbp]
	mov	rax, QWORD PTR -24[rbp]
	mov	rsi, rcx
	mov	rdi, rax
.LEHB15:
	call	_ZNSt7__cxx1112basic_stringIcSt11char_traitsIcESaIcEE12_M_constructEmc@PLT
.LEHE15:
	jmp	.L61
.L60:
	endbr64
	mov	rbx, rax
	mov	rax, QWORD PTR -24[rbp]
	mov	rdi, rax
	call	_ZNSt7__cxx1112basic_stringIcSt11char_traitsIcESaIcEE12_Alloc_hiderD1Ev
	mov	rax, rbx
	mov	rdi, rax
.LEHB16:
	call	_Unwind_Resume@PLT
.LEHE16:
.L61:
	mov	rbx, QWORD PTR -8[rbp]
	leave
	.cfi_def_cfa 7, 8
	ret
	.cfi_endproc
.LFE1846:
	.section	.gcc_except_table
.LLSDA1846:
	.byte	0xff
	.byte	0xff
	.byte	0x1
	.uleb128 .LLSDACSE1846-.LLSDACSB1846
.LLSDACSB1846:
	.uleb128 .LEHB14-.LFB1846
	.uleb128 .LEHE14-.LEHB14
	.uleb128 0
	.uleb128 0
	.uleb128 .LEHB15-.LFB1846
	.uleb128 .LEHE15-.LEHB15
	.uleb128 .L60-.LFB1846
	.uleb128 0
	.uleb128 .LEHB16-.LFB1846
	.uleb128 .LEHE16-.LEHB16
	.uleb128 0
	.uleb128 0
.LLSDACSE1846:
	.section	.text._ZNSt7__cxx1112basic_stringIcSt11char_traitsIcESaIcEEC2IS3_EEmcRKS3_,"axG",@progbits,_ZNSt7__cxx1112basic_stringIcSt11char_traitsIcESaIcEEC5IS3_EEmcRKS3_,comdat
	.size	_ZNSt7__cxx1112basic_stringIcSt11char_traitsIcESaIcEEC2IS3_EEmcRKS3_, .-_ZNSt7__cxx1112basic_stringIcSt11char_traitsIcESaIcEEC2IS3_EEmcRKS3_
	.weak	_ZNSt7__cxx1112basic_stringIcSt11char_traitsIcESaIcEEC1IS3_EEmcRKS3_
	.set	_ZNSt7__cxx1112basic_stringIcSt11char_traitsIcESaIcEEC1IS3_EEmcRKS3_,_ZNSt7__cxx1112basic_stringIcSt11char_traitsIcESaIcEEC2IS3_EEmcRKS3_
	.weak	_ZZNSt8__detail18__to_chars_10_implIjEEvPcjT_E8__digits
	.section	.rodata._ZZNSt8__detail18__to_chars_10_implIjEEvPcjT_E8__digits,"aG",@progbits,_ZZNSt8__detail18__to_chars_10_implIjEEvPcjT_E8__digits,comdat
	.align 32
	.type	_ZZNSt8__detail18__to_chars_10_implIjEEvPcjT_E8__digits, @gnu_unique_object
	.size	_ZZNSt8__detail18__to_chars_10_implIjEEvPcjT_E8__digits, 201
_ZZNSt8__detail18__to_chars_10_implIjEEvPcjT_E8__digits:
	.string	"00010203040506070809101112131415161718192021222324252627282930313233343536373839404142434445464748495051525354555657585960616263646566676869707172737475767778798081828384858687888990919293949596979899"
	.section	.text._ZNSt8__detail18__to_chars_10_implIjEEvPcjT_,"axG",@progbits,_ZNSt8__detail18__to_chars_10_implIjEEvPcjT_,comdat
	.weak	_ZNSt8__detail18__to_chars_10_implIjEEvPcjT_
	.type	_ZNSt8__detail18__to_chars_10_implIjEEvPcjT_, @function
_ZNSt8__detail18__to_chars_10_implIjEEvPcjT_:
.LFB1852:
	.cfi_startproc
	endbr64
	push	rbp
	.cfi_def_cfa_offset 16
	.cfi_offset 6, -16
	mov	rbp, rsp
	.cfi_def_cfa_register 6
	mov	QWORD PTR -24[rbp], rdi
	mov	DWORD PTR -28[rbp], esi
	mov	DWORD PTR -32[rbp], edx
	mov	eax, DWORD PTR -28[rbp]
	sub	eax, 1
	mov	DWORD PTR -12[rbp], eax
	jmp	.L63
.L64:
	mov	edx, DWORD PTR -32[rbp]
	mov	eax, edx
	imul	rax, rax, 1374389535
	shr	rax, 32
	shr	eax, 5
	imul	ecx, eax, 100
	mov	eax, edx
	sub	eax, ecx
	add	eax, eax
	mov	DWORD PTR -4[rbp], eax
	mov	eax, DWORD PTR -32[rbp]
	mov	eax, eax
	imul	rax, rax, 1374389535
	shr	rax, 32
	shr	eax, 5
	mov	DWORD PTR -32[rbp], eax
	mov	eax, DWORD PTR -4[rbp]
	lea	ecx, 1[rax]
	mov	edx, DWORD PTR -12[rbp]
	mov	rax, QWORD PTR -24[rbp]
	add	rdx, rax
	mov	ecx, ecx
	lea	rax, _ZZNSt8__detail18__to_chars_10_implIjEEvPcjT_E8__digits[rip]
	movzx	eax, BYTE PTR [rcx+rax]
	mov	BYTE PTR [rdx], al
	mov	eax, DWORD PTR -12[rbp]
	sub	eax, 1
	mov	edx, eax
	mov	rax, QWORD PTR -24[rbp]
	add	rdx, rax
	mov	eax, DWORD PTR -4[rbp]
	lea	rcx, _ZZNSt8__detail18__to_chars_10_implIjEEvPcjT_E8__digits[rip]
	movzx	eax, BYTE PTR [rax+rcx]
	mov	BYTE PTR [rdx], al
	sub	DWORD PTR -12[rbp], 2
.L63:
	cmp	DWORD PTR -32[rbp], 99
	ja	.L64
	cmp	DWORD PTR -32[rbp], 9
	jbe	.L65
	mov	eax, DWORD PTR -32[rbp]
	add	eax, eax
	mov	DWORD PTR -8[rbp], eax
	mov	eax, DWORD PTR -8[rbp]
	lea	ecx, 1[rax]
	mov	rax, QWORD PTR -24[rbp]
	lea	rdx, 1[rax]
	mov	ecx, ecx
	lea	rax, _ZZNSt8__detail18__to_chars_10_implIjEEvPcjT_E8__digits[rip]
	movzx	eax, BYTE PTR [rcx+rax]
	mov	BYTE PTR [rdx], al
	mov	eax, DWORD PTR -8[rbp]
	lea	rdx, _ZZNSt8__detail18__to_chars_10_implIjEEvPcjT_E8__digits[rip]
	movzx	edx, BYTE PTR [rax+rdx]
	mov	rax, QWORD PTR -24[rbp]
	mov	BYTE PTR [rax], dl
	jmp	.L67
.L65:
	mov	eax, DWORD PTR -32[rbp]
	add	eax, 48
	mov	edx, eax
	mov	rax, QWORD PTR -24[rbp]
	mov	BYTE PTR [rax], dl
.L67:
	nop
	pop	rbp
	.cfi_def_cfa 7, 8
	ret
	.cfi_endproc
.LFE1852:
	.size	_ZNSt8__detail18__to_chars_10_implIjEEvPcjT_, .-_ZNSt8__detail18__to_chars_10_implIjEEvPcjT_
	.section	.text._ZStplIcSt11char_traitsIcESaIcEENSt7__cxx1112basic_stringIT_T0_T1_EEPKS5_RKS8_,"axG",@progbits,_ZStplIcSt11char_traitsIcESaIcEENSt7__cxx1112basic_stringIT_T0_T1_EEPKS5_RKS8_,comdat
	.weak	_ZStplIcSt11char_traitsIcESaIcEENSt7__cxx1112basic_stringIT_T0_T1_EEPKS5_RKS8_
	.type	_ZStplIcSt11char_traitsIcESaIcEENSt7__cxx1112basic_stringIT_T0_T1_EEPKS5_RKS8_, @function
_ZStplIcSt11char_traitsIcESaIcEENSt7__cxx1112basic_stringIT_T0_T1_EEPKS5_RKS8_:
.LFB2004:
	.cfi_startproc
	.cfi_personality 0x9b,DW.ref.__gxx_personality_v0
	.cfi_lsda 0x1b,.LLSDA2004
	endbr64
	push	rbp
	.cfi_def_cfa_offset 16
	.cfi_offset 6, -16
	mov	rbp, rsp
	.cfi_def_cfa_register 6
	push	rbx
	sub	rsp, 72
	.cfi_offset 3, -24
	mov	QWORD PTR -56[rbp], rdi
	mov	QWORD PTR -64[rbp], rsi
	mov	QWORD PTR -72[rbp], rdx
	mov	rax, QWORD PTR fs:40
	mov	QWORD PTR -24[rbp], rax
	xor	eax, eax
	mov	rax, QWORD PTR -64[rbp]
	mov	rdi, rax
.LEHB17:
	call	_ZNSt11char_traitsIcE6lengthEPKc
.LEHE17:
	mov	QWORD PTR -32[rbp], rax
	lea	rax, -34[rbp]
	mov	rdx, QWORD PTR -72[rbp]
	mov	rsi, rdx
	mov	rdi, rax
	call	_ZNKSt7__cxx1112basic_stringIcSt11char_traitsIcESaIcEE13get_allocatorEv@PLT
	lea	rax, -33[rbp]
	lea	rdx, -34[rbp]
	mov	rsi, rdx
	mov	rdi, rax
.LEHB18:
	call	_ZN9__gnu_cxx14__alloc_traitsISaIcEcE17_S_select_on_copyERKS1_
.LEHE18:
	lea	rdx, -33[rbp]
	mov	rax, QWORD PTR -56[rbp]
	mov	rsi, rdx
	mov	rdi, rax
	call	_ZNSt7__cxx1112basic_stringIcSt11char_traitsIcESaIcEEC1ERKS3_@PLT
	lea	rax, -33[rbp]
	mov	rdi, rax
	call	_ZNSaIcED1Ev@PLT
	lea	rax, -34[rbp]
	mov	rdi, rax
	call	_ZNSaIcED1Ev@PLT
	mov	rax, QWORD PTR -72[rbp]
	mov	rdi, rax
	call	_ZNKSt7__cxx1112basic_stringIcSt11char_traitsIcESaIcEE4sizeEv@PLT
	mov	rdx, QWORD PTR -32[rbp]
	add	rdx, rax
	mov	rax, QWORD PTR -56[rbp]
	mov	rsi, rdx
	mov	rdi, rax
.LEHB19:
	call	_ZNSt7__cxx1112basic_stringIcSt11char_traitsIcESaIcEE7reserveEm@PLT
	mov	rdx, QWORD PTR -32[rbp]
	mov	rcx, QWORD PTR -64[rbp]
	mov	rax, QWORD PTR -56[rbp]
	mov	rsi, rcx
	mov	rdi, rax
	call	_ZNSt7__cxx1112basic_stringIcSt11char_traitsIcESaIcEE6appendEPKcm@PLT
	mov	rdx, QWORD PTR -72[rbp]
	mov	rax, QWORD PTR -56[rbp]
	mov	rsi, rdx
	mov	rdi, rax
	call	_ZNSt7__cxx1112basic_stringIcSt11char_traitsIcESaIcEE6appendERKS4_@PLT
.LEHE19:
	jmp	.L75
.L73:
	endbr64
	mov	rbx, rax
	lea	rax, -34[rbp]
	mov	rdi, rax
	call	_ZNSaIcED1Ev@PLT
	mov	rax, rbx
	mov	rdi, rax
.LEHB20:
	call	_Unwind_Resume@PLT
.L74:
	endbr64
	mov	rbx, rax
	mov	rax, QWORD PTR -56[rbp]
	mov	rdi, rax
	call	_ZNSt7__cxx1112basic_stringIcSt11char_traitsIcESaIcEED1Ev@PLT
	mov	rax, rbx
	mov	rdi, rax
	call	_Unwind_Resume@PLT
.LEHE20:
.L75:
	mov	rax, QWORD PTR -24[rbp]
	sub	rax, QWORD PTR fs:40
	je	.L72
	call	__stack_chk_fail@PLT
.L72:
	mov	rax, QWORD PTR -56[rbp]
	mov	rbx, QWORD PTR -8[rbp]
	leave
	.cfi_def_cfa 7, 8
	ret
	.cfi_endproc
.LFE2004:
	.section	.gcc_except_table
.LLSDA2004:
	.byte	0xff
	.byte	0xff
	.byte	0x1
	.uleb128 .LLSDACSE2004-.LLSDACSB2004
.LLSDACSB2004:
	.uleb128 .LEHB17-.LFB2004
	.uleb128 .LEHE17-.LEHB17
	.uleb128 0
	.uleb128 0
	.uleb128 .LEHB18-.LFB2004
	.uleb128 .LEHE18-.LEHB18
	.uleb128 .L73-.LFB2004
	.uleb128 0
	.uleb128 .LEHB19-.LFB2004
	.uleb128 .LEHE19-.LEHB19
	.uleb128 .L74-.LFB2004
	.uleb128 0
	.uleb128 .LEHB20-.LFB2004
	.uleb128 .LEHE20-.LEHB20
	.uleb128 0
	.uleb128 0
.LLSDACSE2004:
	.section	.text._ZStplIcSt11char_traitsIcESaIcEENSt7__cxx1112basic_stringIT_T0_T1_EEPKS5_RKS8_,"axG",@progbits,_ZStplIcSt11char_traitsIcESaIcEENSt7__cxx1112basic_stringIT_T0_T1_EEPKS5_RKS8_,comdat
	.size	_ZStplIcSt11char_traitsIcESaIcEENSt7__cxx1112basic_stringIT_T0_T1_EEPKS5_RKS8_, .-_ZStplIcSt11char_traitsIcESaIcEENSt7__cxx1112basic_stringIT_T0_T1_EEPKS5_RKS8_
	.section	.text._ZN9__gnu_cxx14__alloc_traitsISaIcEcE17_S_select_on_copyERKS1_,"axG",@progbits,_ZN9__gnu_cxx14__alloc_traitsISaIcEcE17_S_select_on_copyERKS1_,comdat
	.weak	_ZN9__gnu_cxx14__alloc_traitsISaIcEcE17_S_select_on_copyERKS1_
	.type	_ZN9__gnu_cxx14__alloc_traitsISaIcEcE17_S_select_on_copyERKS1_, @function
_ZN9__gnu_cxx14__alloc_traitsISaIcEcE17_S_select_on_copyERKS1_:
.LFB2094:
	.cfi_startproc
	endbr64
	push	rbp
	.cfi_def_cfa_offset 16
	.cfi_offset 6, -16
	mov	rbp, rsp
	.cfi_def_cfa_register 6
	sub	rsp, 32
	mov	QWORD PTR -24[rbp], rdi
	mov	QWORD PTR -32[rbp], rsi
	mov	rax, QWORD PTR fs:40
	mov	QWORD PTR -8[rbp], rax
	xor	eax, eax
	mov	rax, QWORD PTR -24[rbp]
	mov	rdx, QWORD PTR -32[rbp]
	mov	rsi, rdx
	mov	rdi, rax
	call	_ZNSt16allocator_traitsISaIcEE37select_on_container_copy_constructionERKS0_
	mov	rax, QWORD PTR -8[rbp]
	sub	rax, QWORD PTR fs:40
	je	.L78
	call	__stack_chk_fail@PLT
.L78:
	mov	rax, QWORD PTR -24[rbp]
	leave
	.cfi_def_cfa 7, 8
	ret
	.cfi_endproc
.LFE2094:
	.size	_ZN9__gnu_cxx14__alloc_traitsISaIcEcE17_S_select_on_copyERKS1_, .-_ZN9__gnu_cxx14__alloc_traitsISaIcEcE17_S_select_on_copyERKS1_
	.section	.text._ZNSt16allocator_traitsISaIcEE37select_on_container_copy_constructionERKS0_,"axG",@progbits,_ZNSt16allocator_traitsISaIcEE37select_on_container_copy_constructionERKS0_,comdat
	.weak	_ZNSt16allocator_traitsISaIcEE37select_on_container_copy_constructionERKS0_
	.type	_ZNSt16allocator_traitsISaIcEE37select_on_container_copy_constructionERKS0_, @function
_ZNSt16allocator_traitsISaIcEE37select_on_container_copy_constructionERKS0_:
.LFB2138:
	.cfi_startproc
	endbr64
	push	rbp
	.cfi_def_cfa_offset 16
	.cfi_offset 6, -16
	mov	rbp, rsp
	.cfi_def_cfa_register 6
	sub	rsp, 16
	mov	QWORD PTR -8[rbp], rdi
	mov	QWORD PTR -16[rbp], rsi
	mov	rdx, QWORD PTR -16[rbp]
	mov	rax, QWORD PTR -8[rbp]
	mov	rsi, rdx
	mov	rdi, rax
	call	_ZNSaIcEC1ERKS_@PLT
	mov	rax, QWORD PTR -8[rbp]
	leave
	.cfi_def_cfa 7, 8
	ret
	.cfi_endproc
.LFE2138:
	.size	_ZNSt16allocator_traitsISaIcEE37select_on_container_copy_constructionERKS0_, .-_ZNSt16allocator_traitsISaIcEE37select_on_container_copy_constructionERKS0_
	.text
	.type	_Z41__static_initialization_and_destruction_0ii, @function
_Z41__static_initialization_and_destruction_0ii:
.LFB2262:
	.cfi_startproc
	endbr64
	push	rbp
	.cfi_def_cfa_offset 16
	.cfi_offset 6, -16
	mov	rbp, rsp
	.cfi_def_cfa_register 6
	sub	rsp, 16
	mov	DWORD PTR -4[rbp], edi
	mov	DWORD PTR -8[rbp], esi
	cmp	DWORD PTR -4[rbp], 1
	jne	.L83
	cmp	DWORD PTR -8[rbp], 65535
	jne	.L83
	lea	rax, _ZStL8__ioinit[rip]
	mov	rdi, rax
	call	_ZNSt8ios_base4InitC1Ev@PLT
	lea	rax, __dso_handle[rip]
	mov	rdx, rax
	lea	rax, _ZStL8__ioinit[rip]
	mov	rsi, rax
	mov	rax, QWORD PTR _ZNSt8ios_base4InitD1Ev@GOTPCREL[rip]
	mov	rdi, rax
	call	__cxa_atexit@PLT
.L83:
	nop
	leave
	.cfi_def_cfa 7, 8
	ret
	.cfi_endproc
.LFE2262:
	.size	_Z41__static_initialization_and_destruction_0ii, .-_Z41__static_initialization_and_destruction_0ii
	.type	_GLOBAL__sub_I_main, @function
_GLOBAL__sub_I_main:
.LFB2263:
	.cfi_startproc
	endbr64
	push	rbp
	.cfi_def_cfa_offset 16
	.cfi_offset 6, -16
	mov	rbp, rsp
	.cfi_def_cfa_register 6
	mov	esi, 65535
	mov	edi, 1
	call	_Z41__static_initialization_and_destruction_0ii
	pop	rbp
	.cfi_def_cfa 7, 8
	ret
	.cfi_endproc
.LFE2263:
	.size	_GLOBAL__sub_I_main, .-_GLOBAL__sub_I_main
	.section	.init_array,"aw"
	.align 8
	.quad	_GLOBAL__sub_I_main
	.hidden	DW.ref.__gxx_personality_v0
	.weak	DW.ref.__gxx_personality_v0
	.section	.data.rel.local.DW.ref.__gxx_personality_v0,"awG",@progbits,DW.ref.__gxx_personality_v0,comdat
	.align 8
	.type	DW.ref.__gxx_personality_v0, @object
	.size	DW.ref.__gxx_personality_v0, 8
DW.ref.__gxx_personality_v0:
	.quad	__gxx_personality_v0
	.hidden	__dso_handle
	.ident	"GCC: (Ubuntu 11.4.0-1ubuntu1~22.04.2) 11.4.0"
	.section	.note.GNU-stack,"",@progbits
	.section	.note.gnu.property,"a"
	.align 8
	.long	1f - 0f
	.long	4f - 1f
	.long	5
0:
	.string	"GNU"
1:
	.align 8
	.long	0xc0000002
	.long	3f - 2f
2:
	.long	0x3
3:
	.align 8
4:
