	.file	"sum_of_round_numbers.cpp"
	.intel_syntax noprefix
	.text
	.local	_ZStL8__ioinit
	.comm	_ZStL8__ioinit,1,1
	.section	.rodata
.LC0:
	.string	"\n"
.LC1:
	.string	" "
	.text
	.globl	main
	.type	main, @function
main:
.LFB2324:
	.cfi_startproc
	.cfi_personality 0x9b,DW.ref.__gxx_personality_v0
	.cfi_lsda 0x1b,.LLSDA2324
	endbr64
	push	rbp
	.cfi_def_cfa_offset 16
	.cfi_offset 6, -16
	mov	rbp, rsp
	.cfi_def_cfa_register 6
	push	r15
	push	r14
	push	r12
	push	rbx
	add	rsp, -128
	.cfi_offset 15, -24
	.cfi_offset 14, -32
	.cfi_offset 12, -40
	.cfi_offset 3, -48
	mov	rax, QWORD PTR fs:40
	mov	QWORD PTR -40[rbp], rax
	xor	eax, eax
	lea	rax, -120[rbp]
	mov	rsi, rax
	lea	rax, _ZSt3cin[rip]
	mov	rdi, rax
.LEHB0:
	call	_ZNSirsERi@PLT
.LEHE0:
	jmp	.L2
.L17:
	mov	rax, rsp
	mov	r12, rax
	lea	rax, -80[rbp]
	mov	rdi, rax
	call	_ZNSt7__cxx1112basic_stringIcSt11char_traitsIcESaIcEEC1Ev@PLT
	lea	rax, -80[rbp]
	mov	rsi, rax
	lea	rax, _ZSt3cin[rip]
	mov	rdi, rax
.LEHB1:
	call	_ZStrsIcSt11char_traitsIcESaIcEERSt13basic_istreamIT_T0_ES7_RNSt7__cxx1112basic_stringIS4_S5_T1_EE@PLT
	lea	rax, -80[rbp]
	mov	rdi, rax
	call	_ZNKSt7__cxx1112basic_stringIcSt11char_traitsIcESaIcEE6lengthEv@PLT
	mov	rdx, rax
	sub	rdx, 1
	mov	QWORD PTR -96[rbp], rdx
	mov	r14, rax
	mov	r15d, 0
	mov	QWORD PTR -144[rbp], rax
	mov	QWORD PTR -136[rbp], 0
	lea	rdx, 0[0+rax*4]
	mov	eax, 16
	sub	rax, 1
	add	rax, rdx
	mov	ebx, 16
	mov	edx, 0
	div	rbx
	imul	rax, rax, 16
	mov	rcx, rax
	and	rcx, -4096
	mov	rdx, rsp
	sub	rdx, rcx
.L3:
	cmp	rsp, rdx
	je	.L4
	sub	rsp, 4096
	or	QWORD PTR 4088[rsp], 0
	jmp	.L3
.L4:
	mov	rdx, rax
	and	edx, 4095
	sub	rsp, rdx
	mov	rdx, rax
	and	edx, 4095
	test	rdx, rdx
	je	.L5
	and	eax, 4095
	sub	rax, 8
	add	rax, rsp
	or	QWORD PTR [rax], 0
.L5:
	mov	rax, rsp
	add	rax, 3
	shr	rax, 2
	sal	rax, 2
	mov	QWORD PTR -88[rbp], rax
	mov	DWORD PTR -116[rbp], 0
	jmp	.L6
.L10:
	mov	eax, DWORD PTR -116[rbp]
	movsx	rdx, eax
	lea	rax, -80[rbp]
	mov	rsi, rdx
	mov	rdi, rax
	call	_ZNSt7__cxx1112basic_stringIcSt11char_traitsIcESaIcEEixEm@PLT
	movzx	eax, BYTE PTR [rax]
	cmp	al, 47
	jle	.L7
	mov	eax, DWORD PTR -116[rbp]
	movsx	rdx, eax
	lea	rax, -80[rbp]
	mov	rsi, rdx
	mov	rdi, rax
	call	_ZNSt7__cxx1112basic_stringIcSt11char_traitsIcESaIcEEixEm@PLT
	movzx	eax, BYTE PTR [rax]
	cmp	al, 57
	jg	.L7
	mov	eax, 1
	jmp	.L8
.L7:
	mov	eax, 0
.L8:
	test	al, al
	je	.L9
	mov	eax, DWORD PTR -116[rbp]
	movsx	rdx, eax
	lea	rax, -80[rbp]
	mov	rsi, rdx
	mov	rdi, rax
	call	_ZNSt7__cxx1112basic_stringIcSt11char_traitsIcESaIcEEixEm@PLT
	movzx	eax, BYTE PTR [rax]
	movsx	eax, al
	lea	ecx, -48[rax]
	mov	rax, QWORD PTR -88[rbp]
	mov	edx, DWORD PTR -116[rbp]
	movsx	rdx, edx
	mov	DWORD PTR [rax+rdx*4], ecx
.L9:
	add	DWORD PTR -116[rbp], 1
.L6:
	mov	eax, DWORD PTR -116[rbp]
	movsx	rbx, eax
	lea	rax, -80[rbp]
	mov	rdi, rax
	call	_ZNKSt7__cxx1112basic_stringIcSt11char_traitsIcESaIcEE6lengthEv@PLT
	cmp	rbx, rax
	setb	al
	test	al, al
	jne	.L10
	mov	DWORD PTR -112[rbp], 0
	mov	DWORD PTR -108[rbp], 0
	jmp	.L11
.L13:
	mov	rax, QWORD PTR -88[rbp]
	mov	edx, DWORD PTR -108[rbp]
	movsx	rdx, edx
	mov	eax, DWORD PTR [rax+rdx*4]
	test	eax, eax
	je	.L12
	lea	rax, -80[rbp]
	mov	rdi, rax
	call	_ZNKSt7__cxx1112basic_stringIcSt11char_traitsIcESaIcEE6lengthEv@PLT
	mov	edx, DWORD PTR -108[rbp]
	sub	eax, edx
	sub	eax, 1
	mov	DWORD PTR -100[rbp], eax
	mov	rax, QWORD PTR -88[rbp]
	mov	edx, DWORD PTR -108[rbp]
	movsx	rdx, edx
	mov	eax, DWORD PTR [rax+rdx*4]
	pxor	xmm1, xmm1
	cvtsi2sd	xmm1, eax
	movsd	QWORD PTR -152[rbp], xmm1
	mov	eax, DWORD PTR -100[rbp]
	mov	esi, eax
	mov	edi, 10
	call	_ZSt3powIiiEN9__gnu_cxx11__promote_2IT_T0_NS0_9__promoteIS2_XsrSt12__is_integerIS2_E7__valueEE6__typeENS4_IS3_XsrS5_IS3_E7__valueEE6__typeEE6__typeES2_S3_
	mulsd	xmm0, QWORD PTR -152[rbp]
	cvttsd2si	ecx, xmm0
	mov	rax, QWORD PTR -88[rbp]
	mov	edx, DWORD PTR -108[rbp]
	movsx	rdx, edx
	mov	DWORD PTR [rax+rdx*4], ecx
	add	DWORD PTR -112[rbp], 1
.L12:
	add	DWORD PTR -108[rbp], 1
.L11:
	mov	eax, DWORD PTR -108[rbp]
	movsx	rbx, eax
	lea	rax, -80[rbp]
	mov	rdi, rax
	call	_ZNKSt7__cxx1112basic_stringIcSt11char_traitsIcESaIcEE6lengthEv@PLT
	cmp	rbx, rax
	setb	al
	test	al, al
	jne	.L13
	mov	eax, DWORD PTR -112[rbp]
	mov	esi, eax
	lea	rax, _ZSt4cout[rip]
	mov	rdi, rax
	call	_ZNSolsEi@PLT
	mov	rdx, rax
	lea	rax, .LC0[rip]
	mov	rsi, rax
	mov	rdi, rdx
	call	_ZStlsISt11char_traitsIcEERSt13basic_ostreamIcT_ES5_PKc@PLT
	mov	DWORD PTR -104[rbp], 0
	jmp	.L14
.L16:
	mov	rax, QWORD PTR -88[rbp]
	mov	edx, DWORD PTR -104[rbp]
	movsx	rdx, edx
	mov	eax, DWORD PTR [rax+rdx*4]
	test	eax, eax
	je	.L15
	mov	rax, QWORD PTR -88[rbp]
	mov	edx, DWORD PTR -104[rbp]
	movsx	rdx, edx
	mov	eax, DWORD PTR [rax+rdx*4]
	mov	esi, eax
	lea	rax, _ZSt4cout[rip]
	mov	rdi, rax
	call	_ZNSolsEi@PLT
	mov	rdx, rax
	lea	rax, .LC1[rip]
	mov	rsi, rax
	mov	rdi, rdx
	call	_ZStlsISt11char_traitsIcEERSt13basic_ostreamIcT_ES5_PKc@PLT
.LEHE1:
.L15:
	add	DWORD PTR -104[rbp], 1
.L14:
	mov	eax, DWORD PTR -104[rbp]
	movsx	rbx, eax
	lea	rax, -80[rbp]
	mov	rdi, rax
	call	_ZNKSt7__cxx1112basic_stringIcSt11char_traitsIcESaIcEE6lengthEv@PLT
	cmp	rbx, rax
	setb	al
	test	al, al
	jne	.L16
	lea	rax, -80[rbp]
	mov	rdi, rax
	call	_ZNSt7__cxx1112basic_stringIcSt11char_traitsIcESaIcEED1Ev@PLT
	mov	rsp, r12
.L2:
	mov	eax, DWORD PTR -120[rbp]
	lea	edx, -1[rax]
	mov	DWORD PTR -120[rbp], edx
	test	eax, eax
	setne	al
	test	al, al
	jne	.L17
	mov	eax, 0
	mov	rdx, QWORD PTR -40[rbp]
	sub	rdx, QWORD PTR fs:40
	je	.L20
	jmp	.L22
.L21:
	endbr64
	mov	rbx, rax
	lea	rax, -80[rbp]
	mov	rdi, rax
	call	_ZNSt7__cxx1112basic_stringIcSt11char_traitsIcESaIcEED1Ev@PLT
	mov	rax, rbx
	mov	rdi, rax
.LEHB2:
	call	_Unwind_Resume@PLT
.LEHE2:
.L22:
	call	__stack_chk_fail@PLT
.L20:
	lea	rsp, -32[rbp]
	pop	rbx
	pop	r12
	pop	r14
	pop	r15
	pop	rbp
	.cfi_def_cfa 7, 8
	ret
	.cfi_endproc
.LFE2324:
	.globl	__gxx_personality_v0
	.section	.gcc_except_table,"a",@progbits
.LLSDA2324:
	.byte	0xff
	.byte	0xff
	.byte	0x1
	.uleb128 .LLSDACSE2324-.LLSDACSB2324
.LLSDACSB2324:
	.uleb128 .LEHB0-.LFB2324
	.uleb128 .LEHE0-.LEHB0
	.uleb128 0
	.uleb128 0
	.uleb128 .LEHB1-.LFB2324
	.uleb128 .LEHE1-.LEHB1
	.uleb128 .L21-.LFB2324
	.uleb128 0
	.uleb128 .LEHB2-.LFB2324
	.uleb128 .LEHE2-.LEHB2
	.uleb128 0
	.uleb128 0
.LLSDACSE2324:
	.text
	.size	main, .-main
	.section	.text._ZSt3powIiiEN9__gnu_cxx11__promote_2IT_T0_NS0_9__promoteIS2_XsrSt12__is_integerIS2_E7__valueEE6__typeENS4_IS3_XsrS5_IS3_E7__valueEE6__typeEE6__typeES2_S3_,"axG",@progbits,_ZSt3powIiiEN9__gnu_cxx11__promote_2IT_T0_NS0_9__promoteIS2_XsrSt12__is_integerIS2_E7__valueEE6__typeENS4_IS3_XsrS5_IS3_E7__valueEE6__typeEE6__typeES2_S3_,comdat
	.weak	_ZSt3powIiiEN9__gnu_cxx11__promote_2IT_T0_NS0_9__promoteIS2_XsrSt12__is_integerIS2_E7__valueEE6__typeENS4_IS3_XsrS5_IS3_E7__valueEE6__typeEE6__typeES2_S3_
	.type	_ZSt3powIiiEN9__gnu_cxx11__promote_2IT_T0_NS0_9__promoteIS2_XsrSt12__is_integerIS2_E7__valueEE6__typeENS4_IS3_XsrS5_IS3_E7__valueEE6__typeEE6__typeES2_S3_, @function
_ZSt3powIiiEN9__gnu_cxx11__promote_2IT_T0_NS0_9__promoteIS2_XsrSt12__is_integerIS2_E7__valueEE6__typeENS4_IS3_XsrS5_IS3_E7__valueEE6__typeEE6__typeES2_S3_:
.LFB2640:
	.cfi_startproc
	endbr64
	push	rbp
	.cfi_def_cfa_offset 16
	.cfi_offset 6, -16
	mov	rbp, rsp
	.cfi_def_cfa_register 6
	sub	rsp, 16
	mov	DWORD PTR -4[rbp], edi
	mov	DWORD PTR -8[rbp], esi
	pxor	xmm0, xmm0
	cvtsi2sd	xmm0, DWORD PTR -8[rbp]
	pxor	xmm2, xmm2
	cvtsi2sd	xmm2, DWORD PTR -4[rbp]
	movq	rax, xmm2
	movapd	xmm1, xmm0
	movq	xmm0, rax
	call	pow@PLT
	movq	rax, xmm0
	movq	xmm0, rax
	leave
	.cfi_def_cfa 7, 8
	ret
	.cfi_endproc
.LFE2640:
	.size	_ZSt3powIiiEN9__gnu_cxx11__promote_2IT_T0_NS0_9__promoteIS2_XsrSt12__is_integerIS2_E7__valueEE6__typeENS4_IS3_XsrS5_IS3_E7__valueEE6__typeEE6__typeES2_S3_, .-_ZSt3powIiiEN9__gnu_cxx11__promote_2IT_T0_NS0_9__promoteIS2_XsrSt12__is_integerIS2_E7__valueEE6__typeENS4_IS3_XsrS5_IS3_E7__valueEE6__typeEE6__typeES2_S3_
	.text
	.type	_Z41__static_initialization_and_destruction_0ii, @function
_Z41__static_initialization_and_destruction_0ii:
.LFB2977:
	.cfi_startproc
	endbr64
	push	rbp
	.cfi_def_cfa_offset 16
	.cfi_offset 6, -16
	mov	rbp, rsp
	.cfi_def_cfa_register 6
	sub	rsp, 16
	mov	DWORD PTR -4[rbp], edi
	mov	DWORD PTR -8[rbp], esi
	cmp	DWORD PTR -4[rbp], 1
	jne	.L27
	cmp	DWORD PTR -8[rbp], 65535
	jne	.L27
	lea	rax, _ZStL8__ioinit[rip]
	mov	rdi, rax
	call	_ZNSt8ios_base4InitC1Ev@PLT
	lea	rax, __dso_handle[rip]
	mov	rdx, rax
	lea	rax, _ZStL8__ioinit[rip]
	mov	rsi, rax
	mov	rax, QWORD PTR _ZNSt8ios_base4InitD1Ev@GOTPCREL[rip]
	mov	rdi, rax
	call	__cxa_atexit@PLT
.L27:
	nop
	leave
	.cfi_def_cfa 7, 8
	ret
	.cfi_endproc
.LFE2977:
	.size	_Z41__static_initialization_and_destruction_0ii, .-_Z41__static_initialization_and_destruction_0ii
	.type	_GLOBAL__sub_I_main, @function
_GLOBAL__sub_I_main:
.LFB2978:
	.cfi_startproc
	endbr64
	push	rbp
	.cfi_def_cfa_offset 16
	.cfi_offset 6, -16
	mov	rbp, rsp
	.cfi_def_cfa_register 6
	mov	esi, 65535
	mov	edi, 1
	call	_Z41__static_initialization_and_destruction_0ii
	pop	rbp
	.cfi_def_cfa 7, 8
	ret
	.cfi_endproc
.LFE2978:
	.size	_GLOBAL__sub_I_main, .-_GLOBAL__sub_I_main
	.section	.init_array,"aw"
	.align 8
	.quad	_GLOBAL__sub_I_main
	.hidden	DW.ref.__gxx_personality_v0
	.weak	DW.ref.__gxx_personality_v0
	.section	.data.rel.local.DW.ref.__gxx_personality_v0,"awG",@progbits,DW.ref.__gxx_personality_v0,comdat
	.align 8
	.type	DW.ref.__gxx_personality_v0, @object
	.size	DW.ref.__gxx_personality_v0, 8
DW.ref.__gxx_personality_v0:
	.quad	__gxx_personality_v0
	.hidden	__dso_handle
	.ident	"GCC: (Ubuntu 11.4.0-1ubuntu1~22.04.2) 11.4.0"
	.section	.note.GNU-stack,"",@progbits
	.section	.note.gnu.property,"a"
	.align 8
	.long	1f - 0f
	.long	4f - 1f
	.long	5
0:
	.string	"GNU"
1:
	.align 8
	.long	0xc0000002
	.long	3f - 2f
2:
	.long	0x3
3:
	.align 8
4:
