	.file	"C_Hamburgers.cpp"
	.intel_syntax noprefix
	.text
	.section	.rodata
	.type	_ZN6__pstl9execution2v1L3seqE, @object
	.size	_ZN6__pstl9execution2v1L3seqE, 1
_ZN6__pstl9execution2v1L3seqE:
	.zero	1
	.type	_ZN6__pstl9execution2v1L3parE, @object
	.size	_ZN6__pstl9execution2v1L3parE, 1
_ZN6__pstl9execution2v1L3parE:
	.zero	1
	.type	_ZN6__pstl9execution2v1L9par_unseqE, @object
	.size	_ZN6__pstl9execution2v1L9par_unseqE, 1
_ZN6__pstl9execution2v1L9par_unseqE:
	.zero	1
	.type	_ZN6__pstl9execution2v1L5unseqE, @object
	.size	_ZN6__pstl9execution2v1L5unseqE, 1
_ZN6__pstl9execution2v1L5unseqE:
	.zero	1
	.local	_ZStL8__ioinit
	.comm	_ZStL8__ioinit,1,1
	.align 4
	.type	_ZN9__gnu_cxxL21__default_lock_policyE, @object
	.size	_ZN9__gnu_cxxL21__default_lock_policyE, 4
_ZN9__gnu_cxxL21__default_lock_policyE:
	.long	2
	.align 4
	.type	_ZNSt15regex_constantsL13error_collateE, @object
	.size	_ZNSt15regex_constantsL13error_collateE, 4
_ZNSt15regex_constantsL13error_collateE:
	.zero	4
	.align 4
	.type	_ZNSt15regex_constantsL11error_ctypeE, @object
	.size	_ZNSt15regex_constantsL11error_ctypeE, 4
_ZNSt15regex_constantsL11error_ctypeE:
	.long	1
	.align 4
	.type	_ZNSt15regex_constantsL12error_escapeE, @object
	.size	_ZNSt15regex_constantsL12error_escapeE, 4
_ZNSt15regex_constantsL12error_escapeE:
	.long	2
	.align 4
	.type	_ZNSt15regex_constantsL13error_backrefE, @object
	.size	_ZNSt15regex_constantsL13error_backrefE, 4
_ZNSt15regex_constantsL13error_backrefE:
	.long	3
	.align 4
	.type	_ZNSt15regex_constantsL11error_brackE, @object
	.size	_ZNSt15regex_constantsL11error_brackE, 4
_ZNSt15regex_constantsL11error_brackE:
	.long	4
	.align 4
	.type	_ZNSt15regex_constantsL11error_parenE, @object
	.size	_ZNSt15regex_constantsL11error_parenE, 4
_ZNSt15regex_constantsL11error_parenE:
	.long	5
	.align 4
	.type	_ZNSt15regex_constantsL11error_braceE, @object
	.size	_ZNSt15regex_constantsL11error_braceE, 4
_ZNSt15regex_constantsL11error_braceE:
	.long	6
	.align 4
	.type	_ZNSt15regex_constantsL14error_badbraceE, @object
	.size	_ZNSt15regex_constantsL14error_badbraceE, 4
_ZNSt15regex_constantsL14error_badbraceE:
	.long	7
	.align 4
	.type	_ZNSt15regex_constantsL11error_rangeE, @object
	.size	_ZNSt15regex_constantsL11error_rangeE, 4
_ZNSt15regex_constantsL11error_rangeE:
	.long	8
	.align 4
	.type	_ZNSt15regex_constantsL11error_spaceE, @object
	.size	_ZNSt15regex_constantsL11error_spaceE, 4
_ZNSt15regex_constantsL11error_spaceE:
	.long	9
	.align 4
	.type	_ZNSt15regex_constantsL15error_badrepeatE, @object
	.size	_ZNSt15regex_constantsL15error_badrepeatE, 4
_ZNSt15regex_constantsL15error_badrepeatE:
	.long	10
	.align 4
	.type	_ZNSt15regex_constantsL16error_complexityE, @object
	.size	_ZNSt15regex_constantsL16error_complexityE, 4
_ZNSt15regex_constantsL16error_complexityE:
	.long	11
	.align 4
	.type	_ZNSt15regex_constantsL11error_stackE, @object
	.size	_ZNSt15regex_constantsL11error_stackE, 4
_ZNSt15regex_constantsL11error_stackE:
	.long	12
	.align 8
	.type	_ZNSt8__detailL19_S_invalid_state_idE, @object
	.size	_ZNSt8__detailL19_S_invalid_state_idE, 8
_ZNSt8__detailL19_S_invalid_state_idE:
	.quad	-1
.LC0:
	.string	"r"
.LC1:
	.string	"input.txt"
.LC2:
	.string	"w"
.LC3:
	.string	"output.txt"
	.text
	.globl	_Z5setupv
	.type	_Z5setupv, @function
_Z5setupv:
.LFB9704:
	.cfi_startproc
	endbr64
	push	rbp
	.cfi_def_cfa_offset 16
	.cfi_offset 6, -16
	mov	rbp, rsp
	.cfi_def_cfa_register 6
	mov	edi, 0
	call	_ZNSt8ios_base15sync_with_stdioEb@PLT
	mov	esi, 0
	lea	rax, _ZSt3cin[rip+16]
	mov	rdi, rax
	call	_ZNSt9basic_iosIcSt11char_traitsIcEE3tieEPSo@PLT
	mov	esi, 0
	lea	rax, _ZSt4cout[rip+8]
	mov	rdi, rax
	call	_ZNSt9basic_iosIcSt11char_traitsIcEE3tieEPSo@PLT
	mov	rax, QWORD PTR stdin[rip]
	mov	rdx, rax
	lea	rax, .LC0[rip]
	mov	rsi, rax
	lea	rax, .LC1[rip]
	mov	rdi, rax
	call	freopen@PLT
	mov	rax, QWORD PTR stdout[rip]
	mov	rdx, rax
	lea	rax, .LC2[rip]
	mov	rsi, rax
	lea	rax, .LC3[rip]
	mov	rdi, rax
	call	freopen@PLT
	nop
	pop	rbp
	.cfi_def_cfa 7, 8
	ret
	.cfi_endproc
.LFE9704:
	.size	_Z5setupv, .-_Z5setupv
	.globl	_Z1sB5cxx11
	.bss
	.align 32
	.type	_Z1sB5cxx11, @object
	.size	_Z1sB5cxx11, 32
_Z1sB5cxx11:
	.zero	32
	.globl	b
	.align 8
	.type	b, @object
	.size	b, 8
b:
	.zero	8
	.globl	ss
	.align 8
	.type	ss, @object
	.size	ss, 8
ss:
	.zero	8
	.globl	c
	.align 8
	.type	c, @object
	.size	c, 8
c:
	.zero	8
	.globl	pb
	.align 8
	.type	pb, @object
	.size	pb, 8
pb:
	.zero	8
	.globl	ps
	.align 8
	.type	ps, @object
	.size	ps, 8
ps:
	.zero	8
	.globl	pc
	.align 8
	.type	pc, @object
	.size	pc, 8
pc:
	.zero	8
	.globl	cb
	.align 8
	.type	cb, @object
	.size	cb, 8
cb:
	.zero	8
	.globl	cs
	.align 8
	.type	cs, @object
	.size	cs, 8
cs:
	.zero	8
	.globl	cc
	.align 8
	.type	cc, @object
	.size	cc, 8
cc:
	.zero	8
	.globl	k
	.align 8
	.type	k, @object
	.size	k, 8
k:
	.zero	8
	.text
	.globl	_Z3canx
	.type	_Z3canx, @function
_Z3canx:
.LFB9705:
	.cfi_startproc
	endbr64
	push	rbp
	.cfi_def_cfa_offset 16
	.cfi_offset 6, -16
	mov	rbp, rsp
	.cfi_def_cfa_register 6
	sub	rsp, 80
	mov	QWORD PTR -72[rbp], rdi
	mov	rax, QWORD PTR fs:40
	mov	QWORD PTR -8[rbp], rax
	xor	eax, eax
	mov	rax, QWORD PTR cb[rip]
	imul	rax, QWORD PTR -72[rbp]
	mov	rdx, QWORD PTR b[rip]
	sub	rax, rdx
	mov	QWORD PTR -48[rbp], rax
	mov	QWORD PTR -56[rbp], 0
	lea	rdx, -48[rbp]
	lea	rax, -56[rbp]
	mov	rsi, rdx
	mov	rdi, rax
	call	_ZSt3maxIxERKT_S2_S2_
	mov	rax, QWORD PTR [rax]
	mov	QWORD PTR -40[rbp], rax
	mov	rax, QWORD PTR cs[rip]
	imul	rax, QWORD PTR -72[rbp]
	mov	rdx, QWORD PTR ss[rip]
	sub	rax, rdx
	mov	QWORD PTR -48[rbp], rax
	mov	QWORD PTR -56[rbp], 0
	lea	rdx, -48[rbp]
	lea	rax, -56[rbp]
	mov	rsi, rdx
	mov	rdi, rax
	call	_ZSt3maxIxERKT_S2_S2_
	mov	rax, QWORD PTR [rax]
	mov	QWORD PTR -32[rbp], rax
	mov	rax, QWORD PTR cc[rip]
	imul	rax, QWORD PTR -72[rbp]
	mov	rdx, QWORD PTR c[rip]
	sub	rax, rdx
	mov	QWORD PTR -48[rbp], rax
	mov	QWORD PTR -56[rbp], 0
	lea	rdx, -48[rbp]
	lea	rax, -56[rbp]
	mov	rsi, rdx
	mov	rdi, rax
	call	_ZSt3maxIxERKT_S2_S2_
	mov	rax, QWORD PTR [rax]
	mov	QWORD PTR -24[rbp], rax
	mov	rax, QWORD PTR pb[rip]
	imul	rax, QWORD PTR -40[rbp]
	mov	rdx, rax
	mov	rax, QWORD PTR ps[rip]
	imul	rax, QWORD PTR -32[rbp]
	add	rdx, rax
	mov	rax, QWORD PTR pc[rip]
	imul	rax, QWORD PTR -24[rbp]
	add	rax, rdx
	mov	QWORD PTR -16[rbp], rax
	mov	rax, QWORD PTR k[rip]
	cmp	QWORD PTR -16[rbp], rax
	setle	al
	mov	rdx, QWORD PTR -8[rbp]
	sub	rdx, QWORD PTR fs:40
	je	.L4
	call	__stack_chk_fail@PLT
.L4:
	leave
	.cfi_def_cfa 7, 8
	ret
	.cfi_endproc
.LFE9705:
	.size	_Z3canx, .-_Z3canx
	.globl	main
	.type	main, @function
main:
.LFB9706:
	.cfi_startproc
	endbr64
	push	rbp
	.cfi_def_cfa_offset 16
	.cfi_offset 6, -16
	mov	rbp, rsp
	.cfi_def_cfa_register 6
	push	rbx
	sub	rsp, 56
	.cfi_offset 3, -24
	call	_Z5setupv
	lea	rax, _Z1sB5cxx11[rip]
	mov	rsi, rax
	lea	rax, _ZSt3cin[rip]
	mov	rdi, rax
	call	_ZStrsIcSt11char_traitsIcESaIcEERSt13basic_istreamIT_T0_ES7_RNSt7__cxx1112basic_stringIS4_S5_T1_EE@PLT
	mov	rdx, rax
	lea	rax, b[rip]
	mov	rsi, rax
	mov	rdi, rdx
	call	_ZNSirsERx@PLT
	mov	rdx, rax
	lea	rax, ss[rip]
	mov	rsi, rax
	mov	rdi, rdx
	call	_ZNSirsERx@PLT
	mov	rdx, rax
	lea	rax, c[rip]
	mov	rsi, rax
	mov	rdi, rdx
	call	_ZNSirsERx@PLT
	mov	rdx, rax
	lea	rax, pb[rip]
	mov	rsi, rax
	mov	rdi, rdx
	call	_ZNSirsERx@PLT
	mov	rdx, rax
	lea	rax, ps[rip]
	mov	rsi, rax
	mov	rdi, rdx
	call	_ZNSirsERx@PLT
	mov	rdx, rax
	lea	rax, pc[rip]
	mov	rsi, rax
	mov	rdi, rdx
	call	_ZNSirsERx@PLT
	mov	rdx, rax
	lea	rax, k[rip]
	mov	rsi, rax
	mov	rdi, rdx
	call	_ZNSirsERx@PLT
	mov	DWORD PTR -52[rbp], 0
	jmp	.L6
.L10:
	mov	eax, DWORD PTR -52[rbp]
	cdqe
	mov	rsi, rax
	lea	rax, _Z1sB5cxx11[rip]
	mov	rdi, rax
	call	_ZNSt7__cxx1112basic_stringIcSt11char_traitsIcESaIcEEixEm@PLT
	movzx	eax, BYTE PTR [rax]
	cmp	al, 66
	sete	al
	test	al, al
	je	.L7
	mov	rax, QWORD PTR cb[rip]
	add	rax, 1
	mov	QWORD PTR cb[rip], rax
	jmp	.L8
.L7:
	mov	eax, DWORD PTR -52[rbp]
	cdqe
	mov	rsi, rax
	lea	rax, _Z1sB5cxx11[rip]
	mov	rdi, rax
	call	_ZNSt7__cxx1112basic_stringIcSt11char_traitsIcESaIcEEixEm@PLT
	movzx	eax, BYTE PTR [rax]
	cmp	al, 83
	sete	al
	test	al, al
	je	.L9
	mov	rax, QWORD PTR cs[rip]
	add	rax, 1
	mov	QWORD PTR cs[rip], rax
	jmp	.L8
.L9:
	mov	rax, QWORD PTR cc[rip]
	add	rax, 1
	mov	QWORD PTR cc[rip], rax
.L8:
	add	DWORD PTR -52[rbp], 1
.L6:
	mov	eax, DWORD PTR -52[rbp]
	movsx	rbx, eax
	lea	rax, _Z1sB5cxx11[rip]
	mov	rdi, rax
	call	_ZNKSt7__cxx1112basic_stringIcSt11char_traitsIcESaIcEE4sizeEv@PLT
	cmp	rbx, rax
	setb	al
	test	al, al
	jne	.L10
	mov	QWORD PTR -48[rbp], 0
	movabs	rax, 10000000000000
	mov	QWORD PTR -40[rbp], rax
	mov	QWORD PTR -32[rbp], 0
	jmp	.L11
.L13:
	mov	rdx, QWORD PTR -48[rbp]
	mov	rax, QWORD PTR -40[rbp]
	add	rax, rdx
	mov	rdx, rax
	shr	rdx, 63
	add	rax, rdx
	sar	rax
	mov	QWORD PTR -24[rbp], rax
	mov	rax, QWORD PTR -24[rbp]
	mov	rdi, rax
	call	_Z3canx
	test	al, al
	je	.L12
	mov	rax, QWORD PTR -24[rbp]
	mov	QWORD PTR -32[rbp], rax
	mov	rax, QWORD PTR -24[rbp]
	add	rax, 1
	mov	QWORD PTR -48[rbp], rax
	jmp	.L11
.L12:
	mov	rax, QWORD PTR -24[rbp]
	sub	rax, 1
	mov	QWORD PTR -40[rbp], rax
.L11:
	mov	rax, QWORD PTR -48[rbp]
	cmp	rax, QWORD PTR -40[rbp]
	jle	.L13
	mov	rax, QWORD PTR -32[rbp]
	mov	rsi, rax
	lea	rax, _ZSt4cout[rip]
	mov	rdi, rax
	call	_ZNSolsEx@PLT
	mov	eax, 0
	mov	rbx, QWORD PTR -8[rbp]
	leave
	.cfi_def_cfa 7, 8
	ret
	.cfi_endproc
.LFE9706:
	.size	main, .-main
	.section	.text._ZSt3maxIxERKT_S2_S2_,"axG",@progbits,_ZSt3maxIxERKT_S2_S2_,comdat
	.weak	_ZSt3maxIxERKT_S2_S2_
	.type	_ZSt3maxIxERKT_S2_S2_, @function
_ZSt3maxIxERKT_S2_S2_:
.LFB10395:
	.cfi_startproc
	endbr64
	push	rbp
	.cfi_def_cfa_offset 16
	.cfi_offset 6, -16
	mov	rbp, rsp
	.cfi_def_cfa_register 6
	mov	QWORD PTR -8[rbp], rdi
	mov	QWORD PTR -16[rbp], rsi
	mov	rax, QWORD PTR -8[rbp]
	mov	rdx, QWORD PTR [rax]
	mov	rax, QWORD PTR -16[rbp]
	mov	rax, QWORD PTR [rax]
	cmp	rdx, rax
	jge	.L16
	mov	rax, QWORD PTR -16[rbp]
	jmp	.L17
.L16:
	mov	rax, QWORD PTR -8[rbp]
.L17:
	pop	rbp
	.cfi_def_cfa 7, 8
	ret
	.cfi_endproc
.LFE10395:
	.size	_ZSt3maxIxERKT_S2_S2_, .-_ZSt3maxIxERKT_S2_S2_
	.text
	.type	_Z41__static_initialization_and_destruction_0ii, @function
_Z41__static_initialization_and_destruction_0ii:
.LFB11458:
	.cfi_startproc
	endbr64
	push	rbp
	.cfi_def_cfa_offset 16
	.cfi_offset 6, -16
	mov	rbp, rsp
	.cfi_def_cfa_register 6
	sub	rsp, 16
	mov	DWORD PTR -4[rbp], edi
	mov	DWORD PTR -8[rbp], esi
	cmp	DWORD PTR -4[rbp], 1
	jne	.L20
	cmp	DWORD PTR -8[rbp], 65535
	jne	.L20
	lea	rax, _ZStL8__ioinit[rip]
	mov	rdi, rax
	call	_ZNSt8ios_base4InitC1Ev@PLT
	lea	rax, __dso_handle[rip]
	mov	rdx, rax
	lea	rax, _ZStL8__ioinit[rip]
	mov	rsi, rax
	mov	rax, QWORD PTR _ZNSt8ios_base4InitD1Ev@GOTPCREL[rip]
	mov	rdi, rax
	call	__cxa_atexit@PLT
	lea	rax, _Z1sB5cxx11[rip]
	mov	rdi, rax
	call	_ZNSt7__cxx1112basic_stringIcSt11char_traitsIcESaIcEEC1Ev@PLT
	lea	rax, __dso_handle[rip]
	mov	rdx, rax
	lea	rax, _Z1sB5cxx11[rip]
	mov	rsi, rax
	mov	rax, QWORD PTR _ZNSt7__cxx1112basic_stringIcSt11char_traitsIcESaIcEED1Ev@GOTPCREL[rip]
	mov	rdi, rax
	call	__cxa_atexit@PLT
.L20:
	nop
	leave
	.cfi_def_cfa 7, 8
	ret
	.cfi_endproc
.LFE11458:
	.size	_Z41__static_initialization_and_destruction_0ii, .-_Z41__static_initialization_and_destruction_0ii
	.type	_GLOBAL__sub_I__Z5setupv, @function
_GLOBAL__sub_I__Z5setupv:
.LFB11481:
	.cfi_startproc
	endbr64
	push	rbp
	.cfi_def_cfa_offset 16
	.cfi_offset 6, -16
	mov	rbp, rsp
	.cfi_def_cfa_register 6
	mov	esi, 65535
	mov	edi, 1
	call	_Z41__static_initialization_and_destruction_0ii
	pop	rbp
	.cfi_def_cfa 7, 8
	ret
	.cfi_endproc
.LFE11481:
	.size	_GLOBAL__sub_I__Z5setupv, .-_GLOBAL__sub_I__Z5setupv
	.section	.init_array,"aw"
	.align 8
	.quad	_GLOBAL__sub_I__Z5setupv
	.hidden	__dso_handle
	.ident	"GCC: (Ubuntu 11.4.0-1ubuntu1~22.04.2) 11.4.0"
	.section	.note.GNU-stack,"",@progbits
	.section	.note.gnu.property,"a"
	.align 8
	.long	1f - 0f
	.long	4f - 1f
	.long	5
0:
	.string	"GNU"
1:
	.align 8
	.long	0xc0000002
	.long	3f - 2f
2:
	.long	0x3
3:
	.align 8
4:
