	.arch armv8-a
	.file	"Shift Right.cpp"
	.text
	.local	_ZStL8__ioinit
	.comm	_ZStL8__ioinit,1,8
	.align	2
	.global	_Z10shiftRightPiii
	.type	_Z10shiftRightPiii, %function
_Z10shiftRightPiii:
.LFB1729:
	.cfi_startproc
	stp	x29, x30, [sp, -48]!
	.cfi_def_cfa_offset 48
	.cfi_offset 29, -48
	.cfi_offset 30, -40
	mov	x29, sp
	str	x0, [sp, 24]
	str	w1, [sp, 20]
	str	w2, [sp, 16]
	ldr	w0, [sp, 16]
	ldr	w1, [sp, 20]
	sdiv	w2, w0, w1
	ldr	w1, [sp, 20]
	mul	w1, w2, w1
	sub	w0, w0, w1
	str	w0, [sp, 16]
	str	wzr, [sp, 44]
	b	.L2
.L3:
	ldrsw	x0, [sp, 44]
	lsl	x0, x0, 2
	ldr	x1, [sp, 24]
	add	x2, x1, x0
	ldr	w1, [sp, 20]
	ldr	w0, [sp, 16]
	sub	w0, w1, w0
	sub	w1, w0, #1
	ldr	w0, [sp, 44]
	sub	w0, w1, w0
	sxtw	x0, w0
	lsl	x0, x0, 2
	ldr	x1, [sp, 24]
	add	x0, x1, x0
	mov	x1, x0
	mov	x0, x2
	bl	_ZSt4swapIiENSt9enable_ifIXsrSt6__and_IJSt6__not_ISt15__is_tuple_likeIT_EESt21is_move_constructibleIS4_ESt18is_move_assignableIS4_EEE5valueEvE4typeERS4_SE_
	ldr	w0, [sp, 44]
	add	w0, w0, 1
	str	w0, [sp, 44]
.L2:
	ldr	w1, [sp, 20]
	ldr	w0, [sp, 16]
	sub	w0, w1, w0
	lsr	w1, w0, 31
	add	w0, w1, w0
	asr	w0, w0, 1
	mov	w1, w0
	ldr	w0, [sp, 44]
	cmp	w0, w1
	blt	.L3
	ldr	w1, [sp, 20]
	ldr	w0, [sp, 16]
	sub	w0, w1, w0
	str	w0, [sp, 40]
	b	.L4
.L5:
	ldrsw	x0, [sp, 40]
	lsl	x0, x0, 2
	ldr	x1, [sp, 24]
	add	x2, x1, x0
	ldr	w0, [sp, 20]
	lsl	w1, w0, 1
	ldr	w0, [sp, 16]
	sub	w0, w1, w0
	sub	w1, w0, #1
	ldr	w0, [sp, 40]
	sub	w0, w1, w0
	sxtw	x0, w0
	lsl	x0, x0, 2
	ldr	x1, [sp, 24]
	add	x0, x1, x0
	mov	x1, x0
	mov	x0, x2
	bl	_ZSt4swapIiENSt9enable_ifIXsrSt6__and_IJSt6__not_ISt15__is_tuple_likeIT_EESt21is_move_constructibleIS4_ESt18is_move_assignableIS4_EEE5valueEvE4typeERS4_SE_
	ldr	w0, [sp, 40]
	add	w0, w0, 1
	str	w0, [sp, 40]
.L4:
	ldr	w0, [sp, 20]
	lsl	w1, w0, 1
	ldr	w0, [sp, 16]
	sub	w0, w1, w0
	lsr	w1, w0, 31
	add	w0, w1, w0
	asr	w0, w0, 1
	mov	w1, w0
	ldr	w0, [sp, 40]
	cmp	w0, w1
	blt	.L5
	str	wzr, [sp, 36]
	b	.L6
.L7:
	ldrsw	x0, [sp, 36]
	lsl	x0, x0, 2
	ldr	x1, [sp, 24]
	add	x2, x1, x0
	ldr	w0, [sp, 20]
	sub	w1, w0, #1
	ldr	w0, [sp, 36]
	sub	w0, w1, w0
	sxtw	x0, w0
	lsl	x0, x0, 2
	ldr	x1, [sp, 24]
	add	x0, x1, x0
	mov	x1, x0
	mov	x0, x2
	bl	_ZSt4swapIiENSt9enable_ifIXsrSt6__and_IJSt6__not_ISt15__is_tuple_likeIT_EESt21is_move_constructibleIS4_ESt18is_move_assignableIS4_EEE5valueEvE4typeERS4_SE_
	ldr	w0, [sp, 36]
	add	w0, w0, 1
	str	w0, [sp, 36]
.L6:
	ldr	w0, [sp, 20]
	lsr	w1, w0, 31
	add	w0, w1, w0
	asr	w0, w0, 1
	mov	w1, w0
	ldr	w0, [sp, 36]
	cmp	w0, w1
	blt	.L7
	nop
	nop
	ldp	x29, x30, [sp], 48
	.cfi_restore 30
	.cfi_restore 29
	.cfi_def_cfa_offset 0
	ret
	.cfi_endproc
.LFE1729:
	.size	_Z10shiftRightPiii, .-_Z10shiftRightPiii
	.section	.rodata
	.align	3
.LC0:
	.string	" "
	.text
	.align	2
	.global	main
	.type	main, %function
main:
.LFB1731:
	.cfi_startproc
	mov	x12, 40064
	sub	sp, sp, x12
	.cfi_def_cfa_offset 40064
	stp	x29, x30, [sp]
	.cfi_offset 29, -40064
	.cfi_offset 30, -40056
	mov	x29, sp
	add	x0, sp, 36864
	add	x0, x0, 3188
	mov	x1, x0
	adrp	x0, :got:_ZSt3cin
	ldr	x0, [x0, #:got_lo12:_ZSt3cin]
	bl	_ZNSirsERi
	mov	x2, x0
	add	x0, sp, 36864
	add	x0, x0, 3184
	mov	x1, x0
	mov	x0, x2
	bl	_ZNSirsERi
	add	x0, sp, 32768
	str	wzr, [x0, 7292]
	b	.L9
.L10:
	add	x1, sp, 24
	add	x0, sp, 32768
	ldrsw	x0, [x0, 7292]
	lsl	x0, x0, 2
	add	x0, x1, x0
	mov	x1, x0
	adrp	x0, :got:_ZSt3cin
	ldr	x0, [x0, #:got_lo12:_ZSt3cin]
	bl	_ZNSirsERi
	add	x0, sp, 32768
	ldr	w0, [x0, 7292]
	add	w0, w0, 1
	add	x1, sp, 32768
	str	w0, [x1, 7292]
.L9:
	add	x0, sp, 32768
	ldr	w0, [x0, 7284]
	add	x1, sp, 32768
	ldr	w1, [x1, 7292]
	cmp	w1, w0
	blt	.L10
	add	x0, sp, 32768
	ldr	w1, [x0, 7284]
	add	x0, sp, 32768
	ldr	w2, [x0, 7280]
	add	x0, sp, 24
	bl	_Z10shiftRightPiii
	add	x0, sp, 32768
	str	wzr, [x0, 7288]
	b	.L11
.L12:
	add	x0, sp, 32768
	ldrsw	x0, [x0, 7288]
	lsl	x0, x0, 2
	add	x1, sp, 24
	ldr	w0, [x1, x0]
	mov	w1, w0
	adrp	x0, :got:_ZSt4cout
	ldr	x0, [x0, #:got_lo12:_ZSt4cout]
	bl	_ZNSolsEi
	mov	x2, x0
	adrp	x0, .LC0
	add	x1, x0, :lo12:.LC0
	mov	x0, x2
	bl	_ZStlsISt11char_traitsIcEERSt13basic_ostreamIcT_ES5_PKc
	add	x0, sp, 32768
	ldr	w0, [x0, 7288]
	add	w0, w0, 1
	add	x1, sp, 32768
	str	w0, [x1, 7288]
.L11:
	add	x0, sp, 32768
	ldr	w0, [x0, 7284]
	add	x1, sp, 32768
	ldr	w1, [x1, 7288]
	cmp	w1, w0
	blt	.L12
	mov	w0, 0
	ldp	x29, x30, [sp]
	mov	x12, 40064
	add	sp, sp, x12
	.cfi_restore 29
	.cfi_restore 30
	.cfi_def_cfa_offset 0
	ret
	.cfi_endproc
.LFE1731:
	.size	main, .-main
	.section	.text._ZSt4moveIRiEONSt16remove_referenceIT_E4typeEOS2_,"axG",@progbits,_ZSt4moveIRiEONSt16remove_referenceIT_E4typeEOS2_,comdat
	.align	2
	.weak	_ZSt4moveIRiEONSt16remove_referenceIT_E4typeEOS2_
	.type	_ZSt4moveIRiEONSt16remove_referenceIT_E4typeEOS2_, %function
_ZSt4moveIRiEONSt16remove_referenceIT_E4typeEOS2_:
.LFB1993:
	.cfi_startproc
	sub	sp, sp, #16
	.cfi_def_cfa_offset 16
	str	x0, [sp, 8]
	ldr	x0, [sp, 8]
	add	sp, sp, 16
	.cfi_def_cfa_offset 0
	ret
	.cfi_endproc
.LFE1993:
	.size	_ZSt4moveIRiEONSt16remove_referenceIT_E4typeEOS2_, .-_ZSt4moveIRiEONSt16remove_referenceIT_E4typeEOS2_
	.section	.text._ZSt4swapIiENSt9enable_ifIXsrSt6__and_IJSt6__not_ISt15__is_tuple_likeIT_EESt21is_move_constructibleIS4_ESt18is_move_assignableIS4_EEE5valueEvE4typeERS4_SE_,"axG",@progbits,_ZSt4swapIiENSt9enable_ifIXsrSt6__and_IJSt6__not_ISt15__is_tuple_likeIT_EESt21is_move_constructibleIS4_ESt18is_move_assignableIS4_EEE5valueEvE4typeERS4_SE_,comdat
	.align	2
	.weak	_ZSt4swapIiENSt9enable_ifIXsrSt6__and_IJSt6__not_ISt15__is_tuple_likeIT_EESt21is_move_constructibleIS4_ESt18is_move_assignableIS4_EEE5valueEvE4typeERS4_SE_
	.type	_ZSt4swapIiENSt9enable_ifIXsrSt6__and_IJSt6__not_ISt15__is_tuple_likeIT_EESt21is_move_constructibleIS4_ESt18is_move_assignableIS4_EEE5valueEvE4typeERS4_SE_, %function
_ZSt4swapIiENSt9enable_ifIXsrSt6__and_IJSt6__not_ISt15__is_tuple_likeIT_EESt21is_move_constructibleIS4_ESt18is_move_assignableIS4_EEE5valueEvE4typeERS4_SE_:
.LFB1992:
	.cfi_startproc
	stp	x29, x30, [sp, -48]!
	.cfi_def_cfa_offset 48
	.cfi_offset 29, -48
	.cfi_offset 30, -40
	mov	x29, sp
	str	x0, [sp, 24]
	str	x1, [sp, 16]
	ldr	x0, [sp, 24]
	bl	_ZSt4moveIRiEONSt16remove_referenceIT_E4typeEOS2_
	ldr	w0, [x0]
	str	w0, [sp, 44]
	ldr	x0, [sp, 16]
	bl	_ZSt4moveIRiEONSt16remove_referenceIT_E4typeEOS2_
	ldr	w1, [x0]
	ldr	x0, [sp, 24]
	str	w1, [x0]
	add	x0, sp, 44
	bl	_ZSt4moveIRiEONSt16remove_referenceIT_E4typeEOS2_
	ldr	w1, [x0]
	ldr	x0, [sp, 16]
	str	w1, [x0]
	nop
	ldp	x29, x30, [sp], 48
	.cfi_restore 30
	.cfi_restore 29
	.cfi_def_cfa_offset 0
	ret
	.cfi_endproc
.LFE1992:
	.size	_ZSt4swapIiENSt9enable_ifIXsrSt6__and_IJSt6__not_ISt15__is_tuple_likeIT_EESt21is_move_constructibleIS4_ESt18is_move_assignableIS4_EEE5valueEvE4typeERS4_SE_, .-_ZSt4swapIiENSt9enable_ifIXsrSt6__and_IJSt6__not_ISt15__is_tuple_likeIT_EESt21is_move_constructibleIS4_ESt18is_move_assignableIS4_EEE5valueEvE4typeERS4_SE_
	.text
	.align	2
	.type	_Z41__static_initialization_and_destruction_0ii, %function
_Z41__static_initialization_and_destruction_0ii:
.LFB2231:
	.cfi_startproc
	stp	x29, x30, [sp, -32]!
	.cfi_def_cfa_offset 32
	.cfi_offset 29, -32
	.cfi_offset 30, -24
	mov	x29, sp
	str	w0, [sp, 28]
	str	w1, [sp, 24]
	ldr	w0, [sp, 28]
	cmp	w0, 1
	bne	.L19
	ldr	w1, [sp, 24]
	mov	w0, 65535
	cmp	w1, w0
	bne	.L19
	adrp	x0, _ZStL8__ioinit
	add	x0, x0, :lo12:_ZStL8__ioinit
	bl	_ZNSt8ios_base4InitC1Ev
	adrp	x0, __dso_handle
	add	x2, x0, :lo12:__dso_handle
	adrp	x0, _ZStL8__ioinit
	add	x1, x0, :lo12:_ZStL8__ioinit
	adrp	x0, :got:_ZNSt8ios_base4InitD1Ev
	ldr	x0, [x0, #:got_lo12:_ZNSt8ios_base4InitD1Ev]
	bl	__cxa_atexit
.L19:
	nop
	ldp	x29, x30, [sp], 32
	.cfi_restore 30
	.cfi_restore 29
	.cfi_def_cfa_offset 0
	ret
	.cfi_endproc
.LFE2231:
	.size	_Z41__static_initialization_and_destruction_0ii, .-_Z41__static_initialization_and_destruction_0ii
	.align	2
	.type	_GLOBAL__sub_I__Z10shiftRightPiii, %function
_GLOBAL__sub_I__Z10shiftRightPiii:
.LFB2232:
	.cfi_startproc
	stp	x29, x30, [sp, -16]!
	.cfi_def_cfa_offset 16
	.cfi_offset 29, -16
	.cfi_offset 30, -8
	mov	x29, sp
	mov	w1, 65535
	mov	w0, 1
	bl	_Z41__static_initialization_and_destruction_0ii
	ldp	x29, x30, [sp], 16
	.cfi_restore 30
	.cfi_restore 29
	.cfi_def_cfa_offset 0
	ret
	.cfi_endproc
.LFE2232:
	.size	_GLOBAL__sub_I__Z10shiftRightPiii, .-_GLOBAL__sub_I__Z10shiftRightPiii
	.section	.init_array,"aw",%init_array
	.align	3
	.xword	_GLOBAL__sub_I__Z10shiftRightPiii
	.hidden	__dso_handle
	.ident	"GCC: (Ubuntu 11.4.0-1ubuntu1~22.04) 11.4.0"
	.section	.note.GNU-stack,"",@progbits
