	.arch armv8-a
	.file	"Clock_Conversion.cpp"
	.text
	.section	.rodata
	.align	3
.LC0:
	.string	"stoi"
	.section	.text._ZNSt7__cxx114stoiERKNS_12basic_stringIcSt11char_traitsIcESaIcEEEPmi,"axG",@progbits,_ZNSt7__cxx114stoiERKNS_12basic_stringIcSt11char_traitsIcESaIcEEEPmi,comdat
	.align	2
	.weak	_ZNSt7__cxx114stoiERKNS_12basic_stringIcSt11char_traitsIcESaIcEEEPmi
	.type	_ZNSt7__cxx114stoiERKNS_12basic_stringIcSt11char_traitsIcESaIcEEEPmi, %function
_ZNSt7__cxx114stoiERKNS_12basic_stringIcSt11char_traitsIcESaIcEEEPmi:
.LFB1131:
	.cfi_startproc
	stp	x29, x30, [sp, -48]!
	.cfi_def_cfa_offset 48
	.cfi_offset 29, -48
	.cfi_offset 30, -40
	mov	x29, sp
	str	x0, [sp, 40]
	str	x1, [sp, 32]
	str	w2, [sp, 28]
	ldr	x0, [sp, 40]
	bl	_ZNKSt7__cxx1112basic_stringIcSt11char_traitsIcESaIcEE5c_strEv
	ldr	w4, [sp, 28]
	ldr	x3, [sp, 32]
	mov	x2, x0
	adrp	x0, .LC0
	add	x1, x0, :lo12:.LC0
	adrp	x0, :got:strtol
	ldr	x0, [x0, #:got_lo12:strtol]
	bl	_ZN9__gnu_cxx6__stoaIlicJiEEET0_PFT_PKT1_PPS3_DpT2_EPKcS5_PmS9_
	ldp	x29, x30, [sp], 48
	.cfi_restore 30
	.cfi_restore 29
	.cfi_def_cfa_offset 0
	ret
	.cfi_endproc
.LFE1131:
	.size	_ZNSt7__cxx114stoiERKNS_12basic_stringIcSt11char_traitsIcESaIcEEEPmi, .-_ZNSt7__cxx114stoiERKNS_12basic_stringIcSt11char_traitsIcESaIcEEEPmi
	.local	_ZStL8__ioinit
	.comm	_ZStL8__ioinit,1,8
	.section	.rodata
	.align	3
.LC1:
	.string	":"
	.align	3
.LC2:
	.string	" PM"
	.align	3
.LC3:
	.string	" AM"
	.text
	.align	2
	.global	main
	.type	main, %function
main:
.LFB1729:
	.cfi_startproc
	.cfi_personality 0x9b,DW.ref.__gxx_personality_v0
	.cfi_lsda 0x1b,.LLSDA1729
	stp	x29, x30, [sp, -272]!
	.cfi_def_cfa_offset 272
	.cfi_offset 29, -272
	.cfi_offset 30, -264
	mov	x29, sp
	str	x19, [sp, 16]
	.cfi_offset 19, -256
	add	x0, sp, 100
	mov	x1, x0
	adrp	x0, :got:_ZSt3cin
	ldr	x0, [x0, #:got_lo12:_ZSt3cin]
.LEHB0:
	bl	_ZNSirsERi
.LEHE0:
	b	.L4
.L10:
	add	x0, sp, 32
	bl	_ZNSt7__cxx1112basic_stringIcSt11char_traitsIcESaIcEEC1Ev
	add	x0, sp, 32
	mov	x1, x0
	adrp	x0, :got:_ZSt3cin
	ldr	x0, [x0, #:got_lo12:_ZSt3cin]
.LEHB1:
	bl	_ZStrsIcSt11char_traitsIcESaIcEERSt13basic_istreamIT_T0_ES7_RNSt7__cxx1112basic_stringIS4_S5_T1_EE
	add	x0, sp, 32
	add	x1, sp, 64
	mov	x8, x1
	mov	x2, 2
	mov	x1, 0
	bl	_ZNKSt7__cxx1112basic_stringIcSt11char_traitsIcESaIcEE6substrEmm
.LEHE1:
	add	x0, sp, 64
	mov	w2, 10
	mov	x1, 0
.LEHB2:
	bl	_ZNSt7__cxx114stoiERKNS_12basic_stringIcSt11char_traitsIcESaIcEEEPmi
	str	w0, [sp, 268]
	mov	w1, 12
	ldr	w0, [sp, 268]
	sub	w0, w1, w0
	str	w0, [sp, 264]
	ldr	w0, [sp, 264]
	cmp	w0, 0
	bge	.L5
	ldr	w0, [sp, 264]
	cmn	w0, #9
	blt	.L6
	mov	w1, 0
	adrp	x0, :got:_ZSt4cout
	ldr	x0, [x0, #:got_lo12:_ZSt4cout]
	bl	_ZNSolsEi
	mov	x2, x0
	ldr	w0, [sp, 264]
	neg	w0, w0
	mov	w1, w0
	mov	x0, x2
	bl	_ZNSolsEi
	mov	x2, x0
	adrp	x0, .LC1
	add	x1, x0, :lo12:.LC1
	mov	x0, x2
	bl	_ZStlsISt11char_traitsIcEERSt13basic_ostreamIcT_ES5_PKc
	mov	x19, x0
	add	x0, sp, 32
	add	x1, sp, 104
	mov	x8, x1
	mov	x2, 2
	mov	x1, 3
	bl	_ZNKSt7__cxx1112basic_stringIcSt11char_traitsIcESaIcEE6substrEmm
.LEHE2:
	add	x0, sp, 104
	mov	x1, x0
	mov	x0, x19
.LEHB3:
	bl	_ZStlsIcSt11char_traitsIcESaIcEERSt13basic_ostreamIT_T0_ES7_RKNSt7__cxx1112basic_stringIS4_S5_T1_EE
	mov	x2, x0
	adrp	x0, .LC2
	add	x1, x0, :lo12:.LC2
	mov	x0, x2
	bl	_ZStlsISt11char_traitsIcEERSt13basic_ostreamIcT_ES5_PKc
.LEHE3:
	add	x0, sp, 104
	bl	_ZNSt7__cxx1112basic_stringIcSt11char_traitsIcESaIcEED1Ev
	b	.L7
.L6:
	ldr	w0, [sp, 264]
	neg	w0, w0
	mov	w1, w0
	adrp	x0, :got:_ZSt4cout
	ldr	x0, [x0, #:got_lo12:_ZSt4cout]
.LEHB4:
	bl	_ZNSolsEi
	mov	x2, x0
	adrp	x0, .LC1
	add	x1, x0, :lo12:.LC1
	mov	x0, x2
	bl	_ZStlsISt11char_traitsIcEERSt13basic_ostreamIcT_ES5_PKc
	mov	x19, x0
	add	x0, sp, 32
	add	x1, sp, 136
	mov	x8, x1
	mov	x2, 2
	mov	x1, 3
	bl	_ZNKSt7__cxx1112basic_stringIcSt11char_traitsIcESaIcEE6substrEmm
.LEHE4:
	add	x0, sp, 136
	mov	x1, x0
	mov	x0, x19
.LEHB5:
	bl	_ZStlsIcSt11char_traitsIcESaIcEERSt13basic_ostreamIT_T0_ES7_RKNSt7__cxx1112basic_stringIS4_S5_T1_EE
	mov	x2, x0
	adrp	x0, .LC2
	add	x1, x0, :lo12:.LC2
	mov	x0, x2
	bl	_ZStlsISt11char_traitsIcEERSt13basic_ostreamIcT_ES5_PKc
.LEHE5:
	add	x0, sp, 136
	bl	_ZNSt7__cxx1112basic_stringIcSt11char_traitsIcESaIcEED1Ev
	b	.L7
.L5:
	ldr	w0, [sp, 264]
	cmp	w0, 0
	bne	.L8
	mov	w1, 12
	adrp	x0, :got:_ZSt4cout
	ldr	x0, [x0, #:got_lo12:_ZSt4cout]
.LEHB6:
	bl	_ZNSolsEi
	mov	x2, x0
	adrp	x0, .LC1
	add	x1, x0, :lo12:.LC1
	mov	x0, x2
	bl	_ZStlsISt11char_traitsIcEERSt13basic_ostreamIcT_ES5_PKc
	mov	x19, x0
	add	x0, sp, 32
	add	x1, sp, 168
	mov	x8, x1
	mov	x2, 2
	mov	x1, 3
	bl	_ZNKSt7__cxx1112basic_stringIcSt11char_traitsIcESaIcEE6substrEmm
.LEHE6:
	add	x0, sp, 168
	mov	x1, x0
	mov	x0, x19
.LEHB7:
	bl	_ZStlsIcSt11char_traitsIcESaIcEERSt13basic_ostreamIT_T0_ES7_RKNSt7__cxx1112basic_stringIS4_S5_T1_EE
	mov	x2, x0
	adrp	x0, .LC2
	add	x1, x0, :lo12:.LC2
	mov	x0, x2
	bl	_ZStlsISt11char_traitsIcEERSt13basic_ostreamIcT_ES5_PKc
.LEHE7:
	add	x0, sp, 168
	bl	_ZNSt7__cxx1112basic_stringIcSt11char_traitsIcESaIcEED1Ev
	b	.L7
.L8:
	ldr	w0, [sp, 264]
	cmp	w0, 12
	bne	.L9
	mov	w1, 12
	adrp	x0, :got:_ZSt4cout
	ldr	x0, [x0, #:got_lo12:_ZSt4cout]
.LEHB8:
	bl	_ZNSolsEi
	mov	x2, x0
	adrp	x0, .LC1
	add	x1, x0, :lo12:.LC1
	mov	x0, x2
	bl	_ZStlsISt11char_traitsIcEERSt13basic_ostreamIcT_ES5_PKc
	mov	x19, x0
	add	x0, sp, 32
	add	x1, sp, 200
	mov	x8, x1
	mov	x2, 2
	mov	x1, 3
	bl	_ZNKSt7__cxx1112basic_stringIcSt11char_traitsIcESaIcEE6substrEmm
.LEHE8:
	add	x0, sp, 200
	mov	x1, x0
	mov	x0, x19
.LEHB9:
	bl	_ZStlsIcSt11char_traitsIcESaIcEERSt13basic_ostreamIT_T0_ES7_RKNSt7__cxx1112basic_stringIS4_S5_T1_EE
	mov	x2, x0
	adrp	x0, .LC3
	add	x1, x0, :lo12:.LC3
	mov	x0, x2
	bl	_ZStlsISt11char_traitsIcEERSt13basic_ostreamIcT_ES5_PKc
.LEHE9:
	add	x0, sp, 200
	bl	_ZNSt7__cxx1112basic_stringIcSt11char_traitsIcESaIcEED1Ev
	b	.L7
.L9:
	add	x0, sp, 64
	mov	x1, x0
	adrp	x0, :got:_ZSt4cout
	ldr	x0, [x0, #:got_lo12:_ZSt4cout]
.LEHB10:
	bl	_ZStlsIcSt11char_traitsIcESaIcEERSt13basic_ostreamIT_T0_ES7_RKNSt7__cxx1112basic_stringIS4_S5_T1_EE
	mov	x2, x0
	adrp	x0, .LC1
	add	x1, x0, :lo12:.LC1
	mov	x0, x2
	bl	_ZStlsISt11char_traitsIcEERSt13basic_ostreamIcT_ES5_PKc
	mov	x19, x0
	add	x0, sp, 32
	add	x1, sp, 232
	mov	x8, x1
	mov	x2, 2
	mov	x1, 3
	bl	_ZNKSt7__cxx1112basic_stringIcSt11char_traitsIcESaIcEE6substrEmm
.LEHE10:
	add	x0, sp, 232
	mov	x1, x0
	mov	x0, x19
.LEHB11:
	bl	_ZStlsIcSt11char_traitsIcESaIcEERSt13basic_ostreamIT_T0_ES7_RKNSt7__cxx1112basic_stringIS4_S5_T1_EE
	mov	x2, x0
	adrp	x0, .LC3
	add	x1, x0, :lo12:.LC3
	mov	x0, x2
	bl	_ZStlsISt11char_traitsIcEERSt13basic_ostreamIcT_ES5_PKc
.LEHE11:
	add	x0, sp, 232
	bl	_ZNSt7__cxx1112basic_stringIcSt11char_traitsIcESaIcEED1Ev
.L7:
	adrp	x0, :got:_ZSt4endlIcSt11char_traitsIcEERSt13basic_ostreamIT_T0_ES6_
	ldr	x1, [x0, #:got_lo12:_ZSt4endlIcSt11char_traitsIcEERSt13basic_ostreamIT_T0_ES6_]
	adrp	x0, :got:_ZSt4cout
	ldr	x0, [x0, #:got_lo12:_ZSt4cout]
.LEHB12:
	bl	_ZNSolsEPFRSoS_E
.LEHE12:
	add	x0, sp, 64
	bl	_ZNSt7__cxx1112basic_stringIcSt11char_traitsIcESaIcEED1Ev
	add	x0, sp, 32
	bl	_ZNSt7__cxx1112basic_stringIcSt11char_traitsIcESaIcEED1Ev
.L4:
	ldr	w0, [sp, 100]
	sub	w1, w0, #1
	str	w1, [sp, 100]
	cmp	w0, 0
	cset	w0, ne
	and	w0, w0, 255
	cmp	w0, 0
	bne	.L10
	mov	w0, 0
	b	.L26
.L21:
	mov	x19, x0
	add	x0, sp, 104
	bl	_ZNSt7__cxx1112basic_stringIcSt11char_traitsIcESaIcEED1Ev
	b	.L13
.L22:
	mov	x19, x0
	add	x0, sp, 136
	bl	_ZNSt7__cxx1112basic_stringIcSt11char_traitsIcESaIcEED1Ev
	b	.L13
.L23:
	mov	x19, x0
	add	x0, sp, 168
	bl	_ZNSt7__cxx1112basic_stringIcSt11char_traitsIcESaIcEED1Ev
	b	.L13
.L24:
	mov	x19, x0
	add	x0, sp, 200
	bl	_ZNSt7__cxx1112basic_stringIcSt11char_traitsIcESaIcEED1Ev
	b	.L13
.L25:
	mov	x19, x0
	add	x0, sp, 232
	bl	_ZNSt7__cxx1112basic_stringIcSt11char_traitsIcESaIcEED1Ev
	b	.L13
.L20:
	mov	x19, x0
.L13:
	add	x0, sp, 64
	bl	_ZNSt7__cxx1112basic_stringIcSt11char_traitsIcESaIcEED1Ev
	b	.L18
.L19:
	mov	x19, x0
.L18:
	add	x0, sp, 32
	bl	_ZNSt7__cxx1112basic_stringIcSt11char_traitsIcESaIcEED1Ev
	mov	x0, x19
.LEHB13:
	bl	_Unwind_Resume
.LEHE13:
.L26:
	ldr	x19, [sp, 16]
	ldp	x29, x30, [sp], 272
	.cfi_restore 30
	.cfi_restore 29
	.cfi_restore 19
	.cfi_def_cfa_offset 0
	ret
	.cfi_endproc
.LFE1729:
	.global	__gxx_personality_v0
	.section	.gcc_except_table,"a",@progbits
.LLSDA1729:
	.byte	0xff
	.byte	0xff
	.byte	0x1
	.uleb128 .LLSDACSE1729-.LLSDACSB1729
.LLSDACSB1729:
	.uleb128 .LEHB0-.LFB1729
	.uleb128 .LEHE0-.LEHB0
	.uleb128 0
	.uleb128 0
	.uleb128 .LEHB1-.LFB1729
	.uleb128 .LEHE1-.LEHB1
	.uleb128 .L19-.LFB1729
	.uleb128 0
	.uleb128 .LEHB2-.LFB1729
	.uleb128 .LEHE2-.LEHB2
	.uleb128 .L20-.LFB1729
	.uleb128 0
	.uleb128 .LEHB3-.LFB1729
	.uleb128 .LEHE3-.LEHB3
	.uleb128 .L21-.LFB1729
	.uleb128 0
	.uleb128 .LEHB4-.LFB1729
	.uleb128 .LEHE4-.LEHB4
	.uleb128 .L20-.LFB1729
	.uleb128 0
	.uleb128 .LEHB5-.LFB1729
	.uleb128 .LEHE5-.LEHB5
	.uleb128 .L22-.LFB1729
	.uleb128 0
	.uleb128 .LEHB6-.LFB1729
	.uleb128 .LEHE6-.LEHB6
	.uleb128 .L20-.LFB1729
	.uleb128 0
	.uleb128 .LEHB7-.LFB1729
	.uleb128 .LEHE7-.LEHB7
	.uleb128 .L23-.LFB1729
	.uleb128 0
	.uleb128 .LEHB8-.LFB1729
	.uleb128 .LEHE8-.LEHB8
	.uleb128 .L20-.LFB1729
	.uleb128 0
	.uleb128 .LEHB9-.LFB1729
	.uleb128 .LEHE9-.LEHB9
	.uleb128 .L24-.LFB1729
	.uleb128 0
	.uleb128 .LEHB10-.LFB1729
	.uleb128 .LEHE10-.LEHB10
	.uleb128 .L20-.LFB1729
	.uleb128 0
	.uleb128 .LEHB11-.LFB1729
	.uleb128 .LEHE11-.LEHB11
	.uleb128 .L25-.LFB1729
	.uleb128 0
	.uleb128 .LEHB12-.LFB1729
	.uleb128 .LEHE12-.LEHB12
	.uleb128 .L20-.LFB1729
	.uleb128 0
	.uleb128 .LEHB13-.LFB1729
	.uleb128 .LEHE13-.LEHB13
	.uleb128 0
	.uleb128 0
.LLSDACSE1729:
	.text
	.size	main, .-main
	.section	.text._ZZN9__gnu_cxx6__stoaIlicJiEEET0_PFT_PKT1_PPS3_DpT2_EPKcS5_PmS9_EN11_Save_errnoC2Ev,"axG",@progbits,_ZZN9__gnu_cxx6__stoaIlicJiEEET0_PFT_PKT1_PPS3_DpT2_EPKcS5_PmS9_EN11_Save_errnoC5Ev,comdat
	.align	2
	.weak	_ZZN9__gnu_cxx6__stoaIlicJiEEET0_PFT_PKT1_PPS3_DpT2_EPKcS5_PmS9_EN11_Save_errnoC2Ev
	.type	_ZZN9__gnu_cxx6__stoaIlicJiEEET0_PFT_PKT1_PPS3_DpT2_EPKcS5_PmS9_EN11_Save_errnoC2Ev, %function
_ZZN9__gnu_cxx6__stoaIlicJiEEET0_PFT_PKT1_PPS3_DpT2_EPKcS5_PmS9_EN11_Save_errnoC2Ev:
.LFB1761:
	.cfi_startproc
	stp	x29, x30, [sp, -32]!
	.cfi_def_cfa_offset 32
	.cfi_offset 29, -32
	.cfi_offset 30, -24
	mov	x29, sp
	str	x0, [sp, 24]
	bl	__errno_location
	ldr	w1, [x0]
	ldr	x0, [sp, 24]
	str	w1, [x0]
	bl	__errno_location
	str	wzr, [x0]
	nop
	ldp	x29, x30, [sp], 32
	.cfi_restore 30
	.cfi_restore 29
	.cfi_def_cfa_offset 0
	ret
	.cfi_endproc
.LFE1761:
	.size	_ZZN9__gnu_cxx6__stoaIlicJiEEET0_PFT_PKT1_PPS3_DpT2_EPKcS5_PmS9_EN11_Save_errnoC2Ev, .-_ZZN9__gnu_cxx6__stoaIlicJiEEET0_PFT_PKT1_PPS3_DpT2_EPKcS5_PmS9_EN11_Save_errnoC2Ev
	.weak	_ZZN9__gnu_cxx6__stoaIlicJiEEET0_PFT_PKT1_PPS3_DpT2_EPKcS5_PmS9_EN11_Save_errnoC1Ev
	.set	_ZZN9__gnu_cxx6__stoaIlicJiEEET0_PFT_PKT1_PPS3_DpT2_EPKcS5_PmS9_EN11_Save_errnoC1Ev,_ZZN9__gnu_cxx6__stoaIlicJiEEET0_PFT_PKT1_PPS3_DpT2_EPKcS5_PmS9_EN11_Save_errnoC2Ev
	.section	.text._ZZN9__gnu_cxx6__stoaIlicJiEEET0_PFT_PKT1_PPS3_DpT2_EPKcS5_PmS9_EN11_Save_errnoD2Ev,"axG",@progbits,_ZZN9__gnu_cxx6__stoaIlicJiEEET0_PFT_PKT1_PPS3_DpT2_EPKcS5_PmS9_EN11_Save_errnoD5Ev,comdat
	.align	2
	.weak	_ZZN9__gnu_cxx6__stoaIlicJiEEET0_PFT_PKT1_PPS3_DpT2_EPKcS5_PmS9_EN11_Save_errnoD2Ev
	.type	_ZZN9__gnu_cxx6__stoaIlicJiEEET0_PFT_PKT1_PPS3_DpT2_EPKcS5_PmS9_EN11_Save_errnoD2Ev, %function
_ZZN9__gnu_cxx6__stoaIlicJiEEET0_PFT_PKT1_PPS3_DpT2_EPKcS5_PmS9_EN11_Save_errnoD2Ev:
.LFB1764:
	.cfi_startproc
	stp	x29, x30, [sp, -32]!
	.cfi_def_cfa_offset 32
	.cfi_offset 29, -32
	.cfi_offset 30, -24
	mov	x29, sp
	str	x0, [sp, 24]
	bl	__errno_location
	ldr	w0, [x0]
	cmp	w0, 0
	bne	.L30
	bl	__errno_location
	mov	x1, x0
	ldr	x0, [sp, 24]
	ldr	w0, [x0]
	str	w0, [x1]
.L30:
	nop
	ldp	x29, x30, [sp], 32
	.cfi_restore 30
	.cfi_restore 29
	.cfi_def_cfa_offset 0
	ret
	.cfi_endproc
.LFE1764:
	.size	_ZZN9__gnu_cxx6__stoaIlicJiEEET0_PFT_PKT1_PPS3_DpT2_EPKcS5_PmS9_EN11_Save_errnoD2Ev, .-_ZZN9__gnu_cxx6__stoaIlicJiEEET0_PFT_PKT1_PPS3_DpT2_EPKcS5_PmS9_EN11_Save_errnoD2Ev
	.weak	_ZZN9__gnu_cxx6__stoaIlicJiEEET0_PFT_PKT1_PPS3_DpT2_EPKcS5_PmS9_EN11_Save_errnoD1Ev
	.set	_ZZN9__gnu_cxx6__stoaIlicJiEEET0_PFT_PKT1_PPS3_DpT2_EPKcS5_PmS9_EN11_Save_errnoD1Ev,_ZZN9__gnu_cxx6__stoaIlicJiEEET0_PFT_PKT1_PPS3_DpT2_EPKcS5_PmS9_EN11_Save_errnoD2Ev
	.section	.text._ZZN9__gnu_cxx6__stoaIlicJiEEET0_PFT_PKT1_PPS3_DpT2_EPKcS5_PmS9_EN10_Range_chk6_S_chkElSt17integral_constantIbLb1EE,"axG",@progbits,_ZZN9__gnu_cxx6__stoaIlicJiEEET0_PFT_PKT1_PPS3_DpT2_EPKcS5_PmS9_EN10_Range_chk6_S_chkElSt17integral_constantIbLb1EE,comdat
	.align	2
	.weak	_ZZN9__gnu_cxx6__stoaIlicJiEEET0_PFT_PKT1_PPS3_DpT2_EPKcS5_PmS9_EN10_Range_chk6_S_chkElSt17integral_constantIbLb1EE
	.type	_ZZN9__gnu_cxx6__stoaIlicJiEEET0_PFT_PKT1_PPS3_DpT2_EPKcS5_PmS9_EN10_Range_chk6_S_chkElSt17integral_constantIbLb1EE, %function
_ZZN9__gnu_cxx6__stoaIlicJiEEET0_PFT_PKT1_PPS3_DpT2_EPKcS5_PmS9_EN10_Range_chk6_S_chkElSt17integral_constantIbLb1EE:
.LFB1767:
	.cfi_startproc
	sub	sp, sp, #16
	.cfi_def_cfa_offset 16
	str	x0, [sp, 8]
	strb	w1, [sp]
	ldr	x1, [sp, 8]
	mov	x0, -2147483648
	cmp	x1, x0
	blt	.L32
	ldr	x1, [sp, 8]
	mov	x0, 2147483647
	cmp	x1, x0
	ble	.L33
.L32:
	mov	w0, 1
	b	.L34
.L33:
	mov	w0, 0
.L34:
	add	sp, sp, 16
	.cfi_def_cfa_offset 0
	ret
	.cfi_endproc
.LFE1767:
	.size	_ZZN9__gnu_cxx6__stoaIlicJiEEET0_PFT_PKT1_PPS3_DpT2_EPKcS5_PmS9_EN10_Range_chk6_S_chkElSt17integral_constantIbLb1EE, .-_ZZN9__gnu_cxx6__stoaIlicJiEEET0_PFT_PKT1_PPS3_DpT2_EPKcS5_PmS9_EN10_Range_chk6_S_chkElSt17integral_constantIbLb1EE
	.section	.text._ZN9__gnu_cxx6__stoaIlicJiEEET0_PFT_PKT1_PPS3_DpT2_EPKcS5_PmS9_,"axG",@progbits,_ZN9__gnu_cxx6__stoaIlicJiEEET0_PFT_PKT1_PPS3_DpT2_EPKcS5_PmS9_,comdat
	.align	2
	.weak	_ZN9__gnu_cxx6__stoaIlicJiEEET0_PFT_PKT1_PPS3_DpT2_EPKcS5_PmS9_
	.type	_ZN9__gnu_cxx6__stoaIlicJiEEET0_PFT_PKT1_PPS3_DpT2_EPKcS5_PmS9_, %function
_ZN9__gnu_cxx6__stoaIlicJiEEET0_PFT_PKT1_PPS3_DpT2_EPKcS5_PmS9_:
.LFB1759:
	.cfi_startproc
	.cfi_personality 0x9b,DW.ref.__gxx_personality_v0
	.cfi_lsda 0x1b,.LLSDA1759
	stp	x29, x30, [sp, -112]!
	.cfi_def_cfa_offset 112
	.cfi_offset 29, -112
	.cfi_offset 30, -104
	mov	x29, sp
	str	x19, [sp, 16]
	.cfi_offset 19, -96
	str	x0, [sp, 72]
	str	x1, [sp, 64]
	str	x2, [sp, 56]
	str	x3, [sp, 48]
	str	w4, [sp, 44]
	add	x0, sp, 80
	bl	_ZZN9__gnu_cxx6__stoaIlicJiEEET0_PFT_PKT1_PPS3_DpT2_EPKcS5_PmS9_EN11_Save_errnoC1Ev
	ldr	x3, [sp, 72]
	add	x0, sp, 88
	ldr	w2, [sp, 44]
	mov	x1, x0
	ldr	x0, [sp, 56]
.LEHB14:
	blr	x3
	str	x0, [sp, 104]
	ldr	x0, [sp, 88]
	ldr	x1, [sp, 56]
	cmp	x1, x0
	bne	.L37
	ldr	x0, [sp, 64]
	bl	_ZSt24__throw_invalid_argumentPKc
.L37:
	bl	__errno_location
	ldr	w0, [x0]
	cmp	w0, 34
	beq	.L38
	mov	w1, w19
	ldr	x0, [sp, 104]
	bl	_ZZN9__gnu_cxx6__stoaIlicJiEEET0_PFT_PKT1_PPS3_DpT2_EPKcS5_PmS9_EN10_Range_chk6_S_chkElSt17integral_constantIbLb1EE
	and	w0, w0, 255
	cmp	w0, 0
	beq	.L39
.L38:
	mov	w0, 1
	b	.L40
.L39:
	mov	w0, 0
.L40:
	cmp	w0, 0
	beq	.L41
	ldr	x0, [sp, 64]
	bl	_ZSt20__throw_out_of_rangePKc
.LEHE14:
.L41:
	ldr	x0, [sp, 104]
	str	w0, [sp, 100]
	ldr	x0, [sp, 48]
	cmp	x0, 0
	beq	.L42
	ldr	x1, [sp, 88]
	ldr	x0, [sp, 56]
	sub	x0, x1, x0
	mov	x1, x0
	ldr	x0, [sp, 48]
	str	x1, [x0]
.L42:
	ldr	w19, [sp, 100]
	add	x0, sp, 80
	bl	_ZZN9__gnu_cxx6__stoaIlicJiEEET0_PFT_PKT1_PPS3_DpT2_EPKcS5_PmS9_EN11_Save_errnoD1Ev
	mov	w0, w19
	b	.L46
.L45:
	mov	x19, x0
	add	x0, sp, 80
	bl	_ZZN9__gnu_cxx6__stoaIlicJiEEET0_PFT_PKT1_PPS3_DpT2_EPKcS5_PmS9_EN11_Save_errnoD1Ev
	mov	x0, x19
.LEHB15:
	bl	_Unwind_Resume
.LEHE15:
.L46:
	ldr	x19, [sp, 16]
	ldp	x29, x30, [sp], 112
	.cfi_restore 30
	.cfi_restore 29
	.cfi_restore 19
	.cfi_def_cfa_offset 0
	ret
	.cfi_endproc
.LFE1759:
	.section	.gcc_except_table
.LLSDA1759:
	.byte	0xff
	.byte	0xff
	.byte	0x1
	.uleb128 .LLSDACSE1759-.LLSDACSB1759
.LLSDACSB1759:
	.uleb128 .LEHB14-.LFB1759
	.uleb128 .LEHE14-.LEHB14
	.uleb128 .L45-.LFB1759
	.uleb128 0
	.uleb128 .LEHB15-.LFB1759
	.uleb128 .LEHE15-.LEHB15
	.uleb128 0
	.uleb128 0
.LLSDACSE1759:
	.section	.text._ZN9__gnu_cxx6__stoaIlicJiEEET0_PFT_PKT1_PPS3_DpT2_EPKcS5_PmS9_,"axG",@progbits,_ZN9__gnu_cxx6__stoaIlicJiEEET0_PFT_PKT1_PPS3_DpT2_EPKcS5_PmS9_,comdat
	.size	_ZN9__gnu_cxx6__stoaIlicJiEEET0_PFT_PKT1_PPS3_DpT2_EPKcS5_PmS9_, .-_ZN9__gnu_cxx6__stoaIlicJiEEET0_PFT_PKT1_PPS3_DpT2_EPKcS5_PmS9_
	.text
	.align	2
	.type	_Z41__static_initialization_and_destruction_0ii, %function
_Z41__static_initialization_and_destruction_0ii:
.LFB2241:
	.cfi_startproc
	stp	x29, x30, [sp, -32]!
	.cfi_def_cfa_offset 32
	.cfi_offset 29, -32
	.cfi_offset 30, -24
	mov	x29, sp
	str	w0, [sp, 28]
	str	w1, [sp, 24]
	ldr	w0, [sp, 28]
	cmp	w0, 1
	bne	.L49
	ldr	w1, [sp, 24]
	mov	w0, 65535
	cmp	w1, w0
	bne	.L49
	adrp	x0, _ZStL8__ioinit
	add	x0, x0, :lo12:_ZStL8__ioinit
	bl	_ZNSt8ios_base4InitC1Ev
	adrp	x0, __dso_handle
	add	x2, x0, :lo12:__dso_handle
	adrp	x0, _ZStL8__ioinit
	add	x1, x0, :lo12:_ZStL8__ioinit
	adrp	x0, :got:_ZNSt8ios_base4InitD1Ev
	ldr	x0, [x0, #:got_lo12:_ZNSt8ios_base4InitD1Ev]
	bl	__cxa_atexit
.L49:
	nop
	ldp	x29, x30, [sp], 32
	.cfi_restore 30
	.cfi_restore 29
	.cfi_def_cfa_offset 0
	ret
	.cfi_endproc
.LFE2241:
	.size	_Z41__static_initialization_and_destruction_0ii, .-_Z41__static_initialization_and_destruction_0ii
	.align	2
	.type	_GLOBAL__sub_I_main, %function
_GLOBAL__sub_I_main:
.LFB2242:
	.cfi_startproc
	stp	x29, x30, [sp, -16]!
	.cfi_def_cfa_offset 16
	.cfi_offset 29, -16
	.cfi_offset 30, -8
	mov	x29, sp
	mov	w1, 65535
	mov	w0, 1
	bl	_Z41__static_initialization_and_destruction_0ii
	ldp	x29, x30, [sp], 16
	.cfi_restore 30
	.cfi_restore 29
	.cfi_def_cfa_offset 0
	ret
	.cfi_endproc
.LFE2242:
	.size	_GLOBAL__sub_I_main, .-_GLOBAL__sub_I_main
	.section	.init_array,"aw",%init_array
	.align	3
	.xword	_GLOBAL__sub_I_main
	.hidden	DW.ref.__gxx_personality_v0
	.weak	DW.ref.__gxx_personality_v0
	.section	.data.rel.local.DW.ref.__gxx_personality_v0,"awG",@progbits,DW.ref.__gxx_personality_v0,comdat
	.align	3
	.type	DW.ref.__gxx_personality_v0, %object
	.size	DW.ref.__gxx_personality_v0, 8
DW.ref.__gxx_personality_v0:
	.xword	__gxx_personality_v0
	.hidden	__dso_handle
	.ident	"GCC: (Ubuntu 11.4.0-1ubuntu1~22.04) 11.4.0"
	.section	.note.GNU-stack,"",@progbits
