	.arch armv8-a
	.file	"H_Simple_XML.cpp"
	.text
	.local	_ZStL8__ioinit
	.comm	_ZStL8__ioinit,1,8
	.section	.rodata
	.align	3
	.type	_ZN6__pstl9execution2v1L3seqE, %object
	.size	_ZN6__pstl9execution2v1L3seqE, 1
_ZN6__pstl9execution2v1L3seqE:
	.zero	1
	.align	3
	.type	_ZN6__pstl9execution2v1L3parE, %object
	.size	_ZN6__pstl9execution2v1L3parE, 1
_ZN6__pstl9execution2v1L3parE:
	.zero	1
	.align	3
	.type	_ZN6__pstl9execution2v1L9par_unseqE, %object
	.size	_ZN6__pstl9execution2v1L9par_unseqE, 1
_ZN6__pstl9execution2v1L9par_unseqE:
	.zero	1
	.align	3
	.type	_ZN6__pstl9execution2v1L5unseqE, %object
	.size	_ZN6__pstl9execution2v1L5unseqE, 1
_ZN6__pstl9execution2v1L5unseqE:
	.zero	1
	.align	2
	.type	_ZN9__gnu_cxxL21__default_lock_policyE, %object
	.size	_ZN9__gnu_cxxL21__default_lock_policyE, 4
_ZN9__gnu_cxxL21__default_lock_policyE:
	.word	2
	.align	2
	.type	_ZNSt15regex_constantsL13error_collateE, %object
	.size	_ZNSt15regex_constantsL13error_collateE, 4
_ZNSt15regex_constantsL13error_collateE:
	.zero	4
	.align	2
	.type	_ZNSt15regex_constantsL11error_ctypeE, %object
	.size	_ZNSt15regex_constantsL11error_ctypeE, 4
_ZNSt15regex_constantsL11error_ctypeE:
	.word	1
	.align	2
	.type	_ZNSt15regex_constantsL12error_escapeE, %object
	.size	_ZNSt15regex_constantsL12error_escapeE, 4
_ZNSt15regex_constantsL12error_escapeE:
	.word	2
	.align	2
	.type	_ZNSt15regex_constantsL13error_backrefE, %object
	.size	_ZNSt15regex_constantsL13error_backrefE, 4
_ZNSt15regex_constantsL13error_backrefE:
	.word	3
	.align	2
	.type	_ZNSt15regex_constantsL11error_brackE, %object
	.size	_ZNSt15regex_constantsL11error_brackE, 4
_ZNSt15regex_constantsL11error_brackE:
	.word	4
	.align	2
	.type	_ZNSt15regex_constantsL11error_parenE, %object
	.size	_ZNSt15regex_constantsL11error_parenE, 4
_ZNSt15regex_constantsL11error_parenE:
	.word	5
	.align	2
	.type	_ZNSt15regex_constantsL11error_braceE, %object
	.size	_ZNSt15regex_constantsL11error_braceE, 4
_ZNSt15regex_constantsL11error_braceE:
	.word	6
	.align	2
	.type	_ZNSt15regex_constantsL14error_badbraceE, %object
	.size	_ZNSt15regex_constantsL14error_badbraceE, 4
_ZNSt15regex_constantsL14error_badbraceE:
	.word	7
	.align	2
	.type	_ZNSt15regex_constantsL11error_rangeE, %object
	.size	_ZNSt15regex_constantsL11error_rangeE, 4
_ZNSt15regex_constantsL11error_rangeE:
	.word	8
	.align	2
	.type	_ZNSt15regex_constantsL11error_spaceE, %object
	.size	_ZNSt15regex_constantsL11error_spaceE, 4
_ZNSt15regex_constantsL11error_spaceE:
	.word	9
	.align	2
	.type	_ZNSt15regex_constantsL15error_badrepeatE, %object
	.size	_ZNSt15regex_constantsL15error_badrepeatE, 4
_ZNSt15regex_constantsL15error_badrepeatE:
	.word	10
	.align	2
	.type	_ZNSt15regex_constantsL16error_complexityE, %object
	.size	_ZNSt15regex_constantsL16error_complexityE, 4
_ZNSt15regex_constantsL16error_complexityE:
	.word	11
	.align	2
	.type	_ZNSt15regex_constantsL11error_stackE, %object
	.size	_ZNSt15regex_constantsL11error_stackE, 4
_ZNSt15regex_constantsL11error_stackE:
	.word	12
	.align	3
	.type	_ZNSt8__detailL19_S_invalid_state_idE, %object
	.size	_ZNSt8__detailL19_S_invalid_state_idE, 8
_ZNSt8__detailL19_S_invalid_state_idE:
	.xword	-1
	.align	3
.LC0:
	.string	"r"
	.align	3
.LC1:
	.string	"input.txt"
	.align	3
.LC2:
	.string	"w"
	.align	3
.LC3:
	.string	"output.txt"
	.text
	.align	2
	.global	_Z5setupv
	.type	_Z5setupv, %function
_Z5setupv:
.LFB9696:
	.cfi_startproc
	stp	x29, x30, [sp, -16]!
	.cfi_def_cfa_offset 16
	.cfi_offset 29, -16
	.cfi_offset 30, -8
	mov	x29, sp
	mov	w0, 0
	bl	_ZNSt8ios_base15sync_with_stdioEb
	mov	x1, 0
	adrp	x0, :got:_ZSt3cin
	ldr	x0, [x0, #:got_lo12:_ZSt3cin]
	add	x0, x0, 16
	bl	_ZNSt9basic_iosIcSt11char_traitsIcEE3tieEPSo
	mov	x1, 0
	adrp	x0, :got:_ZSt4cout
	ldr	x0, [x0, #:got_lo12:_ZSt4cout]
	add	x0, x0, 8
	bl	_ZNSt9basic_iosIcSt11char_traitsIcEE3tieEPSo
	adrp	x0, :got:stdin
	ldr	x0, [x0, #:got_lo12:stdin]
	ldr	x0, [x0]
	mov	x2, x0
	adrp	x0, .LC0
	add	x1, x0, :lo12:.LC0
	adrp	x0, .LC1
	add	x0, x0, :lo12:.LC1
	bl	freopen
	adrp	x0, :got:stdout
	ldr	x0, [x0, #:got_lo12:stdout]
	ldr	x0, [x0]
	mov	x2, x0
	adrp	x0, .LC2
	add	x1, x0, :lo12:.LC2
	adrp	x0, .LC3
	add	x0, x0, :lo12:.LC3
	bl	freopen
	nop
	ldp	x29, x30, [sp], 16
	.cfi_restore 30
	.cfi_restore 29
	.cfi_def_cfa_offset 0
	ret
	.cfi_endproc
.LFE9696:
	.size	_Z5setupv, .-_Z5setupv
	.align	2
	.global	main
	.type	main, %function
main:
.LFB9697:
	.cfi_startproc
	.cfi_personality 0x9b,DW.ref.__gxx_personality_v0
	.cfi_lsda 0x1b,.LLSDA9697
	stp	x29, x30, [sp, -224]!
	.cfi_def_cfa_offset 224
	.cfi_offset 29, -224
	.cfi_offset 30, -216
	mov	x29, sp
	str	x19, [sp, 16]
	.cfi_offset 19, -208
.LEHB0:
	bl	_Z5setupv
.LEHE0:
	add	x0, sp, 72
	bl	_ZNSt7__cxx1112basic_stringIcSt11char_traitsIcESaIcEEC1Ev
	add	x0, sp, 72
	mov	x1, x0
	adrp	x0, :got:_ZSt3cin
	ldr	x0, [x0, #:got_lo12:_ZSt3cin]
.LEHB1:
	bl	_ZStrsIcSt11char_traitsIcESaIcEERSt13basic_istreamIT_T0_ES7_RNSt7__cxx1112basic_stringIS4_S5_T1_EE
	add	x0, sp, 72
	bl	_ZNKSt7__cxx1112basic_stringIcSt11char_traitsIcESaIcEE4sizeEv
	str	w0, [sp, 208]
	str	wzr, [sp, 220]
	str	wzr, [sp, 216]
	b	.L3
.L11:
	ldrsw	x1, [sp, 216]
	add	x0, sp, 72
	bl	_ZNSt7__cxx1112basic_stringIcSt11char_traitsIcESaIcEEixEm
.LEHE1:
	ldrb	w0, [x0]
	cmp	w0, 60
	cset	w0, eq
	and	w0, w0, 255
	cmp	w0, 0
	beq	.L4
	add	x0, sp, 40
	bl	_ZNSt7__cxx1112basic_stringIcSt11char_traitsIcESaIcEEC1Ev
	strb	wzr, [sp, 215]
	strb	wzr, [sp, 214]
	ldr	w0, [sp, 216]
	add	w0, w0, 1
	sxtw	x1, w0
	add	x0, sp, 72
.LEHB2:
	bl	_ZNSt7__cxx1112basic_stringIcSt11char_traitsIcESaIcEEixEm
	ldrb	w0, [x0]
	cmp	w0, 47
	cset	w0, eq
	and	w0, w0, 255
	cmp	w0, 0
	beq	.L5
	mov	w0, 1
	strb	w0, [sp, 214]
	ldrsw	x1, [sp, 216]
	add	x0, sp, 72
	add	x2, sp, 104
	mov	x8, x2
	mov	x2, 4
	bl	_ZNKSt7__cxx1112basic_stringIcSt11char_traitsIcESaIcEE6substrEmm
	add	x1, sp, 104
	add	x0, sp, 40
	bl	_ZNSt7__cxx1112basic_stringIcSt11char_traitsIcESaIcEEaSEOS4_
	add	x0, sp, 104
	bl	_ZNSt7__cxx1112basic_stringIcSt11char_traitsIcESaIcEED1Ev
	b	.L6
.L5:
	mov	w0, 1
	strb	w0, [sp, 215]
	ldrsw	x1, [sp, 216]
	add	x0, sp, 72
	add	x2, sp, 136
	mov	x8, x2
	mov	x2, 3
	bl	_ZNKSt7__cxx1112basic_stringIcSt11char_traitsIcESaIcEE6substrEmm
.LEHE2:
	add	x1, sp, 136
	add	x0, sp, 40
	bl	_ZNSt7__cxx1112basic_stringIcSt11char_traitsIcESaIcEEaSEOS4_
	add	x0, sp, 136
	bl	_ZNSt7__cxx1112basic_stringIcSt11char_traitsIcESaIcEED1Ev
.L6:
	ldrb	w0, [sp, 214]
	cmp	w0, 0
	beq	.L7
	mov	w0, 1
	b	.L8
.L7:
	mov	w0, 0
.L8:
	ldr	w1, [sp, 220]
	sub	w0, w1, w0
	str	w0, [sp, 220]
	ldr	w0, [sp, 220]
	lsl	w0, w0, 1
	sxtw	x19, w0
	add	x0, sp, 200
	bl	_ZNSaIcEC1Ev
	add	x1, sp, 200
	add	x0, sp, 168
	mov	x3, x1
	mov	w2, 32
	mov	x1, x19
.LEHB3:
	bl	_ZNSt7__cxx1112basic_stringIcSt11char_traitsIcESaIcEEC1IS3_EEmcRKS3_
.LEHE3:
	add	x0, sp, 168
	mov	x1, x0
	adrp	x0, :got:_ZSt4cout
	ldr	x0, [x0, #:got_lo12:_ZSt4cout]
.LEHB4:
	bl	_ZStlsIcSt11char_traitsIcESaIcEERSt13basic_ostreamIT_T0_ES7_RKNSt7__cxx1112basic_stringIS4_S5_T1_EE
	mov	x2, x0
	add	x0, sp, 40
	mov	x1, x0
	mov	x0, x2
	bl	_ZStlsIcSt11char_traitsIcESaIcEERSt13basic_ostreamIT_T0_ES7_RKNSt7__cxx1112basic_stringIS4_S5_T1_EE
	mov	w1, 10
	bl	_ZStlsISt11char_traitsIcEERSt13basic_ostreamIcT_ES5_c
.LEHE4:
	add	x0, sp, 168
	bl	_ZNSt7__cxx1112basic_stringIcSt11char_traitsIcESaIcEED1Ev
	add	x0, sp, 200
	bl	_ZNSaIcED1Ev
	ldrb	w0, [sp, 215]
	cmp	w0, 0
	beq	.L9
	mov	w0, 1
	b	.L10
.L9:
	mov	w0, 0
.L10:
	ldr	w1, [sp, 220]
	add	w0, w1, w0
	str	w0, [sp, 220]
	add	x0, sp, 40
	bl	_ZNSt7__cxx1112basic_stringIcSt11char_traitsIcESaIcEED1Ev
.L4:
	ldr	w0, [sp, 216]
	add	w0, w0, 1
	str	w0, [sp, 216]
.L3:
	ldr	w0, [sp, 208]
	sub	w0, w0, #2
	ldr	w1, [sp, 216]
	cmp	w1, w0
	blt	.L11
	mov	w19, 0
	add	x0, sp, 72
	bl	_ZNSt7__cxx1112basic_stringIcSt11char_traitsIcESaIcEED1Ev
	mov	w0, w19
	b	.L21
.L20:
	mov	x19, x0
	add	x0, sp, 168
	bl	_ZNSt7__cxx1112basic_stringIcSt11char_traitsIcESaIcEED1Ev
	b	.L14
.L19:
	mov	x19, x0
.L14:
	add	x0, sp, 200
	bl	_ZNSaIcED1Ev
	b	.L15
.L18:
	mov	x19, x0
.L15:
	add	x0, sp, 40
	bl	_ZNSt7__cxx1112basic_stringIcSt11char_traitsIcESaIcEED1Ev
	b	.L16
.L17:
	mov	x19, x0
.L16:
	add	x0, sp, 72
	bl	_ZNSt7__cxx1112basic_stringIcSt11char_traitsIcESaIcEED1Ev
	mov	x0, x19
.LEHB5:
	bl	_Unwind_Resume
.LEHE5:
.L21:
	ldr	x19, [sp, 16]
	ldp	x29, x30, [sp], 224
	.cfi_restore 30
	.cfi_restore 29
	.cfi_restore 19
	.cfi_def_cfa_offset 0
	ret
	.cfi_endproc
.LFE9697:
	.global	__gxx_personality_v0
	.section	.gcc_except_table,"a",@progbits
.LLSDA9697:
	.byte	0xff
	.byte	0xff
	.byte	0x1
	.uleb128 .LLSDACSE9697-.LLSDACSB9697
.LLSDACSB9697:
	.uleb128 .LEHB0-.LFB9697
	.uleb128 .LEHE0-.LEHB0
	.uleb128 0
	.uleb128 0
	.uleb128 .LEHB1-.LFB9697
	.uleb128 .LEHE1-.LEHB1
	.uleb128 .L17-.LFB9697
	.uleb128 0
	.uleb128 .LEHB2-.LFB9697
	.uleb128 .LEHE2-.LEHB2
	.uleb128 .L18-.LFB9697
	.uleb128 0
	.uleb128 .LEHB3-.LFB9697
	.uleb128 .LEHE3-.LEHB3
	.uleb128 .L19-.LFB9697
	.uleb128 0
	.uleb128 .LEHB4-.LFB9697
	.uleb128 .LEHE4-.LEHB4
	.uleb128 .L20-.LFB9697
	.uleb128 0
	.uleb128 .LEHB5-.LFB9697
	.uleb128 .LEHE5-.LEHB5
	.uleb128 0
	.uleb128 0
.LLSDACSE9697:
	.text
	.size	main, .-main
	.section	.text._ZNSt7__cxx1112basic_stringIcSt11char_traitsIcESaIcEE12_Alloc_hiderD2Ev,"axG",@progbits,_ZNSt7__cxx1112basic_stringIcSt11char_traitsIcESaIcEE12_Alloc_hiderD5Ev,comdat
	.align	2
	.weak	_ZNSt7__cxx1112basic_stringIcSt11char_traitsIcESaIcEE12_Alloc_hiderD2Ev
	.type	_ZNSt7__cxx1112basic_stringIcSt11char_traitsIcESaIcEE12_Alloc_hiderD2Ev, %function
_ZNSt7__cxx1112basic_stringIcSt11char_traitsIcESaIcEE12_Alloc_hiderD2Ev:
.LFB9806:
	.cfi_startproc
	stp	x29, x30, [sp, -32]!
	.cfi_def_cfa_offset 32
	.cfi_offset 29, -32
	.cfi_offset 30, -24
	mov	x29, sp
	str	x0, [sp, 24]
	ldr	x0, [sp, 24]
	bl	_ZNSaIcED2Ev
	nop
	ldp	x29, x30, [sp], 32
	.cfi_restore 30
	.cfi_restore 29
	.cfi_def_cfa_offset 0
	ret
	.cfi_endproc
.LFE9806:
	.size	_ZNSt7__cxx1112basic_stringIcSt11char_traitsIcESaIcEE12_Alloc_hiderD2Ev, .-_ZNSt7__cxx1112basic_stringIcSt11char_traitsIcESaIcEE12_Alloc_hiderD2Ev
	.weak	_ZNSt7__cxx1112basic_stringIcSt11char_traitsIcESaIcEE12_Alloc_hiderD1Ev
	.set	_ZNSt7__cxx1112basic_stringIcSt11char_traitsIcESaIcEE12_Alloc_hiderD1Ev,_ZNSt7__cxx1112basic_stringIcSt11char_traitsIcESaIcEE12_Alloc_hiderD2Ev
	.section	.text._ZNSt7__cxx1112basic_stringIcSt11char_traitsIcESaIcEEC2IS3_EEmcRKS3_,"axG",@progbits,_ZNSt7__cxx1112basic_stringIcSt11char_traitsIcESaIcEEC5IS3_EEmcRKS3_,comdat
	.align	2
	.weak	_ZNSt7__cxx1112basic_stringIcSt11char_traitsIcESaIcEEC2IS3_EEmcRKS3_
	.type	_ZNSt7__cxx1112basic_stringIcSt11char_traitsIcESaIcEEC2IS3_EEmcRKS3_, %function
_ZNSt7__cxx1112basic_stringIcSt11char_traitsIcESaIcEEC2IS3_EEmcRKS3_:
.LFB9808:
	.cfi_startproc
	.cfi_personality 0x9b,DW.ref.__gxx_personality_v0
	.cfi_lsda 0x1b,.LLSDA9808
	stp	x29, x30, [sp, -64]!
	.cfi_def_cfa_offset 64
	.cfi_offset 29, -64
	.cfi_offset 30, -56
	mov	x29, sp
	str	x19, [sp, 16]
	.cfi_offset 19, -48
	str	x0, [sp, 56]
	str	x1, [sp, 48]
	strb	w2, [sp, 47]
	str	x3, [sp, 32]
	ldr	x19, [sp, 56]
	ldr	x0, [sp, 56]
.LEHB6:
	bl	_ZNSt7__cxx1112basic_stringIcSt11char_traitsIcESaIcEE13_M_local_dataEv
	ldr	x2, [sp, 32]
	mov	x1, x0
	mov	x0, x19
	bl	_ZNSt7__cxx1112basic_stringIcSt11char_traitsIcESaIcEE12_Alloc_hiderC1EPcRKS3_
.LEHE6:
	ldrb	w2, [sp, 47]
	ldr	x1, [sp, 48]
	ldr	x0, [sp, 56]
.LEHB7:
	bl	_ZNSt7__cxx1112basic_stringIcSt11char_traitsIcESaIcEE12_M_constructEmc
.LEHE7:
	b	.L26
.L25:
	mov	x19, x0
	ldr	x0, [sp, 56]
	bl	_ZNSt7__cxx1112basic_stringIcSt11char_traitsIcESaIcEE12_Alloc_hiderD1Ev
	mov	x0, x19
.LEHB8:
	bl	_Unwind_Resume
.LEHE8:
.L26:
	ldr	x19, [sp, 16]
	ldp	x29, x30, [sp], 64
	.cfi_restore 30
	.cfi_restore 29
	.cfi_restore 19
	.cfi_def_cfa_offset 0
	ret
	.cfi_endproc
.LFE9808:
	.section	.gcc_except_table
.LLSDA9808:
	.byte	0xff
	.byte	0xff
	.byte	0x1
	.uleb128 .LLSDACSE9808-.LLSDACSB9808
.LLSDACSB9808:
	.uleb128 .LEHB6-.LFB9808
	.uleb128 .LEHE6-.LEHB6
	.uleb128 0
	.uleb128 0
	.uleb128 .LEHB7-.LFB9808
	.uleb128 .LEHE7-.LEHB7
	.uleb128 .L25-.LFB9808
	.uleb128 0
	.uleb128 .LEHB8-.LFB9808
	.uleb128 .LEHE8-.LEHB8
	.uleb128 0
	.uleb128 0
.LLSDACSE9808:
	.section	.text._ZNSt7__cxx1112basic_stringIcSt11char_traitsIcESaIcEEC2IS3_EEmcRKS3_,"axG",@progbits,_ZNSt7__cxx1112basic_stringIcSt11char_traitsIcESaIcEEC5IS3_EEmcRKS3_,comdat
	.size	_ZNSt7__cxx1112basic_stringIcSt11char_traitsIcESaIcEEC2IS3_EEmcRKS3_, .-_ZNSt7__cxx1112basic_stringIcSt11char_traitsIcESaIcEEC2IS3_EEmcRKS3_
	.weak	_ZNSt7__cxx1112basic_stringIcSt11char_traitsIcESaIcEEC1IS3_EEmcRKS3_
	.set	_ZNSt7__cxx1112basic_stringIcSt11char_traitsIcESaIcEEC1IS3_EEmcRKS3_,_ZNSt7__cxx1112basic_stringIcSt11char_traitsIcESaIcEEC2IS3_EEmcRKS3_
	.text
	.align	2
	.type	_Z41__static_initialization_and_destruction_0ii, %function
_Z41__static_initialization_and_destruction_0ii:
.LFB11448:
	.cfi_startproc
	stp	x29, x30, [sp, -32]!
	.cfi_def_cfa_offset 32
	.cfi_offset 29, -32
	.cfi_offset 30, -24
	mov	x29, sp
	str	w0, [sp, 28]
	str	w1, [sp, 24]
	ldr	w0, [sp, 28]
	cmp	w0, 1
	bne	.L29
	ldr	w1, [sp, 24]
	mov	w0, 65535
	cmp	w1, w0
	bne	.L29
	adrp	x0, _ZStL8__ioinit
	add	x0, x0, :lo12:_ZStL8__ioinit
	bl	_ZNSt8ios_base4InitC1Ev
	adrp	x0, __dso_handle
	add	x2, x0, :lo12:__dso_handle
	adrp	x0, _ZStL8__ioinit
	add	x1, x0, :lo12:_ZStL8__ioinit
	adrp	x0, :got:_ZNSt8ios_base4InitD1Ev
	ldr	x0, [x0, #:got_lo12:_ZNSt8ios_base4InitD1Ev]
	bl	__cxa_atexit
.L29:
	nop
	ldp	x29, x30, [sp], 32
	.cfi_restore 30
	.cfi_restore 29
	.cfi_def_cfa_offset 0
	ret
	.cfi_endproc
.LFE11448:
	.size	_Z41__static_initialization_and_destruction_0ii, .-_Z41__static_initialization_and_destruction_0ii
	.align	2
	.type	_GLOBAL__sub_I__Z5setupv, %function
_GLOBAL__sub_I__Z5setupv:
.LFB11471:
	.cfi_startproc
	stp	x29, x30, [sp, -16]!
	.cfi_def_cfa_offset 16
	.cfi_offset 29, -16
	.cfi_offset 30, -8
	mov	x29, sp
	mov	w1, 65535
	mov	w0, 1
	bl	_Z41__static_initialization_and_destruction_0ii
	ldp	x29, x30, [sp], 16
	.cfi_restore 30
	.cfi_restore 29
	.cfi_def_cfa_offset 0
	ret
	.cfi_endproc
.LFE11471:
	.size	_GLOBAL__sub_I__Z5setupv, .-_GLOBAL__sub_I__Z5setupv
	.section	.init_array,"aw",%init_array
	.align	3
	.xword	_GLOBAL__sub_I__Z5setupv
	.hidden	DW.ref.__gxx_personality_v0
	.weak	DW.ref.__gxx_personality_v0
	.section	.data.rel.local.DW.ref.__gxx_personality_v0,"awG",@progbits,DW.ref.__gxx_personality_v0,comdat
	.align	3
	.type	DW.ref.__gxx_personality_v0, %object
	.size	DW.ref.__gxx_personality_v0, 8
DW.ref.__gxx_personality_v0:
	.xword	__gxx_personality_v0
	.hidden	__dso_handle
	.ident	"GCC: (Ubuntu 11.4.0-1ubuntu1~22.04) 11.4.0"
	.section	.note.GNU-stack,"",@progbits
