	.file	"Symmetric Encoding.cpp"
	.intel_syntax noprefix
	.text
	.section	.text._ZnwmPv,"axG",@progbits,_ZnwmPv,comdat
	.weak	_ZnwmPv
	.type	_ZnwmPv, @function
_ZnwmPv:
.LFB38:
	.cfi_startproc
	endbr64
	push	rbp
	.cfi_def_cfa_offset 16
	.cfi_offset 6, -16
	mov	rbp, rsp
	.cfi_def_cfa_register 6
	mov	QWORD PTR -8[rbp], rdi
	mov	QWORD PTR -16[rbp], rsi
	mov	rax, QWORD PTR -16[rbp]
	pop	rbp
	.cfi_def_cfa 7, 8
	ret
	.cfi_endproc
.LFE38:
	.size	_ZnwmPv, .-_ZnwmPv
	.section	.text._ZdlPvS_,"axG",@progbits,_ZdlPvS_,comdat
	.weak	_ZdlPvS_
	.type	_ZdlPvS_, @function
_ZdlPvS_:
.LFB40:
	.cfi_startproc
	endbr64
	push	rbp
	.cfi_def_cfa_offset 16
	.cfi_offset 6, -16
	mov	rbp, rsp
	.cfi_def_cfa_register 6
	mov	QWORD PTR -8[rbp], rdi
	mov	QWORD PTR -16[rbp], rsi
	nop
	pop	rbp
	.cfi_def_cfa 7, 8
	ret
	.cfi_endproc
.LFE40:
	.size	_ZdlPvS_, .-_ZdlPvS_
	.weak	_ZSt19piecewise_construct
	.section	.rodata._ZSt19piecewise_construct,"aG",@progbits,_ZSt19piecewise_construct,comdat
	.type	_ZSt19piecewise_construct, @gnu_unique_object
	.size	_ZSt19piecewise_construct, 1
_ZSt19piecewise_construct:
	.zero	1
	.section	.text._ZNSt11char_traitsIcE6assignERcRKc,"axG",@progbits,_ZNSt11char_traitsIcE6assignERcRKc,comdat
	.weak	_ZNSt11char_traitsIcE6assignERcRKc
	.type	_ZNSt11char_traitsIcE6assignERcRKc, @function
_ZNSt11char_traitsIcE6assignERcRKc:
.LFB445:
	.cfi_startproc
	endbr64
	push	rbp
	.cfi_def_cfa_offset 16
	.cfi_offset 6, -16
	mov	rbp, rsp
	.cfi_def_cfa_register 6
	mov	QWORD PTR -8[rbp], rdi
	mov	QWORD PTR -16[rbp], rsi
	mov	rax, QWORD PTR -16[rbp]
	movzx	edx, BYTE PTR [rax]
	mov	rax, QWORD PTR -8[rbp]
	mov	BYTE PTR [rax], dl
	nop
	pop	rbp
	.cfi_def_cfa 7, 8
	ret
	.cfi_endproc
.LFE445:
	.size	_ZNSt11char_traitsIcE6assignERcRKc, .-_ZNSt11char_traitsIcE6assignERcRKc
	.local	_ZStL8__ioinit
	.comm	_ZStL8__ioinit,1,1
	.section	.rodata
	.type	_ZN6__pstl9execution2v1L3seqE, @object
	.size	_ZN6__pstl9execution2v1L3seqE, 1
_ZN6__pstl9execution2v1L3seqE:
	.zero	1
	.type	_ZN6__pstl9execution2v1L3parE, @object
	.size	_ZN6__pstl9execution2v1L3parE, 1
_ZN6__pstl9execution2v1L3parE:
	.zero	1
	.type	_ZN6__pstl9execution2v1L9par_unseqE, @object
	.size	_ZN6__pstl9execution2v1L9par_unseqE, 1
_ZN6__pstl9execution2v1L9par_unseqE:
	.zero	1
	.type	_ZN6__pstl9execution2v1L5unseqE, @object
	.size	_ZN6__pstl9execution2v1L5unseqE, 1
_ZN6__pstl9execution2v1L5unseqE:
	.zero	1
	.section	.text._ZNSt15_Rb_tree_headerC2Ev,"axG",@progbits,_ZNSt15_Rb_tree_headerC5Ev,comdat
	.align 2
	.weak	_ZNSt15_Rb_tree_headerC2Ev
	.type	_ZNSt15_Rb_tree_headerC2Ev, @function
_ZNSt15_Rb_tree_headerC2Ev:
.LFB5009:
	.cfi_startproc
	endbr64
	push	rbp
	.cfi_def_cfa_offset 16
	.cfi_offset 6, -16
	mov	rbp, rsp
	.cfi_def_cfa_register 6
	sub	rsp, 16
	mov	QWORD PTR -8[rbp], rdi
	mov	rax, QWORD PTR -8[rbp]
	mov	DWORD PTR [rax], 0
	mov	rax, QWORD PTR -8[rbp]
	mov	rdi, rax
	call	_ZNSt15_Rb_tree_header8_M_resetEv
	nop
	leave
	.cfi_def_cfa 7, 8
	ret
	.cfi_endproc
.LFE5009:
	.size	_ZNSt15_Rb_tree_headerC2Ev, .-_ZNSt15_Rb_tree_headerC2Ev
	.weak	_ZNSt15_Rb_tree_headerC1Ev
	.set	_ZNSt15_Rb_tree_headerC1Ev,_ZNSt15_Rb_tree_headerC2Ev
	.section	.text._ZNSt15_Rb_tree_header8_M_resetEv,"axG",@progbits,_ZNSt15_Rb_tree_header8_M_resetEv,comdat
	.align 2
	.weak	_ZNSt15_Rb_tree_header8_M_resetEv
	.type	_ZNSt15_Rb_tree_header8_M_resetEv, @function
_ZNSt15_Rb_tree_header8_M_resetEv:
.LFB5015:
	.cfi_startproc
	endbr64
	push	rbp
	.cfi_def_cfa_offset 16
	.cfi_offset 6, -16
	mov	rbp, rsp
	.cfi_def_cfa_register 6
	mov	QWORD PTR -8[rbp], rdi
	mov	rax, QWORD PTR -8[rbp]
	mov	QWORD PTR 8[rax], 0
	mov	rdx, QWORD PTR -8[rbp]
	mov	rax, QWORD PTR -8[rbp]
	mov	QWORD PTR 16[rax], rdx
	mov	rdx, QWORD PTR -8[rbp]
	mov	rax, QWORD PTR -8[rbp]
	mov	QWORD PTR 24[rax], rdx
	mov	rax, QWORD PTR -8[rbp]
	mov	QWORD PTR 32[rax], 0
	nop
	pop	rbp
	.cfi_def_cfa 7, 8
	ret
	.cfi_endproc
.LFE5015:
	.size	_ZNSt15_Rb_tree_header8_M_resetEv, .-_ZNSt15_Rb_tree_header8_M_resetEv
	.section	.rodata
	.align 4
	.type	_ZN9__gnu_cxxL21__default_lock_policyE, @object
	.size	_ZN9__gnu_cxxL21__default_lock_policyE, 4
_ZN9__gnu_cxxL21__default_lock_policyE:
	.long	2
	.align 4
	.type	_ZNSt15regex_constantsL13error_collateE, @object
	.size	_ZNSt15regex_constantsL13error_collateE, 4
_ZNSt15regex_constantsL13error_collateE:
	.zero	4
	.align 4
	.type	_ZNSt15regex_constantsL11error_ctypeE, @object
	.size	_ZNSt15regex_constantsL11error_ctypeE, 4
_ZNSt15regex_constantsL11error_ctypeE:
	.long	1
	.align 4
	.type	_ZNSt15regex_constantsL12error_escapeE, @object
	.size	_ZNSt15regex_constantsL12error_escapeE, 4
_ZNSt15regex_constantsL12error_escapeE:
	.long	2
	.align 4
	.type	_ZNSt15regex_constantsL13error_backrefE, @object
	.size	_ZNSt15regex_constantsL13error_backrefE, 4
_ZNSt15regex_constantsL13error_backrefE:
	.long	3
	.align 4
	.type	_ZNSt15regex_constantsL11error_brackE, @object
	.size	_ZNSt15regex_constantsL11error_brackE, 4
_ZNSt15regex_constantsL11error_brackE:
	.long	4
	.align 4
	.type	_ZNSt15regex_constantsL11error_parenE, @object
	.size	_ZNSt15regex_constantsL11error_parenE, 4
_ZNSt15regex_constantsL11error_parenE:
	.long	5
	.align 4
	.type	_ZNSt15regex_constantsL11error_braceE, @object
	.size	_ZNSt15regex_constantsL11error_braceE, 4
_ZNSt15regex_constantsL11error_braceE:
	.long	6
	.align 4
	.type	_ZNSt15regex_constantsL14error_badbraceE, @object
	.size	_ZNSt15regex_constantsL14error_badbraceE, 4
_ZNSt15regex_constantsL14error_badbraceE:
	.long	7
	.align 4
	.type	_ZNSt15regex_constantsL11error_rangeE, @object
	.size	_ZNSt15regex_constantsL11error_rangeE, 4
_ZNSt15regex_constantsL11error_rangeE:
	.long	8
	.align 4
	.type	_ZNSt15regex_constantsL11error_spaceE, @object
	.size	_ZNSt15regex_constantsL11error_spaceE, 4
_ZNSt15regex_constantsL11error_spaceE:
	.long	9
	.align 4
	.type	_ZNSt15regex_constantsL15error_badrepeatE, @object
	.size	_ZNSt15regex_constantsL15error_badrepeatE, 4
_ZNSt15regex_constantsL15error_badrepeatE:
	.long	10
	.align 4
	.type	_ZNSt15regex_constantsL16error_complexityE, @object
	.size	_ZNSt15regex_constantsL16error_complexityE, 4
_ZNSt15regex_constantsL16error_complexityE:
	.long	11
	.align 4
	.type	_ZNSt15regex_constantsL11error_stackE, @object
	.size	_ZNSt15regex_constantsL11error_stackE, 4
_ZNSt15regex_constantsL11error_stackE:
	.long	12
	.align 8
	.type	_ZNSt8__detailL19_S_invalid_state_idE, @object
	.size	_ZNSt8__detailL19_S_invalid_state_idE, 8
_ZNSt8__detailL19_S_invalid_state_idE:
	.quad	-1
	.section	.text._ZNSt3setIcSt4lessIcESaIcEED2Ev,"axG",@progbits,_ZNSt3setIcSt4lessIcESaIcEED5Ev,comdat
	.align 2
	.weak	_ZNSt3setIcSt4lessIcESaIcEED2Ev
	.type	_ZNSt3setIcSt4lessIcESaIcEED2Ev, @function
_ZNSt3setIcSt4lessIcESaIcEED2Ev:
.LFB9706:
	.cfi_startproc
	endbr64
	push	rbp
	.cfi_def_cfa_offset 16
	.cfi_offset 6, -16
	mov	rbp, rsp
	.cfi_def_cfa_register 6
	sub	rsp, 16
	mov	QWORD PTR -8[rbp], rdi
	mov	rax, QWORD PTR -8[rbp]
	mov	rdi, rax
	call	_ZNSt8_Rb_treeIccSt9_IdentityIcESt4lessIcESaIcEED1Ev
	nop
	leave
	.cfi_def_cfa 7, 8
	ret
	.cfi_endproc
.LFE9706:
	.size	_ZNSt3setIcSt4lessIcESaIcEED2Ev, .-_ZNSt3setIcSt4lessIcESaIcEED2Ev
	.weak	_ZNSt3setIcSt4lessIcESaIcEED1Ev
	.set	_ZNSt3setIcSt4lessIcESaIcEED1Ev,_ZNSt3setIcSt4lessIcESaIcEED2Ev
	.section	.text._ZNSt8_Rb_treeIcSt4pairIKccESt10_Select1stIS2_ESt4lessIcESaIS2_EE13_Rb_tree_implIS6_Lb1EED2Ev,"axG",@progbits,_ZNSt8_Rb_treeIcSt4pairIKccESt10_Select1stIS2_ESt4lessIcESaIS2_EE13_Rb_tree_implIS6_Lb1EED5Ev,comdat
	.align 2
	.weak	_ZNSt8_Rb_treeIcSt4pairIKccESt10_Select1stIS2_ESt4lessIcESaIS2_EE13_Rb_tree_implIS6_Lb1EED2Ev
	.type	_ZNSt8_Rb_treeIcSt4pairIKccESt10_Select1stIS2_ESt4lessIcESaIS2_EE13_Rb_tree_implIS6_Lb1EED2Ev, @function
_ZNSt8_Rb_treeIcSt4pairIKccESt10_Select1stIS2_ESt4lessIcESaIS2_EE13_Rb_tree_implIS6_Lb1EED2Ev:
.LFB9714:
	.cfi_startproc
	endbr64
	push	rbp
	.cfi_def_cfa_offset 16
	.cfi_offset 6, -16
	mov	rbp, rsp
	.cfi_def_cfa_register 6
	sub	rsp, 16
	mov	QWORD PTR -8[rbp], rdi
	mov	rax, QWORD PTR -8[rbp]
	mov	rdi, rax
	call	_ZNSaISt13_Rb_tree_nodeISt4pairIKccEEED2Ev
	nop
	leave
	.cfi_def_cfa 7, 8
	ret
	.cfi_endproc
.LFE9714:
	.size	_ZNSt8_Rb_treeIcSt4pairIKccESt10_Select1stIS2_ESt4lessIcESaIS2_EE13_Rb_tree_implIS6_Lb1EED2Ev, .-_ZNSt8_Rb_treeIcSt4pairIKccESt10_Select1stIS2_ESt4lessIcESaIS2_EE13_Rb_tree_implIS6_Lb1EED2Ev
	.weak	_ZNSt8_Rb_treeIcSt4pairIKccESt10_Select1stIS2_ESt4lessIcESaIS2_EE13_Rb_tree_implIS6_Lb1EED1Ev
	.set	_ZNSt8_Rb_treeIcSt4pairIKccESt10_Select1stIS2_ESt4lessIcESaIS2_EE13_Rb_tree_implIS6_Lb1EED1Ev,_ZNSt8_Rb_treeIcSt4pairIKccESt10_Select1stIS2_ESt4lessIcESaIS2_EE13_Rb_tree_implIS6_Lb1EED2Ev
	.section	.text._ZNSt8_Rb_treeIcSt4pairIKccESt10_Select1stIS2_ESt4lessIcESaIS2_EEC2Ev,"axG",@progbits,_ZNSt8_Rb_treeIcSt4pairIKccESt10_Select1stIS2_ESt4lessIcESaIS2_EEC5Ev,comdat
	.align 2
	.weak	_ZNSt8_Rb_treeIcSt4pairIKccESt10_Select1stIS2_ESt4lessIcESaIS2_EEC2Ev
	.type	_ZNSt8_Rb_treeIcSt4pairIKccESt10_Select1stIS2_ESt4lessIcESaIS2_EEC2Ev, @function
_ZNSt8_Rb_treeIcSt4pairIKccESt10_Select1stIS2_ESt4lessIcESaIS2_EEC2Ev:
.LFB9716:
	.cfi_startproc
	endbr64
	push	rbp
	.cfi_def_cfa_offset 16
	.cfi_offset 6, -16
	mov	rbp, rsp
	.cfi_def_cfa_register 6
	sub	rsp, 16
	mov	QWORD PTR -8[rbp], rdi
	mov	rax, QWORD PTR -8[rbp]
	mov	rdi, rax
	call	_ZNSt8_Rb_treeIcSt4pairIKccESt10_Select1stIS2_ESt4lessIcESaIS2_EE13_Rb_tree_implIS6_Lb1EEC1Ev
	nop
	leave
	.cfi_def_cfa 7, 8
	ret
	.cfi_endproc
.LFE9716:
	.size	_ZNSt8_Rb_treeIcSt4pairIKccESt10_Select1stIS2_ESt4lessIcESaIS2_EEC2Ev, .-_ZNSt8_Rb_treeIcSt4pairIKccESt10_Select1stIS2_ESt4lessIcESaIS2_EEC2Ev
	.weak	_ZNSt8_Rb_treeIcSt4pairIKccESt10_Select1stIS2_ESt4lessIcESaIS2_EEC1Ev
	.set	_ZNSt8_Rb_treeIcSt4pairIKccESt10_Select1stIS2_ESt4lessIcESaIS2_EEC1Ev,_ZNSt8_Rb_treeIcSt4pairIKccESt10_Select1stIS2_ESt4lessIcESaIS2_EEC2Ev
	.section	.text._ZNSt3mapIccSt4lessIcESaISt4pairIKccEEEC2Ev,"axG",@progbits,_ZNSt3mapIccSt4lessIcESaISt4pairIKccEEEC5Ev,comdat
	.align 2
	.weak	_ZNSt3mapIccSt4lessIcESaISt4pairIKccEEEC2Ev
	.type	_ZNSt3mapIccSt4lessIcESaISt4pairIKccEEEC2Ev, @function
_ZNSt3mapIccSt4lessIcESaISt4pairIKccEEEC2Ev:
.LFB9718:
	.cfi_startproc
	endbr64
	push	rbp
	.cfi_def_cfa_offset 16
	.cfi_offset 6, -16
	mov	rbp, rsp
	.cfi_def_cfa_register 6
	sub	rsp, 16
	mov	QWORD PTR -8[rbp], rdi
	mov	rax, QWORD PTR -8[rbp]
	mov	rdi, rax
	call	_ZNSt8_Rb_treeIcSt4pairIKccESt10_Select1stIS2_ESt4lessIcESaIS2_EEC1Ev
	nop
	leave
	.cfi_def_cfa 7, 8
	ret
	.cfi_endproc
.LFE9718:
	.size	_ZNSt3mapIccSt4lessIcESaISt4pairIKccEEEC2Ev, .-_ZNSt3mapIccSt4lessIcESaISt4pairIKccEEEC2Ev
	.weak	_ZNSt3mapIccSt4lessIcESaISt4pairIKccEEEC1Ev
	.set	_ZNSt3mapIccSt4lessIcESaISt4pairIKccEEEC1Ev,_ZNSt3mapIccSt4lessIcESaISt4pairIKccEEEC2Ev
	.section	.text._ZNSt3mapIccSt4lessIcESaISt4pairIKccEEED2Ev,"axG",@progbits,_ZNSt3mapIccSt4lessIcESaISt4pairIKccEEED5Ev,comdat
	.align 2
	.weak	_ZNSt3mapIccSt4lessIcESaISt4pairIKccEEED2Ev
	.type	_ZNSt3mapIccSt4lessIcESaISt4pairIKccEEED2Ev, @function
_ZNSt3mapIccSt4lessIcESaISt4pairIKccEEED2Ev:
.LFB9721:
	.cfi_startproc
	endbr64
	push	rbp
	.cfi_def_cfa_offset 16
	.cfi_offset 6, -16
	mov	rbp, rsp
	.cfi_def_cfa_register 6
	sub	rsp, 16
	mov	QWORD PTR -8[rbp], rdi
	mov	rax, QWORD PTR -8[rbp]
	mov	rdi, rax
	call	_ZNSt8_Rb_treeIcSt4pairIKccESt10_Select1stIS2_ESt4lessIcESaIS2_EED1Ev
	nop
	leave
	.cfi_def_cfa 7, 8
	ret
	.cfi_endproc
.LFE9721:
	.size	_ZNSt3mapIccSt4lessIcESaISt4pairIKccEEED2Ev, .-_ZNSt3mapIccSt4lessIcESaISt4pairIKccEEED2Ev
	.weak	_ZNSt3mapIccSt4lessIcESaISt4pairIKccEEED1Ev
	.set	_ZNSt3mapIccSt4lessIcESaISt4pairIKccEEED1Ev,_ZNSt3mapIccSt4lessIcESaISt4pairIKccEEED2Ev
	.section	.rodata
.LC0:
	.string	"\n"
	.text
	.globl	main
	.type	main, @function
main:
.LFB9704:
	.cfi_startproc
	.cfi_personality 0x9b,DW.ref.__gxx_personality_v0
	.cfi_lsda 0x1b,.LLSDA9704
	endbr64
	push	rbp
	.cfi_def_cfa_offset 16
	.cfi_offset 6, -16
	mov	rbp, rsp
	.cfi_def_cfa_register 6
	push	rbx
	sub	rsp, 264
	.cfi_offset 3, -24
	mov	rax, QWORD PTR fs:40
	mov	QWORD PTR -24[rbp], rax
	xor	eax, eax
	mov	edi, 0
.LEHB0:
	call	_ZNSt8ios_base15sync_with_stdioEb@PLT
	mov	esi, 0
	lea	rax, _ZSt3cin[rip+16]
	mov	rdi, rax
	call	_ZNSt9basic_iosIcSt11char_traitsIcEE3tieEPSo@PLT
	mov	esi, 0
	lea	rax, _ZSt4cout[rip+8]
	mov	rdi, rax
	call	_ZNSt9basic_iosIcSt11char_traitsIcEE3tieEPSo@PLT
	lea	rax, -264[rbp]
	mov	rsi, rax
	lea	rax, _ZSt3cin[rip]
	mov	rdi, rax
	call	_ZNSirsERi@PLT
.LEHE0:
	jmp	.L13
.L18:
	lea	rax, -128[rbp]
	mov	rdi, rax
	call	_ZNSt7__cxx1112basic_stringIcSt11char_traitsIcESaIcEEC1Ev@PLT
	lea	rax, -260[rbp]
	mov	rsi, rax
	lea	rax, _ZSt3cin[rip]
	mov	rdi, rax
.LEHB1:
	call	_ZNSirsERi@PLT
	mov	rdx, rax
	lea	rax, -128[rbp]
	mov	rsi, rax
	mov	rdi, rdx
	call	_ZStrsIcSt11char_traitsIcESaIcEERSt13basic_istreamIT_T0_ES7_RNSt7__cxx1112basic_stringIS4_S5_T1_EE@PLT
	lea	rax, -128[rbp]
	mov	rdi, rax
	call	_ZNSt7__cxx1112basic_stringIcSt11char_traitsIcESaIcEE3endEv@PLT
	mov	rbx, rax
	lea	rax, -128[rbp]
	mov	rdi, rax
	call	_ZNSt7__cxx1112basic_stringIcSt11char_traitsIcESaIcEE5beginEv@PLT
	mov	rcx, rax
	lea	rax, -224[rbp]
	mov	rdx, rbx
	mov	rsi, rcx
	mov	rdi, rax
	call	_ZNSt3setIcSt4lessIcESaIcEEC1IN9__gnu_cxx17__normal_iteratorIPcNSt7__cxx1112basic_stringIcSt11char_traitsIcES2_EEEEEET_SE_
.LEHE1:
	lea	rax, -176[rbp]
	mov	rdi, rax
	call	_ZNSaIcEC1Ev@PLT
	lea	rax, -224[rbp]
	mov	rdi, rax
	call	_ZNKSt3setIcSt4lessIcESaIcEE3endEv
	mov	rbx, rax
	lea	rax, -224[rbp]
	mov	rdi, rax
	call	_ZNKSt3setIcSt4lessIcESaIcEE5beginEv
	mov	rsi, rax
	lea	rdx, -176[rbp]
	lea	rax, -96[rbp]
	mov	rcx, rdx
	mov	rdx, rbx
	mov	rdi, rax
.LEHB2:
	call	_ZNSt7__cxx1112basic_stringIcSt11char_traitsIcESaIcEEC1ISt23_Rb_tree_const_iteratorIcEvEET_S8_RKS3_
.LEHE2:
	lea	rax, -176[rbp]
	mov	rdi, rax
	call	_ZNSaIcED1Ev@PLT
	lea	rax, -176[rbp]
	mov	rdi, rax
	call	_ZNSt3mapIccSt4lessIcESaISt4pairIKccEEEC1Ev
	lea	rax, -96[rbp]
	mov	rdi, rax
	call	_ZNKSt7__cxx1112basic_stringIcSt11char_traitsIcESaIcEE4sizeEv@PLT
	mov	DWORD PTR -252[rbp], eax
	mov	DWORD PTR -256[rbp], 0
	jmp	.L14
.L15:
	mov	eax, DWORD PTR -252[rbp]
	sub	eax, 1
	sub	eax, DWORD PTR -256[rbp]
	movsx	rdx, eax
	lea	rax, -96[rbp]
	mov	rsi, rdx
	mov	rdi, rax
.LEHB3:
	call	_ZNSt7__cxx1112basic_stringIcSt11char_traitsIcESaIcEEixEm@PLT
	movzx	ebx, BYTE PTR [rax]
	mov	eax, DWORD PTR -256[rbp]
	movsx	rdx, eax
	lea	rax, -96[rbp]
	mov	rsi, rdx
	mov	rdi, rax
	call	_ZNSt7__cxx1112basic_stringIcSt11char_traitsIcESaIcEEixEm@PLT
	mov	rdx, rax
	lea	rax, -176[rbp]
	mov	rsi, rdx
	mov	rdi, rax
	call	_ZNSt3mapIccSt4lessIcESaISt4pairIKccEEEixERS3_
.LEHE3:
	mov	BYTE PTR [rax], bl
	add	DWORD PTR -256[rbp], 1
.L14:
	mov	eax, DWORD PTR -256[rbp]
	cmp	eax, DWORD PTR -252[rbp]
	jl	.L15
	lea	rax, -64[rbp]
	mov	rdi, rax
	call	_ZNSt7__cxx1112basic_stringIcSt11char_traitsIcESaIcEEC1Ev@PLT
	lea	rax, -128[rbp]
	mov	QWORD PTR -232[rbp], rax
	mov	rax, QWORD PTR -232[rbp]
	mov	rdi, rax
	call	_ZNSt7__cxx1112basic_stringIcSt11char_traitsIcESaIcEE5beginEv@PLT
	mov	QWORD PTR -248[rbp], rax
	mov	rax, QWORD PTR -232[rbp]
	mov	rdi, rax
	call	_ZNSt7__cxx1112basic_stringIcSt11char_traitsIcESaIcEE3endEv@PLT
	mov	QWORD PTR -240[rbp], rax
	jmp	.L16
.L17:
	lea	rax, -248[rbp]
	mov	rdi, rax
	call	_ZNK9__gnu_cxx17__normal_iteratorIPcNSt7__cxx1112basic_stringIcSt11char_traitsIcESaIcEEEEdeEv
	movzx	eax, BYTE PTR [rax]
	mov	BYTE PTR -265[rbp], al
	lea	rdx, -265[rbp]
	lea	rax, -176[rbp]
	mov	rsi, rdx
	mov	rdi, rax
.LEHB4:
	call	_ZNSt3mapIccSt4lessIcESaISt4pairIKccEEEixERS3_
	movzx	eax, BYTE PTR [rax]
	movsx	edx, al
	lea	rax, -64[rbp]
	mov	esi, edx
	mov	rdi, rax
	call	_ZNSt7__cxx1112basic_stringIcSt11char_traitsIcESaIcEEpLEc@PLT
	lea	rax, -248[rbp]
	mov	rdi, rax
	call	_ZN9__gnu_cxx17__normal_iteratorIPcNSt7__cxx1112basic_stringIcSt11char_traitsIcESaIcEEEEppEv
.L16:
	lea	rdx, -240[rbp]
	lea	rax, -248[rbp]
	mov	rsi, rdx
	mov	rdi, rax
	call	_ZN9__gnu_cxxneIPcNSt7__cxx1112basic_stringIcSt11char_traitsIcESaIcEEEEEbRKNS_17__normal_iteratorIT_T0_EESD_
	test	al, al
	jne	.L17
	lea	rax, -64[rbp]
	mov	rsi, rax
	lea	rax, _ZSt4cout[rip]
	mov	rdi, rax
	call	_ZStlsIcSt11char_traitsIcESaIcEERSt13basic_ostreamIT_T0_ES7_RKNSt7__cxx1112basic_stringIS4_S5_T1_EE@PLT
	mov	rdx, rax
	lea	rax, .LC0[rip]
	mov	rsi, rax
	mov	rdi, rdx
	call	_ZStlsISt11char_traitsIcEERSt13basic_ostreamIcT_ES5_PKc@PLT
.LEHE4:
	lea	rax, -64[rbp]
	mov	rdi, rax
	call	_ZNSt7__cxx1112basic_stringIcSt11char_traitsIcESaIcEED1Ev@PLT
	lea	rax, -176[rbp]
	mov	rdi, rax
	call	_ZNSt3mapIccSt4lessIcESaISt4pairIKccEEED1Ev
	lea	rax, -96[rbp]
	mov	rdi, rax
	call	_ZNSt7__cxx1112basic_stringIcSt11char_traitsIcESaIcEED1Ev@PLT
	lea	rax, -224[rbp]
	mov	rdi, rax
	call	_ZNSt3setIcSt4lessIcESaIcEED1Ev
	lea	rax, -128[rbp]
	mov	rdi, rax
	call	_ZNSt7__cxx1112basic_stringIcSt11char_traitsIcESaIcEED1Ev@PLT
.L13:
	mov	eax, DWORD PTR -264[rbp]
	lea	edx, -1[rax]
	mov	DWORD PTR -264[rbp], edx
	test	eax, eax
	setne	al
	test	al, al
	jne	.L18
	mov	eax, 0
	mov	rdx, QWORD PTR -24[rbp]
	sub	rdx, QWORD PTR fs:40
	je	.L25
	jmp	.L30
.L27:
	endbr64
	mov	rbx, rax
	lea	rax, -176[rbp]
	mov	rdi, rax
	call	_ZNSaIcED1Ev@PLT
	jmp	.L21
.L29:
	endbr64
	mov	rbx, rax
	lea	rax, -64[rbp]
	mov	rdi, rax
	call	_ZNSt7__cxx1112basic_stringIcSt11char_traitsIcESaIcEED1Ev@PLT
	jmp	.L23
.L28:
	endbr64
	mov	rbx, rax
.L23:
	lea	rax, -176[rbp]
	mov	rdi, rax
	call	_ZNSt3mapIccSt4lessIcESaISt4pairIKccEEED1Ev
	lea	rax, -96[rbp]
	mov	rdi, rax
	call	_ZNSt7__cxx1112basic_stringIcSt11char_traitsIcESaIcEED1Ev@PLT
.L21:
	lea	rax, -224[rbp]
	mov	rdi, rax
	call	_ZNSt3setIcSt4lessIcESaIcEED1Ev
	jmp	.L24
.L26:
	endbr64
	mov	rbx, rax
.L24:
	lea	rax, -128[rbp]
	mov	rdi, rax
	call	_ZNSt7__cxx1112basic_stringIcSt11char_traitsIcESaIcEED1Ev@PLT
	mov	rax, rbx
	mov	rdi, rax
.LEHB5:
	call	_Unwind_Resume@PLT
.LEHE5:
.L30:
	call	__stack_chk_fail@PLT
.L25:
	mov	rbx, QWORD PTR -8[rbp]
	leave
	.cfi_def_cfa 7, 8
	ret
	.cfi_endproc
.LFE9704:
	.globl	__gxx_personality_v0
	.section	.gcc_except_table,"a",@progbits
.LLSDA9704:
	.byte	0xff
	.byte	0xff
	.byte	0x1
	.uleb128 .LLSDACSE9704-.LLSDACSB9704
.LLSDACSB9704:
	.uleb128 .LEHB0-.LFB9704
	.uleb128 .LEHE0-.LEHB0
	.uleb128 0
	.uleb128 0
	.uleb128 .LEHB1-.LFB9704
	.uleb128 .LEHE1-.LEHB1
	.uleb128 .L26-.LFB9704
	.uleb128 0
	.uleb128 .LEHB2-.LFB9704
	.uleb128 .LEHE2-.LEHB2
	.uleb128 .L27-.LFB9704
	.uleb128 0
	.uleb128 .LEHB3-.LFB9704
	.uleb128 .LEHE3-.LEHB3
	.uleb128 .L28-.LFB9704
	.uleb128 0
	.uleb128 .LEHB4-.LFB9704
	.uleb128 .LEHE4-.LEHB4
	.uleb128 .L29-.LFB9704
	.uleb128 0
	.uleb128 .LEHB5-.LFB9704
	.uleb128 .LEHE5-.LEHB5
	.uleb128 0
	.uleb128 0
.LLSDACSE9704:
	.text
	.size	main, .-main
	.section	.text._ZNSt7__cxx1112basic_stringIcSt11char_traitsIcESaIcEE12_Alloc_hiderD2Ev,"axG",@progbits,_ZNSt7__cxx1112basic_stringIcSt11char_traitsIcESaIcEE12_Alloc_hiderD5Ev,comdat
	.align 2
	.weak	_ZNSt7__cxx1112basic_stringIcSt11char_traitsIcESaIcEE12_Alloc_hiderD2Ev
	.type	_ZNSt7__cxx1112basic_stringIcSt11char_traitsIcESaIcEE12_Alloc_hiderD2Ev, @function
_ZNSt7__cxx1112basic_stringIcSt11char_traitsIcESaIcEE12_Alloc_hiderD2Ev:
.LFB9831:
	.cfi_startproc
	endbr64
	push	rbp
	.cfi_def_cfa_offset 16
	.cfi_offset 6, -16
	mov	rbp, rsp
	.cfi_def_cfa_register 6
	sub	rsp, 16
	mov	QWORD PTR -8[rbp], rdi
	mov	rax, QWORD PTR -8[rbp]
	mov	rdi, rax
	call	_ZNSaIcED2Ev@PLT
	nop
	leave
	.cfi_def_cfa 7, 8
	ret
	.cfi_endproc
.LFE9831:
	.size	_ZNSt7__cxx1112basic_stringIcSt11char_traitsIcESaIcEE12_Alloc_hiderD2Ev, .-_ZNSt7__cxx1112basic_stringIcSt11char_traitsIcESaIcEE12_Alloc_hiderD2Ev
	.weak	_ZNSt7__cxx1112basic_stringIcSt11char_traitsIcESaIcEE12_Alloc_hiderD1Ev
	.set	_ZNSt7__cxx1112basic_stringIcSt11char_traitsIcESaIcEE12_Alloc_hiderD1Ev,_ZNSt7__cxx1112basic_stringIcSt11char_traitsIcESaIcEE12_Alloc_hiderD2Ev
	.section	.text._ZNSt8_Rb_treeIccSt9_IdentityIcESt4lessIcESaIcEE13_Rb_tree_implIS3_Lb1EED2Ev,"axG",@progbits,_ZNSt8_Rb_treeIccSt9_IdentityIcESt4lessIcESaIcEE13_Rb_tree_implIS3_Lb1EED5Ev,comdat
	.align 2
	.weak	_ZNSt8_Rb_treeIccSt9_IdentityIcESt4lessIcESaIcEE13_Rb_tree_implIS3_Lb1EED2Ev
	.type	_ZNSt8_Rb_treeIccSt9_IdentityIcESt4lessIcESaIcEE13_Rb_tree_implIS3_Lb1EED2Ev, @function
_ZNSt8_Rb_treeIccSt9_IdentityIcESt4lessIcESaIcEE13_Rb_tree_implIS3_Lb1EED2Ev:
.LFB10417:
	.cfi_startproc
	endbr64
	push	rbp
	.cfi_def_cfa_offset 16
	.cfi_offset 6, -16
	mov	rbp, rsp
	.cfi_def_cfa_register 6
	sub	rsp, 16
	mov	QWORD PTR -8[rbp], rdi
	mov	rax, QWORD PTR -8[rbp]
	mov	rdi, rax
	call	_ZNSaISt13_Rb_tree_nodeIcEED2Ev
	nop
	leave
	.cfi_def_cfa 7, 8
	ret
	.cfi_endproc
.LFE10417:
	.size	_ZNSt8_Rb_treeIccSt9_IdentityIcESt4lessIcESaIcEE13_Rb_tree_implIS3_Lb1EED2Ev, .-_ZNSt8_Rb_treeIccSt9_IdentityIcESt4lessIcESaIcEE13_Rb_tree_implIS3_Lb1EED2Ev
	.weak	_ZNSt8_Rb_treeIccSt9_IdentityIcESt4lessIcESaIcEE13_Rb_tree_implIS3_Lb1EED1Ev
	.set	_ZNSt8_Rb_treeIccSt9_IdentityIcESt4lessIcESaIcEE13_Rb_tree_implIS3_Lb1EED1Ev,_ZNSt8_Rb_treeIccSt9_IdentityIcESt4lessIcESaIcEE13_Rb_tree_implIS3_Lb1EED2Ev
	.section	.text._ZNSt8_Rb_treeIccSt9_IdentityIcESt4lessIcESaIcEEC2Ev,"axG",@progbits,_ZNSt8_Rb_treeIccSt9_IdentityIcESt4lessIcESaIcEEC5Ev,comdat
	.align 2
	.weak	_ZNSt8_Rb_treeIccSt9_IdentityIcESt4lessIcESaIcEEC2Ev
	.type	_ZNSt8_Rb_treeIccSt9_IdentityIcESt4lessIcESaIcEEC2Ev, @function
_ZNSt8_Rb_treeIccSt9_IdentityIcESt4lessIcESaIcEEC2Ev:
.LFB10419:
	.cfi_startproc
	endbr64
	push	rbp
	.cfi_def_cfa_offset 16
	.cfi_offset 6, -16
	mov	rbp, rsp
	.cfi_def_cfa_register 6
	sub	rsp, 16
	mov	QWORD PTR -8[rbp], rdi
	mov	rax, QWORD PTR -8[rbp]
	mov	rdi, rax
	call	_ZNSt8_Rb_treeIccSt9_IdentityIcESt4lessIcESaIcEE13_Rb_tree_implIS3_Lb1EEC1Ev
	nop
	leave
	.cfi_def_cfa 7, 8
	ret
	.cfi_endproc
.LFE10419:
	.size	_ZNSt8_Rb_treeIccSt9_IdentityIcESt4lessIcESaIcEEC2Ev, .-_ZNSt8_Rb_treeIccSt9_IdentityIcESt4lessIcESaIcEEC2Ev
	.weak	_ZNSt8_Rb_treeIccSt9_IdentityIcESt4lessIcESaIcEEC1Ev
	.set	_ZNSt8_Rb_treeIccSt9_IdentityIcESt4lessIcESaIcEEC1Ev,_ZNSt8_Rb_treeIccSt9_IdentityIcESt4lessIcESaIcEEC2Ev
	.section	.text._ZNSt3setIcSt4lessIcESaIcEEC2IN9__gnu_cxx17__normal_iteratorIPcNSt7__cxx1112basic_stringIcSt11char_traitsIcES2_EEEEEET_SE_,"axG",@progbits,_ZNSt3setIcSt4lessIcESaIcEEC5IN9__gnu_cxx17__normal_iteratorIPcNSt7__cxx1112basic_stringIcSt11char_traitsIcES2_EEEEEET_SE_,comdat
	.align 2
	.weak	_ZNSt3setIcSt4lessIcESaIcEEC2IN9__gnu_cxx17__normal_iteratorIPcNSt7__cxx1112basic_stringIcSt11char_traitsIcES2_EEEEEET_SE_
	.type	_ZNSt3setIcSt4lessIcESaIcEEC2IN9__gnu_cxx17__normal_iteratorIPcNSt7__cxx1112basic_stringIcSt11char_traitsIcES2_EEEEEET_SE_, @function
_ZNSt3setIcSt4lessIcESaIcEEC2IN9__gnu_cxx17__normal_iteratorIPcNSt7__cxx1112basic_stringIcSt11char_traitsIcES2_EEEEEET_SE_:
.LFB10421:
	.cfi_startproc
	.cfi_personality 0x9b,DW.ref.__gxx_personality_v0
	.cfi_lsda 0x1b,.LLSDA10421
	endbr64
	push	rbp
	.cfi_def_cfa_offset 16
	.cfi_offset 6, -16
	mov	rbp, rsp
	.cfi_def_cfa_register 6
	push	rbx
	sub	rsp, 40
	.cfi_offset 3, -24
	mov	QWORD PTR -24[rbp], rdi
	mov	QWORD PTR -32[rbp], rsi
	mov	QWORD PTR -40[rbp], rdx
	mov	rax, QWORD PTR -24[rbp]
	mov	QWORD PTR [rax], 0
	mov	QWORD PTR 8[rax], 0
	mov	QWORD PTR 16[rax], 0
	mov	QWORD PTR 24[rax], 0
	mov	QWORD PTR 32[rax], 0
	mov	QWORD PTR 40[rax], 0
	mov	rax, QWORD PTR -24[rbp]
	mov	rdi, rax
	call	_ZNSt8_Rb_treeIccSt9_IdentityIcESt4lessIcESaIcEEC1Ev
	mov	rax, QWORD PTR -24[rbp]
	mov	rdx, QWORD PTR -40[rbp]
	mov	rcx, QWORD PTR -32[rbp]
	mov	rsi, rcx
	mov	rdi, rax
.LEHB6:
	call	_ZNSt8_Rb_treeIccSt9_IdentityIcESt4lessIcESaIcEE22_M_insert_range_uniqueIN9__gnu_cxx17__normal_iteratorIPcNSt7__cxx1112basic_stringIcSt11char_traitsIcES4_EEEEEENSt9enable_ifIXsrSt7is_sameIcNSt15iterator_traitsIT_E10value_typeEE5valueEvE4typeESJ_SJ_
.LEHE6:
	jmp	.L37
.L36:
	endbr64
	mov	rbx, rax
	mov	rax, QWORD PTR -24[rbp]
	mov	rdi, rax
	call	_ZNSt8_Rb_treeIccSt9_IdentityIcESt4lessIcESaIcEED1Ev
	mov	rax, rbx
	mov	rdi, rax
.LEHB7:
	call	_Unwind_Resume@PLT
.LEHE7:
.L37:
	mov	rbx, QWORD PTR -8[rbp]
	leave
	.cfi_def_cfa 7, 8
	ret
	.cfi_endproc
.LFE10421:
	.section	.gcc_except_table
.LLSDA10421:
	.byte	0xff
	.byte	0xff
	.byte	0x1
	.uleb128 .LLSDACSE10421-.LLSDACSB10421
.LLSDACSB10421:
	.uleb128 .LEHB6-.LFB10421
	.uleb128 .LEHE6-.LEHB6
	.uleb128 .L36-.LFB10421
	.uleb128 0
	.uleb128 .LEHB7-.LFB10421
	.uleb128 .LEHE7-.LEHB7
	.uleb128 0
	.uleb128 0
.LLSDACSE10421:
	.section	.text._ZNSt3setIcSt4lessIcESaIcEEC2IN9__gnu_cxx17__normal_iteratorIPcNSt7__cxx1112basic_stringIcSt11char_traitsIcES2_EEEEEET_SE_,"axG",@progbits,_ZNSt3setIcSt4lessIcESaIcEEC5IN9__gnu_cxx17__normal_iteratorIPcNSt7__cxx1112basic_stringIcSt11char_traitsIcES2_EEEEEET_SE_,comdat
	.size	_ZNSt3setIcSt4lessIcESaIcEEC2IN9__gnu_cxx17__normal_iteratorIPcNSt7__cxx1112basic_stringIcSt11char_traitsIcES2_EEEEEET_SE_, .-_ZNSt3setIcSt4lessIcESaIcEEC2IN9__gnu_cxx17__normal_iteratorIPcNSt7__cxx1112basic_stringIcSt11char_traitsIcES2_EEEEEET_SE_
	.weak	_ZNSt3setIcSt4lessIcESaIcEEC1IN9__gnu_cxx17__normal_iteratorIPcNSt7__cxx1112basic_stringIcSt11char_traitsIcES2_EEEEEET_SE_
	.set	_ZNSt3setIcSt4lessIcESaIcEEC1IN9__gnu_cxx17__normal_iteratorIPcNSt7__cxx1112basic_stringIcSt11char_traitsIcES2_EEEEEET_SE_,_ZNSt3setIcSt4lessIcESaIcEEC2IN9__gnu_cxx17__normal_iteratorIPcNSt7__cxx1112basic_stringIcSt11char_traitsIcES2_EEEEEET_SE_
	.section	.text._ZNSt8_Rb_treeIccSt9_IdentityIcESt4lessIcESaIcEED2Ev,"axG",@progbits,_ZNSt8_Rb_treeIccSt9_IdentityIcESt4lessIcESaIcEED5Ev,comdat
	.align 2
	.weak	_ZNSt8_Rb_treeIccSt9_IdentityIcESt4lessIcESaIcEED2Ev
	.type	_ZNSt8_Rb_treeIccSt9_IdentityIcESt4lessIcESaIcEED2Ev, @function
_ZNSt8_Rb_treeIccSt9_IdentityIcESt4lessIcESaIcEED2Ev:
.LFB10424:
	.cfi_startproc
	.cfi_personality 0x9b,DW.ref.__gxx_personality_v0
	.cfi_lsda 0x1b,.LLSDA10424
	endbr64
	push	rbp
	.cfi_def_cfa_offset 16
	.cfi_offset 6, -16
	mov	rbp, rsp
	.cfi_def_cfa_register 6
	sub	rsp, 16
	mov	QWORD PTR -8[rbp], rdi
	mov	rax, QWORD PTR -8[rbp]
	mov	rdi, rax
	call	_ZNSt8_Rb_treeIccSt9_IdentityIcESt4lessIcESaIcEE8_M_beginEv
	mov	rdx, rax
	mov	rax, QWORD PTR -8[rbp]
	mov	rsi, rdx
	mov	rdi, rax
	call	_ZNSt8_Rb_treeIccSt9_IdentityIcESt4lessIcESaIcEE8_M_eraseEPSt13_Rb_tree_nodeIcE
	mov	rax, QWORD PTR -8[rbp]
	mov	rdi, rax
	call	_ZNSt8_Rb_treeIccSt9_IdentityIcESt4lessIcESaIcEE13_Rb_tree_implIS3_Lb1EED1Ev
	nop
	leave
	.cfi_def_cfa 7, 8
	ret
	.cfi_endproc
.LFE10424:
	.section	.gcc_except_table
.LLSDA10424:
	.byte	0xff
	.byte	0xff
	.byte	0x1
	.uleb128 .LLSDACSE10424-.LLSDACSB10424
.LLSDACSB10424:
.LLSDACSE10424:
	.section	.text._ZNSt8_Rb_treeIccSt9_IdentityIcESt4lessIcESaIcEED2Ev,"axG",@progbits,_ZNSt8_Rb_treeIccSt9_IdentityIcESt4lessIcESaIcEED5Ev,comdat
	.size	_ZNSt8_Rb_treeIccSt9_IdentityIcESt4lessIcESaIcEED2Ev, .-_ZNSt8_Rb_treeIccSt9_IdentityIcESt4lessIcESaIcEED2Ev
	.weak	_ZNSt8_Rb_treeIccSt9_IdentityIcESt4lessIcESaIcEED1Ev
	.set	_ZNSt8_Rb_treeIccSt9_IdentityIcESt4lessIcESaIcEED1Ev,_ZNSt8_Rb_treeIccSt9_IdentityIcESt4lessIcESaIcEED2Ev
	.section	.text._ZNKSt3setIcSt4lessIcESaIcEE5beginEv,"axG",@progbits,_ZNKSt3setIcSt4lessIcESaIcEE5beginEv,comdat
	.align 2
	.weak	_ZNKSt3setIcSt4lessIcESaIcEE5beginEv
	.type	_ZNKSt3setIcSt4lessIcESaIcEE5beginEv, @function
_ZNKSt3setIcSt4lessIcESaIcEE5beginEv:
.LFB10426:
	.cfi_startproc
	endbr64
	push	rbp
	.cfi_def_cfa_offset 16
	.cfi_offset 6, -16
	mov	rbp, rsp
	.cfi_def_cfa_register 6
	sub	rsp, 16
	mov	QWORD PTR -8[rbp], rdi
	mov	rax, QWORD PTR -8[rbp]
	mov	rdi, rax
	call	_ZNKSt8_Rb_treeIccSt9_IdentityIcESt4lessIcESaIcEE5beginEv
	leave
	.cfi_def_cfa 7, 8
	ret
	.cfi_endproc
.LFE10426:
	.size	_ZNKSt3setIcSt4lessIcESaIcEE5beginEv, .-_ZNKSt3setIcSt4lessIcESaIcEE5beginEv
	.section	.text._ZNKSt3setIcSt4lessIcESaIcEE3endEv,"axG",@progbits,_ZNKSt3setIcSt4lessIcESaIcEE3endEv,comdat
	.align 2
	.weak	_ZNKSt3setIcSt4lessIcESaIcEE3endEv
	.type	_ZNKSt3setIcSt4lessIcESaIcEE3endEv, @function
_ZNKSt3setIcSt4lessIcESaIcEE3endEv:
.LFB10427:
	.cfi_startproc
	endbr64
	push	rbp
	.cfi_def_cfa_offset 16
	.cfi_offset 6, -16
	mov	rbp, rsp
	.cfi_def_cfa_register 6
	sub	rsp, 16
	mov	QWORD PTR -8[rbp], rdi
	mov	rax, QWORD PTR -8[rbp]
	mov	rdi, rax
	call	_ZNKSt8_Rb_treeIccSt9_IdentityIcESt4lessIcESaIcEE3endEv
	leave
	.cfi_def_cfa 7, 8
	ret
	.cfi_endproc
.LFE10427:
	.size	_ZNKSt3setIcSt4lessIcESaIcEE3endEv, .-_ZNKSt3setIcSt4lessIcESaIcEE3endEv
	.section	.text._ZNSt7__cxx1112basic_stringIcSt11char_traitsIcESaIcEEC2ISt23_Rb_tree_const_iteratorIcEvEET_S8_RKS3_,"axG",@progbits,_ZNSt7__cxx1112basic_stringIcSt11char_traitsIcESaIcEEC5ISt23_Rb_tree_const_iteratorIcEvEET_S8_RKS3_,comdat
	.align 2
	.weak	_ZNSt7__cxx1112basic_stringIcSt11char_traitsIcESaIcEEC2ISt23_Rb_tree_const_iteratorIcEvEET_S8_RKS3_
	.type	_ZNSt7__cxx1112basic_stringIcSt11char_traitsIcESaIcEEC2ISt23_Rb_tree_const_iteratorIcEvEET_S8_RKS3_, @function
_ZNSt7__cxx1112basic_stringIcSt11char_traitsIcESaIcEEC2ISt23_Rb_tree_const_iteratorIcEvEET_S8_RKS3_:
.LFB10429:
	.cfi_startproc
	.cfi_personality 0x9b,DW.ref.__gxx_personality_v0
	.cfi_lsda 0x1b,.LLSDA10429
	endbr64
	push	rbp
	.cfi_def_cfa_offset 16
	.cfi_offset 6, -16
	mov	rbp, rsp
	.cfi_def_cfa_register 6
	push	rbx
	sub	rsp, 40
	.cfi_offset 3, -24
	mov	QWORD PTR -24[rbp], rdi
	mov	QWORD PTR -32[rbp], rsi
	mov	QWORD PTR -40[rbp], rdx
	mov	QWORD PTR -48[rbp], rcx
	mov	rbx, QWORD PTR -24[rbp]
	mov	rax, QWORD PTR -24[rbp]
	mov	rdi, rax
.LEHB8:
	call	_ZNSt7__cxx1112basic_stringIcSt11char_traitsIcESaIcEE13_M_local_dataEv@PLT
	mov	rcx, rax
	mov	rax, QWORD PTR -48[rbp]
	mov	rdx, rax
	mov	rsi, rcx
	mov	rdi, rbx
	call	_ZNSt7__cxx1112basic_stringIcSt11char_traitsIcESaIcEE12_Alloc_hiderC1EPcRKS3_@PLT
.LEHE8:
	mov	rdx, QWORD PTR -40[rbp]
	mov	rcx, QWORD PTR -32[rbp]
	mov	rax, QWORD PTR -24[rbp]
	mov	rsi, rcx
	mov	rdi, rax
.LEHB9:
	call	_ZNSt7__cxx1112basic_stringIcSt11char_traitsIcESaIcEE12_M_constructISt23_Rb_tree_const_iteratorIcEEEvT_S8_
.LEHE9:
	jmp	.L46
.L45:
	endbr64
	mov	rbx, rax
	mov	rax, QWORD PTR -24[rbp]
	mov	rdi, rax
	call	_ZNSt7__cxx1112basic_stringIcSt11char_traitsIcESaIcEE12_Alloc_hiderD1Ev
	mov	rax, rbx
	mov	rdi, rax
.LEHB10:
	call	_Unwind_Resume@PLT
.LEHE10:
.L46:
	mov	rbx, QWORD PTR -8[rbp]
	leave
	.cfi_def_cfa 7, 8
	ret
	.cfi_endproc
.LFE10429:
	.section	.gcc_except_table
.LLSDA10429:
	.byte	0xff
	.byte	0xff
	.byte	0x1
	.uleb128 .LLSDACSE10429-.LLSDACSB10429
.LLSDACSB10429:
	.uleb128 .LEHB8-.LFB10429
	.uleb128 .LEHE8-.LEHB8
	.uleb128 0
	.uleb128 0
	.uleb128 .LEHB9-.LFB10429
	.uleb128 .LEHE9-.LEHB9
	.uleb128 .L45-.LFB10429
	.uleb128 0
	.uleb128 .LEHB10-.LFB10429
	.uleb128 .LEHE10-.LEHB10
	.uleb128 0
	.uleb128 0
.LLSDACSE10429:
	.section	.text._ZNSt7__cxx1112basic_stringIcSt11char_traitsIcESaIcEEC2ISt23_Rb_tree_const_iteratorIcEvEET_S8_RKS3_,"axG",@progbits,_ZNSt7__cxx1112basic_stringIcSt11char_traitsIcESaIcEEC5ISt23_Rb_tree_const_iteratorIcEvEET_S8_RKS3_,comdat
	.size	_ZNSt7__cxx1112basic_stringIcSt11char_traitsIcESaIcEEC2ISt23_Rb_tree_const_iteratorIcEvEET_S8_RKS3_, .-_ZNSt7__cxx1112basic_stringIcSt11char_traitsIcESaIcEEC2ISt23_Rb_tree_const_iteratorIcEvEET_S8_RKS3_
	.weak	_ZNSt7__cxx1112basic_stringIcSt11char_traitsIcESaIcEEC1ISt23_Rb_tree_const_iteratorIcEvEET_S8_RKS3_
	.set	_ZNSt7__cxx1112basic_stringIcSt11char_traitsIcESaIcEEC1ISt23_Rb_tree_const_iteratorIcEvEET_S8_RKS3_,_ZNSt7__cxx1112basic_stringIcSt11char_traitsIcESaIcEEC2ISt23_Rb_tree_const_iteratorIcEvEET_S8_RKS3_
	.section	.text._ZNSt8_Rb_treeIcSt4pairIKccESt10_Select1stIS2_ESt4lessIcESaIS2_EE13_Rb_tree_implIS6_Lb1EEC2Ev,"axG",@progbits,_ZNSt8_Rb_treeIcSt4pairIKccESt10_Select1stIS2_ESt4lessIcESaIS2_EE13_Rb_tree_implIS6_Lb1EEC5Ev,comdat
	.align 2
	.weak	_ZNSt8_Rb_treeIcSt4pairIKccESt10_Select1stIS2_ESt4lessIcESaIS2_EE13_Rb_tree_implIS6_Lb1EEC2Ev
	.type	_ZNSt8_Rb_treeIcSt4pairIKccESt10_Select1stIS2_ESt4lessIcESaIS2_EE13_Rb_tree_implIS6_Lb1EEC2Ev, @function
_ZNSt8_Rb_treeIcSt4pairIKccESt10_Select1stIS2_ESt4lessIcESaIS2_EE13_Rb_tree_implIS6_Lb1EEC2Ev:
.LFB10432:
	.cfi_startproc
	endbr64
	push	rbp
	.cfi_def_cfa_offset 16
	.cfi_offset 6, -16
	mov	rbp, rsp
	.cfi_def_cfa_register 6
	sub	rsp, 16
	mov	QWORD PTR -8[rbp], rdi
	mov	rax, QWORD PTR -8[rbp]
	mov	rdi, rax
	call	_ZNSaISt13_Rb_tree_nodeISt4pairIKccEEEC2Ev
	mov	rax, QWORD PTR -8[rbp]
	mov	rdi, rax
	call	_ZNSt20_Rb_tree_key_compareISt4lessIcEEC2Ev
	mov	rax, QWORD PTR -8[rbp]
	add	rax, 8
	mov	rdi, rax
	call	_ZNSt15_Rb_tree_headerC2Ev
	nop
	leave
	.cfi_def_cfa 7, 8
	ret
	.cfi_endproc
.LFE10432:
	.size	_ZNSt8_Rb_treeIcSt4pairIKccESt10_Select1stIS2_ESt4lessIcESaIS2_EE13_Rb_tree_implIS6_Lb1EEC2Ev, .-_ZNSt8_Rb_treeIcSt4pairIKccESt10_Select1stIS2_ESt4lessIcESaIS2_EE13_Rb_tree_implIS6_Lb1EEC2Ev
	.weak	_ZNSt8_Rb_treeIcSt4pairIKccESt10_Select1stIS2_ESt4lessIcESaIS2_EE13_Rb_tree_implIS6_Lb1EEC1Ev
	.set	_ZNSt8_Rb_treeIcSt4pairIKccESt10_Select1stIS2_ESt4lessIcESaIS2_EE13_Rb_tree_implIS6_Lb1EEC1Ev,_ZNSt8_Rb_treeIcSt4pairIKccESt10_Select1stIS2_ESt4lessIcESaIS2_EE13_Rb_tree_implIS6_Lb1EEC2Ev
	.section	.text._ZNSaISt13_Rb_tree_nodeISt4pairIKccEEED2Ev,"axG",@progbits,_ZNSaISt13_Rb_tree_nodeISt4pairIKccEEED5Ev,comdat
	.align 2
	.weak	_ZNSaISt13_Rb_tree_nodeISt4pairIKccEEED2Ev
	.type	_ZNSaISt13_Rb_tree_nodeISt4pairIKccEEED2Ev, @function
_ZNSaISt13_Rb_tree_nodeISt4pairIKccEEED2Ev:
.LFB10435:
	.cfi_startproc
	endbr64
	push	rbp
	.cfi_def_cfa_offset 16
	.cfi_offset 6, -16
	mov	rbp, rsp
	.cfi_def_cfa_register 6
	sub	rsp, 16
	mov	QWORD PTR -8[rbp], rdi
	mov	rax, QWORD PTR -8[rbp]
	mov	rdi, rax
	call	_ZN9__gnu_cxx13new_allocatorISt13_Rb_tree_nodeISt4pairIKccEEED2Ev
	nop
	leave
	.cfi_def_cfa 7, 8
	ret
	.cfi_endproc
.LFE10435:
	.size	_ZNSaISt13_Rb_tree_nodeISt4pairIKccEEED2Ev, .-_ZNSaISt13_Rb_tree_nodeISt4pairIKccEEED2Ev
	.weak	_ZNSaISt13_Rb_tree_nodeISt4pairIKccEEED1Ev
	.set	_ZNSaISt13_Rb_tree_nodeISt4pairIKccEEED1Ev,_ZNSaISt13_Rb_tree_nodeISt4pairIKccEEED2Ev
	.section	.text._ZNSt8_Rb_treeIcSt4pairIKccESt10_Select1stIS2_ESt4lessIcESaIS2_EED2Ev,"axG",@progbits,_ZNSt8_Rb_treeIcSt4pairIKccESt10_Select1stIS2_ESt4lessIcESaIS2_EED5Ev,comdat
	.align 2
	.weak	_ZNSt8_Rb_treeIcSt4pairIKccESt10_Select1stIS2_ESt4lessIcESaIS2_EED2Ev
	.type	_ZNSt8_Rb_treeIcSt4pairIKccESt10_Select1stIS2_ESt4lessIcESaIS2_EED2Ev, @function
_ZNSt8_Rb_treeIcSt4pairIKccESt10_Select1stIS2_ESt4lessIcESaIS2_EED2Ev:
.LFB10438:
	.cfi_startproc
	.cfi_personality 0x9b,DW.ref.__gxx_personality_v0
	.cfi_lsda 0x1b,.LLSDA10438
	endbr64
	push	rbp
	.cfi_def_cfa_offset 16
	.cfi_offset 6, -16
	mov	rbp, rsp
	.cfi_def_cfa_register 6
	sub	rsp, 16
	mov	QWORD PTR -8[rbp], rdi
	mov	rax, QWORD PTR -8[rbp]
	mov	rdi, rax
	call	_ZNSt8_Rb_treeIcSt4pairIKccESt10_Select1stIS2_ESt4lessIcESaIS2_EE8_M_beginEv
	mov	rdx, rax
	mov	rax, QWORD PTR -8[rbp]
	mov	rsi, rdx
	mov	rdi, rax
	call	_ZNSt8_Rb_treeIcSt4pairIKccESt10_Select1stIS2_ESt4lessIcESaIS2_EE8_M_eraseEPSt13_Rb_tree_nodeIS2_E
	mov	rax, QWORD PTR -8[rbp]
	mov	rdi, rax
	call	_ZNSt8_Rb_treeIcSt4pairIKccESt10_Select1stIS2_ESt4lessIcESaIS2_EE13_Rb_tree_implIS6_Lb1EED1Ev
	nop
	leave
	.cfi_def_cfa 7, 8
	ret
	.cfi_endproc
.LFE10438:
	.section	.gcc_except_table
.LLSDA10438:
	.byte	0xff
	.byte	0xff
	.byte	0x1
	.uleb128 .LLSDACSE10438-.LLSDACSB10438
.LLSDACSB10438:
.LLSDACSE10438:
	.section	.text._ZNSt8_Rb_treeIcSt4pairIKccESt10_Select1stIS2_ESt4lessIcESaIS2_EED2Ev,"axG",@progbits,_ZNSt8_Rb_treeIcSt4pairIKccESt10_Select1stIS2_ESt4lessIcESaIS2_EED5Ev,comdat
	.size	_ZNSt8_Rb_treeIcSt4pairIKccESt10_Select1stIS2_ESt4lessIcESaIS2_EED2Ev, .-_ZNSt8_Rb_treeIcSt4pairIKccESt10_Select1stIS2_ESt4lessIcESaIS2_EED2Ev
	.weak	_ZNSt8_Rb_treeIcSt4pairIKccESt10_Select1stIS2_ESt4lessIcESaIS2_EED1Ev
	.set	_ZNSt8_Rb_treeIcSt4pairIKccESt10_Select1stIS2_ESt4lessIcESaIS2_EED1Ev,_ZNSt8_Rb_treeIcSt4pairIKccESt10_Select1stIS2_ESt4lessIcESaIS2_EED2Ev
	.section	.text._ZNSt3mapIccSt4lessIcESaISt4pairIKccEEEixERS3_,"axG",@progbits,_ZNSt3mapIccSt4lessIcESaISt4pairIKccEEEixERS3_,comdat
	.align 2
	.weak	_ZNSt3mapIccSt4lessIcESaISt4pairIKccEEEixERS3_
	.type	_ZNSt3mapIccSt4lessIcESaISt4pairIKccEEEixERS3_, @function
_ZNSt3mapIccSt4lessIcESaISt4pairIKccEEEixERS3_:
.LFB10440:
	.cfi_startproc
	endbr64
	push	rbp
	.cfi_def_cfa_offset 16
	.cfi_offset 6, -16
	mov	rbp, rsp
	.cfi_def_cfa_register 6
	push	rbx
	sub	rsp, 72
	.cfi_offset 3, -24
	mov	QWORD PTR -72[rbp], rdi
	mov	QWORD PTR -80[rbp], rsi
	mov	rax, QWORD PTR fs:40
	mov	QWORD PTR -24[rbp], rax
	xor	eax, eax
	mov	rdx, QWORD PTR -80[rbp]
	mov	rax, QWORD PTR -72[rbp]
	mov	rsi, rdx
	mov	rdi, rax
	call	_ZNSt3mapIccSt4lessIcESaISt4pairIKccEEE11lower_boundERS3_
	mov	QWORD PTR -48[rbp], rax
	mov	rax, QWORD PTR -72[rbp]
	mov	rdi, rax
	call	_ZNSt3mapIccSt4lessIcESaISt4pairIKccEEE3endEv
	mov	QWORD PTR -32[rbp], rax
	lea	rdx, -32[rbp]
	lea	rax, -48[rbp]
	mov	rsi, rdx
	mov	rdi, rax
	call	_ZSteqRKSt17_Rb_tree_iteratorISt4pairIKccEES5_
	test	al, al
	jne	.L51
	mov	rax, QWORD PTR -72[rbp]
	mov	rdi, rax
	call	_ZNKSt3mapIccSt4lessIcESaISt4pairIKccEEE8key_compEv
	lea	rax, -48[rbp]
	mov	rdi, rax
	call	_ZNKSt17_Rb_tree_iteratorISt4pairIKccEEdeEv
	mov	rdx, rax
	mov	rcx, QWORD PTR -80[rbp]
	lea	rax, -40[rbp]
	mov	rsi, rcx
	mov	rdi, rax
	call	_ZNKSt4lessIcEclERKcS2_
	test	al, al
	je	.L52
.L51:
	mov	eax, 1
	jmp	.L53
.L52:
	mov	eax, 0
.L53:
	test	al, al
	je	.L54
	mov	rbx, QWORD PTR -72[rbp]
	mov	rdx, QWORD PTR -80[rbp]
	lea	rax, -40[rbp]
	mov	rsi, rdx
	mov	rdi, rax
	call	_ZNSt5tupleIJRKcEEC1ILb1ELb1EEES1_
	lea	rdx, -48[rbp]
	lea	rax, -32[rbp]
	mov	rsi, rdx
	mov	rdi, rax
	call	_ZNSt23_Rb_tree_const_iteratorISt4pairIKccEEC1ERKSt17_Rb_tree_iteratorIS2_E
	lea	rcx, -49[rbp]
	lea	rdx, -40[rbp]
	mov	rax, QWORD PTR -32[rbp]
	mov	r8, rcx
	mov	rcx, rdx
	lea	rdx, _ZSt19piecewise_construct[rip]
	mov	rsi, rax
	mov	rdi, rbx
	call	_ZNSt8_Rb_treeIcSt4pairIKccESt10_Select1stIS2_ESt4lessIcESaIS2_EE22_M_emplace_hint_uniqueIJRKSt21piecewise_construct_tSt5tupleIJRS1_EESD_IJEEEEESt17_Rb_tree_iteratorIS2_ESt23_Rb_tree_const_iteratorIS2_EDpOT_
	mov	QWORD PTR -48[rbp], rax
.L54:
	lea	rax, -48[rbp]
	mov	rdi, rax
	call	_ZNKSt17_Rb_tree_iteratorISt4pairIKccEEdeEv
	add	rax, 1
	mov	rdx, QWORD PTR -24[rbp]
	sub	rdx, QWORD PTR fs:40
	je	.L56
	call	__stack_chk_fail@PLT
.L56:
	mov	rbx, QWORD PTR -8[rbp]
	leave
	.cfi_def_cfa 7, 8
	ret
	.cfi_endproc
.LFE10440:
	.size	_ZNSt3mapIccSt4lessIcESaISt4pairIKccEEEixERS3_, .-_ZNSt3mapIccSt4lessIcESaISt4pairIKccEEEixERS3_
	.section	.text._ZN9__gnu_cxxneIPcNSt7__cxx1112basic_stringIcSt11char_traitsIcESaIcEEEEEbRKNS_17__normal_iteratorIT_T0_EESD_,"axG",@progbits,_ZN9__gnu_cxxneIPcNSt7__cxx1112basic_stringIcSt11char_traitsIcESaIcEEEEEbRKNS_17__normal_iteratorIT_T0_EESD_,comdat
	.weak	_ZN9__gnu_cxxneIPcNSt7__cxx1112basic_stringIcSt11char_traitsIcESaIcEEEEEbRKNS_17__normal_iteratorIT_T0_EESD_
	.type	_ZN9__gnu_cxxneIPcNSt7__cxx1112basic_stringIcSt11char_traitsIcESaIcEEEEEbRKNS_17__normal_iteratorIT_T0_EESD_, @function
_ZN9__gnu_cxxneIPcNSt7__cxx1112basic_stringIcSt11char_traitsIcESaIcEEEEEbRKNS_17__normal_iteratorIT_T0_EESD_:
.LFB10448:
	.cfi_startproc
	endbr64
	push	rbp
	.cfi_def_cfa_offset 16
	.cfi_offset 6, -16
	mov	rbp, rsp
	.cfi_def_cfa_register 6
	push	rbx
	sub	rsp, 24
	.cfi_offset 3, -24
	mov	QWORD PTR -24[rbp], rdi
	mov	QWORD PTR -32[rbp], rsi
	mov	rax, QWORD PTR -24[rbp]
	mov	rdi, rax
	call	_ZNK9__gnu_cxx17__normal_iteratorIPcNSt7__cxx1112basic_stringIcSt11char_traitsIcESaIcEEEE4baseEv
	mov	rbx, QWORD PTR [rax]
	mov	rax, QWORD PTR -32[rbp]
	mov	rdi, rax
	call	_ZNK9__gnu_cxx17__normal_iteratorIPcNSt7__cxx1112basic_stringIcSt11char_traitsIcESaIcEEEE4baseEv
	mov	rax, QWORD PTR [rax]
	cmp	rbx, rax
	setne	al
	mov	rbx, QWORD PTR -8[rbp]
	leave
	.cfi_def_cfa 7, 8
	ret
	.cfi_endproc
.LFE10448:
	.size	_ZN9__gnu_cxxneIPcNSt7__cxx1112basic_stringIcSt11char_traitsIcESaIcEEEEEbRKNS_17__normal_iteratorIT_T0_EESD_, .-_ZN9__gnu_cxxneIPcNSt7__cxx1112basic_stringIcSt11char_traitsIcESaIcEEEEEbRKNS_17__normal_iteratorIT_T0_EESD_
	.section	.text._ZN9__gnu_cxx17__normal_iteratorIPcNSt7__cxx1112basic_stringIcSt11char_traitsIcESaIcEEEEppEv,"axG",@progbits,_ZN9__gnu_cxx17__normal_iteratorIPcNSt7__cxx1112basic_stringIcSt11char_traitsIcESaIcEEEEppEv,comdat
	.align 2
	.weak	_ZN9__gnu_cxx17__normal_iteratorIPcNSt7__cxx1112basic_stringIcSt11char_traitsIcESaIcEEEEppEv
	.type	_ZN9__gnu_cxx17__normal_iteratorIPcNSt7__cxx1112basic_stringIcSt11char_traitsIcESaIcEEEEppEv, @function
_ZN9__gnu_cxx17__normal_iteratorIPcNSt7__cxx1112basic_stringIcSt11char_traitsIcESaIcEEEEppEv:
.LFB10449:
	.cfi_startproc
	endbr64
	push	rbp
	.cfi_def_cfa_offset 16
	.cfi_offset 6, -16
	mov	rbp, rsp
	.cfi_def_cfa_register 6
	mov	QWORD PTR -8[rbp], rdi
	mov	rax, QWORD PTR -8[rbp]
	mov	rax, QWORD PTR [rax]
	lea	rdx, 1[rax]
	mov	rax, QWORD PTR -8[rbp]
	mov	QWORD PTR [rax], rdx
	mov	rax, QWORD PTR -8[rbp]
	pop	rbp
	.cfi_def_cfa 7, 8
	ret
	.cfi_endproc
.LFE10449:
	.size	_ZN9__gnu_cxx17__normal_iteratorIPcNSt7__cxx1112basic_stringIcSt11char_traitsIcESaIcEEEEppEv, .-_ZN9__gnu_cxx17__normal_iteratorIPcNSt7__cxx1112basic_stringIcSt11char_traitsIcESaIcEEEEppEv
	.section	.text._ZNK9__gnu_cxx17__normal_iteratorIPcNSt7__cxx1112basic_stringIcSt11char_traitsIcESaIcEEEEdeEv,"axG",@progbits,_ZNK9__gnu_cxx17__normal_iteratorIPcNSt7__cxx1112basic_stringIcSt11char_traitsIcESaIcEEEEdeEv,comdat
	.align 2
	.weak	_ZNK9__gnu_cxx17__normal_iteratorIPcNSt7__cxx1112basic_stringIcSt11char_traitsIcESaIcEEEEdeEv
	.type	_ZNK9__gnu_cxx17__normal_iteratorIPcNSt7__cxx1112basic_stringIcSt11char_traitsIcESaIcEEEEdeEv, @function
_ZNK9__gnu_cxx17__normal_iteratorIPcNSt7__cxx1112basic_stringIcSt11char_traitsIcESaIcEEEEdeEv:
.LFB10450:
	.cfi_startproc
	endbr64
	push	rbp
	.cfi_def_cfa_offset 16
	.cfi_offset 6, -16
	mov	rbp, rsp
	.cfi_def_cfa_register 6
	mov	QWORD PTR -8[rbp], rdi
	mov	rax, QWORD PTR -8[rbp]
	mov	rax, QWORD PTR [rax]
	pop	rbp
	.cfi_def_cfa 7, 8
	ret
	.cfi_endproc
.LFE10450:
	.size	_ZNK9__gnu_cxx17__normal_iteratorIPcNSt7__cxx1112basic_stringIcSt11char_traitsIcESaIcEEEEdeEv, .-_ZNK9__gnu_cxx17__normal_iteratorIPcNSt7__cxx1112basic_stringIcSt11char_traitsIcESaIcEEEEdeEv
	.section	.text._ZNSt8_Rb_treeIccSt9_IdentityIcESt4lessIcESaIcEE13_Rb_tree_implIS3_Lb1EEC2Ev,"axG",@progbits,_ZNSt8_Rb_treeIccSt9_IdentityIcESt4lessIcESaIcEE13_Rb_tree_implIS3_Lb1EEC5Ev,comdat
	.align 2
	.weak	_ZNSt8_Rb_treeIccSt9_IdentityIcESt4lessIcESaIcEE13_Rb_tree_implIS3_Lb1EEC2Ev
	.type	_ZNSt8_Rb_treeIccSt9_IdentityIcESt4lessIcESaIcEE13_Rb_tree_implIS3_Lb1EEC2Ev, @function
_ZNSt8_Rb_treeIccSt9_IdentityIcESt4lessIcESaIcEE13_Rb_tree_implIS3_Lb1EEC2Ev:
.LFB10848:
	.cfi_startproc
	endbr64
	push	rbp
	.cfi_def_cfa_offset 16
	.cfi_offset 6, -16
	mov	rbp, rsp
	.cfi_def_cfa_register 6
	sub	rsp, 16
	mov	QWORD PTR -8[rbp], rdi
	mov	rax, QWORD PTR -8[rbp]
	mov	rdi, rax
	call	_ZNSaISt13_Rb_tree_nodeIcEEC2Ev
	mov	rax, QWORD PTR -8[rbp]
	mov	rdi, rax
	call	_ZNSt20_Rb_tree_key_compareISt4lessIcEEC2Ev
	mov	rax, QWORD PTR -8[rbp]
	add	rax, 8
	mov	rdi, rax
	call	_ZNSt15_Rb_tree_headerC2Ev
	nop
	leave
	.cfi_def_cfa 7, 8
	ret
	.cfi_endproc
.LFE10848:
	.size	_ZNSt8_Rb_treeIccSt9_IdentityIcESt4lessIcESaIcEE13_Rb_tree_implIS3_Lb1EEC2Ev, .-_ZNSt8_Rb_treeIccSt9_IdentityIcESt4lessIcESaIcEE13_Rb_tree_implIS3_Lb1EEC2Ev
	.weak	_ZNSt8_Rb_treeIccSt9_IdentityIcESt4lessIcESaIcEE13_Rb_tree_implIS3_Lb1EEC1Ev
	.set	_ZNSt8_Rb_treeIccSt9_IdentityIcESt4lessIcESaIcEE13_Rb_tree_implIS3_Lb1EEC1Ev,_ZNSt8_Rb_treeIccSt9_IdentityIcESt4lessIcESaIcEE13_Rb_tree_implIS3_Lb1EEC2Ev
	.section	.text._ZNSaISt13_Rb_tree_nodeIcEED2Ev,"axG",@progbits,_ZNSaISt13_Rb_tree_nodeIcEED5Ev,comdat
	.align 2
	.weak	_ZNSaISt13_Rb_tree_nodeIcEED2Ev
	.type	_ZNSaISt13_Rb_tree_nodeIcEED2Ev, @function
_ZNSaISt13_Rb_tree_nodeIcEED2Ev:
.LFB10851:
	.cfi_startproc
	endbr64
	push	rbp
	.cfi_def_cfa_offset 16
	.cfi_offset 6, -16
	mov	rbp, rsp
	.cfi_def_cfa_register 6
	sub	rsp, 16
	mov	QWORD PTR -8[rbp], rdi
	mov	rax, QWORD PTR -8[rbp]
	mov	rdi, rax
	call	_ZN9__gnu_cxx13new_allocatorISt13_Rb_tree_nodeIcEED2Ev
	nop
	leave
	.cfi_def_cfa 7, 8
	ret
	.cfi_endproc
.LFE10851:
	.size	_ZNSaISt13_Rb_tree_nodeIcEED2Ev, .-_ZNSaISt13_Rb_tree_nodeIcEED2Ev
	.weak	_ZNSaISt13_Rb_tree_nodeIcEED1Ev
	.set	_ZNSaISt13_Rb_tree_nodeIcEED1Ev,_ZNSaISt13_Rb_tree_nodeIcEED2Ev
	.section	.text._ZNSt8_Rb_treeIccSt9_IdentityIcESt4lessIcESaIcEE22_M_insert_range_uniqueIN9__gnu_cxx17__normal_iteratorIPcNSt7__cxx1112basic_stringIcSt11char_traitsIcES4_EEEEEENSt9enable_ifIXsrSt7is_sameIcNSt15iterator_traitsIT_E10value_typeEE5valueEvE4typeESJ_SJ_,"axG",@progbits,_ZNSt8_Rb_treeIccSt9_IdentityIcESt4lessIcESaIcEE22_M_insert_range_uniqueIN9__gnu_cxx17__normal_iteratorIPcNSt7__cxx1112basic_stringIcSt11char_traitsIcES4_EEEEEENSt9enable_ifIXsrSt7is_sameIcNSt15iterator_traitsIT_E10value_typeEE5valueEvE4typeESJ_SJ_,comdat
	.align 2
	.weak	_ZNSt8_Rb_treeIccSt9_IdentityIcESt4lessIcESaIcEE22_M_insert_range_uniqueIN9__gnu_cxx17__normal_iteratorIPcNSt7__cxx1112basic_stringIcSt11char_traitsIcES4_EEEEEENSt9enable_ifIXsrSt7is_sameIcNSt15iterator_traitsIT_E10value_typeEE5valueEvE4typeESJ_SJ_
	.type	_ZNSt8_Rb_treeIccSt9_IdentityIcESt4lessIcESaIcEE22_M_insert_range_uniqueIN9__gnu_cxx17__normal_iteratorIPcNSt7__cxx1112basic_stringIcSt11char_traitsIcES4_EEEEEENSt9enable_ifIXsrSt7is_sameIcNSt15iterator_traitsIT_E10value_typeEE5valueEvE4typeESJ_SJ_, @function
_ZNSt8_Rb_treeIccSt9_IdentityIcESt4lessIcESaIcEE22_M_insert_range_uniqueIN9__gnu_cxx17__normal_iteratorIPcNSt7__cxx1112basic_stringIcSt11char_traitsIcES4_EEEEEENSt9enable_ifIXsrSt7is_sameIcNSt15iterator_traitsIT_E10value_typeEE5valueEvE4typeESJ_SJ_:
.LFB10853:
	.cfi_startproc
	endbr64
	push	rbp
	.cfi_def_cfa_offset 16
	.cfi_offset 6, -16
	mov	rbp, rsp
	.cfi_def_cfa_register 6
	push	rbx
	sub	rsp, 72
	.cfi_offset 3, -24
	mov	QWORD PTR -56[rbp], rdi
	mov	QWORD PTR -64[rbp], rsi
	mov	QWORD PTR -72[rbp], rdx
	mov	rax, QWORD PTR fs:40
	mov	QWORD PTR -24[rbp], rax
	xor	eax, eax
	mov	rdx, QWORD PTR -56[rbp]
	lea	rax, -48[rbp]
	mov	rsi, rdx
	mov	rdi, rax
	call	_ZNSt8_Rb_treeIccSt9_IdentityIcESt4lessIcESaIcEE11_Alloc_nodeC1ERS5_
	jmp	.L66
.L67:
	lea	rax, -64[rbp]
	mov	rdi, rax
	call	_ZNK9__gnu_cxx17__normal_iteratorIPcNSt7__cxx1112basic_stringIcSt11char_traitsIcESaIcEEEEdeEv
	mov	rbx, rax
	mov	rax, QWORD PTR -56[rbp]
	mov	rdi, rax
	call	_ZNSt8_Rb_treeIccSt9_IdentityIcESt4lessIcESaIcEE3endEv
	mov	QWORD PTR -40[rbp], rax
	lea	rdx, -40[rbp]
	lea	rax, -32[rbp]
	mov	rsi, rdx
	mov	rdi, rax
	call	_ZNSt23_Rb_tree_const_iteratorIcEC1ERKSt17_Rb_tree_iteratorIcE
	lea	rdx, -48[rbp]
	mov	rsi, QWORD PTR -32[rbp]
	mov	rax, QWORD PTR -56[rbp]
	mov	rcx, rdx
	mov	rdx, rbx
	mov	rdi, rax
	call	_ZNSt8_Rb_treeIccSt9_IdentityIcESt4lessIcESaIcEE17_M_insert_unique_IRcNS5_11_Alloc_nodeEEESt17_Rb_tree_iteratorIcESt23_Rb_tree_const_iteratorIcEOT_RT0_
	lea	rax, -64[rbp]
	mov	rdi, rax
	call	_ZN9__gnu_cxx17__normal_iteratorIPcNSt7__cxx1112basic_stringIcSt11char_traitsIcESaIcEEEEppEv
.L66:
	lea	rdx, -72[rbp]
	lea	rax, -64[rbp]
	mov	rsi, rdx
	mov	rdi, rax
	call	_ZN9__gnu_cxxneIPcNSt7__cxx1112basic_stringIcSt11char_traitsIcESaIcEEEEEbRKNS_17__normal_iteratorIT_T0_EESD_
	test	al, al
	jne	.L67
	nop
	mov	rax, QWORD PTR -24[rbp]
	sub	rax, QWORD PTR fs:40
	je	.L68
	call	__stack_chk_fail@PLT
.L68:
	mov	rbx, QWORD PTR -8[rbp]
	leave
	.cfi_def_cfa 7, 8
	ret
	.cfi_endproc
.LFE10853:
	.size	_ZNSt8_Rb_treeIccSt9_IdentityIcESt4lessIcESaIcEE22_M_insert_range_uniqueIN9__gnu_cxx17__normal_iteratorIPcNSt7__cxx1112basic_stringIcSt11char_traitsIcES4_EEEEEENSt9enable_ifIXsrSt7is_sameIcNSt15iterator_traitsIT_E10value_typeEE5valueEvE4typeESJ_SJ_, .-_ZNSt8_Rb_treeIccSt9_IdentityIcESt4lessIcESaIcEE22_M_insert_range_uniqueIN9__gnu_cxx17__normal_iteratorIPcNSt7__cxx1112basic_stringIcSt11char_traitsIcES4_EEEEEENSt9enable_ifIXsrSt7is_sameIcNSt15iterator_traitsIT_E10value_typeEE5valueEvE4typeESJ_SJ_
	.section	.text._ZNSt8_Rb_treeIccSt9_IdentityIcESt4lessIcESaIcEE8_M_eraseEPSt13_Rb_tree_nodeIcE,"axG",@progbits,_ZNSt8_Rb_treeIccSt9_IdentityIcESt4lessIcESaIcEE8_M_eraseEPSt13_Rb_tree_nodeIcE,comdat
	.align 2
	.weak	_ZNSt8_Rb_treeIccSt9_IdentityIcESt4lessIcESaIcEE8_M_eraseEPSt13_Rb_tree_nodeIcE
	.type	_ZNSt8_Rb_treeIccSt9_IdentityIcESt4lessIcESaIcEE8_M_eraseEPSt13_Rb_tree_nodeIcE, @function
_ZNSt8_Rb_treeIccSt9_IdentityIcESt4lessIcESaIcEE8_M_eraseEPSt13_Rb_tree_nodeIcE:
.LFB10854:
	.cfi_startproc
	endbr64
	push	rbp
	.cfi_def_cfa_offset 16
	.cfi_offset 6, -16
	mov	rbp, rsp
	.cfi_def_cfa_register 6
	sub	rsp, 32
	mov	QWORD PTR -24[rbp], rdi
	mov	QWORD PTR -32[rbp], rsi
	jmp	.L70
.L71:
	mov	rax, QWORD PTR -32[rbp]
	mov	rdi, rax
	call	_ZNSt8_Rb_treeIccSt9_IdentityIcESt4lessIcESaIcEE8_S_rightEPSt18_Rb_tree_node_base
	mov	rdx, rax
	mov	rax, QWORD PTR -24[rbp]
	mov	rsi, rdx
	mov	rdi, rax
	call	_ZNSt8_Rb_treeIccSt9_IdentityIcESt4lessIcESaIcEE8_M_eraseEPSt13_Rb_tree_nodeIcE
	mov	rax, QWORD PTR -32[rbp]
	mov	rdi, rax
	call	_ZNSt8_Rb_treeIccSt9_IdentityIcESt4lessIcESaIcEE7_S_leftEPSt18_Rb_tree_node_base
	mov	QWORD PTR -8[rbp], rax
	mov	rdx, QWORD PTR -32[rbp]
	mov	rax, QWORD PTR -24[rbp]
	mov	rsi, rdx
	mov	rdi, rax
	call	_ZNSt8_Rb_treeIccSt9_IdentityIcESt4lessIcESaIcEE12_M_drop_nodeEPSt13_Rb_tree_nodeIcE
	mov	rax, QWORD PTR -8[rbp]
	mov	QWORD PTR -32[rbp], rax
.L70:
	cmp	QWORD PTR -32[rbp], 0
	jne	.L71
	nop
	nop
	leave
	.cfi_def_cfa 7, 8
	ret
	.cfi_endproc
.LFE10854:
	.size	_ZNSt8_Rb_treeIccSt9_IdentityIcESt4lessIcESaIcEE8_M_eraseEPSt13_Rb_tree_nodeIcE, .-_ZNSt8_Rb_treeIccSt9_IdentityIcESt4lessIcESaIcEE8_M_eraseEPSt13_Rb_tree_nodeIcE
	.section	.text._ZNSt8_Rb_treeIccSt9_IdentityIcESt4lessIcESaIcEE8_M_beginEv,"axG",@progbits,_ZNSt8_Rb_treeIccSt9_IdentityIcESt4lessIcESaIcEE8_M_beginEv,comdat
	.align 2
	.weak	_ZNSt8_Rb_treeIccSt9_IdentityIcESt4lessIcESaIcEE8_M_beginEv
	.type	_ZNSt8_Rb_treeIccSt9_IdentityIcESt4lessIcESaIcEE8_M_beginEv, @function
_ZNSt8_Rb_treeIccSt9_IdentityIcESt4lessIcESaIcEE8_M_beginEv:
.LFB10855:
	.cfi_startproc
	endbr64
	push	rbp
	.cfi_def_cfa_offset 16
	.cfi_offset 6, -16
	mov	rbp, rsp
	.cfi_def_cfa_register 6
	sub	rsp, 16
	mov	QWORD PTR -8[rbp], rdi
	mov	rax, QWORD PTR -8[rbp]
	mov	rdi, rax
	call	_ZNKSt8_Rb_treeIccSt9_IdentityIcESt4lessIcESaIcEE9_M_mbeginEv
	leave
	.cfi_def_cfa 7, 8
	ret
	.cfi_endproc
.LFE10855:
	.size	_ZNSt8_Rb_treeIccSt9_IdentityIcESt4lessIcESaIcEE8_M_beginEv, .-_ZNSt8_Rb_treeIccSt9_IdentityIcESt4lessIcESaIcEE8_M_beginEv
	.section	.text._ZNKSt8_Rb_treeIccSt9_IdentityIcESt4lessIcESaIcEE5beginEv,"axG",@progbits,_ZNKSt8_Rb_treeIccSt9_IdentityIcESt4lessIcESaIcEE5beginEv,comdat
	.align 2
	.weak	_ZNKSt8_Rb_treeIccSt9_IdentityIcESt4lessIcESaIcEE5beginEv
	.type	_ZNKSt8_Rb_treeIccSt9_IdentityIcESt4lessIcESaIcEE5beginEv, @function
_ZNKSt8_Rb_treeIccSt9_IdentityIcESt4lessIcESaIcEE5beginEv:
.LFB10856:
	.cfi_startproc
	endbr64
	push	rbp
	.cfi_def_cfa_offset 16
	.cfi_offset 6, -16
	mov	rbp, rsp
	.cfi_def_cfa_register 6
	sub	rsp, 32
	mov	QWORD PTR -24[rbp], rdi
	mov	rax, QWORD PTR fs:40
	mov	QWORD PTR -8[rbp], rax
	xor	eax, eax
	mov	rax, QWORD PTR -24[rbp]
	mov	rdx, QWORD PTR 24[rax]
	lea	rax, -16[rbp]
	mov	rsi, rdx
	mov	rdi, rax
	call	_ZNSt23_Rb_tree_const_iteratorIcEC1EPKSt18_Rb_tree_node_base
	mov	rax, QWORD PTR -16[rbp]
	mov	rdx, QWORD PTR -8[rbp]
	sub	rdx, QWORD PTR fs:40
	je	.L76
	call	__stack_chk_fail@PLT
.L76:
	leave
	.cfi_def_cfa 7, 8
	ret
	.cfi_endproc
.LFE10856:
	.size	_ZNKSt8_Rb_treeIccSt9_IdentityIcESt4lessIcESaIcEE5beginEv, .-_ZNKSt8_Rb_treeIccSt9_IdentityIcESt4lessIcESaIcEE5beginEv
	.section	.text._ZNKSt8_Rb_treeIccSt9_IdentityIcESt4lessIcESaIcEE3endEv,"axG",@progbits,_ZNKSt8_Rb_treeIccSt9_IdentityIcESt4lessIcESaIcEE3endEv,comdat
	.align 2
	.weak	_ZNKSt8_Rb_treeIccSt9_IdentityIcESt4lessIcESaIcEE3endEv
	.type	_ZNKSt8_Rb_treeIccSt9_IdentityIcESt4lessIcESaIcEE3endEv, @function
_ZNKSt8_Rb_treeIccSt9_IdentityIcESt4lessIcESaIcEE3endEv:
.LFB10857:
	.cfi_startproc
	endbr64
	push	rbp
	.cfi_def_cfa_offset 16
	.cfi_offset 6, -16
	mov	rbp, rsp
	.cfi_def_cfa_register 6
	sub	rsp, 32
	mov	QWORD PTR -24[rbp], rdi
	mov	rax, QWORD PTR fs:40
	mov	QWORD PTR -8[rbp], rax
	xor	eax, eax
	mov	rax, QWORD PTR -24[rbp]
	lea	rdx, 8[rax]
	lea	rax, -16[rbp]
	mov	rsi, rdx
	mov	rdi, rax
	call	_ZNSt23_Rb_tree_const_iteratorIcEC1EPKSt18_Rb_tree_node_base
	mov	rax, QWORD PTR -16[rbp]
	mov	rdx, QWORD PTR -8[rbp]
	sub	rdx, QWORD PTR fs:40
	je	.L79
	call	__stack_chk_fail@PLT
.L79:
	leave
	.cfi_def_cfa 7, 8
	ret
	.cfi_endproc
.LFE10857:
	.size	_ZNKSt8_Rb_treeIccSt9_IdentityIcESt4lessIcESaIcEE3endEv, .-_ZNKSt8_Rb_treeIccSt9_IdentityIcESt4lessIcESaIcEE3endEv
	.section	.text._ZNSt7__cxx1112basic_stringIcSt11char_traitsIcESaIcEE12_M_constructISt23_Rb_tree_const_iteratorIcEEEvT_S8_,"axG",@progbits,_ZNSt7__cxx1112basic_stringIcSt11char_traitsIcESaIcEE12_M_constructISt23_Rb_tree_const_iteratorIcEEEvT_S8_,comdat
	.align 2
	.weak	_ZNSt7__cxx1112basic_stringIcSt11char_traitsIcESaIcEE12_M_constructISt23_Rb_tree_const_iteratorIcEEEvT_S8_
	.type	_ZNSt7__cxx1112basic_stringIcSt11char_traitsIcESaIcEE12_M_constructISt23_Rb_tree_const_iteratorIcEEEvT_S8_, @function
_ZNSt7__cxx1112basic_stringIcSt11char_traitsIcESaIcEE12_M_constructISt23_Rb_tree_const_iteratorIcEEEvT_S8_:
.LFB10858:
	.cfi_startproc
	endbr64
	push	rbp
	.cfi_def_cfa_offset 16
	.cfi_offset 6, -16
	mov	rbp, rsp
	.cfi_def_cfa_register 6
	sub	rsp, 32
	mov	QWORD PTR -8[rbp], rdi
	mov	QWORD PTR -16[rbp], rsi
	mov	QWORD PTR -24[rbp], rdx
	mov	rdx, QWORD PTR -24[rbp]
	mov	rcx, QWORD PTR -16[rbp]
	mov	rax, QWORD PTR -8[rbp]
	mov	rsi, rcx
	mov	rdi, rax
	call	_ZNSt7__cxx1112basic_stringIcSt11char_traitsIcESaIcEE16_M_construct_auxISt23_Rb_tree_const_iteratorIcEEEvT_S8_St12__false_type
	nop
	leave
	.cfi_def_cfa 7, 8
	ret
	.cfi_endproc
.LFE10858:
	.size	_ZNSt7__cxx1112basic_stringIcSt11char_traitsIcESaIcEE12_M_constructISt23_Rb_tree_const_iteratorIcEEEvT_S8_, .-_ZNSt7__cxx1112basic_stringIcSt11char_traitsIcESaIcEE12_M_constructISt23_Rb_tree_const_iteratorIcEEEvT_S8_
	.section	.text._ZNSaISt13_Rb_tree_nodeISt4pairIKccEEEC2Ev,"axG",@progbits,_ZNSaISt13_Rb_tree_nodeISt4pairIKccEEEC5Ev,comdat
	.align 2
	.weak	_ZNSaISt13_Rb_tree_nodeISt4pairIKccEEEC2Ev
	.type	_ZNSaISt13_Rb_tree_nodeISt4pairIKccEEEC2Ev, @function
_ZNSaISt13_Rb_tree_nodeISt4pairIKccEEEC2Ev:
.LFB10860:
	.cfi_startproc
	endbr64
	push	rbp
	.cfi_def_cfa_offset 16
	.cfi_offset 6, -16
	mov	rbp, rsp
	.cfi_def_cfa_register 6
	sub	rsp, 16
	mov	QWORD PTR -8[rbp], rdi
	mov	rax, QWORD PTR -8[rbp]
	mov	rdi, rax
	call	_ZN9__gnu_cxx13new_allocatorISt13_Rb_tree_nodeISt4pairIKccEEEC2Ev
	nop
	leave
	.cfi_def_cfa 7, 8
	ret
	.cfi_endproc
.LFE10860:
	.size	_ZNSaISt13_Rb_tree_nodeISt4pairIKccEEEC2Ev, .-_ZNSaISt13_Rb_tree_nodeISt4pairIKccEEEC2Ev
	.weak	_ZNSaISt13_Rb_tree_nodeISt4pairIKccEEEC1Ev
	.set	_ZNSaISt13_Rb_tree_nodeISt4pairIKccEEEC1Ev,_ZNSaISt13_Rb_tree_nodeISt4pairIKccEEEC2Ev
	.section	.text._ZNSt20_Rb_tree_key_compareISt4lessIcEEC2Ev,"axG",@progbits,_ZNSt20_Rb_tree_key_compareISt4lessIcEEC5Ev,comdat
	.align 2
	.weak	_ZNSt20_Rb_tree_key_compareISt4lessIcEEC2Ev
	.type	_ZNSt20_Rb_tree_key_compareISt4lessIcEEC2Ev, @function
_ZNSt20_Rb_tree_key_compareISt4lessIcEEC2Ev:
.LFB10863:
	.cfi_startproc
	endbr64
	push	rbp
	.cfi_def_cfa_offset 16
	.cfi_offset 6, -16
	mov	rbp, rsp
	.cfi_def_cfa_register 6
	mov	QWORD PTR -8[rbp], rdi
	nop
	pop	rbp
	.cfi_def_cfa 7, 8
	ret
	.cfi_endproc
.LFE10863:
	.size	_ZNSt20_Rb_tree_key_compareISt4lessIcEEC2Ev, .-_ZNSt20_Rb_tree_key_compareISt4lessIcEEC2Ev
	.weak	_ZNSt20_Rb_tree_key_compareISt4lessIcEEC1Ev
	.set	_ZNSt20_Rb_tree_key_compareISt4lessIcEEC1Ev,_ZNSt20_Rb_tree_key_compareISt4lessIcEEC2Ev
	.section	.text._ZN9__gnu_cxx13new_allocatorISt13_Rb_tree_nodeISt4pairIKccEEED2Ev,"axG",@progbits,_ZN9__gnu_cxx13new_allocatorISt13_Rb_tree_nodeISt4pairIKccEEED5Ev,comdat
	.align 2
	.weak	_ZN9__gnu_cxx13new_allocatorISt13_Rb_tree_nodeISt4pairIKccEEED2Ev
	.type	_ZN9__gnu_cxx13new_allocatorISt13_Rb_tree_nodeISt4pairIKccEEED2Ev, @function
_ZN9__gnu_cxx13new_allocatorISt13_Rb_tree_nodeISt4pairIKccEEED2Ev:
.LFB10866:
	.cfi_startproc
	endbr64
	push	rbp
	.cfi_def_cfa_offset 16
	.cfi_offset 6, -16
	mov	rbp, rsp
	.cfi_def_cfa_register 6
	mov	QWORD PTR -8[rbp], rdi
	nop
	pop	rbp
	.cfi_def_cfa 7, 8
	ret
	.cfi_endproc
.LFE10866:
	.size	_ZN9__gnu_cxx13new_allocatorISt13_Rb_tree_nodeISt4pairIKccEEED2Ev, .-_ZN9__gnu_cxx13new_allocatorISt13_Rb_tree_nodeISt4pairIKccEEED2Ev
	.weak	_ZN9__gnu_cxx13new_allocatorISt13_Rb_tree_nodeISt4pairIKccEEED1Ev
	.set	_ZN9__gnu_cxx13new_allocatorISt13_Rb_tree_nodeISt4pairIKccEEED1Ev,_ZN9__gnu_cxx13new_allocatorISt13_Rb_tree_nodeISt4pairIKccEEED2Ev
	.section	.text._ZNSt8_Rb_treeIcSt4pairIKccESt10_Select1stIS2_ESt4lessIcESaIS2_EE8_M_eraseEPSt13_Rb_tree_nodeIS2_E,"axG",@progbits,_ZNSt8_Rb_treeIcSt4pairIKccESt10_Select1stIS2_ESt4lessIcESaIS2_EE8_M_eraseEPSt13_Rb_tree_nodeIS2_E,comdat
	.align 2
	.weak	_ZNSt8_Rb_treeIcSt4pairIKccESt10_Select1stIS2_ESt4lessIcESaIS2_EE8_M_eraseEPSt13_Rb_tree_nodeIS2_E
	.type	_ZNSt8_Rb_treeIcSt4pairIKccESt10_Select1stIS2_ESt4lessIcESaIS2_EE8_M_eraseEPSt13_Rb_tree_nodeIS2_E, @function
_ZNSt8_Rb_treeIcSt4pairIKccESt10_Select1stIS2_ESt4lessIcESaIS2_EE8_M_eraseEPSt13_Rb_tree_nodeIS2_E:
.LFB10868:
	.cfi_startproc
	endbr64
	push	rbp
	.cfi_def_cfa_offset 16
	.cfi_offset 6, -16
	mov	rbp, rsp
	.cfi_def_cfa_register 6
	sub	rsp, 32
	mov	QWORD PTR -24[rbp], rdi
	mov	QWORD PTR -32[rbp], rsi
	jmp	.L85
.L86:
	mov	rax, QWORD PTR -32[rbp]
	mov	rdi, rax
	call	_ZNSt8_Rb_treeIcSt4pairIKccESt10_Select1stIS2_ESt4lessIcESaIS2_EE8_S_rightEPSt18_Rb_tree_node_base
	mov	rdx, rax
	mov	rax, QWORD PTR -24[rbp]
	mov	rsi, rdx
	mov	rdi, rax
	call	_ZNSt8_Rb_treeIcSt4pairIKccESt10_Select1stIS2_ESt4lessIcESaIS2_EE8_M_eraseEPSt13_Rb_tree_nodeIS2_E
	mov	rax, QWORD PTR -32[rbp]
	mov	rdi, rax
	call	_ZNSt8_Rb_treeIcSt4pairIKccESt10_Select1stIS2_ESt4lessIcESaIS2_EE7_S_leftEPSt18_Rb_tree_node_base
	mov	QWORD PTR -8[rbp], rax
	mov	rdx, QWORD PTR -32[rbp]
	mov	rax, QWORD PTR -24[rbp]
	mov	rsi, rdx
	mov	rdi, rax
	call	_ZNSt8_Rb_treeIcSt4pairIKccESt10_Select1stIS2_ESt4lessIcESaIS2_EE12_M_drop_nodeEPSt13_Rb_tree_nodeIS2_E
	mov	rax, QWORD PTR -8[rbp]
	mov	QWORD PTR -32[rbp], rax
.L85:
	cmp	QWORD PTR -32[rbp], 0
	jne	.L86
	nop
	nop
	leave
	.cfi_def_cfa 7, 8
	ret
	.cfi_endproc
.LFE10868:
	.size	_ZNSt8_Rb_treeIcSt4pairIKccESt10_Select1stIS2_ESt4lessIcESaIS2_EE8_M_eraseEPSt13_Rb_tree_nodeIS2_E, .-_ZNSt8_Rb_treeIcSt4pairIKccESt10_Select1stIS2_ESt4lessIcESaIS2_EE8_M_eraseEPSt13_Rb_tree_nodeIS2_E
	.section	.text._ZNSt8_Rb_treeIcSt4pairIKccESt10_Select1stIS2_ESt4lessIcESaIS2_EE8_M_beginEv,"axG",@progbits,_ZNSt8_Rb_treeIcSt4pairIKccESt10_Select1stIS2_ESt4lessIcESaIS2_EE8_M_beginEv,comdat
	.align 2
	.weak	_ZNSt8_Rb_treeIcSt4pairIKccESt10_Select1stIS2_ESt4lessIcESaIS2_EE8_M_beginEv
	.type	_ZNSt8_Rb_treeIcSt4pairIKccESt10_Select1stIS2_ESt4lessIcESaIS2_EE8_M_beginEv, @function
_ZNSt8_Rb_treeIcSt4pairIKccESt10_Select1stIS2_ESt4lessIcESaIS2_EE8_M_beginEv:
.LFB10869:
	.cfi_startproc
	endbr64
	push	rbp
	.cfi_def_cfa_offset 16
	.cfi_offset 6, -16
	mov	rbp, rsp
	.cfi_def_cfa_register 6
	sub	rsp, 16
	mov	QWORD PTR -8[rbp], rdi
	mov	rax, QWORD PTR -8[rbp]
	mov	rdi, rax
	call	_ZNKSt8_Rb_treeIcSt4pairIKccESt10_Select1stIS2_ESt4lessIcESaIS2_EE9_M_mbeginEv
	leave
	.cfi_def_cfa 7, 8
	ret
	.cfi_endproc
.LFE10869:
	.size	_ZNSt8_Rb_treeIcSt4pairIKccESt10_Select1stIS2_ESt4lessIcESaIS2_EE8_M_beginEv, .-_ZNSt8_Rb_treeIcSt4pairIKccESt10_Select1stIS2_ESt4lessIcESaIS2_EE8_M_beginEv
	.section	.text._ZNSt3mapIccSt4lessIcESaISt4pairIKccEEE11lower_boundERS3_,"axG",@progbits,_ZNSt3mapIccSt4lessIcESaISt4pairIKccEEE11lower_boundERS3_,comdat
	.align 2
	.weak	_ZNSt3mapIccSt4lessIcESaISt4pairIKccEEE11lower_boundERS3_
	.type	_ZNSt3mapIccSt4lessIcESaISt4pairIKccEEE11lower_boundERS3_, @function
_ZNSt3mapIccSt4lessIcESaISt4pairIKccEEE11lower_boundERS3_:
.LFB10870:
	.cfi_startproc
	endbr64
	push	rbp
	.cfi_def_cfa_offset 16
	.cfi_offset 6, -16
	mov	rbp, rsp
	.cfi_def_cfa_register 6
	sub	rsp, 16
	mov	QWORD PTR -8[rbp], rdi
	mov	QWORD PTR -16[rbp], rsi
	mov	rax, QWORD PTR -8[rbp]
	mov	rdx, QWORD PTR -16[rbp]
	mov	rsi, rdx
	mov	rdi, rax
	call	_ZNSt8_Rb_treeIcSt4pairIKccESt10_Select1stIS2_ESt4lessIcESaIS2_EE11lower_boundERS1_
	leave
	.cfi_def_cfa 7, 8
	ret
	.cfi_endproc
.LFE10870:
	.size	_ZNSt3mapIccSt4lessIcESaISt4pairIKccEEE11lower_boundERS3_, .-_ZNSt3mapIccSt4lessIcESaISt4pairIKccEEE11lower_boundERS3_
	.section	.text._ZNSt3mapIccSt4lessIcESaISt4pairIKccEEE3endEv,"axG",@progbits,_ZNSt3mapIccSt4lessIcESaISt4pairIKccEEE3endEv,comdat
	.align 2
	.weak	_ZNSt3mapIccSt4lessIcESaISt4pairIKccEEE3endEv
	.type	_ZNSt3mapIccSt4lessIcESaISt4pairIKccEEE3endEv, @function
_ZNSt3mapIccSt4lessIcESaISt4pairIKccEEE3endEv:
.LFB10871:
	.cfi_startproc
	endbr64
	push	rbp
	.cfi_def_cfa_offset 16
	.cfi_offset 6, -16
	mov	rbp, rsp
	.cfi_def_cfa_register 6
	sub	rsp, 16
	mov	QWORD PTR -8[rbp], rdi
	mov	rax, QWORD PTR -8[rbp]
	mov	rdi, rax
	call	_ZNSt8_Rb_treeIcSt4pairIKccESt10_Select1stIS2_ESt4lessIcESaIS2_EE3endEv
	leave
	.cfi_def_cfa 7, 8
	ret
	.cfi_endproc
.LFE10871:
	.size	_ZNSt3mapIccSt4lessIcESaISt4pairIKccEEE3endEv, .-_ZNSt3mapIccSt4lessIcESaISt4pairIKccEEE3endEv
	.section	.text._ZSteqRKSt17_Rb_tree_iteratorISt4pairIKccEES5_,"axG",@progbits,_ZSteqRKSt17_Rb_tree_iteratorISt4pairIKccEES5_,comdat
	.weak	_ZSteqRKSt17_Rb_tree_iteratorISt4pairIKccEES5_
	.type	_ZSteqRKSt17_Rb_tree_iteratorISt4pairIKccEES5_, @function
_ZSteqRKSt17_Rb_tree_iteratorISt4pairIKccEES5_:
.LFB10872:
	.cfi_startproc
	endbr64
	push	rbp
	.cfi_def_cfa_offset 16
	.cfi_offset 6, -16
	mov	rbp, rsp
	.cfi_def_cfa_register 6
	mov	QWORD PTR -8[rbp], rdi
	mov	QWORD PTR -16[rbp], rsi
	mov	rax, QWORD PTR -8[rbp]
	mov	rdx, QWORD PTR [rax]
	mov	rax, QWORD PTR -16[rbp]
	mov	rax, QWORD PTR [rax]
	cmp	rdx, rax
	sete	al
	pop	rbp
	.cfi_def_cfa 7, 8
	ret
	.cfi_endproc
.LFE10872:
	.size	_ZSteqRKSt17_Rb_tree_iteratorISt4pairIKccEES5_, .-_ZSteqRKSt17_Rb_tree_iteratorISt4pairIKccEES5_
	.section	.text._ZNKSt3mapIccSt4lessIcESaISt4pairIKccEEE8key_compEv,"axG",@progbits,_ZNKSt3mapIccSt4lessIcESaISt4pairIKccEEE8key_compEv,comdat
	.align 2
	.weak	_ZNKSt3mapIccSt4lessIcESaISt4pairIKccEEE8key_compEv
	.type	_ZNKSt3mapIccSt4lessIcESaISt4pairIKccEEE8key_compEv, @function
_ZNKSt3mapIccSt4lessIcESaISt4pairIKccEEE8key_compEv:
.LFB10873:
	.cfi_startproc
	endbr64
	push	rbp
	.cfi_def_cfa_offset 16
	.cfi_offset 6, -16
	mov	rbp, rsp
	.cfi_def_cfa_register 6
	push	rbx
	sub	rsp, 24
	.cfi_offset 3, -24
	mov	QWORD PTR -24[rbp], rdi
	mov	rax, QWORD PTR -24[rbp]
	mov	rdi, rax
	call	_ZNKSt8_Rb_treeIcSt4pairIKccESt10_Select1stIS2_ESt4lessIcESaIS2_EE8key_compEv
	nop
	mov	eax, ebx
	mov	rbx, QWORD PTR -8[rbp]
	leave
	.cfi_def_cfa 7, 8
	ret
	.cfi_endproc
.LFE10873:
	.size	_ZNKSt3mapIccSt4lessIcESaISt4pairIKccEEE8key_compEv, .-_ZNKSt3mapIccSt4lessIcESaISt4pairIKccEEE8key_compEv
	.section	.text._ZNKSt17_Rb_tree_iteratorISt4pairIKccEEdeEv,"axG",@progbits,_ZNKSt17_Rb_tree_iteratorISt4pairIKccEEdeEv,comdat
	.align 2
	.weak	_ZNKSt17_Rb_tree_iteratorISt4pairIKccEEdeEv
	.type	_ZNKSt17_Rb_tree_iteratorISt4pairIKccEEdeEv, @function
_ZNKSt17_Rb_tree_iteratorISt4pairIKccEEdeEv:
.LFB10874:
	.cfi_startproc
	endbr64
	push	rbp
	.cfi_def_cfa_offset 16
	.cfi_offset 6, -16
	mov	rbp, rsp
	.cfi_def_cfa_register 6
	sub	rsp, 16
	mov	QWORD PTR -8[rbp], rdi
	mov	rax, QWORD PTR -8[rbp]
	mov	rax, QWORD PTR [rax]
	mov	rdi, rax
	call	_ZNSt13_Rb_tree_nodeISt4pairIKccEE9_M_valptrEv
	leave
	.cfi_def_cfa 7, 8
	ret
	.cfi_endproc
.LFE10874:
	.size	_ZNKSt17_Rb_tree_iteratorISt4pairIKccEEdeEv, .-_ZNKSt17_Rb_tree_iteratorISt4pairIKccEEdeEv
	.section	.text._ZNKSt4lessIcEclERKcS2_,"axG",@progbits,_ZNKSt4lessIcEclERKcS2_,comdat
	.align 2
	.weak	_ZNKSt4lessIcEclERKcS2_
	.type	_ZNKSt4lessIcEclERKcS2_, @function
_ZNKSt4lessIcEclERKcS2_:
.LFB10875:
	.cfi_startproc
	endbr64
	push	rbp
	.cfi_def_cfa_offset 16
	.cfi_offset 6, -16
	mov	rbp, rsp
	.cfi_def_cfa_register 6
	mov	QWORD PTR -8[rbp], rdi
	mov	QWORD PTR -16[rbp], rsi
	mov	QWORD PTR -24[rbp], rdx
	mov	rax, QWORD PTR -16[rbp]
	movzx	edx, BYTE PTR [rax]
	mov	rax, QWORD PTR -24[rbp]
	movzx	eax, BYTE PTR [rax]
	cmp	dl, al
	setl	al
	pop	rbp
	.cfi_def_cfa 7, 8
	ret
	.cfi_endproc
.LFE10875:
	.size	_ZNKSt4lessIcEclERKcS2_, .-_ZNKSt4lessIcEclERKcS2_
	.section	.text._ZNSt5tupleIJRKcEEC2ILb1ELb1EEES1_,"axG",@progbits,_ZNSt5tupleIJRKcEEC5ILb1ELb1EEES1_,comdat
	.align 2
	.weak	_ZNSt5tupleIJRKcEEC2ILb1ELb1EEES1_
	.type	_ZNSt5tupleIJRKcEEC2ILb1ELb1EEES1_, @function
_ZNSt5tupleIJRKcEEC2ILb1ELb1EEES1_:
.LFB10877:
	.cfi_startproc
	.cfi_personality 0x9b,DW.ref.__gxx_personality_v0
	.cfi_lsda 0x1b,.LLSDA10877
	endbr64
	push	rbp
	.cfi_def_cfa_offset 16
	.cfi_offset 6, -16
	mov	rbp, rsp
	.cfi_def_cfa_register 6
	sub	rsp, 16
	mov	QWORD PTR -8[rbp], rdi
	mov	QWORD PTR -16[rbp], rsi
	mov	rax, QWORD PTR -8[rbp]
	mov	rdx, QWORD PTR -16[rbp]
	mov	rsi, rdx
	mov	rdi, rax
	call	_ZNSt11_Tuple_implILm0EJRKcEEC2ES1_
	nop
	leave
	.cfi_def_cfa 7, 8
	ret
	.cfi_endproc
.LFE10877:
	.section	.gcc_except_table
.LLSDA10877:
	.byte	0xff
	.byte	0xff
	.byte	0x1
	.uleb128 .LLSDACSE10877-.LLSDACSB10877
.LLSDACSB10877:
.LLSDACSE10877:
	.section	.text._ZNSt5tupleIJRKcEEC2ILb1ELb1EEES1_,"axG",@progbits,_ZNSt5tupleIJRKcEEC5ILb1ELb1EEES1_,comdat
	.size	_ZNSt5tupleIJRKcEEC2ILb1ELb1EEES1_, .-_ZNSt5tupleIJRKcEEC2ILb1ELb1EEES1_
	.weak	_ZNSt5tupleIJRKcEEC1ILb1ELb1EEES1_
	.set	_ZNSt5tupleIJRKcEEC1ILb1ELb1EEES1_,_ZNSt5tupleIJRKcEEC2ILb1ELb1EEES1_
	.section	.text._ZNSt23_Rb_tree_const_iteratorISt4pairIKccEEC2ERKSt17_Rb_tree_iteratorIS2_E,"axG",@progbits,_ZNSt23_Rb_tree_const_iteratorISt4pairIKccEEC5ERKSt17_Rb_tree_iteratorIS2_E,comdat
	.align 2
	.weak	_ZNSt23_Rb_tree_const_iteratorISt4pairIKccEEC2ERKSt17_Rb_tree_iteratorIS2_E
	.type	_ZNSt23_Rb_tree_const_iteratorISt4pairIKccEEC2ERKSt17_Rb_tree_iteratorIS2_E, @function
_ZNSt23_Rb_tree_const_iteratorISt4pairIKccEEC2ERKSt17_Rb_tree_iteratorIS2_E:
.LFB10880:
	.cfi_startproc
	endbr64
	push	rbp
	.cfi_def_cfa_offset 16
	.cfi_offset 6, -16
	mov	rbp, rsp
	.cfi_def_cfa_register 6
	mov	QWORD PTR -8[rbp], rdi
	mov	QWORD PTR -16[rbp], rsi
	mov	rax, QWORD PTR -16[rbp]
	mov	rdx, QWORD PTR [rax]
	mov	rax, QWORD PTR -8[rbp]
	mov	QWORD PTR [rax], rdx
	nop
	pop	rbp
	.cfi_def_cfa 7, 8
	ret
	.cfi_endproc
.LFE10880:
	.size	_ZNSt23_Rb_tree_const_iteratorISt4pairIKccEEC2ERKSt17_Rb_tree_iteratorIS2_E, .-_ZNSt23_Rb_tree_const_iteratorISt4pairIKccEEC2ERKSt17_Rb_tree_iteratorIS2_E
	.weak	_ZNSt23_Rb_tree_const_iteratorISt4pairIKccEEC1ERKSt17_Rb_tree_iteratorIS2_E
	.set	_ZNSt23_Rb_tree_const_iteratorISt4pairIKccEEC1ERKSt17_Rb_tree_iteratorIS2_E,_ZNSt23_Rb_tree_const_iteratorISt4pairIKccEEC2ERKSt17_Rb_tree_iteratorIS2_E
	.section	.text._ZNSt8_Rb_treeIcSt4pairIKccESt10_Select1stIS2_ESt4lessIcESaIS2_EE22_M_emplace_hint_uniqueIJRKSt21piecewise_construct_tSt5tupleIJRS1_EESD_IJEEEEESt17_Rb_tree_iteratorIS2_ESt23_Rb_tree_const_iteratorIS2_EDpOT_,"axG",@progbits,_ZNSt8_Rb_treeIcSt4pairIKccESt10_Select1stIS2_ESt4lessIcESaIS2_EE22_M_emplace_hint_uniqueIJRKSt21piecewise_construct_tSt5tupleIJRS1_EESD_IJEEEEESt17_Rb_tree_iteratorIS2_ESt23_Rb_tree_const_iteratorIS2_EDpOT_,comdat
	.align 2
	.weak	_ZNSt8_Rb_treeIcSt4pairIKccESt10_Select1stIS2_ESt4lessIcESaIS2_EE22_M_emplace_hint_uniqueIJRKSt21piecewise_construct_tSt5tupleIJRS1_EESD_IJEEEEESt17_Rb_tree_iteratorIS2_ESt23_Rb_tree_const_iteratorIS2_EDpOT_
	.type	_ZNSt8_Rb_treeIcSt4pairIKccESt10_Select1stIS2_ESt4lessIcESaIS2_EE22_M_emplace_hint_uniqueIJRKSt21piecewise_construct_tSt5tupleIJRS1_EESD_IJEEEEESt17_Rb_tree_iteratorIS2_ESt23_Rb_tree_const_iteratorIS2_EDpOT_, @function
_ZNSt8_Rb_treeIcSt4pairIKccESt10_Select1stIS2_ESt4lessIcESaIS2_EE22_M_emplace_hint_uniqueIJRKSt21piecewise_construct_tSt5tupleIJRS1_EESD_IJEEEEESt17_Rb_tree_iteratorIS2_ESt23_Rb_tree_const_iteratorIS2_EDpOT_:
.LFB10882:
	.cfi_startproc
	.cfi_personality 0x9b,DW.ref.__gxx_personality_v0
	.cfi_lsda 0x1b,.LLSDA10882
	endbr64
	push	rbp
	.cfi_def_cfa_offset 16
	.cfi_offset 6, -16
	mov	rbp, rsp
	.cfi_def_cfa_register 6
	push	r12
	push	rbx
	sub	rsp, 96
	.cfi_offset 12, -24
	.cfi_offset 3, -32
	mov	QWORD PTR -72[rbp], rdi
	mov	QWORD PTR -80[rbp], rsi
	mov	QWORD PTR -88[rbp], rdx
	mov	QWORD PTR -96[rbp], rcx
	mov	QWORD PTR -104[rbp], r8
	mov	rax, QWORD PTR fs:40
	mov	QWORD PTR -24[rbp], rax
	xor	eax, eax
	mov	rax, QWORD PTR -104[rbp]
	mov	rdi, rax
	call	_ZSt7forwardISt5tupleIJEEEOT_RNSt16remove_referenceIS2_E4typeE
	mov	r12, rax
	mov	rax, QWORD PTR -96[rbp]
	mov	rdi, rax
	call	_ZSt7forwardISt5tupleIJRKcEEEOT_RNSt16remove_referenceIS4_E4typeE
	mov	rbx, rax
	mov	rax, QWORD PTR -88[rbp]
	mov	rdi, rax
	call	_ZSt7forwardIRKSt21piecewise_construct_tEOT_RNSt16remove_referenceIS3_E4typeE
	mov	rsi, rax
	mov	rax, QWORD PTR -72[rbp]
	mov	rcx, r12
	mov	rdx, rbx
	mov	rdi, rax
.LEHB11:
	call	_ZNSt8_Rb_treeIcSt4pairIKccESt10_Select1stIS2_ESt4lessIcESaIS2_EE14_M_create_nodeIJRKSt21piecewise_construct_tSt5tupleIJRS1_EESD_IJEEEEEPSt13_Rb_tree_nodeIS2_EDpOT_
.LEHE11:
	mov	QWORD PTR -56[rbp], rax
	mov	rax, QWORD PTR -56[rbp]
	mov	rdi, rax
.LEHB12:
	call	_ZNSt8_Rb_treeIcSt4pairIKccESt10_Select1stIS2_ESt4lessIcESaIS2_EE6_S_keyEPKSt13_Rb_tree_nodeIS2_E
	mov	rdx, rax
	mov	rcx, QWORD PTR -80[rbp]
	mov	rax, QWORD PTR -72[rbp]
	mov	rsi, rcx
	mov	rdi, rax
	call	_ZNSt8_Rb_treeIcSt4pairIKccESt10_Select1stIS2_ESt4lessIcESaIS2_EE29_M_get_insert_hint_unique_posESt23_Rb_tree_const_iteratorIS2_ERS1_
	mov	QWORD PTR -48[rbp], rax
	mov	QWORD PTR -40[rbp], rdx
	mov	rax, QWORD PTR -40[rbp]
	test	rax, rax
	je	.L104
	mov	rdx, QWORD PTR -40[rbp]
	mov	rsi, QWORD PTR -48[rbp]
	mov	rcx, QWORD PTR -56[rbp]
	mov	rax, QWORD PTR -72[rbp]
	mov	rdi, rax
	call	_ZNSt8_Rb_treeIcSt4pairIKccESt10_Select1stIS2_ESt4lessIcESaIS2_EE14_M_insert_nodeEPSt18_Rb_tree_node_baseSA_PSt13_Rb_tree_nodeIS2_E
.LEHE12:
	jmp	.L106
.L104:
	mov	rdx, QWORD PTR -56[rbp]
	mov	rax, QWORD PTR -72[rbp]
	mov	rsi, rdx
	mov	rdi, rax
	call	_ZNSt8_Rb_treeIcSt4pairIKccESt10_Select1stIS2_ESt4lessIcESaIS2_EE12_M_drop_nodeEPSt13_Rb_tree_nodeIS2_E
	mov	rdx, QWORD PTR -48[rbp]
	lea	rax, -64[rbp]
	mov	rsi, rdx
	mov	rdi, rax
	call	_ZNSt17_Rb_tree_iteratorISt4pairIKccEEC1EPSt18_Rb_tree_node_base
	mov	rax, QWORD PTR -64[rbp]
.L106:
	mov	rdx, QWORD PTR -24[rbp]
	sub	rdx, QWORD PTR fs:40
	je	.L109
	jmp	.L112
.L110:
	endbr64
	mov	rdi, rax
	call	__cxa_begin_catch@PLT
	mov	rdx, QWORD PTR -56[rbp]
	mov	rax, QWORD PTR -72[rbp]
	mov	rsi, rdx
	mov	rdi, rax
	call	_ZNSt8_Rb_treeIcSt4pairIKccESt10_Select1stIS2_ESt4lessIcESaIS2_EE12_M_drop_nodeEPSt13_Rb_tree_nodeIS2_E
.LEHB13:
	call	__cxa_rethrow@PLT
.LEHE13:
.L111:
	endbr64
	mov	rbx, rax
	call	__cxa_end_catch@PLT
	mov	rax, rbx
	mov	rdi, rax
.LEHB14:
	call	_Unwind_Resume@PLT
.LEHE14:
.L112:
	call	__stack_chk_fail@PLT
.L109:
	add	rsp, 96
	pop	rbx
	pop	r12
	pop	rbp
	.cfi_def_cfa 7, 8
	ret
	.cfi_endproc
.LFE10882:
	.section	.gcc_except_table
	.align 4
.LLSDA10882:
	.byte	0xff
	.byte	0x9b
	.uleb128 .LLSDATT10882-.LLSDATTD10882
.LLSDATTD10882:
	.byte	0x1
	.uleb128 .LLSDACSE10882-.LLSDACSB10882
.LLSDACSB10882:
	.uleb128 .LEHB11-.LFB10882
	.uleb128 .LEHE11-.LEHB11
	.uleb128 0
	.uleb128 0
	.uleb128 .LEHB12-.LFB10882
	.uleb128 .LEHE12-.LEHB12
	.uleb128 .L110-.LFB10882
	.uleb128 0x1
	.uleb128 .LEHB13-.LFB10882
	.uleb128 .LEHE13-.LEHB13
	.uleb128 .L111-.LFB10882
	.uleb128 0
	.uleb128 .LEHB14-.LFB10882
	.uleb128 .LEHE14-.LEHB14
	.uleb128 0
	.uleb128 0
.LLSDACSE10882:
	.byte	0x1
	.byte	0
	.align 4
	.long	0

.LLSDATT10882:
	.section	.text._ZNSt8_Rb_treeIcSt4pairIKccESt10_Select1stIS2_ESt4lessIcESaIS2_EE22_M_emplace_hint_uniqueIJRKSt21piecewise_construct_tSt5tupleIJRS1_EESD_IJEEEEESt17_Rb_tree_iteratorIS2_ESt23_Rb_tree_const_iteratorIS2_EDpOT_,"axG",@progbits,_ZNSt8_Rb_treeIcSt4pairIKccESt10_Select1stIS2_ESt4lessIcESaIS2_EE22_M_emplace_hint_uniqueIJRKSt21piecewise_construct_tSt5tupleIJRS1_EESD_IJEEEEESt17_Rb_tree_iteratorIS2_ESt23_Rb_tree_const_iteratorIS2_EDpOT_,comdat
	.size	_ZNSt8_Rb_treeIcSt4pairIKccESt10_Select1stIS2_ESt4lessIcESaIS2_EE22_M_emplace_hint_uniqueIJRKSt21piecewise_construct_tSt5tupleIJRS1_EESD_IJEEEEESt17_Rb_tree_iteratorIS2_ESt23_Rb_tree_const_iteratorIS2_EDpOT_, .-_ZNSt8_Rb_treeIcSt4pairIKccESt10_Select1stIS2_ESt4lessIcESaIS2_EE22_M_emplace_hint_uniqueIJRKSt21piecewise_construct_tSt5tupleIJRS1_EESD_IJEEEEESt17_Rb_tree_iteratorIS2_ESt23_Rb_tree_const_iteratorIS2_EDpOT_
	.section	.text._ZNK9__gnu_cxx17__normal_iteratorIPcNSt7__cxx1112basic_stringIcSt11char_traitsIcESaIcEEEE4baseEv,"axG",@progbits,_ZNK9__gnu_cxx17__normal_iteratorIPcNSt7__cxx1112basic_stringIcSt11char_traitsIcESaIcEEEE4baseEv,comdat
	.align 2
	.weak	_ZNK9__gnu_cxx17__normal_iteratorIPcNSt7__cxx1112basic_stringIcSt11char_traitsIcESaIcEEEE4baseEv
	.type	_ZNK9__gnu_cxx17__normal_iteratorIPcNSt7__cxx1112basic_stringIcSt11char_traitsIcESaIcEEEE4baseEv, @function
_ZNK9__gnu_cxx17__normal_iteratorIPcNSt7__cxx1112basic_stringIcSt11char_traitsIcESaIcEEEE4baseEv:
.LFB10883:
	.cfi_startproc
	endbr64
	push	rbp
	.cfi_def_cfa_offset 16
	.cfi_offset 6, -16
	mov	rbp, rsp
	.cfi_def_cfa_register 6
	mov	QWORD PTR -8[rbp], rdi
	mov	rax, QWORD PTR -8[rbp]
	pop	rbp
	.cfi_def_cfa 7, 8
	ret
	.cfi_endproc
.LFE10883:
	.size	_ZNK9__gnu_cxx17__normal_iteratorIPcNSt7__cxx1112basic_stringIcSt11char_traitsIcESaIcEEEE4baseEv, .-_ZNK9__gnu_cxx17__normal_iteratorIPcNSt7__cxx1112basic_stringIcSt11char_traitsIcESaIcEEEE4baseEv
	.section	.text._ZNSaISt13_Rb_tree_nodeIcEEC2Ev,"axG",@progbits,_ZNSaISt13_Rb_tree_nodeIcEEC5Ev,comdat
	.align 2
	.weak	_ZNSaISt13_Rb_tree_nodeIcEEC2Ev
	.type	_ZNSaISt13_Rb_tree_nodeIcEEC2Ev, @function
_ZNSaISt13_Rb_tree_nodeIcEEC2Ev:
.LFB11082:
	.cfi_startproc
	endbr64
	push	rbp
	.cfi_def_cfa_offset 16
	.cfi_offset 6, -16
	mov	rbp, rsp
	.cfi_def_cfa_register 6
	sub	rsp, 16
	mov	QWORD PTR -8[rbp], rdi
	mov	rax, QWORD PTR -8[rbp]
	mov	rdi, rax
	call	_ZN9__gnu_cxx13new_allocatorISt13_Rb_tree_nodeIcEEC2Ev
	nop
	leave
	.cfi_def_cfa 7, 8
	ret
	.cfi_endproc
.LFE11082:
	.size	_ZNSaISt13_Rb_tree_nodeIcEEC2Ev, .-_ZNSaISt13_Rb_tree_nodeIcEEC2Ev
	.weak	_ZNSaISt13_Rb_tree_nodeIcEEC1Ev
	.set	_ZNSaISt13_Rb_tree_nodeIcEEC1Ev,_ZNSaISt13_Rb_tree_nodeIcEEC2Ev
	.section	.text._ZN9__gnu_cxx13new_allocatorISt13_Rb_tree_nodeIcEED2Ev,"axG",@progbits,_ZN9__gnu_cxx13new_allocatorISt13_Rb_tree_nodeIcEED5Ev,comdat
	.align 2
	.weak	_ZN9__gnu_cxx13new_allocatorISt13_Rb_tree_nodeIcEED2Ev
	.type	_ZN9__gnu_cxx13new_allocatorISt13_Rb_tree_nodeIcEED2Ev, @function
_ZN9__gnu_cxx13new_allocatorISt13_Rb_tree_nodeIcEED2Ev:
.LFB11085:
	.cfi_startproc
	endbr64
	push	rbp
	.cfi_def_cfa_offset 16
	.cfi_offset 6, -16
	mov	rbp, rsp
	.cfi_def_cfa_register 6
	mov	QWORD PTR -8[rbp], rdi
	nop
	pop	rbp
	.cfi_def_cfa 7, 8
	ret
	.cfi_endproc
.LFE11085:
	.size	_ZN9__gnu_cxx13new_allocatorISt13_Rb_tree_nodeIcEED2Ev, .-_ZN9__gnu_cxx13new_allocatorISt13_Rb_tree_nodeIcEED2Ev
	.weak	_ZN9__gnu_cxx13new_allocatorISt13_Rb_tree_nodeIcEED1Ev
	.set	_ZN9__gnu_cxx13new_allocatorISt13_Rb_tree_nodeIcEED1Ev,_ZN9__gnu_cxx13new_allocatorISt13_Rb_tree_nodeIcEED2Ev
	.section	.text._ZNSt8_Rb_treeIccSt9_IdentityIcESt4lessIcESaIcEE11_Alloc_nodeC2ERS5_,"axG",@progbits,_ZNSt8_Rb_treeIccSt9_IdentityIcESt4lessIcESaIcEE11_Alloc_nodeC5ERS5_,comdat
	.align 2
	.weak	_ZNSt8_Rb_treeIccSt9_IdentityIcESt4lessIcESaIcEE11_Alloc_nodeC2ERS5_
	.type	_ZNSt8_Rb_treeIccSt9_IdentityIcESt4lessIcESaIcEE11_Alloc_nodeC2ERS5_, @function
_ZNSt8_Rb_treeIccSt9_IdentityIcESt4lessIcESaIcEE11_Alloc_nodeC2ERS5_:
.LFB11088:
	.cfi_startproc
	endbr64
	push	rbp
	.cfi_def_cfa_offset 16
	.cfi_offset 6, -16
	mov	rbp, rsp
	.cfi_def_cfa_register 6
	mov	QWORD PTR -8[rbp], rdi
	mov	QWORD PTR -16[rbp], rsi
	mov	rax, QWORD PTR -8[rbp]
	mov	rdx, QWORD PTR -16[rbp]
	mov	QWORD PTR [rax], rdx
	nop
	pop	rbp
	.cfi_def_cfa 7, 8
	ret
	.cfi_endproc
.LFE11088:
	.size	_ZNSt8_Rb_treeIccSt9_IdentityIcESt4lessIcESaIcEE11_Alloc_nodeC2ERS5_, .-_ZNSt8_Rb_treeIccSt9_IdentityIcESt4lessIcESaIcEE11_Alloc_nodeC2ERS5_
	.weak	_ZNSt8_Rb_treeIccSt9_IdentityIcESt4lessIcESaIcEE11_Alloc_nodeC1ERS5_
	.set	_ZNSt8_Rb_treeIccSt9_IdentityIcESt4lessIcESaIcEE11_Alloc_nodeC1ERS5_,_ZNSt8_Rb_treeIccSt9_IdentityIcESt4lessIcESaIcEE11_Alloc_nodeC2ERS5_
	.section	.text._ZNSt8_Rb_treeIccSt9_IdentityIcESt4lessIcESaIcEE3endEv,"axG",@progbits,_ZNSt8_Rb_treeIccSt9_IdentityIcESt4lessIcESaIcEE3endEv,comdat
	.align 2
	.weak	_ZNSt8_Rb_treeIccSt9_IdentityIcESt4lessIcESaIcEE3endEv
	.type	_ZNSt8_Rb_treeIccSt9_IdentityIcESt4lessIcESaIcEE3endEv, @function
_ZNSt8_Rb_treeIccSt9_IdentityIcESt4lessIcESaIcEE3endEv:
.LFB11090:
	.cfi_startproc
	endbr64
	push	rbp
	.cfi_def_cfa_offset 16
	.cfi_offset 6, -16
	mov	rbp, rsp
	.cfi_def_cfa_register 6
	sub	rsp, 32
	mov	QWORD PTR -24[rbp], rdi
	mov	rax, QWORD PTR fs:40
	mov	QWORD PTR -8[rbp], rax
	xor	eax, eax
	mov	rax, QWORD PTR -24[rbp]
	lea	rdx, 8[rax]
	lea	rax, -16[rbp]
	mov	rsi, rdx
	mov	rdi, rax
	call	_ZNSt17_Rb_tree_iteratorIcEC1EPSt18_Rb_tree_node_base
	mov	rax, QWORD PTR -16[rbp]
	mov	rdx, QWORD PTR -8[rbp]
	sub	rdx, QWORD PTR fs:40
	je	.L120
	call	__stack_chk_fail@PLT
.L120:
	leave
	.cfi_def_cfa 7, 8
	ret
	.cfi_endproc
.LFE11090:
	.size	_ZNSt8_Rb_treeIccSt9_IdentityIcESt4lessIcESaIcEE3endEv, .-_ZNSt8_Rb_treeIccSt9_IdentityIcESt4lessIcESaIcEE3endEv
	.section	.text._ZNSt23_Rb_tree_const_iteratorIcEC2ERKSt17_Rb_tree_iteratorIcE,"axG",@progbits,_ZNSt23_Rb_tree_const_iteratorIcEC5ERKSt17_Rb_tree_iteratorIcE,comdat
	.align 2
	.weak	_ZNSt23_Rb_tree_const_iteratorIcEC2ERKSt17_Rb_tree_iteratorIcE
	.type	_ZNSt23_Rb_tree_const_iteratorIcEC2ERKSt17_Rb_tree_iteratorIcE, @function
_ZNSt23_Rb_tree_const_iteratorIcEC2ERKSt17_Rb_tree_iteratorIcE:
.LFB11092:
	.cfi_startproc
	endbr64
	push	rbp
	.cfi_def_cfa_offset 16
	.cfi_offset 6, -16
	mov	rbp, rsp
	.cfi_def_cfa_register 6
	mov	QWORD PTR -8[rbp], rdi
	mov	QWORD PTR -16[rbp], rsi
	mov	rax, QWORD PTR -16[rbp]
	mov	rdx, QWORD PTR [rax]
	mov	rax, QWORD PTR -8[rbp]
	mov	QWORD PTR [rax], rdx
	nop
	pop	rbp
	.cfi_def_cfa 7, 8
	ret
	.cfi_endproc
.LFE11092:
	.size	_ZNSt23_Rb_tree_const_iteratorIcEC2ERKSt17_Rb_tree_iteratorIcE, .-_ZNSt23_Rb_tree_const_iteratorIcEC2ERKSt17_Rb_tree_iteratorIcE
	.weak	_ZNSt23_Rb_tree_const_iteratorIcEC1ERKSt17_Rb_tree_iteratorIcE
	.set	_ZNSt23_Rb_tree_const_iteratorIcEC1ERKSt17_Rb_tree_iteratorIcE,_ZNSt23_Rb_tree_const_iteratorIcEC2ERKSt17_Rb_tree_iteratorIcE
	.section	.text._ZNSt8_Rb_treeIccSt9_IdentityIcESt4lessIcESaIcEE17_M_insert_unique_IRcNS5_11_Alloc_nodeEEESt17_Rb_tree_iteratorIcESt23_Rb_tree_const_iteratorIcEOT_RT0_,"axG",@progbits,_ZNSt8_Rb_treeIccSt9_IdentityIcESt4lessIcESaIcEE17_M_insert_unique_IRcNS5_11_Alloc_nodeEEESt17_Rb_tree_iteratorIcESt23_Rb_tree_const_iteratorIcEOT_RT0_,comdat
	.align 2
	.weak	_ZNSt8_Rb_treeIccSt9_IdentityIcESt4lessIcESaIcEE17_M_insert_unique_IRcNS5_11_Alloc_nodeEEESt17_Rb_tree_iteratorIcESt23_Rb_tree_const_iteratorIcEOT_RT0_
	.type	_ZNSt8_Rb_treeIccSt9_IdentityIcESt4lessIcESaIcEE17_M_insert_unique_IRcNS5_11_Alloc_nodeEEESt17_Rb_tree_iteratorIcESt23_Rb_tree_const_iteratorIcEOT_RT0_, @function
_ZNSt8_Rb_treeIccSt9_IdentityIcESt4lessIcESaIcEE17_M_insert_unique_IRcNS5_11_Alloc_nodeEEESt17_Rb_tree_iteratorIcESt23_Rb_tree_const_iteratorIcEOT_RT0_:
.LFB11094:
	.cfi_startproc
	endbr64
	push	rbp
	.cfi_def_cfa_offset 16
	.cfi_offset 6, -16
	mov	rbp, rsp
	.cfi_def_cfa_register 6
	sub	rsp, 80
	mov	QWORD PTR -56[rbp], rdi
	mov	QWORD PTR -64[rbp], rsi
	mov	QWORD PTR -72[rbp], rdx
	mov	QWORD PTR -80[rbp], rcx
	mov	rax, QWORD PTR fs:40
	mov	QWORD PTR -8[rbp], rax
	xor	eax, eax
	mov	rdx, QWORD PTR -72[rbp]
	lea	rax, -40[rbp]
	mov	rsi, rdx
	mov	rdi, rax
	call	_ZNKSt9_IdentityIcEclERc
	mov	rdx, rax
	mov	rcx, QWORD PTR -64[rbp]
	mov	rax, QWORD PTR -56[rbp]
	mov	rsi, rcx
	mov	rdi, rax
	call	_ZNSt8_Rb_treeIccSt9_IdentityIcESt4lessIcESaIcEE29_M_get_insert_hint_unique_posESt23_Rb_tree_const_iteratorIcERKc
	mov	QWORD PTR -32[rbp], rax
	mov	QWORD PTR -24[rbp], rdx
	mov	rax, QWORD PTR -24[rbp]
	test	rax, rax
	je	.L123
	mov	rax, QWORD PTR -72[rbp]
	mov	rdi, rax
	call	_ZSt7forwardIRcEOT_RNSt16remove_referenceIS1_E4typeE
	mov	rcx, rax
	mov	rdx, QWORD PTR -24[rbp]
	mov	rsi, QWORD PTR -32[rbp]
	mov	rdi, QWORD PTR -80[rbp]
	mov	rax, QWORD PTR -56[rbp]
	mov	r8, rdi
	mov	rdi, rax
	call	_ZNSt8_Rb_treeIccSt9_IdentityIcESt4lessIcESaIcEE10_M_insert_IRcNS5_11_Alloc_nodeEEESt17_Rb_tree_iteratorIcEPSt18_Rb_tree_node_baseSC_OT_RT0_
	jmp	.L125
.L123:
	mov	rdx, QWORD PTR -32[rbp]
	lea	rax, -40[rbp]
	mov	rsi, rdx
	mov	rdi, rax
	call	_ZNSt17_Rb_tree_iteratorIcEC1EPSt18_Rb_tree_node_base
	mov	rax, QWORD PTR -40[rbp]
.L125:
	mov	rdx, QWORD PTR -8[rbp]
	sub	rdx, QWORD PTR fs:40
	je	.L126
	call	__stack_chk_fail@PLT
.L126:
	leave
	.cfi_def_cfa 7, 8
	ret
	.cfi_endproc
.LFE11094:
	.size	_ZNSt8_Rb_treeIccSt9_IdentityIcESt4lessIcESaIcEE17_M_insert_unique_IRcNS5_11_Alloc_nodeEEESt17_Rb_tree_iteratorIcESt23_Rb_tree_const_iteratorIcEOT_RT0_, .-_ZNSt8_Rb_treeIccSt9_IdentityIcESt4lessIcESaIcEE17_M_insert_unique_IRcNS5_11_Alloc_nodeEEESt17_Rb_tree_iteratorIcESt23_Rb_tree_const_iteratorIcEOT_RT0_
	.section	.text._ZNSt8_Rb_treeIccSt9_IdentityIcESt4lessIcESaIcEE8_S_rightEPSt18_Rb_tree_node_base,"axG",@progbits,_ZNSt8_Rb_treeIccSt9_IdentityIcESt4lessIcESaIcEE8_S_rightEPSt18_Rb_tree_node_base,comdat
	.weak	_ZNSt8_Rb_treeIccSt9_IdentityIcESt4lessIcESaIcEE8_S_rightEPSt18_Rb_tree_node_base
	.type	_ZNSt8_Rb_treeIccSt9_IdentityIcESt4lessIcESaIcEE8_S_rightEPSt18_Rb_tree_node_base, @function
_ZNSt8_Rb_treeIccSt9_IdentityIcESt4lessIcESaIcEE8_S_rightEPSt18_Rb_tree_node_base:
.LFB11095:
	.cfi_startproc
	endbr64
	push	rbp
	.cfi_def_cfa_offset 16
	.cfi_offset 6, -16
	mov	rbp, rsp
	.cfi_def_cfa_register 6
	mov	QWORD PTR -8[rbp], rdi
	mov	rax, QWORD PTR -8[rbp]
	mov	rax, QWORD PTR 24[rax]
	pop	rbp
	.cfi_def_cfa 7, 8
	ret
	.cfi_endproc
.LFE11095:
	.size	_ZNSt8_Rb_treeIccSt9_IdentityIcESt4lessIcESaIcEE8_S_rightEPSt18_Rb_tree_node_base, .-_ZNSt8_Rb_treeIccSt9_IdentityIcESt4lessIcESaIcEE8_S_rightEPSt18_Rb_tree_node_base
	.section	.text._ZNSt8_Rb_treeIccSt9_IdentityIcESt4lessIcESaIcEE7_S_leftEPSt18_Rb_tree_node_base,"axG",@progbits,_ZNSt8_Rb_treeIccSt9_IdentityIcESt4lessIcESaIcEE7_S_leftEPSt18_Rb_tree_node_base,comdat
	.weak	_ZNSt8_Rb_treeIccSt9_IdentityIcESt4lessIcESaIcEE7_S_leftEPSt18_Rb_tree_node_base
	.type	_ZNSt8_Rb_treeIccSt9_IdentityIcESt4lessIcESaIcEE7_S_leftEPSt18_Rb_tree_node_base, @function
_ZNSt8_Rb_treeIccSt9_IdentityIcESt4lessIcESaIcEE7_S_leftEPSt18_Rb_tree_node_base:
.LFB11096:
	.cfi_startproc
	endbr64
	push	rbp
	.cfi_def_cfa_offset 16
	.cfi_offset 6, -16
	mov	rbp, rsp
	.cfi_def_cfa_register 6
	mov	QWORD PTR -8[rbp], rdi
	mov	rax, QWORD PTR -8[rbp]
	mov	rax, QWORD PTR 16[rax]
	pop	rbp
	.cfi_def_cfa 7, 8
	ret
	.cfi_endproc
.LFE11096:
	.size	_ZNSt8_Rb_treeIccSt9_IdentityIcESt4lessIcESaIcEE7_S_leftEPSt18_Rb_tree_node_base, .-_ZNSt8_Rb_treeIccSt9_IdentityIcESt4lessIcESaIcEE7_S_leftEPSt18_Rb_tree_node_base
	.section	.text._ZNSt8_Rb_treeIccSt9_IdentityIcESt4lessIcESaIcEE12_M_drop_nodeEPSt13_Rb_tree_nodeIcE,"axG",@progbits,_ZNSt8_Rb_treeIccSt9_IdentityIcESt4lessIcESaIcEE12_M_drop_nodeEPSt13_Rb_tree_nodeIcE,comdat
	.align 2
	.weak	_ZNSt8_Rb_treeIccSt9_IdentityIcESt4lessIcESaIcEE12_M_drop_nodeEPSt13_Rb_tree_nodeIcE
	.type	_ZNSt8_Rb_treeIccSt9_IdentityIcESt4lessIcESaIcEE12_M_drop_nodeEPSt13_Rb_tree_nodeIcE, @function
_ZNSt8_Rb_treeIccSt9_IdentityIcESt4lessIcESaIcEE12_M_drop_nodeEPSt13_Rb_tree_nodeIcE:
.LFB11097:
	.cfi_startproc
	endbr64
	push	rbp
	.cfi_def_cfa_offset 16
	.cfi_offset 6, -16
	mov	rbp, rsp
	.cfi_def_cfa_register 6
	sub	rsp, 16
	mov	QWORD PTR -8[rbp], rdi
	mov	QWORD PTR -16[rbp], rsi
	mov	rdx, QWORD PTR -16[rbp]
	mov	rax, QWORD PTR -8[rbp]
	mov	rsi, rdx
	mov	rdi, rax
	call	_ZNSt8_Rb_treeIccSt9_IdentityIcESt4lessIcESaIcEE15_M_destroy_nodeEPSt13_Rb_tree_nodeIcE
	mov	rdx, QWORD PTR -16[rbp]
	mov	rax, QWORD PTR -8[rbp]
	mov	rsi, rdx
	mov	rdi, rax
	call	_ZNSt8_Rb_treeIccSt9_IdentityIcESt4lessIcESaIcEE11_M_put_nodeEPSt13_Rb_tree_nodeIcE
	nop
	leave
	.cfi_def_cfa 7, 8
	ret
	.cfi_endproc
.LFE11097:
	.size	_ZNSt8_Rb_treeIccSt9_IdentityIcESt4lessIcESaIcEE12_M_drop_nodeEPSt13_Rb_tree_nodeIcE, .-_ZNSt8_Rb_treeIccSt9_IdentityIcESt4lessIcESaIcEE12_M_drop_nodeEPSt13_Rb_tree_nodeIcE
	.section	.text._ZNKSt8_Rb_treeIccSt9_IdentityIcESt4lessIcESaIcEE9_M_mbeginEv,"axG",@progbits,_ZNKSt8_Rb_treeIccSt9_IdentityIcESt4lessIcESaIcEE9_M_mbeginEv,comdat
	.align 2
	.weak	_ZNKSt8_Rb_treeIccSt9_IdentityIcESt4lessIcESaIcEE9_M_mbeginEv
	.type	_ZNKSt8_Rb_treeIccSt9_IdentityIcESt4lessIcESaIcEE9_M_mbeginEv, @function
_ZNKSt8_Rb_treeIccSt9_IdentityIcESt4lessIcESaIcEE9_M_mbeginEv:
.LFB11098:
	.cfi_startproc
	endbr64
	push	rbp
	.cfi_def_cfa_offset 16
	.cfi_offset 6, -16
	mov	rbp, rsp
	.cfi_def_cfa_register 6
	mov	QWORD PTR -8[rbp], rdi
	mov	rax, QWORD PTR -8[rbp]
	mov	rax, QWORD PTR 16[rax]
	pop	rbp
	.cfi_def_cfa 7, 8
	ret
	.cfi_endproc
.LFE11098:
	.size	_ZNKSt8_Rb_treeIccSt9_IdentityIcESt4lessIcESaIcEE9_M_mbeginEv, .-_ZNKSt8_Rb_treeIccSt9_IdentityIcESt4lessIcESaIcEE9_M_mbeginEv
	.section	.text._ZNSt23_Rb_tree_const_iteratorIcEC2EPKSt18_Rb_tree_node_base,"axG",@progbits,_ZNSt23_Rb_tree_const_iteratorIcEC5EPKSt18_Rb_tree_node_base,comdat
	.align 2
	.weak	_ZNSt23_Rb_tree_const_iteratorIcEC2EPKSt18_Rb_tree_node_base
	.type	_ZNSt23_Rb_tree_const_iteratorIcEC2EPKSt18_Rb_tree_node_base, @function
_ZNSt23_Rb_tree_const_iteratorIcEC2EPKSt18_Rb_tree_node_base:
.LFB11100:
	.cfi_startproc
	endbr64
	push	rbp
	.cfi_def_cfa_offset 16
	.cfi_offset 6, -16
	mov	rbp, rsp
	.cfi_def_cfa_register 6
	mov	QWORD PTR -8[rbp], rdi
	mov	QWORD PTR -16[rbp], rsi
	mov	rax, QWORD PTR -8[rbp]
	mov	rdx, QWORD PTR -16[rbp]
	mov	QWORD PTR [rax], rdx
	nop
	pop	rbp
	.cfi_def_cfa 7, 8
	ret
	.cfi_endproc
.LFE11100:
	.size	_ZNSt23_Rb_tree_const_iteratorIcEC2EPKSt18_Rb_tree_node_base, .-_ZNSt23_Rb_tree_const_iteratorIcEC2EPKSt18_Rb_tree_node_base
	.weak	_ZNSt23_Rb_tree_const_iteratorIcEC1EPKSt18_Rb_tree_node_base
	.set	_ZNSt23_Rb_tree_const_iteratorIcEC1EPKSt18_Rb_tree_node_base,_ZNSt23_Rb_tree_const_iteratorIcEC2EPKSt18_Rb_tree_node_base
	.section	.text._ZNSt7__cxx1112basic_stringIcSt11char_traitsIcESaIcEE16_M_construct_auxISt23_Rb_tree_const_iteratorIcEEEvT_S8_St12__false_type,"axG",@progbits,_ZNSt7__cxx1112basic_stringIcSt11char_traitsIcESaIcEE16_M_construct_auxISt23_Rb_tree_const_iteratorIcEEEvT_S8_St12__false_type,comdat
	.align 2
	.weak	_ZNSt7__cxx1112basic_stringIcSt11char_traitsIcESaIcEE16_M_construct_auxISt23_Rb_tree_const_iteratorIcEEEvT_S8_St12__false_type
	.type	_ZNSt7__cxx1112basic_stringIcSt11char_traitsIcESaIcEE16_M_construct_auxISt23_Rb_tree_const_iteratorIcEEEvT_S8_St12__false_type, @function
_ZNSt7__cxx1112basic_stringIcSt11char_traitsIcESaIcEE16_M_construct_auxISt23_Rb_tree_const_iteratorIcEEEvT_S8_St12__false_type:
.LFB11102:
	.cfi_startproc
	endbr64
	push	rbp
	.cfi_def_cfa_offset 16
	.cfi_offset 6, -16
	mov	rbp, rsp
	.cfi_def_cfa_register 6
	sub	rsp, 48
	mov	QWORD PTR -24[rbp], rdi
	mov	QWORD PTR -32[rbp], rsi
	mov	QWORD PTR -40[rbp], rdx
	mov	rax, QWORD PTR fs:40
	mov	QWORD PTR -8[rbp], rax
	xor	eax, eax
	mov	rdx, QWORD PTR -40[rbp]
	mov	rcx, QWORD PTR -32[rbp]
	mov	rax, QWORD PTR -24[rbp]
	mov	rsi, rcx
	mov	rdi, rax
	call	_ZNSt7__cxx1112basic_stringIcSt11char_traitsIcESaIcEE12_M_constructISt23_Rb_tree_const_iteratorIcEEEvT_S8_St20forward_iterator_tag
	nop
	mov	rax, QWORD PTR -8[rbp]
	sub	rax, QWORD PTR fs:40
	je	.L136
	call	__stack_chk_fail@PLT
.L136:
	leave
	.cfi_def_cfa 7, 8
	ret
	.cfi_endproc
.LFE11102:
	.size	_ZNSt7__cxx1112basic_stringIcSt11char_traitsIcESaIcEE16_M_construct_auxISt23_Rb_tree_const_iteratorIcEEEvT_S8_St12__false_type, .-_ZNSt7__cxx1112basic_stringIcSt11char_traitsIcESaIcEE16_M_construct_auxISt23_Rb_tree_const_iteratorIcEEEvT_S8_St12__false_type
	.section	.text._ZN9__gnu_cxx13new_allocatorISt13_Rb_tree_nodeISt4pairIKccEEEC2Ev,"axG",@progbits,_ZN9__gnu_cxx13new_allocatorISt13_Rb_tree_nodeISt4pairIKccEEEC5Ev,comdat
	.align 2
	.weak	_ZN9__gnu_cxx13new_allocatorISt13_Rb_tree_nodeISt4pairIKccEEEC2Ev
	.type	_ZN9__gnu_cxx13new_allocatorISt13_Rb_tree_nodeISt4pairIKccEEEC2Ev, @function
_ZN9__gnu_cxx13new_allocatorISt13_Rb_tree_nodeISt4pairIKccEEEC2Ev:
.LFB11104:
	.cfi_startproc
	endbr64
	push	rbp
	.cfi_def_cfa_offset 16
	.cfi_offset 6, -16
	mov	rbp, rsp
	.cfi_def_cfa_register 6
	mov	QWORD PTR -8[rbp], rdi
	nop
	pop	rbp
	.cfi_def_cfa 7, 8
	ret
	.cfi_endproc
.LFE11104:
	.size	_ZN9__gnu_cxx13new_allocatorISt13_Rb_tree_nodeISt4pairIKccEEEC2Ev, .-_ZN9__gnu_cxx13new_allocatorISt13_Rb_tree_nodeISt4pairIKccEEEC2Ev
	.weak	_ZN9__gnu_cxx13new_allocatorISt13_Rb_tree_nodeISt4pairIKccEEEC1Ev
	.set	_ZN9__gnu_cxx13new_allocatorISt13_Rb_tree_nodeISt4pairIKccEEEC1Ev,_ZN9__gnu_cxx13new_allocatorISt13_Rb_tree_nodeISt4pairIKccEEEC2Ev
	.section	.text._ZNSt8_Rb_treeIcSt4pairIKccESt10_Select1stIS2_ESt4lessIcESaIS2_EE8_S_rightEPSt18_Rb_tree_node_base,"axG",@progbits,_ZNSt8_Rb_treeIcSt4pairIKccESt10_Select1stIS2_ESt4lessIcESaIS2_EE8_S_rightEPSt18_Rb_tree_node_base,comdat
	.weak	_ZNSt8_Rb_treeIcSt4pairIKccESt10_Select1stIS2_ESt4lessIcESaIS2_EE8_S_rightEPSt18_Rb_tree_node_base
	.type	_ZNSt8_Rb_treeIcSt4pairIKccESt10_Select1stIS2_ESt4lessIcESaIS2_EE8_S_rightEPSt18_Rb_tree_node_base, @function
_ZNSt8_Rb_treeIcSt4pairIKccESt10_Select1stIS2_ESt4lessIcESaIS2_EE8_S_rightEPSt18_Rb_tree_node_base:
.LFB11106:
	.cfi_startproc
	endbr64
	push	rbp
	.cfi_def_cfa_offset 16
	.cfi_offset 6, -16
	mov	rbp, rsp
	.cfi_def_cfa_register 6
	mov	QWORD PTR -8[rbp], rdi
	mov	rax, QWORD PTR -8[rbp]
	mov	rax, QWORD PTR 24[rax]
	pop	rbp
	.cfi_def_cfa 7, 8
	ret
	.cfi_endproc
.LFE11106:
	.size	_ZNSt8_Rb_treeIcSt4pairIKccESt10_Select1stIS2_ESt4lessIcESaIS2_EE8_S_rightEPSt18_Rb_tree_node_base, .-_ZNSt8_Rb_treeIcSt4pairIKccESt10_Select1stIS2_ESt4lessIcESaIS2_EE8_S_rightEPSt18_Rb_tree_node_base
	.section	.text._ZNSt8_Rb_treeIcSt4pairIKccESt10_Select1stIS2_ESt4lessIcESaIS2_EE7_S_leftEPSt18_Rb_tree_node_base,"axG",@progbits,_ZNSt8_Rb_treeIcSt4pairIKccESt10_Select1stIS2_ESt4lessIcESaIS2_EE7_S_leftEPSt18_Rb_tree_node_base,comdat
	.weak	_ZNSt8_Rb_treeIcSt4pairIKccESt10_Select1stIS2_ESt4lessIcESaIS2_EE7_S_leftEPSt18_Rb_tree_node_base
	.type	_ZNSt8_Rb_treeIcSt4pairIKccESt10_Select1stIS2_ESt4lessIcESaIS2_EE7_S_leftEPSt18_Rb_tree_node_base, @function
_ZNSt8_Rb_treeIcSt4pairIKccESt10_Select1stIS2_ESt4lessIcESaIS2_EE7_S_leftEPSt18_Rb_tree_node_base:
.LFB11107:
	.cfi_startproc
	endbr64
	push	rbp
	.cfi_def_cfa_offset 16
	.cfi_offset 6, -16
	mov	rbp, rsp
	.cfi_def_cfa_register 6
	mov	QWORD PTR -8[rbp], rdi
	mov	rax, QWORD PTR -8[rbp]
	mov	rax, QWORD PTR 16[rax]
	pop	rbp
	.cfi_def_cfa 7, 8
	ret
	.cfi_endproc
.LFE11107:
	.size	_ZNSt8_Rb_treeIcSt4pairIKccESt10_Select1stIS2_ESt4lessIcESaIS2_EE7_S_leftEPSt18_Rb_tree_node_base, .-_ZNSt8_Rb_treeIcSt4pairIKccESt10_Select1stIS2_ESt4lessIcESaIS2_EE7_S_leftEPSt18_Rb_tree_node_base
	.section	.text._ZNSt8_Rb_treeIcSt4pairIKccESt10_Select1stIS2_ESt4lessIcESaIS2_EE12_M_drop_nodeEPSt13_Rb_tree_nodeIS2_E,"axG",@progbits,_ZNSt8_Rb_treeIcSt4pairIKccESt10_Select1stIS2_ESt4lessIcESaIS2_EE12_M_drop_nodeEPSt13_Rb_tree_nodeIS2_E,comdat
	.align 2
	.weak	_ZNSt8_Rb_treeIcSt4pairIKccESt10_Select1stIS2_ESt4lessIcESaIS2_EE12_M_drop_nodeEPSt13_Rb_tree_nodeIS2_E
	.type	_ZNSt8_Rb_treeIcSt4pairIKccESt10_Select1stIS2_ESt4lessIcESaIS2_EE12_M_drop_nodeEPSt13_Rb_tree_nodeIS2_E, @function
_ZNSt8_Rb_treeIcSt4pairIKccESt10_Select1stIS2_ESt4lessIcESaIS2_EE12_M_drop_nodeEPSt13_Rb_tree_nodeIS2_E:
.LFB11108:
	.cfi_startproc
	endbr64
	push	rbp
	.cfi_def_cfa_offset 16
	.cfi_offset 6, -16
	mov	rbp, rsp
	.cfi_def_cfa_register 6
	sub	rsp, 16
	mov	QWORD PTR -8[rbp], rdi
	mov	QWORD PTR -16[rbp], rsi
	mov	rdx, QWORD PTR -16[rbp]
	mov	rax, QWORD PTR -8[rbp]
	mov	rsi, rdx
	mov	rdi, rax
	call	_ZNSt8_Rb_treeIcSt4pairIKccESt10_Select1stIS2_ESt4lessIcESaIS2_EE15_M_destroy_nodeEPSt13_Rb_tree_nodeIS2_E
	mov	rdx, QWORD PTR -16[rbp]
	mov	rax, QWORD PTR -8[rbp]
	mov	rsi, rdx
	mov	rdi, rax
	call	_ZNSt8_Rb_treeIcSt4pairIKccESt10_Select1stIS2_ESt4lessIcESaIS2_EE11_M_put_nodeEPSt13_Rb_tree_nodeIS2_E
	nop
	leave
	.cfi_def_cfa 7, 8
	ret
	.cfi_endproc
.LFE11108:
	.size	_ZNSt8_Rb_treeIcSt4pairIKccESt10_Select1stIS2_ESt4lessIcESaIS2_EE12_M_drop_nodeEPSt13_Rb_tree_nodeIS2_E, .-_ZNSt8_Rb_treeIcSt4pairIKccESt10_Select1stIS2_ESt4lessIcESaIS2_EE12_M_drop_nodeEPSt13_Rb_tree_nodeIS2_E
	.section	.text._ZNKSt8_Rb_treeIcSt4pairIKccESt10_Select1stIS2_ESt4lessIcESaIS2_EE9_M_mbeginEv,"axG",@progbits,_ZNKSt8_Rb_treeIcSt4pairIKccESt10_Select1stIS2_ESt4lessIcESaIS2_EE9_M_mbeginEv,comdat
	.align 2
	.weak	_ZNKSt8_Rb_treeIcSt4pairIKccESt10_Select1stIS2_ESt4lessIcESaIS2_EE9_M_mbeginEv
	.type	_ZNKSt8_Rb_treeIcSt4pairIKccESt10_Select1stIS2_ESt4lessIcESaIS2_EE9_M_mbeginEv, @function
_ZNKSt8_Rb_treeIcSt4pairIKccESt10_Select1stIS2_ESt4lessIcESaIS2_EE9_M_mbeginEv:
.LFB11109:
	.cfi_startproc
	endbr64
	push	rbp
	.cfi_def_cfa_offset 16
	.cfi_offset 6, -16
	mov	rbp, rsp
	.cfi_def_cfa_register 6
	mov	QWORD PTR -8[rbp], rdi
	mov	rax, QWORD PTR -8[rbp]
	mov	rax, QWORD PTR 16[rax]
	pop	rbp
	.cfi_def_cfa 7, 8
	ret
	.cfi_endproc
.LFE11109:
	.size	_ZNKSt8_Rb_treeIcSt4pairIKccESt10_Select1stIS2_ESt4lessIcESaIS2_EE9_M_mbeginEv, .-_ZNKSt8_Rb_treeIcSt4pairIKccESt10_Select1stIS2_ESt4lessIcESaIS2_EE9_M_mbeginEv
	.section	.text._ZNSt8_Rb_treeIcSt4pairIKccESt10_Select1stIS2_ESt4lessIcESaIS2_EE11lower_boundERS1_,"axG",@progbits,_ZNSt8_Rb_treeIcSt4pairIKccESt10_Select1stIS2_ESt4lessIcESaIS2_EE11lower_boundERS1_,comdat
	.align 2
	.weak	_ZNSt8_Rb_treeIcSt4pairIKccESt10_Select1stIS2_ESt4lessIcESaIS2_EE11lower_boundERS1_
	.type	_ZNSt8_Rb_treeIcSt4pairIKccESt10_Select1stIS2_ESt4lessIcESaIS2_EE11lower_boundERS1_, @function
_ZNSt8_Rb_treeIcSt4pairIKccESt10_Select1stIS2_ESt4lessIcESaIS2_EE11lower_boundERS1_:
.LFB11110:
	.cfi_startproc
	endbr64
	push	rbp
	.cfi_def_cfa_offset 16
	.cfi_offset 6, -16
	mov	rbp, rsp
	.cfi_def_cfa_register 6
	push	rbx
	sub	rsp, 24
	.cfi_offset 3, -24
	mov	QWORD PTR -24[rbp], rdi
	mov	QWORD PTR -32[rbp], rsi
	mov	rax, QWORD PTR -24[rbp]
	mov	rdi, rax
	call	_ZNSt8_Rb_treeIcSt4pairIKccESt10_Select1stIS2_ESt4lessIcESaIS2_EE6_M_endEv
	mov	rbx, rax
	mov	rax, QWORD PTR -24[rbp]
	mov	rdi, rax
	call	_ZNSt8_Rb_treeIcSt4pairIKccESt10_Select1stIS2_ESt4lessIcESaIS2_EE8_M_beginEv
	mov	rsi, rax
	mov	rdx, QWORD PTR -32[rbp]
	mov	rax, QWORD PTR -24[rbp]
	mov	rcx, rdx
	mov	rdx, rbx
	mov	rdi, rax
	call	_ZNSt8_Rb_treeIcSt4pairIKccESt10_Select1stIS2_ESt4lessIcESaIS2_EE14_M_lower_boundEPSt13_Rb_tree_nodeIS2_EPSt18_Rb_tree_node_baseRS1_
	mov	rbx, QWORD PTR -8[rbp]
	leave
	.cfi_def_cfa 7, 8
	ret
	.cfi_endproc
.LFE11110:
	.size	_ZNSt8_Rb_treeIcSt4pairIKccESt10_Select1stIS2_ESt4lessIcESaIS2_EE11lower_boundERS1_, .-_ZNSt8_Rb_treeIcSt4pairIKccESt10_Select1stIS2_ESt4lessIcESaIS2_EE11lower_boundERS1_
	.section	.text._ZNSt8_Rb_treeIcSt4pairIKccESt10_Select1stIS2_ESt4lessIcESaIS2_EE3endEv,"axG",@progbits,_ZNSt8_Rb_treeIcSt4pairIKccESt10_Select1stIS2_ESt4lessIcESaIS2_EE3endEv,comdat
	.align 2
	.weak	_ZNSt8_Rb_treeIcSt4pairIKccESt10_Select1stIS2_ESt4lessIcESaIS2_EE3endEv
	.type	_ZNSt8_Rb_treeIcSt4pairIKccESt10_Select1stIS2_ESt4lessIcESaIS2_EE3endEv, @function
_ZNSt8_Rb_treeIcSt4pairIKccESt10_Select1stIS2_ESt4lessIcESaIS2_EE3endEv:
.LFB11111:
	.cfi_startproc
	endbr64
	push	rbp
	.cfi_def_cfa_offset 16
	.cfi_offset 6, -16
	mov	rbp, rsp
	.cfi_def_cfa_register 6
	sub	rsp, 32
	mov	QWORD PTR -24[rbp], rdi
	mov	rax, QWORD PTR fs:40
	mov	QWORD PTR -8[rbp], rax
	xor	eax, eax
	mov	rax, QWORD PTR -24[rbp]
	lea	rdx, 8[rax]
	lea	rax, -16[rbp]
	mov	rsi, rdx
	mov	rdi, rax
	call	_ZNSt17_Rb_tree_iteratorISt4pairIKccEEC1EPSt18_Rb_tree_node_base
	mov	rax, QWORD PTR -16[rbp]
	mov	rdx, QWORD PTR -8[rbp]
	sub	rdx, QWORD PTR fs:40
	je	.L149
	call	__stack_chk_fail@PLT
.L149:
	leave
	.cfi_def_cfa 7, 8
	ret
	.cfi_endproc
.LFE11111:
	.size	_ZNSt8_Rb_treeIcSt4pairIKccESt10_Select1stIS2_ESt4lessIcESaIS2_EE3endEv, .-_ZNSt8_Rb_treeIcSt4pairIKccESt10_Select1stIS2_ESt4lessIcESaIS2_EE3endEv
	.section	.text._ZNKSt8_Rb_treeIcSt4pairIKccESt10_Select1stIS2_ESt4lessIcESaIS2_EE8key_compEv,"axG",@progbits,_ZNKSt8_Rb_treeIcSt4pairIKccESt10_Select1stIS2_ESt4lessIcESaIS2_EE8key_compEv,comdat
	.align 2
	.weak	_ZNKSt8_Rb_treeIcSt4pairIKccESt10_Select1stIS2_ESt4lessIcESaIS2_EE8key_compEv
	.type	_ZNKSt8_Rb_treeIcSt4pairIKccESt10_Select1stIS2_ESt4lessIcESaIS2_EE8key_compEv, @function
_ZNKSt8_Rb_treeIcSt4pairIKccESt10_Select1stIS2_ESt4lessIcESaIS2_EE8key_compEv:
.LFB11112:
	.cfi_startproc
	endbr64
	push	rbp
	.cfi_def_cfa_offset 16
	.cfi_offset 6, -16
	mov	rbp, rsp
	.cfi_def_cfa_register 6
	mov	QWORD PTR -8[rbp], rdi
	nop
	pop	rbp
	.cfi_def_cfa 7, 8
	ret
	.cfi_endproc
.LFE11112:
	.size	_ZNKSt8_Rb_treeIcSt4pairIKccESt10_Select1stIS2_ESt4lessIcESaIS2_EE8key_compEv, .-_ZNKSt8_Rb_treeIcSt4pairIKccESt10_Select1stIS2_ESt4lessIcESaIS2_EE8key_compEv
	.section	.text._ZNSt13_Rb_tree_nodeISt4pairIKccEE9_M_valptrEv,"axG",@progbits,_ZNSt13_Rb_tree_nodeISt4pairIKccEE9_M_valptrEv,comdat
	.align 2
	.weak	_ZNSt13_Rb_tree_nodeISt4pairIKccEE9_M_valptrEv
	.type	_ZNSt13_Rb_tree_nodeISt4pairIKccEE9_M_valptrEv, @function
_ZNSt13_Rb_tree_nodeISt4pairIKccEE9_M_valptrEv:
.LFB11113:
	.cfi_startproc
	endbr64
	push	rbp
	.cfi_def_cfa_offset 16
	.cfi_offset 6, -16
	mov	rbp, rsp
	.cfi_def_cfa_register 6
	sub	rsp, 16
	mov	QWORD PTR -8[rbp], rdi
	mov	rax, QWORD PTR -8[rbp]
	add	rax, 32
	mov	rdi, rax
	call	_ZN9__gnu_cxx16__aligned_membufISt4pairIKccEE6_M_ptrEv
	leave
	.cfi_def_cfa 7, 8
	ret
	.cfi_endproc
.LFE11113:
	.size	_ZNSt13_Rb_tree_nodeISt4pairIKccEE9_M_valptrEv, .-_ZNSt13_Rb_tree_nodeISt4pairIKccEE9_M_valptrEv
	.section	.text._ZNSt11_Tuple_implILm0EJRKcEEC2ES1_,"axG",@progbits,_ZNSt11_Tuple_implILm0EJRKcEEC5ES1_,comdat
	.align 2
	.weak	_ZNSt11_Tuple_implILm0EJRKcEEC2ES1_
	.type	_ZNSt11_Tuple_implILm0EJRKcEEC2ES1_, @function
_ZNSt11_Tuple_implILm0EJRKcEEC2ES1_:
.LFB11115:
	.cfi_startproc
	endbr64
	push	rbp
	.cfi_def_cfa_offset 16
	.cfi_offset 6, -16
	mov	rbp, rsp
	.cfi_def_cfa_register 6
	sub	rsp, 16
	mov	QWORD PTR -8[rbp], rdi
	mov	QWORD PTR -16[rbp], rsi
	mov	rax, QWORD PTR -8[rbp]
	mov	rdx, QWORD PTR -16[rbp]
	mov	rsi, rdx
	mov	rdi, rax
	call	_ZNSt10_Head_baseILm0ERKcLb0EEC2ES1_
	nop
	leave
	.cfi_def_cfa 7, 8
	ret
	.cfi_endproc
.LFE11115:
	.size	_ZNSt11_Tuple_implILm0EJRKcEEC2ES1_, .-_ZNSt11_Tuple_implILm0EJRKcEEC2ES1_
	.weak	_ZNSt11_Tuple_implILm0EJRKcEEC1ES1_
	.set	_ZNSt11_Tuple_implILm0EJRKcEEC1ES1_,_ZNSt11_Tuple_implILm0EJRKcEEC2ES1_
	.section	.text._ZSt7forwardIRKSt21piecewise_construct_tEOT_RNSt16remove_referenceIS3_E4typeE,"axG",@progbits,_ZSt7forwardIRKSt21piecewise_construct_tEOT_RNSt16remove_referenceIS3_E4typeE,comdat
	.weak	_ZSt7forwardIRKSt21piecewise_construct_tEOT_RNSt16remove_referenceIS3_E4typeE
	.type	_ZSt7forwardIRKSt21piecewise_construct_tEOT_RNSt16remove_referenceIS3_E4typeE, @function
_ZSt7forwardIRKSt21piecewise_construct_tEOT_RNSt16remove_referenceIS3_E4typeE:
.LFB11117:
	.cfi_startproc
	endbr64
	push	rbp
	.cfi_def_cfa_offset 16
	.cfi_offset 6, -16
	mov	rbp, rsp
	.cfi_def_cfa_register 6
	mov	QWORD PTR -8[rbp], rdi
	mov	rax, QWORD PTR -8[rbp]
	pop	rbp
	.cfi_def_cfa 7, 8
	ret
	.cfi_endproc
.LFE11117:
	.size	_ZSt7forwardIRKSt21piecewise_construct_tEOT_RNSt16remove_referenceIS3_E4typeE, .-_ZSt7forwardIRKSt21piecewise_construct_tEOT_RNSt16remove_referenceIS3_E4typeE
	.section	.text._ZSt7forwardISt5tupleIJRKcEEEOT_RNSt16remove_referenceIS4_E4typeE,"axG",@progbits,_ZSt7forwardISt5tupleIJRKcEEEOT_RNSt16remove_referenceIS4_E4typeE,comdat
	.weak	_ZSt7forwardISt5tupleIJRKcEEEOT_RNSt16remove_referenceIS4_E4typeE
	.type	_ZSt7forwardISt5tupleIJRKcEEEOT_RNSt16remove_referenceIS4_E4typeE, @function
_ZSt7forwardISt5tupleIJRKcEEEOT_RNSt16remove_referenceIS4_E4typeE:
.LFB11118:
	.cfi_startproc
	endbr64
	push	rbp
	.cfi_def_cfa_offset 16
	.cfi_offset 6, -16
	mov	rbp, rsp
	.cfi_def_cfa_register 6
	mov	QWORD PTR -8[rbp], rdi
	mov	rax, QWORD PTR -8[rbp]
	pop	rbp
	.cfi_def_cfa 7, 8
	ret
	.cfi_endproc
.LFE11118:
	.size	_ZSt7forwardISt5tupleIJRKcEEEOT_RNSt16remove_referenceIS4_E4typeE, .-_ZSt7forwardISt5tupleIJRKcEEEOT_RNSt16remove_referenceIS4_E4typeE
	.section	.text._ZSt7forwardISt5tupleIJEEEOT_RNSt16remove_referenceIS2_E4typeE,"axG",@progbits,_ZSt7forwardISt5tupleIJEEEOT_RNSt16remove_referenceIS2_E4typeE,comdat
	.weak	_ZSt7forwardISt5tupleIJEEEOT_RNSt16remove_referenceIS2_E4typeE
	.type	_ZSt7forwardISt5tupleIJEEEOT_RNSt16remove_referenceIS2_E4typeE, @function
_ZSt7forwardISt5tupleIJEEEOT_RNSt16remove_referenceIS2_E4typeE:
.LFB11119:
	.cfi_startproc
	endbr64
	push	rbp
	.cfi_def_cfa_offset 16
	.cfi_offset 6, -16
	mov	rbp, rsp
	.cfi_def_cfa_register 6
	mov	QWORD PTR -8[rbp], rdi
	mov	rax, QWORD PTR -8[rbp]
	pop	rbp
	.cfi_def_cfa 7, 8
	ret
	.cfi_endproc
.LFE11119:
	.size	_ZSt7forwardISt5tupleIJEEEOT_RNSt16remove_referenceIS2_E4typeE, .-_ZSt7forwardISt5tupleIJEEEOT_RNSt16remove_referenceIS2_E4typeE
	.section	.text._ZNSt8_Rb_treeIcSt4pairIKccESt10_Select1stIS2_ESt4lessIcESaIS2_EE14_M_create_nodeIJRKSt21piecewise_construct_tSt5tupleIJRS1_EESD_IJEEEEEPSt13_Rb_tree_nodeIS2_EDpOT_,"axG",@progbits,_ZNSt8_Rb_treeIcSt4pairIKccESt10_Select1stIS2_ESt4lessIcESaIS2_EE14_M_create_nodeIJRKSt21piecewise_construct_tSt5tupleIJRS1_EESD_IJEEEEEPSt13_Rb_tree_nodeIS2_EDpOT_,comdat
	.align 2
	.weak	_ZNSt8_Rb_treeIcSt4pairIKccESt10_Select1stIS2_ESt4lessIcESaIS2_EE14_M_create_nodeIJRKSt21piecewise_construct_tSt5tupleIJRS1_EESD_IJEEEEEPSt13_Rb_tree_nodeIS2_EDpOT_
	.type	_ZNSt8_Rb_treeIcSt4pairIKccESt10_Select1stIS2_ESt4lessIcESaIS2_EE14_M_create_nodeIJRKSt21piecewise_construct_tSt5tupleIJRS1_EESD_IJEEEEEPSt13_Rb_tree_nodeIS2_EDpOT_, @function
_ZNSt8_Rb_treeIcSt4pairIKccESt10_Select1stIS2_ESt4lessIcESaIS2_EE14_M_create_nodeIJRKSt21piecewise_construct_tSt5tupleIJRS1_EESD_IJEEEEEPSt13_Rb_tree_nodeIS2_EDpOT_:
.LFB11120:
	.cfi_startproc
	endbr64
	push	rbp
	.cfi_def_cfa_offset 16
	.cfi_offset 6, -16
	mov	rbp, rsp
	.cfi_def_cfa_register 6
	push	r12
	push	rbx
	sub	rsp, 48
	.cfi_offset 12, -24
	.cfi_offset 3, -32
	mov	QWORD PTR -40[rbp], rdi
	mov	QWORD PTR -48[rbp], rsi
	mov	QWORD PTR -56[rbp], rdx
	mov	QWORD PTR -64[rbp], rcx
	mov	rax, QWORD PTR -40[rbp]
	mov	rdi, rax
	call	_ZNSt8_Rb_treeIcSt4pairIKccESt10_Select1stIS2_ESt4lessIcESaIS2_EE11_M_get_nodeEv
	mov	QWORD PTR -24[rbp], rax
	mov	rax, QWORD PTR -64[rbp]
	mov	rdi, rax
	call	_ZSt7forwardISt5tupleIJEEEOT_RNSt16remove_referenceIS2_E4typeE
	mov	r12, rax
	mov	rax, QWORD PTR -56[rbp]
	mov	rdi, rax
	call	_ZSt7forwardISt5tupleIJRKcEEEOT_RNSt16remove_referenceIS4_E4typeE
	mov	rbx, rax
	mov	rax, QWORD PTR -48[rbp]
	mov	rdi, rax
	call	_ZSt7forwardIRKSt21piecewise_construct_tEOT_RNSt16remove_referenceIS3_E4typeE
	mov	rdx, rax
	mov	rsi, QWORD PTR -24[rbp]
	mov	rax, QWORD PTR -40[rbp]
	mov	r8, r12
	mov	rcx, rbx
	mov	rdi, rax
	call	_ZNSt8_Rb_treeIcSt4pairIKccESt10_Select1stIS2_ESt4lessIcESaIS2_EE17_M_construct_nodeIJRKSt21piecewise_construct_tSt5tupleIJRS1_EESD_IJEEEEEvPSt13_Rb_tree_nodeIS2_EDpOT_
	mov	rax, QWORD PTR -24[rbp]
	add	rsp, 48
	pop	rbx
	pop	r12
	pop	rbp
	.cfi_def_cfa 7, 8
	ret
	.cfi_endproc
.LFE11120:
	.size	_ZNSt8_Rb_treeIcSt4pairIKccESt10_Select1stIS2_ESt4lessIcESaIS2_EE14_M_create_nodeIJRKSt21piecewise_construct_tSt5tupleIJRS1_EESD_IJEEEEEPSt13_Rb_tree_nodeIS2_EDpOT_, .-_ZNSt8_Rb_treeIcSt4pairIKccESt10_Select1stIS2_ESt4lessIcESaIS2_EE14_M_create_nodeIJRKSt21piecewise_construct_tSt5tupleIJRS1_EESD_IJEEEEEPSt13_Rb_tree_nodeIS2_EDpOT_
	.section	.text._ZNSt8_Rb_treeIcSt4pairIKccESt10_Select1stIS2_ESt4lessIcESaIS2_EE29_M_get_insert_hint_unique_posESt23_Rb_tree_const_iteratorIS2_ERS1_,"axG",@progbits,_ZNSt8_Rb_treeIcSt4pairIKccESt10_Select1stIS2_ESt4lessIcESaIS2_EE29_M_get_insert_hint_unique_posESt23_Rb_tree_const_iteratorIS2_ERS1_,comdat
	.align 2
	.weak	_ZNSt8_Rb_treeIcSt4pairIKccESt10_Select1stIS2_ESt4lessIcESaIS2_EE29_M_get_insert_hint_unique_posESt23_Rb_tree_const_iteratorIS2_ERS1_
	.type	_ZNSt8_Rb_treeIcSt4pairIKccESt10_Select1stIS2_ESt4lessIcESaIS2_EE29_M_get_insert_hint_unique_posESt23_Rb_tree_const_iteratorIS2_ERS1_, @function
_ZNSt8_Rb_treeIcSt4pairIKccESt10_Select1stIS2_ESt4lessIcESaIS2_EE29_M_get_insert_hint_unique_posESt23_Rb_tree_const_iteratorIS2_ERS1_:
.LFB11121:
	.cfi_startproc
	endbr64
	push	rbp
	.cfi_def_cfa_offset 16
	.cfi_offset 6, -16
	mov	rbp, rsp
	.cfi_def_cfa_register 6
	push	rbx
	sub	rsp, 104
	.cfi_offset 3, -24
	mov	QWORD PTR -88[rbp], rdi
	mov	QWORD PTR -96[rbp], rsi
	mov	QWORD PTR -104[rbp], rdx
	mov	rax, QWORD PTR fs:40
	mov	QWORD PTR -24[rbp], rax
	xor	eax, eax
	lea	rax, -96[rbp]
	mov	rdi, rax
	call	_ZNKSt23_Rb_tree_const_iteratorISt4pairIKccEE13_M_const_castEv
	mov	QWORD PTR -72[rbp], rax
	mov	rbx, QWORD PTR -72[rbp]
	mov	rax, QWORD PTR -88[rbp]
	mov	rdi, rax
	call	_ZNSt8_Rb_treeIcSt4pairIKccESt10_Select1stIS2_ESt4lessIcESaIS2_EE6_M_endEv
	cmp	rbx, rax
	sete	al
	test	al, al
	je	.L164
	mov	rax, QWORD PTR -88[rbp]
	mov	rdi, rax
	call	_ZNKSt8_Rb_treeIcSt4pairIKccESt10_Select1stIS2_ESt4lessIcESaIS2_EE4sizeEv
	test	rax, rax
	je	.L165
	mov	rbx, QWORD PTR -88[rbp]
	mov	rax, QWORD PTR -88[rbp]
	mov	rdi, rax
	call	_ZNSt8_Rb_treeIcSt4pairIKccESt10_Select1stIS2_ESt4lessIcESaIS2_EE12_M_rightmostEv
	mov	rax, QWORD PTR [rax]
	mov	rdi, rax
	call	_ZNSt8_Rb_treeIcSt4pairIKccESt10_Select1stIS2_ESt4lessIcESaIS2_EE6_S_keyEPKSt18_Rb_tree_node_base
	mov	rcx, rax
	mov	rax, QWORD PTR -104[rbp]
	mov	rdx, rax
	mov	rsi, rcx
	mov	rdi, rbx
	call	_ZNKSt4lessIcEclERKcS2_
	test	al, al
	je	.L165
	mov	eax, 1
	jmp	.L166
.L165:
	mov	eax, 0
.L166:
	test	al, al
	je	.L167
	mov	rax, QWORD PTR -88[rbp]
	mov	rdi, rax
	call	_ZNSt8_Rb_treeIcSt4pairIKccESt10_Select1stIS2_ESt4lessIcESaIS2_EE12_M_rightmostEv
	mov	rdx, rax
	mov	QWORD PTR -56[rbp], 0
	lea	rcx, -56[rbp]
	lea	rax, -48[rbp]
	mov	rsi, rcx
	mov	rdi, rax
	call	_ZNSt4pairIPSt18_Rb_tree_node_baseS1_EC1IRS1_Lb1EEERKS1_OT_
	mov	rax, QWORD PTR -48[rbp]
	mov	rdx, QWORD PTR -40[rbp]
	jmp	.L179
.L167:
	mov	rdx, QWORD PTR -104[rbp]
	mov	rax, QWORD PTR -88[rbp]
	mov	rsi, rdx
	mov	rdi, rax
	call	_ZNSt8_Rb_treeIcSt4pairIKccESt10_Select1stIS2_ESt4lessIcESaIS2_EE24_M_get_insert_unique_posERS1_
	jmp	.L179
.L164:
	mov	rbx, QWORD PTR -88[rbp]
	mov	rax, QWORD PTR -72[rbp]
	mov	rdi, rax
	call	_ZNSt8_Rb_treeIcSt4pairIKccESt10_Select1stIS2_ESt4lessIcESaIS2_EE6_S_keyEPKSt18_Rb_tree_node_base
	mov	rdx, rax
	mov	rax, QWORD PTR -104[rbp]
	mov	rsi, rax
	mov	rdi, rbx
	call	_ZNKSt4lessIcEclERKcS2_
	test	al, al
	je	.L169
	mov	rax, QWORD PTR -72[rbp]
	mov	QWORD PTR -64[rbp], rax
	mov	rbx, QWORD PTR -72[rbp]
	mov	rax, QWORD PTR -88[rbp]
	mov	rdi, rax
	call	_ZNSt8_Rb_treeIcSt4pairIKccESt10_Select1stIS2_ESt4lessIcESaIS2_EE11_M_leftmostEv
	mov	rax, QWORD PTR [rax]
	cmp	rbx, rax
	sete	al
	test	al, al
	je	.L170
	mov	rax, QWORD PTR -88[rbp]
	mov	rdi, rax
	call	_ZNSt8_Rb_treeIcSt4pairIKccESt10_Select1stIS2_ESt4lessIcESaIS2_EE11_M_leftmostEv
	mov	rbx, rax
	mov	rax, QWORD PTR -88[rbp]
	mov	rdi, rax
	call	_ZNSt8_Rb_treeIcSt4pairIKccESt10_Select1stIS2_ESt4lessIcESaIS2_EE11_M_leftmostEv
	mov	rcx, rax
	lea	rax, -48[rbp]
	mov	rdx, rbx
	mov	rsi, rcx
	mov	rdi, rax
	call	_ZNSt4pairIPSt18_Rb_tree_node_baseS1_EC1IRS1_S4_Lb1EEEOT_OT0_
	mov	rax, QWORD PTR -48[rbp]
	mov	rdx, QWORD PTR -40[rbp]
	jmp	.L179
.L170:
	mov	rbx, QWORD PTR -88[rbp]
	lea	rax, -64[rbp]
	mov	rdi, rax
	call	_ZNSt17_Rb_tree_iteratorISt4pairIKccEEmmEv
	mov	rax, QWORD PTR [rax]
	mov	rdi, rax
	call	_ZNSt8_Rb_treeIcSt4pairIKccESt10_Select1stIS2_ESt4lessIcESaIS2_EE6_S_keyEPKSt18_Rb_tree_node_base
	mov	rcx, rax
	mov	rax, QWORD PTR -104[rbp]
	mov	rdx, rax
	mov	rsi, rcx
	mov	rdi, rbx
	call	_ZNKSt4lessIcEclERKcS2_
	test	al, al
	je	.L172
	mov	rax, QWORD PTR -64[rbp]
	mov	rdi, rax
	call	_ZNSt8_Rb_treeIcSt4pairIKccESt10_Select1stIS2_ESt4lessIcESaIS2_EE8_S_rightEPSt18_Rb_tree_node_base
	test	rax, rax
	sete	al
	test	al, al
	je	.L173
	mov	QWORD PTR -56[rbp], 0
	lea	rdx, -64[rbp]
	lea	rcx, -56[rbp]
	lea	rax, -48[rbp]
	mov	rsi, rcx
	mov	rdi, rax
	call	_ZNSt4pairIPSt18_Rb_tree_node_baseS1_EC1IRS1_Lb1EEERKS1_OT_
	mov	rax, QWORD PTR -48[rbp]
	mov	rdx, QWORD PTR -40[rbp]
	jmp	.L179
.L173:
	lea	rdx, -72[rbp]
	lea	rcx, -72[rbp]
	lea	rax, -48[rbp]
	mov	rsi, rcx
	mov	rdi, rax
	call	_ZNSt4pairIPSt18_Rb_tree_node_baseS1_EC1IRS1_S4_Lb1EEEOT_OT0_
	mov	rax, QWORD PTR -48[rbp]
	mov	rdx, QWORD PTR -40[rbp]
	jmp	.L179
.L172:
	mov	rdx, QWORD PTR -104[rbp]
	mov	rax, QWORD PTR -88[rbp]
	mov	rsi, rdx
	mov	rdi, rax
	call	_ZNSt8_Rb_treeIcSt4pairIKccESt10_Select1stIS2_ESt4lessIcESaIS2_EE24_M_get_insert_unique_posERS1_
	jmp	.L179
.L169:
	mov	rbx, QWORD PTR -88[rbp]
	mov	rax, QWORD PTR -72[rbp]
	mov	rdi, rax
	call	_ZNSt8_Rb_treeIcSt4pairIKccESt10_Select1stIS2_ESt4lessIcESaIS2_EE6_S_keyEPKSt18_Rb_tree_node_base
	mov	rcx, rax
	mov	rax, QWORD PTR -104[rbp]
	mov	rdx, rax
	mov	rsi, rcx
	mov	rdi, rbx
	call	_ZNKSt4lessIcEclERKcS2_
	test	al, al
	je	.L174
	mov	rax, QWORD PTR -72[rbp]
	mov	QWORD PTR -64[rbp], rax
	mov	rbx, QWORD PTR -72[rbp]
	mov	rax, QWORD PTR -88[rbp]
	mov	rdi, rax
	call	_ZNSt8_Rb_treeIcSt4pairIKccESt10_Select1stIS2_ESt4lessIcESaIS2_EE12_M_rightmostEv
	mov	rax, QWORD PTR [rax]
	cmp	rbx, rax
	sete	al
	test	al, al
	je	.L175
	mov	rax, QWORD PTR -88[rbp]
	mov	rdi, rax
	call	_ZNSt8_Rb_treeIcSt4pairIKccESt10_Select1stIS2_ESt4lessIcESaIS2_EE12_M_rightmostEv
	mov	rdx, rax
	mov	QWORD PTR -56[rbp], 0
	lea	rcx, -56[rbp]
	lea	rax, -48[rbp]
	mov	rsi, rcx
	mov	rdi, rax
	call	_ZNSt4pairIPSt18_Rb_tree_node_baseS1_EC1IRS1_Lb1EEERKS1_OT_
	mov	rax, QWORD PTR -48[rbp]
	mov	rdx, QWORD PTR -40[rbp]
	jmp	.L179
.L175:
	mov	rbx, QWORD PTR -88[rbp]
	lea	rax, -64[rbp]
	mov	rdi, rax
	call	_ZNSt17_Rb_tree_iteratorISt4pairIKccEEppEv
	mov	rax, QWORD PTR [rax]
	mov	rdi, rax
	call	_ZNSt8_Rb_treeIcSt4pairIKccESt10_Select1stIS2_ESt4lessIcESaIS2_EE6_S_keyEPKSt18_Rb_tree_node_base
	mov	rdx, rax
	mov	rax, QWORD PTR -104[rbp]
	mov	rsi, rax
	mov	rdi, rbx
	call	_ZNKSt4lessIcEclERKcS2_
	test	al, al
	je	.L177
	mov	rax, QWORD PTR -72[rbp]
	mov	rdi, rax
	call	_ZNSt8_Rb_treeIcSt4pairIKccESt10_Select1stIS2_ESt4lessIcESaIS2_EE8_S_rightEPSt18_Rb_tree_node_base
	test	rax, rax
	sete	al
	test	al, al
	je	.L178
	mov	QWORD PTR -56[rbp], 0
	lea	rdx, -72[rbp]
	lea	rcx, -56[rbp]
	lea	rax, -48[rbp]
	mov	rsi, rcx
	mov	rdi, rax
	call	_ZNSt4pairIPSt18_Rb_tree_node_baseS1_EC1IRS1_Lb1EEERKS1_OT_
	mov	rax, QWORD PTR -48[rbp]
	mov	rdx, QWORD PTR -40[rbp]
	jmp	.L179
.L178:
	lea	rdx, -64[rbp]
	lea	rcx, -64[rbp]
	lea	rax, -48[rbp]
	mov	rsi, rcx
	mov	rdi, rax
	call	_ZNSt4pairIPSt18_Rb_tree_node_baseS1_EC1IRS1_S4_Lb1EEEOT_OT0_
	mov	rax, QWORD PTR -48[rbp]
	mov	rdx, QWORD PTR -40[rbp]
	jmp	.L179
.L177:
	mov	rdx, QWORD PTR -104[rbp]
	mov	rax, QWORD PTR -88[rbp]
	mov	rsi, rdx
	mov	rdi, rax
	call	_ZNSt8_Rb_treeIcSt4pairIKccESt10_Select1stIS2_ESt4lessIcESaIS2_EE24_M_get_insert_unique_posERS1_
	jmp	.L179
.L174:
	mov	QWORD PTR -56[rbp], 0
	lea	rdx, -56[rbp]
	lea	rcx, -72[rbp]
	lea	rax, -48[rbp]
	mov	rsi, rcx
	mov	rdi, rax
	call	_ZNSt4pairIPSt18_Rb_tree_node_baseS1_EC1IRS1_Lb1EEEOT_RKS1_
	mov	rax, QWORD PTR -48[rbp]
	mov	rdx, QWORD PTR -40[rbp]
.L179:
	mov	rcx, QWORD PTR -24[rbp]
	sub	rcx, QWORD PTR fs:40
	je	.L180
	call	__stack_chk_fail@PLT
.L180:
	mov	rbx, QWORD PTR -8[rbp]
	leave
	.cfi_def_cfa 7, 8
	ret
	.cfi_endproc
.LFE11121:
	.size	_ZNSt8_Rb_treeIcSt4pairIKccESt10_Select1stIS2_ESt4lessIcESaIS2_EE29_M_get_insert_hint_unique_posESt23_Rb_tree_const_iteratorIS2_ERS1_, .-_ZNSt8_Rb_treeIcSt4pairIKccESt10_Select1stIS2_ESt4lessIcESaIS2_EE29_M_get_insert_hint_unique_posESt23_Rb_tree_const_iteratorIS2_ERS1_
	.section	.text._ZNSt8_Rb_treeIcSt4pairIKccESt10_Select1stIS2_ESt4lessIcESaIS2_EE6_S_keyEPKSt13_Rb_tree_nodeIS2_E,"axG",@progbits,_ZNSt8_Rb_treeIcSt4pairIKccESt10_Select1stIS2_ESt4lessIcESaIS2_EE6_S_keyEPKSt13_Rb_tree_nodeIS2_E,comdat
	.weak	_ZNSt8_Rb_treeIcSt4pairIKccESt10_Select1stIS2_ESt4lessIcESaIS2_EE6_S_keyEPKSt13_Rb_tree_nodeIS2_E
	.type	_ZNSt8_Rb_treeIcSt4pairIKccESt10_Select1stIS2_ESt4lessIcESaIS2_EE6_S_keyEPKSt13_Rb_tree_nodeIS2_E, @function
_ZNSt8_Rb_treeIcSt4pairIKccESt10_Select1stIS2_ESt4lessIcESaIS2_EE6_S_keyEPKSt13_Rb_tree_nodeIS2_E:
.LFB11138:
	.cfi_startproc
	endbr64
	push	rbp
	.cfi_def_cfa_offset 16
	.cfi_offset 6, -16
	mov	rbp, rsp
	.cfi_def_cfa_register 6
	sub	rsp, 32
	mov	QWORD PTR -24[rbp], rdi
	mov	rax, QWORD PTR fs:40
	mov	QWORD PTR -8[rbp], rax
	xor	eax, eax
	mov	rax, QWORD PTR -24[rbp]
	mov	rdi, rax
	call	_ZNKSt13_Rb_tree_nodeISt4pairIKccEE9_M_valptrEv
	mov	rdx, rax
	lea	rax, -9[rbp]
	mov	rsi, rdx
	mov	rdi, rax
	call	_ZNKSt10_Select1stISt4pairIKccEEclERKS2_
	mov	rdx, QWORD PTR -8[rbp]
	sub	rdx, QWORD PTR fs:40
	je	.L183
	call	__stack_chk_fail@PLT
.L183:
	leave
	.cfi_def_cfa 7, 8
	ret
	.cfi_endproc
.LFE11138:
	.size	_ZNSt8_Rb_treeIcSt4pairIKccESt10_Select1stIS2_ESt4lessIcESaIS2_EE6_S_keyEPKSt13_Rb_tree_nodeIS2_E, .-_ZNSt8_Rb_treeIcSt4pairIKccESt10_Select1stIS2_ESt4lessIcESaIS2_EE6_S_keyEPKSt13_Rb_tree_nodeIS2_E
	.section	.text._ZNSt8_Rb_treeIcSt4pairIKccESt10_Select1stIS2_ESt4lessIcESaIS2_EE14_M_insert_nodeEPSt18_Rb_tree_node_baseSA_PSt13_Rb_tree_nodeIS2_E,"axG",@progbits,_ZNSt8_Rb_treeIcSt4pairIKccESt10_Select1stIS2_ESt4lessIcESaIS2_EE14_M_insert_nodeEPSt18_Rb_tree_node_baseSA_PSt13_Rb_tree_nodeIS2_E,comdat
	.align 2
	.weak	_ZNSt8_Rb_treeIcSt4pairIKccESt10_Select1stIS2_ESt4lessIcESaIS2_EE14_M_insert_nodeEPSt18_Rb_tree_node_baseSA_PSt13_Rb_tree_nodeIS2_E
	.type	_ZNSt8_Rb_treeIcSt4pairIKccESt10_Select1stIS2_ESt4lessIcESaIS2_EE14_M_insert_nodeEPSt18_Rb_tree_node_baseSA_PSt13_Rb_tree_nodeIS2_E, @function
_ZNSt8_Rb_treeIcSt4pairIKccESt10_Select1stIS2_ESt4lessIcESaIS2_EE14_M_insert_nodeEPSt18_Rb_tree_node_baseSA_PSt13_Rb_tree_nodeIS2_E:
.LFB11140:
	.cfi_startproc
	endbr64
	push	rbp
	.cfi_def_cfa_offset 16
	.cfi_offset 6, -16
	mov	rbp, rsp
	.cfi_def_cfa_register 6
	push	r12
	push	rbx
	sub	rsp, 64
	.cfi_offset 12, -24
	.cfi_offset 3, -32
	mov	QWORD PTR -56[rbp], rdi
	mov	QWORD PTR -64[rbp], rsi
	mov	QWORD PTR -72[rbp], rdx
	mov	QWORD PTR -80[rbp], rcx
	mov	rax, QWORD PTR fs:40
	mov	QWORD PTR -24[rbp], rax
	xor	eax, eax
	cmp	QWORD PTR -64[rbp], 0
	jne	.L185
	mov	rax, QWORD PTR -56[rbp]
	mov	rdi, rax
	call	_ZNSt8_Rb_treeIcSt4pairIKccESt10_Select1stIS2_ESt4lessIcESaIS2_EE6_M_endEv
	cmp	QWORD PTR -72[rbp], rax
	je	.L185
	mov	rbx, QWORD PTR -56[rbp]
	mov	rax, QWORD PTR -72[rbp]
	mov	rdi, rax
	call	_ZNSt8_Rb_treeIcSt4pairIKccESt10_Select1stIS2_ESt4lessIcESaIS2_EE6_S_keyEPKSt18_Rb_tree_node_base
	mov	r12, rax
	mov	rax, QWORD PTR -80[rbp]
	mov	rdi, rax
	call	_ZNSt8_Rb_treeIcSt4pairIKccESt10_Select1stIS2_ESt4lessIcESaIS2_EE6_S_keyEPKSt13_Rb_tree_nodeIS2_E
	mov	rdx, r12
	mov	rsi, rax
	mov	rdi, rbx
	call	_ZNKSt4lessIcEclERKcS2_
	test	al, al
	je	.L186
.L185:
	mov	eax, 1
	jmp	.L187
.L186:
	mov	eax, 0
.L187:
	mov	BYTE PTR -33[rbp], al
	mov	rax, QWORD PTR -56[rbp]
	lea	rcx, 8[rax]
	movzx	eax, BYTE PTR -33[rbp]
	mov	rdx, QWORD PTR -72[rbp]
	mov	rsi, QWORD PTR -80[rbp]
	mov	edi, eax
	call	_ZSt29_Rb_tree_insert_and_rebalancebPSt18_Rb_tree_node_baseS0_RS_@PLT
	mov	rax, QWORD PTR -56[rbp]
	mov	rax, QWORD PTR 40[rax]
	lea	rdx, 1[rax]
	mov	rax, QWORD PTR -56[rbp]
	mov	QWORD PTR 40[rax], rdx
	mov	rdx, QWORD PTR -80[rbp]
	lea	rax, -32[rbp]
	mov	rsi, rdx
	mov	rdi, rax
	call	_ZNSt17_Rb_tree_iteratorISt4pairIKccEEC1EPSt18_Rb_tree_node_base
	mov	rax, QWORD PTR -32[rbp]
	mov	rdx, QWORD PTR -24[rbp]
	sub	rdx, QWORD PTR fs:40
	je	.L189
	call	__stack_chk_fail@PLT
.L189:
	add	rsp, 64
	pop	rbx
	pop	r12
	pop	rbp
	.cfi_def_cfa 7, 8
	ret
	.cfi_endproc
.LFE11140:
	.size	_ZNSt8_Rb_treeIcSt4pairIKccESt10_Select1stIS2_ESt4lessIcESaIS2_EE14_M_insert_nodeEPSt18_Rb_tree_node_baseSA_PSt13_Rb_tree_nodeIS2_E, .-_ZNSt8_Rb_treeIcSt4pairIKccESt10_Select1stIS2_ESt4lessIcESaIS2_EE14_M_insert_nodeEPSt18_Rb_tree_node_baseSA_PSt13_Rb_tree_nodeIS2_E
	.section	.text._ZNSt17_Rb_tree_iteratorISt4pairIKccEEC2EPSt18_Rb_tree_node_base,"axG",@progbits,_ZNSt17_Rb_tree_iteratorISt4pairIKccEEC5EPSt18_Rb_tree_node_base,comdat
	.align 2
	.weak	_ZNSt17_Rb_tree_iteratorISt4pairIKccEEC2EPSt18_Rb_tree_node_base
	.type	_ZNSt17_Rb_tree_iteratorISt4pairIKccEEC2EPSt18_Rb_tree_node_base, @function
_ZNSt17_Rb_tree_iteratorISt4pairIKccEEC2EPSt18_Rb_tree_node_base:
.LFB11142:
	.cfi_startproc
	endbr64
	push	rbp
	.cfi_def_cfa_offset 16
	.cfi_offset 6, -16
	mov	rbp, rsp
	.cfi_def_cfa_register 6
	mov	QWORD PTR -8[rbp], rdi
	mov	QWORD PTR -16[rbp], rsi
	mov	rax, QWORD PTR -8[rbp]
	mov	rdx, QWORD PTR -16[rbp]
	mov	QWORD PTR [rax], rdx
	nop
	pop	rbp
	.cfi_def_cfa 7, 8
	ret
	.cfi_endproc
.LFE11142:
	.size	_ZNSt17_Rb_tree_iteratorISt4pairIKccEEC2EPSt18_Rb_tree_node_base, .-_ZNSt17_Rb_tree_iteratorISt4pairIKccEEC2EPSt18_Rb_tree_node_base
	.weak	_ZNSt17_Rb_tree_iteratorISt4pairIKccEEC1EPSt18_Rb_tree_node_base
	.set	_ZNSt17_Rb_tree_iteratorISt4pairIKccEEC1EPSt18_Rb_tree_node_base,_ZNSt17_Rb_tree_iteratorISt4pairIKccEEC2EPSt18_Rb_tree_node_base
	.section	.text._ZN9__gnu_cxx13new_allocatorISt13_Rb_tree_nodeIcEEC2Ev,"axG",@progbits,_ZN9__gnu_cxx13new_allocatorISt13_Rb_tree_nodeIcEEC5Ev,comdat
	.align 2
	.weak	_ZN9__gnu_cxx13new_allocatorISt13_Rb_tree_nodeIcEEC2Ev
	.type	_ZN9__gnu_cxx13new_allocatorISt13_Rb_tree_nodeIcEEC2Ev, @function
_ZN9__gnu_cxx13new_allocatorISt13_Rb_tree_nodeIcEEC2Ev:
.LFB11282:
	.cfi_startproc
	endbr64
	push	rbp
	.cfi_def_cfa_offset 16
	.cfi_offset 6, -16
	mov	rbp, rsp
	.cfi_def_cfa_register 6
	mov	QWORD PTR -8[rbp], rdi
	nop
	pop	rbp
	.cfi_def_cfa 7, 8
	ret
	.cfi_endproc
.LFE11282:
	.size	_ZN9__gnu_cxx13new_allocatorISt13_Rb_tree_nodeIcEEC2Ev, .-_ZN9__gnu_cxx13new_allocatorISt13_Rb_tree_nodeIcEEC2Ev
	.weak	_ZN9__gnu_cxx13new_allocatorISt13_Rb_tree_nodeIcEEC1Ev
	.set	_ZN9__gnu_cxx13new_allocatorISt13_Rb_tree_nodeIcEEC1Ev,_ZN9__gnu_cxx13new_allocatorISt13_Rb_tree_nodeIcEEC2Ev
	.section	.text._ZNSt17_Rb_tree_iteratorIcEC2EPSt18_Rb_tree_node_base,"axG",@progbits,_ZNSt17_Rb_tree_iteratorIcEC5EPSt18_Rb_tree_node_base,comdat
	.align 2
	.weak	_ZNSt17_Rb_tree_iteratorIcEC2EPSt18_Rb_tree_node_base
	.type	_ZNSt17_Rb_tree_iteratorIcEC2EPSt18_Rb_tree_node_base, @function
_ZNSt17_Rb_tree_iteratorIcEC2EPSt18_Rb_tree_node_base:
.LFB11285:
	.cfi_startproc
	endbr64
	push	rbp
	.cfi_def_cfa_offset 16
	.cfi_offset 6, -16
	mov	rbp, rsp
	.cfi_def_cfa_register 6
	mov	QWORD PTR -8[rbp], rdi
	mov	QWORD PTR -16[rbp], rsi
	mov	rax, QWORD PTR -8[rbp]
	mov	rdx, QWORD PTR -16[rbp]
	mov	QWORD PTR [rax], rdx
	nop
	pop	rbp
	.cfi_def_cfa 7, 8
	ret
	.cfi_endproc
.LFE11285:
	.size	_ZNSt17_Rb_tree_iteratorIcEC2EPSt18_Rb_tree_node_base, .-_ZNSt17_Rb_tree_iteratorIcEC2EPSt18_Rb_tree_node_base
	.weak	_ZNSt17_Rb_tree_iteratorIcEC1EPSt18_Rb_tree_node_base
	.set	_ZNSt17_Rb_tree_iteratorIcEC1EPSt18_Rb_tree_node_base,_ZNSt17_Rb_tree_iteratorIcEC2EPSt18_Rb_tree_node_base
	.section	.text._ZNSt8_Rb_treeIccSt9_IdentityIcESt4lessIcESaIcEE29_M_get_insert_hint_unique_posESt23_Rb_tree_const_iteratorIcERKc,"axG",@progbits,_ZNSt8_Rb_treeIccSt9_IdentityIcESt4lessIcESaIcEE29_M_get_insert_hint_unique_posESt23_Rb_tree_const_iteratorIcERKc,comdat
	.align 2
	.weak	_ZNSt8_Rb_treeIccSt9_IdentityIcESt4lessIcESaIcEE29_M_get_insert_hint_unique_posESt23_Rb_tree_const_iteratorIcERKc
	.type	_ZNSt8_Rb_treeIccSt9_IdentityIcESt4lessIcESaIcEE29_M_get_insert_hint_unique_posESt23_Rb_tree_const_iteratorIcERKc, @function
_ZNSt8_Rb_treeIccSt9_IdentityIcESt4lessIcESaIcEE29_M_get_insert_hint_unique_posESt23_Rb_tree_const_iteratorIcERKc:
.LFB11287:
	.cfi_startproc
	endbr64
	push	rbp
	.cfi_def_cfa_offset 16
	.cfi_offset 6, -16
	mov	rbp, rsp
	.cfi_def_cfa_register 6
	push	rbx
	sub	rsp, 104
	.cfi_offset 3, -24
	mov	QWORD PTR -88[rbp], rdi
	mov	QWORD PTR -96[rbp], rsi
	mov	QWORD PTR -104[rbp], rdx
	mov	rax, QWORD PTR fs:40
	mov	QWORD PTR -24[rbp], rax
	xor	eax, eax
	lea	rax, -96[rbp]
	mov	rdi, rax
	call	_ZNKSt23_Rb_tree_const_iteratorIcE13_M_const_castEv
	mov	QWORD PTR -72[rbp], rax
	mov	rbx, QWORD PTR -72[rbp]
	mov	rax, QWORD PTR -88[rbp]
	mov	rdi, rax
	call	_ZNSt8_Rb_treeIccSt9_IdentityIcESt4lessIcESaIcEE6_M_endEv
	cmp	rbx, rax
	sete	al
	test	al, al
	je	.L194
	mov	rax, QWORD PTR -88[rbp]
	mov	rdi, rax
	call	_ZNKSt8_Rb_treeIccSt9_IdentityIcESt4lessIcESaIcEE4sizeEv
	test	rax, rax
	je	.L195
	mov	rbx, QWORD PTR -88[rbp]
	mov	rax, QWORD PTR -88[rbp]
	mov	rdi, rax
	call	_ZNSt8_Rb_treeIccSt9_IdentityIcESt4lessIcESaIcEE12_M_rightmostEv
	mov	rax, QWORD PTR [rax]
	mov	rdi, rax
	call	_ZNSt8_Rb_treeIccSt9_IdentityIcESt4lessIcESaIcEE6_S_keyEPKSt18_Rb_tree_node_base
	mov	rcx, rax
	mov	rax, QWORD PTR -104[rbp]
	mov	rdx, rax
	mov	rsi, rcx
	mov	rdi, rbx
	call	_ZNKSt4lessIcEclERKcS2_
	test	al, al
	je	.L195
	mov	eax, 1
	jmp	.L196
.L195:
	mov	eax, 0
.L196:
	test	al, al
	je	.L197
	mov	rax, QWORD PTR -88[rbp]
	mov	rdi, rax
	call	_ZNSt8_Rb_treeIccSt9_IdentityIcESt4lessIcESaIcEE12_M_rightmostEv
	mov	rdx, rax
	mov	QWORD PTR -56[rbp], 0
	lea	rcx, -56[rbp]
	lea	rax, -48[rbp]
	mov	rsi, rcx
	mov	rdi, rax
	call	_ZNSt4pairIPSt18_Rb_tree_node_baseS1_EC1IRS1_Lb1EEERKS1_OT_
	mov	rax, QWORD PTR -48[rbp]
	mov	rdx, QWORD PTR -40[rbp]
	jmp	.L209
.L197:
	mov	rdx, QWORD PTR -104[rbp]
	mov	rax, QWORD PTR -88[rbp]
	mov	rsi, rdx
	mov	rdi, rax
	call	_ZNSt8_Rb_treeIccSt9_IdentityIcESt4lessIcESaIcEE24_M_get_insert_unique_posERKc
	jmp	.L209
.L194:
	mov	rbx, QWORD PTR -88[rbp]
	mov	rax, QWORD PTR -72[rbp]
	mov	rdi, rax
	call	_ZNSt8_Rb_treeIccSt9_IdentityIcESt4lessIcESaIcEE6_S_keyEPKSt18_Rb_tree_node_base
	mov	rdx, rax
	mov	rax, QWORD PTR -104[rbp]
	mov	rsi, rax
	mov	rdi, rbx
	call	_ZNKSt4lessIcEclERKcS2_
	test	al, al
	je	.L199
	mov	rax, QWORD PTR -72[rbp]
	mov	QWORD PTR -64[rbp], rax
	mov	rbx, QWORD PTR -72[rbp]
	mov	rax, QWORD PTR -88[rbp]
	mov	rdi, rax
	call	_ZNSt8_Rb_treeIccSt9_IdentityIcESt4lessIcESaIcEE11_M_leftmostEv
	mov	rax, QWORD PTR [rax]
	cmp	rbx, rax
	sete	al
	test	al, al
	je	.L200
	mov	rax, QWORD PTR -88[rbp]
	mov	rdi, rax
	call	_ZNSt8_Rb_treeIccSt9_IdentityIcESt4lessIcESaIcEE11_M_leftmostEv
	mov	rbx, rax
	mov	rax, QWORD PTR -88[rbp]
	mov	rdi, rax
	call	_ZNSt8_Rb_treeIccSt9_IdentityIcESt4lessIcESaIcEE11_M_leftmostEv
	mov	rcx, rax
	lea	rax, -48[rbp]
	mov	rdx, rbx
	mov	rsi, rcx
	mov	rdi, rax
	call	_ZNSt4pairIPSt18_Rb_tree_node_baseS1_EC1IRS1_S4_Lb1EEEOT_OT0_
	mov	rax, QWORD PTR -48[rbp]
	mov	rdx, QWORD PTR -40[rbp]
	jmp	.L209
.L200:
	mov	rbx, QWORD PTR -88[rbp]
	lea	rax, -64[rbp]
	mov	rdi, rax
	call	_ZNSt17_Rb_tree_iteratorIcEmmEv
	mov	rax, QWORD PTR [rax]
	mov	rdi, rax
	call	_ZNSt8_Rb_treeIccSt9_IdentityIcESt4lessIcESaIcEE6_S_keyEPKSt18_Rb_tree_node_base
	mov	rcx, rax
	mov	rax, QWORD PTR -104[rbp]
	mov	rdx, rax
	mov	rsi, rcx
	mov	rdi, rbx
	call	_ZNKSt4lessIcEclERKcS2_
	test	al, al
	je	.L202
	mov	rax, QWORD PTR -64[rbp]
	mov	rdi, rax
	call	_ZNSt8_Rb_treeIccSt9_IdentityIcESt4lessIcESaIcEE8_S_rightEPSt18_Rb_tree_node_base
	test	rax, rax
	sete	al
	test	al, al
	je	.L203
	mov	QWORD PTR -56[rbp], 0
	lea	rdx, -64[rbp]
	lea	rcx, -56[rbp]
	lea	rax, -48[rbp]
	mov	rsi, rcx
	mov	rdi, rax
	call	_ZNSt4pairIPSt18_Rb_tree_node_baseS1_EC1IRS1_Lb1EEERKS1_OT_
	mov	rax, QWORD PTR -48[rbp]
	mov	rdx, QWORD PTR -40[rbp]
	jmp	.L209
.L203:
	lea	rdx, -72[rbp]
	lea	rcx, -72[rbp]
	lea	rax, -48[rbp]
	mov	rsi, rcx
	mov	rdi, rax
	call	_ZNSt4pairIPSt18_Rb_tree_node_baseS1_EC1IRS1_S4_Lb1EEEOT_OT0_
	mov	rax, QWORD PTR -48[rbp]
	mov	rdx, QWORD PTR -40[rbp]
	jmp	.L209
.L202:
	mov	rdx, QWORD PTR -104[rbp]
	mov	rax, QWORD PTR -88[rbp]
	mov	rsi, rdx
	mov	rdi, rax
	call	_ZNSt8_Rb_treeIccSt9_IdentityIcESt4lessIcESaIcEE24_M_get_insert_unique_posERKc
	jmp	.L209
.L199:
	mov	rbx, QWORD PTR -88[rbp]
	mov	rax, QWORD PTR -72[rbp]
	mov	rdi, rax
	call	_ZNSt8_Rb_treeIccSt9_IdentityIcESt4lessIcESaIcEE6_S_keyEPKSt18_Rb_tree_node_base
	mov	rcx, rax
	mov	rax, QWORD PTR -104[rbp]
	mov	rdx, rax
	mov	rsi, rcx
	mov	rdi, rbx
	call	_ZNKSt4lessIcEclERKcS2_
	test	al, al
	je	.L204
	mov	rax, QWORD PTR -72[rbp]
	mov	QWORD PTR -64[rbp], rax
	mov	rbx, QWORD PTR -72[rbp]
	mov	rax, QWORD PTR -88[rbp]
	mov	rdi, rax
	call	_ZNSt8_Rb_treeIccSt9_IdentityIcESt4lessIcESaIcEE12_M_rightmostEv
	mov	rax, QWORD PTR [rax]
	cmp	rbx, rax
	sete	al
	test	al, al
	je	.L205
	mov	rax, QWORD PTR -88[rbp]
	mov	rdi, rax
	call	_ZNSt8_Rb_treeIccSt9_IdentityIcESt4lessIcESaIcEE12_M_rightmostEv
	mov	rdx, rax
	mov	QWORD PTR -56[rbp], 0
	lea	rcx, -56[rbp]
	lea	rax, -48[rbp]
	mov	rsi, rcx
	mov	rdi, rax
	call	_ZNSt4pairIPSt18_Rb_tree_node_baseS1_EC1IRS1_Lb1EEERKS1_OT_
	mov	rax, QWORD PTR -48[rbp]
	mov	rdx, QWORD PTR -40[rbp]
	jmp	.L209
.L205:
	mov	rbx, QWORD PTR -88[rbp]
	lea	rax, -64[rbp]
	mov	rdi, rax
	call	_ZNSt17_Rb_tree_iteratorIcEppEv
	mov	rax, QWORD PTR [rax]
	mov	rdi, rax
	call	_ZNSt8_Rb_treeIccSt9_IdentityIcESt4lessIcESaIcEE6_S_keyEPKSt18_Rb_tree_node_base
	mov	rdx, rax
	mov	rax, QWORD PTR -104[rbp]
	mov	rsi, rax
	mov	rdi, rbx
	call	_ZNKSt4lessIcEclERKcS2_
	test	al, al
	je	.L207
	mov	rax, QWORD PTR -72[rbp]
	mov	rdi, rax
	call	_ZNSt8_Rb_treeIccSt9_IdentityIcESt4lessIcESaIcEE8_S_rightEPSt18_Rb_tree_node_base
	test	rax, rax
	sete	al
	test	al, al
	je	.L208
	mov	QWORD PTR -56[rbp], 0
	lea	rdx, -72[rbp]
	lea	rcx, -56[rbp]
	lea	rax, -48[rbp]
	mov	rsi, rcx
	mov	rdi, rax
	call	_ZNSt4pairIPSt18_Rb_tree_node_baseS1_EC1IRS1_Lb1EEERKS1_OT_
	mov	rax, QWORD PTR -48[rbp]
	mov	rdx, QWORD PTR -40[rbp]
	jmp	.L209
.L208:
	lea	rdx, -64[rbp]
	lea	rcx, -64[rbp]
	lea	rax, -48[rbp]
	mov	rsi, rcx
	mov	rdi, rax
	call	_ZNSt4pairIPSt18_Rb_tree_node_baseS1_EC1IRS1_S4_Lb1EEEOT_OT0_
	mov	rax, QWORD PTR -48[rbp]
	mov	rdx, QWORD PTR -40[rbp]
	jmp	.L209
.L207:
	mov	rdx, QWORD PTR -104[rbp]
	mov	rax, QWORD PTR -88[rbp]
	mov	rsi, rdx
	mov	rdi, rax
	call	_ZNSt8_Rb_treeIccSt9_IdentityIcESt4lessIcESaIcEE24_M_get_insert_unique_posERKc
	jmp	.L209
.L204:
	mov	QWORD PTR -56[rbp], 0
	lea	rdx, -56[rbp]
	lea	rcx, -72[rbp]
	lea	rax, -48[rbp]
	mov	rsi, rcx
	mov	rdi, rax
	call	_ZNSt4pairIPSt18_Rb_tree_node_baseS1_EC1IRS1_Lb1EEEOT_RKS1_
	mov	rax, QWORD PTR -48[rbp]
	mov	rdx, QWORD PTR -40[rbp]
.L209:
	mov	rcx, QWORD PTR -24[rbp]
	sub	rcx, QWORD PTR fs:40
	je	.L210
	call	__stack_chk_fail@PLT
.L210:
	mov	rbx, QWORD PTR -8[rbp]
	leave
	.cfi_def_cfa 7, 8
	ret
	.cfi_endproc
.LFE11287:
	.size	_ZNSt8_Rb_treeIccSt9_IdentityIcESt4lessIcESaIcEE29_M_get_insert_hint_unique_posESt23_Rb_tree_const_iteratorIcERKc, .-_ZNSt8_Rb_treeIccSt9_IdentityIcESt4lessIcESaIcEE29_M_get_insert_hint_unique_posESt23_Rb_tree_const_iteratorIcERKc
	.section	.text._ZNKSt9_IdentityIcEclERc,"axG",@progbits,_ZNKSt9_IdentityIcEclERc,comdat
	.align 2
	.weak	_ZNKSt9_IdentityIcEclERc
	.type	_ZNKSt9_IdentityIcEclERc, @function
_ZNKSt9_IdentityIcEclERc:
.LFB11288:
	.cfi_startproc
	endbr64
	push	rbp
	.cfi_def_cfa_offset 16
	.cfi_offset 6, -16
	mov	rbp, rsp
	.cfi_def_cfa_register 6
	mov	QWORD PTR -8[rbp], rdi
	mov	QWORD PTR -16[rbp], rsi
	mov	rax, QWORD PTR -16[rbp]
	pop	rbp
	.cfi_def_cfa 7, 8
	ret
	.cfi_endproc
.LFE11288:
	.size	_ZNKSt9_IdentityIcEclERc, .-_ZNKSt9_IdentityIcEclERc
	.section	.text._ZSt7forwardIRcEOT_RNSt16remove_referenceIS1_E4typeE,"axG",@progbits,_ZSt7forwardIRcEOT_RNSt16remove_referenceIS1_E4typeE,comdat
	.weak	_ZSt7forwardIRcEOT_RNSt16remove_referenceIS1_E4typeE
	.type	_ZSt7forwardIRcEOT_RNSt16remove_referenceIS1_E4typeE, @function
_ZSt7forwardIRcEOT_RNSt16remove_referenceIS1_E4typeE:
.LFB11289:
	.cfi_startproc
	endbr64
	push	rbp
	.cfi_def_cfa_offset 16
	.cfi_offset 6, -16
	mov	rbp, rsp
	.cfi_def_cfa_register 6
	mov	QWORD PTR -8[rbp], rdi
	mov	rax, QWORD PTR -8[rbp]
	pop	rbp
	.cfi_def_cfa 7, 8
	ret
	.cfi_endproc
.LFE11289:
	.size	_ZSt7forwardIRcEOT_RNSt16remove_referenceIS1_E4typeE, .-_ZSt7forwardIRcEOT_RNSt16remove_referenceIS1_E4typeE
	.section	.text._ZNSt8_Rb_treeIccSt9_IdentityIcESt4lessIcESaIcEE10_M_insert_IRcNS5_11_Alloc_nodeEEESt17_Rb_tree_iteratorIcEPSt18_Rb_tree_node_baseSC_OT_RT0_,"axG",@progbits,_ZNSt8_Rb_treeIccSt9_IdentityIcESt4lessIcESaIcEE10_M_insert_IRcNS5_11_Alloc_nodeEEESt17_Rb_tree_iteratorIcEPSt18_Rb_tree_node_baseSC_OT_RT0_,comdat
	.align 2
	.weak	_ZNSt8_Rb_treeIccSt9_IdentityIcESt4lessIcESaIcEE10_M_insert_IRcNS5_11_Alloc_nodeEEESt17_Rb_tree_iteratorIcEPSt18_Rb_tree_node_baseSC_OT_RT0_
	.type	_ZNSt8_Rb_treeIccSt9_IdentityIcESt4lessIcESaIcEE10_M_insert_IRcNS5_11_Alloc_nodeEEESt17_Rb_tree_iteratorIcEPSt18_Rb_tree_node_baseSC_OT_RT0_, @function
_ZNSt8_Rb_treeIccSt9_IdentityIcESt4lessIcESaIcEE10_M_insert_IRcNS5_11_Alloc_nodeEEESt17_Rb_tree_iteratorIcEPSt18_Rb_tree_node_baseSC_OT_RT0_:
.LFB11290:
	.cfi_startproc
	endbr64
	push	rbp
	.cfi_def_cfa_offset 16
	.cfi_offset 6, -16
	mov	rbp, rsp
	.cfi_def_cfa_register 6
	push	r12
	push	rbx
	sub	rsp, 80
	.cfi_offset 12, -24
	.cfi_offset 3, -32
	mov	QWORD PTR -56[rbp], rdi
	mov	QWORD PTR -64[rbp], rsi
	mov	QWORD PTR -72[rbp], rdx
	mov	QWORD PTR -80[rbp], rcx
	mov	QWORD PTR -88[rbp], r8
	mov	rax, QWORD PTR fs:40
	mov	QWORD PTR -24[rbp], rax
	xor	eax, eax
	cmp	QWORD PTR -64[rbp], 0
	jne	.L216
	mov	rax, QWORD PTR -56[rbp]
	mov	rdi, rax
	call	_ZNSt8_Rb_treeIccSt9_IdentityIcESt4lessIcESaIcEE6_M_endEv
	cmp	QWORD PTR -72[rbp], rax
	je	.L216
	mov	rbx, QWORD PTR -56[rbp]
	mov	rax, QWORD PTR -72[rbp]
	mov	rdi, rax
	call	_ZNSt8_Rb_treeIccSt9_IdentityIcESt4lessIcESaIcEE6_S_keyEPKSt18_Rb_tree_node_base
	mov	r12, rax
	mov	rdx, QWORD PTR -80[rbp]
	lea	rax, -40[rbp]
	mov	rsi, rdx
	mov	rdi, rax
	call	_ZNKSt9_IdentityIcEclERc
	mov	rdx, r12
	mov	rsi, rax
	mov	rdi, rbx
	call	_ZNKSt4lessIcEclERKcS2_
	test	al, al
	je	.L217
.L216:
	mov	eax, 1
	jmp	.L218
.L217:
	mov	eax, 0
.L218:
	mov	BYTE PTR -41[rbp], al
	mov	rax, QWORD PTR -80[rbp]
	mov	rdi, rax
	call	_ZSt7forwardIRcEOT_RNSt16remove_referenceIS1_E4typeE
	mov	rdx, rax
	mov	rax, QWORD PTR -88[rbp]
	mov	rsi, rdx
	mov	rdi, rax
	call	_ZNKSt8_Rb_treeIccSt9_IdentityIcESt4lessIcESaIcEE11_Alloc_nodeclIRcEEPSt13_Rb_tree_nodeIcEOT_
	mov	QWORD PTR -32[rbp], rax
	mov	rax, QWORD PTR -56[rbp]
	lea	rcx, 8[rax]
	movzx	eax, BYTE PTR -41[rbp]
	mov	rdx, QWORD PTR -72[rbp]
	mov	rsi, QWORD PTR -32[rbp]
	mov	edi, eax
	call	_ZSt29_Rb_tree_insert_and_rebalancebPSt18_Rb_tree_node_baseS0_RS_@PLT
	mov	rax, QWORD PTR -56[rbp]
	mov	rax, QWORD PTR 40[rax]
	lea	rdx, 1[rax]
	mov	rax, QWORD PTR -56[rbp]
	mov	QWORD PTR 40[rax], rdx
	mov	rdx, QWORD PTR -32[rbp]
	lea	rax, -40[rbp]
	mov	rsi, rdx
	mov	rdi, rax
	call	_ZNSt17_Rb_tree_iteratorIcEC1EPSt18_Rb_tree_node_base
	mov	rax, QWORD PTR -40[rbp]
	mov	rdx, QWORD PTR -24[rbp]
	sub	rdx, QWORD PTR fs:40
	je	.L220
	call	__stack_chk_fail@PLT
.L220:
	add	rsp, 80
	pop	rbx
	pop	r12
	pop	rbp
	.cfi_def_cfa 7, 8
	ret
	.cfi_endproc
.LFE11290:
	.size	_ZNSt8_Rb_treeIccSt9_IdentityIcESt4lessIcESaIcEE10_M_insert_IRcNS5_11_Alloc_nodeEEESt17_Rb_tree_iteratorIcEPSt18_Rb_tree_node_baseSC_OT_RT0_, .-_ZNSt8_Rb_treeIccSt9_IdentityIcESt4lessIcESaIcEE10_M_insert_IRcNS5_11_Alloc_nodeEEESt17_Rb_tree_iteratorIcEPSt18_Rb_tree_node_baseSC_OT_RT0_
	.section	.text._ZNSt8_Rb_treeIccSt9_IdentityIcESt4lessIcESaIcEE15_M_destroy_nodeEPSt13_Rb_tree_nodeIcE,"axG",@progbits,_ZNSt8_Rb_treeIccSt9_IdentityIcESt4lessIcESaIcEE15_M_destroy_nodeEPSt13_Rb_tree_nodeIcE,comdat
	.align 2
	.weak	_ZNSt8_Rb_treeIccSt9_IdentityIcESt4lessIcESaIcEE15_M_destroy_nodeEPSt13_Rb_tree_nodeIcE
	.type	_ZNSt8_Rb_treeIccSt9_IdentityIcESt4lessIcESaIcEE15_M_destroy_nodeEPSt13_Rb_tree_nodeIcE, @function
_ZNSt8_Rb_treeIccSt9_IdentityIcESt4lessIcESaIcEE15_M_destroy_nodeEPSt13_Rb_tree_nodeIcE:
.LFB11291:
	.cfi_startproc
	endbr64
	push	rbp
	.cfi_def_cfa_offset 16
	.cfi_offset 6, -16
	mov	rbp, rsp
	.cfi_def_cfa_register 6
	push	rbx
	sub	rsp, 24
	.cfi_offset 3, -24
	mov	QWORD PTR -24[rbp], rdi
	mov	QWORD PTR -32[rbp], rsi
	mov	rax, QWORD PTR -32[rbp]
	mov	rdi, rax
	call	_ZNSt13_Rb_tree_nodeIcE9_M_valptrEv
	mov	rbx, rax
	mov	rax, QWORD PTR -24[rbp]
	mov	rdi, rax
	call	_ZNSt8_Rb_treeIccSt9_IdentityIcESt4lessIcESaIcEE21_M_get_Node_allocatorEv
	mov	rsi, rbx
	mov	rdi, rax
	call	_ZNSt16allocator_traitsISaISt13_Rb_tree_nodeIcEEE7destroyIcEEvRS2_PT_
	nop
	mov	rbx, QWORD PTR -8[rbp]
	leave
	.cfi_def_cfa 7, 8
	ret
	.cfi_endproc
.LFE11291:
	.size	_ZNSt8_Rb_treeIccSt9_IdentityIcESt4lessIcESaIcEE15_M_destroy_nodeEPSt13_Rb_tree_nodeIcE, .-_ZNSt8_Rb_treeIccSt9_IdentityIcESt4lessIcESaIcEE15_M_destroy_nodeEPSt13_Rb_tree_nodeIcE
	.section	.text._ZNSt8_Rb_treeIccSt9_IdentityIcESt4lessIcESaIcEE11_M_put_nodeEPSt13_Rb_tree_nodeIcE,"axG",@progbits,_ZNSt8_Rb_treeIccSt9_IdentityIcESt4lessIcESaIcEE11_M_put_nodeEPSt13_Rb_tree_nodeIcE,comdat
	.align 2
	.weak	_ZNSt8_Rb_treeIccSt9_IdentityIcESt4lessIcESaIcEE11_M_put_nodeEPSt13_Rb_tree_nodeIcE
	.type	_ZNSt8_Rb_treeIccSt9_IdentityIcESt4lessIcESaIcEE11_M_put_nodeEPSt13_Rb_tree_nodeIcE, @function
_ZNSt8_Rb_treeIccSt9_IdentityIcESt4lessIcESaIcEE11_M_put_nodeEPSt13_Rb_tree_nodeIcE:
.LFB11292:
	.cfi_startproc
	.cfi_personality 0x9b,DW.ref.__gxx_personality_v0
	.cfi_lsda 0x1b,.LLSDA11292
	endbr64
	push	rbp
	.cfi_def_cfa_offset 16
	.cfi_offset 6, -16
	mov	rbp, rsp
	.cfi_def_cfa_register 6
	sub	rsp, 16
	mov	QWORD PTR -8[rbp], rdi
	mov	QWORD PTR -16[rbp], rsi
	mov	rax, QWORD PTR -8[rbp]
	mov	rdi, rax
	call	_ZNSt8_Rb_treeIccSt9_IdentityIcESt4lessIcESaIcEE21_M_get_Node_allocatorEv
	mov	rcx, rax
	mov	rax, QWORD PTR -16[rbp]
	mov	edx, 1
	mov	rsi, rax
	mov	rdi, rcx
	call	_ZNSt16allocator_traitsISaISt13_Rb_tree_nodeIcEEE10deallocateERS2_PS1_m
	nop
	leave
	.cfi_def_cfa 7, 8
	ret
	.cfi_endproc
.LFE11292:
	.section	.gcc_except_table
.LLSDA11292:
	.byte	0xff
	.byte	0xff
	.byte	0x1
	.uleb128 .LLSDACSE11292-.LLSDACSB11292
.LLSDACSB11292:
.LLSDACSE11292:
	.section	.text._ZNSt8_Rb_treeIccSt9_IdentityIcESt4lessIcESaIcEE11_M_put_nodeEPSt13_Rb_tree_nodeIcE,"axG",@progbits,_ZNSt8_Rb_treeIccSt9_IdentityIcESt4lessIcESaIcEE11_M_put_nodeEPSt13_Rb_tree_nodeIcE,comdat
	.size	_ZNSt8_Rb_treeIccSt9_IdentityIcESt4lessIcESaIcEE11_M_put_nodeEPSt13_Rb_tree_nodeIcE, .-_ZNSt8_Rb_treeIccSt9_IdentityIcESt4lessIcESaIcEE11_M_put_nodeEPSt13_Rb_tree_nodeIcE
	.section	.rodata
	.align 8
.LC1:
	.string	"basic_string::_M_construct null not valid"
	.section	.text._ZNSt7__cxx1112basic_stringIcSt11char_traitsIcESaIcEE12_M_constructISt23_Rb_tree_const_iteratorIcEEEvT_S8_St20forward_iterator_tag,"axG",@progbits,_ZNSt7__cxx1112basic_stringIcSt11char_traitsIcESaIcEE12_M_constructISt23_Rb_tree_const_iteratorIcEEEvT_S8_St20forward_iterator_tag,comdat
	.align 2
	.weak	_ZNSt7__cxx1112basic_stringIcSt11char_traitsIcESaIcEE12_M_constructISt23_Rb_tree_const_iteratorIcEEEvT_S8_St20forward_iterator_tag
	.type	_ZNSt7__cxx1112basic_stringIcSt11char_traitsIcESaIcEE12_M_constructISt23_Rb_tree_const_iteratorIcEEEvT_S8_St20forward_iterator_tag, @function
_ZNSt7__cxx1112basic_stringIcSt11char_traitsIcESaIcEE12_M_constructISt23_Rb_tree_const_iteratorIcEEEvT_S8_St20forward_iterator_tag:
.LFB11293:
	.cfi_startproc
	.cfi_personality 0x9b,DW.ref.__gxx_personality_v0
	.cfi_lsda 0x1b,.LLSDA11293
	endbr64
	push	rbp
	.cfi_def_cfa_offset 16
	.cfi_offset 6, -16
	mov	rbp, rsp
	.cfi_def_cfa_register 6
	push	rbx
	sub	rsp, 56
	.cfi_offset 3, -24
	mov	QWORD PTR -40[rbp], rdi
	mov	QWORD PTR -48[rbp], rsi
	mov	QWORD PTR -56[rbp], rdx
	mov	rax, QWORD PTR fs:40
	mov	QWORD PTR -24[rbp], rax
	xor	eax, eax
	mov	rax, QWORD PTR -48[rbp]
	mov	rdi, rax
	call	_ZN9__gnu_cxx17__is_null_pointerISt23_Rb_tree_const_iteratorIcEEEbT_
	test	al, al
	je	.L224
	lea	rdx, -56[rbp]
	lea	rax, -48[rbp]
	mov	rsi, rdx
	mov	rdi, rax
	call	_ZStneRKSt23_Rb_tree_const_iteratorIcES2_
	test	al, al
	je	.L224
	mov	eax, 1
	jmp	.L225
.L224:
	mov	eax, 0
.L225:
	test	al, al
	je	.L226
	lea	rax, .LC1[rip]
	mov	rdi, rax
.LEHB15:
	call	_ZSt19__throw_logic_errorPKc@PLT
.L226:
	mov	rdx, QWORD PTR -56[rbp]
	mov	rax, QWORD PTR -48[rbp]
	mov	rsi, rdx
	mov	rdi, rax
	call	_ZSt8distanceISt23_Rb_tree_const_iteratorIcEENSt15iterator_traitsIT_E15difference_typeES3_S3_
	mov	QWORD PTR -32[rbp], rax
	mov	rax, QWORD PTR -32[rbp]
	cmp	rax, 15
	jbe	.L227
	lea	rcx, -32[rbp]
	mov	rax, QWORD PTR -40[rbp]
	mov	edx, 0
	mov	rsi, rcx
	mov	rdi, rax
	call	_ZNSt7__cxx1112basic_stringIcSt11char_traitsIcESaIcEE9_M_createERmm@PLT
	mov	rdx, rax
	mov	rax, QWORD PTR -40[rbp]
	mov	rsi, rdx
	mov	rdi, rax
	call	_ZNSt7__cxx1112basic_stringIcSt11char_traitsIcESaIcEE7_M_dataEPc@PLT
	mov	rdx, QWORD PTR -32[rbp]
	mov	rax, QWORD PTR -40[rbp]
	mov	rsi, rdx
	mov	rdi, rax
	call	_ZNSt7__cxx1112basic_stringIcSt11char_traitsIcESaIcEE11_M_capacityEm@PLT
.LEHE15:
.L227:
	mov	rax, QWORD PTR -40[rbp]
	mov	rdi, rax
.LEHB16:
	call	_ZNKSt7__cxx1112basic_stringIcSt11char_traitsIcESaIcEE7_M_dataEv@PLT
.LEHE16:
	mov	rcx, rax
	mov	rdx, QWORD PTR -56[rbp]
	mov	rax, QWORD PTR -48[rbp]
	mov	rsi, rax
	mov	rdi, rcx
	call	_ZNSt7__cxx1112basic_stringIcSt11char_traitsIcESaIcEE13_S_copy_charsISt23_Rb_tree_const_iteratorIcEEEvPcT_S9_
	mov	rdx, QWORD PTR -32[rbp]
	mov	rax, QWORD PTR -40[rbp]
	mov	rsi, rdx
	mov	rdi, rax
.LEHB17:
	call	_ZNSt7__cxx1112basic_stringIcSt11char_traitsIcESaIcEE13_M_set_lengthEm@PLT
.LEHE17:
	nop
	mov	rax, QWORD PTR -24[rbp]
	sub	rax, QWORD PTR fs:40
	je	.L230
	jmp	.L233
.L231:
	endbr64
	mov	rdi, rax
	call	__cxa_begin_catch@PLT
	mov	rax, QWORD PTR -40[rbp]
	mov	rdi, rax
.LEHB18:
	call	_ZNSt7__cxx1112basic_stringIcSt11char_traitsIcESaIcEE10_M_disposeEv@PLT
	call	__cxa_rethrow@PLT
.LEHE18:
.L232:
	endbr64
	mov	rbx, rax
	call	__cxa_end_catch@PLT
	mov	rax, rbx
	mov	rdi, rax
.LEHB19:
	call	_Unwind_Resume@PLT
.LEHE19:
.L233:
	call	__stack_chk_fail@PLT
.L230:
	mov	rbx, QWORD PTR -8[rbp]
	leave
	.cfi_def_cfa 7, 8
	ret
	.cfi_endproc
.LFE11293:
	.section	.gcc_except_table
	.align 4
.LLSDA11293:
	.byte	0xff
	.byte	0x9b
	.uleb128 .LLSDATT11293-.LLSDATTD11293
.LLSDATTD11293:
	.byte	0x1
	.uleb128 .LLSDACSE11293-.LLSDACSB11293
.LLSDACSB11293:
	.uleb128 .LEHB15-.LFB11293
	.uleb128 .LEHE15-.LEHB15
	.uleb128 0
	.uleb128 0
	.uleb128 .LEHB16-.LFB11293
	.uleb128 .LEHE16-.LEHB16
	.uleb128 .L231-.LFB11293
	.uleb128 0x1
	.uleb128 .LEHB17-.LFB11293
	.uleb128 .LEHE17-.LEHB17
	.uleb128 0
	.uleb128 0
	.uleb128 .LEHB18-.LFB11293
	.uleb128 .LEHE18-.LEHB18
	.uleb128 .L232-.LFB11293
	.uleb128 0
	.uleb128 .LEHB19-.LFB11293
	.uleb128 .LEHE19-.LEHB19
	.uleb128 0
	.uleb128 0
.LLSDACSE11293:
	.byte	0x1
	.byte	0
	.align 4
	.long	0

.LLSDATT11293:
	.section	.text._ZNSt7__cxx1112basic_stringIcSt11char_traitsIcESaIcEE12_M_constructISt23_Rb_tree_const_iteratorIcEEEvT_S8_St20forward_iterator_tag,"axG",@progbits,_ZNSt7__cxx1112basic_stringIcSt11char_traitsIcESaIcEE12_M_constructISt23_Rb_tree_const_iteratorIcEEEvT_S8_St20forward_iterator_tag,comdat
	.size	_ZNSt7__cxx1112basic_stringIcSt11char_traitsIcESaIcEE12_M_constructISt23_Rb_tree_const_iteratorIcEEEvT_S8_St20forward_iterator_tag, .-_ZNSt7__cxx1112basic_stringIcSt11char_traitsIcESaIcEE12_M_constructISt23_Rb_tree_const_iteratorIcEEEvT_S8_St20forward_iterator_tag
	.section	.text._ZNSt8_Rb_treeIcSt4pairIKccESt10_Select1stIS2_ESt4lessIcESaIS2_EE15_M_destroy_nodeEPSt13_Rb_tree_nodeIS2_E,"axG",@progbits,_ZNSt8_Rb_treeIcSt4pairIKccESt10_Select1stIS2_ESt4lessIcESaIS2_EE15_M_destroy_nodeEPSt13_Rb_tree_nodeIS2_E,comdat
	.align 2
	.weak	_ZNSt8_Rb_treeIcSt4pairIKccESt10_Select1stIS2_ESt4lessIcESaIS2_EE15_M_destroy_nodeEPSt13_Rb_tree_nodeIS2_E
	.type	_ZNSt8_Rb_treeIcSt4pairIKccESt10_Select1stIS2_ESt4lessIcESaIS2_EE15_M_destroy_nodeEPSt13_Rb_tree_nodeIS2_E, @function
_ZNSt8_Rb_treeIcSt4pairIKccESt10_Select1stIS2_ESt4lessIcESaIS2_EE15_M_destroy_nodeEPSt13_Rb_tree_nodeIS2_E:
.LFB11294:
	.cfi_startproc
	endbr64
	push	rbp
	.cfi_def_cfa_offset 16
	.cfi_offset 6, -16
	mov	rbp, rsp
	.cfi_def_cfa_register 6
	push	rbx
	sub	rsp, 24
	.cfi_offset 3, -24
	mov	QWORD PTR -24[rbp], rdi
	mov	QWORD PTR -32[rbp], rsi
	mov	rax, QWORD PTR -32[rbp]
	mov	rdi, rax
	call	_ZNSt13_Rb_tree_nodeISt4pairIKccEE9_M_valptrEv
	mov	rbx, rax
	mov	rax, QWORD PTR -24[rbp]
	mov	rdi, rax
	call	_ZNSt8_Rb_treeIcSt4pairIKccESt10_Select1stIS2_ESt4lessIcESaIS2_EE21_M_get_Node_allocatorEv
	mov	rsi, rbx
	mov	rdi, rax
	call	_ZNSt16allocator_traitsISaISt13_Rb_tree_nodeISt4pairIKccEEEE7destroyIS3_EEvRS5_PT_
	nop
	mov	rbx, QWORD PTR -8[rbp]
	leave
	.cfi_def_cfa 7, 8
	ret
	.cfi_endproc
.LFE11294:
	.size	_ZNSt8_Rb_treeIcSt4pairIKccESt10_Select1stIS2_ESt4lessIcESaIS2_EE15_M_destroy_nodeEPSt13_Rb_tree_nodeIS2_E, .-_ZNSt8_Rb_treeIcSt4pairIKccESt10_Select1stIS2_ESt4lessIcESaIS2_EE15_M_destroy_nodeEPSt13_Rb_tree_nodeIS2_E
	.section	.text._ZNSt8_Rb_treeIcSt4pairIKccESt10_Select1stIS2_ESt4lessIcESaIS2_EE11_M_put_nodeEPSt13_Rb_tree_nodeIS2_E,"axG",@progbits,_ZNSt8_Rb_treeIcSt4pairIKccESt10_Select1stIS2_ESt4lessIcESaIS2_EE11_M_put_nodeEPSt13_Rb_tree_nodeIS2_E,comdat
	.align 2
	.weak	_ZNSt8_Rb_treeIcSt4pairIKccESt10_Select1stIS2_ESt4lessIcESaIS2_EE11_M_put_nodeEPSt13_Rb_tree_nodeIS2_E
	.type	_ZNSt8_Rb_treeIcSt4pairIKccESt10_Select1stIS2_ESt4lessIcESaIS2_EE11_M_put_nodeEPSt13_Rb_tree_nodeIS2_E, @function
_ZNSt8_Rb_treeIcSt4pairIKccESt10_Select1stIS2_ESt4lessIcESaIS2_EE11_M_put_nodeEPSt13_Rb_tree_nodeIS2_E:
.LFB11296:
	.cfi_startproc
	.cfi_personality 0x9b,DW.ref.__gxx_personality_v0
	.cfi_lsda 0x1b,.LLSDA11296
	endbr64
	push	rbp
	.cfi_def_cfa_offset 16
	.cfi_offset 6, -16
	mov	rbp, rsp
	.cfi_def_cfa_register 6
	sub	rsp, 16
	mov	QWORD PTR -8[rbp], rdi
	mov	QWORD PTR -16[rbp], rsi
	mov	rax, QWORD PTR -8[rbp]
	mov	rdi, rax
	call	_ZNSt8_Rb_treeIcSt4pairIKccESt10_Select1stIS2_ESt4lessIcESaIS2_EE21_M_get_Node_allocatorEv
	mov	rcx, rax
	mov	rax, QWORD PTR -16[rbp]
	mov	edx, 1
	mov	rsi, rax
	mov	rdi, rcx
	call	_ZNSt16allocator_traitsISaISt13_Rb_tree_nodeISt4pairIKccEEEE10deallocateERS5_PS4_m
	nop
	leave
	.cfi_def_cfa 7, 8
	ret
	.cfi_endproc
.LFE11296:
	.section	.gcc_except_table
.LLSDA11296:
	.byte	0xff
	.byte	0xff
	.byte	0x1
	.uleb128 .LLSDACSE11296-.LLSDACSB11296
.LLSDACSB11296:
.LLSDACSE11296:
	.section	.text._ZNSt8_Rb_treeIcSt4pairIKccESt10_Select1stIS2_ESt4lessIcESaIS2_EE11_M_put_nodeEPSt13_Rb_tree_nodeIS2_E,"axG",@progbits,_ZNSt8_Rb_treeIcSt4pairIKccESt10_Select1stIS2_ESt4lessIcESaIS2_EE11_M_put_nodeEPSt13_Rb_tree_nodeIS2_E,comdat
	.size	_ZNSt8_Rb_treeIcSt4pairIKccESt10_Select1stIS2_ESt4lessIcESaIS2_EE11_M_put_nodeEPSt13_Rb_tree_nodeIS2_E, .-_ZNSt8_Rb_treeIcSt4pairIKccESt10_Select1stIS2_ESt4lessIcESaIS2_EE11_M_put_nodeEPSt13_Rb_tree_nodeIS2_E
	.section	.text._ZNSt8_Rb_treeIcSt4pairIKccESt10_Select1stIS2_ESt4lessIcESaIS2_EE6_M_endEv,"axG",@progbits,_ZNSt8_Rb_treeIcSt4pairIKccESt10_Select1stIS2_ESt4lessIcESaIS2_EE6_M_endEv,comdat
	.align 2
	.weak	_ZNSt8_Rb_treeIcSt4pairIKccESt10_Select1stIS2_ESt4lessIcESaIS2_EE6_M_endEv
	.type	_ZNSt8_Rb_treeIcSt4pairIKccESt10_Select1stIS2_ESt4lessIcESaIS2_EE6_M_endEv, @function
_ZNSt8_Rb_treeIcSt4pairIKccESt10_Select1stIS2_ESt4lessIcESaIS2_EE6_M_endEv:
.LFB11297:
	.cfi_startproc
	endbr64
	push	rbp
	.cfi_def_cfa_offset 16
	.cfi_offset 6, -16
	mov	rbp, rsp
	.cfi_def_cfa_register 6
	mov	QWORD PTR -8[rbp], rdi
	mov	rax, QWORD PTR -8[rbp]
	add	rax, 8
	pop	rbp
	.cfi_def_cfa 7, 8
	ret
	.cfi_endproc
.LFE11297:
	.size	_ZNSt8_Rb_treeIcSt4pairIKccESt10_Select1stIS2_ESt4lessIcESaIS2_EE6_M_endEv, .-_ZNSt8_Rb_treeIcSt4pairIKccESt10_Select1stIS2_ESt4lessIcESaIS2_EE6_M_endEv
	.section	.text._ZNSt8_Rb_treeIcSt4pairIKccESt10_Select1stIS2_ESt4lessIcESaIS2_EE14_M_lower_boundEPSt13_Rb_tree_nodeIS2_EPSt18_Rb_tree_node_baseRS1_,"axG",@progbits,_ZNSt8_Rb_treeIcSt4pairIKccESt10_Select1stIS2_ESt4lessIcESaIS2_EE14_M_lower_boundEPSt13_Rb_tree_nodeIS2_EPSt18_Rb_tree_node_baseRS1_,comdat
	.align 2
	.weak	_ZNSt8_Rb_treeIcSt4pairIKccESt10_Select1stIS2_ESt4lessIcESaIS2_EE14_M_lower_boundEPSt13_Rb_tree_nodeIS2_EPSt18_Rb_tree_node_baseRS1_
	.type	_ZNSt8_Rb_treeIcSt4pairIKccESt10_Select1stIS2_ESt4lessIcESaIS2_EE14_M_lower_boundEPSt13_Rb_tree_nodeIS2_EPSt18_Rb_tree_node_baseRS1_, @function
_ZNSt8_Rb_treeIcSt4pairIKccESt10_Select1stIS2_ESt4lessIcESaIS2_EE14_M_lower_boundEPSt13_Rb_tree_nodeIS2_EPSt18_Rb_tree_node_baseRS1_:
.LFB11298:
	.cfi_startproc
	endbr64
	push	rbp
	.cfi_def_cfa_offset 16
	.cfi_offset 6, -16
	mov	rbp, rsp
	.cfi_def_cfa_register 6
	push	rbx
	sub	rsp, 56
	.cfi_offset 3, -24
	mov	QWORD PTR -40[rbp], rdi
	mov	QWORD PTR -48[rbp], rsi
	mov	QWORD PTR -56[rbp], rdx
	mov	QWORD PTR -64[rbp], rcx
	mov	rax, QWORD PTR fs:40
	mov	QWORD PTR -24[rbp], rax
	xor	eax, eax
	jmp	.L239
.L241:
	mov	rbx, QWORD PTR -40[rbp]
	mov	rax, QWORD PTR -48[rbp]
	mov	rdi, rax
	call	_ZNSt8_Rb_treeIcSt4pairIKccESt10_Select1stIS2_ESt4lessIcESaIS2_EE6_S_keyEPKSt13_Rb_tree_nodeIS2_E
	mov	rcx, rax
	mov	rax, QWORD PTR -64[rbp]
	mov	rdx, rax
	mov	rsi, rcx
	mov	rdi, rbx
	call	_ZNKSt4lessIcEclERKcS2_
	xor	eax, 1
	test	al, al
	je	.L240
	mov	rax, QWORD PTR -48[rbp]
	mov	QWORD PTR -56[rbp], rax
	mov	rax, QWORD PTR -48[rbp]
	mov	rdi, rax
	call	_ZNSt8_Rb_treeIcSt4pairIKccESt10_Select1stIS2_ESt4lessIcESaIS2_EE7_S_leftEPSt18_Rb_tree_node_base
	mov	QWORD PTR -48[rbp], rax
	jmp	.L239
.L240:
	mov	rax, QWORD PTR -48[rbp]
	mov	rdi, rax
	call	_ZNSt8_Rb_treeIcSt4pairIKccESt10_Select1stIS2_ESt4lessIcESaIS2_EE8_S_rightEPSt18_Rb_tree_node_base
	mov	QWORD PTR -48[rbp], rax
.L239:
	cmp	QWORD PTR -48[rbp], 0
	jne	.L241
	mov	rdx, QWORD PTR -56[rbp]
	lea	rax, -32[rbp]
	mov	rsi, rdx
	mov	rdi, rax
	call	_ZNSt17_Rb_tree_iteratorISt4pairIKccEEC1EPSt18_Rb_tree_node_base
	mov	rax, QWORD PTR -32[rbp]
	mov	rdx, QWORD PTR -24[rbp]
	sub	rdx, QWORD PTR fs:40
	je	.L243
	call	__stack_chk_fail@PLT
.L243:
	mov	rbx, QWORD PTR -8[rbp]
	leave
	.cfi_def_cfa 7, 8
	ret
	.cfi_endproc
.LFE11298:
	.size	_ZNSt8_Rb_treeIcSt4pairIKccESt10_Select1stIS2_ESt4lessIcESaIS2_EE14_M_lower_boundEPSt13_Rb_tree_nodeIS2_EPSt18_Rb_tree_node_baseRS1_, .-_ZNSt8_Rb_treeIcSt4pairIKccESt10_Select1stIS2_ESt4lessIcESaIS2_EE14_M_lower_boundEPSt13_Rb_tree_nodeIS2_EPSt18_Rb_tree_node_baseRS1_
	.section	.text._ZN9__gnu_cxx16__aligned_membufISt4pairIKccEE6_M_ptrEv,"axG",@progbits,_ZN9__gnu_cxx16__aligned_membufISt4pairIKccEE6_M_ptrEv,comdat
	.align 2
	.weak	_ZN9__gnu_cxx16__aligned_membufISt4pairIKccEE6_M_ptrEv
	.type	_ZN9__gnu_cxx16__aligned_membufISt4pairIKccEE6_M_ptrEv, @function
_ZN9__gnu_cxx16__aligned_membufISt4pairIKccEE6_M_ptrEv:
.LFB11299:
	.cfi_startproc
	endbr64
	push	rbp
	.cfi_def_cfa_offset 16
	.cfi_offset 6, -16
	mov	rbp, rsp
	.cfi_def_cfa_register 6
	sub	rsp, 16
	mov	QWORD PTR -8[rbp], rdi
	mov	rax, QWORD PTR -8[rbp]
	mov	rdi, rax
	call	_ZN9__gnu_cxx16__aligned_membufISt4pairIKccEE7_M_addrEv
	leave
	.cfi_def_cfa 7, 8
	ret
	.cfi_endproc
.LFE11299:
	.size	_ZN9__gnu_cxx16__aligned_membufISt4pairIKccEE6_M_ptrEv, .-_ZN9__gnu_cxx16__aligned_membufISt4pairIKccEE6_M_ptrEv
	.section	.text._ZNSt10_Head_baseILm0ERKcLb0EEC2ES1_,"axG",@progbits,_ZNSt10_Head_baseILm0ERKcLb0EEC5ES1_,comdat
	.align 2
	.weak	_ZNSt10_Head_baseILm0ERKcLb0EEC2ES1_
	.type	_ZNSt10_Head_baseILm0ERKcLb0EEC2ES1_, @function
_ZNSt10_Head_baseILm0ERKcLb0EEC2ES1_:
.LFB11301:
	.cfi_startproc
	endbr64
	push	rbp
	.cfi_def_cfa_offset 16
	.cfi_offset 6, -16
	mov	rbp, rsp
	.cfi_def_cfa_register 6
	mov	QWORD PTR -8[rbp], rdi
	mov	QWORD PTR -16[rbp], rsi
	mov	rax, QWORD PTR -8[rbp]
	mov	rdx, QWORD PTR -16[rbp]
	mov	QWORD PTR [rax], rdx
	nop
	pop	rbp
	.cfi_def_cfa 7, 8
	ret
	.cfi_endproc
.LFE11301:
	.size	_ZNSt10_Head_baseILm0ERKcLb0EEC2ES1_, .-_ZNSt10_Head_baseILm0ERKcLb0EEC2ES1_
	.weak	_ZNSt10_Head_baseILm0ERKcLb0EEC1ES1_
	.set	_ZNSt10_Head_baseILm0ERKcLb0EEC1ES1_,_ZNSt10_Head_baseILm0ERKcLb0EEC2ES1_
	.section	.text._ZNSt8_Rb_treeIcSt4pairIKccESt10_Select1stIS2_ESt4lessIcESaIS2_EE11_M_get_nodeEv,"axG",@progbits,_ZNSt8_Rb_treeIcSt4pairIKccESt10_Select1stIS2_ESt4lessIcESaIS2_EE11_M_get_nodeEv,comdat
	.align 2
	.weak	_ZNSt8_Rb_treeIcSt4pairIKccESt10_Select1stIS2_ESt4lessIcESaIS2_EE11_M_get_nodeEv
	.type	_ZNSt8_Rb_treeIcSt4pairIKccESt10_Select1stIS2_ESt4lessIcESaIS2_EE11_M_get_nodeEv, @function
_ZNSt8_Rb_treeIcSt4pairIKccESt10_Select1stIS2_ESt4lessIcESaIS2_EE11_M_get_nodeEv:
.LFB11303:
	.cfi_startproc
	endbr64
	push	rbp
	.cfi_def_cfa_offset 16
	.cfi_offset 6, -16
	mov	rbp, rsp
	.cfi_def_cfa_register 6
	sub	rsp, 16
	mov	QWORD PTR -8[rbp], rdi
	mov	rax, QWORD PTR -8[rbp]
	mov	rdi, rax
	call	_ZNSt8_Rb_treeIcSt4pairIKccESt10_Select1stIS2_ESt4lessIcESaIS2_EE21_M_get_Node_allocatorEv
	mov	esi, 1
	mov	rdi, rax
	call	_ZNSt16allocator_traitsISaISt13_Rb_tree_nodeISt4pairIKccEEEE8allocateERS5_m
	leave
	.cfi_def_cfa 7, 8
	ret
	.cfi_endproc
.LFE11303:
	.size	_ZNSt8_Rb_treeIcSt4pairIKccESt10_Select1stIS2_ESt4lessIcESaIS2_EE11_M_get_nodeEv, .-_ZNSt8_Rb_treeIcSt4pairIKccESt10_Select1stIS2_ESt4lessIcESaIS2_EE11_M_get_nodeEv
	.section	.text._ZNSt8_Rb_treeIcSt4pairIKccESt10_Select1stIS2_ESt4lessIcESaIS2_EE17_M_construct_nodeIJRKSt21piecewise_construct_tSt5tupleIJRS1_EESD_IJEEEEEvPSt13_Rb_tree_nodeIS2_EDpOT_,"axG",@progbits,_ZNSt8_Rb_treeIcSt4pairIKccESt10_Select1stIS2_ESt4lessIcESaIS2_EE17_M_construct_nodeIJRKSt21piecewise_construct_tSt5tupleIJRS1_EESD_IJEEEEEvPSt13_Rb_tree_nodeIS2_EDpOT_,comdat
	.align 2
	.weak	_ZNSt8_Rb_treeIcSt4pairIKccESt10_Select1stIS2_ESt4lessIcESaIS2_EE17_M_construct_nodeIJRKSt21piecewise_construct_tSt5tupleIJRS1_EESD_IJEEEEEvPSt13_Rb_tree_nodeIS2_EDpOT_
	.type	_ZNSt8_Rb_treeIcSt4pairIKccESt10_Select1stIS2_ESt4lessIcESaIS2_EE17_M_construct_nodeIJRKSt21piecewise_construct_tSt5tupleIJRS1_EESD_IJEEEEEvPSt13_Rb_tree_nodeIS2_EDpOT_, @function
_ZNSt8_Rb_treeIcSt4pairIKccESt10_Select1stIS2_ESt4lessIcESaIS2_EE17_M_construct_nodeIJRKSt21piecewise_construct_tSt5tupleIJRS1_EESD_IJEEEEEvPSt13_Rb_tree_nodeIS2_EDpOT_:
.LFB11304:
	.cfi_startproc
	.cfi_personality 0x9b,DW.ref.__gxx_personality_v0
	.cfi_lsda 0x1b,.LLSDA11304
	endbr64
	push	rbp
	.cfi_def_cfa_offset 16
	.cfi_offset 6, -16
	mov	rbp, rsp
	.cfi_def_cfa_register 6
	push	r14
	push	r13
	push	r12
	push	rbx
	sub	rsp, 48
	.cfi_offset 14, -24
	.cfi_offset 13, -32
	.cfi_offset 12, -40
	.cfi_offset 3, -48
	mov	QWORD PTR -40[rbp], rdi
	mov	QWORD PTR -48[rbp], rsi
	mov	QWORD PTR -56[rbp], rdx
	mov	QWORD PTR -64[rbp], rcx
	mov	QWORD PTR -72[rbp], r8
	mov	rax, QWORD PTR -48[rbp]
	mov	rsi, rax
	mov	edi, 40
	call	_ZnwmPv
	mov	rax, QWORD PTR -72[rbp]
	mov	rdi, rax
	call	_ZSt7forwardISt5tupleIJEEEOT_RNSt16remove_referenceIS2_E4typeE
	mov	r14, rax
	mov	rax, QWORD PTR -64[rbp]
	mov	rdi, rax
	call	_ZSt7forwardISt5tupleIJRKcEEEOT_RNSt16remove_referenceIS4_E4typeE
	mov	r13, rax
	mov	rax, QWORD PTR -56[rbp]
	mov	rdi, rax
	call	_ZSt7forwardIRKSt21piecewise_construct_tEOT_RNSt16remove_referenceIS3_E4typeE
	mov	r12, rax
	mov	rax, QWORD PTR -48[rbp]
	mov	rdi, rax
	call	_ZNSt13_Rb_tree_nodeISt4pairIKccEE9_M_valptrEv
	mov	rbx, rax
	mov	rax, QWORD PTR -40[rbp]
	mov	rdi, rax
	call	_ZNSt8_Rb_treeIcSt4pairIKccESt10_Select1stIS2_ESt4lessIcESaIS2_EE21_M_get_Node_allocatorEv
	mov	r8, r14
	mov	rcx, r13
	mov	rdx, r12
	mov	rsi, rbx
	mov	rdi, rax
.LEHB20:
	call	_ZNSt16allocator_traitsISaISt13_Rb_tree_nodeISt4pairIKccEEEE9constructIS3_JRKSt21piecewise_construct_tSt5tupleIJRS2_EESB_IJEEEEEvRS5_PT_DpOT0_
.LEHE20:
	jmp	.L254
.L252:
	endbr64
	mov	rdi, rax
	call	__cxa_begin_catch@PLT
	mov	rdx, QWORD PTR -48[rbp]
	mov	rax, QWORD PTR -40[rbp]
	mov	rsi, rdx
	mov	rdi, rax
	call	_ZNSt8_Rb_treeIcSt4pairIKccESt10_Select1stIS2_ESt4lessIcESaIS2_EE11_M_put_nodeEPSt13_Rb_tree_nodeIS2_E
.LEHB21:
	call	__cxa_rethrow@PLT
.LEHE21:
.L253:
	endbr64
	mov	rbx, rax
	call	__cxa_end_catch@PLT
	mov	rax, rbx
	mov	rdi, rax
.LEHB22:
	call	_Unwind_Resume@PLT
.LEHE22:
.L254:
	add	rsp, 48
	pop	rbx
	pop	r12
	pop	r13
	pop	r14
	pop	rbp
	.cfi_def_cfa 7, 8
	ret
	.cfi_endproc
.LFE11304:
	.section	.gcc_except_table
	.align 4
.LLSDA11304:
	.byte	0xff
	.byte	0x9b
	.uleb128 .LLSDATT11304-.LLSDATTD11304
.LLSDATTD11304:
	.byte	0x1
	.uleb128 .LLSDACSE11304-.LLSDACSB11304
.LLSDACSB11304:
	.uleb128 .LEHB20-.LFB11304
	.uleb128 .LEHE20-.LEHB20
	.uleb128 .L252-.LFB11304
	.uleb128 0x1
	.uleb128 .LEHB21-.LFB11304
	.uleb128 .LEHE21-.LEHB21
	.uleb128 .L253-.LFB11304
	.uleb128 0
	.uleb128 .LEHB22-.LFB11304
	.uleb128 .LEHE22-.LEHB22
	.uleb128 0
	.uleb128 0
.LLSDACSE11304:
	.byte	0x1
	.byte	0
	.align 4
	.long	0

.LLSDATT11304:
	.section	.text._ZNSt8_Rb_treeIcSt4pairIKccESt10_Select1stIS2_ESt4lessIcESaIS2_EE17_M_construct_nodeIJRKSt21piecewise_construct_tSt5tupleIJRS1_EESD_IJEEEEEvPSt13_Rb_tree_nodeIS2_EDpOT_,"axG",@progbits,_ZNSt8_Rb_treeIcSt4pairIKccESt10_Select1stIS2_ESt4lessIcESaIS2_EE17_M_construct_nodeIJRKSt21piecewise_construct_tSt5tupleIJRS1_EESD_IJEEEEEvPSt13_Rb_tree_nodeIS2_EDpOT_,comdat
	.size	_ZNSt8_Rb_treeIcSt4pairIKccESt10_Select1stIS2_ESt4lessIcESaIS2_EE17_M_construct_nodeIJRKSt21piecewise_construct_tSt5tupleIJRS1_EESD_IJEEEEEvPSt13_Rb_tree_nodeIS2_EDpOT_, .-_ZNSt8_Rb_treeIcSt4pairIKccESt10_Select1stIS2_ESt4lessIcESaIS2_EE17_M_construct_nodeIJRKSt21piecewise_construct_tSt5tupleIJRS1_EESD_IJEEEEEvPSt13_Rb_tree_nodeIS2_EDpOT_
	.section	.text._ZNKSt23_Rb_tree_const_iteratorISt4pairIKccEE13_M_const_castEv,"axG",@progbits,_ZNKSt23_Rb_tree_const_iteratorISt4pairIKccEE13_M_const_castEv,comdat
	.align 2
	.weak	_ZNKSt23_Rb_tree_const_iteratorISt4pairIKccEE13_M_const_castEv
	.type	_ZNKSt23_Rb_tree_const_iteratorISt4pairIKccEE13_M_const_castEv, @function
_ZNKSt23_Rb_tree_const_iteratorISt4pairIKccEE13_M_const_castEv:
.LFB11305:
	.cfi_startproc
	endbr64
	push	rbp
	.cfi_def_cfa_offset 16
	.cfi_offset 6, -16
	mov	rbp, rsp
	.cfi_def_cfa_register 6
	sub	rsp, 32
	mov	QWORD PTR -24[rbp], rdi
	mov	rax, QWORD PTR fs:40
	mov	QWORD PTR -8[rbp], rax
	xor	eax, eax
	mov	rax, QWORD PTR -24[rbp]
	mov	rdx, QWORD PTR [rax]
	lea	rax, -16[rbp]
	mov	rsi, rdx
	mov	rdi, rax
	call	_ZNSt17_Rb_tree_iteratorISt4pairIKccEEC1EPSt18_Rb_tree_node_base
	mov	rax, QWORD PTR -16[rbp]
	mov	rdx, QWORD PTR -8[rbp]
	sub	rdx, QWORD PTR fs:40
	je	.L257
	call	__stack_chk_fail@PLT
.L257:
	leave
	.cfi_def_cfa 7, 8
	ret
	.cfi_endproc
.LFE11305:
	.size	_ZNKSt23_Rb_tree_const_iteratorISt4pairIKccEE13_M_const_castEv, .-_ZNKSt23_Rb_tree_const_iteratorISt4pairIKccEE13_M_const_castEv
	.section	.text._ZNKSt8_Rb_treeIcSt4pairIKccESt10_Select1stIS2_ESt4lessIcESaIS2_EE4sizeEv,"axG",@progbits,_ZNKSt8_Rb_treeIcSt4pairIKccESt10_Select1stIS2_ESt4lessIcESaIS2_EE4sizeEv,comdat
	.align 2
	.weak	_ZNKSt8_Rb_treeIcSt4pairIKccESt10_Select1stIS2_ESt4lessIcESaIS2_EE4sizeEv
	.type	_ZNKSt8_Rb_treeIcSt4pairIKccESt10_Select1stIS2_ESt4lessIcESaIS2_EE4sizeEv, @function
_ZNKSt8_Rb_treeIcSt4pairIKccESt10_Select1stIS2_ESt4lessIcESaIS2_EE4sizeEv:
.LFB11306:
	.cfi_startproc
	endbr64
	push	rbp
	.cfi_def_cfa_offset 16
	.cfi_offset 6, -16
	mov	rbp, rsp
	.cfi_def_cfa_register 6
	mov	QWORD PTR -8[rbp], rdi
	mov	rax, QWORD PTR -8[rbp]
	mov	rax, QWORD PTR 40[rax]
	pop	rbp
	.cfi_def_cfa 7, 8
	ret
	.cfi_endproc
.LFE11306:
	.size	_ZNKSt8_Rb_treeIcSt4pairIKccESt10_Select1stIS2_ESt4lessIcESaIS2_EE4sizeEv, .-_ZNKSt8_Rb_treeIcSt4pairIKccESt10_Select1stIS2_ESt4lessIcESaIS2_EE4sizeEv
	.section	.text._ZNSt8_Rb_treeIcSt4pairIKccESt10_Select1stIS2_ESt4lessIcESaIS2_EE12_M_rightmostEv,"axG",@progbits,_ZNSt8_Rb_treeIcSt4pairIKccESt10_Select1stIS2_ESt4lessIcESaIS2_EE12_M_rightmostEv,comdat
	.align 2
	.weak	_ZNSt8_Rb_treeIcSt4pairIKccESt10_Select1stIS2_ESt4lessIcESaIS2_EE12_M_rightmostEv
	.type	_ZNSt8_Rb_treeIcSt4pairIKccESt10_Select1stIS2_ESt4lessIcESaIS2_EE12_M_rightmostEv, @function
_ZNSt8_Rb_treeIcSt4pairIKccESt10_Select1stIS2_ESt4lessIcESaIS2_EE12_M_rightmostEv:
.LFB11307:
	.cfi_startproc
	endbr64
	push	rbp
	.cfi_def_cfa_offset 16
	.cfi_offset 6, -16
	mov	rbp, rsp
	.cfi_def_cfa_register 6
	mov	QWORD PTR -8[rbp], rdi
	mov	rax, QWORD PTR -8[rbp]
	add	rax, 32
	pop	rbp
	.cfi_def_cfa 7, 8
	ret
	.cfi_endproc
.LFE11307:
	.size	_ZNSt8_Rb_treeIcSt4pairIKccESt10_Select1stIS2_ESt4lessIcESaIS2_EE12_M_rightmostEv, .-_ZNSt8_Rb_treeIcSt4pairIKccESt10_Select1stIS2_ESt4lessIcESaIS2_EE12_M_rightmostEv
	.section	.text._ZNSt8_Rb_treeIcSt4pairIKccESt10_Select1stIS2_ESt4lessIcESaIS2_EE6_S_keyEPKSt18_Rb_tree_node_base,"axG",@progbits,_ZNSt8_Rb_treeIcSt4pairIKccESt10_Select1stIS2_ESt4lessIcESaIS2_EE6_S_keyEPKSt18_Rb_tree_node_base,comdat
	.weak	_ZNSt8_Rb_treeIcSt4pairIKccESt10_Select1stIS2_ESt4lessIcESaIS2_EE6_S_keyEPKSt18_Rb_tree_node_base
	.type	_ZNSt8_Rb_treeIcSt4pairIKccESt10_Select1stIS2_ESt4lessIcESaIS2_EE6_S_keyEPKSt18_Rb_tree_node_base, @function
_ZNSt8_Rb_treeIcSt4pairIKccESt10_Select1stIS2_ESt4lessIcESaIS2_EE6_S_keyEPKSt18_Rb_tree_node_base:
.LFB11308:
	.cfi_startproc
	endbr64
	push	rbp
	.cfi_def_cfa_offset 16
	.cfi_offset 6, -16
	mov	rbp, rsp
	.cfi_def_cfa_register 6
	sub	rsp, 16
	mov	QWORD PTR -8[rbp], rdi
	mov	rax, QWORD PTR -8[rbp]
	mov	rdi, rax
	call	_ZNSt8_Rb_treeIcSt4pairIKccESt10_Select1stIS2_ESt4lessIcESaIS2_EE6_S_keyEPKSt13_Rb_tree_nodeIS2_E
	leave
	.cfi_def_cfa 7, 8
	ret
	.cfi_endproc
.LFE11308:
	.size	_ZNSt8_Rb_treeIcSt4pairIKccESt10_Select1stIS2_ESt4lessIcESaIS2_EE6_S_keyEPKSt18_Rb_tree_node_base, .-_ZNSt8_Rb_treeIcSt4pairIKccESt10_Select1stIS2_ESt4lessIcESaIS2_EE6_S_keyEPKSt18_Rb_tree_node_base
	.section	.text._ZNSt4pairIPSt18_Rb_tree_node_baseS1_EC2IRS1_Lb1EEERKS1_OT_,"axG",@progbits,_ZNSt4pairIPSt18_Rb_tree_node_baseS1_EC5IRS1_Lb1EEERKS1_OT_,comdat
	.align 2
	.weak	_ZNSt4pairIPSt18_Rb_tree_node_baseS1_EC2IRS1_Lb1EEERKS1_OT_
	.type	_ZNSt4pairIPSt18_Rb_tree_node_baseS1_EC2IRS1_Lb1EEERKS1_OT_, @function
_ZNSt4pairIPSt18_Rb_tree_node_baseS1_EC2IRS1_Lb1EEERKS1_OT_:
.LFB11310:
	.cfi_startproc
	endbr64
	push	rbp
	.cfi_def_cfa_offset 16
	.cfi_offset 6, -16
	mov	rbp, rsp
	.cfi_def_cfa_register 6
	sub	rsp, 32
	mov	QWORD PTR -8[rbp], rdi
	mov	QWORD PTR -16[rbp], rsi
	mov	QWORD PTR -24[rbp], rdx
	mov	rax, QWORD PTR -16[rbp]
	mov	rdx, QWORD PTR [rax]
	mov	rax, QWORD PTR -8[rbp]
	mov	QWORD PTR [rax], rdx
	mov	rax, QWORD PTR -24[rbp]
	mov	rdi, rax
	call	_ZSt7forwardIRPSt18_Rb_tree_node_baseEOT_RNSt16remove_referenceIS3_E4typeE
	mov	rdx, QWORD PTR [rax]
	mov	rax, QWORD PTR -8[rbp]
	mov	QWORD PTR 8[rax], rdx
	nop
	leave
	.cfi_def_cfa 7, 8
	ret
	.cfi_endproc
.LFE11310:
	.size	_ZNSt4pairIPSt18_Rb_tree_node_baseS1_EC2IRS1_Lb1EEERKS1_OT_, .-_ZNSt4pairIPSt18_Rb_tree_node_baseS1_EC2IRS1_Lb1EEERKS1_OT_
	.weak	_ZNSt4pairIPSt18_Rb_tree_node_baseS1_EC1IRS1_Lb1EEERKS1_OT_
	.set	_ZNSt4pairIPSt18_Rb_tree_node_baseS1_EC1IRS1_Lb1EEERKS1_OT_,_ZNSt4pairIPSt18_Rb_tree_node_baseS1_EC2IRS1_Lb1EEERKS1_OT_
	.section	.text._ZNSt8_Rb_treeIcSt4pairIKccESt10_Select1stIS2_ESt4lessIcESaIS2_EE24_M_get_insert_unique_posERS1_,"axG",@progbits,_ZNSt8_Rb_treeIcSt4pairIKccESt10_Select1stIS2_ESt4lessIcESaIS2_EE24_M_get_insert_unique_posERS1_,comdat
	.align 2
	.weak	_ZNSt8_Rb_treeIcSt4pairIKccESt10_Select1stIS2_ESt4lessIcESaIS2_EE24_M_get_insert_unique_posERS1_
	.type	_ZNSt8_Rb_treeIcSt4pairIKccESt10_Select1stIS2_ESt4lessIcESaIS2_EE24_M_get_insert_unique_posERS1_, @function
_ZNSt8_Rb_treeIcSt4pairIKccESt10_Select1stIS2_ESt4lessIcESaIS2_EE24_M_get_insert_unique_posERS1_:
.LFB11312:
	.cfi_startproc
	endbr64
	push	rbp
	.cfi_def_cfa_offset 16
	.cfi_offset 6, -16
	mov	rbp, rsp
	.cfi_def_cfa_register 6
	push	rbx
	sub	rsp, 104
	.cfi_offset 3, -24
	mov	QWORD PTR -104[rbp], rdi
	mov	QWORD PTR -112[rbp], rsi
	mov	rax, QWORD PTR fs:40
	mov	QWORD PTR -24[rbp], rax
	xor	eax, eax
	mov	rax, QWORD PTR -104[rbp]
	mov	rdi, rax
	call	_ZNSt8_Rb_treeIcSt4pairIKccESt10_Select1stIS2_ESt4lessIcESaIS2_EE8_M_beginEv
	mov	QWORD PTR -80[rbp], rax
	mov	rax, QWORD PTR -104[rbp]
	mov	rdi, rax
	call	_ZNSt8_Rb_treeIcSt4pairIKccESt10_Select1stIS2_ESt4lessIcESaIS2_EE6_M_endEv
	mov	QWORD PTR -72[rbp], rax
	mov	BYTE PTR -81[rbp], 1
	jmp	.L266
.L269:
	mov	rax, QWORD PTR -80[rbp]
	mov	QWORD PTR -72[rbp], rax
	mov	rbx, QWORD PTR -104[rbp]
	mov	rax, QWORD PTR -80[rbp]
	mov	rdi, rax
	call	_ZNSt8_Rb_treeIcSt4pairIKccESt10_Select1stIS2_ESt4lessIcESaIS2_EE6_S_keyEPKSt13_Rb_tree_nodeIS2_E
	mov	rdx, rax
	mov	rax, QWORD PTR -112[rbp]
	mov	rsi, rax
	mov	rdi, rbx
	call	_ZNKSt4lessIcEclERKcS2_
	mov	BYTE PTR -81[rbp], al
	cmp	BYTE PTR -81[rbp], 0
	je	.L267
	mov	rax, QWORD PTR -80[rbp]
	mov	rdi, rax
	call	_ZNSt8_Rb_treeIcSt4pairIKccESt10_Select1stIS2_ESt4lessIcESaIS2_EE7_S_leftEPSt18_Rb_tree_node_base
	jmp	.L268
.L267:
	mov	rax, QWORD PTR -80[rbp]
	mov	rdi, rax
	call	_ZNSt8_Rb_treeIcSt4pairIKccESt10_Select1stIS2_ESt4lessIcESaIS2_EE8_S_rightEPSt18_Rb_tree_node_base
.L268:
	mov	QWORD PTR -80[rbp], rax
.L266:
	mov	rax, QWORD PTR -80[rbp]
	test	rax, rax
	jne	.L269
	mov	rdx, QWORD PTR -72[rbp]
	lea	rax, -64[rbp]
	mov	rsi, rdx
	mov	rdi, rax
	call	_ZNSt17_Rb_tree_iteratorISt4pairIKccEEC1EPSt18_Rb_tree_node_base
	cmp	BYTE PTR -81[rbp], 0
	je	.L270
	mov	rax, QWORD PTR -104[rbp]
	mov	rdi, rax
	call	_ZNSt8_Rb_treeIcSt4pairIKccESt10_Select1stIS2_ESt4lessIcESaIS2_EE5beginEv
	mov	QWORD PTR -48[rbp], rax
	lea	rdx, -48[rbp]
	lea	rax, -64[rbp]
	mov	rsi, rdx
	mov	rdi, rax
	call	_ZSteqRKSt17_Rb_tree_iteratorISt4pairIKccEES5_
	test	al, al
	je	.L271
	lea	rdx, -72[rbp]
	lea	rcx, -80[rbp]
	lea	rax, -48[rbp]
	mov	rsi, rcx
	mov	rdi, rax
	call	_ZNSt4pairIPSt18_Rb_tree_node_baseS1_EC1IRPSt13_Rb_tree_nodeIS_IKccEERS1_Lb1EEEOT_OT0_
	mov	rax, QWORD PTR -48[rbp]
	mov	rdx, QWORD PTR -40[rbp]
	jmp	.L274
.L271:
	lea	rax, -64[rbp]
	mov	rdi, rax
	call	_ZNSt17_Rb_tree_iteratorISt4pairIKccEEmmEv
.L270:
	mov	rbx, QWORD PTR -104[rbp]
	mov	rax, QWORD PTR -64[rbp]
	mov	rdi, rax
	call	_ZNSt8_Rb_treeIcSt4pairIKccESt10_Select1stIS2_ESt4lessIcESaIS2_EE6_S_keyEPKSt18_Rb_tree_node_base
	mov	rcx, rax
	mov	rax, QWORD PTR -112[rbp]
	mov	rdx, rax
	mov	rsi, rcx
	mov	rdi, rbx
	call	_ZNKSt4lessIcEclERKcS2_
	test	al, al
	je	.L273
	lea	rdx, -72[rbp]
	lea	rcx, -80[rbp]
	lea	rax, -48[rbp]
	mov	rsi, rcx
	mov	rdi, rax
	call	_ZNSt4pairIPSt18_Rb_tree_node_baseS1_EC1IRPSt13_Rb_tree_nodeIS_IKccEERS1_Lb1EEEOT_OT0_
	mov	rax, QWORD PTR -48[rbp]
	mov	rdx, QWORD PTR -40[rbp]
	jmp	.L274
.L273:
	mov	QWORD PTR -56[rbp], 0
	lea	rdx, -56[rbp]
	lea	rcx, -64[rbp]
	lea	rax, -48[rbp]
	mov	rsi, rcx
	mov	rdi, rax
	call	_ZNSt4pairIPSt18_Rb_tree_node_baseS1_EC1IRS1_Lb1EEEOT_RKS1_
	mov	rax, QWORD PTR -48[rbp]
	mov	rdx, QWORD PTR -40[rbp]
.L274:
	mov	rcx, QWORD PTR -24[rbp]
	sub	rcx, QWORD PTR fs:40
	je	.L275
	call	__stack_chk_fail@PLT
.L275:
	mov	rbx, QWORD PTR -8[rbp]
	leave
	.cfi_def_cfa 7, 8
	ret
	.cfi_endproc
.LFE11312:
	.size	_ZNSt8_Rb_treeIcSt4pairIKccESt10_Select1stIS2_ESt4lessIcESaIS2_EE24_M_get_insert_unique_posERS1_, .-_ZNSt8_Rb_treeIcSt4pairIKccESt10_Select1stIS2_ESt4lessIcESaIS2_EE24_M_get_insert_unique_posERS1_
	.section	.text._ZNSt8_Rb_treeIcSt4pairIKccESt10_Select1stIS2_ESt4lessIcESaIS2_EE11_M_leftmostEv,"axG",@progbits,_ZNSt8_Rb_treeIcSt4pairIKccESt10_Select1stIS2_ESt4lessIcESaIS2_EE11_M_leftmostEv,comdat
	.align 2
	.weak	_ZNSt8_Rb_treeIcSt4pairIKccESt10_Select1stIS2_ESt4lessIcESaIS2_EE11_M_leftmostEv
	.type	_ZNSt8_Rb_treeIcSt4pairIKccESt10_Select1stIS2_ESt4lessIcESaIS2_EE11_M_leftmostEv, @function
_ZNSt8_Rb_treeIcSt4pairIKccESt10_Select1stIS2_ESt4lessIcESaIS2_EE11_M_leftmostEv:
.LFB11317:
	.cfi_startproc
	endbr64
	push	rbp
	.cfi_def_cfa_offset 16
	.cfi_offset 6, -16
	mov	rbp, rsp
	.cfi_def_cfa_register 6
	mov	QWORD PTR -8[rbp], rdi
	mov	rax, QWORD PTR -8[rbp]
	add	rax, 24
	pop	rbp
	.cfi_def_cfa 7, 8
	ret
	.cfi_endproc
.LFE11317:
	.size	_ZNSt8_Rb_treeIcSt4pairIKccESt10_Select1stIS2_ESt4lessIcESaIS2_EE11_M_leftmostEv, .-_ZNSt8_Rb_treeIcSt4pairIKccESt10_Select1stIS2_ESt4lessIcESaIS2_EE11_M_leftmostEv
	.section	.text._ZNSt4pairIPSt18_Rb_tree_node_baseS1_EC2IRS1_S4_Lb1EEEOT_OT0_,"axG",@progbits,_ZNSt4pairIPSt18_Rb_tree_node_baseS1_EC5IRS1_S4_Lb1EEEOT_OT0_,comdat
	.align 2
	.weak	_ZNSt4pairIPSt18_Rb_tree_node_baseS1_EC2IRS1_S4_Lb1EEEOT_OT0_
	.type	_ZNSt4pairIPSt18_Rb_tree_node_baseS1_EC2IRS1_S4_Lb1EEEOT_OT0_, @function
_ZNSt4pairIPSt18_Rb_tree_node_baseS1_EC2IRS1_S4_Lb1EEEOT_OT0_:
.LFB11319:
	.cfi_startproc
	endbr64
	push	rbp
	.cfi_def_cfa_offset 16
	.cfi_offset 6, -16
	mov	rbp, rsp
	.cfi_def_cfa_register 6
	sub	rsp, 32
	mov	QWORD PTR -8[rbp], rdi
	mov	QWORD PTR -16[rbp], rsi
	mov	QWORD PTR -24[rbp], rdx
	mov	rax, QWORD PTR -16[rbp]
	mov	rdi, rax
	call	_ZSt7forwardIRPSt18_Rb_tree_node_baseEOT_RNSt16remove_referenceIS3_E4typeE
	mov	rdx, QWORD PTR [rax]
	mov	rax, QWORD PTR -8[rbp]
	mov	QWORD PTR [rax], rdx
	mov	rax, QWORD PTR -24[rbp]
	mov	rdi, rax
	call	_ZSt7forwardIRPSt18_Rb_tree_node_baseEOT_RNSt16remove_referenceIS3_E4typeE
	mov	rdx, QWORD PTR [rax]
	mov	rax, QWORD PTR -8[rbp]
	mov	QWORD PTR 8[rax], rdx
	nop
	leave
	.cfi_def_cfa 7, 8
	ret
	.cfi_endproc
.LFE11319:
	.size	_ZNSt4pairIPSt18_Rb_tree_node_baseS1_EC2IRS1_S4_Lb1EEEOT_OT0_, .-_ZNSt4pairIPSt18_Rb_tree_node_baseS1_EC2IRS1_S4_Lb1EEEOT_OT0_
	.weak	_ZNSt4pairIPSt18_Rb_tree_node_baseS1_EC1IRS1_S4_Lb1EEEOT_OT0_
	.set	_ZNSt4pairIPSt18_Rb_tree_node_baseS1_EC1IRS1_S4_Lb1EEEOT_OT0_,_ZNSt4pairIPSt18_Rb_tree_node_baseS1_EC2IRS1_S4_Lb1EEEOT_OT0_
	.section	.text._ZNSt17_Rb_tree_iteratorISt4pairIKccEEmmEv,"axG",@progbits,_ZNSt17_Rb_tree_iteratorISt4pairIKccEEmmEv,comdat
	.align 2
	.weak	_ZNSt17_Rb_tree_iteratorISt4pairIKccEEmmEv
	.type	_ZNSt17_Rb_tree_iteratorISt4pairIKccEEmmEv, @function
_ZNSt17_Rb_tree_iteratorISt4pairIKccEEmmEv:
.LFB11321:
	.cfi_startproc
	endbr64
	push	rbp
	.cfi_def_cfa_offset 16
	.cfi_offset 6, -16
	mov	rbp, rsp
	.cfi_def_cfa_register 6
	sub	rsp, 16
	mov	QWORD PTR -8[rbp], rdi
	mov	rax, QWORD PTR -8[rbp]
	mov	rax, QWORD PTR [rax]
	mov	rdi, rax
	call	_ZSt18_Rb_tree_decrementPSt18_Rb_tree_node_base@PLT
	mov	rdx, QWORD PTR -8[rbp]
	mov	QWORD PTR [rdx], rax
	mov	rax, QWORD PTR -8[rbp]
	leave
	.cfi_def_cfa 7, 8
	ret
	.cfi_endproc
.LFE11321:
	.size	_ZNSt17_Rb_tree_iteratorISt4pairIKccEEmmEv, .-_ZNSt17_Rb_tree_iteratorISt4pairIKccEEmmEv
	.section	.text._ZNSt17_Rb_tree_iteratorISt4pairIKccEEppEv,"axG",@progbits,_ZNSt17_Rb_tree_iteratorISt4pairIKccEEppEv,comdat
	.align 2
	.weak	_ZNSt17_Rb_tree_iteratorISt4pairIKccEEppEv
	.type	_ZNSt17_Rb_tree_iteratorISt4pairIKccEEppEv, @function
_ZNSt17_Rb_tree_iteratorISt4pairIKccEEppEv:
.LFB11322:
	.cfi_startproc
	endbr64
	push	rbp
	.cfi_def_cfa_offset 16
	.cfi_offset 6, -16
	mov	rbp, rsp
	.cfi_def_cfa_register 6
	sub	rsp, 16
	mov	QWORD PTR -8[rbp], rdi
	mov	rax, QWORD PTR -8[rbp]
	mov	rax, QWORD PTR [rax]
	mov	rdi, rax
	call	_ZSt18_Rb_tree_incrementPSt18_Rb_tree_node_base@PLT
	mov	rdx, QWORD PTR -8[rbp]
	mov	QWORD PTR [rdx], rax
	mov	rax, QWORD PTR -8[rbp]
	leave
	.cfi_def_cfa 7, 8
	ret
	.cfi_endproc
.LFE11322:
	.size	_ZNSt17_Rb_tree_iteratorISt4pairIKccEEppEv, .-_ZNSt17_Rb_tree_iteratorISt4pairIKccEEppEv
	.section	.text._ZNSt4pairIPSt18_Rb_tree_node_baseS1_EC2IRS1_Lb1EEEOT_RKS1_,"axG",@progbits,_ZNSt4pairIPSt18_Rb_tree_node_baseS1_EC5IRS1_Lb1EEEOT_RKS1_,comdat
	.align 2
	.weak	_ZNSt4pairIPSt18_Rb_tree_node_baseS1_EC2IRS1_Lb1EEEOT_RKS1_
	.type	_ZNSt4pairIPSt18_Rb_tree_node_baseS1_EC2IRS1_Lb1EEEOT_RKS1_, @function
_ZNSt4pairIPSt18_Rb_tree_node_baseS1_EC2IRS1_Lb1EEEOT_RKS1_:
.LFB11324:
	.cfi_startproc
	endbr64
	push	rbp
	.cfi_def_cfa_offset 16
	.cfi_offset 6, -16
	mov	rbp, rsp
	.cfi_def_cfa_register 6
	sub	rsp, 32
	mov	QWORD PTR -8[rbp], rdi
	mov	QWORD PTR -16[rbp], rsi
	mov	QWORD PTR -24[rbp], rdx
	mov	rax, QWORD PTR -16[rbp]
	mov	rdi, rax
	call	_ZSt7forwardIRPSt18_Rb_tree_node_baseEOT_RNSt16remove_referenceIS3_E4typeE
	mov	rdx, QWORD PTR [rax]
	mov	rax, QWORD PTR -8[rbp]
	mov	QWORD PTR [rax], rdx
	mov	rax, QWORD PTR -24[rbp]
	mov	rdx, QWORD PTR [rax]
	mov	rax, QWORD PTR -8[rbp]
	mov	QWORD PTR 8[rax], rdx
	nop
	leave
	.cfi_def_cfa 7, 8
	ret
	.cfi_endproc
.LFE11324:
	.size	_ZNSt4pairIPSt18_Rb_tree_node_baseS1_EC2IRS1_Lb1EEEOT_RKS1_, .-_ZNSt4pairIPSt18_Rb_tree_node_baseS1_EC2IRS1_Lb1EEEOT_RKS1_
	.weak	_ZNSt4pairIPSt18_Rb_tree_node_baseS1_EC1IRS1_Lb1EEEOT_RKS1_
	.set	_ZNSt4pairIPSt18_Rb_tree_node_baseS1_EC1IRS1_Lb1EEEOT_RKS1_,_ZNSt4pairIPSt18_Rb_tree_node_baseS1_EC2IRS1_Lb1EEEOT_RKS1_
	.section	.text._ZNKSt13_Rb_tree_nodeISt4pairIKccEE9_M_valptrEv,"axG",@progbits,_ZNKSt13_Rb_tree_nodeISt4pairIKccEE9_M_valptrEv,comdat
	.align 2
	.weak	_ZNKSt13_Rb_tree_nodeISt4pairIKccEE9_M_valptrEv
	.type	_ZNKSt13_Rb_tree_nodeISt4pairIKccEE9_M_valptrEv, @function
_ZNKSt13_Rb_tree_nodeISt4pairIKccEE9_M_valptrEv:
.LFB11326:
	.cfi_startproc
	endbr64
	push	rbp
	.cfi_def_cfa_offset 16
	.cfi_offset 6, -16
	mov	rbp, rsp
	.cfi_def_cfa_register 6
	sub	rsp, 16
	mov	QWORD PTR -8[rbp], rdi
	mov	rax, QWORD PTR -8[rbp]
	add	rax, 32
	mov	rdi, rax
	call	_ZNK9__gnu_cxx16__aligned_membufISt4pairIKccEE6_M_ptrEv
	leave
	.cfi_def_cfa 7, 8
	ret
	.cfi_endproc
.LFE11326:
	.size	_ZNKSt13_Rb_tree_nodeISt4pairIKccEE9_M_valptrEv, .-_ZNKSt13_Rb_tree_nodeISt4pairIKccEE9_M_valptrEv
	.section	.text._ZNKSt10_Select1stISt4pairIKccEEclERKS2_,"axG",@progbits,_ZNKSt10_Select1stISt4pairIKccEEclERKS2_,comdat
	.align 2
	.weak	_ZNKSt10_Select1stISt4pairIKccEEclERKS2_
	.type	_ZNKSt10_Select1stISt4pairIKccEEclERKS2_, @function
_ZNKSt10_Select1stISt4pairIKccEEclERKS2_:
.LFB11327:
	.cfi_startproc
	endbr64
	push	rbp
	.cfi_def_cfa_offset 16
	.cfi_offset 6, -16
	mov	rbp, rsp
	.cfi_def_cfa_register 6
	mov	QWORD PTR -8[rbp], rdi
	mov	QWORD PTR -16[rbp], rsi
	mov	rax, QWORD PTR -16[rbp]
	pop	rbp
	.cfi_def_cfa 7, 8
	ret
	.cfi_endproc
.LFE11327:
	.size	_ZNKSt10_Select1stISt4pairIKccEEclERKS2_, .-_ZNKSt10_Select1stISt4pairIKccEEclERKS2_
	.section	.text._ZNKSt23_Rb_tree_const_iteratorIcE13_M_const_castEv,"axG",@progbits,_ZNKSt23_Rb_tree_const_iteratorIcE13_M_const_castEv,comdat
	.align 2
	.weak	_ZNKSt23_Rb_tree_const_iteratorIcE13_M_const_castEv
	.type	_ZNKSt23_Rb_tree_const_iteratorIcE13_M_const_castEv, @function
_ZNKSt23_Rb_tree_const_iteratorIcE13_M_const_castEv:
.LFB11412:
	.cfi_startproc
	endbr64
	push	rbp
	.cfi_def_cfa_offset 16
	.cfi_offset 6, -16
	mov	rbp, rsp
	.cfi_def_cfa_register 6
	sub	rsp, 32
	mov	QWORD PTR -24[rbp], rdi
	mov	rax, QWORD PTR fs:40
	mov	QWORD PTR -8[rbp], rax
	xor	eax, eax
	mov	rax, QWORD PTR -24[rbp]
	mov	rdx, QWORD PTR [rax]
	lea	rax, -16[rbp]
	mov	rsi, rdx
	mov	rdi, rax
	call	_ZNSt17_Rb_tree_iteratorIcEC1EPSt18_Rb_tree_node_base
	mov	rax, QWORD PTR -16[rbp]
	mov	rdx, QWORD PTR -8[rbp]
	sub	rdx, QWORD PTR fs:40
	je	.L290
	call	__stack_chk_fail@PLT
.L290:
	leave
	.cfi_def_cfa 7, 8
	ret
	.cfi_endproc
.LFE11412:
	.size	_ZNKSt23_Rb_tree_const_iteratorIcE13_M_const_castEv, .-_ZNKSt23_Rb_tree_const_iteratorIcE13_M_const_castEv
	.section	.text._ZNSt8_Rb_treeIccSt9_IdentityIcESt4lessIcESaIcEE6_M_endEv,"axG",@progbits,_ZNSt8_Rb_treeIccSt9_IdentityIcESt4lessIcESaIcEE6_M_endEv,comdat
	.align 2
	.weak	_ZNSt8_Rb_treeIccSt9_IdentityIcESt4lessIcESaIcEE6_M_endEv
	.type	_ZNSt8_Rb_treeIccSt9_IdentityIcESt4lessIcESaIcEE6_M_endEv, @function
_ZNSt8_Rb_treeIccSt9_IdentityIcESt4lessIcESaIcEE6_M_endEv:
.LFB11413:
	.cfi_startproc
	endbr64
	push	rbp
	.cfi_def_cfa_offset 16
	.cfi_offset 6, -16
	mov	rbp, rsp
	.cfi_def_cfa_register 6
	mov	QWORD PTR -8[rbp], rdi
	mov	rax, QWORD PTR -8[rbp]
	add	rax, 8
	pop	rbp
	.cfi_def_cfa 7, 8
	ret
	.cfi_endproc
.LFE11413:
	.size	_ZNSt8_Rb_treeIccSt9_IdentityIcESt4lessIcESaIcEE6_M_endEv, .-_ZNSt8_Rb_treeIccSt9_IdentityIcESt4lessIcESaIcEE6_M_endEv
	.section	.text._ZNKSt8_Rb_treeIccSt9_IdentityIcESt4lessIcESaIcEE4sizeEv,"axG",@progbits,_ZNKSt8_Rb_treeIccSt9_IdentityIcESt4lessIcESaIcEE4sizeEv,comdat
	.align 2
	.weak	_ZNKSt8_Rb_treeIccSt9_IdentityIcESt4lessIcESaIcEE4sizeEv
	.type	_ZNKSt8_Rb_treeIccSt9_IdentityIcESt4lessIcESaIcEE4sizeEv, @function
_ZNKSt8_Rb_treeIccSt9_IdentityIcESt4lessIcESaIcEE4sizeEv:
.LFB11414:
	.cfi_startproc
	endbr64
	push	rbp
	.cfi_def_cfa_offset 16
	.cfi_offset 6, -16
	mov	rbp, rsp
	.cfi_def_cfa_register 6
	mov	QWORD PTR -8[rbp], rdi
	mov	rax, QWORD PTR -8[rbp]
	mov	rax, QWORD PTR 40[rax]
	pop	rbp
	.cfi_def_cfa 7, 8
	ret
	.cfi_endproc
.LFE11414:
	.size	_ZNKSt8_Rb_treeIccSt9_IdentityIcESt4lessIcESaIcEE4sizeEv, .-_ZNKSt8_Rb_treeIccSt9_IdentityIcESt4lessIcESaIcEE4sizeEv
	.section	.text._ZNSt8_Rb_treeIccSt9_IdentityIcESt4lessIcESaIcEE12_M_rightmostEv,"axG",@progbits,_ZNSt8_Rb_treeIccSt9_IdentityIcESt4lessIcESaIcEE12_M_rightmostEv,comdat
	.align 2
	.weak	_ZNSt8_Rb_treeIccSt9_IdentityIcESt4lessIcESaIcEE12_M_rightmostEv
	.type	_ZNSt8_Rb_treeIccSt9_IdentityIcESt4lessIcESaIcEE12_M_rightmostEv, @function
_ZNSt8_Rb_treeIccSt9_IdentityIcESt4lessIcESaIcEE12_M_rightmostEv:
.LFB11415:
	.cfi_startproc
	endbr64
	push	rbp
	.cfi_def_cfa_offset 16
	.cfi_offset 6, -16
	mov	rbp, rsp
	.cfi_def_cfa_register 6
	mov	QWORD PTR -8[rbp], rdi
	mov	rax, QWORD PTR -8[rbp]
	add	rax, 32
	pop	rbp
	.cfi_def_cfa 7, 8
	ret
	.cfi_endproc
.LFE11415:
	.size	_ZNSt8_Rb_treeIccSt9_IdentityIcESt4lessIcESaIcEE12_M_rightmostEv, .-_ZNSt8_Rb_treeIccSt9_IdentityIcESt4lessIcESaIcEE12_M_rightmostEv
	.section	.text._ZNSt8_Rb_treeIccSt9_IdentityIcESt4lessIcESaIcEE6_S_keyEPKSt18_Rb_tree_node_base,"axG",@progbits,_ZNSt8_Rb_treeIccSt9_IdentityIcESt4lessIcESaIcEE6_S_keyEPKSt18_Rb_tree_node_base,comdat
	.weak	_ZNSt8_Rb_treeIccSt9_IdentityIcESt4lessIcESaIcEE6_S_keyEPKSt18_Rb_tree_node_base
	.type	_ZNSt8_Rb_treeIccSt9_IdentityIcESt4lessIcESaIcEE6_S_keyEPKSt18_Rb_tree_node_base, @function
_ZNSt8_Rb_treeIccSt9_IdentityIcESt4lessIcESaIcEE6_S_keyEPKSt18_Rb_tree_node_base:
.LFB11416:
	.cfi_startproc
	endbr64
	push	rbp
	.cfi_def_cfa_offset 16
	.cfi_offset 6, -16
	mov	rbp, rsp
	.cfi_def_cfa_register 6
	sub	rsp, 16
	mov	QWORD PTR -8[rbp], rdi
	mov	rax, QWORD PTR -8[rbp]
	mov	rdi, rax
	call	_ZNSt8_Rb_treeIccSt9_IdentityIcESt4lessIcESaIcEE6_S_keyEPKSt13_Rb_tree_nodeIcE
	leave
	.cfi_def_cfa 7, 8
	ret
	.cfi_endproc
.LFE11416:
	.size	_ZNSt8_Rb_treeIccSt9_IdentityIcESt4lessIcESaIcEE6_S_keyEPKSt18_Rb_tree_node_base, .-_ZNSt8_Rb_treeIccSt9_IdentityIcESt4lessIcESaIcEE6_S_keyEPKSt18_Rb_tree_node_base
	.section	.text._ZNSt8_Rb_treeIccSt9_IdentityIcESt4lessIcESaIcEE24_M_get_insert_unique_posERKc,"axG",@progbits,_ZNSt8_Rb_treeIccSt9_IdentityIcESt4lessIcESaIcEE24_M_get_insert_unique_posERKc,comdat
	.align 2
	.weak	_ZNSt8_Rb_treeIccSt9_IdentityIcESt4lessIcESaIcEE24_M_get_insert_unique_posERKc
	.type	_ZNSt8_Rb_treeIccSt9_IdentityIcESt4lessIcESaIcEE24_M_get_insert_unique_posERKc, @function
_ZNSt8_Rb_treeIccSt9_IdentityIcESt4lessIcESaIcEE24_M_get_insert_unique_posERKc:
.LFB11417:
	.cfi_startproc
	endbr64
	push	rbp
	.cfi_def_cfa_offset 16
	.cfi_offset 6, -16
	mov	rbp, rsp
	.cfi_def_cfa_register 6
	push	rbx
	sub	rsp, 104
	.cfi_offset 3, -24
	mov	QWORD PTR -104[rbp], rdi
	mov	QWORD PTR -112[rbp], rsi
	mov	rax, QWORD PTR fs:40
	mov	QWORD PTR -24[rbp], rax
	xor	eax, eax
	mov	rax, QWORD PTR -104[rbp]
	mov	rdi, rax
	call	_ZNSt8_Rb_treeIccSt9_IdentityIcESt4lessIcESaIcEE8_M_beginEv
	mov	QWORD PTR -80[rbp], rax
	mov	rax, QWORD PTR -104[rbp]
	mov	rdi, rax
	call	_ZNSt8_Rb_treeIccSt9_IdentityIcESt4lessIcESaIcEE6_M_endEv
	mov	QWORD PTR -72[rbp], rax
	mov	BYTE PTR -81[rbp], 1
	jmp	.L300
.L303:
	mov	rax, QWORD PTR -80[rbp]
	mov	QWORD PTR -72[rbp], rax
	mov	rbx, QWORD PTR -104[rbp]
	mov	rax, QWORD PTR -80[rbp]
	mov	rdi, rax
	call	_ZNSt8_Rb_treeIccSt9_IdentityIcESt4lessIcESaIcEE6_S_keyEPKSt13_Rb_tree_nodeIcE
	mov	rdx, rax
	mov	rax, QWORD PTR -112[rbp]
	mov	rsi, rax
	mov	rdi, rbx
	call	_ZNKSt4lessIcEclERKcS2_
	mov	BYTE PTR -81[rbp], al
	cmp	BYTE PTR -81[rbp], 0
	je	.L301
	mov	rax, QWORD PTR -80[rbp]
	mov	rdi, rax
	call	_ZNSt8_Rb_treeIccSt9_IdentityIcESt4lessIcESaIcEE7_S_leftEPSt18_Rb_tree_node_base
	jmp	.L302
.L301:
	mov	rax, QWORD PTR -80[rbp]
	mov	rdi, rax
	call	_ZNSt8_Rb_treeIccSt9_IdentityIcESt4lessIcESaIcEE8_S_rightEPSt18_Rb_tree_node_base
.L302:
	mov	QWORD PTR -80[rbp], rax
.L300:
	mov	rax, QWORD PTR -80[rbp]
	test	rax, rax
	jne	.L303
	mov	rdx, QWORD PTR -72[rbp]
	lea	rax, -64[rbp]
	mov	rsi, rdx
	mov	rdi, rax
	call	_ZNSt17_Rb_tree_iteratorIcEC1EPSt18_Rb_tree_node_base
	cmp	BYTE PTR -81[rbp], 0
	je	.L304
	mov	rax, QWORD PTR -104[rbp]
	mov	rdi, rax
	call	_ZNSt8_Rb_treeIccSt9_IdentityIcESt4lessIcESaIcEE5beginEv
	mov	QWORD PTR -48[rbp], rax
	lea	rdx, -48[rbp]
	lea	rax, -64[rbp]
	mov	rsi, rdx
	mov	rdi, rax
	call	_ZSteqRKSt17_Rb_tree_iteratorIcES2_
	test	al, al
	je	.L305
	lea	rdx, -72[rbp]
	lea	rcx, -80[rbp]
	lea	rax, -48[rbp]
	mov	rsi, rcx
	mov	rdi, rax
	call	_ZNSt4pairIPSt18_Rb_tree_node_baseS1_EC1IRPSt13_Rb_tree_nodeIcERS1_Lb1EEEOT_OT0_
	mov	rax, QWORD PTR -48[rbp]
	mov	rdx, QWORD PTR -40[rbp]
	jmp	.L308
.L305:
	lea	rax, -64[rbp]
	mov	rdi, rax
	call	_ZNSt17_Rb_tree_iteratorIcEmmEv
.L304:
	mov	rbx, QWORD PTR -104[rbp]
	mov	rax, QWORD PTR -64[rbp]
	mov	rdi, rax
	call	_ZNSt8_Rb_treeIccSt9_IdentityIcESt4lessIcESaIcEE6_S_keyEPKSt18_Rb_tree_node_base
	mov	rcx, rax
	mov	rax, QWORD PTR -112[rbp]
	mov	rdx, rax
	mov	rsi, rcx
	mov	rdi, rbx
	call	_ZNKSt4lessIcEclERKcS2_
	test	al, al
	je	.L307
	lea	rdx, -72[rbp]
	lea	rcx, -80[rbp]
	lea	rax, -48[rbp]
	mov	rsi, rcx
	mov	rdi, rax
	call	_ZNSt4pairIPSt18_Rb_tree_node_baseS1_EC1IRPSt13_Rb_tree_nodeIcERS1_Lb1EEEOT_OT0_
	mov	rax, QWORD PTR -48[rbp]
	mov	rdx, QWORD PTR -40[rbp]
	jmp	.L308
.L307:
	mov	QWORD PTR -56[rbp], 0
	lea	rdx, -56[rbp]
	lea	rcx, -64[rbp]
	lea	rax, -48[rbp]
	mov	rsi, rcx
	mov	rdi, rax
	call	_ZNSt4pairIPSt18_Rb_tree_node_baseS1_EC1IRS1_Lb1EEEOT_RKS1_
	mov	rax, QWORD PTR -48[rbp]
	mov	rdx, QWORD PTR -40[rbp]
.L308:
	mov	rcx, QWORD PTR -24[rbp]
	sub	rcx, QWORD PTR fs:40
	je	.L309
	call	__stack_chk_fail@PLT
.L309:
	mov	rbx, QWORD PTR -8[rbp]
	leave
	.cfi_def_cfa 7, 8
	ret
	.cfi_endproc
.LFE11417:
	.size	_ZNSt8_Rb_treeIccSt9_IdentityIcESt4lessIcESaIcEE24_M_get_insert_unique_posERKc, .-_ZNSt8_Rb_treeIccSt9_IdentityIcESt4lessIcESaIcEE24_M_get_insert_unique_posERKc
	.section	.text._ZNSt8_Rb_treeIccSt9_IdentityIcESt4lessIcESaIcEE11_M_leftmostEv,"axG",@progbits,_ZNSt8_Rb_treeIccSt9_IdentityIcESt4lessIcESaIcEE11_M_leftmostEv,comdat
	.align 2
	.weak	_ZNSt8_Rb_treeIccSt9_IdentityIcESt4lessIcESaIcEE11_M_leftmostEv
	.type	_ZNSt8_Rb_treeIccSt9_IdentityIcESt4lessIcESaIcEE11_M_leftmostEv, @function
_ZNSt8_Rb_treeIccSt9_IdentityIcESt4lessIcESaIcEE11_M_leftmostEv:
.LFB11422:
	.cfi_startproc
	endbr64
	push	rbp
	.cfi_def_cfa_offset 16
	.cfi_offset 6, -16
	mov	rbp, rsp
	.cfi_def_cfa_register 6
	mov	QWORD PTR -8[rbp], rdi
	mov	rax, QWORD PTR -8[rbp]
	add	rax, 24
	pop	rbp
	.cfi_def_cfa 7, 8
	ret
	.cfi_endproc
.LFE11422:
	.size	_ZNSt8_Rb_treeIccSt9_IdentityIcESt4lessIcESaIcEE11_M_leftmostEv, .-_ZNSt8_Rb_treeIccSt9_IdentityIcESt4lessIcESaIcEE11_M_leftmostEv
	.section	.text._ZNSt17_Rb_tree_iteratorIcEmmEv,"axG",@progbits,_ZNSt17_Rb_tree_iteratorIcEmmEv,comdat
	.align 2
	.weak	_ZNSt17_Rb_tree_iteratorIcEmmEv
	.type	_ZNSt17_Rb_tree_iteratorIcEmmEv, @function
_ZNSt17_Rb_tree_iteratorIcEmmEv:
.LFB11423:
	.cfi_startproc
	endbr64
	push	rbp
	.cfi_def_cfa_offset 16
	.cfi_offset 6, -16
	mov	rbp, rsp
	.cfi_def_cfa_register 6
	sub	rsp, 16
	mov	QWORD PTR -8[rbp], rdi
	mov	rax, QWORD PTR -8[rbp]
	mov	rax, QWORD PTR [rax]
	mov	rdi, rax
	call	_ZSt18_Rb_tree_decrementPSt18_Rb_tree_node_base@PLT
	mov	rdx, QWORD PTR -8[rbp]
	mov	QWORD PTR [rdx], rax
	mov	rax, QWORD PTR -8[rbp]
	leave
	.cfi_def_cfa 7, 8
	ret
	.cfi_endproc
.LFE11423:
	.size	_ZNSt17_Rb_tree_iteratorIcEmmEv, .-_ZNSt17_Rb_tree_iteratorIcEmmEv
	.section	.text._ZNSt17_Rb_tree_iteratorIcEppEv,"axG",@progbits,_ZNSt17_Rb_tree_iteratorIcEppEv,comdat
	.align 2
	.weak	_ZNSt17_Rb_tree_iteratorIcEppEv
	.type	_ZNSt17_Rb_tree_iteratorIcEppEv, @function
_ZNSt17_Rb_tree_iteratorIcEppEv:
.LFB11424:
	.cfi_startproc
	endbr64
	push	rbp
	.cfi_def_cfa_offset 16
	.cfi_offset 6, -16
	mov	rbp, rsp
	.cfi_def_cfa_register 6
	sub	rsp, 16
	mov	QWORD PTR -8[rbp], rdi
	mov	rax, QWORD PTR -8[rbp]
	mov	rax, QWORD PTR [rax]
	mov	rdi, rax
	call	_ZSt18_Rb_tree_incrementPSt18_Rb_tree_node_base@PLT
	mov	rdx, QWORD PTR -8[rbp]
	mov	QWORD PTR [rdx], rax
	mov	rax, QWORD PTR -8[rbp]
	leave
	.cfi_def_cfa 7, 8
	ret
	.cfi_endproc
.LFE11424:
	.size	_ZNSt17_Rb_tree_iteratorIcEppEv, .-_ZNSt17_Rb_tree_iteratorIcEppEv
	.section	.text._ZNKSt8_Rb_treeIccSt9_IdentityIcESt4lessIcESaIcEE11_Alloc_nodeclIRcEEPSt13_Rb_tree_nodeIcEOT_,"axG",@progbits,_ZNKSt8_Rb_treeIccSt9_IdentityIcESt4lessIcESaIcEE11_Alloc_nodeclIRcEEPSt13_Rb_tree_nodeIcEOT_,comdat
	.align 2
	.weak	_ZNKSt8_Rb_treeIccSt9_IdentityIcESt4lessIcESaIcEE11_Alloc_nodeclIRcEEPSt13_Rb_tree_nodeIcEOT_
	.type	_ZNKSt8_Rb_treeIccSt9_IdentityIcESt4lessIcESaIcEE11_Alloc_nodeclIRcEEPSt13_Rb_tree_nodeIcEOT_, @function
_ZNKSt8_Rb_treeIccSt9_IdentityIcESt4lessIcESaIcEE11_Alloc_nodeclIRcEEPSt13_Rb_tree_nodeIcEOT_:
.LFB11425:
	.cfi_startproc
	endbr64
	push	rbp
	.cfi_def_cfa_offset 16
	.cfi_offset 6, -16
	mov	rbp, rsp
	.cfi_def_cfa_register 6
	push	rbx
	sub	rsp, 24
	.cfi_offset 3, -24
	mov	QWORD PTR -24[rbp], rdi
	mov	QWORD PTR -32[rbp], rsi
	mov	rax, QWORD PTR -24[rbp]
	mov	rbx, QWORD PTR [rax]
	mov	rax, QWORD PTR -32[rbp]
	mov	rdi, rax
	call	_ZSt7forwardIRcEOT_RNSt16remove_referenceIS1_E4typeE
	mov	rsi, rax
	mov	rdi, rbx
	call	_ZNSt8_Rb_treeIccSt9_IdentityIcESt4lessIcESaIcEE14_M_create_nodeIJRcEEEPSt13_Rb_tree_nodeIcEDpOT_
	mov	rbx, QWORD PTR -8[rbp]
	leave
	.cfi_def_cfa 7, 8
	ret
	.cfi_endproc
.LFE11425:
	.size	_ZNKSt8_Rb_treeIccSt9_IdentityIcESt4lessIcESaIcEE11_Alloc_nodeclIRcEEPSt13_Rb_tree_nodeIcEOT_, .-_ZNKSt8_Rb_treeIccSt9_IdentityIcESt4lessIcESaIcEE11_Alloc_nodeclIRcEEPSt13_Rb_tree_nodeIcEOT_
	.section	.text._ZNSt8_Rb_treeIccSt9_IdentityIcESt4lessIcESaIcEE21_M_get_Node_allocatorEv,"axG",@progbits,_ZNSt8_Rb_treeIccSt9_IdentityIcESt4lessIcESaIcEE21_M_get_Node_allocatorEv,comdat
	.align 2
	.weak	_ZNSt8_Rb_treeIccSt9_IdentityIcESt4lessIcESaIcEE21_M_get_Node_allocatorEv
	.type	_ZNSt8_Rb_treeIccSt9_IdentityIcESt4lessIcESaIcEE21_M_get_Node_allocatorEv, @function
_ZNSt8_Rb_treeIccSt9_IdentityIcESt4lessIcESaIcEE21_M_get_Node_allocatorEv:
.LFB11426:
	.cfi_startproc
	endbr64
	push	rbp
	.cfi_def_cfa_offset 16
	.cfi_offset 6, -16
	mov	rbp, rsp
	.cfi_def_cfa_register 6
	mov	QWORD PTR -8[rbp], rdi
	mov	rax, QWORD PTR -8[rbp]
	pop	rbp
	.cfi_def_cfa 7, 8
	ret
	.cfi_endproc
.LFE11426:
	.size	_ZNSt8_Rb_treeIccSt9_IdentityIcESt4lessIcESaIcEE21_M_get_Node_allocatorEv, .-_ZNSt8_Rb_treeIccSt9_IdentityIcESt4lessIcESaIcEE21_M_get_Node_allocatorEv
	.section	.text._ZNSt13_Rb_tree_nodeIcE9_M_valptrEv,"axG",@progbits,_ZNSt13_Rb_tree_nodeIcE9_M_valptrEv,comdat
	.align 2
	.weak	_ZNSt13_Rb_tree_nodeIcE9_M_valptrEv
	.type	_ZNSt13_Rb_tree_nodeIcE9_M_valptrEv, @function
_ZNSt13_Rb_tree_nodeIcE9_M_valptrEv:
.LFB11427:
	.cfi_startproc
	endbr64
	push	rbp
	.cfi_def_cfa_offset 16
	.cfi_offset 6, -16
	mov	rbp, rsp
	.cfi_def_cfa_register 6
	sub	rsp, 16
	mov	QWORD PTR -8[rbp], rdi
	mov	rax, QWORD PTR -8[rbp]
	add	rax, 32
	mov	rdi, rax
	call	_ZN9__gnu_cxx16__aligned_membufIcE6_M_ptrEv
	leave
	.cfi_def_cfa 7, 8
	ret
	.cfi_endproc
.LFE11427:
	.size	_ZNSt13_Rb_tree_nodeIcE9_M_valptrEv, .-_ZNSt13_Rb_tree_nodeIcE9_M_valptrEv
	.section	.text._ZNSt16allocator_traitsISaISt13_Rb_tree_nodeIcEEE7destroyIcEEvRS2_PT_,"axG",@progbits,_ZNSt16allocator_traitsISaISt13_Rb_tree_nodeIcEEE7destroyIcEEvRS2_PT_,comdat
	.weak	_ZNSt16allocator_traitsISaISt13_Rb_tree_nodeIcEEE7destroyIcEEvRS2_PT_
	.type	_ZNSt16allocator_traitsISaISt13_Rb_tree_nodeIcEEE7destroyIcEEvRS2_PT_, @function
_ZNSt16allocator_traitsISaISt13_Rb_tree_nodeIcEEE7destroyIcEEvRS2_PT_:
.LFB11428:
	.cfi_startproc
	endbr64
	push	rbp
	.cfi_def_cfa_offset 16
	.cfi_offset 6, -16
	mov	rbp, rsp
	.cfi_def_cfa_register 6
	sub	rsp, 16
	mov	QWORD PTR -8[rbp], rdi
	mov	QWORD PTR -16[rbp], rsi
	mov	rdx, QWORD PTR -16[rbp]
	mov	rax, QWORD PTR -8[rbp]
	mov	rsi, rdx
	mov	rdi, rax
	call	_ZN9__gnu_cxx13new_allocatorISt13_Rb_tree_nodeIcEE7destroyIcEEvPT_
	nop
	leave
	.cfi_def_cfa 7, 8
	ret
	.cfi_endproc
.LFE11428:
	.size	_ZNSt16allocator_traitsISaISt13_Rb_tree_nodeIcEEE7destroyIcEEvRS2_PT_, .-_ZNSt16allocator_traitsISaISt13_Rb_tree_nodeIcEEE7destroyIcEEvRS2_PT_
	.section	.text._ZNSt16allocator_traitsISaISt13_Rb_tree_nodeIcEEE10deallocateERS2_PS1_m,"axG",@progbits,_ZNSt16allocator_traitsISaISt13_Rb_tree_nodeIcEEE10deallocateERS2_PS1_m,comdat
	.weak	_ZNSt16allocator_traitsISaISt13_Rb_tree_nodeIcEEE10deallocateERS2_PS1_m
	.type	_ZNSt16allocator_traitsISaISt13_Rb_tree_nodeIcEEE10deallocateERS2_PS1_m, @function
_ZNSt16allocator_traitsISaISt13_Rb_tree_nodeIcEEE10deallocateERS2_PS1_m:
.LFB11429:
	.cfi_startproc
	endbr64
	push	rbp
	.cfi_def_cfa_offset 16
	.cfi_offset 6, -16
	mov	rbp, rsp
	.cfi_def_cfa_register 6
	sub	rsp, 32
	mov	QWORD PTR -8[rbp], rdi
	mov	QWORD PTR -16[rbp], rsi
	mov	QWORD PTR -24[rbp], rdx
	mov	rdx, QWORD PTR -24[rbp]
	mov	rcx, QWORD PTR -16[rbp]
	mov	rax, QWORD PTR -8[rbp]
	mov	rsi, rcx
	mov	rdi, rax
	call	_ZN9__gnu_cxx13new_allocatorISt13_Rb_tree_nodeIcEE10deallocateEPS2_m
	nop
	leave
	.cfi_def_cfa 7, 8
	ret
	.cfi_endproc
.LFE11429:
	.size	_ZNSt16allocator_traitsISaISt13_Rb_tree_nodeIcEEE10deallocateERS2_PS1_m, .-_ZNSt16allocator_traitsISaISt13_Rb_tree_nodeIcEEE10deallocateERS2_PS1_m
	.section	.text._ZN9__gnu_cxx17__is_null_pointerISt23_Rb_tree_const_iteratorIcEEEbT_,"axG",@progbits,_ZN9__gnu_cxx17__is_null_pointerISt23_Rb_tree_const_iteratorIcEEEbT_,comdat
	.weak	_ZN9__gnu_cxx17__is_null_pointerISt23_Rb_tree_const_iteratorIcEEEbT_
	.type	_ZN9__gnu_cxx17__is_null_pointerISt23_Rb_tree_const_iteratorIcEEEbT_, @function
_ZN9__gnu_cxx17__is_null_pointerISt23_Rb_tree_const_iteratorIcEEEbT_:
.LFB11430:
	.cfi_startproc
	endbr64
	push	rbp
	.cfi_def_cfa_offset 16
	.cfi_offset 6, -16
	mov	rbp, rsp
	.cfi_def_cfa_register 6
	mov	QWORD PTR -8[rbp], rdi
	mov	eax, 0
	pop	rbp
	.cfi_def_cfa 7, 8
	ret
	.cfi_endproc
.LFE11430:
	.size	_ZN9__gnu_cxx17__is_null_pointerISt23_Rb_tree_const_iteratorIcEEEbT_, .-_ZN9__gnu_cxx17__is_null_pointerISt23_Rb_tree_const_iteratorIcEEEbT_
	.section	.text._ZStneRKSt23_Rb_tree_const_iteratorIcES2_,"axG",@progbits,_ZStneRKSt23_Rb_tree_const_iteratorIcES2_,comdat
	.weak	_ZStneRKSt23_Rb_tree_const_iteratorIcES2_
	.type	_ZStneRKSt23_Rb_tree_const_iteratorIcES2_, @function
_ZStneRKSt23_Rb_tree_const_iteratorIcES2_:
.LFB11431:
	.cfi_startproc
	endbr64
	push	rbp
	.cfi_def_cfa_offset 16
	.cfi_offset 6, -16
	mov	rbp, rsp
	.cfi_def_cfa_register 6
	mov	QWORD PTR -8[rbp], rdi
	mov	QWORD PTR -16[rbp], rsi
	mov	rax, QWORD PTR -8[rbp]
	mov	rdx, QWORD PTR [rax]
	mov	rax, QWORD PTR -16[rbp]
	mov	rax, QWORD PTR [rax]
	cmp	rdx, rax
	setne	al
	pop	rbp
	.cfi_def_cfa 7, 8
	ret
	.cfi_endproc
.LFE11431:
	.size	_ZStneRKSt23_Rb_tree_const_iteratorIcES2_, .-_ZStneRKSt23_Rb_tree_const_iteratorIcES2_
	.section	.text._ZSt8distanceISt23_Rb_tree_const_iteratorIcEENSt15iterator_traitsIT_E15difference_typeES3_S3_,"axG",@progbits,_ZSt8distanceISt23_Rb_tree_const_iteratorIcEENSt15iterator_traitsIT_E15difference_typeES3_S3_,comdat
	.weak	_ZSt8distanceISt23_Rb_tree_const_iteratorIcEENSt15iterator_traitsIT_E15difference_typeES3_S3_
	.type	_ZSt8distanceISt23_Rb_tree_const_iteratorIcEENSt15iterator_traitsIT_E15difference_typeES3_S3_, @function
_ZSt8distanceISt23_Rb_tree_const_iteratorIcEENSt15iterator_traitsIT_E15difference_typeES3_S3_:
.LFB11432:
	.cfi_startproc
	endbr64
	push	rbp
	.cfi_def_cfa_offset 16
	.cfi_offset 6, -16
	mov	rbp, rsp
	.cfi_def_cfa_register 6
	sub	rsp, 32
	mov	QWORD PTR -24[rbp], rdi
	mov	QWORD PTR -32[rbp], rsi
	mov	rax, QWORD PTR fs:40
	mov	QWORD PTR -8[rbp], rax
	xor	eax, eax
	lea	rax, -24[rbp]
	mov	rdi, rax
	call	_ZSt19__iterator_categoryISt23_Rb_tree_const_iteratorIcEENSt15iterator_traitsIT_E17iterator_categoryERKS3_
	mov	rdx, QWORD PTR -32[rbp]
	mov	rax, QWORD PTR -24[rbp]
	mov	rsi, rdx
	mov	rdi, rax
	call	_ZSt10__distanceISt23_Rb_tree_const_iteratorIcEENSt15iterator_traitsIT_E15difference_typeES3_S3_St18input_iterator_tag
	mov	rdx, QWORD PTR -8[rbp]
	sub	rdx, QWORD PTR fs:40
	je	.L330
	call	__stack_chk_fail@PLT
.L330:
	leave
	.cfi_def_cfa 7, 8
	ret
	.cfi_endproc
.LFE11432:
	.size	_ZSt8distanceISt23_Rb_tree_const_iteratorIcEENSt15iterator_traitsIT_E15difference_typeES3_S3_, .-_ZSt8distanceISt23_Rb_tree_const_iteratorIcEENSt15iterator_traitsIT_E15difference_typeES3_S3_
	.section	.text._ZNSt7__cxx1112basic_stringIcSt11char_traitsIcESaIcEE13_S_copy_charsISt23_Rb_tree_const_iteratorIcEEEvPcT_S9_,"axG",@progbits,_ZNSt7__cxx1112basic_stringIcSt11char_traitsIcESaIcEE13_S_copy_charsISt23_Rb_tree_const_iteratorIcEEEvPcT_S9_,comdat
	.weak	_ZNSt7__cxx1112basic_stringIcSt11char_traitsIcESaIcEE13_S_copy_charsISt23_Rb_tree_const_iteratorIcEEEvPcT_S9_
	.type	_ZNSt7__cxx1112basic_stringIcSt11char_traitsIcESaIcEE13_S_copy_charsISt23_Rb_tree_const_iteratorIcEEEvPcT_S9_, @function
_ZNSt7__cxx1112basic_stringIcSt11char_traitsIcESaIcEE13_S_copy_charsISt23_Rb_tree_const_iteratorIcEEEvPcT_S9_:
.LFB11433:
	.cfi_startproc
	endbr64
	push	rbp
	.cfi_def_cfa_offset 16
	.cfi_offset 6, -16
	mov	rbp, rsp
	.cfi_def_cfa_register 6
	sub	rsp, 32
	mov	QWORD PTR -8[rbp], rdi
	mov	QWORD PTR -16[rbp], rsi
	mov	QWORD PTR -24[rbp], rdx
	jmp	.L332
.L333:
	lea	rax, -16[rbp]
	mov	rdi, rax
	call	_ZNKSt23_Rb_tree_const_iteratorIcEdeEv
	mov	rdx, rax
	mov	rax, QWORD PTR -8[rbp]
	mov	rsi, rdx
	mov	rdi, rax
	call	_ZNSt11char_traitsIcE6assignERcRKc
	lea	rax, -16[rbp]
	mov	rdi, rax
	call	_ZNSt23_Rb_tree_const_iteratorIcEppEv
	add	QWORD PTR -8[rbp], 1
.L332:
	lea	rdx, -24[rbp]
	lea	rax, -16[rbp]
	mov	rsi, rdx
	mov	rdi, rax
	call	_ZStneRKSt23_Rb_tree_const_iteratorIcES2_
	test	al, al
	jne	.L333
	nop
	nop
	leave
	.cfi_def_cfa 7, 8
	ret
	.cfi_endproc
.LFE11433:
	.size	_ZNSt7__cxx1112basic_stringIcSt11char_traitsIcESaIcEE13_S_copy_charsISt23_Rb_tree_const_iteratorIcEEEvPcT_S9_, .-_ZNSt7__cxx1112basic_stringIcSt11char_traitsIcESaIcEE13_S_copy_charsISt23_Rb_tree_const_iteratorIcEEEvPcT_S9_
	.section	.text._ZNSt8_Rb_treeIcSt4pairIKccESt10_Select1stIS2_ESt4lessIcESaIS2_EE21_M_get_Node_allocatorEv,"axG",@progbits,_ZNSt8_Rb_treeIcSt4pairIKccESt10_Select1stIS2_ESt4lessIcESaIS2_EE21_M_get_Node_allocatorEv,comdat
	.align 2
	.weak	_ZNSt8_Rb_treeIcSt4pairIKccESt10_Select1stIS2_ESt4lessIcESaIS2_EE21_M_get_Node_allocatorEv
	.type	_ZNSt8_Rb_treeIcSt4pairIKccESt10_Select1stIS2_ESt4lessIcESaIS2_EE21_M_get_Node_allocatorEv, @function
_ZNSt8_Rb_treeIcSt4pairIKccESt10_Select1stIS2_ESt4lessIcESaIS2_EE21_M_get_Node_allocatorEv:
.LFB11434:
	.cfi_startproc
	endbr64
	push	rbp
	.cfi_def_cfa_offset 16
	.cfi_offset 6, -16
	mov	rbp, rsp
	.cfi_def_cfa_register 6
	mov	QWORD PTR -8[rbp], rdi
	mov	rax, QWORD PTR -8[rbp]
	pop	rbp
	.cfi_def_cfa 7, 8
	ret
	.cfi_endproc
.LFE11434:
	.size	_ZNSt8_Rb_treeIcSt4pairIKccESt10_Select1stIS2_ESt4lessIcESaIS2_EE21_M_get_Node_allocatorEv, .-_ZNSt8_Rb_treeIcSt4pairIKccESt10_Select1stIS2_ESt4lessIcESaIS2_EE21_M_get_Node_allocatorEv
	.section	.text._ZNSt16allocator_traitsISaISt13_Rb_tree_nodeISt4pairIKccEEEE7destroyIS3_EEvRS5_PT_,"axG",@progbits,_ZNSt16allocator_traitsISaISt13_Rb_tree_nodeISt4pairIKccEEEE7destroyIS3_EEvRS5_PT_,comdat
	.weak	_ZNSt16allocator_traitsISaISt13_Rb_tree_nodeISt4pairIKccEEEE7destroyIS3_EEvRS5_PT_
	.type	_ZNSt16allocator_traitsISaISt13_Rb_tree_nodeISt4pairIKccEEEE7destroyIS3_EEvRS5_PT_, @function
_ZNSt16allocator_traitsISaISt13_Rb_tree_nodeISt4pairIKccEEEE7destroyIS3_EEvRS5_PT_:
.LFB11435:
	.cfi_startproc
	endbr64
	push	rbp
	.cfi_def_cfa_offset 16
	.cfi_offset 6, -16
	mov	rbp, rsp
	.cfi_def_cfa_register 6
	sub	rsp, 16
	mov	QWORD PTR -8[rbp], rdi
	mov	QWORD PTR -16[rbp], rsi
	mov	rdx, QWORD PTR -16[rbp]
	mov	rax, QWORD PTR -8[rbp]
	mov	rsi, rdx
	mov	rdi, rax
	call	_ZN9__gnu_cxx13new_allocatorISt13_Rb_tree_nodeISt4pairIKccEEE7destroyIS4_EEvPT_
	nop
	leave
	.cfi_def_cfa 7, 8
	ret
	.cfi_endproc
.LFE11435:
	.size	_ZNSt16allocator_traitsISaISt13_Rb_tree_nodeISt4pairIKccEEEE7destroyIS3_EEvRS5_PT_, .-_ZNSt16allocator_traitsISaISt13_Rb_tree_nodeISt4pairIKccEEEE7destroyIS3_EEvRS5_PT_
	.section	.text._ZNSt16allocator_traitsISaISt13_Rb_tree_nodeISt4pairIKccEEEE10deallocateERS5_PS4_m,"axG",@progbits,_ZNSt16allocator_traitsISaISt13_Rb_tree_nodeISt4pairIKccEEEE10deallocateERS5_PS4_m,comdat
	.weak	_ZNSt16allocator_traitsISaISt13_Rb_tree_nodeISt4pairIKccEEEE10deallocateERS5_PS4_m
	.type	_ZNSt16allocator_traitsISaISt13_Rb_tree_nodeISt4pairIKccEEEE10deallocateERS5_PS4_m, @function
_ZNSt16allocator_traitsISaISt13_Rb_tree_nodeISt4pairIKccEEEE10deallocateERS5_PS4_m:
.LFB11436:
	.cfi_startproc
	endbr64
	push	rbp
	.cfi_def_cfa_offset 16
	.cfi_offset 6, -16
	mov	rbp, rsp
	.cfi_def_cfa_register 6
	sub	rsp, 32
	mov	QWORD PTR -8[rbp], rdi
	mov	QWORD PTR -16[rbp], rsi
	mov	QWORD PTR -24[rbp], rdx
	mov	rdx, QWORD PTR -24[rbp]
	mov	rcx, QWORD PTR -16[rbp]
	mov	rax, QWORD PTR -8[rbp]
	mov	rsi, rcx
	mov	rdi, rax
	call	_ZN9__gnu_cxx13new_allocatorISt13_Rb_tree_nodeISt4pairIKccEEE10deallocateEPS5_m
	nop
	leave
	.cfi_def_cfa 7, 8
	ret
	.cfi_endproc
.LFE11436:
	.size	_ZNSt16allocator_traitsISaISt13_Rb_tree_nodeISt4pairIKccEEEE10deallocateERS5_PS4_m, .-_ZNSt16allocator_traitsISaISt13_Rb_tree_nodeISt4pairIKccEEEE10deallocateERS5_PS4_m
	.section	.text._ZN9__gnu_cxx16__aligned_membufISt4pairIKccEE7_M_addrEv,"axG",@progbits,_ZN9__gnu_cxx16__aligned_membufISt4pairIKccEE7_M_addrEv,comdat
	.align 2
	.weak	_ZN9__gnu_cxx16__aligned_membufISt4pairIKccEE7_M_addrEv
	.type	_ZN9__gnu_cxx16__aligned_membufISt4pairIKccEE7_M_addrEv, @function
_ZN9__gnu_cxx16__aligned_membufISt4pairIKccEE7_M_addrEv:
.LFB11437:
	.cfi_startproc
	endbr64
	push	rbp
	.cfi_def_cfa_offset 16
	.cfi_offset 6, -16
	mov	rbp, rsp
	.cfi_def_cfa_register 6
	mov	QWORD PTR -8[rbp], rdi
	mov	rax, QWORD PTR -8[rbp]
	pop	rbp
	.cfi_def_cfa 7, 8
	ret
	.cfi_endproc
.LFE11437:
	.size	_ZN9__gnu_cxx16__aligned_membufISt4pairIKccEE7_M_addrEv, .-_ZN9__gnu_cxx16__aligned_membufISt4pairIKccEE7_M_addrEv
	.section	.text._ZNSt16allocator_traitsISaISt13_Rb_tree_nodeISt4pairIKccEEEE8allocateERS5_m,"axG",@progbits,_ZNSt16allocator_traitsISaISt13_Rb_tree_nodeISt4pairIKccEEEE8allocateERS5_m,comdat
	.weak	_ZNSt16allocator_traitsISaISt13_Rb_tree_nodeISt4pairIKccEEEE8allocateERS5_m
	.type	_ZNSt16allocator_traitsISaISt13_Rb_tree_nodeISt4pairIKccEEEE8allocateERS5_m, @function
_ZNSt16allocator_traitsISaISt13_Rb_tree_nodeISt4pairIKccEEEE8allocateERS5_m:
.LFB11438:
	.cfi_startproc
	endbr64
	push	rbp
	.cfi_def_cfa_offset 16
	.cfi_offset 6, -16
	mov	rbp, rsp
	.cfi_def_cfa_register 6
	sub	rsp, 16
	mov	QWORD PTR -8[rbp], rdi
	mov	QWORD PTR -16[rbp], rsi
	mov	rcx, QWORD PTR -16[rbp]
	mov	rax, QWORD PTR -8[rbp]
	mov	edx, 0
	mov	rsi, rcx
	mov	rdi, rax
	call	_ZN9__gnu_cxx13new_allocatorISt13_Rb_tree_nodeISt4pairIKccEEE8allocateEmPKv
	leave
	.cfi_def_cfa 7, 8
	ret
	.cfi_endproc
.LFE11438:
	.size	_ZNSt16allocator_traitsISaISt13_Rb_tree_nodeISt4pairIKccEEEE8allocateERS5_m, .-_ZNSt16allocator_traitsISaISt13_Rb_tree_nodeISt4pairIKccEEEE8allocateERS5_m
	.section	.text._ZNSt16allocator_traitsISaISt13_Rb_tree_nodeISt4pairIKccEEEE9constructIS3_JRKSt21piecewise_construct_tSt5tupleIJRS2_EESB_IJEEEEEvRS5_PT_DpOT0_,"axG",@progbits,_ZNSt16allocator_traitsISaISt13_Rb_tree_nodeISt4pairIKccEEEE9constructIS3_JRKSt21piecewise_construct_tSt5tupleIJRS2_EESB_IJEEEEEvRS5_PT_DpOT0_,comdat
	.weak	_ZNSt16allocator_traitsISaISt13_Rb_tree_nodeISt4pairIKccEEEE9constructIS3_JRKSt21piecewise_construct_tSt5tupleIJRS2_EESB_IJEEEEEvRS5_PT_DpOT0_
	.type	_ZNSt16allocator_traitsISaISt13_Rb_tree_nodeISt4pairIKccEEEE9constructIS3_JRKSt21piecewise_construct_tSt5tupleIJRS2_EESB_IJEEEEEvRS5_PT_DpOT0_, @function
_ZNSt16allocator_traitsISaISt13_Rb_tree_nodeISt4pairIKccEEEE9constructIS3_JRKSt21piecewise_construct_tSt5tupleIJRS2_EESB_IJEEEEEvRS5_PT_DpOT0_:
.LFB11439:
	.cfi_startproc
	endbr64
	push	rbp
	.cfi_def_cfa_offset 16
	.cfi_offset 6, -16
	mov	rbp, rsp
	.cfi_def_cfa_register 6
	push	r12
	push	rbx
	sub	rsp, 48
	.cfi_offset 12, -24
	.cfi_offset 3, -32
	mov	QWORD PTR -24[rbp], rdi
	mov	QWORD PTR -32[rbp], rsi
	mov	QWORD PTR -40[rbp], rdx
	mov	QWORD PTR -48[rbp], rcx
	mov	QWORD PTR -56[rbp], r8
	mov	rax, QWORD PTR -56[rbp]
	mov	rdi, rax
	call	_ZSt7forwardISt5tupleIJEEEOT_RNSt16remove_referenceIS2_E4typeE
	mov	r12, rax
	mov	rax, QWORD PTR -48[rbp]
	mov	rdi, rax
	call	_ZSt7forwardISt5tupleIJRKcEEEOT_RNSt16remove_referenceIS4_E4typeE
	mov	rbx, rax
	mov	rax, QWORD PTR -40[rbp]
	mov	rdi, rax
	call	_ZSt7forwardIRKSt21piecewise_construct_tEOT_RNSt16remove_referenceIS3_E4typeE
	mov	rdx, rax
	mov	rsi, QWORD PTR -32[rbp]
	mov	rax, QWORD PTR -24[rbp]
	mov	r8, r12
	mov	rcx, rbx
	mov	rdi, rax
	call	_ZN9__gnu_cxx13new_allocatorISt13_Rb_tree_nodeISt4pairIKccEEE9constructIS4_JRKSt21piecewise_construct_tSt5tupleIJRS3_EESB_IJEEEEEvPT_DpOT0_
	nop
	add	rsp, 48
	pop	rbx
	pop	r12
	pop	rbp
	.cfi_def_cfa 7, 8
	ret
	.cfi_endproc
.LFE11439:
	.size	_ZNSt16allocator_traitsISaISt13_Rb_tree_nodeISt4pairIKccEEEE9constructIS3_JRKSt21piecewise_construct_tSt5tupleIJRS2_EESB_IJEEEEEvRS5_PT_DpOT0_, .-_ZNSt16allocator_traitsISaISt13_Rb_tree_nodeISt4pairIKccEEEE9constructIS3_JRKSt21piecewise_construct_tSt5tupleIJRS2_EESB_IJEEEEEvRS5_PT_DpOT0_
	.section	.text._ZSt7forwardIRPSt18_Rb_tree_node_baseEOT_RNSt16remove_referenceIS3_E4typeE,"axG",@progbits,_ZSt7forwardIRPSt18_Rb_tree_node_baseEOT_RNSt16remove_referenceIS3_E4typeE,comdat
	.weak	_ZSt7forwardIRPSt18_Rb_tree_node_baseEOT_RNSt16remove_referenceIS3_E4typeE
	.type	_ZSt7forwardIRPSt18_Rb_tree_node_baseEOT_RNSt16remove_referenceIS3_E4typeE, @function
_ZSt7forwardIRPSt18_Rb_tree_node_baseEOT_RNSt16remove_referenceIS3_E4typeE:
.LFB11440:
	.cfi_startproc
	endbr64
	push	rbp
	.cfi_def_cfa_offset 16
	.cfi_offset 6, -16
	mov	rbp, rsp
	.cfi_def_cfa_register 6
	mov	QWORD PTR -8[rbp], rdi
	mov	rax, QWORD PTR -8[rbp]
	pop	rbp
	.cfi_def_cfa 7, 8
	ret
	.cfi_endproc
.LFE11440:
	.size	_ZSt7forwardIRPSt18_Rb_tree_node_baseEOT_RNSt16remove_referenceIS3_E4typeE, .-_ZSt7forwardIRPSt18_Rb_tree_node_baseEOT_RNSt16remove_referenceIS3_E4typeE
	.section	.text._ZNSt8_Rb_treeIcSt4pairIKccESt10_Select1stIS2_ESt4lessIcESaIS2_EE5beginEv,"axG",@progbits,_ZNSt8_Rb_treeIcSt4pairIKccESt10_Select1stIS2_ESt4lessIcESaIS2_EE5beginEv,comdat
	.align 2
	.weak	_ZNSt8_Rb_treeIcSt4pairIKccESt10_Select1stIS2_ESt4lessIcESaIS2_EE5beginEv
	.type	_ZNSt8_Rb_treeIcSt4pairIKccESt10_Select1stIS2_ESt4lessIcESaIS2_EE5beginEv, @function
_ZNSt8_Rb_treeIcSt4pairIKccESt10_Select1stIS2_ESt4lessIcESaIS2_EE5beginEv:
.LFB11441:
	.cfi_startproc
	endbr64
	push	rbp
	.cfi_def_cfa_offset 16
	.cfi_offset 6, -16
	mov	rbp, rsp
	.cfi_def_cfa_register 6
	sub	rsp, 32
	mov	QWORD PTR -24[rbp], rdi
	mov	rax, QWORD PTR fs:40
	mov	QWORD PTR -8[rbp], rax
	xor	eax, eax
	mov	rax, QWORD PTR -24[rbp]
	mov	rdx, QWORD PTR 24[rax]
	lea	rax, -16[rbp]
	mov	rsi, rdx
	mov	rdi, rax
	call	_ZNSt17_Rb_tree_iteratorISt4pairIKccEEC1EPSt18_Rb_tree_node_base
	mov	rax, QWORD PTR -16[rbp]
	mov	rdx, QWORD PTR -8[rbp]
	sub	rdx, QWORD PTR fs:40
	je	.L347
	call	__stack_chk_fail@PLT
.L347:
	leave
	.cfi_def_cfa 7, 8
	ret
	.cfi_endproc
.LFE11441:
	.size	_ZNSt8_Rb_treeIcSt4pairIKccESt10_Select1stIS2_ESt4lessIcESaIS2_EE5beginEv, .-_ZNSt8_Rb_treeIcSt4pairIKccESt10_Select1stIS2_ESt4lessIcESaIS2_EE5beginEv
	.section	.text._ZNSt4pairIPSt18_Rb_tree_node_baseS1_EC2IRPSt13_Rb_tree_nodeIS_IKccEERS1_Lb1EEEOT_OT0_,"axG",@progbits,_ZNSt4pairIPSt18_Rb_tree_node_baseS1_EC5IRPSt13_Rb_tree_nodeIS_IKccEERS1_Lb1EEEOT_OT0_,comdat
	.align 2
	.weak	_ZNSt4pairIPSt18_Rb_tree_node_baseS1_EC2IRPSt13_Rb_tree_nodeIS_IKccEERS1_Lb1EEEOT_OT0_
	.type	_ZNSt4pairIPSt18_Rb_tree_node_baseS1_EC2IRPSt13_Rb_tree_nodeIS_IKccEERS1_Lb1EEEOT_OT0_, @function
_ZNSt4pairIPSt18_Rb_tree_node_baseS1_EC2IRPSt13_Rb_tree_nodeIS_IKccEERS1_Lb1EEEOT_OT0_:
.LFB11443:
	.cfi_startproc
	endbr64
	push	rbp
	.cfi_def_cfa_offset 16
	.cfi_offset 6, -16
	mov	rbp, rsp
	.cfi_def_cfa_register 6
	sub	rsp, 32
	mov	QWORD PTR -8[rbp], rdi
	mov	QWORD PTR -16[rbp], rsi
	mov	QWORD PTR -24[rbp], rdx
	mov	rax, QWORD PTR -16[rbp]
	mov	rdi, rax
	call	_ZSt7forwardIRPSt13_Rb_tree_nodeISt4pairIKccEEEOT_RNSt16remove_referenceIS7_E4typeE
	mov	rdx, QWORD PTR [rax]
	mov	rax, QWORD PTR -8[rbp]
	mov	QWORD PTR [rax], rdx
	mov	rax, QWORD PTR -24[rbp]
	mov	rdi, rax
	call	_ZSt7forwardIRPSt18_Rb_tree_node_baseEOT_RNSt16remove_referenceIS3_E4typeE
	mov	rdx, QWORD PTR [rax]
	mov	rax, QWORD PTR -8[rbp]
	mov	QWORD PTR 8[rax], rdx
	nop
	leave
	.cfi_def_cfa 7, 8
	ret
	.cfi_endproc
.LFE11443:
	.size	_ZNSt4pairIPSt18_Rb_tree_node_baseS1_EC2IRPSt13_Rb_tree_nodeIS_IKccEERS1_Lb1EEEOT_OT0_, .-_ZNSt4pairIPSt18_Rb_tree_node_baseS1_EC2IRPSt13_Rb_tree_nodeIS_IKccEERS1_Lb1EEEOT_OT0_
	.weak	_ZNSt4pairIPSt18_Rb_tree_node_baseS1_EC1IRPSt13_Rb_tree_nodeIS_IKccEERS1_Lb1EEEOT_OT0_
	.set	_ZNSt4pairIPSt18_Rb_tree_node_baseS1_EC1IRPSt13_Rb_tree_nodeIS_IKccEERS1_Lb1EEEOT_OT0_,_ZNSt4pairIPSt18_Rb_tree_node_baseS1_EC2IRPSt13_Rb_tree_nodeIS_IKccEERS1_Lb1EEEOT_OT0_
	.section	.text._ZNK9__gnu_cxx16__aligned_membufISt4pairIKccEE6_M_ptrEv,"axG",@progbits,_ZNK9__gnu_cxx16__aligned_membufISt4pairIKccEE6_M_ptrEv,comdat
	.align 2
	.weak	_ZNK9__gnu_cxx16__aligned_membufISt4pairIKccEE6_M_ptrEv
	.type	_ZNK9__gnu_cxx16__aligned_membufISt4pairIKccEE6_M_ptrEv, @function
_ZNK9__gnu_cxx16__aligned_membufISt4pairIKccEE6_M_ptrEv:
.LFB11445:
	.cfi_startproc
	endbr64
	push	rbp
	.cfi_def_cfa_offset 16
	.cfi_offset 6, -16
	mov	rbp, rsp
	.cfi_def_cfa_register 6
	sub	rsp, 16
	mov	QWORD PTR -8[rbp], rdi
	mov	rax, QWORD PTR -8[rbp]
	mov	rdi, rax
	call	_ZNK9__gnu_cxx16__aligned_membufISt4pairIKccEE7_M_addrEv
	leave
	.cfi_def_cfa 7, 8
	ret
	.cfi_endproc
.LFE11445:
	.size	_ZNK9__gnu_cxx16__aligned_membufISt4pairIKccEE6_M_ptrEv, .-_ZNK9__gnu_cxx16__aligned_membufISt4pairIKccEE6_M_ptrEv
	.section	.text._ZNSt8_Rb_treeIccSt9_IdentityIcESt4lessIcESaIcEE6_S_keyEPKSt13_Rb_tree_nodeIcE,"axG",@progbits,_ZNSt8_Rb_treeIccSt9_IdentityIcESt4lessIcESaIcEE6_S_keyEPKSt13_Rb_tree_nodeIcE,comdat
	.weak	_ZNSt8_Rb_treeIccSt9_IdentityIcESt4lessIcESaIcEE6_S_keyEPKSt13_Rb_tree_nodeIcE
	.type	_ZNSt8_Rb_treeIccSt9_IdentityIcESt4lessIcESaIcEE6_S_keyEPKSt13_Rb_tree_nodeIcE, @function
_ZNSt8_Rb_treeIccSt9_IdentityIcESt4lessIcESaIcEE6_S_keyEPKSt13_Rb_tree_nodeIcE:
.LFB11551:
	.cfi_startproc
	endbr64
	push	rbp
	.cfi_def_cfa_offset 16
	.cfi_offset 6, -16
	mov	rbp, rsp
	.cfi_def_cfa_register 6
	sub	rsp, 32
	mov	QWORD PTR -24[rbp], rdi
	mov	rax, QWORD PTR fs:40
	mov	QWORD PTR -8[rbp], rax
	xor	eax, eax
	mov	rax, QWORD PTR -24[rbp]
	mov	rdi, rax
	call	_ZNKSt13_Rb_tree_nodeIcE9_M_valptrEv
	mov	rdx, rax
	lea	rax, -9[rbp]
	mov	rsi, rdx
	mov	rdi, rax
	call	_ZNKSt9_IdentityIcEclERKc
	mov	rdx, QWORD PTR -8[rbp]
	sub	rdx, QWORD PTR fs:40
	je	.L353
	call	__stack_chk_fail@PLT
.L353:
	leave
	.cfi_def_cfa 7, 8
	ret
	.cfi_endproc
.LFE11551:
	.size	_ZNSt8_Rb_treeIccSt9_IdentityIcESt4lessIcESaIcEE6_S_keyEPKSt13_Rb_tree_nodeIcE, .-_ZNSt8_Rb_treeIccSt9_IdentityIcESt4lessIcESaIcEE6_S_keyEPKSt13_Rb_tree_nodeIcE
	.section	.text._ZNSt8_Rb_treeIccSt9_IdentityIcESt4lessIcESaIcEE5beginEv,"axG",@progbits,_ZNSt8_Rb_treeIccSt9_IdentityIcESt4lessIcESaIcEE5beginEv,comdat
	.align 2
	.weak	_ZNSt8_Rb_treeIccSt9_IdentityIcESt4lessIcESaIcEE5beginEv
	.type	_ZNSt8_Rb_treeIccSt9_IdentityIcESt4lessIcESaIcEE5beginEv, @function
_ZNSt8_Rb_treeIccSt9_IdentityIcESt4lessIcESaIcEE5beginEv:
.LFB11552:
	.cfi_startproc
	endbr64
	push	rbp
	.cfi_def_cfa_offset 16
	.cfi_offset 6, -16
	mov	rbp, rsp
	.cfi_def_cfa_register 6
	sub	rsp, 32
	mov	QWORD PTR -24[rbp], rdi
	mov	rax, QWORD PTR fs:40
	mov	QWORD PTR -8[rbp], rax
	xor	eax, eax
	mov	rax, QWORD PTR -24[rbp]
	mov	rdx, QWORD PTR 24[rax]
	lea	rax, -16[rbp]
	mov	rsi, rdx
	mov	rdi, rax
	call	_ZNSt17_Rb_tree_iteratorIcEC1EPSt18_Rb_tree_node_base
	mov	rax, QWORD PTR -16[rbp]
	mov	rdx, QWORD PTR -8[rbp]
	sub	rdx, QWORD PTR fs:40
	je	.L356
	call	__stack_chk_fail@PLT
.L356:
	leave
	.cfi_def_cfa 7, 8
	ret
	.cfi_endproc
.LFE11552:
	.size	_ZNSt8_Rb_treeIccSt9_IdentityIcESt4lessIcESaIcEE5beginEv, .-_ZNSt8_Rb_treeIccSt9_IdentityIcESt4lessIcESaIcEE5beginEv
	.section	.text._ZSteqRKSt17_Rb_tree_iteratorIcES2_,"axG",@progbits,_ZSteqRKSt17_Rb_tree_iteratorIcES2_,comdat
	.weak	_ZSteqRKSt17_Rb_tree_iteratorIcES2_
	.type	_ZSteqRKSt17_Rb_tree_iteratorIcES2_, @function
_ZSteqRKSt17_Rb_tree_iteratorIcES2_:
.LFB11553:
	.cfi_startproc
	endbr64
	push	rbp
	.cfi_def_cfa_offset 16
	.cfi_offset 6, -16
	mov	rbp, rsp
	.cfi_def_cfa_register 6
	mov	QWORD PTR -8[rbp], rdi
	mov	QWORD PTR -16[rbp], rsi
	mov	rax, QWORD PTR -8[rbp]
	mov	rdx, QWORD PTR [rax]
	mov	rax, QWORD PTR -16[rbp]
	mov	rax, QWORD PTR [rax]
	cmp	rdx, rax
	sete	al
	pop	rbp
	.cfi_def_cfa 7, 8
	ret
	.cfi_endproc
.LFE11553:
	.size	_ZSteqRKSt17_Rb_tree_iteratorIcES2_, .-_ZSteqRKSt17_Rb_tree_iteratorIcES2_
	.section	.text._ZNSt4pairIPSt18_Rb_tree_node_baseS1_EC2IRPSt13_Rb_tree_nodeIcERS1_Lb1EEEOT_OT0_,"axG",@progbits,_ZNSt4pairIPSt18_Rb_tree_node_baseS1_EC5IRPSt13_Rb_tree_nodeIcERS1_Lb1EEEOT_OT0_,comdat
	.align 2
	.weak	_ZNSt4pairIPSt18_Rb_tree_node_baseS1_EC2IRPSt13_Rb_tree_nodeIcERS1_Lb1EEEOT_OT0_
	.type	_ZNSt4pairIPSt18_Rb_tree_node_baseS1_EC2IRPSt13_Rb_tree_nodeIcERS1_Lb1EEEOT_OT0_, @function
_ZNSt4pairIPSt18_Rb_tree_node_baseS1_EC2IRPSt13_Rb_tree_nodeIcERS1_Lb1EEEOT_OT0_:
.LFB11555:
	.cfi_startproc
	endbr64
	push	rbp
	.cfi_def_cfa_offset 16
	.cfi_offset 6, -16
	mov	rbp, rsp
	.cfi_def_cfa_register 6
	sub	rsp, 32
	mov	QWORD PTR -8[rbp], rdi
	mov	QWORD PTR -16[rbp], rsi
	mov	QWORD PTR -24[rbp], rdx
	mov	rax, QWORD PTR -16[rbp]
	mov	rdi, rax
	call	_ZSt7forwardIRPSt13_Rb_tree_nodeIcEEOT_RNSt16remove_referenceIS4_E4typeE
	mov	rdx, QWORD PTR [rax]
	mov	rax, QWORD PTR -8[rbp]
	mov	QWORD PTR [rax], rdx
	mov	rax, QWORD PTR -24[rbp]
	mov	rdi, rax
	call	_ZSt7forwardIRPSt18_Rb_tree_node_baseEOT_RNSt16remove_referenceIS3_E4typeE
	mov	rdx, QWORD PTR [rax]
	mov	rax, QWORD PTR -8[rbp]
	mov	QWORD PTR 8[rax], rdx
	nop
	leave
	.cfi_def_cfa 7, 8
	ret
	.cfi_endproc
.LFE11555:
	.size	_ZNSt4pairIPSt18_Rb_tree_node_baseS1_EC2IRPSt13_Rb_tree_nodeIcERS1_Lb1EEEOT_OT0_, .-_ZNSt4pairIPSt18_Rb_tree_node_baseS1_EC2IRPSt13_Rb_tree_nodeIcERS1_Lb1EEEOT_OT0_
	.weak	_ZNSt4pairIPSt18_Rb_tree_node_baseS1_EC1IRPSt13_Rb_tree_nodeIcERS1_Lb1EEEOT_OT0_
	.set	_ZNSt4pairIPSt18_Rb_tree_node_baseS1_EC1IRPSt13_Rb_tree_nodeIcERS1_Lb1EEEOT_OT0_,_ZNSt4pairIPSt18_Rb_tree_node_baseS1_EC2IRPSt13_Rb_tree_nodeIcERS1_Lb1EEEOT_OT0_
	.section	.text._ZNSt8_Rb_treeIccSt9_IdentityIcESt4lessIcESaIcEE14_M_create_nodeIJRcEEEPSt13_Rb_tree_nodeIcEDpOT_,"axG",@progbits,_ZNSt8_Rb_treeIccSt9_IdentityIcESt4lessIcESaIcEE14_M_create_nodeIJRcEEEPSt13_Rb_tree_nodeIcEDpOT_,comdat
	.align 2
	.weak	_ZNSt8_Rb_treeIccSt9_IdentityIcESt4lessIcESaIcEE14_M_create_nodeIJRcEEEPSt13_Rb_tree_nodeIcEDpOT_
	.type	_ZNSt8_Rb_treeIccSt9_IdentityIcESt4lessIcESaIcEE14_M_create_nodeIJRcEEEPSt13_Rb_tree_nodeIcEDpOT_, @function
_ZNSt8_Rb_treeIccSt9_IdentityIcESt4lessIcESaIcEE14_M_create_nodeIJRcEEEPSt13_Rb_tree_nodeIcEDpOT_:
.LFB11557:
	.cfi_startproc
	endbr64
	push	rbp
	.cfi_def_cfa_offset 16
	.cfi_offset 6, -16
	mov	rbp, rsp
	.cfi_def_cfa_register 6
	sub	rsp, 32
	mov	QWORD PTR -24[rbp], rdi
	mov	QWORD PTR -32[rbp], rsi
	mov	rax, QWORD PTR -24[rbp]
	mov	rdi, rax
	call	_ZNSt8_Rb_treeIccSt9_IdentityIcESt4lessIcESaIcEE11_M_get_nodeEv
	mov	QWORD PTR -8[rbp], rax
	mov	rax, QWORD PTR -32[rbp]
	mov	rdi, rax
	call	_ZSt7forwardIRcEOT_RNSt16remove_referenceIS1_E4typeE
	mov	rdx, rax
	mov	rcx, QWORD PTR -8[rbp]
	mov	rax, QWORD PTR -24[rbp]
	mov	rsi, rcx
	mov	rdi, rax
	call	_ZNSt8_Rb_treeIccSt9_IdentityIcESt4lessIcESaIcEE17_M_construct_nodeIJRcEEEvPSt13_Rb_tree_nodeIcEDpOT_
	mov	rax, QWORD PTR -8[rbp]
	leave
	.cfi_def_cfa 7, 8
	ret
	.cfi_endproc
.LFE11557:
	.size	_ZNSt8_Rb_treeIccSt9_IdentityIcESt4lessIcESaIcEE14_M_create_nodeIJRcEEEPSt13_Rb_tree_nodeIcEDpOT_, .-_ZNSt8_Rb_treeIccSt9_IdentityIcESt4lessIcESaIcEE14_M_create_nodeIJRcEEEPSt13_Rb_tree_nodeIcEDpOT_
	.section	.text._ZN9__gnu_cxx16__aligned_membufIcE6_M_ptrEv,"axG",@progbits,_ZN9__gnu_cxx16__aligned_membufIcE6_M_ptrEv,comdat
	.align 2
	.weak	_ZN9__gnu_cxx16__aligned_membufIcE6_M_ptrEv
	.type	_ZN9__gnu_cxx16__aligned_membufIcE6_M_ptrEv, @function
_ZN9__gnu_cxx16__aligned_membufIcE6_M_ptrEv:
.LFB11558:
	.cfi_startproc
	endbr64
	push	rbp
	.cfi_def_cfa_offset 16
	.cfi_offset 6, -16
	mov	rbp, rsp
	.cfi_def_cfa_register 6
	sub	rsp, 16
	mov	QWORD PTR -8[rbp], rdi
	mov	rax, QWORD PTR -8[rbp]
	mov	rdi, rax
	call	_ZN9__gnu_cxx16__aligned_membufIcE7_M_addrEv
	leave
	.cfi_def_cfa 7, 8
	ret
	.cfi_endproc
.LFE11558:
	.size	_ZN9__gnu_cxx16__aligned_membufIcE6_M_ptrEv, .-_ZN9__gnu_cxx16__aligned_membufIcE6_M_ptrEv
	.section	.text._ZN9__gnu_cxx13new_allocatorISt13_Rb_tree_nodeIcEE7destroyIcEEvPT_,"axG",@progbits,_ZN9__gnu_cxx13new_allocatorISt13_Rb_tree_nodeIcEE7destroyIcEEvPT_,comdat
	.align 2
	.weak	_ZN9__gnu_cxx13new_allocatorISt13_Rb_tree_nodeIcEE7destroyIcEEvPT_
	.type	_ZN9__gnu_cxx13new_allocatorISt13_Rb_tree_nodeIcEE7destroyIcEEvPT_, @function
_ZN9__gnu_cxx13new_allocatorISt13_Rb_tree_nodeIcEE7destroyIcEEvPT_:
.LFB11559:
	.cfi_startproc
	endbr64
	push	rbp
	.cfi_def_cfa_offset 16
	.cfi_offset 6, -16
	mov	rbp, rsp
	.cfi_def_cfa_register 6
	mov	QWORD PTR -8[rbp], rdi
	mov	QWORD PTR -16[rbp], rsi
	nop
	pop	rbp
	.cfi_def_cfa 7, 8
	ret
	.cfi_endproc
.LFE11559:
	.size	_ZN9__gnu_cxx13new_allocatorISt13_Rb_tree_nodeIcEE7destroyIcEEvPT_, .-_ZN9__gnu_cxx13new_allocatorISt13_Rb_tree_nodeIcEE7destroyIcEEvPT_
	.section	.text._ZN9__gnu_cxx13new_allocatorISt13_Rb_tree_nodeIcEE10deallocateEPS2_m,"axG",@progbits,_ZN9__gnu_cxx13new_allocatorISt13_Rb_tree_nodeIcEE10deallocateEPS2_m,comdat
	.align 2
	.weak	_ZN9__gnu_cxx13new_allocatorISt13_Rb_tree_nodeIcEE10deallocateEPS2_m
	.type	_ZN9__gnu_cxx13new_allocatorISt13_Rb_tree_nodeIcEE10deallocateEPS2_m, @function
_ZN9__gnu_cxx13new_allocatorISt13_Rb_tree_nodeIcEE10deallocateEPS2_m:
.LFB11560:
	.cfi_startproc
	endbr64
	push	rbp
	.cfi_def_cfa_offset 16
	.cfi_offset 6, -16
	mov	rbp, rsp
	.cfi_def_cfa_register 6
	sub	rsp, 32
	mov	QWORD PTR -8[rbp], rdi
	mov	QWORD PTR -16[rbp], rsi
	mov	QWORD PTR -24[rbp], rdx
	mov	rdx, QWORD PTR -24[rbp]
	mov	rax, rdx
	sal	rax, 2
	add	rax, rdx
	sal	rax, 3
	mov	rdx, rax
	mov	rax, QWORD PTR -16[rbp]
	mov	rsi, rdx
	mov	rdi, rax
	call	_ZdlPvm@PLT
	leave
	.cfi_def_cfa 7, 8
	ret
	.cfi_endproc
.LFE11560:
	.size	_ZN9__gnu_cxx13new_allocatorISt13_Rb_tree_nodeIcEE10deallocateEPS2_m, .-_ZN9__gnu_cxx13new_allocatorISt13_Rb_tree_nodeIcEE10deallocateEPS2_m
	.section	.text._ZSt19__iterator_categoryISt23_Rb_tree_const_iteratorIcEENSt15iterator_traitsIT_E17iterator_categoryERKS3_,"axG",@progbits,_ZSt19__iterator_categoryISt23_Rb_tree_const_iteratorIcEENSt15iterator_traitsIT_E17iterator_categoryERKS3_,comdat
	.weak	_ZSt19__iterator_categoryISt23_Rb_tree_const_iteratorIcEENSt15iterator_traitsIT_E17iterator_categoryERKS3_
	.type	_ZSt19__iterator_categoryISt23_Rb_tree_const_iteratorIcEENSt15iterator_traitsIT_E17iterator_categoryERKS3_, @function
_ZSt19__iterator_categoryISt23_Rb_tree_const_iteratorIcEENSt15iterator_traitsIT_E17iterator_categoryERKS3_:
.LFB11561:
	.cfi_startproc
	endbr64
	push	rbp
	.cfi_def_cfa_offset 16
	.cfi_offset 6, -16
	mov	rbp, rsp
	.cfi_def_cfa_register 6
	mov	QWORD PTR -8[rbp], rdi
	pop	rbp
	.cfi_def_cfa 7, 8
	ret
	.cfi_endproc
.LFE11561:
	.size	_ZSt19__iterator_categoryISt23_Rb_tree_const_iteratorIcEENSt15iterator_traitsIT_E17iterator_categoryERKS3_, .-_ZSt19__iterator_categoryISt23_Rb_tree_const_iteratorIcEENSt15iterator_traitsIT_E17iterator_categoryERKS3_
	.section	.text._ZSt10__distanceISt23_Rb_tree_const_iteratorIcEENSt15iterator_traitsIT_E15difference_typeES3_S3_St18input_iterator_tag,"axG",@progbits,_ZSt10__distanceISt23_Rb_tree_const_iteratorIcEENSt15iterator_traitsIT_E15difference_typeES3_S3_St18input_iterator_tag,comdat
	.weak	_ZSt10__distanceISt23_Rb_tree_const_iteratorIcEENSt15iterator_traitsIT_E15difference_typeES3_S3_St18input_iterator_tag
	.type	_ZSt10__distanceISt23_Rb_tree_const_iteratorIcEENSt15iterator_traitsIT_E15difference_typeES3_S3_St18input_iterator_tag, @function
_ZSt10__distanceISt23_Rb_tree_const_iteratorIcEENSt15iterator_traitsIT_E15difference_typeES3_S3_St18input_iterator_tag:
.LFB11562:
	.cfi_startproc
	endbr64
	push	rbp
	.cfi_def_cfa_offset 16
	.cfi_offset 6, -16
	mov	rbp, rsp
	.cfi_def_cfa_register 6
	sub	rsp, 32
	mov	QWORD PTR -24[rbp], rdi
	mov	QWORD PTR -32[rbp], rsi
	mov	QWORD PTR -8[rbp], 0
	jmp	.L370
.L371:
	lea	rax, -24[rbp]
	mov	rdi, rax
	call	_ZNSt23_Rb_tree_const_iteratorIcEppEv
	add	QWORD PTR -8[rbp], 1
.L370:
	lea	rdx, -32[rbp]
	lea	rax, -24[rbp]
	mov	rsi, rdx
	mov	rdi, rax
	call	_ZStneRKSt23_Rb_tree_const_iteratorIcES2_
	test	al, al
	jne	.L371
	mov	rax, QWORD PTR -8[rbp]
	leave
	.cfi_def_cfa 7, 8
	ret
	.cfi_endproc
.LFE11562:
	.size	_ZSt10__distanceISt23_Rb_tree_const_iteratorIcEENSt15iterator_traitsIT_E15difference_typeES3_S3_St18input_iterator_tag, .-_ZSt10__distanceISt23_Rb_tree_const_iteratorIcEENSt15iterator_traitsIT_E15difference_typeES3_S3_St18input_iterator_tag
	.section	.text._ZNSt23_Rb_tree_const_iteratorIcEppEv,"axG",@progbits,_ZNSt23_Rb_tree_const_iteratorIcEppEv,comdat
	.align 2
	.weak	_ZNSt23_Rb_tree_const_iteratorIcEppEv
	.type	_ZNSt23_Rb_tree_const_iteratorIcEppEv, @function
_ZNSt23_Rb_tree_const_iteratorIcEppEv:
.LFB11563:
	.cfi_startproc
	endbr64
	push	rbp
	.cfi_def_cfa_offset 16
	.cfi_offset 6, -16
	mov	rbp, rsp
	.cfi_def_cfa_register 6
	sub	rsp, 16
	mov	QWORD PTR -8[rbp], rdi
	mov	rax, QWORD PTR -8[rbp]
	mov	rax, QWORD PTR [rax]
	mov	rdi, rax
	call	_ZSt18_Rb_tree_incrementPKSt18_Rb_tree_node_base@PLT
	mov	rdx, QWORD PTR -8[rbp]
	mov	QWORD PTR [rdx], rax
	mov	rax, QWORD PTR -8[rbp]
	leave
	.cfi_def_cfa 7, 8
	ret
	.cfi_endproc
.LFE11563:
	.size	_ZNSt23_Rb_tree_const_iteratorIcEppEv, .-_ZNSt23_Rb_tree_const_iteratorIcEppEv
	.section	.text._ZNKSt23_Rb_tree_const_iteratorIcEdeEv,"axG",@progbits,_ZNKSt23_Rb_tree_const_iteratorIcEdeEv,comdat
	.align 2
	.weak	_ZNKSt23_Rb_tree_const_iteratorIcEdeEv
	.type	_ZNKSt23_Rb_tree_const_iteratorIcEdeEv, @function
_ZNKSt23_Rb_tree_const_iteratorIcEdeEv:
.LFB11564:
	.cfi_startproc
	endbr64
	push	rbp
	.cfi_def_cfa_offset 16
	.cfi_offset 6, -16
	mov	rbp, rsp
	.cfi_def_cfa_register 6
	sub	rsp, 16
	mov	QWORD PTR -8[rbp], rdi
	mov	rax, QWORD PTR -8[rbp]
	mov	rax, QWORD PTR [rax]
	mov	rdi, rax
	call	_ZNKSt13_Rb_tree_nodeIcE9_M_valptrEv
	leave
	.cfi_def_cfa 7, 8
	ret
	.cfi_endproc
.LFE11564:
	.size	_ZNKSt23_Rb_tree_const_iteratorIcEdeEv, .-_ZNKSt23_Rb_tree_const_iteratorIcEdeEv
	.section	.text._ZN9__gnu_cxx13new_allocatorISt13_Rb_tree_nodeISt4pairIKccEEE7destroyIS4_EEvPT_,"axG",@progbits,_ZN9__gnu_cxx13new_allocatorISt13_Rb_tree_nodeISt4pairIKccEEE7destroyIS4_EEvPT_,comdat
	.align 2
	.weak	_ZN9__gnu_cxx13new_allocatorISt13_Rb_tree_nodeISt4pairIKccEEE7destroyIS4_EEvPT_
	.type	_ZN9__gnu_cxx13new_allocatorISt13_Rb_tree_nodeISt4pairIKccEEE7destroyIS4_EEvPT_, @function
_ZN9__gnu_cxx13new_allocatorISt13_Rb_tree_nodeISt4pairIKccEEE7destroyIS4_EEvPT_:
.LFB11565:
	.cfi_startproc
	endbr64
	push	rbp
	.cfi_def_cfa_offset 16
	.cfi_offset 6, -16
	mov	rbp, rsp
	.cfi_def_cfa_register 6
	mov	QWORD PTR -8[rbp], rdi
	mov	QWORD PTR -16[rbp], rsi
	nop
	pop	rbp
	.cfi_def_cfa 7, 8
	ret
	.cfi_endproc
.LFE11565:
	.size	_ZN9__gnu_cxx13new_allocatorISt13_Rb_tree_nodeISt4pairIKccEEE7destroyIS4_EEvPT_, .-_ZN9__gnu_cxx13new_allocatorISt13_Rb_tree_nodeISt4pairIKccEEE7destroyIS4_EEvPT_
	.section	.text._ZN9__gnu_cxx13new_allocatorISt13_Rb_tree_nodeISt4pairIKccEEE10deallocateEPS5_m,"axG",@progbits,_ZN9__gnu_cxx13new_allocatorISt13_Rb_tree_nodeISt4pairIKccEEE10deallocateEPS5_m,comdat
	.align 2
	.weak	_ZN9__gnu_cxx13new_allocatorISt13_Rb_tree_nodeISt4pairIKccEEE10deallocateEPS5_m
	.type	_ZN9__gnu_cxx13new_allocatorISt13_Rb_tree_nodeISt4pairIKccEEE10deallocateEPS5_m, @function
_ZN9__gnu_cxx13new_allocatorISt13_Rb_tree_nodeISt4pairIKccEEE10deallocateEPS5_m:
.LFB11566:
	.cfi_startproc
	endbr64
	push	rbp
	.cfi_def_cfa_offset 16
	.cfi_offset 6, -16
	mov	rbp, rsp
	.cfi_def_cfa_register 6
	sub	rsp, 32
	mov	QWORD PTR -8[rbp], rdi
	mov	QWORD PTR -16[rbp], rsi
	mov	QWORD PTR -24[rbp], rdx
	mov	rdx, QWORD PTR -24[rbp]
	mov	rax, rdx
	sal	rax, 2
	add	rax, rdx
	sal	rax, 3
	mov	rdx, rax
	mov	rax, QWORD PTR -16[rbp]
	mov	rsi, rdx
	mov	rdi, rax
	call	_ZdlPvm@PLT
	leave
	.cfi_def_cfa 7, 8
	ret
	.cfi_endproc
.LFE11566:
	.size	_ZN9__gnu_cxx13new_allocatorISt13_Rb_tree_nodeISt4pairIKccEEE10deallocateEPS5_m, .-_ZN9__gnu_cxx13new_allocatorISt13_Rb_tree_nodeISt4pairIKccEEE10deallocateEPS5_m
	.section	.text._ZNK9__gnu_cxx13new_allocatorISt13_Rb_tree_nodeISt4pairIKccEEE11_M_max_sizeEv,"axG",@progbits,_ZNK9__gnu_cxx13new_allocatorISt13_Rb_tree_nodeISt4pairIKccEEE11_M_max_sizeEv,comdat
	.align 2
	.weak	_ZNK9__gnu_cxx13new_allocatorISt13_Rb_tree_nodeISt4pairIKccEEE11_M_max_sizeEv
	.type	_ZNK9__gnu_cxx13new_allocatorISt13_Rb_tree_nodeISt4pairIKccEEE11_M_max_sizeEv, @function
_ZNK9__gnu_cxx13new_allocatorISt13_Rb_tree_nodeISt4pairIKccEEE11_M_max_sizeEv:
.LFB11568:
	.cfi_startproc
	endbr64
	push	rbp
	.cfi_def_cfa_offset 16
	.cfi_offset 6, -16
	mov	rbp, rsp
	.cfi_def_cfa_register 6
	mov	QWORD PTR -8[rbp], rdi
	movabs	rax, 230584300921369395
	pop	rbp
	.cfi_def_cfa 7, 8
	ret
	.cfi_endproc
.LFE11568:
	.size	_ZNK9__gnu_cxx13new_allocatorISt13_Rb_tree_nodeISt4pairIKccEEE11_M_max_sizeEv, .-_ZNK9__gnu_cxx13new_allocatorISt13_Rb_tree_nodeISt4pairIKccEEE11_M_max_sizeEv
	.section	.text._ZN9__gnu_cxx13new_allocatorISt13_Rb_tree_nodeISt4pairIKccEEE8allocateEmPKv,"axG",@progbits,_ZN9__gnu_cxx13new_allocatorISt13_Rb_tree_nodeISt4pairIKccEEE8allocateEmPKv,comdat
	.align 2
	.weak	_ZN9__gnu_cxx13new_allocatorISt13_Rb_tree_nodeISt4pairIKccEEE8allocateEmPKv
	.type	_ZN9__gnu_cxx13new_allocatorISt13_Rb_tree_nodeISt4pairIKccEEE8allocateEmPKv, @function
_ZN9__gnu_cxx13new_allocatorISt13_Rb_tree_nodeISt4pairIKccEEE8allocateEmPKv:
.LFB11567:
	.cfi_startproc
	endbr64
	push	rbp
	.cfi_def_cfa_offset 16
	.cfi_offset 6, -16
	mov	rbp, rsp
	.cfi_def_cfa_register 6
	sub	rsp, 32
	mov	QWORD PTR -8[rbp], rdi
	mov	QWORD PTR -16[rbp], rsi
	mov	QWORD PTR -24[rbp], rdx
	mov	rax, QWORD PTR -8[rbp]
	mov	rdi, rax
	call	_ZNK9__gnu_cxx13new_allocatorISt13_Rb_tree_nodeISt4pairIKccEEE11_M_max_sizeEv
	cmp	QWORD PTR -16[rbp], rax
	seta	al
	movzx	eax, al
	test	rax, rax
	setne	al
	test	al, al
	je	.L383
	movabs	rax, 461168601842738790
	cmp	QWORD PTR -16[rbp], rax
	jbe	.L384
	call	_ZSt28__throw_bad_array_new_lengthv@PLT
.L384:
	call	_ZSt17__throw_bad_allocv@PLT
.L383:
	mov	rdx, QWORD PTR -16[rbp]
	mov	rax, rdx
	sal	rax, 2
	add	rax, rdx
	sal	rax, 3
	mov	rdi, rax
	call	_Znwm@PLT
	nop
	leave
	.cfi_def_cfa 7, 8
	ret
	.cfi_endproc
.LFE11567:
	.size	_ZN9__gnu_cxx13new_allocatorISt13_Rb_tree_nodeISt4pairIKccEEE8allocateEmPKv, .-_ZN9__gnu_cxx13new_allocatorISt13_Rb_tree_nodeISt4pairIKccEEE8allocateEmPKv
	.section	.text._ZNSt5tupleIJRKcEEC2EOS2_,"axG",@progbits,_ZNSt5tupleIJRKcEEC5EOS2_,comdat
	.align 2
	.weak	_ZNSt5tupleIJRKcEEC2EOS2_
	.type	_ZNSt5tupleIJRKcEEC2EOS2_, @function
_ZNSt5tupleIJRKcEEC2EOS2_:
.LFB11571:
	.cfi_startproc
	endbr64
	push	rbp
	.cfi_def_cfa_offset 16
	.cfi_offset 6, -16
	mov	rbp, rsp
	.cfi_def_cfa_register 6
	sub	rsp, 16
	mov	QWORD PTR -8[rbp], rdi
	mov	QWORD PTR -16[rbp], rsi
	mov	rax, QWORD PTR -8[rbp]
	mov	rdx, QWORD PTR -16[rbp]
	mov	rsi, rdx
	mov	rdi, rax
	call	_ZNSt11_Tuple_implILm0EJRKcEEC2EOS2_
	nop
	leave
	.cfi_def_cfa 7, 8
	ret
	.cfi_endproc
.LFE11571:
	.size	_ZNSt5tupleIJRKcEEC2EOS2_, .-_ZNSt5tupleIJRKcEEC2EOS2_
	.weak	_ZNSt5tupleIJRKcEEC1EOS2_
	.set	_ZNSt5tupleIJRKcEEC1EOS2_,_ZNSt5tupleIJRKcEEC2EOS2_
	.section	.text._ZN9__gnu_cxx13new_allocatorISt13_Rb_tree_nodeISt4pairIKccEEE9constructIS4_JRKSt21piecewise_construct_tSt5tupleIJRS3_EESB_IJEEEEEvPT_DpOT0_,"axG",@progbits,_ZN9__gnu_cxx13new_allocatorISt13_Rb_tree_nodeISt4pairIKccEEE9constructIS4_JRKSt21piecewise_construct_tSt5tupleIJRS3_EESB_IJEEEEEvPT_DpOT0_,comdat
	.align 2
	.weak	_ZN9__gnu_cxx13new_allocatorISt13_Rb_tree_nodeISt4pairIKccEEE9constructIS4_JRKSt21piecewise_construct_tSt5tupleIJRS3_EESB_IJEEEEEvPT_DpOT0_
	.type	_ZN9__gnu_cxx13new_allocatorISt13_Rb_tree_nodeISt4pairIKccEEE9constructIS4_JRKSt21piecewise_construct_tSt5tupleIJRS3_EESB_IJEEEEEvPT_DpOT0_, @function
_ZN9__gnu_cxx13new_allocatorISt13_Rb_tree_nodeISt4pairIKccEEE9constructIS4_JRKSt21piecewise_construct_tSt5tupleIJRS3_EESB_IJEEEEEvPT_DpOT0_:
.LFB11569:
	.cfi_startproc
	.cfi_personality 0x9b,DW.ref.__gxx_personality_v0
	.cfi_lsda 0x1b,.LLSDA11569
	endbr64
	push	rbp
	.cfi_def_cfa_offset 16
	.cfi_offset 6, -16
	mov	rbp, rsp
	.cfi_def_cfa_register 6
	push	r13
	push	r12
	push	rbx
	sub	rsp, 88
	.cfi_offset 13, -24
	.cfi_offset 12, -32
	.cfi_offset 3, -40
	mov	QWORD PTR -72[rbp], rdi
	mov	QWORD PTR -80[rbp], rsi
	mov	QWORD PTR -88[rbp], rdx
	mov	QWORD PTR -96[rbp], rcx
	mov	QWORD PTR -104[rbp], r8
	mov	rax, QWORD PTR fs:40
	mov	QWORD PTR -40[rbp], rax
	xor	eax, eax
	mov	rax, QWORD PTR -88[rbp]
	mov	rdi, rax
	call	_ZSt7forwardIRKSt21piecewise_construct_tEOT_RNSt16remove_referenceIS3_E4typeE
	mov	rax, QWORD PTR -96[rbp]
	mov	rdi, rax
	call	_ZSt7forwardISt5tupleIJRKcEEEOT_RNSt16remove_referenceIS4_E4typeE
	mov	rdx, rax
	lea	rax, -48[rbp]
	mov	rsi, rdx
	mov	rdi, rax
	call	_ZNSt5tupleIJRKcEEC1EOS2_
	lea	r13, -48[rbp]
	mov	rax, QWORD PTR -104[rbp]
	mov	rdi, rax
	call	_ZSt7forwardISt5tupleIJEEEOT_RNSt16remove_referenceIS2_E4typeE
	mov	rbx, QWORD PTR -80[rbp]
	mov	rsi, rbx
	mov	edi, 2
	call	_ZnwmPv
	mov	r12, rax
	mov	rsi, r13
	mov	rdi, r12
.LEHB23:
	call	_ZNSt4pairIKccEC1IJRS0_EJEEESt21piecewise_construct_tSt5tupleIJDpT_EES5_IJDpT0_EE
.LEHE23:
	jmp	.L391
.L390:
	endbr64
	mov	r13, rax
	mov	rsi, rbx
	mov	rdi, r12
	call	_ZdlPvS_
	mov	rax, r13
	mov	rdi, rax
.LEHB24:
	call	_Unwind_Resume@PLT
.LEHE24:
.L391:
	mov	rax, QWORD PTR -40[rbp]
	sub	rax, QWORD PTR fs:40
	je	.L389
	call	__stack_chk_fail@PLT
.L389:
	add	rsp, 88
	pop	rbx
	pop	r12
	pop	r13
	pop	rbp
	.cfi_def_cfa 7, 8
	ret
	.cfi_endproc
.LFE11569:
	.section	.gcc_except_table
.LLSDA11569:
	.byte	0xff
	.byte	0xff
	.byte	0x1
	.uleb128 .LLSDACSE11569-.LLSDACSB11569
.LLSDACSB11569:
	.uleb128 .LEHB23-.LFB11569
	.uleb128 .LEHE23-.LEHB23
	.uleb128 .L390-.LFB11569
	.uleb128 0
	.uleb128 .LEHB24-.LFB11569
	.uleb128 .LEHE24-.LEHB24
	.uleb128 0
	.uleb128 0
.LLSDACSE11569:
	.section	.text._ZN9__gnu_cxx13new_allocatorISt13_Rb_tree_nodeISt4pairIKccEEE9constructIS4_JRKSt21piecewise_construct_tSt5tupleIJRS3_EESB_IJEEEEEvPT_DpOT0_,"axG",@progbits,_ZN9__gnu_cxx13new_allocatorISt13_Rb_tree_nodeISt4pairIKccEEE9constructIS4_JRKSt21piecewise_construct_tSt5tupleIJRS3_EESB_IJEEEEEvPT_DpOT0_,comdat
	.size	_ZN9__gnu_cxx13new_allocatorISt13_Rb_tree_nodeISt4pairIKccEEE9constructIS4_JRKSt21piecewise_construct_tSt5tupleIJRS3_EESB_IJEEEEEvPT_DpOT0_, .-_ZN9__gnu_cxx13new_allocatorISt13_Rb_tree_nodeISt4pairIKccEEE9constructIS4_JRKSt21piecewise_construct_tSt5tupleIJRS3_EESB_IJEEEEEvPT_DpOT0_
	.section	.text._ZSt7forwardIRPSt13_Rb_tree_nodeISt4pairIKccEEEOT_RNSt16remove_referenceIS7_E4typeE,"axG",@progbits,_ZSt7forwardIRPSt13_Rb_tree_nodeISt4pairIKccEEEOT_RNSt16remove_referenceIS7_E4typeE,comdat
	.weak	_ZSt7forwardIRPSt13_Rb_tree_nodeISt4pairIKccEEEOT_RNSt16remove_referenceIS7_E4typeE
	.type	_ZSt7forwardIRPSt13_Rb_tree_nodeISt4pairIKccEEEOT_RNSt16remove_referenceIS7_E4typeE, @function
_ZSt7forwardIRPSt13_Rb_tree_nodeISt4pairIKccEEEOT_RNSt16remove_referenceIS7_E4typeE:
.LFB11573:
	.cfi_startproc
	endbr64
	push	rbp
	.cfi_def_cfa_offset 16
	.cfi_offset 6, -16
	mov	rbp, rsp
	.cfi_def_cfa_register 6
	mov	QWORD PTR -8[rbp], rdi
	mov	rax, QWORD PTR -8[rbp]
	pop	rbp
	.cfi_def_cfa 7, 8
	ret
	.cfi_endproc
.LFE11573:
	.size	_ZSt7forwardIRPSt13_Rb_tree_nodeISt4pairIKccEEEOT_RNSt16remove_referenceIS7_E4typeE, .-_ZSt7forwardIRPSt13_Rb_tree_nodeISt4pairIKccEEEOT_RNSt16remove_referenceIS7_E4typeE
	.section	.text._ZNK9__gnu_cxx16__aligned_membufISt4pairIKccEE7_M_addrEv,"axG",@progbits,_ZNK9__gnu_cxx16__aligned_membufISt4pairIKccEE7_M_addrEv,comdat
	.align 2
	.weak	_ZNK9__gnu_cxx16__aligned_membufISt4pairIKccEE7_M_addrEv
	.type	_ZNK9__gnu_cxx16__aligned_membufISt4pairIKccEE7_M_addrEv, @function
_ZNK9__gnu_cxx16__aligned_membufISt4pairIKccEE7_M_addrEv:
.LFB11574:
	.cfi_startproc
	endbr64
	push	rbp
	.cfi_def_cfa_offset 16
	.cfi_offset 6, -16
	mov	rbp, rsp
	.cfi_def_cfa_register 6
	mov	QWORD PTR -8[rbp], rdi
	mov	rax, QWORD PTR -8[rbp]
	pop	rbp
	.cfi_def_cfa 7, 8
	ret
	.cfi_endproc
.LFE11574:
	.size	_ZNK9__gnu_cxx16__aligned_membufISt4pairIKccEE7_M_addrEv, .-_ZNK9__gnu_cxx16__aligned_membufISt4pairIKccEE7_M_addrEv
	.section	.text._ZNKSt13_Rb_tree_nodeIcE9_M_valptrEv,"axG",@progbits,_ZNKSt13_Rb_tree_nodeIcE9_M_valptrEv,comdat
	.align 2
	.weak	_ZNKSt13_Rb_tree_nodeIcE9_M_valptrEv
	.type	_ZNKSt13_Rb_tree_nodeIcE9_M_valptrEv, @function
_ZNKSt13_Rb_tree_nodeIcE9_M_valptrEv:
.LFB11642:
	.cfi_startproc
	endbr64
	push	rbp
	.cfi_def_cfa_offset 16
	.cfi_offset 6, -16
	mov	rbp, rsp
	.cfi_def_cfa_register 6
	sub	rsp, 16
	mov	QWORD PTR -8[rbp], rdi
	mov	rax, QWORD PTR -8[rbp]
	add	rax, 32
	mov	rdi, rax
	call	_ZNK9__gnu_cxx16__aligned_membufIcE6_M_ptrEv
	leave
	.cfi_def_cfa 7, 8
	ret
	.cfi_endproc
.LFE11642:
	.size	_ZNKSt13_Rb_tree_nodeIcE9_M_valptrEv, .-_ZNKSt13_Rb_tree_nodeIcE9_M_valptrEv
	.section	.text._ZNKSt9_IdentityIcEclERKc,"axG",@progbits,_ZNKSt9_IdentityIcEclERKc,comdat
	.align 2
	.weak	_ZNKSt9_IdentityIcEclERKc
	.type	_ZNKSt9_IdentityIcEclERKc, @function
_ZNKSt9_IdentityIcEclERKc:
.LFB11643:
	.cfi_startproc
	endbr64
	push	rbp
	.cfi_def_cfa_offset 16
	.cfi_offset 6, -16
	mov	rbp, rsp
	.cfi_def_cfa_register 6
	mov	QWORD PTR -8[rbp], rdi
	mov	QWORD PTR -16[rbp], rsi
	mov	rax, QWORD PTR -16[rbp]
	pop	rbp
	.cfi_def_cfa 7, 8
	ret
	.cfi_endproc
.LFE11643:
	.size	_ZNKSt9_IdentityIcEclERKc, .-_ZNKSt9_IdentityIcEclERKc
	.section	.text._ZSt7forwardIRPSt13_Rb_tree_nodeIcEEOT_RNSt16remove_referenceIS4_E4typeE,"axG",@progbits,_ZSt7forwardIRPSt13_Rb_tree_nodeIcEEOT_RNSt16remove_referenceIS4_E4typeE,comdat
	.weak	_ZSt7forwardIRPSt13_Rb_tree_nodeIcEEOT_RNSt16remove_referenceIS4_E4typeE
	.type	_ZSt7forwardIRPSt13_Rb_tree_nodeIcEEOT_RNSt16remove_referenceIS4_E4typeE, @function
_ZSt7forwardIRPSt13_Rb_tree_nodeIcEEOT_RNSt16remove_referenceIS4_E4typeE:
.LFB11644:
	.cfi_startproc
	endbr64
	push	rbp
	.cfi_def_cfa_offset 16
	.cfi_offset 6, -16
	mov	rbp, rsp
	.cfi_def_cfa_register 6
	mov	QWORD PTR -8[rbp], rdi
	mov	rax, QWORD PTR -8[rbp]
	pop	rbp
	.cfi_def_cfa 7, 8
	ret
	.cfi_endproc
.LFE11644:
	.size	_ZSt7forwardIRPSt13_Rb_tree_nodeIcEEOT_RNSt16remove_referenceIS4_E4typeE, .-_ZSt7forwardIRPSt13_Rb_tree_nodeIcEEOT_RNSt16remove_referenceIS4_E4typeE
	.section	.text._ZNSt8_Rb_treeIccSt9_IdentityIcESt4lessIcESaIcEE11_M_get_nodeEv,"axG",@progbits,_ZNSt8_Rb_treeIccSt9_IdentityIcESt4lessIcESaIcEE11_M_get_nodeEv,comdat
	.align 2
	.weak	_ZNSt8_Rb_treeIccSt9_IdentityIcESt4lessIcESaIcEE11_M_get_nodeEv
	.type	_ZNSt8_Rb_treeIccSt9_IdentityIcESt4lessIcESaIcEE11_M_get_nodeEv, @function
_ZNSt8_Rb_treeIccSt9_IdentityIcESt4lessIcESaIcEE11_M_get_nodeEv:
.LFB11645:
	.cfi_startproc
	endbr64
	push	rbp
	.cfi_def_cfa_offset 16
	.cfi_offset 6, -16
	mov	rbp, rsp
	.cfi_def_cfa_register 6
	sub	rsp, 16
	mov	QWORD PTR -8[rbp], rdi
	mov	rax, QWORD PTR -8[rbp]
	mov	rdi, rax
	call	_ZNSt8_Rb_treeIccSt9_IdentityIcESt4lessIcESaIcEE21_M_get_Node_allocatorEv
	mov	esi, 1
	mov	rdi, rax
	call	_ZNSt16allocator_traitsISaISt13_Rb_tree_nodeIcEEE8allocateERS2_m
	leave
	.cfi_def_cfa 7, 8
	ret
	.cfi_endproc
.LFE11645:
	.size	_ZNSt8_Rb_treeIccSt9_IdentityIcESt4lessIcESaIcEE11_M_get_nodeEv, .-_ZNSt8_Rb_treeIccSt9_IdentityIcESt4lessIcESaIcEE11_M_get_nodeEv
	.section	.text._ZNSt8_Rb_treeIccSt9_IdentityIcESt4lessIcESaIcEE17_M_construct_nodeIJRcEEEvPSt13_Rb_tree_nodeIcEDpOT_,"axG",@progbits,_ZNSt8_Rb_treeIccSt9_IdentityIcESt4lessIcESaIcEE17_M_construct_nodeIJRcEEEvPSt13_Rb_tree_nodeIcEDpOT_,comdat
	.align 2
	.weak	_ZNSt8_Rb_treeIccSt9_IdentityIcESt4lessIcESaIcEE17_M_construct_nodeIJRcEEEvPSt13_Rb_tree_nodeIcEDpOT_
	.type	_ZNSt8_Rb_treeIccSt9_IdentityIcESt4lessIcESaIcEE17_M_construct_nodeIJRcEEEvPSt13_Rb_tree_nodeIcEDpOT_, @function
_ZNSt8_Rb_treeIccSt9_IdentityIcESt4lessIcESaIcEE17_M_construct_nodeIJRcEEEvPSt13_Rb_tree_nodeIcEDpOT_:
.LFB11646:
	.cfi_startproc
	endbr64
	push	rbp
	.cfi_def_cfa_offset 16
	.cfi_offset 6, -16
	mov	rbp, rsp
	.cfi_def_cfa_register 6
	push	r12
	push	rbx
	sub	rsp, 32
	.cfi_offset 12, -24
	.cfi_offset 3, -32
	mov	QWORD PTR -24[rbp], rdi
	mov	QWORD PTR -32[rbp], rsi
	mov	QWORD PTR -40[rbp], rdx
	mov	rax, QWORD PTR -32[rbp]
	mov	rsi, rax
	mov	edi, 40
	call	_ZnwmPv
	mov	rax, QWORD PTR -40[rbp]
	mov	rdi, rax
	call	_ZSt7forwardIRcEOT_RNSt16remove_referenceIS1_E4typeE
	mov	r12, rax
	mov	rax, QWORD PTR -32[rbp]
	mov	rdi, rax
	call	_ZNSt13_Rb_tree_nodeIcE9_M_valptrEv
	mov	rbx, rax
	mov	rax, QWORD PTR -24[rbp]
	mov	rdi, rax
	call	_ZNSt8_Rb_treeIccSt9_IdentityIcESt4lessIcESaIcEE21_M_get_Node_allocatorEv
	mov	rdx, r12
	mov	rsi, rbx
	mov	rdi, rax
	call	_ZNSt16allocator_traitsISaISt13_Rb_tree_nodeIcEEE9constructIcJRcEEEvRS2_PT_DpOT0_
	nop
	add	rsp, 32
	pop	rbx
	pop	r12
	pop	rbp
	.cfi_def_cfa 7, 8
	ret
	.cfi_endproc
.LFE11646:
	.size	_ZNSt8_Rb_treeIccSt9_IdentityIcESt4lessIcESaIcEE17_M_construct_nodeIJRcEEEvPSt13_Rb_tree_nodeIcEDpOT_, .-_ZNSt8_Rb_treeIccSt9_IdentityIcESt4lessIcESaIcEE17_M_construct_nodeIJRcEEEvPSt13_Rb_tree_nodeIcEDpOT_
	.section	.text._ZN9__gnu_cxx16__aligned_membufIcE7_M_addrEv,"axG",@progbits,_ZN9__gnu_cxx16__aligned_membufIcE7_M_addrEv,comdat
	.align 2
	.weak	_ZN9__gnu_cxx16__aligned_membufIcE7_M_addrEv
	.type	_ZN9__gnu_cxx16__aligned_membufIcE7_M_addrEv, @function
_ZN9__gnu_cxx16__aligned_membufIcE7_M_addrEv:
.LFB11647:
	.cfi_startproc
	endbr64
	push	rbp
	.cfi_def_cfa_offset 16
	.cfi_offset 6, -16
	mov	rbp, rsp
	.cfi_def_cfa_register 6
	mov	QWORD PTR -8[rbp], rdi
	mov	rax, QWORD PTR -8[rbp]
	pop	rbp
	.cfi_def_cfa 7, 8
	ret
	.cfi_endproc
.LFE11647:
	.size	_ZN9__gnu_cxx16__aligned_membufIcE7_M_addrEv, .-_ZN9__gnu_cxx16__aligned_membufIcE7_M_addrEv
	.section	.text._ZNSt11_Tuple_implILm0EJRKcEEC2EOS2_,"axG",@progbits,_ZNSt11_Tuple_implILm0EJRKcEEC5EOS2_,comdat
	.align 2
	.weak	_ZNSt11_Tuple_implILm0EJRKcEEC2EOS2_
	.type	_ZNSt11_Tuple_implILm0EJRKcEEC2EOS2_, @function
_ZNSt11_Tuple_implILm0EJRKcEEC2EOS2_:
.LFB11649:
	.cfi_startproc
	endbr64
	push	rbp
	.cfi_def_cfa_offset 16
	.cfi_offset 6, -16
	mov	rbp, rsp
	.cfi_def_cfa_register 6
	mov	QWORD PTR -8[rbp], rdi
	mov	QWORD PTR -16[rbp], rsi
	mov	rax, QWORD PTR -8[rbp]
	mov	rdx, QWORD PTR -16[rbp]
	mov	rdx, QWORD PTR [rdx]
	mov	QWORD PTR [rax], rdx
	nop
	pop	rbp
	.cfi_def_cfa 7, 8
	ret
	.cfi_endproc
.LFE11649:
	.size	_ZNSt11_Tuple_implILm0EJRKcEEC2EOS2_, .-_ZNSt11_Tuple_implILm0EJRKcEEC2EOS2_
	.weak	_ZNSt11_Tuple_implILm0EJRKcEEC1EOS2_
	.set	_ZNSt11_Tuple_implILm0EJRKcEEC1EOS2_,_ZNSt11_Tuple_implILm0EJRKcEEC2EOS2_
	.section	.text._ZNSt4pairIKccEC2IJRS0_EJEEESt21piecewise_construct_tSt5tupleIJDpT_EES5_IJDpT0_EE,"axG",@progbits,_ZNSt4pairIKccEC5IJRS0_EJEEESt21piecewise_construct_tSt5tupleIJDpT_EES5_IJDpT0_EE,comdat
	.align 2
	.weak	_ZNSt4pairIKccEC2IJRS0_EJEEESt21piecewise_construct_tSt5tupleIJDpT_EES5_IJDpT0_EE
	.type	_ZNSt4pairIKccEC2IJRS0_EJEEESt21piecewise_construct_tSt5tupleIJDpT_EES5_IJDpT0_EE, @function
_ZNSt4pairIKccEC2IJRS0_EJEEESt21piecewise_construct_tSt5tupleIJDpT_EES5_IJDpT0_EE:
.LFB11652:
	.cfi_startproc
	endbr64
	push	rbp
	.cfi_def_cfa_offset 16
	.cfi_offset 6, -16
	mov	rbp, rsp
	.cfi_def_cfa_register 6
	sub	rsp, 32
	mov	QWORD PTR -8[rbp], rdi
	mov	QWORD PTR -16[rbp], rsi
	lea	rdx, -17[rbp]
	mov	rcx, QWORD PTR -16[rbp]
	mov	rax, QWORD PTR -8[rbp]
	mov	rsi, rcx
	mov	rdi, rax
	call	_ZNSt4pairIKccEC1IJRS0_EJLm0EEJEJEEERSt5tupleIJDpT_EERS4_IJDpT1_EESt12_Index_tupleIJXspT0_EEESD_IJXspT2_EEE
	nop
	leave
	.cfi_def_cfa 7, 8
	ret
	.cfi_endproc
.LFE11652:
	.size	_ZNSt4pairIKccEC2IJRS0_EJEEESt21piecewise_construct_tSt5tupleIJDpT_EES5_IJDpT0_EE, .-_ZNSt4pairIKccEC2IJRS0_EJEEESt21piecewise_construct_tSt5tupleIJDpT_EES5_IJDpT0_EE
	.weak	_ZNSt4pairIKccEC1IJRS0_EJEEESt21piecewise_construct_tSt5tupleIJDpT_EES5_IJDpT0_EE
	.set	_ZNSt4pairIKccEC1IJRS0_EJEEESt21piecewise_construct_tSt5tupleIJDpT_EES5_IJDpT0_EE,_ZNSt4pairIKccEC2IJRS0_EJEEESt21piecewise_construct_tSt5tupleIJDpT_EES5_IJDpT0_EE
	.section	.text._ZNK9__gnu_cxx16__aligned_membufIcE6_M_ptrEv,"axG",@progbits,_ZNK9__gnu_cxx16__aligned_membufIcE6_M_ptrEv,comdat
	.align 2
	.weak	_ZNK9__gnu_cxx16__aligned_membufIcE6_M_ptrEv
	.type	_ZNK9__gnu_cxx16__aligned_membufIcE6_M_ptrEv, @function
_ZNK9__gnu_cxx16__aligned_membufIcE6_M_ptrEv:
.LFB11683:
	.cfi_startproc
	endbr64
	push	rbp
	.cfi_def_cfa_offset 16
	.cfi_offset 6, -16
	mov	rbp, rsp
	.cfi_def_cfa_register 6
	sub	rsp, 16
	mov	QWORD PTR -8[rbp], rdi
	mov	rax, QWORD PTR -8[rbp]
	mov	rdi, rax
	call	_ZNK9__gnu_cxx16__aligned_membufIcE7_M_addrEv
	leave
	.cfi_def_cfa 7, 8
	ret
	.cfi_endproc
.LFE11683:
	.size	_ZNK9__gnu_cxx16__aligned_membufIcE6_M_ptrEv, .-_ZNK9__gnu_cxx16__aligned_membufIcE6_M_ptrEv
	.section	.text._ZNSt16allocator_traitsISaISt13_Rb_tree_nodeIcEEE8allocateERS2_m,"axG",@progbits,_ZNSt16allocator_traitsISaISt13_Rb_tree_nodeIcEEE8allocateERS2_m,comdat
	.weak	_ZNSt16allocator_traitsISaISt13_Rb_tree_nodeIcEEE8allocateERS2_m
	.type	_ZNSt16allocator_traitsISaISt13_Rb_tree_nodeIcEEE8allocateERS2_m, @function
_ZNSt16allocator_traitsISaISt13_Rb_tree_nodeIcEEE8allocateERS2_m:
.LFB11684:
	.cfi_startproc
	endbr64
	push	rbp
	.cfi_def_cfa_offset 16
	.cfi_offset 6, -16
	mov	rbp, rsp
	.cfi_def_cfa_register 6
	sub	rsp, 16
	mov	QWORD PTR -8[rbp], rdi
	mov	QWORD PTR -16[rbp], rsi
	mov	rcx, QWORD PTR -16[rbp]
	mov	rax, QWORD PTR -8[rbp]
	mov	edx, 0
	mov	rsi, rcx
	mov	rdi, rax
	call	_ZN9__gnu_cxx13new_allocatorISt13_Rb_tree_nodeIcEE8allocateEmPKv
	leave
	.cfi_def_cfa 7, 8
	ret
	.cfi_endproc
.LFE11684:
	.size	_ZNSt16allocator_traitsISaISt13_Rb_tree_nodeIcEEE8allocateERS2_m, .-_ZNSt16allocator_traitsISaISt13_Rb_tree_nodeIcEEE8allocateERS2_m
	.section	.text._ZNSt16allocator_traitsISaISt13_Rb_tree_nodeIcEEE9constructIcJRcEEEvRS2_PT_DpOT0_,"axG",@progbits,_ZNSt16allocator_traitsISaISt13_Rb_tree_nodeIcEEE9constructIcJRcEEEvRS2_PT_DpOT0_,comdat
	.weak	_ZNSt16allocator_traitsISaISt13_Rb_tree_nodeIcEEE9constructIcJRcEEEvRS2_PT_DpOT0_
	.type	_ZNSt16allocator_traitsISaISt13_Rb_tree_nodeIcEEE9constructIcJRcEEEvRS2_PT_DpOT0_, @function
_ZNSt16allocator_traitsISaISt13_Rb_tree_nodeIcEEE9constructIcJRcEEEvRS2_PT_DpOT0_:
.LFB11685:
	.cfi_startproc
	endbr64
	push	rbp
	.cfi_def_cfa_offset 16
	.cfi_offset 6, -16
	mov	rbp, rsp
	.cfi_def_cfa_register 6
	sub	rsp, 32
	mov	QWORD PTR -8[rbp], rdi
	mov	QWORD PTR -16[rbp], rsi
	mov	QWORD PTR -24[rbp], rdx
	mov	rax, QWORD PTR -24[rbp]
	mov	rdi, rax
	call	_ZSt7forwardIRcEOT_RNSt16remove_referenceIS1_E4typeE
	mov	rdx, rax
	mov	rcx, QWORD PTR -16[rbp]
	mov	rax, QWORD PTR -8[rbp]
	mov	rsi, rcx
	mov	rdi, rax
	call	_ZN9__gnu_cxx13new_allocatorISt13_Rb_tree_nodeIcEE9constructIcJRcEEEvPT_DpOT0_
	nop
	leave
	.cfi_def_cfa 7, 8
	ret
	.cfi_endproc
.LFE11685:
	.size	_ZNSt16allocator_traitsISaISt13_Rb_tree_nodeIcEEE9constructIcJRcEEEvRS2_PT_DpOT0_, .-_ZNSt16allocator_traitsISaISt13_Rb_tree_nodeIcEEE9constructIcJRcEEEvRS2_PT_DpOT0_
	.section	.text._ZNSt4pairIKccEC2IJRS0_EJLm0EEJEJEEERSt5tupleIJDpT_EERS4_IJDpT1_EESt12_Index_tupleIJXspT0_EEESD_IJXspT2_EEE,"axG",@progbits,_ZNSt4pairIKccEC5IJRS0_EJLm0EEJEJEEERSt5tupleIJDpT_EERS4_IJDpT1_EESt12_Index_tupleIJXspT0_EEESD_IJXspT2_EEE,comdat
	.align 2
	.weak	_ZNSt4pairIKccEC2IJRS0_EJLm0EEJEJEEERSt5tupleIJDpT_EERS4_IJDpT1_EESt12_Index_tupleIJXspT0_EEESD_IJXspT2_EEE
	.type	_ZNSt4pairIKccEC2IJRS0_EJLm0EEJEJEEERSt5tupleIJDpT_EERS4_IJDpT1_EESt12_Index_tupleIJXspT0_EEESD_IJXspT2_EEE, @function
_ZNSt4pairIKccEC2IJRS0_EJLm0EEJEJEEERSt5tupleIJDpT_EERS4_IJDpT1_EESt12_Index_tupleIJXspT0_EEESD_IJXspT2_EEE:
.LFB11687:
	.cfi_startproc
	endbr64
	push	rbp
	.cfi_def_cfa_offset 16
	.cfi_offset 6, -16
	mov	rbp, rsp
	.cfi_def_cfa_register 6
	sub	rsp, 32
	mov	QWORD PTR -8[rbp], rdi
	mov	QWORD PTR -16[rbp], rsi
	mov	QWORD PTR -24[rbp], rdx
	mov	rax, QWORD PTR -16[rbp]
	mov	rdi, rax
	call	_ZSt3getILm0EJRKcEERNSt13tuple_elementIXT_ESt5tupleIJDpT0_EEE4typeERS6_
	mov	rdi, rax
	call	_ZSt7forwardIRKcEOT_RNSt16remove_referenceIS2_E4typeE
	movzx	edx, BYTE PTR [rax]
	mov	rax, QWORD PTR -8[rbp]
	mov	BYTE PTR [rax], dl
	mov	rax, QWORD PTR -8[rbp]
	mov	BYTE PTR 1[rax], 0
	nop
	leave
	.cfi_def_cfa 7, 8
	ret
	.cfi_endproc
.LFE11687:
	.size	_ZNSt4pairIKccEC2IJRS0_EJLm0EEJEJEEERSt5tupleIJDpT_EERS4_IJDpT1_EESt12_Index_tupleIJXspT0_EEESD_IJXspT2_EEE, .-_ZNSt4pairIKccEC2IJRS0_EJLm0EEJEJEEERSt5tupleIJDpT_EERS4_IJDpT1_EESt12_Index_tupleIJXspT0_EEESD_IJXspT2_EEE
	.weak	_ZNSt4pairIKccEC1IJRS0_EJLm0EEJEJEEERSt5tupleIJDpT_EERS4_IJDpT1_EESt12_Index_tupleIJXspT0_EEESD_IJXspT2_EEE
	.set	_ZNSt4pairIKccEC1IJRS0_EJLm0EEJEJEEERSt5tupleIJDpT_EERS4_IJDpT1_EESt12_Index_tupleIJXspT0_EEESD_IJXspT2_EEE,_ZNSt4pairIKccEC2IJRS0_EJLm0EEJEJEEERSt5tupleIJDpT_EERS4_IJDpT1_EESt12_Index_tupleIJXspT0_EEESD_IJXspT2_EEE
	.section	.text._ZNK9__gnu_cxx16__aligned_membufIcE7_M_addrEv,"axG",@progbits,_ZNK9__gnu_cxx16__aligned_membufIcE7_M_addrEv,comdat
	.align 2
	.weak	_ZNK9__gnu_cxx16__aligned_membufIcE7_M_addrEv
	.type	_ZNK9__gnu_cxx16__aligned_membufIcE7_M_addrEv, @function
_ZNK9__gnu_cxx16__aligned_membufIcE7_M_addrEv:
.LFB11692:
	.cfi_startproc
	endbr64
	push	rbp
	.cfi_def_cfa_offset 16
	.cfi_offset 6, -16
	mov	rbp, rsp
	.cfi_def_cfa_register 6
	mov	QWORD PTR -8[rbp], rdi
	mov	rax, QWORD PTR -8[rbp]
	pop	rbp
	.cfi_def_cfa 7, 8
	ret
	.cfi_endproc
.LFE11692:
	.size	_ZNK9__gnu_cxx16__aligned_membufIcE7_M_addrEv, .-_ZNK9__gnu_cxx16__aligned_membufIcE7_M_addrEv
	.section	.text._ZNK9__gnu_cxx13new_allocatorISt13_Rb_tree_nodeIcEE11_M_max_sizeEv,"axG",@progbits,_ZNK9__gnu_cxx13new_allocatorISt13_Rb_tree_nodeIcEE11_M_max_sizeEv,comdat
	.align 2
	.weak	_ZNK9__gnu_cxx13new_allocatorISt13_Rb_tree_nodeIcEE11_M_max_sizeEv
	.type	_ZNK9__gnu_cxx13new_allocatorISt13_Rb_tree_nodeIcEE11_M_max_sizeEv, @function
_ZNK9__gnu_cxx13new_allocatorISt13_Rb_tree_nodeIcEE11_M_max_sizeEv:
.LFB11694:
	.cfi_startproc
	endbr64
	push	rbp
	.cfi_def_cfa_offset 16
	.cfi_offset 6, -16
	mov	rbp, rsp
	.cfi_def_cfa_register 6
	mov	QWORD PTR -8[rbp], rdi
	movabs	rax, 230584300921369395
	pop	rbp
	.cfi_def_cfa 7, 8
	ret
	.cfi_endproc
.LFE11694:
	.size	_ZNK9__gnu_cxx13new_allocatorISt13_Rb_tree_nodeIcEE11_M_max_sizeEv, .-_ZNK9__gnu_cxx13new_allocatorISt13_Rb_tree_nodeIcEE11_M_max_sizeEv
	.section	.text._ZN9__gnu_cxx13new_allocatorISt13_Rb_tree_nodeIcEE8allocateEmPKv,"axG",@progbits,_ZN9__gnu_cxx13new_allocatorISt13_Rb_tree_nodeIcEE8allocateEmPKv,comdat
	.align 2
	.weak	_ZN9__gnu_cxx13new_allocatorISt13_Rb_tree_nodeIcEE8allocateEmPKv
	.type	_ZN9__gnu_cxx13new_allocatorISt13_Rb_tree_nodeIcEE8allocateEmPKv, @function
_ZN9__gnu_cxx13new_allocatorISt13_Rb_tree_nodeIcEE8allocateEmPKv:
.LFB11693:
	.cfi_startproc
	endbr64
	push	rbp
	.cfi_def_cfa_offset 16
	.cfi_offset 6, -16
	mov	rbp, rsp
	.cfi_def_cfa_register 6
	sub	rsp, 32
	mov	QWORD PTR -8[rbp], rdi
	mov	QWORD PTR -16[rbp], rsi
	mov	QWORD PTR -24[rbp], rdx
	mov	rax, QWORD PTR -8[rbp]
	mov	rdi, rax
	call	_ZNK9__gnu_cxx13new_allocatorISt13_Rb_tree_nodeIcEE11_M_max_sizeEv
	cmp	QWORD PTR -16[rbp], rax
	seta	al
	movzx	eax, al
	test	rax, rax
	setne	al
	test	al, al
	je	.L420
	movabs	rax, 461168601842738790
	cmp	QWORD PTR -16[rbp], rax
	jbe	.L421
	call	_ZSt28__throw_bad_array_new_lengthv@PLT
.L421:
	call	_ZSt17__throw_bad_allocv@PLT
.L420:
	mov	rdx, QWORD PTR -16[rbp]
	mov	rax, rdx
	sal	rax, 2
	add	rax, rdx
	sal	rax, 3
	mov	rdi, rax
	call	_Znwm@PLT
	nop
	leave
	.cfi_def_cfa 7, 8
	ret
	.cfi_endproc
.LFE11693:
	.size	_ZN9__gnu_cxx13new_allocatorISt13_Rb_tree_nodeIcEE8allocateEmPKv, .-_ZN9__gnu_cxx13new_allocatorISt13_Rb_tree_nodeIcEE8allocateEmPKv
	.section	.text._ZN9__gnu_cxx13new_allocatorISt13_Rb_tree_nodeIcEE9constructIcJRcEEEvPT_DpOT0_,"axG",@progbits,_ZN9__gnu_cxx13new_allocatorISt13_Rb_tree_nodeIcEE9constructIcJRcEEEvPT_DpOT0_,comdat
	.align 2
	.weak	_ZN9__gnu_cxx13new_allocatorISt13_Rb_tree_nodeIcEE9constructIcJRcEEEvPT_DpOT0_
	.type	_ZN9__gnu_cxx13new_allocatorISt13_Rb_tree_nodeIcEE9constructIcJRcEEEvPT_DpOT0_, @function
_ZN9__gnu_cxx13new_allocatorISt13_Rb_tree_nodeIcEE9constructIcJRcEEEvPT_DpOT0_:
.LFB11695:
	.cfi_startproc
	endbr64
	push	rbp
	.cfi_def_cfa_offset 16
	.cfi_offset 6, -16
	mov	rbp, rsp
	.cfi_def_cfa_register 6
	push	rbx
	sub	rsp, 40
	.cfi_offset 3, -24
	mov	QWORD PTR -24[rbp], rdi
	mov	QWORD PTR -32[rbp], rsi
	mov	QWORD PTR -40[rbp], rdx
	mov	rax, QWORD PTR -40[rbp]
	mov	rdi, rax
	call	_ZSt7forwardIRcEOT_RNSt16remove_referenceIS1_E4typeE
	movzx	ebx, BYTE PTR [rax]
	mov	rax, QWORD PTR -32[rbp]
	mov	rsi, rax
	mov	edi, 1
	call	_ZnwmPv
	mov	BYTE PTR [rax], bl
	nop
	mov	rbx, QWORD PTR -8[rbp]
	leave
	.cfi_def_cfa 7, 8
	ret
	.cfi_endproc
.LFE11695:
	.size	_ZN9__gnu_cxx13new_allocatorISt13_Rb_tree_nodeIcEE9constructIcJRcEEEvPT_DpOT0_, .-_ZN9__gnu_cxx13new_allocatorISt13_Rb_tree_nodeIcEE9constructIcJRcEEEvPT_DpOT0_
	.section	.text._ZSt3getILm0EJRKcEERNSt13tuple_elementIXT_ESt5tupleIJDpT0_EEE4typeERS6_,"axG",@progbits,_ZSt3getILm0EJRKcEERNSt13tuple_elementIXT_ESt5tupleIJDpT0_EEE4typeERS6_,comdat
	.weak	_ZSt3getILm0EJRKcEERNSt13tuple_elementIXT_ESt5tupleIJDpT0_EEE4typeERS6_
	.type	_ZSt3getILm0EJRKcEERNSt13tuple_elementIXT_ESt5tupleIJDpT0_EEE4typeERS6_, @function
_ZSt3getILm0EJRKcEERNSt13tuple_elementIXT_ESt5tupleIJDpT0_EEE4typeERS6_:
.LFB11696:
	.cfi_startproc
	endbr64
	push	rbp
	.cfi_def_cfa_offset 16
	.cfi_offset 6, -16
	mov	rbp, rsp
	.cfi_def_cfa_register 6
	sub	rsp, 16
	mov	QWORD PTR -8[rbp], rdi
	mov	rax, QWORD PTR -8[rbp]
	mov	rdi, rax
	call	_ZSt12__get_helperILm0ERKcJEERT0_RSt11_Tuple_implIXT_EJS2_DpT1_EE
	leave
	.cfi_def_cfa 7, 8
	ret
	.cfi_endproc
.LFE11696:
	.size	_ZSt3getILm0EJRKcEERNSt13tuple_elementIXT_ESt5tupleIJDpT0_EEE4typeERS6_, .-_ZSt3getILm0EJRKcEERNSt13tuple_elementIXT_ESt5tupleIJDpT0_EEE4typeERS6_
	.section	.text._ZSt7forwardIRKcEOT_RNSt16remove_referenceIS2_E4typeE,"axG",@progbits,_ZSt7forwardIRKcEOT_RNSt16remove_referenceIS2_E4typeE,comdat
	.weak	_ZSt7forwardIRKcEOT_RNSt16remove_referenceIS2_E4typeE
	.type	_ZSt7forwardIRKcEOT_RNSt16remove_referenceIS2_E4typeE, @function
_ZSt7forwardIRKcEOT_RNSt16remove_referenceIS2_E4typeE:
.LFB11697:
	.cfi_startproc
	endbr64
	push	rbp
	.cfi_def_cfa_offset 16
	.cfi_offset 6, -16
	mov	rbp, rsp
	.cfi_def_cfa_register 6
	mov	QWORD PTR -8[rbp], rdi
	mov	rax, QWORD PTR -8[rbp]
	pop	rbp
	.cfi_def_cfa 7, 8
	ret
	.cfi_endproc
.LFE11697:
	.size	_ZSt7forwardIRKcEOT_RNSt16remove_referenceIS2_E4typeE, .-_ZSt7forwardIRKcEOT_RNSt16remove_referenceIS2_E4typeE
	.section	.text._ZSt12__get_helperILm0ERKcJEERT0_RSt11_Tuple_implIXT_EJS2_DpT1_EE,"axG",@progbits,_ZSt12__get_helperILm0ERKcJEERT0_RSt11_Tuple_implIXT_EJS2_DpT1_EE,comdat
	.weak	_ZSt12__get_helperILm0ERKcJEERT0_RSt11_Tuple_implIXT_EJS2_DpT1_EE
	.type	_ZSt12__get_helperILm0ERKcJEERT0_RSt11_Tuple_implIXT_EJS2_DpT1_EE, @function
_ZSt12__get_helperILm0ERKcJEERT0_RSt11_Tuple_implIXT_EJS2_DpT1_EE:
.LFB11709:
	.cfi_startproc
	endbr64
	push	rbp
	.cfi_def_cfa_offset 16
	.cfi_offset 6, -16
	mov	rbp, rsp
	.cfi_def_cfa_register 6
	sub	rsp, 16
	mov	QWORD PTR -8[rbp], rdi
	mov	rax, QWORD PTR -8[rbp]
	mov	rdi, rax
	call	_ZNSt11_Tuple_implILm0EJRKcEE7_M_headERS2_
	leave
	.cfi_def_cfa 7, 8
	ret
	.cfi_endproc
.LFE11709:
	.size	_ZSt12__get_helperILm0ERKcJEERT0_RSt11_Tuple_implIXT_EJS2_DpT1_EE, .-_ZSt12__get_helperILm0ERKcJEERT0_RSt11_Tuple_implIXT_EJS2_DpT1_EE
	.section	.text._ZNSt11_Tuple_implILm0EJRKcEE7_M_headERS2_,"axG",@progbits,_ZNSt11_Tuple_implILm0EJRKcEE7_M_headERS2_,comdat
	.weak	_ZNSt11_Tuple_implILm0EJRKcEE7_M_headERS2_
	.type	_ZNSt11_Tuple_implILm0EJRKcEE7_M_headERS2_, @function
_ZNSt11_Tuple_implILm0EJRKcEE7_M_headERS2_:
.LFB11711:
	.cfi_startproc
	endbr64
	push	rbp
	.cfi_def_cfa_offset 16
	.cfi_offset 6, -16
	mov	rbp, rsp
	.cfi_def_cfa_register 6
	sub	rsp, 16
	mov	QWORD PTR -8[rbp], rdi
	mov	rax, QWORD PTR -8[rbp]
	mov	rdi, rax
	call	_ZNSt10_Head_baseILm0ERKcLb0EE7_M_headERS2_
	leave
	.cfi_def_cfa 7, 8
	ret
	.cfi_endproc
.LFE11711:
	.size	_ZNSt11_Tuple_implILm0EJRKcEE7_M_headERS2_, .-_ZNSt11_Tuple_implILm0EJRKcEE7_M_headERS2_
	.section	.text._ZNSt10_Head_baseILm0ERKcLb0EE7_M_headERS2_,"axG",@progbits,_ZNSt10_Head_baseILm0ERKcLb0EE7_M_headERS2_,comdat
	.weak	_ZNSt10_Head_baseILm0ERKcLb0EE7_M_headERS2_
	.type	_ZNSt10_Head_baseILm0ERKcLb0EE7_M_headERS2_, @function
_ZNSt10_Head_baseILm0ERKcLb0EE7_M_headERS2_:
.LFB11713:
	.cfi_startproc
	endbr64
	push	rbp
	.cfi_def_cfa_offset 16
	.cfi_offset 6, -16
	mov	rbp, rsp
	.cfi_def_cfa_register 6
	mov	QWORD PTR -8[rbp], rdi
	mov	rax, QWORD PTR -8[rbp]
	mov	rax, QWORD PTR [rax]
	pop	rbp
	.cfi_def_cfa 7, 8
	ret
	.cfi_endproc
.LFE11713:
	.size	_ZNSt10_Head_baseILm0ERKcLb0EE7_M_headERS2_, .-_ZNSt10_Head_baseILm0ERKcLb0EE7_M_headERS2_
	.text
	.type	_Z41__static_initialization_and_destruction_0ii, @function
_Z41__static_initialization_and_destruction_0ii:
.LFB11750:
	.cfi_startproc
	endbr64
	push	rbp
	.cfi_def_cfa_offset 16
	.cfi_offset 6, -16
	mov	rbp, rsp
	.cfi_def_cfa_register 6
	sub	rsp, 16
	mov	DWORD PTR -4[rbp], edi
	mov	DWORD PTR -8[rbp], esi
	cmp	DWORD PTR -4[rbp], 1
	jne	.L436
	cmp	DWORD PTR -8[rbp], 65535
	jne	.L436
	lea	rax, _ZStL8__ioinit[rip]
	mov	rdi, rax
	call	_ZNSt8ios_base4InitC1Ev@PLT
	lea	rax, __dso_handle[rip]
	mov	rdx, rax
	lea	rax, _ZStL8__ioinit[rip]
	mov	rsi, rax
	mov	rax, QWORD PTR _ZNSt8ios_base4InitD1Ev@GOTPCREL[rip]
	mov	rdi, rax
	call	__cxa_atexit@PLT
.L436:
	nop
	leave
	.cfi_def_cfa 7, 8
	ret
	.cfi_endproc
.LFE11750:
	.size	_Z41__static_initialization_and_destruction_0ii, .-_Z41__static_initialization_and_destruction_0ii
	.type	_GLOBAL__sub_I_main, @function
_GLOBAL__sub_I_main:
.LFB11773:
	.cfi_startproc
	endbr64
	push	rbp
	.cfi_def_cfa_offset 16
	.cfi_offset 6, -16
	mov	rbp, rsp
	.cfi_def_cfa_register 6
	mov	esi, 65535
	mov	edi, 1
	call	_Z41__static_initialization_and_destruction_0ii
	pop	rbp
	.cfi_def_cfa 7, 8
	ret
	.cfi_endproc
.LFE11773:
	.size	_GLOBAL__sub_I_main, .-_GLOBAL__sub_I_main
	.section	.init_array,"aw"
	.align 8
	.quad	_GLOBAL__sub_I_main
	.hidden	DW.ref.__gxx_personality_v0
	.weak	DW.ref.__gxx_personality_v0
	.section	.data.rel.local.DW.ref.__gxx_personality_v0,"awG",@progbits,DW.ref.__gxx_personality_v0,comdat
	.align 8
	.type	DW.ref.__gxx_personality_v0, @object
	.size	DW.ref.__gxx_personality_v0, 8
DW.ref.__gxx_personality_v0:
	.quad	__gxx_personality_v0
	.hidden	__dso_handle
	.ident	"GCC: (Ubuntu 11.4.0-1ubuntu1~22.04.2) 11.4.0"
	.section	.note.GNU-stack,"",@progbits
	.section	.note.gnu.property,"a"
	.align 8
	.long	1f - 0f
	.long	4f - 1f
	.long	5
0:
	.string	"GNU"
1:
	.align 8
	.long	0xc0000002
	.long	3f - 2f
2:
	.long	0x3
3:
	.align 8
4:
