	.file	"cpp4.cpp"
	.intel_syntax noprefix
	.text
	.section	.text._ZN9__gnu_cxx5__ops16__iter_less_iterEv,"axG",@progbits,_ZN9__gnu_cxx5__ops16__iter_less_iterEv,comdat
	.weak	_ZN9__gnu_cxx5__ops16__iter_less_iterEv
	.type	_ZN9__gnu_cxx5__ops16__iter_less_iterEv, @function
_ZN9__gnu_cxx5__ops16__iter_less_iterEv:
.LFB447:
	.cfi_startproc
	endbr64
	push	rbp
	.cfi_def_cfa_offset 16
	.cfi_offset 6, -16
	mov	rbp, rsp
	.cfi_def_cfa_register 6
	nop
	pop	rbp
	.cfi_def_cfa 7, 8
	ret
	.cfi_endproc
.LFE447:
	.size	_ZN9__gnu_cxx5__ops16__iter_less_iterEv, .-_ZN9__gnu_cxx5__ops16__iter_less_iterEv
	.section	.text._ZN9__gnu_cxx5__ops14_Iter_less_valC2ENS0_15_Iter_less_iterE,"axG",@progbits,_ZN9__gnu_cxx5__ops14_Iter_less_valC5ENS0_15_Iter_less_iterE,comdat
	.align 2
	.weak	_ZN9__gnu_cxx5__ops14_Iter_less_valC2ENS0_15_Iter_less_iterE
	.type	_ZN9__gnu_cxx5__ops14_Iter_less_valC2ENS0_15_Iter_less_iterE, @function
_ZN9__gnu_cxx5__ops14_Iter_less_valC2ENS0_15_Iter_less_iterE:
.LFB449:
	.cfi_startproc
	endbr64
	push	rbp
	.cfi_def_cfa_offset 16
	.cfi_offset 6, -16
	mov	rbp, rsp
	.cfi_def_cfa_register 6
	mov	QWORD PTR -8[rbp], rdi
	nop
	pop	rbp
	.cfi_def_cfa 7, 8
	ret
	.cfi_endproc
.LFE449:
	.size	_ZN9__gnu_cxx5__ops14_Iter_less_valC2ENS0_15_Iter_less_iterE, .-_ZN9__gnu_cxx5__ops14_Iter_less_valC2ENS0_15_Iter_less_iterE
	.weak	_ZN9__gnu_cxx5__ops14_Iter_less_valC1ENS0_15_Iter_less_iterE
	.set	_ZN9__gnu_cxx5__ops14_Iter_less_valC1ENS0_15_Iter_less_iterE,_ZN9__gnu_cxx5__ops14_Iter_less_valC2ENS0_15_Iter_less_iterE
	.section	.text._ZN9__gnu_cxx5__ops15__val_comp_iterENS0_15_Iter_less_iterE,"axG",@progbits,_ZN9__gnu_cxx5__ops15__val_comp_iterENS0_15_Iter_less_iterE,comdat
	.weak	_ZN9__gnu_cxx5__ops15__val_comp_iterENS0_15_Iter_less_iterE
	.type	_ZN9__gnu_cxx5__ops15__val_comp_iterENS0_15_Iter_less_iterE, @function
_ZN9__gnu_cxx5__ops15__val_comp_iterENS0_15_Iter_less_iterE:
.LFB459:
	.cfi_startproc
	endbr64
	push	rbp
	.cfi_def_cfa_offset 16
	.cfi_offset 6, -16
	mov	rbp, rsp
	.cfi_def_cfa_register 6
	nop
	pop	rbp
	.cfi_def_cfa 7, 8
	ret
	.cfi_endproc
.LFE459:
	.size	_ZN9__gnu_cxx5__ops15__val_comp_iterENS0_15_Iter_less_iterE, .-_ZN9__gnu_cxx5__ops15__val_comp_iterENS0_15_Iter_less_iterE
	.section	.text._ZSt17__size_to_integerm,"axG",@progbits,_ZSt17__size_to_integerm,comdat
	.weak	_ZSt17__size_to_integerm
	.type	_ZSt17__size_to_integerm, @function
_ZSt17__size_to_integerm:
.LFB538:
	.cfi_startproc
	endbr64
	push	rbp
	.cfi_def_cfa_offset 16
	.cfi_offset 6, -16
	mov	rbp, rsp
	.cfi_def_cfa_register 6
	mov	QWORD PTR -8[rbp], rdi
	mov	rax, QWORD PTR -8[rbp]
	pop	rbp
	.cfi_def_cfa 7, 8
	ret
	.cfi_endproc
.LFE538:
	.size	_ZSt17__size_to_integerm, .-_ZSt17__size_to_integerm
	.section	.text._ZSt4__lgl,"axG",@progbits,_ZSt4__lgl,comdat
	.weak	_ZSt4__lgl
	.type	_ZSt4__lgl, @function
_ZSt4__lgl:
.LFB572:
	.cfi_startproc
	endbr64
	push	rbp
	.cfi_def_cfa_offset 16
	.cfi_offset 6, -16
	mov	rbp, rsp
	.cfi_def_cfa_register 6
	mov	QWORD PTR -8[rbp], rdi
	mov	rax, QWORD PTR -8[rbp]
	bsr	rax, rax
	xor	rax, 63
	mov	edx, eax
	mov	eax, 63
	sub	eax, edx
	cdqe
	pop	rbp
	.cfi_def_cfa 7, 8
	ret
	.cfi_endproc
.LFE572:
	.size	_ZSt4__lgl, .-_ZSt4__lgl
	.section	.text._ZnwmPv,"axG",@progbits,_ZnwmPv,comdat
	.weak	_ZnwmPv
	.type	_ZnwmPv, @function
_ZnwmPv:
.LFB1007:
	.cfi_startproc
	endbr64
	push	rbp
	.cfi_def_cfa_offset 16
	.cfi_offset 6, -16
	mov	rbp, rsp
	.cfi_def_cfa_register 6
	mov	QWORD PTR -8[rbp], rdi
	mov	QWORD PTR -16[rbp], rsi
	mov	rax, QWORD PTR -16[rbp]
	pop	rbp
	.cfi_def_cfa 7, 8
	ret
	.cfi_endproc
.LFE1007:
	.size	_ZnwmPv, .-_ZnwmPv
	.section	.text._ZSt3minImERKT_S2_S2_,"axG",@progbits,_ZSt3minImERKT_S2_S2_,comdat
	.weak	_ZSt3minImERKT_S2_S2_
	.type	_ZSt3minImERKT_S2_S2_, @function
_ZSt3minImERKT_S2_S2_:
.LFB3255:
	.cfi_startproc
	endbr64
	push	rbp
	.cfi_def_cfa_offset 16
	.cfi_offset 6, -16
	mov	rbp, rsp
	.cfi_def_cfa_register 6
	mov	QWORD PTR -8[rbp], rdi
	mov	QWORD PTR -16[rbp], rsi
	mov	rax, QWORD PTR -16[rbp]
	mov	rdx, QWORD PTR [rax]
	mov	rax, QWORD PTR -8[rbp]
	mov	rax, QWORD PTR [rax]
	cmp	rdx, rax
	jnb	.L13
	mov	rax, QWORD PTR -16[rbp]
	jmp	.L14
.L13:
	mov	rax, QWORD PTR -8[rbp]
.L14:
	pop	rbp
	.cfi_def_cfa 7, 8
	ret
	.cfi_endproc
.LFE3255:
	.size	_ZSt3minImERKT_S2_S2_, .-_ZSt3minImERKT_S2_S2_
	.section	.rodata
	.type	_ZN6__pstl9execution2v1L3seqE, @object
	.size	_ZN6__pstl9execution2v1L3seqE, 1
_ZN6__pstl9execution2v1L3seqE:
	.zero	1
	.type	_ZN6__pstl9execution2v1L3parE, @object
	.size	_ZN6__pstl9execution2v1L3parE, 1
_ZN6__pstl9execution2v1L3parE:
	.zero	1
	.type	_ZN6__pstl9execution2v1L9par_unseqE, @object
	.size	_ZN6__pstl9execution2v1L9par_unseqE, 1
_ZN6__pstl9execution2v1L9par_unseqE:
	.zero	1
	.type	_ZN6__pstl9execution2v1L5unseqE, @object
	.size	_ZN6__pstl9execution2v1L5unseqE, 1
_ZN6__pstl9execution2v1L5unseqE:
	.zero	1
	.local	_ZStL8__ioinit
	.comm	_ZStL8__ioinit,1,1
	.section	.text._ZNSt15_Rb_tree_headerC2Ev,"axG",@progbits,_ZNSt15_Rb_tree_headerC5Ev,comdat
	.align 2
	.weak	_ZNSt15_Rb_tree_headerC2Ev
	.type	_ZNSt15_Rb_tree_headerC2Ev, @function
_ZNSt15_Rb_tree_headerC2Ev:
.LFB5009:
	.cfi_startproc
	endbr64
	push	rbp
	.cfi_def_cfa_offset 16
	.cfi_offset 6, -16
	mov	rbp, rsp
	.cfi_def_cfa_register 6
	sub	rsp, 16
	mov	QWORD PTR -8[rbp], rdi
	mov	rax, QWORD PTR -8[rbp]
	mov	DWORD PTR [rax], 0
	mov	rax, QWORD PTR -8[rbp]
	mov	rdi, rax
	call	_ZNSt15_Rb_tree_header8_M_resetEv
	nop
	leave
	.cfi_def_cfa 7, 8
	ret
	.cfi_endproc
.LFE5009:
	.size	_ZNSt15_Rb_tree_headerC2Ev, .-_ZNSt15_Rb_tree_headerC2Ev
	.weak	_ZNSt15_Rb_tree_headerC1Ev
	.set	_ZNSt15_Rb_tree_headerC1Ev,_ZNSt15_Rb_tree_headerC2Ev
	.section	.text._ZNSt15_Rb_tree_header8_M_resetEv,"axG",@progbits,_ZNSt15_Rb_tree_header8_M_resetEv,comdat
	.align 2
	.weak	_ZNSt15_Rb_tree_header8_M_resetEv
	.type	_ZNSt15_Rb_tree_header8_M_resetEv, @function
_ZNSt15_Rb_tree_header8_M_resetEv:
.LFB5015:
	.cfi_startproc
	endbr64
	push	rbp
	.cfi_def_cfa_offset 16
	.cfi_offset 6, -16
	mov	rbp, rsp
	.cfi_def_cfa_register 6
	mov	QWORD PTR -8[rbp], rdi
	mov	rax, QWORD PTR -8[rbp]
	mov	QWORD PTR 8[rax], 0
	mov	rdx, QWORD PTR -8[rbp]
	mov	rax, QWORD PTR -8[rbp]
	mov	QWORD PTR 16[rax], rdx
	mov	rdx, QWORD PTR -8[rbp]
	mov	rax, QWORD PTR -8[rbp]
	mov	QWORD PTR 24[rax], rdx
	mov	rax, QWORD PTR -8[rbp]
	mov	QWORD PTR 32[rax], 0
	nop
	pop	rbp
	.cfi_def_cfa 7, 8
	ret
	.cfi_endproc
.LFE5015:
	.size	_ZNSt15_Rb_tree_header8_M_resetEv, .-_ZNSt15_Rb_tree_header8_M_resetEv
	.section	.rodata
	.align 4
	.type	_ZN9__gnu_cxxL21__default_lock_policyE, @object
	.size	_ZN9__gnu_cxxL21__default_lock_policyE, 4
_ZN9__gnu_cxxL21__default_lock_policyE:
	.long	2
	.align 4
	.type	_ZNSt15regex_constantsL13error_collateE, @object
	.size	_ZNSt15regex_constantsL13error_collateE, 4
_ZNSt15regex_constantsL13error_collateE:
	.zero	4
	.align 4
	.type	_ZNSt15regex_constantsL11error_ctypeE, @object
	.size	_ZNSt15regex_constantsL11error_ctypeE, 4
_ZNSt15regex_constantsL11error_ctypeE:
	.long	1
	.align 4
	.type	_ZNSt15regex_constantsL12error_escapeE, @object
	.size	_ZNSt15regex_constantsL12error_escapeE, 4
_ZNSt15regex_constantsL12error_escapeE:
	.long	2
	.align 4
	.type	_ZNSt15regex_constantsL13error_backrefE, @object
	.size	_ZNSt15regex_constantsL13error_backrefE, 4
_ZNSt15regex_constantsL13error_backrefE:
	.long	3
	.align 4
	.type	_ZNSt15regex_constantsL11error_brackE, @object
	.size	_ZNSt15regex_constantsL11error_brackE, 4
_ZNSt15regex_constantsL11error_brackE:
	.long	4
	.align 4
	.type	_ZNSt15regex_constantsL11error_parenE, @object
	.size	_ZNSt15regex_constantsL11error_parenE, 4
_ZNSt15regex_constantsL11error_parenE:
	.long	5
	.align 4
	.type	_ZNSt15regex_constantsL11error_braceE, @object
	.size	_ZNSt15regex_constantsL11error_braceE, 4
_ZNSt15regex_constantsL11error_braceE:
	.long	6
	.align 4
	.type	_ZNSt15regex_constantsL14error_badbraceE, @object
	.size	_ZNSt15regex_constantsL14error_badbraceE, 4
_ZNSt15regex_constantsL14error_badbraceE:
	.long	7
	.align 4
	.type	_ZNSt15regex_constantsL11error_rangeE, @object
	.size	_ZNSt15regex_constantsL11error_rangeE, 4
_ZNSt15regex_constantsL11error_rangeE:
	.long	8
	.align 4
	.type	_ZNSt15regex_constantsL11error_spaceE, @object
	.size	_ZNSt15regex_constantsL11error_spaceE, 4
_ZNSt15regex_constantsL11error_spaceE:
	.long	9
	.align 4
	.type	_ZNSt15regex_constantsL15error_badrepeatE, @object
	.size	_ZNSt15regex_constantsL15error_badrepeatE, 4
_ZNSt15regex_constantsL15error_badrepeatE:
	.long	10
	.align 4
	.type	_ZNSt15regex_constantsL16error_complexityE, @object
	.size	_ZNSt15regex_constantsL16error_complexityE, 4
_ZNSt15regex_constantsL16error_complexityE:
	.long	11
	.align 4
	.type	_ZNSt15regex_constantsL11error_stackE, @object
	.size	_ZNSt15regex_constantsL11error_stackE, 4
_ZNSt15regex_constantsL11error_stackE:
	.long	12
	.align 8
	.type	_ZNSt8__detailL19_S_invalid_state_idE, @object
	.size	_ZNSt8__detailL19_S_invalid_state_idE, 8
_ZNSt8__detailL19_S_invalid_state_idE:
	.quad	-1
	.section	.text._ZNSt12_Vector_baseISt4pairIxS0_IxxEESaIS2_EE12_Vector_implD2Ev,"axG",@progbits,_ZNSt12_Vector_baseISt4pairIxS0_IxxEESaIS2_EE12_Vector_implD5Ev,comdat
	.align 2
	.weak	_ZNSt12_Vector_baseISt4pairIxS0_IxxEESaIS2_EE12_Vector_implD2Ev
	.type	_ZNSt12_Vector_baseISt4pairIxS0_IxxEESaIS2_EE12_Vector_implD2Ev, @function
_ZNSt12_Vector_baseISt4pairIxS0_IxxEESaIS2_EE12_Vector_implD2Ev:
.LFB9709:
	.cfi_startproc
	endbr64
	push	rbp
	.cfi_def_cfa_offset 16
	.cfi_offset 6, -16
	mov	rbp, rsp
	.cfi_def_cfa_register 6
	sub	rsp, 16
	mov	QWORD PTR -8[rbp], rdi
	mov	rax, QWORD PTR -8[rbp]
	mov	rdi, rax
	call	_ZNSaISt4pairIxS_IxxEEED2Ev
	nop
	leave
	.cfi_def_cfa 7, 8
	ret
	.cfi_endproc
.LFE9709:
	.size	_ZNSt12_Vector_baseISt4pairIxS0_IxxEESaIS2_EE12_Vector_implD2Ev, .-_ZNSt12_Vector_baseISt4pairIxS0_IxxEESaIS2_EE12_Vector_implD2Ev
	.weak	_ZNSt12_Vector_baseISt4pairIxS0_IxxEESaIS2_EE12_Vector_implD1Ev
	.set	_ZNSt12_Vector_baseISt4pairIxS0_IxxEESaIS2_EE12_Vector_implD1Ev,_ZNSt12_Vector_baseISt4pairIxS0_IxxEESaIS2_EE12_Vector_implD2Ev
	.section	.text._ZNSt12_Vector_baseISt4pairIxS0_IxxEESaIS2_EEC2Ev,"axG",@progbits,_ZNSt12_Vector_baseISt4pairIxS0_IxxEESaIS2_EEC5Ev,comdat
	.align 2
	.weak	_ZNSt12_Vector_baseISt4pairIxS0_IxxEESaIS2_EEC2Ev
	.type	_ZNSt12_Vector_baseISt4pairIxS0_IxxEESaIS2_EEC2Ev, @function
_ZNSt12_Vector_baseISt4pairIxS0_IxxEESaIS2_EEC2Ev:
.LFB9711:
	.cfi_startproc
	endbr64
	push	rbp
	.cfi_def_cfa_offset 16
	.cfi_offset 6, -16
	mov	rbp, rsp
	.cfi_def_cfa_register 6
	sub	rsp, 16
	mov	QWORD PTR -8[rbp], rdi
	mov	rax, QWORD PTR -8[rbp]
	mov	rdi, rax
	call	_ZNSt12_Vector_baseISt4pairIxS0_IxxEESaIS2_EE12_Vector_implC1Ev
	nop
	leave
	.cfi_def_cfa 7, 8
	ret
	.cfi_endproc
.LFE9711:
	.size	_ZNSt12_Vector_baseISt4pairIxS0_IxxEESaIS2_EEC2Ev, .-_ZNSt12_Vector_baseISt4pairIxS0_IxxEESaIS2_EEC2Ev
	.weak	_ZNSt12_Vector_baseISt4pairIxS0_IxxEESaIS2_EEC1Ev
	.set	_ZNSt12_Vector_baseISt4pairIxS0_IxxEESaIS2_EEC1Ev,_ZNSt12_Vector_baseISt4pairIxS0_IxxEESaIS2_EEC2Ev
	.section	.text._ZNSt6vectorISt4pairIxS0_IxxEESaIS2_EEC2Ev,"axG",@progbits,_ZNSt6vectorISt4pairIxS0_IxxEESaIS2_EEC5Ev,comdat
	.align 2
	.weak	_ZNSt6vectorISt4pairIxS0_IxxEESaIS2_EEC2Ev
	.type	_ZNSt6vectorISt4pairIxS0_IxxEESaIS2_EEC2Ev, @function
_ZNSt6vectorISt4pairIxS0_IxxEESaIS2_EEC2Ev:
.LFB9713:
	.cfi_startproc
	endbr64
	push	rbp
	.cfi_def_cfa_offset 16
	.cfi_offset 6, -16
	mov	rbp, rsp
	.cfi_def_cfa_register 6
	sub	rsp, 16
	mov	QWORD PTR -8[rbp], rdi
	mov	rax, QWORD PTR -8[rbp]
	mov	rdi, rax
	call	_ZNSt12_Vector_baseISt4pairIxS0_IxxEESaIS2_EEC2Ev
	nop
	leave
	.cfi_def_cfa 7, 8
	ret
	.cfi_endproc
.LFE9713:
	.size	_ZNSt6vectorISt4pairIxS0_IxxEESaIS2_EEC2Ev, .-_ZNSt6vectorISt4pairIxS0_IxxEESaIS2_EEC2Ev
	.weak	_ZNSt6vectorISt4pairIxS0_IxxEESaIS2_EEC1Ev
	.set	_ZNSt6vectorISt4pairIxS0_IxxEESaIS2_EEC1Ev,_ZNSt6vectorISt4pairIxS0_IxxEESaIS2_EEC2Ev
	.section	.text._ZNSt8_Rb_treeIxxSt9_IdentityIxESt4lessIxESaIxEE13_Rb_tree_implIS3_Lb1EED2Ev,"axG",@progbits,_ZNSt8_Rb_treeIxxSt9_IdentityIxESt4lessIxESaIxEE13_Rb_tree_implIS3_Lb1EED5Ev,comdat
	.align 2
	.weak	_ZNSt8_Rb_treeIxxSt9_IdentityIxESt4lessIxESaIxEE13_Rb_tree_implIS3_Lb1EED2Ev
	.type	_ZNSt8_Rb_treeIxxSt9_IdentityIxESt4lessIxESaIxEE13_Rb_tree_implIS3_Lb1EED2Ev, @function
_ZNSt8_Rb_treeIxxSt9_IdentityIxESt4lessIxESaIxEE13_Rb_tree_implIS3_Lb1EED2Ev:
.LFB9741:
	.cfi_startproc
	endbr64
	push	rbp
	.cfi_def_cfa_offset 16
	.cfi_offset 6, -16
	mov	rbp, rsp
	.cfi_def_cfa_register 6
	sub	rsp, 16
	mov	QWORD PTR -8[rbp], rdi
	mov	rax, QWORD PTR -8[rbp]
	mov	rdi, rax
	call	_ZNSaISt13_Rb_tree_nodeIxEED2Ev
	nop
	leave
	.cfi_def_cfa 7, 8
	ret
	.cfi_endproc
.LFE9741:
	.size	_ZNSt8_Rb_treeIxxSt9_IdentityIxESt4lessIxESaIxEE13_Rb_tree_implIS3_Lb1EED2Ev, .-_ZNSt8_Rb_treeIxxSt9_IdentityIxESt4lessIxESaIxEE13_Rb_tree_implIS3_Lb1EED2Ev
	.weak	_ZNSt8_Rb_treeIxxSt9_IdentityIxESt4lessIxESaIxEE13_Rb_tree_implIS3_Lb1EED1Ev
	.set	_ZNSt8_Rb_treeIxxSt9_IdentityIxESt4lessIxESaIxEE13_Rb_tree_implIS3_Lb1EED1Ev,_ZNSt8_Rb_treeIxxSt9_IdentityIxESt4lessIxESaIxEE13_Rb_tree_implIS3_Lb1EED2Ev
	.section	.text._ZNSt8_Rb_treeIxxSt9_IdentityIxESt4lessIxESaIxEEC2Ev,"axG",@progbits,_ZNSt8_Rb_treeIxxSt9_IdentityIxESt4lessIxESaIxEEC5Ev,comdat
	.align 2
	.weak	_ZNSt8_Rb_treeIxxSt9_IdentityIxESt4lessIxESaIxEEC2Ev
	.type	_ZNSt8_Rb_treeIxxSt9_IdentityIxESt4lessIxESaIxEEC2Ev, @function
_ZNSt8_Rb_treeIxxSt9_IdentityIxESt4lessIxESaIxEEC2Ev:
.LFB9743:
	.cfi_startproc
	endbr64
	push	rbp
	.cfi_def_cfa_offset 16
	.cfi_offset 6, -16
	mov	rbp, rsp
	.cfi_def_cfa_register 6
	sub	rsp, 16
	mov	QWORD PTR -8[rbp], rdi
	mov	rax, QWORD PTR -8[rbp]
	mov	rdi, rax
	call	_ZNSt8_Rb_treeIxxSt9_IdentityIxESt4lessIxESaIxEE13_Rb_tree_implIS3_Lb1EEC1Ev
	nop
	leave
	.cfi_def_cfa 7, 8
	ret
	.cfi_endproc
.LFE9743:
	.size	_ZNSt8_Rb_treeIxxSt9_IdentityIxESt4lessIxESaIxEEC2Ev, .-_ZNSt8_Rb_treeIxxSt9_IdentityIxESt4lessIxESaIxEEC2Ev
	.weak	_ZNSt8_Rb_treeIxxSt9_IdentityIxESt4lessIxESaIxEEC1Ev
	.set	_ZNSt8_Rb_treeIxxSt9_IdentityIxESt4lessIxESaIxEEC1Ev,_ZNSt8_Rb_treeIxxSt9_IdentityIxESt4lessIxESaIxEEC2Ev
	.section	.text._ZNSt3setIxSt4lessIxESaIxEEC2Ev,"axG",@progbits,_ZNSt3setIxSt4lessIxESaIxEEC5Ev,comdat
	.align 2
	.weak	_ZNSt3setIxSt4lessIxESaIxEEC2Ev
	.type	_ZNSt3setIxSt4lessIxESaIxEEC2Ev, @function
_ZNSt3setIxSt4lessIxESaIxEEC2Ev:
.LFB9745:
	.cfi_startproc
	endbr64
	push	rbp
	.cfi_def_cfa_offset 16
	.cfi_offset 6, -16
	mov	rbp, rsp
	.cfi_def_cfa_register 6
	sub	rsp, 16
	mov	QWORD PTR -8[rbp], rdi
	mov	rax, QWORD PTR -8[rbp]
	mov	rdi, rax
	call	_ZNSt8_Rb_treeIxxSt9_IdentityIxESt4lessIxESaIxEEC1Ev
	nop
	leave
	.cfi_def_cfa 7, 8
	ret
	.cfi_endproc
.LFE9745:
	.size	_ZNSt3setIxSt4lessIxESaIxEEC2Ev, .-_ZNSt3setIxSt4lessIxESaIxEEC2Ev
	.weak	_ZNSt3setIxSt4lessIxESaIxEEC1Ev
	.set	_ZNSt3setIxSt4lessIxESaIxEEC1Ev,_ZNSt3setIxSt4lessIxESaIxEEC2Ev
	.section	.text._ZNSt3setIxSt4lessIxESaIxEED2Ev,"axG",@progbits,_ZNSt3setIxSt4lessIxESaIxEED5Ev,comdat
	.align 2
	.weak	_ZNSt3setIxSt4lessIxESaIxEED2Ev
	.type	_ZNSt3setIxSt4lessIxESaIxEED2Ev, @function
_ZNSt3setIxSt4lessIxESaIxEED2Ev:
.LFB9748:
	.cfi_startproc
	endbr64
	push	rbp
	.cfi_def_cfa_offset 16
	.cfi_offset 6, -16
	mov	rbp, rsp
	.cfi_def_cfa_register 6
	sub	rsp, 16
	mov	QWORD PTR -8[rbp], rdi
	mov	rax, QWORD PTR -8[rbp]
	mov	rdi, rax
	call	_ZNSt8_Rb_treeIxxSt9_IdentityIxESt4lessIxESaIxEED1Ev
	nop
	leave
	.cfi_def_cfa 7, 8
	ret
	.cfi_endproc
.LFE9748:
	.size	_ZNSt3setIxSt4lessIxESaIxEED2Ev, .-_ZNSt3setIxSt4lessIxESaIxEED2Ev
	.weak	_ZNSt3setIxSt4lessIxESaIxEED1Ev
	.set	_ZNSt3setIxSt4lessIxESaIxEED1Ev,_ZNSt3setIxSt4lessIxESaIxEED2Ev
	.section	.rodata
.LC0:
	.string	"\n"
	.text
	.globl	main
	.type	main, @function
main:
.LFB9704:
	.cfi_startproc
	.cfi_personality 0x9b,DW.ref.__gxx_personality_v0
	.cfi_lsda 0x1b,.LLSDA9704
	endbr64
	push	rbp
	.cfi_def_cfa_offset 16
	.cfi_offset 6, -16
	mov	rbp, rsp
	.cfi_def_cfa_register 6
	push	rbx
	sub	rsp, 376
	.cfi_offset 3, -24
	mov	rax, QWORD PTR fs:40
	mov	QWORD PTR -24[rbp], rax
	xor	eax, eax
	mov	edi, 0
.LEHB0:
	call	_ZNSt8ios_base15sync_with_stdioEb@PLT
	mov	esi, 0
	lea	rax, _ZSt3cin[rip+16]
	mov	rdi, rax
	call	_ZNSt9basic_iosIcSt11char_traitsIcEE3tieEPSo@PLT
	lea	rax, -384[rbp]
	mov	rsi, rax
	lea	rax, _ZSt3cin[rip]
	mov	rdi, rax
	call	_ZNSirsERx@PLT
.LEHE0:
	lea	rax, -112[rbp]
	mov	rdi, rax
	call	_ZNSaIxEC1Ev
	mov	QWORD PTR -80[rbp], 0
	mov	rax, QWORD PTR -384[rbp]
	add	rax, 5
	mov	rsi, rax
	lea	rcx, -112[rbp]
	lea	rdx, -80[rbp]
	lea	rax, -304[rbp]
	mov	rdi, rax
.LEHB1:
	call	_ZNSt6vectorIxSaIxEEC1EmRKxRKS0_
.LEHE1:
	lea	rax, -112[rbp]
	mov	rdi, rax
	call	_ZNSaIxED1Ev
	lea	rax, -112[rbp]
	mov	rdi, rax
	call	_ZNSaIxEC1Ev
	mov	QWORD PTR -80[rbp], 0
	mov	rax, QWORD PTR -384[rbp]
	add	rax, 5
	mov	rsi, rax
	lea	rcx, -112[rbp]
	lea	rdx, -80[rbp]
	lea	rax, -272[rbp]
	mov	rdi, rax
.LEHB2:
	call	_ZNSt6vectorIxSaIxEEC1EmRKxRKS0_
.LEHE2:
	lea	rax, -112[rbp]
	mov	rdi, rax
	call	_ZNSaIxED1Ev
	lea	rax, -240[rbp]
	mov	rdi, rax
	call	_ZNSt6vectorISt4pairIxS0_IxxEESaIS2_EEC1Ev
	lea	rax, -112[rbp]
	mov	rdi, rax
	call	_ZNSaIxEC1Ev
	mov	QWORD PTR -80[rbp], 0
	mov	rax, QWORD PTR -384[rbp]
	add	rax, 5
	mov	rsi, rax
	lea	rcx, -112[rbp]
	lea	rdx, -80[rbp]
	lea	rax, -208[rbp]
	mov	rdi, rax
.LEHB3:
	call	_ZNSt6vectorIxSaIxEEC1EmRKxRKS0_
.LEHE3:
	lea	rax, -112[rbp]
	mov	rdi, rax
	call	_ZNSaIxED1Ev
	lea	rax, -112[rbp]
	mov	rdi, rax
	call	_ZNSaIxEC1Ev
	mov	QWORD PTR -80[rbp], 0
	mov	rax, QWORD PTR -384[rbp]
	add	rax, 5
	mov	rsi, rax
	lea	rcx, -112[rbp]
	lea	rdx, -80[rbp]
	lea	rax, -176[rbp]
	mov	rdi, rax
.LEHB4:
	call	_ZNSt6vectorIxSaIxEEC1EmRKxRKS0_
.LEHE4:
	lea	rax, -112[rbp]
	mov	rdi, rax
	call	_ZNSaIxED1Ev
	mov	QWORD PTR -352[rbp], 1
	jmp	.L25
.L26:
	lea	rax, -344[rbp]
	mov	rsi, rax
	lea	rax, _ZSt3cin[rip]
	mov	rdi, rax
.LEHB5:
	call	_ZNSirsERx@PLT
	mov	rax, QWORD PTR -352[rbp]
	sub	rax, 1
	mov	rdx, rax
	lea	rax, -272[rbp]
	mov	rsi, rdx
	mov	rdi, rax
	call	_ZNSt6vectorIxSaIxEEixEm
	mov	rdx, QWORD PTR [rax]
	mov	rax, QWORD PTR -352[rbp]
	lea	rbx, [rdx+rax]
	mov	rax, QWORD PTR -352[rbp]
	mov	rdx, rax
	lea	rax, -272[rbp]
	mov	rsi, rdx
	mov	rdi, rax
	call	_ZNSt6vectorIxSaIxEEixEm
	mov	QWORD PTR [rax], rbx
	mov	rax, QWORD PTR -344[rbp]
	mov	rdx, QWORD PTR -352[rbp]
	sub	rax, rdx
	mov	QWORD PTR -144[rbp], rax
	mov	DWORD PTR -360[rbp], 0
	lea	rdx, -360[rbp]
	lea	rcx, -352[rbp]
	lea	rax, -112[rbp]
	mov	rsi, rcx
	mov	rdi, rax
	call	_ZNSt4pairIxxEC1IRxiLb1EEEOT_OT0_
	lea	rdx, -112[rbp]
	lea	rcx, -144[rbp]
	lea	rax, -80[rbp]
	mov	rsi, rcx
	mov	rdi, rax
	call	_ZNSt4pairIxS_IxxEEC1IxLb1EEEOT_RKS0_
	lea	rdx, -80[rbp]
	lea	rax, -240[rbp]
	mov	rsi, rdx
	mov	rdi, rax
	call	_ZNSt6vectorISt4pairIxS0_IxxEESaIS2_EE9push_backEOS2_
	mov	rax, QWORD PTR -352[rbp]
	sub	rax, 1
	mov	rdx, rax
	lea	rax, -176[rbp]
	mov	rsi, rdx
	mov	rdi, rax
	call	_ZNSt6vectorIxSaIxEEixEm
	mov	rax, QWORD PTR [rax]
	add	rax, 1
	mov	QWORD PTR -80[rbp], rax
	lea	rdx, -344[rbp]
	lea	rax, -80[rbp]
	mov	rsi, rdx
	mov	rdi, rax
	call	_ZSt3minIxERKT_S2_S2_
	mov	rbx, QWORD PTR [rax]
	mov	rax, QWORD PTR -352[rbp]
	mov	rdx, rax
	lea	rax, -176[rbp]
	mov	rsi, rdx
	mov	rdi, rax
	call	_ZNSt6vectorIxSaIxEEixEm
	mov	QWORD PTR [rax], rbx
	mov	rax, QWORD PTR -352[rbp]
	sub	rax, 1
	mov	rdx, rax
	lea	rax, -208[rbp]
	mov	rsi, rdx
	mov	rdi, rax
	call	_ZNSt6vectorIxSaIxEEixEm
	mov	rbx, QWORD PTR [rax]
	mov	rax, QWORD PTR -352[rbp]
	mov	rdx, rax
	lea	rax, -176[rbp]
	mov	rsi, rdx
	mov	rdi, rax
	call	_ZNSt6vectorIxSaIxEEixEm
	mov	rax, QWORD PTR [rax]
	add	rbx, rax
	mov	rax, QWORD PTR -352[rbp]
	mov	rdx, rax
	lea	rax, -208[rbp]
	mov	rsi, rdx
	mov	rdi, rax
	call	_ZNSt6vectorIxSaIxEEixEm
	mov	QWORD PTR [rax], rbx
	mov	rax, QWORD PTR -352[rbp]
	add	rax, 1
	mov	QWORD PTR -352[rbp], rax
.L25:
	mov	rdx, QWORD PTR -352[rbp]
	mov	rax, QWORD PTR -384[rbp]
	cmp	rdx, rax
	jle	.L26
	lea	rax, -376[rbp]
	mov	rsi, rax
	lea	rax, _ZSt3cin[rip]
	mov	rdi, rax
	call	_ZNSirsERx@PLT
.LEHE5:
	lea	rax, -112[rbp]
	mov	rdi, rax
	call	_ZNSaIxEC1Ev
	mov	QWORD PTR -80[rbp], 0
	mov	rax, QWORD PTR -376[rbp]
	add	rax, 5
	mov	rsi, rax
	lea	rcx, -112[rbp]
	lea	rdx, -80[rbp]
	lea	rax, -144[rbp]
	mov	rdi, rax
.LEHB6:
	call	_ZNSt6vectorIxSaIxEEC1EmRKxRKS0_
.LEHE6:
	lea	rax, -112[rbp]
	mov	rdi, rax
	call	_ZNSaIxED1Ev
	mov	QWORD PTR -368[rbp], 1
	jmp	.L27
.L28:
	lea	rax, -360[rbp]
	mov	rsi, rax
	lea	rax, _ZSt3cin[rip]
	mov	rdi, rax
.LEHB7:
	call	_ZNSirsERx@PLT
	mov	rdx, rax
	lea	rax, -352[rbp]
	mov	rsi, rax
	mov	rdi, rdx
	call	_ZNSirsERx@PLT
	mov	rax, QWORD PTR -360[rbp]
	sub	rax, 1
	mov	rdx, rax
	lea	rax, -176[rbp]
	mov	rsi, rdx
	mov	rdi, rax
	call	_ZNSt6vectorIxSaIxEEixEm
	mov	rax, QWORD PTR [rax]
	add	rax, 1
	mov	QWORD PTR -80[rbp], rax
	lea	rdx, -352[rbp]
	lea	rax, -80[rbp]
	mov	rsi, rdx
	mov	rdi, rax
	call	_ZSt3minIxERKT_S2_S2_
	mov	rax, QWORD PTR [rax]
	mov	QWORD PTR -352[rbp], rax
	mov	rax, QWORD PTR -352[rbp]
	mov	rdx, QWORD PTR -360[rbp]
	sub	rax, rdx
	mov	QWORD PTR -344[rbp], rax
	lea	rdx, -368[rbp]
	lea	rcx, -360[rbp]
	lea	rax, -112[rbp]
	mov	rsi, rcx
	mov	rdi, rax
	call	_ZNSt4pairIxxEC1IRxS2_Lb1EEEOT_OT0_
	lea	rdx, -112[rbp]
	lea	rcx, -344[rbp]
	lea	rax, -80[rbp]
	mov	rsi, rcx
	mov	rdi, rax
	call	_ZNSt4pairIxS_IxxEEC1IxLb1EEEOT_RKS0_
	lea	rdx, -80[rbp]
	lea	rax, -240[rbp]
	mov	rsi, rdx
	mov	rdi, rax
	call	_ZNSt6vectorISt4pairIxS0_IxxEESaIS2_EE9push_backEOS2_
.LEHE7:
	mov	rax, QWORD PTR -368[rbp]
	add	rax, 1
	mov	QWORD PTR -368[rbp], rax
.L27:
	mov	rdx, QWORD PTR -368[rbp]
	mov	rax, QWORD PTR -376[rbp]
	cmp	rdx, rax
	jle	.L28
	lea	rax, -80[rbp]
	mov	rdi, rax
	call	_ZNSt3setIxSt4lessIxESaIxEEC1Ev
	mov	rax, QWORD PTR -384[rbp]
	add	rax, 1
	mov	QWORD PTR -112[rbp], rax
	lea	rdx, -112[rbp]
	lea	rax, -80[rbp]
	mov	rsi, rdx
	mov	rdi, rax
.LEHB8:
	call	_ZNSt3setIxSt4lessIxESaIxEE6insertEOx
	lea	rax, -240[rbp]
	mov	rdi, rax
	call	_ZNSt6vectorISt4pairIxS0_IxxEESaIS2_EE3endEv
	mov	rbx, rax
	lea	rax, -240[rbp]
	mov	rdi, rax
	call	_ZNSt6vectorISt4pairIxS0_IxxEESaIS2_EE5beginEv
	mov	rsi, rbx
	mov	rdi, rax
	call	_ZSt4sortIN9__gnu_cxx17__normal_iteratorIPSt4pairIxS2_IxxEESt6vectorIS4_SaIS4_EEEEEvT_SA_
	lea	rax, -240[rbp]
	mov	QWORD PTR -328[rbp], rax
	mov	rax, QWORD PTR -328[rbp]
	mov	rdi, rax
	call	_ZNSt6vectorISt4pairIxS0_IxxEESaIS2_EE5beginEv
	mov	QWORD PTR -368[rbp], rax
	mov	rax, QWORD PTR -328[rbp]
	mov	rdi, rax
	call	_ZNSt6vectorISt4pairIxS0_IxxEESaIS2_EE3endEv
	mov	QWORD PTR -360[rbp], rax
	jmp	.L29
.L32:
	lea	rax, -368[rbp]
	mov	rdi, rax
	call	_ZNK9__gnu_cxx17__normal_iteratorIPSt4pairIxS1_IxxEESt6vectorIS3_SaIS3_EEEdeEv
	mov	rcx, rax
	mov	rax, QWORD PTR [rcx]
	mov	rdx, QWORD PTR 8[rcx]
	mov	QWORD PTR -112[rbp], rax
	mov	QWORD PTR -104[rbp], rdx
	mov	rax, QWORD PTR 16[rcx]
	mov	QWORD PTR -96[rbp], rax
	mov	rax, QWORD PTR -96[rbp]
	test	rax, rax
	je	.L30
	lea	rax, -112[rbp]
	lea	rdx, 8[rax]
	lea	rax, -80[rbp]
	mov	rsi, rdx
	mov	rdi, rax
	call	_ZNSt3setIxSt4lessIxESaIxEE11upper_boundERKx
	mov	QWORD PTR -352[rbp], rax
	lea	rax, -352[rbp]
	mov	rdi, rax
	call	_ZNKSt23_Rb_tree_const_iteratorIxEdeEv
	mov	rax, QWORD PTR [rax]
	mov	QWORD PTR -312[rbp], rax
	mov	rax, QWORD PTR -104[rbp]
	sub	rax, 1
	mov	rdx, rax
	lea	rax, -208[rbp]
	mov	rsi, rdx
	mov	rdi, rax
	call	_ZNSt6vectorIxSaIxEEixEm
	mov	rbx, QWORD PTR [rax]
	mov	rdx, QWORD PTR -312[rbp]
	lea	rax, -304[rbp]
	mov	rsi, rdx
	mov	rdi, rax
	call	_ZNSt6vectorIxSaIxEEixEm
	mov	rax, QWORD PTR [rax]
	add	rbx, rax
	mov	rdx, QWORD PTR -104[rbp]
	mov	rax, QWORD PTR -312[rbp]
	sub	rax, rdx
	mov	rdx, rax
	lea	rax, -272[rbp]
	mov	rsi, rdx
	mov	rdi, rax
	call	_ZNSt6vectorIxSaIxEEixEm
	mov	rax, QWORD PTR [rax]
	lea	rsi, [rbx+rax]
	mov	rdx, QWORD PTR -112[rbp]
	mov	rax, QWORD PTR -104[rbp]
	add	rax, rdx
	lea	rdx, -1[rax]
	mov	rcx, QWORD PTR -104[rbp]
	mov	rax, QWORD PTR -312[rbp]
	sub	rax, rcx
	imul	rax, rdx
	lea	rbx, [rsi+rax]
	mov	rax, QWORD PTR -96[rbp]
	mov	rdx, rax
	lea	rax, -144[rbp]
	mov	rsi, rdx
	mov	rdi, rax
	call	_ZNSt6vectorIxSaIxEEixEm
	mov	QWORD PTR [rax], rbx
	jmp	.L31
.L30:
	lea	rax, -112[rbp]
	lea	rdx, 8[rax]
	lea	rax, -80[rbp]
	mov	rsi, rdx
	mov	rdi, rax
	call	_ZNSt3setIxSt4lessIxESaIxEE11lower_boundERKx
	mov	QWORD PTR -344[rbp], rax
	lea	rax, -344[rbp]
	mov	rdi, rax
	call	_ZNKSt23_Rb_tree_const_iteratorIxEdeEv
	mov	rax, QWORD PTR [rax]
	mov	QWORD PTR -320[rbp], rax
	lea	rax, -112[rbp]
	lea	rdx, 8[rax]
	lea	rax, -80[rbp]
	mov	rsi, rdx
	mov	rdi, rax
	call	_ZNSt3setIxSt4lessIxESaIxEE6insertERKx
	mov	rdx, QWORD PTR -320[rbp]
	lea	rax, -304[rbp]
	mov	rsi, rdx
	mov	rdi, rax
	call	_ZNSt6vectorIxSaIxEEixEm
	mov	rbx, QWORD PTR [rax]
	mov	rdx, QWORD PTR -104[rbp]
	mov	rax, QWORD PTR -320[rbp]
	sub	rax, rdx
	mov	rdx, rax
	lea	rax, -272[rbp]
	mov	rsi, rdx
	mov	rdi, rax
	call	_ZNSt6vectorIxSaIxEEixEm
	mov	rax, QWORD PTR [rax]
	lea	rsi, [rbx+rax]
	mov	rdx, QWORD PTR -112[rbp]
	mov	rax, QWORD PTR -104[rbp]
	add	rax, rdx
	lea	rdx, -1[rax]
	mov	rcx, QWORD PTR -104[rbp]
	mov	rax, QWORD PTR -320[rbp]
	sub	rax, rcx
	imul	rax, rdx
	lea	rbx, [rsi+rax]
	mov	rax, QWORD PTR -104[rbp]
	mov	rdx, rax
	lea	rax, -304[rbp]
	mov	rsi, rdx
	mov	rdi, rax
	call	_ZNSt6vectorIxSaIxEEixEm
	mov	QWORD PTR [rax], rbx
.L31:
	lea	rax, -368[rbp]
	mov	rdi, rax
	call	_ZN9__gnu_cxx17__normal_iteratorIPSt4pairIxS1_IxxEESt6vectorIS3_SaIS3_EEEppEv
.L29:
	lea	rdx, -360[rbp]
	lea	rax, -368[rbp]
	mov	rsi, rdx
	mov	rdi, rax
	call	_ZN9__gnu_cxxneIPSt4pairIxS1_IxxEESt6vectorIS3_SaIS3_EEEEbRKNS_17__normal_iteratorIT_T0_EESD_
	test	al, al
	jne	.L32
	mov	QWORD PTR -336[rbp], 1
	jmp	.L33
.L34:
	mov	rdx, QWORD PTR -336[rbp]
	lea	rax, -144[rbp]
	mov	rsi, rdx
	mov	rdi, rax
	call	_ZNSt6vectorIxSaIxEEixEm
	mov	rax, QWORD PTR [rax]
	mov	rsi, rax
	lea	rax, _ZSt4cout[rip]
	mov	rdi, rax
	call	_ZNSolsEx@PLT
	mov	rdx, rax
	lea	rax, .LC0[rip]
	mov	rsi, rax
	mov	rdi, rdx
	call	_ZStlsISt11char_traitsIcEERSt13basic_ostreamIcT_ES5_PKc@PLT
.LEHE8:
	add	QWORD PTR -336[rbp], 1
.L33:
	mov	rax, QWORD PTR -376[rbp]
	cmp	QWORD PTR -336[rbp], rax
	jle	.L34
	lea	rax, -80[rbp]
	mov	rdi, rax
	call	_ZNSt3setIxSt4lessIxESaIxEED1Ev
	lea	rax, -144[rbp]
	mov	rdi, rax
	call	_ZNSt6vectorIxSaIxEED1Ev
	lea	rax, -176[rbp]
	mov	rdi, rax
	call	_ZNSt6vectorIxSaIxEED1Ev
	lea	rax, -208[rbp]
	mov	rdi, rax
	call	_ZNSt6vectorIxSaIxEED1Ev
	lea	rax, -240[rbp]
	mov	rdi, rax
	call	_ZNSt6vectorISt4pairIxS0_IxxEESaIS2_EED1Ev
	lea	rax, -272[rbp]
	mov	rdi, rax
	call	_ZNSt6vectorIxSaIxEED1Ev
	lea	rax, -304[rbp]
	mov	rdi, rax
	call	_ZNSt6vectorIxSaIxEED1Ev
	mov	eax, 0
	mov	rdx, QWORD PTR -24[rbp]
	sub	rdx, QWORD PTR fs:40
	je	.L47
	jmp	.L56
.L48:
	endbr64
	mov	rbx, rax
	lea	rax, -112[rbp]
	mov	rdi, rax
	call	_ZNSaIxED1Ev
	mov	rax, rbx
	mov	rdi, rax
.LEHB9:
	call	_Unwind_Resume@PLT
.L49:
	endbr64
	mov	rbx, rax
	lea	rax, -112[rbp]
	mov	rdi, rax
	call	_ZNSaIxED1Ev
	jmp	.L38
.L50:
	endbr64
	mov	rbx, rax
	lea	rax, -112[rbp]
	mov	rdi, rax
	call	_ZNSaIxED1Ev
	jmp	.L40
.L51:
	endbr64
	mov	rbx, rax
	lea	rax, -112[rbp]
	mov	rdi, rax
	call	_ZNSaIxED1Ev
	jmp	.L42
.L53:
	endbr64
	mov	rbx, rax
	lea	rax, -112[rbp]
	mov	rdi, rax
	call	_ZNSaIxED1Ev
	jmp	.L44
.L55:
	endbr64
	mov	rbx, rax
	lea	rax, -80[rbp]
	mov	rdi, rax
	call	_ZNSt3setIxSt4lessIxESaIxEED1Ev
	jmp	.L46
.L54:
	endbr64
	mov	rbx, rax
.L46:
	lea	rax, -144[rbp]
	mov	rdi, rax
	call	_ZNSt6vectorIxSaIxEED1Ev
	jmp	.L44
.L52:
	endbr64
	mov	rbx, rax
.L44:
	lea	rax, -176[rbp]
	mov	rdi, rax
	call	_ZNSt6vectorIxSaIxEED1Ev
.L42:
	lea	rax, -208[rbp]
	mov	rdi, rax
	call	_ZNSt6vectorIxSaIxEED1Ev
.L40:
	lea	rax, -240[rbp]
	mov	rdi, rax
	call	_ZNSt6vectorISt4pairIxS0_IxxEESaIS2_EED1Ev
	lea	rax, -272[rbp]
	mov	rdi, rax
	call	_ZNSt6vectorIxSaIxEED1Ev
.L38:
	lea	rax, -304[rbp]
	mov	rdi, rax
	call	_ZNSt6vectorIxSaIxEED1Ev
	mov	rax, rbx
	mov	rdi, rax
	call	_Unwind_Resume@PLT
.LEHE9:
.L56:
	call	__stack_chk_fail@PLT
.L47:
	mov	rbx, QWORD PTR -8[rbp]
	leave
	.cfi_def_cfa 7, 8
	ret
	.cfi_endproc
.LFE9704:
	.globl	__gxx_personality_v0
	.section	.gcc_except_table,"a",@progbits
.LLSDA9704:
	.byte	0xff
	.byte	0xff
	.byte	0x1
	.uleb128 .LLSDACSE9704-.LLSDACSB9704
.LLSDACSB9704:
	.uleb128 .LEHB0-.LFB9704
	.uleb128 .LEHE0-.LEHB0
	.uleb128 0
	.uleb128 0
	.uleb128 .LEHB1-.LFB9704
	.uleb128 .LEHE1-.LEHB1
	.uleb128 .L48-.LFB9704
	.uleb128 0
	.uleb128 .LEHB2-.LFB9704
	.uleb128 .LEHE2-.LEHB2
	.uleb128 .L49-.LFB9704
	.uleb128 0
	.uleb128 .LEHB3-.LFB9704
	.uleb128 .LEHE3-.LEHB3
	.uleb128 .L50-.LFB9704
	.uleb128 0
	.uleb128 .LEHB4-.LFB9704
	.uleb128 .LEHE4-.LEHB4
	.uleb128 .L51-.LFB9704
	.uleb128 0
	.uleb128 .LEHB5-.LFB9704
	.uleb128 .LEHE5-.LEHB5
	.uleb128 .L52-.LFB9704
	.uleb128 0
	.uleb128 .LEHB6-.LFB9704
	.uleb128 .LEHE6-.LEHB6
	.uleb128 .L53-.LFB9704
	.uleb128 0
	.uleb128 .LEHB7-.LFB9704
	.uleb128 .LEHE7-.LEHB7
	.uleb128 .L54-.LFB9704
	.uleb128 0
	.uleb128 .LEHB8-.LFB9704
	.uleb128 .LEHE8-.LEHB8
	.uleb128 .L55-.LFB9704
	.uleb128 0
	.uleb128 .LEHB9-.LFB9704
	.uleb128 .LEHE9-.LEHB9
	.uleb128 0
	.uleb128 0
.LLSDACSE9704:
	.text
	.size	main, .-main
	.section	.text._ZSt3maxImERKT_S2_S2_,"axG",@progbits,_ZSt3maxImERKT_S2_S2_,comdat
	.weak	_ZSt3maxImERKT_S2_S2_
	.type	_ZSt3maxImERKT_S2_S2_, @function
_ZSt3maxImERKT_S2_S2_:
.LFB10066:
	.cfi_startproc
	endbr64
	push	rbp
	.cfi_def_cfa_offset 16
	.cfi_offset 6, -16
	mov	rbp, rsp
	.cfi_def_cfa_register 6
	mov	QWORD PTR -8[rbp], rdi
	mov	QWORD PTR -16[rbp], rsi
	mov	rax, QWORD PTR -8[rbp]
	mov	rdx, QWORD PTR [rax]
	mov	rax, QWORD PTR -16[rbp]
	mov	rax, QWORD PTR [rax]
	cmp	rdx, rax
	jnb	.L58
	mov	rax, QWORD PTR -16[rbp]
	jmp	.L59
.L58:
	mov	rax, QWORD PTR -8[rbp]
.L59:
	pop	rbp
	.cfi_def_cfa 7, 8
	ret
	.cfi_endproc
.LFE10066:
	.size	_ZSt3maxImERKT_S2_S2_, .-_ZSt3maxImERKT_S2_S2_
	.section	.text._ZSt7forwardIiEOT_RNSt16remove_referenceIS0_E4typeE,"axG",@progbits,_ZSt7forwardIiEOT_RNSt16remove_referenceIS0_E4typeE,comdat
	.weak	_ZSt7forwardIiEOT_RNSt16remove_referenceIS0_E4typeE
	.type	_ZSt7forwardIiEOT_RNSt16remove_referenceIS0_E4typeE, @function
_ZSt7forwardIiEOT_RNSt16remove_referenceIS0_E4typeE:
.LFB10071:
	.cfi_startproc
	endbr64
	push	rbp
	.cfi_def_cfa_offset 16
	.cfi_offset 6, -16
	mov	rbp, rsp
	.cfi_def_cfa_register 6
	mov	QWORD PTR -8[rbp], rdi
	mov	rax, QWORD PTR -8[rbp]
	pop	rbp
	.cfi_def_cfa 7, 8
	ret
	.cfi_endproc
.LFE10071:
	.size	_ZSt7forwardIiEOT_RNSt16remove_referenceIS0_E4typeE, .-_ZSt7forwardIiEOT_RNSt16remove_referenceIS0_E4typeE
	.section	.text._ZNSaIxEC2Ev,"axG",@progbits,_ZNSaIxEC5Ev,comdat
	.align 2
	.weak	_ZNSaIxEC2Ev
	.type	_ZNSaIxEC2Ev, @function
_ZNSaIxEC2Ev:
.LFB10445:
	.cfi_startproc
	endbr64
	push	rbp
	.cfi_def_cfa_offset 16
	.cfi_offset 6, -16
	mov	rbp, rsp
	.cfi_def_cfa_register 6
	sub	rsp, 16
	mov	QWORD PTR -8[rbp], rdi
	mov	rax, QWORD PTR -8[rbp]
	mov	rdi, rax
	call	_ZN9__gnu_cxx13new_allocatorIxEC2Ev
	nop
	leave
	.cfi_def_cfa 7, 8
	ret
	.cfi_endproc
.LFE10445:
	.size	_ZNSaIxEC2Ev, .-_ZNSaIxEC2Ev
	.weak	_ZNSaIxEC1Ev
	.set	_ZNSaIxEC1Ev,_ZNSaIxEC2Ev
	.section	.text._ZNSaIxED2Ev,"axG",@progbits,_ZNSaIxED5Ev,comdat
	.align 2
	.weak	_ZNSaIxED2Ev
	.type	_ZNSaIxED2Ev, @function
_ZNSaIxED2Ev:
.LFB10448:
	.cfi_startproc
	endbr64
	push	rbp
	.cfi_def_cfa_offset 16
	.cfi_offset 6, -16
	mov	rbp, rsp
	.cfi_def_cfa_register 6
	sub	rsp, 16
	mov	QWORD PTR -8[rbp], rdi
	mov	rax, QWORD PTR -8[rbp]
	mov	rdi, rax
	call	_ZN9__gnu_cxx13new_allocatorIxED2Ev
	nop
	leave
	.cfi_def_cfa 7, 8
	ret
	.cfi_endproc
.LFE10448:
	.size	_ZNSaIxED2Ev, .-_ZNSaIxED2Ev
	.weak	_ZNSaIxED1Ev
	.set	_ZNSaIxED1Ev,_ZNSaIxED2Ev
	.section	.text._ZNSt6vectorIxSaIxEEC2EmRKxRKS0_,"axG",@progbits,_ZNSt6vectorIxSaIxEEC5EmRKxRKS0_,comdat
	.align 2
	.weak	_ZNSt6vectorIxSaIxEEC2EmRKxRKS0_
	.type	_ZNSt6vectorIxSaIxEEC2EmRKxRKS0_, @function
_ZNSt6vectorIxSaIxEEC2EmRKxRKS0_:
.LFB10451:
	.cfi_startproc
	.cfi_personality 0x9b,DW.ref.__gxx_personality_v0
	.cfi_lsda 0x1b,.LLSDA10451
	endbr64
	push	rbp
	.cfi_def_cfa_offset 16
	.cfi_offset 6, -16
	mov	rbp, rsp
	.cfi_def_cfa_register 6
	push	rbx
	sub	rsp, 40
	.cfi_offset 3, -24
	mov	QWORD PTR -24[rbp], rdi
	mov	QWORD PTR -32[rbp], rsi
	mov	QWORD PTR -40[rbp], rdx
	mov	QWORD PTR -48[rbp], rcx
	mov	rbx, QWORD PTR -24[rbp]
	mov	rdx, QWORD PTR -48[rbp]
	mov	rax, QWORD PTR -32[rbp]
	mov	rsi, rdx
	mov	rdi, rax
.LEHB10:
	call	_ZNSt6vectorIxSaIxEE17_S_check_init_lenEmRKS0_
	mov	rcx, rax
	mov	rax, QWORD PTR -48[rbp]
	mov	rdx, rax
	mov	rsi, rcx
	mov	rdi, rbx
	call	_ZNSt12_Vector_baseIxSaIxEEC2EmRKS0_
.LEHE10:
	mov	rdx, QWORD PTR -40[rbp]
	mov	rcx, QWORD PTR -32[rbp]
	mov	rax, QWORD PTR -24[rbp]
	mov	rsi, rcx
	mov	rdi, rax
.LEHB11:
	call	_ZNSt6vectorIxSaIxEE18_M_fill_initializeEmRKx
.LEHE11:
	jmp	.L67
.L66:
	endbr64
	mov	rbx, rax
	mov	rax, QWORD PTR -24[rbp]
	mov	rdi, rax
	call	_ZNSt12_Vector_baseIxSaIxEED2Ev
	mov	rax, rbx
	mov	rdi, rax
.LEHB12:
	call	_Unwind_Resume@PLT
.LEHE12:
.L67:
	mov	rbx, QWORD PTR -8[rbp]
	leave
	.cfi_def_cfa 7, 8
	ret
	.cfi_endproc
.LFE10451:
	.section	.gcc_except_table
.LLSDA10451:
	.byte	0xff
	.byte	0xff
	.byte	0x1
	.uleb128 .LLSDACSE10451-.LLSDACSB10451
.LLSDACSB10451:
	.uleb128 .LEHB10-.LFB10451
	.uleb128 .LEHE10-.LEHB10
	.uleb128 0
	.uleb128 0
	.uleb128 .LEHB11-.LFB10451
	.uleb128 .LEHE11-.LEHB11
	.uleb128 .L66-.LFB10451
	.uleb128 0
	.uleb128 .LEHB12-.LFB10451
	.uleb128 .LEHE12-.LEHB12
	.uleb128 0
	.uleb128 0
.LLSDACSE10451:
	.section	.text._ZNSt6vectorIxSaIxEEC2EmRKxRKS0_,"axG",@progbits,_ZNSt6vectorIxSaIxEEC5EmRKxRKS0_,comdat
	.size	_ZNSt6vectorIxSaIxEEC2EmRKxRKS0_, .-_ZNSt6vectorIxSaIxEEC2EmRKxRKS0_
	.weak	_ZNSt6vectorIxSaIxEEC1EmRKxRKS0_
	.set	_ZNSt6vectorIxSaIxEEC1EmRKxRKS0_,_ZNSt6vectorIxSaIxEEC2EmRKxRKS0_
	.section	.text._ZNSt6vectorIxSaIxEED2Ev,"axG",@progbits,_ZNSt6vectorIxSaIxEED5Ev,comdat
	.align 2
	.weak	_ZNSt6vectorIxSaIxEED2Ev
	.type	_ZNSt6vectorIxSaIxEED2Ev, @function
_ZNSt6vectorIxSaIxEED2Ev:
.LFB10454:
	.cfi_startproc
	.cfi_personality 0x9b,DW.ref.__gxx_personality_v0
	.cfi_lsda 0x1b,.LLSDA10454
	endbr64
	push	rbp
	.cfi_def_cfa_offset 16
	.cfi_offset 6, -16
	mov	rbp, rsp
	.cfi_def_cfa_register 6
	sub	rsp, 16
	mov	QWORD PTR -8[rbp], rdi
	mov	rax, QWORD PTR -8[rbp]
	mov	rdi, rax
	call	_ZNSt12_Vector_baseIxSaIxEE19_M_get_Tp_allocatorEv
	mov	rdx, rax
	mov	rax, QWORD PTR -8[rbp]
	mov	rcx, QWORD PTR 8[rax]
	mov	rax, QWORD PTR -8[rbp]
	mov	rax, QWORD PTR [rax]
	mov	rsi, rcx
	mov	rdi, rax
	call	_ZSt8_DestroyIPxxEvT_S1_RSaIT0_E
	mov	rax, QWORD PTR -8[rbp]
	mov	rdi, rax
	call	_ZNSt12_Vector_baseIxSaIxEED2Ev
	nop
	leave
	.cfi_def_cfa 7, 8
	ret
	.cfi_endproc
.LFE10454:
	.section	.gcc_except_table
.LLSDA10454:
	.byte	0xff
	.byte	0xff
	.byte	0x1
	.uleb128 .LLSDACSE10454-.LLSDACSB10454
.LLSDACSB10454:
.LLSDACSE10454:
	.section	.text._ZNSt6vectorIxSaIxEED2Ev,"axG",@progbits,_ZNSt6vectorIxSaIxEED5Ev,comdat
	.size	_ZNSt6vectorIxSaIxEED2Ev, .-_ZNSt6vectorIxSaIxEED2Ev
	.weak	_ZNSt6vectorIxSaIxEED1Ev
	.set	_ZNSt6vectorIxSaIxEED1Ev,_ZNSt6vectorIxSaIxEED2Ev
	.section	.text._ZNSt12_Vector_baseISt4pairIxS0_IxxEESaIS2_EE12_Vector_implC2Ev,"axG",@progbits,_ZNSt12_Vector_baseISt4pairIxS0_IxxEESaIS2_EE12_Vector_implC5Ev,comdat
	.align 2
	.weak	_ZNSt12_Vector_baseISt4pairIxS0_IxxEESaIS2_EE12_Vector_implC2Ev
	.type	_ZNSt12_Vector_baseISt4pairIxS0_IxxEESaIS2_EE12_Vector_implC2Ev, @function
_ZNSt12_Vector_baseISt4pairIxS0_IxxEESaIS2_EE12_Vector_implC2Ev:
.LFB10457:
	.cfi_startproc
	endbr64
	push	rbp
	.cfi_def_cfa_offset 16
	.cfi_offset 6, -16
	mov	rbp, rsp
	.cfi_def_cfa_register 6
	sub	rsp, 16
	mov	QWORD PTR -8[rbp], rdi
	mov	rax, QWORD PTR -8[rbp]
	mov	rdi, rax
	call	_ZNSaISt4pairIxS_IxxEEEC2Ev
	mov	rax, QWORD PTR -8[rbp]
	mov	rdi, rax
	call	_ZNSt12_Vector_baseISt4pairIxS0_IxxEESaIS2_EE17_Vector_impl_dataC2Ev
	nop
	leave
	.cfi_def_cfa 7, 8
	ret
	.cfi_endproc
.LFE10457:
	.size	_ZNSt12_Vector_baseISt4pairIxS0_IxxEESaIS2_EE12_Vector_implC2Ev, .-_ZNSt12_Vector_baseISt4pairIxS0_IxxEESaIS2_EE12_Vector_implC2Ev
	.weak	_ZNSt12_Vector_baseISt4pairIxS0_IxxEESaIS2_EE12_Vector_implC1Ev
	.set	_ZNSt12_Vector_baseISt4pairIxS0_IxxEESaIS2_EE12_Vector_implC1Ev,_ZNSt12_Vector_baseISt4pairIxS0_IxxEESaIS2_EE12_Vector_implC2Ev
	.section	.text._ZNSaISt4pairIxS_IxxEEED2Ev,"axG",@progbits,_ZNSaISt4pairIxS_IxxEEED5Ev,comdat
	.align 2
	.weak	_ZNSaISt4pairIxS_IxxEEED2Ev
	.type	_ZNSaISt4pairIxS_IxxEEED2Ev, @function
_ZNSaISt4pairIxS_IxxEEED2Ev:
.LFB10460:
	.cfi_startproc
	endbr64
	push	rbp
	.cfi_def_cfa_offset 16
	.cfi_offset 6, -16
	mov	rbp, rsp
	.cfi_def_cfa_register 6
	sub	rsp, 16
	mov	QWORD PTR -8[rbp], rdi
	mov	rax, QWORD PTR -8[rbp]
	mov	rdi, rax
	call	_ZN9__gnu_cxx13new_allocatorISt4pairIxS1_IxxEEED2Ev
	nop
	leave
	.cfi_def_cfa 7, 8
	ret
	.cfi_endproc
.LFE10460:
	.size	_ZNSaISt4pairIxS_IxxEEED2Ev, .-_ZNSaISt4pairIxS_IxxEEED2Ev
	.weak	_ZNSaISt4pairIxS_IxxEEED1Ev
	.set	_ZNSaISt4pairIxS_IxxEEED1Ev,_ZNSaISt4pairIxS_IxxEEED2Ev
	.section	.text._ZNSt12_Vector_baseISt4pairIxS0_IxxEESaIS2_EED2Ev,"axG",@progbits,_ZNSt12_Vector_baseISt4pairIxS0_IxxEESaIS2_EED5Ev,comdat
	.align 2
	.weak	_ZNSt12_Vector_baseISt4pairIxS0_IxxEESaIS2_EED2Ev
	.type	_ZNSt12_Vector_baseISt4pairIxS0_IxxEESaIS2_EED2Ev, @function
_ZNSt12_Vector_baseISt4pairIxS0_IxxEESaIS2_EED2Ev:
.LFB10463:
	.cfi_startproc
	.cfi_personality 0x9b,DW.ref.__gxx_personality_v0
	.cfi_lsda 0x1b,.LLSDA10463
	endbr64
	push	rbp
	.cfi_def_cfa_offset 16
	.cfi_offset 6, -16
	mov	rbp, rsp
	.cfi_def_cfa_register 6
	sub	rsp, 16
	mov	QWORD PTR -8[rbp], rdi
	mov	rax, QWORD PTR -8[rbp]
	mov	rdx, QWORD PTR 16[rax]
	mov	rax, QWORD PTR -8[rbp]
	mov	rcx, QWORD PTR [rax]
	mov	rax, rdx
	sub	rax, rcx
	sar	rax, 3
	mov	rdx, rax
	movabs	rax, -6148914691236517205
	imul	rax, rdx
	mov	rdx, rax
	mov	rax, QWORD PTR -8[rbp]
	mov	rcx, QWORD PTR [rax]
	mov	rax, QWORD PTR -8[rbp]
	mov	rsi, rcx
	mov	rdi, rax
	call	_ZNSt12_Vector_baseISt4pairIxS0_IxxEESaIS2_EE13_M_deallocateEPS2_m
	mov	rax, QWORD PTR -8[rbp]
	mov	rdi, rax
	call	_ZNSt12_Vector_baseISt4pairIxS0_IxxEESaIS2_EE12_Vector_implD1Ev
	nop
	leave
	.cfi_def_cfa 7, 8
	ret
	.cfi_endproc
.LFE10463:
	.section	.gcc_except_table
.LLSDA10463:
	.byte	0xff
	.byte	0xff
	.byte	0x1
	.uleb128 .LLSDACSE10463-.LLSDACSB10463
.LLSDACSB10463:
.LLSDACSE10463:
	.section	.text._ZNSt12_Vector_baseISt4pairIxS0_IxxEESaIS2_EED2Ev,"axG",@progbits,_ZNSt12_Vector_baseISt4pairIxS0_IxxEESaIS2_EED5Ev,comdat
	.size	_ZNSt12_Vector_baseISt4pairIxS0_IxxEESaIS2_EED2Ev, .-_ZNSt12_Vector_baseISt4pairIxS0_IxxEESaIS2_EED2Ev
	.weak	_ZNSt12_Vector_baseISt4pairIxS0_IxxEESaIS2_EED1Ev
	.set	_ZNSt12_Vector_baseISt4pairIxS0_IxxEESaIS2_EED1Ev,_ZNSt12_Vector_baseISt4pairIxS0_IxxEESaIS2_EED2Ev
	.section	.text._ZNSt6vectorISt4pairIxS0_IxxEESaIS2_EED2Ev,"axG",@progbits,_ZNSt6vectorISt4pairIxS0_IxxEESaIS2_EED5Ev,comdat
	.align 2
	.weak	_ZNSt6vectorISt4pairIxS0_IxxEESaIS2_EED2Ev
	.type	_ZNSt6vectorISt4pairIxS0_IxxEESaIS2_EED2Ev, @function
_ZNSt6vectorISt4pairIxS0_IxxEESaIS2_EED2Ev:
.LFB10466:
	.cfi_startproc
	.cfi_personality 0x9b,DW.ref.__gxx_personality_v0
	.cfi_lsda 0x1b,.LLSDA10466
	endbr64
	push	rbp
	.cfi_def_cfa_offset 16
	.cfi_offset 6, -16
	mov	rbp, rsp
	.cfi_def_cfa_register 6
	sub	rsp, 16
	mov	QWORD PTR -8[rbp], rdi
	mov	rax, QWORD PTR -8[rbp]
	mov	rdi, rax
	call	_ZNSt12_Vector_baseISt4pairIxS0_IxxEESaIS2_EE19_M_get_Tp_allocatorEv
	mov	rdx, rax
	mov	rax, QWORD PTR -8[rbp]
	mov	rcx, QWORD PTR 8[rax]
	mov	rax, QWORD PTR -8[rbp]
	mov	rax, QWORD PTR [rax]
	mov	rsi, rcx
	mov	rdi, rax
	call	_ZSt8_DestroyIPSt4pairIxS0_IxxEES2_EvT_S4_RSaIT0_E
	mov	rax, QWORD PTR -8[rbp]
	mov	rdi, rax
	call	_ZNSt12_Vector_baseISt4pairIxS0_IxxEESaIS2_EED2Ev
	nop
	leave
	.cfi_def_cfa 7, 8
	ret
	.cfi_endproc
.LFE10466:
	.section	.gcc_except_table
.LLSDA10466:
	.byte	0xff
	.byte	0xff
	.byte	0x1
	.uleb128 .LLSDACSE10466-.LLSDACSB10466
.LLSDACSB10466:
.LLSDACSE10466:
	.section	.text._ZNSt6vectorISt4pairIxS0_IxxEESaIS2_EED2Ev,"axG",@progbits,_ZNSt6vectorISt4pairIxS0_IxxEESaIS2_EED5Ev,comdat
	.size	_ZNSt6vectorISt4pairIxS0_IxxEESaIS2_EED2Ev, .-_ZNSt6vectorISt4pairIxS0_IxxEESaIS2_EED2Ev
	.weak	_ZNSt6vectorISt4pairIxS0_IxxEESaIS2_EED1Ev
	.set	_ZNSt6vectorISt4pairIxS0_IxxEESaIS2_EED1Ev,_ZNSt6vectorISt4pairIxS0_IxxEESaIS2_EED2Ev
	.section	.text._ZNSt6vectorIxSaIxEEixEm,"axG",@progbits,_ZNSt6vectorIxSaIxEEixEm,comdat
	.align 2
	.weak	_ZNSt6vectorIxSaIxEEixEm
	.type	_ZNSt6vectorIxSaIxEEixEm, @function
_ZNSt6vectorIxSaIxEEixEm:
.LFB10468:
	.cfi_startproc
	endbr64
	push	rbp
	.cfi_def_cfa_offset 16
	.cfi_offset 6, -16
	mov	rbp, rsp
	.cfi_def_cfa_register 6
	mov	QWORD PTR -8[rbp], rdi
	mov	QWORD PTR -16[rbp], rsi
	mov	rax, QWORD PTR -8[rbp]
	mov	rdx, QWORD PTR [rax]
	mov	rax, QWORD PTR -16[rbp]
	sal	rax, 3
	add	rax, rdx
	pop	rbp
	.cfi_def_cfa 7, 8
	ret
	.cfi_endproc
.LFE10468:
	.size	_ZNSt6vectorIxSaIxEEixEm, .-_ZNSt6vectorIxSaIxEEixEm
	.section	.text._ZNSt4pairIxxEC2IRxiLb1EEEOT_OT0_,"axG",@progbits,_ZNSt4pairIxxEC5IRxiLb1EEEOT_OT0_,comdat
	.align 2
	.weak	_ZNSt4pairIxxEC2IRxiLb1EEEOT_OT0_
	.type	_ZNSt4pairIxxEC2IRxiLb1EEEOT_OT0_, @function
_ZNSt4pairIxxEC2IRxiLb1EEEOT_OT0_:
.LFB10470:
	.cfi_startproc
	endbr64
	push	rbp
	.cfi_def_cfa_offset 16
	.cfi_offset 6, -16
	mov	rbp, rsp
	.cfi_def_cfa_register 6
	sub	rsp, 32
	mov	QWORD PTR -8[rbp], rdi
	mov	QWORD PTR -16[rbp], rsi
	mov	QWORD PTR -24[rbp], rdx
	mov	rax, QWORD PTR -16[rbp]
	mov	rdi, rax
	call	_ZSt7forwardIRxEOT_RNSt16remove_referenceIS1_E4typeE
	mov	rdx, QWORD PTR [rax]
	mov	rax, QWORD PTR -8[rbp]
	mov	QWORD PTR [rax], rdx
	mov	rax, QWORD PTR -24[rbp]
	mov	rdi, rax
	call	_ZSt7forwardIiEOT_RNSt16remove_referenceIS0_E4typeE
	mov	eax, DWORD PTR [rax]
	movsx	rdx, eax
	mov	rax, QWORD PTR -8[rbp]
	mov	QWORD PTR 8[rax], rdx
	nop
	leave
	.cfi_def_cfa 7, 8
	ret
	.cfi_endproc
.LFE10470:
	.size	_ZNSt4pairIxxEC2IRxiLb1EEEOT_OT0_, .-_ZNSt4pairIxxEC2IRxiLb1EEEOT_OT0_
	.weak	_ZNSt4pairIxxEC1IRxiLb1EEEOT_OT0_
	.set	_ZNSt4pairIxxEC1IRxiLb1EEEOT_OT0_,_ZNSt4pairIxxEC2IRxiLb1EEEOT_OT0_
	.section	.text._ZNSt4pairIxS_IxxEEC2IxLb1EEEOT_RKS0_,"axG",@progbits,_ZNSt4pairIxS_IxxEEC5IxLb1EEEOT_RKS0_,comdat
	.align 2
	.weak	_ZNSt4pairIxS_IxxEEC2IxLb1EEEOT_RKS0_
	.type	_ZNSt4pairIxS_IxxEEC2IxLb1EEEOT_RKS0_, @function
_ZNSt4pairIxS_IxxEEC2IxLb1EEEOT_RKS0_:
.LFB10473:
	.cfi_startproc
	endbr64
	push	rbp
	.cfi_def_cfa_offset 16
	.cfi_offset 6, -16
	mov	rbp, rsp
	.cfi_def_cfa_register 6
	sub	rsp, 32
	mov	QWORD PTR -8[rbp], rdi
	mov	QWORD PTR -16[rbp], rsi
	mov	QWORD PTR -24[rbp], rdx
	mov	rax, QWORD PTR -16[rbp]
	mov	rdi, rax
	call	_ZSt7forwardIxEOT_RNSt16remove_referenceIS0_E4typeE
	mov	rdx, QWORD PTR [rax]
	mov	rax, QWORD PTR -8[rbp]
	mov	QWORD PTR [rax], rdx
	mov	rcx, QWORD PTR -8[rbp]
	mov	rax, QWORD PTR -24[rbp]
	mov	rdx, QWORD PTR 8[rax]
	mov	rax, QWORD PTR [rax]
	mov	QWORD PTR 8[rcx], rax
	mov	QWORD PTR 16[rcx], rdx
	nop
	leave
	.cfi_def_cfa 7, 8
	ret
	.cfi_endproc
.LFE10473:
	.size	_ZNSt4pairIxS_IxxEEC2IxLb1EEEOT_RKS0_, .-_ZNSt4pairIxS_IxxEEC2IxLb1EEEOT_RKS0_
	.weak	_ZNSt4pairIxS_IxxEEC1IxLb1EEEOT_RKS0_
	.set	_ZNSt4pairIxS_IxxEEC1IxLb1EEEOT_RKS0_,_ZNSt4pairIxS_IxxEEC2IxLb1EEEOT_RKS0_
	.section	.text._ZNSt6vectorISt4pairIxS0_IxxEESaIS2_EE9push_backEOS2_,"axG",@progbits,_ZNSt6vectorISt4pairIxS0_IxxEESaIS2_EE9push_backEOS2_,comdat
	.align 2
	.weak	_ZNSt6vectorISt4pairIxS0_IxxEESaIS2_EE9push_backEOS2_
	.type	_ZNSt6vectorISt4pairIxS0_IxxEESaIS2_EE9push_backEOS2_, @function
_ZNSt6vectorISt4pairIxS0_IxxEESaIS2_EE9push_backEOS2_:
.LFB10475:
	.cfi_startproc
	endbr64
	push	rbp
	.cfi_def_cfa_offset 16
	.cfi_offset 6, -16
	mov	rbp, rsp
	.cfi_def_cfa_register 6
	sub	rsp, 16
	mov	QWORD PTR -8[rbp], rdi
	mov	QWORD PTR -16[rbp], rsi
	mov	rax, QWORD PTR -16[rbp]
	mov	rdi, rax
	call	_ZSt4moveIRSt4pairIxS0_IxxEEEONSt16remove_referenceIT_E4typeEOS5_
	mov	rdx, rax
	mov	rax, QWORD PTR -8[rbp]
	mov	rsi, rdx
	mov	rdi, rax
	call	_ZNSt6vectorISt4pairIxS0_IxxEESaIS2_EE12emplace_backIJS2_EEERS2_DpOT_
	nop
	leave
	.cfi_def_cfa 7, 8
	ret
	.cfi_endproc
.LFE10475:
	.size	_ZNSt6vectorISt4pairIxS0_IxxEESaIS2_EE9push_backEOS2_, .-_ZNSt6vectorISt4pairIxS0_IxxEESaIS2_EE9push_backEOS2_
	.section	.text._ZSt3minIxERKT_S2_S2_,"axG",@progbits,_ZSt3minIxERKT_S2_S2_,comdat
	.weak	_ZSt3minIxERKT_S2_S2_
	.type	_ZSt3minIxERKT_S2_S2_, @function
_ZSt3minIxERKT_S2_S2_:
.LFB10476:
	.cfi_startproc
	endbr64
	push	rbp
	.cfi_def_cfa_offset 16
	.cfi_offset 6, -16
	mov	rbp, rsp
	.cfi_def_cfa_register 6
	mov	QWORD PTR -8[rbp], rdi
	mov	QWORD PTR -16[rbp], rsi
	mov	rax, QWORD PTR -16[rbp]
	mov	rdx, QWORD PTR [rax]
	mov	rax, QWORD PTR -8[rbp]
	mov	rax, QWORD PTR [rax]
	cmp	rdx, rax
	jge	.L79
	mov	rax, QWORD PTR -16[rbp]
	jmp	.L80
.L79:
	mov	rax, QWORD PTR -8[rbp]
.L80:
	pop	rbp
	.cfi_def_cfa 7, 8
	ret
	.cfi_endproc
.LFE10476:
	.size	_ZSt3minIxERKT_S2_S2_, .-_ZSt3minIxERKT_S2_S2_
	.section	.text._ZNSt4pairIxxEC2IRxS2_Lb1EEEOT_OT0_,"axG",@progbits,_ZNSt4pairIxxEC5IRxS2_Lb1EEEOT_OT0_,comdat
	.align 2
	.weak	_ZNSt4pairIxxEC2IRxS2_Lb1EEEOT_OT0_
	.type	_ZNSt4pairIxxEC2IRxS2_Lb1EEEOT_OT0_, @function
_ZNSt4pairIxxEC2IRxS2_Lb1EEEOT_OT0_:
.LFB10478:
	.cfi_startproc
	endbr64
	push	rbp
	.cfi_def_cfa_offset 16
	.cfi_offset 6, -16
	mov	rbp, rsp
	.cfi_def_cfa_register 6
	sub	rsp, 32
	mov	QWORD PTR -8[rbp], rdi
	mov	QWORD PTR -16[rbp], rsi
	mov	QWORD PTR -24[rbp], rdx
	mov	rax, QWORD PTR -16[rbp]
	mov	rdi, rax
	call	_ZSt7forwardIRxEOT_RNSt16remove_referenceIS1_E4typeE
	mov	rdx, QWORD PTR [rax]
	mov	rax, QWORD PTR -8[rbp]
	mov	QWORD PTR [rax], rdx
	mov	rax, QWORD PTR -24[rbp]
	mov	rdi, rax
	call	_ZSt7forwardIRxEOT_RNSt16remove_referenceIS1_E4typeE
	mov	rdx, QWORD PTR [rax]
	mov	rax, QWORD PTR -8[rbp]
	mov	QWORD PTR 8[rax], rdx
	nop
	leave
	.cfi_def_cfa 7, 8
	ret
	.cfi_endproc
.LFE10478:
	.size	_ZNSt4pairIxxEC2IRxS2_Lb1EEEOT_OT0_, .-_ZNSt4pairIxxEC2IRxS2_Lb1EEEOT_OT0_
	.weak	_ZNSt4pairIxxEC1IRxS2_Lb1EEEOT_OT0_
	.set	_ZNSt4pairIxxEC1IRxS2_Lb1EEEOT_OT0_,_ZNSt4pairIxxEC2IRxS2_Lb1EEEOT_OT0_
	.section	.text._ZNSt8_Rb_treeIxxSt9_IdentityIxESt4lessIxESaIxEE13_Rb_tree_implIS3_Lb1EEC2Ev,"axG",@progbits,_ZNSt8_Rb_treeIxxSt9_IdentityIxESt4lessIxESaIxEE13_Rb_tree_implIS3_Lb1EEC5Ev,comdat
	.align 2
	.weak	_ZNSt8_Rb_treeIxxSt9_IdentityIxESt4lessIxESaIxEE13_Rb_tree_implIS3_Lb1EEC2Ev
	.type	_ZNSt8_Rb_treeIxxSt9_IdentityIxESt4lessIxESaIxEE13_Rb_tree_implIS3_Lb1EEC2Ev, @function
_ZNSt8_Rb_treeIxxSt9_IdentityIxESt4lessIxESaIxEE13_Rb_tree_implIS3_Lb1EEC2Ev:
.LFB10481:
	.cfi_startproc
	endbr64
	push	rbp
	.cfi_def_cfa_offset 16
	.cfi_offset 6, -16
	mov	rbp, rsp
	.cfi_def_cfa_register 6
	sub	rsp, 16
	mov	QWORD PTR -8[rbp], rdi
	mov	rax, QWORD PTR -8[rbp]
	mov	rdi, rax
	call	_ZNSaISt13_Rb_tree_nodeIxEEC2Ev
	mov	rax, QWORD PTR -8[rbp]
	mov	rdi, rax
	call	_ZNSt20_Rb_tree_key_compareISt4lessIxEEC2Ev
	mov	rax, QWORD PTR -8[rbp]
	add	rax, 8
	mov	rdi, rax
	call	_ZNSt15_Rb_tree_headerC2Ev
	nop
	leave
	.cfi_def_cfa 7, 8
	ret
	.cfi_endproc
.LFE10481:
	.size	_ZNSt8_Rb_treeIxxSt9_IdentityIxESt4lessIxESaIxEE13_Rb_tree_implIS3_Lb1EEC2Ev, .-_ZNSt8_Rb_treeIxxSt9_IdentityIxESt4lessIxESaIxEE13_Rb_tree_implIS3_Lb1EEC2Ev
	.weak	_ZNSt8_Rb_treeIxxSt9_IdentityIxESt4lessIxESaIxEE13_Rb_tree_implIS3_Lb1EEC1Ev
	.set	_ZNSt8_Rb_treeIxxSt9_IdentityIxESt4lessIxESaIxEE13_Rb_tree_implIS3_Lb1EEC1Ev,_ZNSt8_Rb_treeIxxSt9_IdentityIxESt4lessIxESaIxEE13_Rb_tree_implIS3_Lb1EEC2Ev
	.section	.text._ZNSaISt13_Rb_tree_nodeIxEED2Ev,"axG",@progbits,_ZNSaISt13_Rb_tree_nodeIxEED5Ev,comdat
	.align 2
	.weak	_ZNSaISt13_Rb_tree_nodeIxEED2Ev
	.type	_ZNSaISt13_Rb_tree_nodeIxEED2Ev, @function
_ZNSaISt13_Rb_tree_nodeIxEED2Ev:
.LFB10484:
	.cfi_startproc
	endbr64
	push	rbp
	.cfi_def_cfa_offset 16
	.cfi_offset 6, -16
	mov	rbp, rsp
	.cfi_def_cfa_register 6
	sub	rsp, 16
	mov	QWORD PTR -8[rbp], rdi
	mov	rax, QWORD PTR -8[rbp]
	mov	rdi, rax
	call	_ZN9__gnu_cxx13new_allocatorISt13_Rb_tree_nodeIxEED2Ev
	nop
	leave
	.cfi_def_cfa 7, 8
	ret
	.cfi_endproc
.LFE10484:
	.size	_ZNSaISt13_Rb_tree_nodeIxEED2Ev, .-_ZNSaISt13_Rb_tree_nodeIxEED2Ev
	.weak	_ZNSaISt13_Rb_tree_nodeIxEED1Ev
	.set	_ZNSaISt13_Rb_tree_nodeIxEED1Ev,_ZNSaISt13_Rb_tree_nodeIxEED2Ev
	.section	.text._ZNSt8_Rb_treeIxxSt9_IdentityIxESt4lessIxESaIxEED2Ev,"axG",@progbits,_ZNSt8_Rb_treeIxxSt9_IdentityIxESt4lessIxESaIxEED5Ev,comdat
	.align 2
	.weak	_ZNSt8_Rb_treeIxxSt9_IdentityIxESt4lessIxESaIxEED2Ev
	.type	_ZNSt8_Rb_treeIxxSt9_IdentityIxESt4lessIxESaIxEED2Ev, @function
_ZNSt8_Rb_treeIxxSt9_IdentityIxESt4lessIxESaIxEED2Ev:
.LFB10487:
	.cfi_startproc
	.cfi_personality 0x9b,DW.ref.__gxx_personality_v0
	.cfi_lsda 0x1b,.LLSDA10487
	endbr64
	push	rbp
	.cfi_def_cfa_offset 16
	.cfi_offset 6, -16
	mov	rbp, rsp
	.cfi_def_cfa_register 6
	sub	rsp, 16
	mov	QWORD PTR -8[rbp], rdi
	mov	rax, QWORD PTR -8[rbp]
	mov	rdi, rax
	call	_ZNSt8_Rb_treeIxxSt9_IdentityIxESt4lessIxESaIxEE8_M_beginEv
	mov	rdx, rax
	mov	rax, QWORD PTR -8[rbp]
	mov	rsi, rdx
	mov	rdi, rax
	call	_ZNSt8_Rb_treeIxxSt9_IdentityIxESt4lessIxESaIxEE8_M_eraseEPSt13_Rb_tree_nodeIxE
	mov	rax, QWORD PTR -8[rbp]
	mov	rdi, rax
	call	_ZNSt8_Rb_treeIxxSt9_IdentityIxESt4lessIxESaIxEE13_Rb_tree_implIS3_Lb1EED1Ev
	nop
	leave
	.cfi_def_cfa 7, 8
	ret
	.cfi_endproc
.LFE10487:
	.section	.gcc_except_table
.LLSDA10487:
	.byte	0xff
	.byte	0xff
	.byte	0x1
	.uleb128 .LLSDACSE10487-.LLSDACSB10487
.LLSDACSB10487:
.LLSDACSE10487:
	.section	.text._ZNSt8_Rb_treeIxxSt9_IdentityIxESt4lessIxESaIxEED2Ev,"axG",@progbits,_ZNSt8_Rb_treeIxxSt9_IdentityIxESt4lessIxESaIxEED5Ev,comdat
	.size	_ZNSt8_Rb_treeIxxSt9_IdentityIxESt4lessIxESaIxEED2Ev, .-_ZNSt8_Rb_treeIxxSt9_IdentityIxESt4lessIxESaIxEED2Ev
	.weak	_ZNSt8_Rb_treeIxxSt9_IdentityIxESt4lessIxESaIxEED1Ev
	.set	_ZNSt8_Rb_treeIxxSt9_IdentityIxESt4lessIxESaIxEED1Ev,_ZNSt8_Rb_treeIxxSt9_IdentityIxESt4lessIxESaIxEED2Ev
	.section	.text._ZNSt3setIxSt4lessIxESaIxEE6insertEOx,"axG",@progbits,_ZNSt3setIxSt4lessIxESaIxEE6insertEOx,comdat
	.align 2
	.weak	_ZNSt3setIxSt4lessIxESaIxEE6insertEOx
	.type	_ZNSt3setIxSt4lessIxESaIxEE6insertEOx, @function
_ZNSt3setIxSt4lessIxESaIxEE6insertEOx:
.LFB10489:
	.cfi_startproc
	endbr64
	push	rbp
	.cfi_def_cfa_offset 16
	.cfi_offset 6, -16
	mov	rbp, rsp
	.cfi_def_cfa_register 6
	push	rbx
	sub	rsp, 72
	.cfi_offset 3, -24
	mov	QWORD PTR -72[rbp], rdi
	mov	QWORD PTR -80[rbp], rsi
	mov	rax, QWORD PTR fs:40
	mov	QWORD PTR -24[rbp], rax
	xor	eax, eax
	mov	rbx, QWORD PTR -72[rbp]
	mov	rax, QWORD PTR -80[rbp]
	mov	rdi, rax
	call	_ZSt4moveIRxEONSt16remove_referenceIT_E4typeEOS2_
	mov	rsi, rax
	mov	rdi, rbx
	call	_ZNSt8_Rb_treeIxxSt9_IdentityIxESt4lessIxESaIxEE16_M_insert_uniqueIxEESt4pairISt17_Rb_tree_iteratorIxEbEOT_
	mov	QWORD PTR -64[rbp], rax
	mov	QWORD PTR -56[rbp], rdx
	lea	rax, -64[rbp]
	lea	rdx, 8[rax]
	lea	rcx, -64[rbp]
	lea	rax, -48[rbp]
	mov	rsi, rcx
	mov	rdi, rax
	call	_ZNSt4pairISt23_Rb_tree_const_iteratorIxEbEC1IRSt17_Rb_tree_iteratorIxERbLb1EEEOT_OT0_
	mov	rax, QWORD PTR -48[rbp]
	mov	rdx, QWORD PTR -40[rbp]
	mov	rcx, QWORD PTR -24[rbp]
	sub	rcx, QWORD PTR fs:40
	je	.L87
	call	__stack_chk_fail@PLT
.L87:
	mov	rbx, QWORD PTR -8[rbp]
	leave
	.cfi_def_cfa 7, 8
	ret
	.cfi_endproc
.LFE10489:
	.size	_ZNSt3setIxSt4lessIxESaIxEE6insertEOx, .-_ZNSt3setIxSt4lessIxESaIxEE6insertEOx
	.section	.text._ZNSt6vectorISt4pairIxS0_IxxEESaIS2_EE5beginEv,"axG",@progbits,_ZNSt6vectorISt4pairIxS0_IxxEESaIS2_EE5beginEv,comdat
	.align 2
	.weak	_ZNSt6vectorISt4pairIxS0_IxxEESaIS2_EE5beginEv
	.type	_ZNSt6vectorISt4pairIxS0_IxxEESaIS2_EE5beginEv, @function
_ZNSt6vectorISt4pairIxS0_IxxEESaIS2_EE5beginEv:
.LFB10499:
	.cfi_startproc
	endbr64
	push	rbp
	.cfi_def_cfa_offset 16
	.cfi_offset 6, -16
	mov	rbp, rsp
	.cfi_def_cfa_register 6
	sub	rsp, 32
	mov	QWORD PTR -24[rbp], rdi
	mov	rax, QWORD PTR fs:40
	mov	QWORD PTR -8[rbp], rax
	xor	eax, eax
	mov	rdx, QWORD PTR -24[rbp]
	lea	rax, -16[rbp]
	mov	rsi, rdx
	mov	rdi, rax
	call	_ZN9__gnu_cxx17__normal_iteratorIPSt4pairIxS1_IxxEESt6vectorIS3_SaIS3_EEEC1ERKS4_
	mov	rax, QWORD PTR -16[rbp]
	mov	rdx, QWORD PTR -8[rbp]
	sub	rdx, QWORD PTR fs:40
	je	.L90
	call	__stack_chk_fail@PLT
.L90:
	leave
	.cfi_def_cfa 7, 8
	ret
	.cfi_endproc
.LFE10499:
	.size	_ZNSt6vectorISt4pairIxS0_IxxEESaIS2_EE5beginEv, .-_ZNSt6vectorISt4pairIxS0_IxxEESaIS2_EE5beginEv
	.section	.text._ZNSt6vectorISt4pairIxS0_IxxEESaIS2_EE3endEv,"axG",@progbits,_ZNSt6vectorISt4pairIxS0_IxxEESaIS2_EE3endEv,comdat
	.align 2
	.weak	_ZNSt6vectorISt4pairIxS0_IxxEESaIS2_EE3endEv
	.type	_ZNSt6vectorISt4pairIxS0_IxxEESaIS2_EE3endEv, @function
_ZNSt6vectorISt4pairIxS0_IxxEESaIS2_EE3endEv:
.LFB10500:
	.cfi_startproc
	endbr64
	push	rbp
	.cfi_def_cfa_offset 16
	.cfi_offset 6, -16
	mov	rbp, rsp
	.cfi_def_cfa_register 6
	sub	rsp, 32
	mov	QWORD PTR -24[rbp], rdi
	mov	rax, QWORD PTR fs:40
	mov	QWORD PTR -8[rbp], rax
	xor	eax, eax
	mov	rax, QWORD PTR -24[rbp]
	lea	rdx, 8[rax]
	lea	rax, -16[rbp]
	mov	rsi, rdx
	mov	rdi, rax
	call	_ZN9__gnu_cxx17__normal_iteratorIPSt4pairIxS1_IxxEESt6vectorIS3_SaIS3_EEEC1ERKS4_
	mov	rax, QWORD PTR -16[rbp]
	mov	rdx, QWORD PTR -8[rbp]
	sub	rdx, QWORD PTR fs:40
	je	.L93
	call	__stack_chk_fail@PLT
.L93:
	leave
	.cfi_def_cfa 7, 8
	ret
	.cfi_endproc
.LFE10500:
	.size	_ZNSt6vectorISt4pairIxS0_IxxEESaIS2_EE3endEv, .-_ZNSt6vectorISt4pairIxS0_IxxEESaIS2_EE3endEv
	.section	.text._ZSt4sortIN9__gnu_cxx17__normal_iteratorIPSt4pairIxS2_IxxEESt6vectorIS4_SaIS4_EEEEEvT_SA_,"axG",@progbits,_ZSt4sortIN9__gnu_cxx17__normal_iteratorIPSt4pairIxS2_IxxEESt6vectorIS4_SaIS4_EEEEEvT_SA_,comdat
	.weak	_ZSt4sortIN9__gnu_cxx17__normal_iteratorIPSt4pairIxS2_IxxEESt6vectorIS4_SaIS4_EEEEEvT_SA_
	.type	_ZSt4sortIN9__gnu_cxx17__normal_iteratorIPSt4pairIxS2_IxxEESt6vectorIS4_SaIS4_EEEEEvT_SA_, @function
_ZSt4sortIN9__gnu_cxx17__normal_iteratorIPSt4pairIxS2_IxxEESt6vectorIS4_SaIS4_EEEEEvT_SA_:
.LFB10501:
	.cfi_startproc
	endbr64
	push	rbp
	.cfi_def_cfa_offset 16
	.cfi_offset 6, -16
	mov	rbp, rsp
	.cfi_def_cfa_register 6
	sub	rsp, 16
	mov	QWORD PTR -8[rbp], rdi
	mov	QWORD PTR -16[rbp], rsi
	call	_ZN9__gnu_cxx5__ops16__iter_less_iterEv
	mov	rdx, QWORD PTR -16[rbp]
	mov	rax, QWORD PTR -8[rbp]
	mov	rsi, rdx
	mov	rdi, rax
	call	_ZSt6__sortIN9__gnu_cxx17__normal_iteratorIPSt4pairIxS2_IxxEESt6vectorIS4_SaIS4_EEEENS0_5__ops15_Iter_less_iterEEvT_SC_T0_
	nop
	leave
	.cfi_def_cfa 7, 8
	ret
	.cfi_endproc
.LFE10501:
	.size	_ZSt4sortIN9__gnu_cxx17__normal_iteratorIPSt4pairIxS2_IxxEESt6vectorIS4_SaIS4_EEEEEvT_SA_, .-_ZSt4sortIN9__gnu_cxx17__normal_iteratorIPSt4pairIxS2_IxxEESt6vectorIS4_SaIS4_EEEEEvT_SA_
	.section	.text._ZN9__gnu_cxxneIPSt4pairIxS1_IxxEESt6vectorIS3_SaIS3_EEEEbRKNS_17__normal_iteratorIT_T0_EESD_,"axG",@progbits,_ZN9__gnu_cxxneIPSt4pairIxS1_IxxEESt6vectorIS3_SaIS3_EEEEbRKNS_17__normal_iteratorIT_T0_EESD_,comdat
	.weak	_ZN9__gnu_cxxneIPSt4pairIxS1_IxxEESt6vectorIS3_SaIS3_EEEEbRKNS_17__normal_iteratorIT_T0_EESD_
	.type	_ZN9__gnu_cxxneIPSt4pairIxS1_IxxEESt6vectorIS3_SaIS3_EEEEbRKNS_17__normal_iteratorIT_T0_EESD_, @function
_ZN9__gnu_cxxneIPSt4pairIxS1_IxxEESt6vectorIS3_SaIS3_EEEEbRKNS_17__normal_iteratorIT_T0_EESD_:
.LFB10502:
	.cfi_startproc
	endbr64
	push	rbp
	.cfi_def_cfa_offset 16
	.cfi_offset 6, -16
	mov	rbp, rsp
	.cfi_def_cfa_register 6
	push	rbx
	sub	rsp, 24
	.cfi_offset 3, -24
	mov	QWORD PTR -24[rbp], rdi
	mov	QWORD PTR -32[rbp], rsi
	mov	rax, QWORD PTR -24[rbp]
	mov	rdi, rax
	call	_ZNK9__gnu_cxx17__normal_iteratorIPSt4pairIxS1_IxxEESt6vectorIS3_SaIS3_EEE4baseEv
	mov	rbx, QWORD PTR [rax]
	mov	rax, QWORD PTR -32[rbp]
	mov	rdi, rax
	call	_ZNK9__gnu_cxx17__normal_iteratorIPSt4pairIxS1_IxxEESt6vectorIS3_SaIS3_EEE4baseEv
	mov	rax, QWORD PTR [rax]
	cmp	rbx, rax
	setne	al
	mov	rbx, QWORD PTR -8[rbp]
	leave
	.cfi_def_cfa 7, 8
	ret
	.cfi_endproc
.LFE10502:
	.size	_ZN9__gnu_cxxneIPSt4pairIxS1_IxxEESt6vectorIS3_SaIS3_EEEEbRKNS_17__normal_iteratorIT_T0_EESD_, .-_ZN9__gnu_cxxneIPSt4pairIxS1_IxxEESt6vectorIS3_SaIS3_EEEEbRKNS_17__normal_iteratorIT_T0_EESD_
	.section	.text._ZN9__gnu_cxx17__normal_iteratorIPSt4pairIxS1_IxxEESt6vectorIS3_SaIS3_EEEppEv,"axG",@progbits,_ZN9__gnu_cxx17__normal_iteratorIPSt4pairIxS1_IxxEESt6vectorIS3_SaIS3_EEEppEv,comdat
	.align 2
	.weak	_ZN9__gnu_cxx17__normal_iteratorIPSt4pairIxS1_IxxEESt6vectorIS3_SaIS3_EEEppEv
	.type	_ZN9__gnu_cxx17__normal_iteratorIPSt4pairIxS1_IxxEESt6vectorIS3_SaIS3_EEEppEv, @function
_ZN9__gnu_cxx17__normal_iteratorIPSt4pairIxS1_IxxEESt6vectorIS3_SaIS3_EEEppEv:
.LFB10503:
	.cfi_startproc
	endbr64
	push	rbp
	.cfi_def_cfa_offset 16
	.cfi_offset 6, -16
	mov	rbp, rsp
	.cfi_def_cfa_register 6
	mov	QWORD PTR -8[rbp], rdi
	mov	rax, QWORD PTR -8[rbp]
	mov	rax, QWORD PTR [rax]
	lea	rdx, 24[rax]
	mov	rax, QWORD PTR -8[rbp]
	mov	QWORD PTR [rax], rdx
	mov	rax, QWORD PTR -8[rbp]
	pop	rbp
	.cfi_def_cfa 7, 8
	ret
	.cfi_endproc
.LFE10503:
	.size	_ZN9__gnu_cxx17__normal_iteratorIPSt4pairIxS1_IxxEESt6vectorIS3_SaIS3_EEEppEv, .-_ZN9__gnu_cxx17__normal_iteratorIPSt4pairIxS1_IxxEESt6vectorIS3_SaIS3_EEEppEv
	.section	.text._ZNK9__gnu_cxx17__normal_iteratorIPSt4pairIxS1_IxxEESt6vectorIS3_SaIS3_EEEdeEv,"axG",@progbits,_ZNK9__gnu_cxx17__normal_iteratorIPSt4pairIxS1_IxxEESt6vectorIS3_SaIS3_EEEdeEv,comdat
	.align 2
	.weak	_ZNK9__gnu_cxx17__normal_iteratorIPSt4pairIxS1_IxxEESt6vectorIS3_SaIS3_EEEdeEv
	.type	_ZNK9__gnu_cxx17__normal_iteratorIPSt4pairIxS1_IxxEESt6vectorIS3_SaIS3_EEEdeEv, @function
_ZNK9__gnu_cxx17__normal_iteratorIPSt4pairIxS1_IxxEESt6vectorIS3_SaIS3_EEEdeEv:
.LFB10504:
	.cfi_startproc
	endbr64
	push	rbp
	.cfi_def_cfa_offset 16
	.cfi_offset 6, -16
	mov	rbp, rsp
	.cfi_def_cfa_register 6
	mov	QWORD PTR -8[rbp], rdi
	mov	rax, QWORD PTR -8[rbp]
	mov	rax, QWORD PTR [rax]
	pop	rbp
	.cfi_def_cfa 7, 8
	ret
	.cfi_endproc
.LFE10504:
	.size	_ZNK9__gnu_cxx17__normal_iteratorIPSt4pairIxS1_IxxEESt6vectorIS3_SaIS3_EEEdeEv, .-_ZNK9__gnu_cxx17__normal_iteratorIPSt4pairIxS1_IxxEESt6vectorIS3_SaIS3_EEEdeEv
	.section	.text._ZNSt3setIxSt4lessIxESaIxEE11upper_boundERKx,"axG",@progbits,_ZNSt3setIxSt4lessIxESaIxEE11upper_boundERKx,comdat
	.align 2
	.weak	_ZNSt3setIxSt4lessIxESaIxEE11upper_boundERKx
	.type	_ZNSt3setIxSt4lessIxESaIxEE11upper_boundERKx, @function
_ZNSt3setIxSt4lessIxESaIxEE11upper_boundERKx:
.LFB10505:
	.cfi_startproc
	endbr64
	push	rbp
	.cfi_def_cfa_offset 16
	.cfi_offset 6, -16
	mov	rbp, rsp
	.cfi_def_cfa_register 6
	sub	rsp, 48
	mov	QWORD PTR -40[rbp], rdi
	mov	QWORD PTR -48[rbp], rsi
	mov	rax, QWORD PTR fs:40
	mov	QWORD PTR -8[rbp], rax
	xor	eax, eax
	mov	rax, QWORD PTR -40[rbp]
	mov	rdx, QWORD PTR -48[rbp]
	mov	rsi, rdx
	mov	rdi, rax
	call	_ZNSt8_Rb_treeIxxSt9_IdentityIxESt4lessIxESaIxEE11upper_boundERKx
	mov	QWORD PTR -24[rbp], rax
	lea	rdx, -24[rbp]
	lea	rax, -16[rbp]
	mov	rsi, rdx
	mov	rdi, rax
	call	_ZNSt23_Rb_tree_const_iteratorIxEC1ERKSt17_Rb_tree_iteratorIxE
	mov	rax, QWORD PTR -16[rbp]
	mov	rdx, QWORD PTR -8[rbp]
	sub	rdx, QWORD PTR fs:40
	je	.L103
	call	__stack_chk_fail@PLT
.L103:
	leave
	.cfi_def_cfa 7, 8
	ret
	.cfi_endproc
.LFE10505:
	.size	_ZNSt3setIxSt4lessIxESaIxEE11upper_boundERKx, .-_ZNSt3setIxSt4lessIxESaIxEE11upper_boundERKx
	.section	.text._ZNKSt23_Rb_tree_const_iteratorIxEdeEv,"axG",@progbits,_ZNKSt23_Rb_tree_const_iteratorIxEdeEv,comdat
	.align 2
	.weak	_ZNKSt23_Rb_tree_const_iteratorIxEdeEv
	.type	_ZNKSt23_Rb_tree_const_iteratorIxEdeEv, @function
_ZNKSt23_Rb_tree_const_iteratorIxEdeEv:
.LFB10506:
	.cfi_startproc
	endbr64
	push	rbp
	.cfi_def_cfa_offset 16
	.cfi_offset 6, -16
	mov	rbp, rsp
	.cfi_def_cfa_register 6
	sub	rsp, 16
	mov	QWORD PTR -8[rbp], rdi
	mov	rax, QWORD PTR -8[rbp]
	mov	rax, QWORD PTR [rax]
	mov	rdi, rax
	call	_ZNKSt13_Rb_tree_nodeIxE9_M_valptrEv
	leave
	.cfi_def_cfa 7, 8
	ret
	.cfi_endproc
.LFE10506:
	.size	_ZNKSt23_Rb_tree_const_iteratorIxEdeEv, .-_ZNKSt23_Rb_tree_const_iteratorIxEdeEv
	.section	.text._ZNSt3setIxSt4lessIxESaIxEE11lower_boundERKx,"axG",@progbits,_ZNSt3setIxSt4lessIxESaIxEE11lower_boundERKx,comdat
	.align 2
	.weak	_ZNSt3setIxSt4lessIxESaIxEE11lower_boundERKx
	.type	_ZNSt3setIxSt4lessIxESaIxEE11lower_boundERKx, @function
_ZNSt3setIxSt4lessIxESaIxEE11lower_boundERKx:
.LFB10507:
	.cfi_startproc
	endbr64
	push	rbp
	.cfi_def_cfa_offset 16
	.cfi_offset 6, -16
	mov	rbp, rsp
	.cfi_def_cfa_register 6
	sub	rsp, 48
	mov	QWORD PTR -40[rbp], rdi
	mov	QWORD PTR -48[rbp], rsi
	mov	rax, QWORD PTR fs:40
	mov	QWORD PTR -8[rbp], rax
	xor	eax, eax
	mov	rax, QWORD PTR -40[rbp]
	mov	rdx, QWORD PTR -48[rbp]
	mov	rsi, rdx
	mov	rdi, rax
	call	_ZNSt8_Rb_treeIxxSt9_IdentityIxESt4lessIxESaIxEE11lower_boundERKx
	mov	QWORD PTR -24[rbp], rax
	lea	rdx, -24[rbp]
	lea	rax, -16[rbp]
	mov	rsi, rdx
	mov	rdi, rax
	call	_ZNSt23_Rb_tree_const_iteratorIxEC1ERKSt17_Rb_tree_iteratorIxE
	mov	rax, QWORD PTR -16[rbp]
	mov	rdx, QWORD PTR -8[rbp]
	sub	rdx, QWORD PTR fs:40
	je	.L108
	call	__stack_chk_fail@PLT
.L108:
	leave
	.cfi_def_cfa 7, 8
	ret
	.cfi_endproc
.LFE10507:
	.size	_ZNSt3setIxSt4lessIxESaIxEE11lower_boundERKx, .-_ZNSt3setIxSt4lessIxESaIxEE11lower_boundERKx
	.section	.text._ZNSt3setIxSt4lessIxESaIxEE6insertERKx,"axG",@progbits,_ZNSt3setIxSt4lessIxESaIxEE6insertERKx,comdat
	.align 2
	.weak	_ZNSt3setIxSt4lessIxESaIxEE6insertERKx
	.type	_ZNSt3setIxSt4lessIxESaIxEE6insertERKx, @function
_ZNSt3setIxSt4lessIxESaIxEE6insertERKx:
.LFB10508:
	.cfi_startproc
	endbr64
	push	rbp
	.cfi_def_cfa_offset 16
	.cfi_offset 6, -16
	mov	rbp, rsp
	.cfi_def_cfa_register 6
	sub	rsp, 64
	mov	QWORD PTR -56[rbp], rdi
	mov	QWORD PTR -64[rbp], rsi
	mov	rax, QWORD PTR fs:40
	mov	QWORD PTR -8[rbp], rax
	xor	eax, eax
	mov	rax, QWORD PTR -56[rbp]
	mov	rdx, QWORD PTR -64[rbp]
	mov	rsi, rdx
	mov	rdi, rax
	call	_ZNSt8_Rb_treeIxxSt9_IdentityIxESt4lessIxESaIxEE16_M_insert_uniqueIRKxEESt4pairISt17_Rb_tree_iteratorIxEbEOT_
	mov	QWORD PTR -48[rbp], rax
	mov	QWORD PTR -40[rbp], rdx
	lea	rax, -48[rbp]
	lea	rdx, 8[rax]
	lea	rcx, -48[rbp]
	lea	rax, -32[rbp]
	mov	rsi, rcx
	mov	rdi, rax
	call	_ZNSt4pairISt23_Rb_tree_const_iteratorIxEbEC1IRSt17_Rb_tree_iteratorIxERbLb1EEEOT_OT0_
	mov	rax, QWORD PTR -32[rbp]
	mov	rdx, QWORD PTR -24[rbp]
	mov	rcx, QWORD PTR -8[rbp]
	sub	rcx, QWORD PTR fs:40
	je	.L111
	call	__stack_chk_fail@PLT
.L111:
	leave
	.cfi_def_cfa 7, 8
	ret
	.cfi_endproc
.LFE10508:
	.size	_ZNSt3setIxSt4lessIxESaIxEE6insertERKx, .-_ZNSt3setIxSt4lessIxESaIxEE6insertERKx
	.section	.text._ZSt7forwardIbEOT_RNSt16remove_referenceIS0_E4typeE,"axG",@progbits,_ZSt7forwardIbEOT_RNSt16remove_referenceIS0_E4typeE,comdat
	.weak	_ZSt7forwardIbEOT_RNSt16remove_referenceIS0_E4typeE
	.type	_ZSt7forwardIbEOT_RNSt16remove_referenceIS0_E4typeE, @function
_ZSt7forwardIbEOT_RNSt16remove_referenceIS0_E4typeE:
.LFB10634:
	.cfi_startproc
	endbr64
	push	rbp
	.cfi_def_cfa_offset 16
	.cfi_offset 6, -16
	mov	rbp, rsp
	.cfi_def_cfa_register 6
	mov	QWORD PTR -8[rbp], rdi
	mov	rax, QWORD PTR -8[rbp]
	pop	rbp
	.cfi_def_cfa 7, 8
	ret
	.cfi_endproc
.LFE10634:
	.size	_ZSt7forwardIbEOT_RNSt16remove_referenceIS0_E4typeE, .-_ZSt7forwardIbEOT_RNSt16remove_referenceIS0_E4typeE
	.section	.text._ZN9__gnu_cxx13new_allocatorIxEC2Ev,"axG",@progbits,_ZN9__gnu_cxx13new_allocatorIxEC5Ev,comdat
	.align 2
	.weak	_ZN9__gnu_cxx13new_allocatorIxEC2Ev
	.type	_ZN9__gnu_cxx13new_allocatorIxEC2Ev, @function
_ZN9__gnu_cxx13new_allocatorIxEC2Ev:
.LFB10903:
	.cfi_startproc
	endbr64
	push	rbp
	.cfi_def_cfa_offset 16
	.cfi_offset 6, -16
	mov	rbp, rsp
	.cfi_def_cfa_register 6
	mov	QWORD PTR -8[rbp], rdi
	nop
	pop	rbp
	.cfi_def_cfa 7, 8
	ret
	.cfi_endproc
.LFE10903:
	.size	_ZN9__gnu_cxx13new_allocatorIxEC2Ev, .-_ZN9__gnu_cxx13new_allocatorIxEC2Ev
	.weak	_ZN9__gnu_cxx13new_allocatorIxEC1Ev
	.set	_ZN9__gnu_cxx13new_allocatorIxEC1Ev,_ZN9__gnu_cxx13new_allocatorIxEC2Ev
	.section	.text._ZN9__gnu_cxx13new_allocatorIxED2Ev,"axG",@progbits,_ZN9__gnu_cxx13new_allocatorIxED5Ev,comdat
	.align 2
	.weak	_ZN9__gnu_cxx13new_allocatorIxED2Ev
	.type	_ZN9__gnu_cxx13new_allocatorIxED2Ev, @function
_ZN9__gnu_cxx13new_allocatorIxED2Ev:
.LFB10906:
	.cfi_startproc
	endbr64
	push	rbp
	.cfi_def_cfa_offset 16
	.cfi_offset 6, -16
	mov	rbp, rsp
	.cfi_def_cfa_register 6
	mov	QWORD PTR -8[rbp], rdi
	nop
	pop	rbp
	.cfi_def_cfa 7, 8
	ret
	.cfi_endproc
.LFE10906:
	.size	_ZN9__gnu_cxx13new_allocatorIxED2Ev, .-_ZN9__gnu_cxx13new_allocatorIxED2Ev
	.weak	_ZN9__gnu_cxx13new_allocatorIxED1Ev
	.set	_ZN9__gnu_cxx13new_allocatorIxED1Ev,_ZN9__gnu_cxx13new_allocatorIxED2Ev
	.section	.rodata
	.align 8
.LC1:
	.string	"cannot create std::vector larger than max_size()"
	.section	.text._ZNSt6vectorIxSaIxEE17_S_check_init_lenEmRKS0_,"axG",@progbits,_ZNSt6vectorIxSaIxEE17_S_check_init_lenEmRKS0_,comdat
	.weak	_ZNSt6vectorIxSaIxEE17_S_check_init_lenEmRKS0_
	.type	_ZNSt6vectorIxSaIxEE17_S_check_init_lenEmRKS0_, @function
_ZNSt6vectorIxSaIxEE17_S_check_init_lenEmRKS0_:
.LFB10908:
	.cfi_startproc
	endbr64
	push	rbp
	.cfi_def_cfa_offset 16
	.cfi_offset 6, -16
	mov	rbp, rsp
	.cfi_def_cfa_register 6
	push	rbx
	sub	rsp, 40
	.cfi_offset 3, -24
	mov	QWORD PTR -40[rbp], rdi
	mov	QWORD PTR -48[rbp], rsi
	mov	rax, QWORD PTR fs:40
	mov	QWORD PTR -24[rbp], rax
	xor	eax, eax
	mov	rdx, QWORD PTR -48[rbp]
	lea	rax, -25[rbp]
	mov	rsi, rdx
	mov	rdi, rax
	call	_ZNSaIxEC1ERKS_
	lea	rax, -25[rbp]
	mov	rdi, rax
	call	_ZNSt6vectorIxSaIxEE11_S_max_sizeERKS0_
	cmp	QWORD PTR -40[rbp], rax
	seta	bl
	lea	rax, -25[rbp]
	mov	rdi, rax
	call	_ZNSaIxED1Ev
	test	bl, bl
	je	.L117
	lea	rax, .LC1[rip]
	mov	rdi, rax
	call	_ZSt20__throw_length_errorPKc@PLT
.L117:
	mov	rax, QWORD PTR -40[rbp]
	mov	rdx, QWORD PTR -24[rbp]
	sub	rdx, QWORD PTR fs:40
	je	.L119
	call	__stack_chk_fail@PLT
.L119:
	mov	rbx, QWORD PTR -8[rbp]
	leave
	.cfi_def_cfa 7, 8
	ret
	.cfi_endproc
.LFE10908:
	.size	_ZNSt6vectorIxSaIxEE17_S_check_init_lenEmRKS0_, .-_ZNSt6vectorIxSaIxEE17_S_check_init_lenEmRKS0_
	.section	.text._ZNSt12_Vector_baseIxSaIxEE12_Vector_implD2Ev,"axG",@progbits,_ZNSt12_Vector_baseIxSaIxEE12_Vector_implD5Ev,comdat
	.align 2
	.weak	_ZNSt12_Vector_baseIxSaIxEE12_Vector_implD2Ev
	.type	_ZNSt12_Vector_baseIxSaIxEE12_Vector_implD2Ev, @function
_ZNSt12_Vector_baseIxSaIxEE12_Vector_implD2Ev:
.LFB10911:
	.cfi_startproc
	endbr64
	push	rbp
	.cfi_def_cfa_offset 16
	.cfi_offset 6, -16
	mov	rbp, rsp
	.cfi_def_cfa_register 6
	sub	rsp, 16
	mov	QWORD PTR -8[rbp], rdi
	mov	rax, QWORD PTR -8[rbp]
	mov	rdi, rax
	call	_ZNSaIxED2Ev
	nop
	leave
	.cfi_def_cfa 7, 8
	ret
	.cfi_endproc
.LFE10911:
	.size	_ZNSt12_Vector_baseIxSaIxEE12_Vector_implD2Ev, .-_ZNSt12_Vector_baseIxSaIxEE12_Vector_implD2Ev
	.weak	_ZNSt12_Vector_baseIxSaIxEE12_Vector_implD1Ev
	.set	_ZNSt12_Vector_baseIxSaIxEE12_Vector_implD1Ev,_ZNSt12_Vector_baseIxSaIxEE12_Vector_implD2Ev
	.section	.text._ZNSt12_Vector_baseIxSaIxEEC2EmRKS0_,"axG",@progbits,_ZNSt12_Vector_baseIxSaIxEEC5EmRKS0_,comdat
	.align 2
	.weak	_ZNSt12_Vector_baseIxSaIxEEC2EmRKS0_
	.type	_ZNSt12_Vector_baseIxSaIxEEC2EmRKS0_, @function
_ZNSt12_Vector_baseIxSaIxEEC2EmRKS0_:
.LFB10913:
	.cfi_startproc
	.cfi_personality 0x9b,DW.ref.__gxx_personality_v0
	.cfi_lsda 0x1b,.LLSDA10913
	endbr64
	push	rbp
	.cfi_def_cfa_offset 16
	.cfi_offset 6, -16
	mov	rbp, rsp
	.cfi_def_cfa_register 6
	push	rbx
	sub	rsp, 40
	.cfi_offset 3, -24
	mov	QWORD PTR -24[rbp], rdi
	mov	QWORD PTR -32[rbp], rsi
	mov	QWORD PTR -40[rbp], rdx
	mov	rax, QWORD PTR -24[rbp]
	mov	rdx, QWORD PTR -40[rbp]
	mov	rsi, rdx
	mov	rdi, rax
	call	_ZNSt12_Vector_baseIxSaIxEE12_Vector_implC1ERKS0_
	mov	rdx, QWORD PTR -32[rbp]
	mov	rax, QWORD PTR -24[rbp]
	mov	rsi, rdx
	mov	rdi, rax
.LEHB13:
	call	_ZNSt12_Vector_baseIxSaIxEE17_M_create_storageEm
.LEHE13:
	jmp	.L124
.L123:
	endbr64
	mov	rbx, rax
	mov	rax, QWORD PTR -24[rbp]
	mov	rdi, rax
	call	_ZNSt12_Vector_baseIxSaIxEE12_Vector_implD1Ev
	mov	rax, rbx
	mov	rdi, rax
.LEHB14:
	call	_Unwind_Resume@PLT
.LEHE14:
.L124:
	mov	rbx, QWORD PTR -8[rbp]
	leave
	.cfi_def_cfa 7, 8
	ret
	.cfi_endproc
.LFE10913:
	.section	.gcc_except_table
.LLSDA10913:
	.byte	0xff
	.byte	0xff
	.byte	0x1
	.uleb128 .LLSDACSE10913-.LLSDACSB10913
.LLSDACSB10913:
	.uleb128 .LEHB13-.LFB10913
	.uleb128 .LEHE13-.LEHB13
	.uleb128 .L123-.LFB10913
	.uleb128 0
	.uleb128 .LEHB14-.LFB10913
	.uleb128 .LEHE14-.LEHB14
	.uleb128 0
	.uleb128 0
.LLSDACSE10913:
	.section	.text._ZNSt12_Vector_baseIxSaIxEEC2EmRKS0_,"axG",@progbits,_ZNSt12_Vector_baseIxSaIxEEC5EmRKS0_,comdat
	.size	_ZNSt12_Vector_baseIxSaIxEEC2EmRKS0_, .-_ZNSt12_Vector_baseIxSaIxEEC2EmRKS0_
	.weak	_ZNSt12_Vector_baseIxSaIxEEC1EmRKS0_
	.set	_ZNSt12_Vector_baseIxSaIxEEC1EmRKS0_,_ZNSt12_Vector_baseIxSaIxEEC2EmRKS0_
	.section	.text._ZNSt12_Vector_baseIxSaIxEED2Ev,"axG",@progbits,_ZNSt12_Vector_baseIxSaIxEED5Ev,comdat
	.align 2
	.weak	_ZNSt12_Vector_baseIxSaIxEED2Ev
	.type	_ZNSt12_Vector_baseIxSaIxEED2Ev, @function
_ZNSt12_Vector_baseIxSaIxEED2Ev:
.LFB10916:
	.cfi_startproc
	.cfi_personality 0x9b,DW.ref.__gxx_personality_v0
	.cfi_lsda 0x1b,.LLSDA10916
	endbr64
	push	rbp
	.cfi_def_cfa_offset 16
	.cfi_offset 6, -16
	mov	rbp, rsp
	.cfi_def_cfa_register 6
	sub	rsp, 16
	mov	QWORD PTR -8[rbp], rdi
	mov	rax, QWORD PTR -8[rbp]
	mov	rdx, QWORD PTR 16[rax]
	mov	rax, QWORD PTR -8[rbp]
	mov	rcx, QWORD PTR [rax]
	mov	rax, rdx
	sub	rax, rcx
	sar	rax, 3
	mov	rdx, rax
	mov	rax, QWORD PTR -8[rbp]
	mov	rcx, QWORD PTR [rax]
	mov	rax, QWORD PTR -8[rbp]
	mov	rsi, rcx
	mov	rdi, rax
	call	_ZNSt12_Vector_baseIxSaIxEE13_M_deallocateEPxm
	mov	rax, QWORD PTR -8[rbp]
	mov	rdi, rax
	call	_ZNSt12_Vector_baseIxSaIxEE12_Vector_implD1Ev
	nop
	leave
	.cfi_def_cfa 7, 8
	ret
	.cfi_endproc
.LFE10916:
	.section	.gcc_except_table
.LLSDA10916:
	.byte	0xff
	.byte	0xff
	.byte	0x1
	.uleb128 .LLSDACSE10916-.LLSDACSB10916
.LLSDACSB10916:
.LLSDACSE10916:
	.section	.text._ZNSt12_Vector_baseIxSaIxEED2Ev,"axG",@progbits,_ZNSt12_Vector_baseIxSaIxEED5Ev,comdat
	.size	_ZNSt12_Vector_baseIxSaIxEED2Ev, .-_ZNSt12_Vector_baseIxSaIxEED2Ev
	.weak	_ZNSt12_Vector_baseIxSaIxEED1Ev
	.set	_ZNSt12_Vector_baseIxSaIxEED1Ev,_ZNSt12_Vector_baseIxSaIxEED2Ev
	.section	.text._ZNSt6vectorIxSaIxEE18_M_fill_initializeEmRKx,"axG",@progbits,_ZNSt6vectorIxSaIxEE18_M_fill_initializeEmRKx,comdat
	.align 2
	.weak	_ZNSt6vectorIxSaIxEE18_M_fill_initializeEmRKx
	.type	_ZNSt6vectorIxSaIxEE18_M_fill_initializeEmRKx, @function
_ZNSt6vectorIxSaIxEE18_M_fill_initializeEmRKx:
.LFB10918:
	.cfi_startproc
	endbr64
	push	rbp
	.cfi_def_cfa_offset 16
	.cfi_offset 6, -16
	mov	rbp, rsp
	.cfi_def_cfa_register 6
	sub	rsp, 32
	mov	QWORD PTR -8[rbp], rdi
	mov	QWORD PTR -16[rbp], rsi
	mov	QWORD PTR -24[rbp], rdx
	mov	rax, QWORD PTR -8[rbp]
	mov	rdi, rax
	call	_ZNSt12_Vector_baseIxSaIxEE19_M_get_Tp_allocatorEv
	mov	rcx, rax
	mov	rax, QWORD PTR -8[rbp]
	mov	rax, QWORD PTR [rax]
	mov	rdx, QWORD PTR -24[rbp]
	mov	rsi, QWORD PTR -16[rbp]
	mov	rdi, rax
	call	_ZSt24__uninitialized_fill_n_aIPxmxxET_S1_T0_RKT1_RSaIT2_E
	mov	rdx, QWORD PTR -8[rbp]
	mov	QWORD PTR 8[rdx], rax
	nop
	leave
	.cfi_def_cfa 7, 8
	ret
	.cfi_endproc
.LFE10918:
	.size	_ZNSt6vectorIxSaIxEE18_M_fill_initializeEmRKx, .-_ZNSt6vectorIxSaIxEE18_M_fill_initializeEmRKx
	.section	.text._ZNSt12_Vector_baseIxSaIxEE19_M_get_Tp_allocatorEv,"axG",@progbits,_ZNSt12_Vector_baseIxSaIxEE19_M_get_Tp_allocatorEv,comdat
	.align 2
	.weak	_ZNSt12_Vector_baseIxSaIxEE19_M_get_Tp_allocatorEv
	.type	_ZNSt12_Vector_baseIxSaIxEE19_M_get_Tp_allocatorEv, @function
_ZNSt12_Vector_baseIxSaIxEE19_M_get_Tp_allocatorEv:
.LFB10919:
	.cfi_startproc
	endbr64
	push	rbp
	.cfi_def_cfa_offset 16
	.cfi_offset 6, -16
	mov	rbp, rsp
	.cfi_def_cfa_register 6
	mov	QWORD PTR -8[rbp], rdi
	mov	rax, QWORD PTR -8[rbp]
	pop	rbp
	.cfi_def_cfa 7, 8
	ret
	.cfi_endproc
.LFE10919:
	.size	_ZNSt12_Vector_baseIxSaIxEE19_M_get_Tp_allocatorEv, .-_ZNSt12_Vector_baseIxSaIxEE19_M_get_Tp_allocatorEv
	.section	.text._ZSt8_DestroyIPxxEvT_S1_RSaIT0_E,"axG",@progbits,_ZSt8_DestroyIPxxEvT_S1_RSaIT0_E,comdat
	.weak	_ZSt8_DestroyIPxxEvT_S1_RSaIT0_E
	.type	_ZSt8_DestroyIPxxEvT_S1_RSaIT0_E, @function
_ZSt8_DestroyIPxxEvT_S1_RSaIT0_E:
.LFB10920:
	.cfi_startproc
	endbr64
	push	rbp
	.cfi_def_cfa_offset 16
	.cfi_offset 6, -16
	mov	rbp, rsp
	.cfi_def_cfa_register 6
	sub	rsp, 32
	mov	QWORD PTR -8[rbp], rdi
	mov	QWORD PTR -16[rbp], rsi
	mov	QWORD PTR -24[rbp], rdx
	mov	rdx, QWORD PTR -16[rbp]
	mov	rax, QWORD PTR -8[rbp]
	mov	rsi, rdx
	mov	rdi, rax
	call	_ZSt8_DestroyIPxEvT_S1_
	nop
	leave
	.cfi_def_cfa 7, 8
	ret
	.cfi_endproc
.LFE10920:
	.size	_ZSt8_DestroyIPxxEvT_S1_RSaIT0_E, .-_ZSt8_DestroyIPxxEvT_S1_RSaIT0_E
	.section	.text._ZNSaISt4pairIxS_IxxEEEC2Ev,"axG",@progbits,_ZNSaISt4pairIxS_IxxEEEC5Ev,comdat
	.align 2
	.weak	_ZNSaISt4pairIxS_IxxEEEC2Ev
	.type	_ZNSaISt4pairIxS_IxxEEEC2Ev, @function
_ZNSaISt4pairIxS_IxxEEEC2Ev:
.LFB10922:
	.cfi_startproc
	endbr64
	push	rbp
	.cfi_def_cfa_offset 16
	.cfi_offset 6, -16
	mov	rbp, rsp
	.cfi_def_cfa_register 6
	sub	rsp, 16
	mov	QWORD PTR -8[rbp], rdi
	mov	rax, QWORD PTR -8[rbp]
	mov	rdi, rax
	call	_ZN9__gnu_cxx13new_allocatorISt4pairIxS1_IxxEEEC2Ev
	nop
	leave
	.cfi_def_cfa 7, 8
	ret
	.cfi_endproc
.LFE10922:
	.size	_ZNSaISt4pairIxS_IxxEEEC2Ev, .-_ZNSaISt4pairIxS_IxxEEEC2Ev
	.weak	_ZNSaISt4pairIxS_IxxEEEC1Ev
	.set	_ZNSaISt4pairIxS_IxxEEEC1Ev,_ZNSaISt4pairIxS_IxxEEEC2Ev
	.section	.text._ZNSt12_Vector_baseISt4pairIxS0_IxxEESaIS2_EE17_Vector_impl_dataC2Ev,"axG",@progbits,_ZNSt12_Vector_baseISt4pairIxS0_IxxEESaIS2_EE17_Vector_impl_dataC5Ev,comdat
	.align 2
	.weak	_ZNSt12_Vector_baseISt4pairIxS0_IxxEESaIS2_EE17_Vector_impl_dataC2Ev
	.type	_ZNSt12_Vector_baseISt4pairIxS0_IxxEESaIS2_EE17_Vector_impl_dataC2Ev, @function
_ZNSt12_Vector_baseISt4pairIxS0_IxxEESaIS2_EE17_Vector_impl_dataC2Ev:
.LFB10925:
	.cfi_startproc
	endbr64
	push	rbp
	.cfi_def_cfa_offset 16
	.cfi_offset 6, -16
	mov	rbp, rsp
	.cfi_def_cfa_register 6
	mov	QWORD PTR -8[rbp], rdi
	mov	rax, QWORD PTR -8[rbp]
	mov	QWORD PTR [rax], 0
	mov	rax, QWORD PTR -8[rbp]
	mov	QWORD PTR 8[rax], 0
	mov	rax, QWORD PTR -8[rbp]
	mov	QWORD PTR 16[rax], 0
	nop
	pop	rbp
	.cfi_def_cfa 7, 8
	ret
	.cfi_endproc
.LFE10925:
	.size	_ZNSt12_Vector_baseISt4pairIxS0_IxxEESaIS2_EE17_Vector_impl_dataC2Ev, .-_ZNSt12_Vector_baseISt4pairIxS0_IxxEESaIS2_EE17_Vector_impl_dataC2Ev
	.weak	_ZNSt12_Vector_baseISt4pairIxS0_IxxEESaIS2_EE17_Vector_impl_dataC1Ev
	.set	_ZNSt12_Vector_baseISt4pairIxS0_IxxEESaIS2_EE17_Vector_impl_dataC1Ev,_ZNSt12_Vector_baseISt4pairIxS0_IxxEESaIS2_EE17_Vector_impl_dataC2Ev
	.section	.text._ZN9__gnu_cxx13new_allocatorISt4pairIxS1_IxxEEED2Ev,"axG",@progbits,_ZN9__gnu_cxx13new_allocatorISt4pairIxS1_IxxEEED5Ev,comdat
	.align 2
	.weak	_ZN9__gnu_cxx13new_allocatorISt4pairIxS1_IxxEEED2Ev
	.type	_ZN9__gnu_cxx13new_allocatorISt4pairIxS1_IxxEEED2Ev, @function
_ZN9__gnu_cxx13new_allocatorISt4pairIxS1_IxxEEED2Ev:
.LFB10928:
	.cfi_startproc
	endbr64
	push	rbp
	.cfi_def_cfa_offset 16
	.cfi_offset 6, -16
	mov	rbp, rsp
	.cfi_def_cfa_register 6
	mov	QWORD PTR -8[rbp], rdi
	nop
	pop	rbp
	.cfi_def_cfa 7, 8
	ret
	.cfi_endproc
.LFE10928:
	.size	_ZN9__gnu_cxx13new_allocatorISt4pairIxS1_IxxEEED2Ev, .-_ZN9__gnu_cxx13new_allocatorISt4pairIxS1_IxxEEED2Ev
	.weak	_ZN9__gnu_cxx13new_allocatorISt4pairIxS1_IxxEEED1Ev
	.set	_ZN9__gnu_cxx13new_allocatorISt4pairIxS1_IxxEEED1Ev,_ZN9__gnu_cxx13new_allocatorISt4pairIxS1_IxxEEED2Ev
	.section	.text._ZNSt12_Vector_baseISt4pairIxS0_IxxEESaIS2_EE13_M_deallocateEPS2_m,"axG",@progbits,_ZNSt12_Vector_baseISt4pairIxS0_IxxEESaIS2_EE13_M_deallocateEPS2_m,comdat
	.align 2
	.weak	_ZNSt12_Vector_baseISt4pairIxS0_IxxEESaIS2_EE13_M_deallocateEPS2_m
	.type	_ZNSt12_Vector_baseISt4pairIxS0_IxxEESaIS2_EE13_M_deallocateEPS2_m, @function
_ZNSt12_Vector_baseISt4pairIxS0_IxxEESaIS2_EE13_M_deallocateEPS2_m:
.LFB10930:
	.cfi_startproc
	endbr64
	push	rbp
	.cfi_def_cfa_offset 16
	.cfi_offset 6, -16
	mov	rbp, rsp
	.cfi_def_cfa_register 6
	sub	rsp, 32
	mov	QWORD PTR -8[rbp], rdi
	mov	QWORD PTR -16[rbp], rsi
	mov	QWORD PTR -24[rbp], rdx
	cmp	QWORD PTR -16[rbp], 0
	je	.L135
	mov	rax, QWORD PTR -8[rbp]
	mov	rdx, QWORD PTR -24[rbp]
	mov	rcx, QWORD PTR -16[rbp]
	mov	rsi, rcx
	mov	rdi, rax
	call	_ZNSt16allocator_traitsISaISt4pairIxS0_IxxEEEE10deallocateERS3_PS2_m
.L135:
	nop
	leave
	.cfi_def_cfa 7, 8
	ret
	.cfi_endproc
.LFE10930:
	.size	_ZNSt12_Vector_baseISt4pairIxS0_IxxEESaIS2_EE13_M_deallocateEPS2_m, .-_ZNSt12_Vector_baseISt4pairIxS0_IxxEESaIS2_EE13_M_deallocateEPS2_m
	.section	.text._ZNSt12_Vector_baseISt4pairIxS0_IxxEESaIS2_EE19_M_get_Tp_allocatorEv,"axG",@progbits,_ZNSt12_Vector_baseISt4pairIxS0_IxxEESaIS2_EE19_M_get_Tp_allocatorEv,comdat
	.align 2
	.weak	_ZNSt12_Vector_baseISt4pairIxS0_IxxEESaIS2_EE19_M_get_Tp_allocatorEv
	.type	_ZNSt12_Vector_baseISt4pairIxS0_IxxEESaIS2_EE19_M_get_Tp_allocatorEv, @function
_ZNSt12_Vector_baseISt4pairIxS0_IxxEESaIS2_EE19_M_get_Tp_allocatorEv:
.LFB10931:
	.cfi_startproc
	endbr64
	push	rbp
	.cfi_def_cfa_offset 16
	.cfi_offset 6, -16
	mov	rbp, rsp
	.cfi_def_cfa_register 6
	mov	QWORD PTR -8[rbp], rdi
	mov	rax, QWORD PTR -8[rbp]
	pop	rbp
	.cfi_def_cfa 7, 8
	ret
	.cfi_endproc
.LFE10931:
	.size	_ZNSt12_Vector_baseISt4pairIxS0_IxxEESaIS2_EE19_M_get_Tp_allocatorEv, .-_ZNSt12_Vector_baseISt4pairIxS0_IxxEESaIS2_EE19_M_get_Tp_allocatorEv
	.section	.text._ZSt8_DestroyIPSt4pairIxS0_IxxEES2_EvT_S4_RSaIT0_E,"axG",@progbits,_ZSt8_DestroyIPSt4pairIxS0_IxxEES2_EvT_S4_RSaIT0_E,comdat
	.weak	_ZSt8_DestroyIPSt4pairIxS0_IxxEES2_EvT_S4_RSaIT0_E
	.type	_ZSt8_DestroyIPSt4pairIxS0_IxxEES2_EvT_S4_RSaIT0_E, @function
_ZSt8_DestroyIPSt4pairIxS0_IxxEES2_EvT_S4_RSaIT0_E:
.LFB10932:
	.cfi_startproc
	endbr64
	push	rbp
	.cfi_def_cfa_offset 16
	.cfi_offset 6, -16
	mov	rbp, rsp
	.cfi_def_cfa_register 6
	sub	rsp, 32
	mov	QWORD PTR -8[rbp], rdi
	mov	QWORD PTR -16[rbp], rsi
	mov	QWORD PTR -24[rbp], rdx
	mov	rdx, QWORD PTR -16[rbp]
	mov	rax, QWORD PTR -8[rbp]
	mov	rsi, rdx
	mov	rdi, rax
	call	_ZSt8_DestroyIPSt4pairIxS0_IxxEEEvT_S4_
	nop
	leave
	.cfi_def_cfa 7, 8
	ret
	.cfi_endproc
.LFE10932:
	.size	_ZSt8_DestroyIPSt4pairIxS0_IxxEES2_EvT_S4_RSaIT0_E, .-_ZSt8_DestroyIPSt4pairIxS0_IxxEES2_EvT_S4_RSaIT0_E
	.section	.text._ZSt7forwardIRxEOT_RNSt16remove_referenceIS1_E4typeE,"axG",@progbits,_ZSt7forwardIRxEOT_RNSt16remove_referenceIS1_E4typeE,comdat
	.weak	_ZSt7forwardIRxEOT_RNSt16remove_referenceIS1_E4typeE
	.type	_ZSt7forwardIRxEOT_RNSt16remove_referenceIS1_E4typeE, @function
_ZSt7forwardIRxEOT_RNSt16remove_referenceIS1_E4typeE:
.LFB10933:
	.cfi_startproc
	endbr64
	push	rbp
	.cfi_def_cfa_offset 16
	.cfi_offset 6, -16
	mov	rbp, rsp
	.cfi_def_cfa_register 6
	mov	QWORD PTR -8[rbp], rdi
	mov	rax, QWORD PTR -8[rbp]
	pop	rbp
	.cfi_def_cfa 7, 8
	ret
	.cfi_endproc
.LFE10933:
	.size	_ZSt7forwardIRxEOT_RNSt16remove_referenceIS1_E4typeE, .-_ZSt7forwardIRxEOT_RNSt16remove_referenceIS1_E4typeE
	.section	.text._ZSt7forwardIxEOT_RNSt16remove_referenceIS0_E4typeE,"axG",@progbits,_ZSt7forwardIxEOT_RNSt16remove_referenceIS0_E4typeE,comdat
	.weak	_ZSt7forwardIxEOT_RNSt16remove_referenceIS0_E4typeE
	.type	_ZSt7forwardIxEOT_RNSt16remove_referenceIS0_E4typeE, @function
_ZSt7forwardIxEOT_RNSt16remove_referenceIS0_E4typeE:
.LFB10934:
	.cfi_startproc
	endbr64
	push	rbp
	.cfi_def_cfa_offset 16
	.cfi_offset 6, -16
	mov	rbp, rsp
	.cfi_def_cfa_register 6
	mov	QWORD PTR -8[rbp], rdi
	mov	rax, QWORD PTR -8[rbp]
	pop	rbp
	.cfi_def_cfa 7, 8
	ret
	.cfi_endproc
.LFE10934:
	.size	_ZSt7forwardIxEOT_RNSt16remove_referenceIS0_E4typeE, .-_ZSt7forwardIxEOT_RNSt16remove_referenceIS0_E4typeE
	.section	.text._ZSt4moveIRSt4pairIxS0_IxxEEEONSt16remove_referenceIT_E4typeEOS5_,"axG",@progbits,_ZSt4moveIRSt4pairIxS0_IxxEEEONSt16remove_referenceIT_E4typeEOS5_,comdat
	.weak	_ZSt4moveIRSt4pairIxS0_IxxEEEONSt16remove_referenceIT_E4typeEOS5_
	.type	_ZSt4moveIRSt4pairIxS0_IxxEEEONSt16remove_referenceIT_E4typeEOS5_, @function
_ZSt4moveIRSt4pairIxS0_IxxEEEONSt16remove_referenceIT_E4typeEOS5_:
.LFB10935:
	.cfi_startproc
	endbr64
	push	rbp
	.cfi_def_cfa_offset 16
	.cfi_offset 6, -16
	mov	rbp, rsp
	.cfi_def_cfa_register 6
	mov	QWORD PTR -8[rbp], rdi
	mov	rax, QWORD PTR -8[rbp]
	pop	rbp
	.cfi_def_cfa 7, 8
	ret
	.cfi_endproc
.LFE10935:
	.size	_ZSt4moveIRSt4pairIxS0_IxxEEEONSt16remove_referenceIT_E4typeEOS5_, .-_ZSt4moveIRSt4pairIxS0_IxxEEEONSt16remove_referenceIT_E4typeEOS5_
	.section	.text._ZNSt6vectorISt4pairIxS0_IxxEESaIS2_EE12emplace_backIJS2_EEERS2_DpOT_,"axG",@progbits,_ZNSt6vectorISt4pairIxS0_IxxEESaIS2_EE12emplace_backIJS2_EEERS2_DpOT_,comdat
	.align 2
	.weak	_ZNSt6vectorISt4pairIxS0_IxxEESaIS2_EE12emplace_backIJS2_EEERS2_DpOT_
	.type	_ZNSt6vectorISt4pairIxS0_IxxEESaIS2_EE12emplace_backIJS2_EEERS2_DpOT_, @function
_ZNSt6vectorISt4pairIxS0_IxxEESaIS2_EE12emplace_backIJS2_EEERS2_DpOT_:
.LFB10936:
	.cfi_startproc
	endbr64
	push	rbp
	.cfi_def_cfa_offset 16
	.cfi_offset 6, -16
	mov	rbp, rsp
	.cfi_def_cfa_register 6
	push	rbx
	sub	rsp, 24
	.cfi_offset 3, -24
	mov	QWORD PTR -24[rbp], rdi
	mov	QWORD PTR -32[rbp], rsi
	mov	rax, QWORD PTR -24[rbp]
	mov	rdx, QWORD PTR 8[rax]
	mov	rax, QWORD PTR -24[rbp]
	mov	rax, QWORD PTR 16[rax]
	cmp	rdx, rax
	je	.L146
	mov	rax, QWORD PTR -32[rbp]
	mov	rdi, rax
	call	_ZSt7forwardISt4pairIxS0_IxxEEEOT_RNSt16remove_referenceIS3_E4typeE
	mov	rdx, rax
	mov	rax, QWORD PTR -24[rbp]
	mov	rcx, QWORD PTR 8[rax]
	mov	rax, QWORD PTR -24[rbp]
	mov	rsi, rcx
	mov	rdi, rax
	call	_ZNSt16allocator_traitsISaISt4pairIxS0_IxxEEEE9constructIS2_JS2_EEEvRS3_PT_DpOT0_
	mov	rax, QWORD PTR -24[rbp]
	mov	rax, QWORD PTR 8[rax]
	lea	rdx, 24[rax]
	mov	rax, QWORD PTR -24[rbp]
	mov	QWORD PTR 8[rax], rdx
	jmp	.L147
.L146:
	mov	rax, QWORD PTR -32[rbp]
	mov	rdi, rax
	call	_ZSt7forwardISt4pairIxS0_IxxEEEOT_RNSt16remove_referenceIS3_E4typeE
	mov	rbx, rax
	mov	rax, QWORD PTR -24[rbp]
	mov	rdi, rax
	call	_ZNSt6vectorISt4pairIxS0_IxxEESaIS2_EE3endEv
	mov	rcx, rax
	mov	rax, QWORD PTR -24[rbp]
	mov	rdx, rbx
	mov	rsi, rcx
	mov	rdi, rax
	call	_ZNSt6vectorISt4pairIxS0_IxxEESaIS2_EE17_M_realloc_insertIJS2_EEEvN9__gnu_cxx17__normal_iteratorIPS2_S4_EEDpOT_
.L147:
	mov	rax, QWORD PTR -24[rbp]
	mov	rdi, rax
	call	_ZNSt6vectorISt4pairIxS0_IxxEESaIS2_EE4backEv
	mov	rbx, QWORD PTR -8[rbp]
	leave
	.cfi_def_cfa 7, 8
	ret
	.cfi_endproc
.LFE10936:
	.size	_ZNSt6vectorISt4pairIxS0_IxxEESaIS2_EE12emplace_backIJS2_EEERS2_DpOT_, .-_ZNSt6vectorISt4pairIxS0_IxxEESaIS2_EE12emplace_backIJS2_EEERS2_DpOT_
	.section	.text._ZNSaISt13_Rb_tree_nodeIxEEC2Ev,"axG",@progbits,_ZNSaISt13_Rb_tree_nodeIxEEC5Ev,comdat
	.align 2
	.weak	_ZNSaISt13_Rb_tree_nodeIxEEC2Ev
	.type	_ZNSaISt13_Rb_tree_nodeIxEEC2Ev, @function
_ZNSaISt13_Rb_tree_nodeIxEEC2Ev:
.LFB10939:
	.cfi_startproc
	endbr64
	push	rbp
	.cfi_def_cfa_offset 16
	.cfi_offset 6, -16
	mov	rbp, rsp
	.cfi_def_cfa_register 6
	sub	rsp, 16
	mov	QWORD PTR -8[rbp], rdi
	mov	rax, QWORD PTR -8[rbp]
	mov	rdi, rax
	call	_ZN9__gnu_cxx13new_allocatorISt13_Rb_tree_nodeIxEEC2Ev
	nop
	leave
	.cfi_def_cfa 7, 8
	ret
	.cfi_endproc
.LFE10939:
	.size	_ZNSaISt13_Rb_tree_nodeIxEEC2Ev, .-_ZNSaISt13_Rb_tree_nodeIxEEC2Ev
	.weak	_ZNSaISt13_Rb_tree_nodeIxEEC1Ev
	.set	_ZNSaISt13_Rb_tree_nodeIxEEC1Ev,_ZNSaISt13_Rb_tree_nodeIxEEC2Ev
	.section	.text._ZNSt20_Rb_tree_key_compareISt4lessIxEEC2Ev,"axG",@progbits,_ZNSt20_Rb_tree_key_compareISt4lessIxEEC5Ev,comdat
	.align 2
	.weak	_ZNSt20_Rb_tree_key_compareISt4lessIxEEC2Ev
	.type	_ZNSt20_Rb_tree_key_compareISt4lessIxEEC2Ev, @function
_ZNSt20_Rb_tree_key_compareISt4lessIxEEC2Ev:
.LFB10942:
	.cfi_startproc
	endbr64
	push	rbp
	.cfi_def_cfa_offset 16
	.cfi_offset 6, -16
	mov	rbp, rsp
	.cfi_def_cfa_register 6
	mov	QWORD PTR -8[rbp], rdi
	nop
	pop	rbp
	.cfi_def_cfa 7, 8
	ret
	.cfi_endproc
.LFE10942:
	.size	_ZNSt20_Rb_tree_key_compareISt4lessIxEEC2Ev, .-_ZNSt20_Rb_tree_key_compareISt4lessIxEEC2Ev
	.weak	_ZNSt20_Rb_tree_key_compareISt4lessIxEEC1Ev
	.set	_ZNSt20_Rb_tree_key_compareISt4lessIxEEC1Ev,_ZNSt20_Rb_tree_key_compareISt4lessIxEEC2Ev
	.section	.text._ZN9__gnu_cxx13new_allocatorISt13_Rb_tree_nodeIxEED2Ev,"axG",@progbits,_ZN9__gnu_cxx13new_allocatorISt13_Rb_tree_nodeIxEED5Ev,comdat
	.align 2
	.weak	_ZN9__gnu_cxx13new_allocatorISt13_Rb_tree_nodeIxEED2Ev
	.type	_ZN9__gnu_cxx13new_allocatorISt13_Rb_tree_nodeIxEED2Ev, @function
_ZN9__gnu_cxx13new_allocatorISt13_Rb_tree_nodeIxEED2Ev:
.LFB10945:
	.cfi_startproc
	endbr64
	push	rbp
	.cfi_def_cfa_offset 16
	.cfi_offset 6, -16
	mov	rbp, rsp
	.cfi_def_cfa_register 6
	mov	QWORD PTR -8[rbp], rdi
	nop
	pop	rbp
	.cfi_def_cfa 7, 8
	ret
	.cfi_endproc
.LFE10945:
	.size	_ZN9__gnu_cxx13new_allocatorISt13_Rb_tree_nodeIxEED2Ev, .-_ZN9__gnu_cxx13new_allocatorISt13_Rb_tree_nodeIxEED2Ev
	.weak	_ZN9__gnu_cxx13new_allocatorISt13_Rb_tree_nodeIxEED1Ev
	.set	_ZN9__gnu_cxx13new_allocatorISt13_Rb_tree_nodeIxEED1Ev,_ZN9__gnu_cxx13new_allocatorISt13_Rb_tree_nodeIxEED2Ev
	.section	.text._ZNSt8_Rb_treeIxxSt9_IdentityIxESt4lessIxESaIxEE8_M_eraseEPSt13_Rb_tree_nodeIxE,"axG",@progbits,_ZNSt8_Rb_treeIxxSt9_IdentityIxESt4lessIxESaIxEE8_M_eraseEPSt13_Rb_tree_nodeIxE,comdat
	.align 2
	.weak	_ZNSt8_Rb_treeIxxSt9_IdentityIxESt4lessIxESaIxEE8_M_eraseEPSt13_Rb_tree_nodeIxE
	.type	_ZNSt8_Rb_treeIxxSt9_IdentityIxESt4lessIxESaIxEE8_M_eraseEPSt13_Rb_tree_nodeIxE, @function
_ZNSt8_Rb_treeIxxSt9_IdentityIxESt4lessIxESaIxEE8_M_eraseEPSt13_Rb_tree_nodeIxE:
.LFB10947:
	.cfi_startproc
	endbr64
	push	rbp
	.cfi_def_cfa_offset 16
	.cfi_offset 6, -16
	mov	rbp, rsp
	.cfi_def_cfa_register 6
	sub	rsp, 32
	mov	QWORD PTR -24[rbp], rdi
	mov	QWORD PTR -32[rbp], rsi
	jmp	.L153
.L154:
	mov	rax, QWORD PTR -32[rbp]
	mov	rdi, rax
	call	_ZNSt8_Rb_treeIxxSt9_IdentityIxESt4lessIxESaIxEE8_S_rightEPSt18_Rb_tree_node_base
	mov	rdx, rax
	mov	rax, QWORD PTR -24[rbp]
	mov	rsi, rdx
	mov	rdi, rax
	call	_ZNSt8_Rb_treeIxxSt9_IdentityIxESt4lessIxESaIxEE8_M_eraseEPSt13_Rb_tree_nodeIxE
	mov	rax, QWORD PTR -32[rbp]
	mov	rdi, rax
	call	_ZNSt8_Rb_treeIxxSt9_IdentityIxESt4lessIxESaIxEE7_S_leftEPSt18_Rb_tree_node_base
	mov	QWORD PTR -8[rbp], rax
	mov	rdx, QWORD PTR -32[rbp]
	mov	rax, QWORD PTR -24[rbp]
	mov	rsi, rdx
	mov	rdi, rax
	call	_ZNSt8_Rb_treeIxxSt9_IdentityIxESt4lessIxESaIxEE12_M_drop_nodeEPSt13_Rb_tree_nodeIxE
	mov	rax, QWORD PTR -8[rbp]
	mov	QWORD PTR -32[rbp], rax
.L153:
	cmp	QWORD PTR -32[rbp], 0
	jne	.L154
	nop
	nop
	leave
	.cfi_def_cfa 7, 8
	ret
	.cfi_endproc
.LFE10947:
	.size	_ZNSt8_Rb_treeIxxSt9_IdentityIxESt4lessIxESaIxEE8_M_eraseEPSt13_Rb_tree_nodeIxE, .-_ZNSt8_Rb_treeIxxSt9_IdentityIxESt4lessIxESaIxEE8_M_eraseEPSt13_Rb_tree_nodeIxE
	.section	.text._ZNSt8_Rb_treeIxxSt9_IdentityIxESt4lessIxESaIxEE8_M_beginEv,"axG",@progbits,_ZNSt8_Rb_treeIxxSt9_IdentityIxESt4lessIxESaIxEE8_M_beginEv,comdat
	.align 2
	.weak	_ZNSt8_Rb_treeIxxSt9_IdentityIxESt4lessIxESaIxEE8_M_beginEv
	.type	_ZNSt8_Rb_treeIxxSt9_IdentityIxESt4lessIxESaIxEE8_M_beginEv, @function
_ZNSt8_Rb_treeIxxSt9_IdentityIxESt4lessIxESaIxEE8_M_beginEv:
.LFB10948:
	.cfi_startproc
	endbr64
	push	rbp
	.cfi_def_cfa_offset 16
	.cfi_offset 6, -16
	mov	rbp, rsp
	.cfi_def_cfa_register 6
	sub	rsp, 16
	mov	QWORD PTR -8[rbp], rdi
	mov	rax, QWORD PTR -8[rbp]
	mov	rdi, rax
	call	_ZNKSt8_Rb_treeIxxSt9_IdentityIxESt4lessIxESaIxEE9_M_mbeginEv
	leave
	.cfi_def_cfa 7, 8
	ret
	.cfi_endproc
.LFE10948:
	.size	_ZNSt8_Rb_treeIxxSt9_IdentityIxESt4lessIxESaIxEE8_M_beginEv, .-_ZNSt8_Rb_treeIxxSt9_IdentityIxESt4lessIxESaIxEE8_M_beginEv
	.section	.text._ZSt4moveIRxEONSt16remove_referenceIT_E4typeEOS2_,"axG",@progbits,_ZSt4moveIRxEONSt16remove_referenceIT_E4typeEOS2_,comdat
	.weak	_ZSt4moveIRxEONSt16remove_referenceIT_E4typeEOS2_
	.type	_ZSt4moveIRxEONSt16remove_referenceIT_E4typeEOS2_, @function
_ZSt4moveIRxEONSt16remove_referenceIT_E4typeEOS2_:
.LFB10949:
	.cfi_startproc
	endbr64
	push	rbp
	.cfi_def_cfa_offset 16
	.cfi_offset 6, -16
	mov	rbp, rsp
	.cfi_def_cfa_register 6
	mov	QWORD PTR -8[rbp], rdi
	mov	rax, QWORD PTR -8[rbp]
	pop	rbp
	.cfi_def_cfa 7, 8
	ret
	.cfi_endproc
.LFE10949:
	.size	_ZSt4moveIRxEONSt16remove_referenceIT_E4typeEOS2_, .-_ZSt4moveIRxEONSt16remove_referenceIT_E4typeEOS2_
	.section	.text._ZNSt8_Rb_treeIxxSt9_IdentityIxESt4lessIxESaIxEE16_M_insert_uniqueIxEESt4pairISt17_Rb_tree_iteratorIxEbEOT_,"axG",@progbits,_ZNSt8_Rb_treeIxxSt9_IdentityIxESt4lessIxESaIxEE16_M_insert_uniqueIxEESt4pairISt17_Rb_tree_iteratorIxEbEOT_,comdat
	.align 2
	.weak	_ZNSt8_Rb_treeIxxSt9_IdentityIxESt4lessIxESaIxEE16_M_insert_uniqueIxEESt4pairISt17_Rb_tree_iteratorIxEbEOT_
	.type	_ZNSt8_Rb_treeIxxSt9_IdentityIxESt4lessIxESaIxEE16_M_insert_uniqueIxEESt4pairISt17_Rb_tree_iteratorIxEbEOT_, @function
_ZNSt8_Rb_treeIxxSt9_IdentityIxESt4lessIxESaIxEE16_M_insert_uniqueIxEESt4pairISt17_Rb_tree_iteratorIxEbEOT_:
.LFB10950:
	.cfi_startproc
	endbr64
	push	rbp
	.cfi_def_cfa_offset 16
	.cfi_offset 6, -16
	mov	rbp, rsp
	.cfi_def_cfa_register 6
	sub	rsp, 96
	mov	QWORD PTR -88[rbp], rdi
	mov	QWORD PTR -96[rbp], rsi
	mov	rax, QWORD PTR fs:40
	mov	QWORD PTR -8[rbp], rax
	xor	eax, eax
	mov	rdx, QWORD PTR -96[rbp]
	lea	rax, -32[rbp]
	mov	rsi, rdx
	mov	rdi, rax
	call	_ZNKSt9_IdentityIxEclERx
	mov	rdx, rax
	mov	rax, QWORD PTR -88[rbp]
	mov	rsi, rdx
	mov	rdi, rax
	call	_ZNSt8_Rb_treeIxxSt9_IdentityIxESt4lessIxESaIxEE24_M_get_insert_unique_posERKx
	mov	QWORD PTR -48[rbp], rax
	mov	QWORD PTR -40[rbp], rdx
	mov	rax, QWORD PTR -40[rbp]
	test	rax, rax
	je	.L160
	mov	rdx, QWORD PTR -88[rbp]
	lea	rax, -64[rbp]
	mov	rsi, rdx
	mov	rdi, rax
	call	_ZNSt8_Rb_treeIxxSt9_IdentityIxESt4lessIxESaIxEE11_Alloc_nodeC1ERS5_
	mov	BYTE PTR -65[rbp], 1
	mov	rax, QWORD PTR -96[rbp]
	mov	rdi, rax
	call	_ZSt7forwardIxEOT_RNSt16remove_referenceIS0_E4typeE
	mov	rcx, rax
	mov	rdx, QWORD PTR -40[rbp]
	mov	rsi, QWORD PTR -48[rbp]
	lea	rdi, -64[rbp]
	mov	rax, QWORD PTR -88[rbp]
	mov	r8, rdi
	mov	rdi, rax
	call	_ZNSt8_Rb_treeIxxSt9_IdentityIxESt4lessIxESaIxEE10_M_insert_IxNS5_11_Alloc_nodeEEESt17_Rb_tree_iteratorIxEPSt18_Rb_tree_node_baseSB_OT_RT0_
	mov	QWORD PTR -56[rbp], rax
	lea	rdx, -65[rbp]
	lea	rcx, -56[rbp]
	lea	rax, -32[rbp]
	mov	rsi, rcx
	mov	rdi, rax
	call	_ZNSt4pairISt17_Rb_tree_iteratorIxEbEC1IS1_bLb1EEEOT_OT0_
	mov	rax, QWORD PTR -32[rbp]
	mov	rdx, QWORD PTR -24[rbp]
	jmp	.L162
.L160:
	mov	BYTE PTR -64[rbp], 0
	mov	rdx, QWORD PTR -48[rbp]
	lea	rax, -56[rbp]
	mov	rsi, rdx
	mov	rdi, rax
	call	_ZNSt17_Rb_tree_iteratorIxEC1EPSt18_Rb_tree_node_base
	lea	rdx, -64[rbp]
	lea	rcx, -56[rbp]
	lea	rax, -32[rbp]
	mov	rsi, rcx
	mov	rdi, rax
	call	_ZNSt4pairISt17_Rb_tree_iteratorIxEbEC1IS1_bLb1EEEOT_OT0_
	mov	rax, QWORD PTR -32[rbp]
	mov	rdx, QWORD PTR -24[rbp]
.L162:
	mov	rcx, QWORD PTR -8[rbp]
	sub	rcx, QWORD PTR fs:40
	je	.L163
	call	__stack_chk_fail@PLT
.L163:
	leave
	.cfi_def_cfa 7, 8
	ret
	.cfi_endproc
.LFE10950:
	.size	_ZNSt8_Rb_treeIxxSt9_IdentityIxESt4lessIxESaIxEE16_M_insert_uniqueIxEESt4pairISt17_Rb_tree_iteratorIxEbEOT_, .-_ZNSt8_Rb_treeIxxSt9_IdentityIxESt4lessIxESaIxEE16_M_insert_uniqueIxEESt4pairISt17_Rb_tree_iteratorIxEbEOT_
	.section	.text._ZNSt4pairISt23_Rb_tree_const_iteratorIxEbEC2IRSt17_Rb_tree_iteratorIxERbLb1EEEOT_OT0_,"axG",@progbits,_ZNSt4pairISt23_Rb_tree_const_iteratorIxEbEC5IRSt17_Rb_tree_iteratorIxERbLb1EEEOT_OT0_,comdat
	.align 2
	.weak	_ZNSt4pairISt23_Rb_tree_const_iteratorIxEbEC2IRSt17_Rb_tree_iteratorIxERbLb1EEEOT_OT0_
	.type	_ZNSt4pairISt23_Rb_tree_const_iteratorIxEbEC2IRSt17_Rb_tree_iteratorIxERbLb1EEEOT_OT0_, @function
_ZNSt4pairISt23_Rb_tree_const_iteratorIxEbEC2IRSt17_Rb_tree_iteratorIxERbLb1EEEOT_OT0_:
.LFB10960:
	.cfi_startproc
	endbr64
	push	rbp
	.cfi_def_cfa_offset 16
	.cfi_offset 6, -16
	mov	rbp, rsp
	.cfi_def_cfa_register 6
	push	rbx
	sub	rsp, 40
	.cfi_offset 3, -24
	mov	QWORD PTR -24[rbp], rdi
	mov	QWORD PTR -32[rbp], rsi
	mov	QWORD PTR -40[rbp], rdx
	mov	rbx, QWORD PTR -24[rbp]
	mov	rax, QWORD PTR -32[rbp]
	mov	rdi, rax
	call	_ZSt7forwardIRSt17_Rb_tree_iteratorIxEEOT_RNSt16remove_referenceIS3_E4typeE
	mov	rsi, rax
	mov	rdi, rbx
	call	_ZNSt23_Rb_tree_const_iteratorIxEC1ERKSt17_Rb_tree_iteratorIxE
	mov	rax, QWORD PTR -40[rbp]
	mov	rdi, rax
	call	_ZSt7forwardIRbEOT_RNSt16remove_referenceIS1_E4typeE
	movzx	edx, BYTE PTR [rax]
	mov	rax, QWORD PTR -24[rbp]
	mov	BYTE PTR 8[rax], dl
	nop
	mov	rbx, QWORD PTR -8[rbp]
	leave
	.cfi_def_cfa 7, 8
	ret
	.cfi_endproc
.LFE10960:
	.size	_ZNSt4pairISt23_Rb_tree_const_iteratorIxEbEC2IRSt17_Rb_tree_iteratorIxERbLb1EEEOT_OT0_, .-_ZNSt4pairISt23_Rb_tree_const_iteratorIxEbEC2IRSt17_Rb_tree_iteratorIxERbLb1EEEOT_OT0_
	.weak	_ZNSt4pairISt23_Rb_tree_const_iteratorIxEbEC1IRSt17_Rb_tree_iteratorIxERbLb1EEEOT_OT0_
	.set	_ZNSt4pairISt23_Rb_tree_const_iteratorIxEbEC1IRSt17_Rb_tree_iteratorIxERbLb1EEEOT_OT0_,_ZNSt4pairISt23_Rb_tree_const_iteratorIxEbEC2IRSt17_Rb_tree_iteratorIxERbLb1EEEOT_OT0_
	.section	.text._ZN9__gnu_cxx17__normal_iteratorIPSt4pairIxS1_IxxEESt6vectorIS3_SaIS3_EEEC2ERKS4_,"axG",@progbits,_ZN9__gnu_cxx17__normal_iteratorIPSt4pairIxS1_IxxEESt6vectorIS3_SaIS3_EEEC5ERKS4_,comdat
	.align 2
	.weak	_ZN9__gnu_cxx17__normal_iteratorIPSt4pairIxS1_IxxEESt6vectorIS3_SaIS3_EEEC2ERKS4_
	.type	_ZN9__gnu_cxx17__normal_iteratorIPSt4pairIxS1_IxxEESt6vectorIS3_SaIS3_EEEC2ERKS4_, @function
_ZN9__gnu_cxx17__normal_iteratorIPSt4pairIxS1_IxxEESt6vectorIS3_SaIS3_EEEC2ERKS4_:
.LFB10963:
	.cfi_startproc
	endbr64
	push	rbp
	.cfi_def_cfa_offset 16
	.cfi_offset 6, -16
	mov	rbp, rsp
	.cfi_def_cfa_register 6
	mov	QWORD PTR -8[rbp], rdi
	mov	QWORD PTR -16[rbp], rsi
	mov	rax, QWORD PTR -16[rbp]
	mov	rdx, QWORD PTR [rax]
	mov	rax, QWORD PTR -8[rbp]
	mov	QWORD PTR [rax], rdx
	nop
	pop	rbp
	.cfi_def_cfa 7, 8
	ret
	.cfi_endproc
.LFE10963:
	.size	_ZN9__gnu_cxx17__normal_iteratorIPSt4pairIxS1_IxxEESt6vectorIS3_SaIS3_EEEC2ERKS4_, .-_ZN9__gnu_cxx17__normal_iteratorIPSt4pairIxS1_IxxEESt6vectorIS3_SaIS3_EEEC2ERKS4_
	.weak	_ZN9__gnu_cxx17__normal_iteratorIPSt4pairIxS1_IxxEESt6vectorIS3_SaIS3_EEEC1ERKS4_
	.set	_ZN9__gnu_cxx17__normal_iteratorIPSt4pairIxS1_IxxEESt6vectorIS3_SaIS3_EEEC1ERKS4_,_ZN9__gnu_cxx17__normal_iteratorIPSt4pairIxS1_IxxEESt6vectorIS3_SaIS3_EEEC2ERKS4_
	.section	.text._ZSt6__sortIN9__gnu_cxx17__normal_iteratorIPSt4pairIxS2_IxxEESt6vectorIS4_SaIS4_EEEENS0_5__ops15_Iter_less_iterEEvT_SC_T0_,"axG",@progbits,_ZSt6__sortIN9__gnu_cxx17__normal_iteratorIPSt4pairIxS2_IxxEESt6vectorIS4_SaIS4_EEEENS0_5__ops15_Iter_less_iterEEvT_SC_T0_,comdat
	.weak	_ZSt6__sortIN9__gnu_cxx17__normal_iteratorIPSt4pairIxS2_IxxEESt6vectorIS4_SaIS4_EEEENS0_5__ops15_Iter_less_iterEEvT_SC_T0_
	.type	_ZSt6__sortIN9__gnu_cxx17__normal_iteratorIPSt4pairIxS2_IxxEESt6vectorIS4_SaIS4_EEEENS0_5__ops15_Iter_less_iterEEvT_SC_T0_, @function
_ZSt6__sortIN9__gnu_cxx17__normal_iteratorIPSt4pairIxS2_IxxEESt6vectorIS4_SaIS4_EEEENS0_5__ops15_Iter_less_iterEEvT_SC_T0_:
.LFB10965:
	.cfi_startproc
	endbr64
	push	rbp
	.cfi_def_cfa_offset 16
	.cfi_offset 6, -16
	mov	rbp, rsp
	.cfi_def_cfa_register 6
	sub	rsp, 32
	mov	QWORD PTR -8[rbp], rdi
	mov	QWORD PTR -16[rbp], rsi
	lea	rdx, -16[rbp]
	lea	rax, -8[rbp]
	mov	rsi, rdx
	mov	rdi, rax
	call	_ZN9__gnu_cxxneIPSt4pairIxS1_IxxEESt6vectorIS3_SaIS3_EEEEbRKNS_17__normal_iteratorIT_T0_EESD_
	test	al, al
	je	.L168
	lea	rdx, -8[rbp]
	lea	rax, -16[rbp]
	mov	rsi, rdx
	mov	rdi, rax
	call	_ZN9__gnu_cxxmiIPSt4pairIxS1_IxxEESt6vectorIS3_SaIS3_EEEENS_17__normal_iteratorIT_T0_E15difference_typeERKSB_SE_
	mov	rdi, rax
	call	_ZSt4__lgl
	lea	rdx, [rax+rax]
	mov	rcx, QWORD PTR -16[rbp]
	mov	rax, QWORD PTR -8[rbp]
	mov	rsi, rcx
	mov	rdi, rax
	call	_ZSt16__introsort_loopIN9__gnu_cxx17__normal_iteratorIPSt4pairIxS2_IxxEESt6vectorIS4_SaIS4_EEEElNS0_5__ops15_Iter_less_iterEEvT_SC_T0_T1_
	mov	rdx, QWORD PTR -16[rbp]
	mov	rax, QWORD PTR -8[rbp]
	mov	rsi, rdx
	mov	rdi, rax
	call	_ZSt22__final_insertion_sortIN9__gnu_cxx17__normal_iteratorIPSt4pairIxS2_IxxEESt6vectorIS4_SaIS4_EEEENS0_5__ops15_Iter_less_iterEEvT_SC_T0_
.L168:
	nop
	leave
	.cfi_def_cfa 7, 8
	ret
	.cfi_endproc
.LFE10965:
	.size	_ZSt6__sortIN9__gnu_cxx17__normal_iteratorIPSt4pairIxS2_IxxEESt6vectorIS4_SaIS4_EEEENS0_5__ops15_Iter_less_iterEEvT_SC_T0_, .-_ZSt6__sortIN9__gnu_cxx17__normal_iteratorIPSt4pairIxS2_IxxEESt6vectorIS4_SaIS4_EEEENS0_5__ops15_Iter_less_iterEEvT_SC_T0_
	.section	.text._ZNK9__gnu_cxx17__normal_iteratorIPSt4pairIxS1_IxxEESt6vectorIS3_SaIS3_EEE4baseEv,"axG",@progbits,_ZNK9__gnu_cxx17__normal_iteratorIPSt4pairIxS1_IxxEESt6vectorIS3_SaIS3_EEE4baseEv,comdat
	.align 2
	.weak	_ZNK9__gnu_cxx17__normal_iteratorIPSt4pairIxS1_IxxEESt6vectorIS3_SaIS3_EEE4baseEv
	.type	_ZNK9__gnu_cxx17__normal_iteratorIPSt4pairIxS1_IxxEESt6vectorIS3_SaIS3_EEE4baseEv, @function
_ZNK9__gnu_cxx17__normal_iteratorIPSt4pairIxS1_IxxEESt6vectorIS3_SaIS3_EEE4baseEv:
.LFB10966:
	.cfi_startproc
	endbr64
	push	rbp
	.cfi_def_cfa_offset 16
	.cfi_offset 6, -16
	mov	rbp, rsp
	.cfi_def_cfa_register 6
	mov	QWORD PTR -8[rbp], rdi
	mov	rax, QWORD PTR -8[rbp]
	pop	rbp
	.cfi_def_cfa 7, 8
	ret
	.cfi_endproc
.LFE10966:
	.size	_ZNK9__gnu_cxx17__normal_iteratorIPSt4pairIxS1_IxxEESt6vectorIS3_SaIS3_EEE4baseEv, .-_ZNK9__gnu_cxx17__normal_iteratorIPSt4pairIxS1_IxxEESt6vectorIS3_SaIS3_EEE4baseEv
	.section	.text._ZNSt8_Rb_treeIxxSt9_IdentityIxESt4lessIxESaIxEE11upper_boundERKx,"axG",@progbits,_ZNSt8_Rb_treeIxxSt9_IdentityIxESt4lessIxESaIxEE11upper_boundERKx,comdat
	.align 2
	.weak	_ZNSt8_Rb_treeIxxSt9_IdentityIxESt4lessIxESaIxEE11upper_boundERKx
	.type	_ZNSt8_Rb_treeIxxSt9_IdentityIxESt4lessIxESaIxEE11upper_boundERKx, @function
_ZNSt8_Rb_treeIxxSt9_IdentityIxESt4lessIxESaIxEE11upper_boundERKx:
.LFB10967:
	.cfi_startproc
	endbr64
	push	rbp
	.cfi_def_cfa_offset 16
	.cfi_offset 6, -16
	mov	rbp, rsp
	.cfi_def_cfa_register 6
	push	rbx
	sub	rsp, 24
	.cfi_offset 3, -24
	mov	QWORD PTR -24[rbp], rdi
	mov	QWORD PTR -32[rbp], rsi
	mov	rax, QWORD PTR -24[rbp]
	mov	rdi, rax
	call	_ZNSt8_Rb_treeIxxSt9_IdentityIxESt4lessIxESaIxEE6_M_endEv
	mov	rbx, rax
	mov	rax, QWORD PTR -24[rbp]
	mov	rdi, rax
	call	_ZNSt8_Rb_treeIxxSt9_IdentityIxESt4lessIxESaIxEE8_M_beginEv
	mov	rsi, rax
	mov	rdx, QWORD PTR -32[rbp]
	mov	rax, QWORD PTR -24[rbp]
	mov	rcx, rdx
	mov	rdx, rbx
	mov	rdi, rax
	call	_ZNSt8_Rb_treeIxxSt9_IdentityIxESt4lessIxESaIxEE14_M_upper_boundEPSt13_Rb_tree_nodeIxEPSt18_Rb_tree_node_baseRKx
	mov	rbx, QWORD PTR -8[rbp]
	leave
	.cfi_def_cfa 7, 8
	ret
	.cfi_endproc
.LFE10967:
	.size	_ZNSt8_Rb_treeIxxSt9_IdentityIxESt4lessIxESaIxEE11upper_boundERKx, .-_ZNSt8_Rb_treeIxxSt9_IdentityIxESt4lessIxESaIxEE11upper_boundERKx
	.section	.text._ZNSt23_Rb_tree_const_iteratorIxEC2ERKSt17_Rb_tree_iteratorIxE,"axG",@progbits,_ZNSt23_Rb_tree_const_iteratorIxEC5ERKSt17_Rb_tree_iteratorIxE,comdat
	.align 2
	.weak	_ZNSt23_Rb_tree_const_iteratorIxEC2ERKSt17_Rb_tree_iteratorIxE
	.type	_ZNSt23_Rb_tree_const_iteratorIxEC2ERKSt17_Rb_tree_iteratorIxE, @function
_ZNSt23_Rb_tree_const_iteratorIxEC2ERKSt17_Rb_tree_iteratorIxE:
.LFB10969:
	.cfi_startproc
	endbr64
	push	rbp
	.cfi_def_cfa_offset 16
	.cfi_offset 6, -16
	mov	rbp, rsp
	.cfi_def_cfa_register 6
	mov	QWORD PTR -8[rbp], rdi
	mov	QWORD PTR -16[rbp], rsi
	mov	rax, QWORD PTR -16[rbp]
	mov	rdx, QWORD PTR [rax]
	mov	rax, QWORD PTR -8[rbp]
	mov	QWORD PTR [rax], rdx
	nop
	pop	rbp
	.cfi_def_cfa 7, 8
	ret
	.cfi_endproc
.LFE10969:
	.size	_ZNSt23_Rb_tree_const_iteratorIxEC2ERKSt17_Rb_tree_iteratorIxE, .-_ZNSt23_Rb_tree_const_iteratorIxEC2ERKSt17_Rb_tree_iteratorIxE
	.weak	_ZNSt23_Rb_tree_const_iteratorIxEC1ERKSt17_Rb_tree_iteratorIxE
	.set	_ZNSt23_Rb_tree_const_iteratorIxEC1ERKSt17_Rb_tree_iteratorIxE,_ZNSt23_Rb_tree_const_iteratorIxEC2ERKSt17_Rb_tree_iteratorIxE
	.section	.text._ZNKSt13_Rb_tree_nodeIxE9_M_valptrEv,"axG",@progbits,_ZNKSt13_Rb_tree_nodeIxE9_M_valptrEv,comdat
	.align 2
	.weak	_ZNKSt13_Rb_tree_nodeIxE9_M_valptrEv
	.type	_ZNKSt13_Rb_tree_nodeIxE9_M_valptrEv, @function
_ZNKSt13_Rb_tree_nodeIxE9_M_valptrEv:
.LFB10971:
	.cfi_startproc
	endbr64
	push	rbp
	.cfi_def_cfa_offset 16
	.cfi_offset 6, -16
	mov	rbp, rsp
	.cfi_def_cfa_register 6
	sub	rsp, 16
	mov	QWORD PTR -8[rbp], rdi
	mov	rax, QWORD PTR -8[rbp]
	add	rax, 32
	mov	rdi, rax
	call	_ZNK9__gnu_cxx16__aligned_membufIxE6_M_ptrEv
	leave
	.cfi_def_cfa 7, 8
	ret
	.cfi_endproc
.LFE10971:
	.size	_ZNKSt13_Rb_tree_nodeIxE9_M_valptrEv, .-_ZNKSt13_Rb_tree_nodeIxE9_M_valptrEv
	.section	.text._ZNSt8_Rb_treeIxxSt9_IdentityIxESt4lessIxESaIxEE11lower_boundERKx,"axG",@progbits,_ZNSt8_Rb_treeIxxSt9_IdentityIxESt4lessIxESaIxEE11lower_boundERKx,comdat
	.align 2
	.weak	_ZNSt8_Rb_treeIxxSt9_IdentityIxESt4lessIxESaIxEE11lower_boundERKx
	.type	_ZNSt8_Rb_treeIxxSt9_IdentityIxESt4lessIxESaIxEE11lower_boundERKx, @function
_ZNSt8_Rb_treeIxxSt9_IdentityIxESt4lessIxESaIxEE11lower_boundERKx:
.LFB10972:
	.cfi_startproc
	endbr64
	push	rbp
	.cfi_def_cfa_offset 16
	.cfi_offset 6, -16
	mov	rbp, rsp
	.cfi_def_cfa_register 6
	push	rbx
	sub	rsp, 24
	.cfi_offset 3, -24
	mov	QWORD PTR -24[rbp], rdi
	mov	QWORD PTR -32[rbp], rsi
	mov	rax, QWORD PTR -24[rbp]
	mov	rdi, rax
	call	_ZNSt8_Rb_treeIxxSt9_IdentityIxESt4lessIxESaIxEE6_M_endEv
	mov	rbx, rax
	mov	rax, QWORD PTR -24[rbp]
	mov	rdi, rax
	call	_ZNSt8_Rb_treeIxxSt9_IdentityIxESt4lessIxESaIxEE8_M_beginEv
	mov	rsi, rax
	mov	rdx, QWORD PTR -32[rbp]
	mov	rax, QWORD PTR -24[rbp]
	mov	rcx, rdx
	mov	rdx, rbx
	mov	rdi, rax
	call	_ZNSt8_Rb_treeIxxSt9_IdentityIxESt4lessIxESaIxEE14_M_lower_boundEPSt13_Rb_tree_nodeIxEPSt18_Rb_tree_node_baseRKx
	mov	rbx, QWORD PTR -8[rbp]
	leave
	.cfi_def_cfa 7, 8
	ret
	.cfi_endproc
.LFE10972:
	.size	_ZNSt8_Rb_treeIxxSt9_IdentityIxESt4lessIxESaIxEE11lower_boundERKx, .-_ZNSt8_Rb_treeIxxSt9_IdentityIxESt4lessIxESaIxEE11lower_boundERKx
	.section	.text._ZNSt8_Rb_treeIxxSt9_IdentityIxESt4lessIxESaIxEE16_M_insert_uniqueIRKxEESt4pairISt17_Rb_tree_iteratorIxEbEOT_,"axG",@progbits,_ZNSt8_Rb_treeIxxSt9_IdentityIxESt4lessIxESaIxEE16_M_insert_uniqueIRKxEESt4pairISt17_Rb_tree_iteratorIxEbEOT_,comdat
	.align 2
	.weak	_ZNSt8_Rb_treeIxxSt9_IdentityIxESt4lessIxESaIxEE16_M_insert_uniqueIRKxEESt4pairISt17_Rb_tree_iteratorIxEbEOT_
	.type	_ZNSt8_Rb_treeIxxSt9_IdentityIxESt4lessIxESaIxEE16_M_insert_uniqueIRKxEESt4pairISt17_Rb_tree_iteratorIxEbEOT_, @function
_ZNSt8_Rb_treeIxxSt9_IdentityIxESt4lessIxESaIxEE16_M_insert_uniqueIRKxEESt4pairISt17_Rb_tree_iteratorIxEbEOT_:
.LFB10973:
	.cfi_startproc
	endbr64
	push	rbp
	.cfi_def_cfa_offset 16
	.cfi_offset 6, -16
	mov	rbp, rsp
	.cfi_def_cfa_register 6
	sub	rsp, 96
	mov	QWORD PTR -88[rbp], rdi
	mov	QWORD PTR -96[rbp], rsi
	mov	rax, QWORD PTR fs:40
	mov	QWORD PTR -8[rbp], rax
	xor	eax, eax
	mov	rdx, QWORD PTR -96[rbp]
	lea	rax, -32[rbp]
	mov	rsi, rdx
	mov	rdi, rax
	call	_ZNKSt9_IdentityIxEclERKx
	mov	rdx, rax
	mov	rax, QWORD PTR -88[rbp]
	mov	rsi, rdx
	mov	rdi, rax
	call	_ZNSt8_Rb_treeIxxSt9_IdentityIxESt4lessIxESaIxEE24_M_get_insert_unique_posERKx
	mov	QWORD PTR -48[rbp], rax
	mov	QWORD PTR -40[rbp], rdx
	mov	rax, QWORD PTR -40[rbp]
	test	rax, rax
	je	.L179
	mov	rdx, QWORD PTR -88[rbp]
	lea	rax, -64[rbp]
	mov	rsi, rdx
	mov	rdi, rax
	call	_ZNSt8_Rb_treeIxxSt9_IdentityIxESt4lessIxESaIxEE11_Alloc_nodeC1ERS5_
	mov	BYTE PTR -65[rbp], 1
	mov	rax, QWORD PTR -96[rbp]
	mov	rdi, rax
	call	_ZSt7forwardIRKxEOT_RNSt16remove_referenceIS2_E4typeE
	mov	rcx, rax
	mov	rdx, QWORD PTR -40[rbp]
	mov	rsi, QWORD PTR -48[rbp]
	lea	rdi, -64[rbp]
	mov	rax, QWORD PTR -88[rbp]
	mov	r8, rdi
	mov	rdi, rax
	call	_ZNSt8_Rb_treeIxxSt9_IdentityIxESt4lessIxESaIxEE10_M_insert_IRKxNS5_11_Alloc_nodeEEESt17_Rb_tree_iteratorIxEPSt18_Rb_tree_node_baseSD_OT_RT0_
	mov	QWORD PTR -56[rbp], rax
	lea	rdx, -65[rbp]
	lea	rcx, -56[rbp]
	lea	rax, -32[rbp]
	mov	rsi, rcx
	mov	rdi, rax
	call	_ZNSt4pairISt17_Rb_tree_iteratorIxEbEC1IS1_bLb1EEEOT_OT0_
	mov	rax, QWORD PTR -32[rbp]
	mov	rdx, QWORD PTR -24[rbp]
	jmp	.L181
.L179:
	mov	BYTE PTR -64[rbp], 0
	mov	rdx, QWORD PTR -48[rbp]
	lea	rax, -56[rbp]
	mov	rsi, rdx
	mov	rdi, rax
	call	_ZNSt17_Rb_tree_iteratorIxEC1EPSt18_Rb_tree_node_base
	lea	rdx, -64[rbp]
	lea	rcx, -56[rbp]
	lea	rax, -32[rbp]
	mov	rsi, rcx
	mov	rdi, rax
	call	_ZNSt4pairISt17_Rb_tree_iteratorIxEbEC1IS1_bLb1EEEOT_OT0_
	mov	rax, QWORD PTR -32[rbp]
	mov	rdx, QWORD PTR -24[rbp]
.L181:
	mov	rcx, QWORD PTR -8[rbp]
	sub	rcx, QWORD PTR fs:40
	je	.L182
	call	__stack_chk_fail@PLT
.L182:
	leave
	.cfi_def_cfa 7, 8
	ret
	.cfi_endproc
.LFE10973:
	.size	_ZNSt8_Rb_treeIxxSt9_IdentityIxESt4lessIxESaIxEE16_M_insert_uniqueIRKxEESt4pairISt17_Rb_tree_iteratorIxEbEOT_, .-_ZNSt8_Rb_treeIxxSt9_IdentityIxESt4lessIxESaIxEE16_M_insert_uniqueIRKxEESt4pairISt17_Rb_tree_iteratorIxEbEOT_
	.section	.text._ZNSt6vectorIxSaIxEE11_S_max_sizeERKS0_,"axG",@progbits,_ZNSt6vectorIxSaIxEE11_S_max_sizeERKS0_,comdat
	.weak	_ZNSt6vectorIxSaIxEE11_S_max_sizeERKS0_
	.type	_ZNSt6vectorIxSaIxEE11_S_max_sizeERKS0_, @function
_ZNSt6vectorIxSaIxEE11_S_max_sizeERKS0_:
.LFB11171:
	.cfi_startproc
	endbr64
	push	rbp
	.cfi_def_cfa_offset 16
	.cfi_offset 6, -16
	mov	rbp, rsp
	.cfi_def_cfa_register 6
	sub	rsp, 48
	mov	QWORD PTR -40[rbp], rdi
	mov	rax, QWORD PTR fs:40
	mov	QWORD PTR -8[rbp], rax
	xor	eax, eax
	movabs	rax, 1152921504606846975
	mov	QWORD PTR -24[rbp], rax
	mov	rax, QWORD PTR -40[rbp]
	mov	rdi, rax
	call	_ZNSt16allocator_traitsISaIxEE8max_sizeERKS0_
	mov	QWORD PTR -16[rbp], rax
	lea	rdx, -16[rbp]
	lea	rax, -24[rbp]
	mov	rsi, rdx
	mov	rdi, rax
	call	_ZSt3minImERKT_S2_S2_
	mov	rax, QWORD PTR [rax]
	mov	rdx, QWORD PTR -8[rbp]
	sub	rdx, QWORD PTR fs:40
	je	.L185
	call	__stack_chk_fail@PLT
.L185:
	leave
	.cfi_def_cfa 7, 8
	ret
	.cfi_endproc
.LFE11171:
	.size	_ZNSt6vectorIxSaIxEE11_S_max_sizeERKS0_, .-_ZNSt6vectorIxSaIxEE11_S_max_sizeERKS0_
	.section	.text._ZNSaIxEC2ERKS_,"axG",@progbits,_ZNSaIxEC5ERKS_,comdat
	.align 2
	.weak	_ZNSaIxEC2ERKS_
	.type	_ZNSaIxEC2ERKS_, @function
_ZNSaIxEC2ERKS_:
.LFB11173:
	.cfi_startproc
	endbr64
	push	rbp
	.cfi_def_cfa_offset 16
	.cfi_offset 6, -16
	mov	rbp, rsp
	.cfi_def_cfa_register 6
	sub	rsp, 16
	mov	QWORD PTR -8[rbp], rdi
	mov	QWORD PTR -16[rbp], rsi
	mov	rdx, QWORD PTR -16[rbp]
	mov	rax, QWORD PTR -8[rbp]
	mov	rsi, rdx
	mov	rdi, rax
	call	_ZN9__gnu_cxx13new_allocatorIxEC2ERKS1_
	nop
	leave
	.cfi_def_cfa 7, 8
	ret
	.cfi_endproc
.LFE11173:
	.size	_ZNSaIxEC2ERKS_, .-_ZNSaIxEC2ERKS_
	.weak	_ZNSaIxEC1ERKS_
	.set	_ZNSaIxEC1ERKS_,_ZNSaIxEC2ERKS_
	.section	.text._ZNSt12_Vector_baseIxSaIxEE12_Vector_implC2ERKS0_,"axG",@progbits,_ZNSt12_Vector_baseIxSaIxEE12_Vector_implC5ERKS0_,comdat
	.align 2
	.weak	_ZNSt12_Vector_baseIxSaIxEE12_Vector_implC2ERKS0_
	.type	_ZNSt12_Vector_baseIxSaIxEE12_Vector_implC2ERKS0_, @function
_ZNSt12_Vector_baseIxSaIxEE12_Vector_implC2ERKS0_:
.LFB11176:
	.cfi_startproc
	endbr64
	push	rbp
	.cfi_def_cfa_offset 16
	.cfi_offset 6, -16
	mov	rbp, rsp
	.cfi_def_cfa_register 6
	sub	rsp, 16
	mov	QWORD PTR -8[rbp], rdi
	mov	QWORD PTR -16[rbp], rsi
	mov	rdx, QWORD PTR -16[rbp]
	mov	rax, QWORD PTR -8[rbp]
	mov	rsi, rdx
	mov	rdi, rax
	call	_ZNSaIxEC2ERKS_
	mov	rax, QWORD PTR -8[rbp]
	mov	rdi, rax
	call	_ZNSt12_Vector_baseIxSaIxEE17_Vector_impl_dataC2Ev
	nop
	leave
	.cfi_def_cfa 7, 8
	ret
	.cfi_endproc
.LFE11176:
	.size	_ZNSt12_Vector_baseIxSaIxEE12_Vector_implC2ERKS0_, .-_ZNSt12_Vector_baseIxSaIxEE12_Vector_implC2ERKS0_
	.weak	_ZNSt12_Vector_baseIxSaIxEE12_Vector_implC1ERKS0_
	.set	_ZNSt12_Vector_baseIxSaIxEE12_Vector_implC1ERKS0_,_ZNSt12_Vector_baseIxSaIxEE12_Vector_implC2ERKS0_
	.section	.text._ZNSt12_Vector_baseIxSaIxEE17_M_create_storageEm,"axG",@progbits,_ZNSt12_Vector_baseIxSaIxEE17_M_create_storageEm,comdat
	.align 2
	.weak	_ZNSt12_Vector_baseIxSaIxEE17_M_create_storageEm
	.type	_ZNSt12_Vector_baseIxSaIxEE17_M_create_storageEm, @function
_ZNSt12_Vector_baseIxSaIxEE17_M_create_storageEm:
.LFB11178:
	.cfi_startproc
	endbr64
	push	rbp
	.cfi_def_cfa_offset 16
	.cfi_offset 6, -16
	mov	rbp, rsp
	.cfi_def_cfa_register 6
	sub	rsp, 16
	mov	QWORD PTR -8[rbp], rdi
	mov	QWORD PTR -16[rbp], rsi
	mov	rdx, QWORD PTR -16[rbp]
	mov	rax, QWORD PTR -8[rbp]
	mov	rsi, rdx
	mov	rdi, rax
	call	_ZNSt12_Vector_baseIxSaIxEE11_M_allocateEm
	mov	rdx, QWORD PTR -8[rbp]
	mov	QWORD PTR [rdx], rax
	mov	rax, QWORD PTR -8[rbp]
	mov	rdx, QWORD PTR [rax]
	mov	rax, QWORD PTR -8[rbp]
	mov	QWORD PTR 8[rax], rdx
	mov	rax, QWORD PTR -8[rbp]
	mov	rdx, QWORD PTR [rax]
	mov	rax, QWORD PTR -16[rbp]
	sal	rax, 3
	add	rdx, rax
	mov	rax, QWORD PTR -8[rbp]
	mov	QWORD PTR 16[rax], rdx
	nop
	leave
	.cfi_def_cfa 7, 8
	ret
	.cfi_endproc
.LFE11178:
	.size	_ZNSt12_Vector_baseIxSaIxEE17_M_create_storageEm, .-_ZNSt12_Vector_baseIxSaIxEE17_M_create_storageEm
	.section	.text._ZNSt12_Vector_baseIxSaIxEE13_M_deallocateEPxm,"axG",@progbits,_ZNSt12_Vector_baseIxSaIxEE13_M_deallocateEPxm,comdat
	.align 2
	.weak	_ZNSt12_Vector_baseIxSaIxEE13_M_deallocateEPxm
	.type	_ZNSt12_Vector_baseIxSaIxEE13_M_deallocateEPxm, @function
_ZNSt12_Vector_baseIxSaIxEE13_M_deallocateEPxm:
.LFB11179:
	.cfi_startproc
	endbr64
	push	rbp
	.cfi_def_cfa_offset 16
	.cfi_offset 6, -16
	mov	rbp, rsp
	.cfi_def_cfa_register 6
	sub	rsp, 32
	mov	QWORD PTR -8[rbp], rdi
	mov	QWORD PTR -16[rbp], rsi
	mov	QWORD PTR -24[rbp], rdx
	cmp	QWORD PTR -16[rbp], 0
	je	.L191
	mov	rax, QWORD PTR -8[rbp]
	mov	rdx, QWORD PTR -24[rbp]
	mov	rcx, QWORD PTR -16[rbp]
	mov	rsi, rcx
	mov	rdi, rax
	call	_ZNSt16allocator_traitsISaIxEE10deallocateERS0_Pxm
.L191:
	nop
	leave
	.cfi_def_cfa 7, 8
	ret
	.cfi_endproc
.LFE11179:
	.size	_ZNSt12_Vector_baseIxSaIxEE13_M_deallocateEPxm, .-_ZNSt12_Vector_baseIxSaIxEE13_M_deallocateEPxm
	.section	.text._ZSt24__uninitialized_fill_n_aIPxmxxET_S1_T0_RKT1_RSaIT2_E,"axG",@progbits,_ZSt24__uninitialized_fill_n_aIPxmxxET_S1_T0_RKT1_RSaIT2_E,comdat
	.weak	_ZSt24__uninitialized_fill_n_aIPxmxxET_S1_T0_RKT1_RSaIT2_E
	.type	_ZSt24__uninitialized_fill_n_aIPxmxxET_S1_T0_RKT1_RSaIT2_E, @function
_ZSt24__uninitialized_fill_n_aIPxmxxET_S1_T0_RKT1_RSaIT2_E:
.LFB11180:
	.cfi_startproc
	endbr64
	push	rbp
	.cfi_def_cfa_offset 16
	.cfi_offset 6, -16
	mov	rbp, rsp
	.cfi_def_cfa_register 6
	sub	rsp, 32
	mov	QWORD PTR -8[rbp], rdi
	mov	QWORD PTR -16[rbp], rsi
	mov	QWORD PTR -24[rbp], rdx
	mov	QWORD PTR -32[rbp], rcx
	mov	rdx, QWORD PTR -24[rbp]
	mov	rcx, QWORD PTR -16[rbp]
	mov	rax, QWORD PTR -8[rbp]
	mov	rsi, rcx
	mov	rdi, rax
	call	_ZSt20uninitialized_fill_nIPxmxET_S1_T0_RKT1_
	leave
	.cfi_def_cfa 7, 8
	ret
	.cfi_endproc
.LFE11180:
	.size	_ZSt24__uninitialized_fill_n_aIPxmxxET_S1_T0_RKT1_RSaIT2_E, .-_ZSt24__uninitialized_fill_n_aIPxmxxET_S1_T0_RKT1_RSaIT2_E
	.section	.text._ZSt8_DestroyIPxEvT_S1_,"axG",@progbits,_ZSt8_DestroyIPxEvT_S1_,comdat
	.weak	_ZSt8_DestroyIPxEvT_S1_
	.type	_ZSt8_DestroyIPxEvT_S1_, @function
_ZSt8_DestroyIPxEvT_S1_:
.LFB11181:
	.cfi_startproc
	endbr64
	push	rbp
	.cfi_def_cfa_offset 16
	.cfi_offset 6, -16
	mov	rbp, rsp
	.cfi_def_cfa_register 6
	sub	rsp, 16
	mov	QWORD PTR -8[rbp], rdi
	mov	QWORD PTR -16[rbp], rsi
	mov	rdx, QWORD PTR -16[rbp]
	mov	rax, QWORD PTR -8[rbp]
	mov	rsi, rdx
	mov	rdi, rax
	call	_ZNSt12_Destroy_auxILb1EE9__destroyIPxEEvT_S3_
	nop
	leave
	.cfi_def_cfa 7, 8
	ret
	.cfi_endproc
.LFE11181:
	.size	_ZSt8_DestroyIPxEvT_S1_, .-_ZSt8_DestroyIPxEvT_S1_
	.section	.text._ZN9__gnu_cxx13new_allocatorISt4pairIxS1_IxxEEEC2Ev,"axG",@progbits,_ZN9__gnu_cxx13new_allocatorISt4pairIxS1_IxxEEEC5Ev,comdat
	.align 2
	.weak	_ZN9__gnu_cxx13new_allocatorISt4pairIxS1_IxxEEEC2Ev
	.type	_ZN9__gnu_cxx13new_allocatorISt4pairIxS1_IxxEEEC2Ev, @function
_ZN9__gnu_cxx13new_allocatorISt4pairIxS1_IxxEEEC2Ev:
.LFB11183:
	.cfi_startproc
	endbr64
	push	rbp
	.cfi_def_cfa_offset 16
	.cfi_offset 6, -16
	mov	rbp, rsp
	.cfi_def_cfa_register 6
	mov	QWORD PTR -8[rbp], rdi
	nop
	pop	rbp
	.cfi_def_cfa 7, 8
	ret
	.cfi_endproc
.LFE11183:
	.size	_ZN9__gnu_cxx13new_allocatorISt4pairIxS1_IxxEEEC2Ev, .-_ZN9__gnu_cxx13new_allocatorISt4pairIxS1_IxxEEEC2Ev
	.weak	_ZN9__gnu_cxx13new_allocatorISt4pairIxS1_IxxEEEC1Ev
	.set	_ZN9__gnu_cxx13new_allocatorISt4pairIxS1_IxxEEEC1Ev,_ZN9__gnu_cxx13new_allocatorISt4pairIxS1_IxxEEEC2Ev
	.section	.text._ZNSt16allocator_traitsISaISt4pairIxS0_IxxEEEE10deallocateERS3_PS2_m,"axG",@progbits,_ZNSt16allocator_traitsISaISt4pairIxS0_IxxEEEE10deallocateERS3_PS2_m,comdat
	.weak	_ZNSt16allocator_traitsISaISt4pairIxS0_IxxEEEE10deallocateERS3_PS2_m
	.type	_ZNSt16allocator_traitsISaISt4pairIxS0_IxxEEEE10deallocateERS3_PS2_m, @function
_ZNSt16allocator_traitsISaISt4pairIxS0_IxxEEEE10deallocateERS3_PS2_m:
.LFB11185:
	.cfi_startproc
	endbr64
	push	rbp
	.cfi_def_cfa_offset 16
	.cfi_offset 6, -16
	mov	rbp, rsp
	.cfi_def_cfa_register 6
	sub	rsp, 32
	mov	QWORD PTR -8[rbp], rdi
	mov	QWORD PTR -16[rbp], rsi
	mov	QWORD PTR -24[rbp], rdx
	mov	rdx, QWORD PTR -24[rbp]
	mov	rcx, QWORD PTR -16[rbp]
	mov	rax, QWORD PTR -8[rbp]
	mov	rsi, rcx
	mov	rdi, rax
	call	_ZN9__gnu_cxx13new_allocatorISt4pairIxS1_IxxEEE10deallocateEPS3_m
	nop
	leave
	.cfi_def_cfa 7, 8
	ret
	.cfi_endproc
.LFE11185:
	.size	_ZNSt16allocator_traitsISaISt4pairIxS0_IxxEEEE10deallocateERS3_PS2_m, .-_ZNSt16allocator_traitsISaISt4pairIxS0_IxxEEEE10deallocateERS3_PS2_m
	.section	.text._ZSt8_DestroyIPSt4pairIxS0_IxxEEEvT_S4_,"axG",@progbits,_ZSt8_DestroyIPSt4pairIxS0_IxxEEEvT_S4_,comdat
	.weak	_ZSt8_DestroyIPSt4pairIxS0_IxxEEEvT_S4_
	.type	_ZSt8_DestroyIPSt4pairIxS0_IxxEEEvT_S4_, @function
_ZSt8_DestroyIPSt4pairIxS0_IxxEEEvT_S4_:
.LFB11186:
	.cfi_startproc
	endbr64
	push	rbp
	.cfi_def_cfa_offset 16
	.cfi_offset 6, -16
	mov	rbp, rsp
	.cfi_def_cfa_register 6
	sub	rsp, 16
	mov	QWORD PTR -8[rbp], rdi
	mov	QWORD PTR -16[rbp], rsi
	mov	rdx, QWORD PTR -16[rbp]
	mov	rax, QWORD PTR -8[rbp]
	mov	rsi, rdx
	mov	rdi, rax
	call	_ZNSt12_Destroy_auxILb1EE9__destroyIPSt4pairIxS2_IxxEEEEvT_S6_
	nop
	leave
	.cfi_def_cfa 7, 8
	ret
	.cfi_endproc
.LFE11186:
	.size	_ZSt8_DestroyIPSt4pairIxS0_IxxEEEvT_S4_, .-_ZSt8_DestroyIPSt4pairIxS0_IxxEEEvT_S4_
	.section	.text._ZSt7forwardISt4pairIxS0_IxxEEEOT_RNSt16remove_referenceIS3_E4typeE,"axG",@progbits,_ZSt7forwardISt4pairIxS0_IxxEEEOT_RNSt16remove_referenceIS3_E4typeE,comdat
	.weak	_ZSt7forwardISt4pairIxS0_IxxEEEOT_RNSt16remove_referenceIS3_E4typeE
	.type	_ZSt7forwardISt4pairIxS0_IxxEEEOT_RNSt16remove_referenceIS3_E4typeE, @function
_ZSt7forwardISt4pairIxS0_IxxEEEOT_RNSt16remove_referenceIS3_E4typeE:
.LFB11187:
	.cfi_startproc
	endbr64
	push	rbp
	.cfi_def_cfa_offset 16
	.cfi_offset 6, -16
	mov	rbp, rsp
	.cfi_def_cfa_register 6
	mov	QWORD PTR -8[rbp], rdi
	mov	rax, QWORD PTR -8[rbp]
	pop	rbp
	.cfi_def_cfa 7, 8
	ret
	.cfi_endproc
.LFE11187:
	.size	_ZSt7forwardISt4pairIxS0_IxxEEEOT_RNSt16remove_referenceIS3_E4typeE, .-_ZSt7forwardISt4pairIxS0_IxxEEEOT_RNSt16remove_referenceIS3_E4typeE
	.section	.text._ZNSt16allocator_traitsISaISt4pairIxS0_IxxEEEE9constructIS2_JS2_EEEvRS3_PT_DpOT0_,"axG",@progbits,_ZNSt16allocator_traitsISaISt4pairIxS0_IxxEEEE9constructIS2_JS2_EEEvRS3_PT_DpOT0_,comdat
	.weak	_ZNSt16allocator_traitsISaISt4pairIxS0_IxxEEEE9constructIS2_JS2_EEEvRS3_PT_DpOT0_
	.type	_ZNSt16allocator_traitsISaISt4pairIxS0_IxxEEEE9constructIS2_JS2_EEEvRS3_PT_DpOT0_, @function
_ZNSt16allocator_traitsISaISt4pairIxS0_IxxEEEE9constructIS2_JS2_EEEvRS3_PT_DpOT0_:
.LFB11188:
	.cfi_startproc
	endbr64
	push	rbp
	.cfi_def_cfa_offset 16
	.cfi_offset 6, -16
	mov	rbp, rsp
	.cfi_def_cfa_register 6
	sub	rsp, 32
	mov	QWORD PTR -8[rbp], rdi
	mov	QWORD PTR -16[rbp], rsi
	mov	QWORD PTR -24[rbp], rdx
	mov	rax, QWORD PTR -24[rbp]
	mov	rdi, rax
	call	_ZSt7forwardISt4pairIxS0_IxxEEEOT_RNSt16remove_referenceIS3_E4typeE
	mov	rdx, rax
	mov	rcx, QWORD PTR -16[rbp]
	mov	rax, QWORD PTR -8[rbp]
	mov	rsi, rcx
	mov	rdi, rax
	call	_ZN9__gnu_cxx13new_allocatorISt4pairIxS1_IxxEEE9constructIS3_JS3_EEEvPT_DpOT0_
	nop
	leave
	.cfi_def_cfa 7, 8
	ret
	.cfi_endproc
.LFE11188:
	.size	_ZNSt16allocator_traitsISaISt4pairIxS0_IxxEEEE9constructIS2_JS2_EEEvRS3_PT_DpOT0_, .-_ZNSt16allocator_traitsISaISt4pairIxS0_IxxEEEE9constructIS2_JS2_EEEvRS3_PT_DpOT0_
	.section	.rodata
.LC2:
	.string	"vector::_M_realloc_insert"
	.section	.text._ZNSt6vectorISt4pairIxS0_IxxEESaIS2_EE17_M_realloc_insertIJS2_EEEvN9__gnu_cxx17__normal_iteratorIPS2_S4_EEDpOT_,"axG",@progbits,_ZNSt6vectorISt4pairIxS0_IxxEESaIS2_EE17_M_realloc_insertIJS2_EEEvN9__gnu_cxx17__normal_iteratorIPS2_S4_EEDpOT_,comdat
	.align 2
	.weak	_ZNSt6vectorISt4pairIxS0_IxxEESaIS2_EE17_M_realloc_insertIJS2_EEEvN9__gnu_cxx17__normal_iteratorIPS2_S4_EEDpOT_
	.type	_ZNSt6vectorISt4pairIxS0_IxxEESaIS2_EE17_M_realloc_insertIJS2_EEEvN9__gnu_cxx17__normal_iteratorIPS2_S4_EEDpOT_, @function
_ZNSt6vectorISt4pairIxS0_IxxEESaIS2_EE17_M_realloc_insertIJS2_EEEvN9__gnu_cxx17__normal_iteratorIPS2_S4_EEDpOT_:
.LFB11189:
	.cfi_startproc
	endbr64
	push	rbp
	.cfi_def_cfa_offset 16
	.cfi_offset 6, -16
	mov	rbp, rsp
	.cfi_def_cfa_register 6
	push	rbx
	sub	rsp, 104
	.cfi_offset 3, -24
	mov	QWORD PTR -88[rbp], rdi
	mov	QWORD PTR -96[rbp], rsi
	mov	QWORD PTR -104[rbp], rdx
	mov	rax, QWORD PTR fs:40
	mov	QWORD PTR -24[rbp], rax
	xor	eax, eax
	mov	rax, QWORD PTR -88[rbp]
	lea	rdx, .LC2[rip]
	mov	esi, 1
	mov	rdi, rax
	call	_ZNKSt6vectorISt4pairIxS0_IxxEESaIS2_EE12_M_check_lenEmPKc
	mov	QWORD PTR -72[rbp], rax
	mov	rax, QWORD PTR -88[rbp]
	mov	rax, QWORD PTR [rax]
	mov	QWORD PTR -64[rbp], rax
	mov	rax, QWORD PTR -88[rbp]
	mov	rax, QWORD PTR 8[rax]
	mov	QWORD PTR -56[rbp], rax
	mov	rax, QWORD PTR -88[rbp]
	mov	rdi, rax
	call	_ZNSt6vectorISt4pairIxS0_IxxEESaIS2_EE5beginEv
	mov	QWORD PTR -80[rbp], rax
	lea	rdx, -80[rbp]
	lea	rax, -96[rbp]
	mov	rsi, rdx
	mov	rdi, rax
	call	_ZN9__gnu_cxxmiIPSt4pairIxS1_IxxEESt6vectorIS3_SaIS3_EEEENS_17__normal_iteratorIT_T0_E15difference_typeERKSB_SE_
	mov	QWORD PTR -48[rbp], rax
	mov	rax, QWORD PTR -88[rbp]
	mov	rdx, QWORD PTR -72[rbp]
	mov	rsi, rdx
	mov	rdi, rax
	call	_ZNSt12_Vector_baseISt4pairIxS0_IxxEESaIS2_EE11_M_allocateEm
	mov	QWORD PTR -40[rbp], rax
	mov	rax, QWORD PTR -40[rbp]
	mov	QWORD PTR -32[rbp], rax
	mov	rax, QWORD PTR -104[rbp]
	mov	rdi, rax
	call	_ZSt7forwardISt4pairIxS0_IxxEEEOT_RNSt16remove_referenceIS3_E4typeE
	mov	rsi, rax
	mov	rdx, QWORD PTR -48[rbp]
	mov	rax, rdx
	add	rax, rax
	add	rax, rdx
	sal	rax, 3
	mov	rdx, rax
	mov	rax, QWORD PTR -40[rbp]
	lea	rcx, [rdx+rax]
	mov	rax, QWORD PTR -88[rbp]
	mov	rdx, rsi
	mov	rsi, rcx
	mov	rdi, rax
	call	_ZNSt16allocator_traitsISaISt4pairIxS0_IxxEEEE9constructIS2_JS2_EEEvRS3_PT_DpOT0_
	mov	QWORD PTR -32[rbp], 0
	mov	rax, QWORD PTR -88[rbp]
	mov	rdi, rax
	call	_ZNSt12_Vector_baseISt4pairIxS0_IxxEESaIS2_EE19_M_get_Tp_allocatorEv
	mov	rbx, rax
	lea	rax, -96[rbp]
	mov	rdi, rax
	call	_ZNK9__gnu_cxx17__normal_iteratorIPSt4pairIxS1_IxxEESt6vectorIS3_SaIS3_EEE4baseEv
	mov	rsi, QWORD PTR [rax]
	mov	rdx, QWORD PTR -40[rbp]
	mov	rax, QWORD PTR -64[rbp]
	mov	rcx, rbx
	mov	rdi, rax
	call	_ZNSt6vectorISt4pairIxS0_IxxEESaIS2_EE11_S_relocateEPS2_S5_S5_RS3_
	mov	QWORD PTR -32[rbp], rax
	add	QWORD PTR -32[rbp], 24
	mov	rax, QWORD PTR -88[rbp]
	mov	rdi, rax
	call	_ZNSt12_Vector_baseISt4pairIxS0_IxxEESaIS2_EE19_M_get_Tp_allocatorEv
	mov	rbx, rax
	lea	rax, -96[rbp]
	mov	rdi, rax
	call	_ZNK9__gnu_cxx17__normal_iteratorIPSt4pairIxS1_IxxEESt6vectorIS3_SaIS3_EEE4baseEv
	mov	rax, QWORD PTR [rax]
	mov	rdx, QWORD PTR -32[rbp]
	mov	rsi, QWORD PTR -56[rbp]
	mov	rcx, rbx
	mov	rdi, rax
	call	_ZNSt6vectorISt4pairIxS0_IxxEESaIS2_EE11_S_relocateEPS2_S5_S5_RS3_
	mov	QWORD PTR -32[rbp], rax
	mov	rax, QWORD PTR -88[rbp]
	mov	rdx, QWORD PTR -88[rbp]
	mov	rdx, QWORD PTR 16[rdx]
	sub	rdx, QWORD PTR -64[rbp]
	mov	rcx, rdx
	sar	rcx, 3
	movabs	rdx, -6148914691236517205
	imul	rdx, rcx
	mov	rcx, QWORD PTR -64[rbp]
	mov	rsi, rcx
	mov	rdi, rax
	call	_ZNSt12_Vector_baseISt4pairIxS0_IxxEESaIS2_EE13_M_deallocateEPS2_m
	mov	rax, QWORD PTR -88[rbp]
	mov	rdx, QWORD PTR -40[rbp]
	mov	QWORD PTR [rax], rdx
	mov	rax, QWORD PTR -88[rbp]
	mov	rdx, QWORD PTR -32[rbp]
	mov	QWORD PTR 8[rax], rdx
	mov	rdx, QWORD PTR -72[rbp]
	mov	rax, rdx
	add	rax, rax
	add	rax, rdx
	sal	rax, 3
	mov	rdx, rax
	mov	rax, QWORD PTR -40[rbp]
	add	rdx, rax
	mov	rax, QWORD PTR -88[rbp]
	mov	QWORD PTR 16[rax], rdx
	nop
	mov	rax, QWORD PTR -24[rbp]
	sub	rax, QWORD PTR fs:40
	je	.L202
	call	__stack_chk_fail@PLT
.L202:
	mov	rbx, QWORD PTR -8[rbp]
	leave
	.cfi_def_cfa 7, 8
	ret
	.cfi_endproc
.LFE11189:
	.size	_ZNSt6vectorISt4pairIxS0_IxxEESaIS2_EE17_M_realloc_insertIJS2_EEEvN9__gnu_cxx17__normal_iteratorIPS2_S4_EEDpOT_, .-_ZNSt6vectorISt4pairIxS0_IxxEESaIS2_EE17_M_realloc_insertIJS2_EEEvN9__gnu_cxx17__normal_iteratorIPS2_S4_EEDpOT_
	.section	.text._ZNSt6vectorISt4pairIxS0_IxxEESaIS2_EE4backEv,"axG",@progbits,_ZNSt6vectorISt4pairIxS0_IxxEESaIS2_EE4backEv,comdat
	.align 2
	.weak	_ZNSt6vectorISt4pairIxS0_IxxEESaIS2_EE4backEv
	.type	_ZNSt6vectorISt4pairIxS0_IxxEESaIS2_EE4backEv, @function
_ZNSt6vectorISt4pairIxS0_IxxEESaIS2_EE4backEv:
.LFB11193:
	.cfi_startproc
	endbr64
	push	rbp
	.cfi_def_cfa_offset 16
	.cfi_offset 6, -16
	mov	rbp, rsp
	.cfi_def_cfa_register 6
	sub	rsp, 48
	mov	QWORD PTR -40[rbp], rdi
	mov	rax, QWORD PTR fs:40
	mov	QWORD PTR -8[rbp], rax
	xor	eax, eax
	mov	rax, QWORD PTR -40[rbp]
	mov	rdi, rax
	call	_ZNSt6vectorISt4pairIxS0_IxxEESaIS2_EE3endEv
	mov	QWORD PTR -24[rbp], rax
	lea	rax, -24[rbp]
	mov	esi, 1
	mov	rdi, rax
	call	_ZNK9__gnu_cxx17__normal_iteratorIPSt4pairIxS1_IxxEESt6vectorIS3_SaIS3_EEEmiEl
	mov	QWORD PTR -16[rbp], rax
	lea	rax, -16[rbp]
	mov	rdi, rax
	call	_ZNK9__gnu_cxx17__normal_iteratorIPSt4pairIxS1_IxxEESt6vectorIS3_SaIS3_EEEdeEv
	mov	rdx, QWORD PTR -8[rbp]
	sub	rdx, QWORD PTR fs:40
	je	.L205
	call	__stack_chk_fail@PLT
.L205:
	leave
	.cfi_def_cfa 7, 8
	ret
	.cfi_endproc
.LFE11193:
	.size	_ZNSt6vectorISt4pairIxS0_IxxEESaIS2_EE4backEv, .-_ZNSt6vectorISt4pairIxS0_IxxEESaIS2_EE4backEv
	.section	.text._ZN9__gnu_cxx13new_allocatorISt13_Rb_tree_nodeIxEEC2Ev,"axG",@progbits,_ZN9__gnu_cxx13new_allocatorISt13_Rb_tree_nodeIxEEC5Ev,comdat
	.align 2
	.weak	_ZN9__gnu_cxx13new_allocatorISt13_Rb_tree_nodeIxEEC2Ev
	.type	_ZN9__gnu_cxx13new_allocatorISt13_Rb_tree_nodeIxEEC2Ev, @function
_ZN9__gnu_cxx13new_allocatorISt13_Rb_tree_nodeIxEEC2Ev:
.LFB11195:
	.cfi_startproc
	endbr64
	push	rbp
	.cfi_def_cfa_offset 16
	.cfi_offset 6, -16
	mov	rbp, rsp
	.cfi_def_cfa_register 6
	mov	QWORD PTR -8[rbp], rdi
	nop
	pop	rbp
	.cfi_def_cfa 7, 8
	ret
	.cfi_endproc
.LFE11195:
	.size	_ZN9__gnu_cxx13new_allocatorISt13_Rb_tree_nodeIxEEC2Ev, .-_ZN9__gnu_cxx13new_allocatorISt13_Rb_tree_nodeIxEEC2Ev
	.weak	_ZN9__gnu_cxx13new_allocatorISt13_Rb_tree_nodeIxEEC1Ev
	.set	_ZN9__gnu_cxx13new_allocatorISt13_Rb_tree_nodeIxEEC1Ev,_ZN9__gnu_cxx13new_allocatorISt13_Rb_tree_nodeIxEEC2Ev
	.section	.text._ZNSt8_Rb_treeIxxSt9_IdentityIxESt4lessIxESaIxEE8_S_rightEPSt18_Rb_tree_node_base,"axG",@progbits,_ZNSt8_Rb_treeIxxSt9_IdentityIxESt4lessIxESaIxEE8_S_rightEPSt18_Rb_tree_node_base,comdat
	.weak	_ZNSt8_Rb_treeIxxSt9_IdentityIxESt4lessIxESaIxEE8_S_rightEPSt18_Rb_tree_node_base
	.type	_ZNSt8_Rb_treeIxxSt9_IdentityIxESt4lessIxESaIxEE8_S_rightEPSt18_Rb_tree_node_base, @function
_ZNSt8_Rb_treeIxxSt9_IdentityIxESt4lessIxESaIxEE8_S_rightEPSt18_Rb_tree_node_base:
.LFB11197:
	.cfi_startproc
	endbr64
	push	rbp
	.cfi_def_cfa_offset 16
	.cfi_offset 6, -16
	mov	rbp, rsp
	.cfi_def_cfa_register 6
	mov	QWORD PTR -8[rbp], rdi
	mov	rax, QWORD PTR -8[rbp]
	mov	rax, QWORD PTR 24[rax]
	pop	rbp
	.cfi_def_cfa 7, 8
	ret
	.cfi_endproc
.LFE11197:
	.size	_ZNSt8_Rb_treeIxxSt9_IdentityIxESt4lessIxESaIxEE8_S_rightEPSt18_Rb_tree_node_base, .-_ZNSt8_Rb_treeIxxSt9_IdentityIxESt4lessIxESaIxEE8_S_rightEPSt18_Rb_tree_node_base
	.section	.text._ZNSt8_Rb_treeIxxSt9_IdentityIxESt4lessIxESaIxEE7_S_leftEPSt18_Rb_tree_node_base,"axG",@progbits,_ZNSt8_Rb_treeIxxSt9_IdentityIxESt4lessIxESaIxEE7_S_leftEPSt18_Rb_tree_node_base,comdat
	.weak	_ZNSt8_Rb_treeIxxSt9_IdentityIxESt4lessIxESaIxEE7_S_leftEPSt18_Rb_tree_node_base
	.type	_ZNSt8_Rb_treeIxxSt9_IdentityIxESt4lessIxESaIxEE7_S_leftEPSt18_Rb_tree_node_base, @function
_ZNSt8_Rb_treeIxxSt9_IdentityIxESt4lessIxESaIxEE7_S_leftEPSt18_Rb_tree_node_base:
.LFB11198:
	.cfi_startproc
	endbr64
	push	rbp
	.cfi_def_cfa_offset 16
	.cfi_offset 6, -16
	mov	rbp, rsp
	.cfi_def_cfa_register 6
	mov	QWORD PTR -8[rbp], rdi
	mov	rax, QWORD PTR -8[rbp]
	mov	rax, QWORD PTR 16[rax]
	pop	rbp
	.cfi_def_cfa 7, 8
	ret
	.cfi_endproc
.LFE11198:
	.size	_ZNSt8_Rb_treeIxxSt9_IdentityIxESt4lessIxESaIxEE7_S_leftEPSt18_Rb_tree_node_base, .-_ZNSt8_Rb_treeIxxSt9_IdentityIxESt4lessIxESaIxEE7_S_leftEPSt18_Rb_tree_node_base
	.section	.text._ZNSt8_Rb_treeIxxSt9_IdentityIxESt4lessIxESaIxEE12_M_drop_nodeEPSt13_Rb_tree_nodeIxE,"axG",@progbits,_ZNSt8_Rb_treeIxxSt9_IdentityIxESt4lessIxESaIxEE12_M_drop_nodeEPSt13_Rb_tree_nodeIxE,comdat
	.align 2
	.weak	_ZNSt8_Rb_treeIxxSt9_IdentityIxESt4lessIxESaIxEE12_M_drop_nodeEPSt13_Rb_tree_nodeIxE
	.type	_ZNSt8_Rb_treeIxxSt9_IdentityIxESt4lessIxESaIxEE12_M_drop_nodeEPSt13_Rb_tree_nodeIxE, @function
_ZNSt8_Rb_treeIxxSt9_IdentityIxESt4lessIxESaIxEE12_M_drop_nodeEPSt13_Rb_tree_nodeIxE:
.LFB11199:
	.cfi_startproc
	endbr64
	push	rbp
	.cfi_def_cfa_offset 16
	.cfi_offset 6, -16
	mov	rbp, rsp
	.cfi_def_cfa_register 6
	sub	rsp, 16
	mov	QWORD PTR -8[rbp], rdi
	mov	QWORD PTR -16[rbp], rsi
	mov	rdx, QWORD PTR -16[rbp]
	mov	rax, QWORD PTR -8[rbp]
	mov	rsi, rdx
	mov	rdi, rax
	call	_ZNSt8_Rb_treeIxxSt9_IdentityIxESt4lessIxESaIxEE15_M_destroy_nodeEPSt13_Rb_tree_nodeIxE
	mov	rdx, QWORD PTR -16[rbp]
	mov	rax, QWORD PTR -8[rbp]
	mov	rsi, rdx
	mov	rdi, rax
	call	_ZNSt8_Rb_treeIxxSt9_IdentityIxESt4lessIxESaIxEE11_M_put_nodeEPSt13_Rb_tree_nodeIxE
	nop
	leave
	.cfi_def_cfa 7, 8
	ret
	.cfi_endproc
.LFE11199:
	.size	_ZNSt8_Rb_treeIxxSt9_IdentityIxESt4lessIxESaIxEE12_M_drop_nodeEPSt13_Rb_tree_nodeIxE, .-_ZNSt8_Rb_treeIxxSt9_IdentityIxESt4lessIxESaIxEE12_M_drop_nodeEPSt13_Rb_tree_nodeIxE
	.section	.text._ZNKSt8_Rb_treeIxxSt9_IdentityIxESt4lessIxESaIxEE9_M_mbeginEv,"axG",@progbits,_ZNKSt8_Rb_treeIxxSt9_IdentityIxESt4lessIxESaIxEE9_M_mbeginEv,comdat
	.align 2
	.weak	_ZNKSt8_Rb_treeIxxSt9_IdentityIxESt4lessIxESaIxEE9_M_mbeginEv
	.type	_ZNKSt8_Rb_treeIxxSt9_IdentityIxESt4lessIxESaIxEE9_M_mbeginEv, @function
_ZNKSt8_Rb_treeIxxSt9_IdentityIxESt4lessIxESaIxEE9_M_mbeginEv:
.LFB11200:
	.cfi_startproc
	endbr64
	push	rbp
	.cfi_def_cfa_offset 16
	.cfi_offset 6, -16
	mov	rbp, rsp
	.cfi_def_cfa_register 6
	mov	QWORD PTR -8[rbp], rdi
	mov	rax, QWORD PTR -8[rbp]
	mov	rax, QWORD PTR 16[rax]
	pop	rbp
	.cfi_def_cfa 7, 8
	ret
	.cfi_endproc
.LFE11200:
	.size	_ZNKSt8_Rb_treeIxxSt9_IdentityIxESt4lessIxESaIxEE9_M_mbeginEv, .-_ZNKSt8_Rb_treeIxxSt9_IdentityIxESt4lessIxESaIxEE9_M_mbeginEv
	.section	.text._ZNSt8_Rb_treeIxxSt9_IdentityIxESt4lessIxESaIxEE24_M_get_insert_unique_posERKx,"axG",@progbits,_ZNSt8_Rb_treeIxxSt9_IdentityIxESt4lessIxESaIxEE24_M_get_insert_unique_posERKx,comdat
	.align 2
	.weak	_ZNSt8_Rb_treeIxxSt9_IdentityIxESt4lessIxESaIxEE24_M_get_insert_unique_posERKx
	.type	_ZNSt8_Rb_treeIxxSt9_IdentityIxESt4lessIxESaIxEE24_M_get_insert_unique_posERKx, @function
_ZNSt8_Rb_treeIxxSt9_IdentityIxESt4lessIxESaIxEE24_M_get_insert_unique_posERKx:
.LFB11201:
	.cfi_startproc
	endbr64
	push	rbp
	.cfi_def_cfa_offset 16
	.cfi_offset 6, -16
	mov	rbp, rsp
	.cfi_def_cfa_register 6
	push	rbx
	sub	rsp, 104
	.cfi_offset 3, -24
	mov	QWORD PTR -104[rbp], rdi
	mov	QWORD PTR -112[rbp], rsi
	mov	rax, QWORD PTR fs:40
	mov	QWORD PTR -24[rbp], rax
	xor	eax, eax
	mov	rax, QWORD PTR -104[rbp]
	mov	rdi, rax
	call	_ZNSt8_Rb_treeIxxSt9_IdentityIxESt4lessIxESaIxEE8_M_beginEv
	mov	QWORD PTR -80[rbp], rax
	mov	rax, QWORD PTR -104[rbp]
	mov	rdi, rax
	call	_ZNSt8_Rb_treeIxxSt9_IdentityIxESt4lessIxESaIxEE6_M_endEv
	mov	QWORD PTR -72[rbp], rax
	mov	BYTE PTR -81[rbp], 1
	jmp	.L215
.L218:
	mov	rax, QWORD PTR -80[rbp]
	mov	QWORD PTR -72[rbp], rax
	mov	rbx, QWORD PTR -104[rbp]
	mov	rax, QWORD PTR -80[rbp]
	mov	rdi, rax
	call	_ZNSt8_Rb_treeIxxSt9_IdentityIxESt4lessIxESaIxEE6_S_keyEPKSt13_Rb_tree_nodeIxE
	mov	rdx, rax
	mov	rax, QWORD PTR -112[rbp]
	mov	rsi, rax
	mov	rdi, rbx
	call	_ZNKSt4lessIxEclERKxS2_
	mov	BYTE PTR -81[rbp], al
	cmp	BYTE PTR -81[rbp], 0
	je	.L216
	mov	rax, QWORD PTR -80[rbp]
	mov	rdi, rax
	call	_ZNSt8_Rb_treeIxxSt9_IdentityIxESt4lessIxESaIxEE7_S_leftEPSt18_Rb_tree_node_base
	jmp	.L217
.L216:
	mov	rax, QWORD PTR -80[rbp]
	mov	rdi, rax
	call	_ZNSt8_Rb_treeIxxSt9_IdentityIxESt4lessIxESaIxEE8_S_rightEPSt18_Rb_tree_node_base
.L217:
	mov	QWORD PTR -80[rbp], rax
.L215:
	mov	rax, QWORD PTR -80[rbp]
	test	rax, rax
	jne	.L218
	mov	rdx, QWORD PTR -72[rbp]
	lea	rax, -64[rbp]
	mov	rsi, rdx
	mov	rdi, rax
	call	_ZNSt17_Rb_tree_iteratorIxEC1EPSt18_Rb_tree_node_base
	cmp	BYTE PTR -81[rbp], 0
	je	.L219
	mov	rax, QWORD PTR -104[rbp]
	mov	rdi, rax
	call	_ZNSt8_Rb_treeIxxSt9_IdentityIxESt4lessIxESaIxEE5beginEv
	mov	QWORD PTR -48[rbp], rax
	lea	rdx, -48[rbp]
	lea	rax, -64[rbp]
	mov	rsi, rdx
	mov	rdi, rax
	call	_ZSteqRKSt17_Rb_tree_iteratorIxES2_
	test	al, al
	je	.L220
	lea	rdx, -72[rbp]
	lea	rcx, -80[rbp]
	lea	rax, -48[rbp]
	mov	rsi, rcx
	mov	rdi, rax
	call	_ZNSt4pairIPSt18_Rb_tree_node_baseS1_EC1IRPSt13_Rb_tree_nodeIxERS1_Lb1EEEOT_OT0_
	mov	rax, QWORD PTR -48[rbp]
	mov	rdx, QWORD PTR -40[rbp]
	jmp	.L223
.L220:
	lea	rax, -64[rbp]
	mov	rdi, rax
	call	_ZNSt17_Rb_tree_iteratorIxEmmEv
.L219:
	mov	rbx, QWORD PTR -104[rbp]
	mov	rax, QWORD PTR -64[rbp]
	mov	rdi, rax
	call	_ZNSt8_Rb_treeIxxSt9_IdentityIxESt4lessIxESaIxEE6_S_keyEPKSt18_Rb_tree_node_base
	mov	rcx, rax
	mov	rax, QWORD PTR -112[rbp]
	mov	rdx, rax
	mov	rsi, rcx
	mov	rdi, rbx
	call	_ZNKSt4lessIxEclERKxS2_
	test	al, al
	je	.L222
	lea	rdx, -72[rbp]
	lea	rcx, -80[rbp]
	lea	rax, -48[rbp]
	mov	rsi, rcx
	mov	rdi, rax
	call	_ZNSt4pairIPSt18_Rb_tree_node_baseS1_EC1IRPSt13_Rb_tree_nodeIxERS1_Lb1EEEOT_OT0_
	mov	rax, QWORD PTR -48[rbp]
	mov	rdx, QWORD PTR -40[rbp]
	jmp	.L223
.L222:
	mov	QWORD PTR -56[rbp], 0
	lea	rdx, -56[rbp]
	lea	rcx, -64[rbp]
	lea	rax, -48[rbp]
	mov	rsi, rcx
	mov	rdi, rax
	call	_ZNSt4pairIPSt18_Rb_tree_node_baseS1_EC1IRS1_Lb1EEEOT_RKS1_
	mov	rax, QWORD PTR -48[rbp]
	mov	rdx, QWORD PTR -40[rbp]
.L223:
	mov	rcx, QWORD PTR -24[rbp]
	sub	rcx, QWORD PTR fs:40
	je	.L224
	call	__stack_chk_fail@PLT
.L224:
	mov	rbx, QWORD PTR -8[rbp]
	leave
	.cfi_def_cfa 7, 8
	ret
	.cfi_endproc
.LFE11201:
	.size	_ZNSt8_Rb_treeIxxSt9_IdentityIxESt4lessIxESaIxEE24_M_get_insert_unique_posERKx, .-_ZNSt8_Rb_treeIxxSt9_IdentityIxESt4lessIxESaIxEE24_M_get_insert_unique_posERKx
	.section	.text._ZNKSt9_IdentityIxEclERx,"axG",@progbits,_ZNKSt9_IdentityIxEclERx,comdat
	.align 2
	.weak	_ZNKSt9_IdentityIxEclERx
	.type	_ZNKSt9_IdentityIxEclERx, @function
_ZNKSt9_IdentityIxEclERx:
.LFB11216:
	.cfi_startproc
	endbr64
	push	rbp
	.cfi_def_cfa_offset 16
	.cfi_offset 6, -16
	mov	rbp, rsp
	.cfi_def_cfa_register 6
	mov	QWORD PTR -8[rbp], rdi
	mov	QWORD PTR -16[rbp], rsi
	mov	rax, QWORD PTR -16[rbp]
	pop	rbp
	.cfi_def_cfa 7, 8
	ret
	.cfi_endproc
.LFE11216:
	.size	_ZNKSt9_IdentityIxEclERx, .-_ZNKSt9_IdentityIxEclERx
	.section	.text._ZNSt8_Rb_treeIxxSt9_IdentityIxESt4lessIxESaIxEE11_Alloc_nodeC2ERS5_,"axG",@progbits,_ZNSt8_Rb_treeIxxSt9_IdentityIxESt4lessIxESaIxEE11_Alloc_nodeC5ERS5_,comdat
	.align 2
	.weak	_ZNSt8_Rb_treeIxxSt9_IdentityIxESt4lessIxESaIxEE11_Alloc_nodeC2ERS5_
	.type	_ZNSt8_Rb_treeIxxSt9_IdentityIxESt4lessIxESaIxEE11_Alloc_nodeC2ERS5_, @function
_ZNSt8_Rb_treeIxxSt9_IdentityIxESt4lessIxESaIxEE11_Alloc_nodeC2ERS5_:
.LFB11218:
	.cfi_startproc
	endbr64
	push	rbp
	.cfi_def_cfa_offset 16
	.cfi_offset 6, -16
	mov	rbp, rsp
	.cfi_def_cfa_register 6
	mov	QWORD PTR -8[rbp], rdi
	mov	QWORD PTR -16[rbp], rsi
	mov	rax, QWORD PTR -8[rbp]
	mov	rdx, QWORD PTR -16[rbp]
	mov	QWORD PTR [rax], rdx
	nop
	pop	rbp
	.cfi_def_cfa 7, 8
	ret
	.cfi_endproc
.LFE11218:
	.size	_ZNSt8_Rb_treeIxxSt9_IdentityIxESt4lessIxESaIxEE11_Alloc_nodeC2ERS5_, .-_ZNSt8_Rb_treeIxxSt9_IdentityIxESt4lessIxESaIxEE11_Alloc_nodeC2ERS5_
	.weak	_ZNSt8_Rb_treeIxxSt9_IdentityIxESt4lessIxESaIxEE11_Alloc_nodeC1ERS5_
	.set	_ZNSt8_Rb_treeIxxSt9_IdentityIxESt4lessIxESaIxEE11_Alloc_nodeC1ERS5_,_ZNSt8_Rb_treeIxxSt9_IdentityIxESt4lessIxESaIxEE11_Alloc_nodeC2ERS5_
	.section	.text._ZNSt8_Rb_treeIxxSt9_IdentityIxESt4lessIxESaIxEE10_M_insert_IxNS5_11_Alloc_nodeEEESt17_Rb_tree_iteratorIxEPSt18_Rb_tree_node_baseSB_OT_RT0_,"axG",@progbits,_ZNSt8_Rb_treeIxxSt9_IdentityIxESt4lessIxESaIxEE10_M_insert_IxNS5_11_Alloc_nodeEEESt17_Rb_tree_iteratorIxEPSt18_Rb_tree_node_baseSB_OT_RT0_,comdat
	.align 2
	.weak	_ZNSt8_Rb_treeIxxSt9_IdentityIxESt4lessIxESaIxEE10_M_insert_IxNS5_11_Alloc_nodeEEESt17_Rb_tree_iteratorIxEPSt18_Rb_tree_node_baseSB_OT_RT0_
	.type	_ZNSt8_Rb_treeIxxSt9_IdentityIxESt4lessIxESaIxEE10_M_insert_IxNS5_11_Alloc_nodeEEESt17_Rb_tree_iteratorIxEPSt18_Rb_tree_node_baseSB_OT_RT0_, @function
_ZNSt8_Rb_treeIxxSt9_IdentityIxESt4lessIxESaIxEE10_M_insert_IxNS5_11_Alloc_nodeEEESt17_Rb_tree_iteratorIxEPSt18_Rb_tree_node_baseSB_OT_RT0_:
.LFB11220:
	.cfi_startproc
	endbr64
	push	rbp
	.cfi_def_cfa_offset 16
	.cfi_offset 6, -16
	mov	rbp, rsp
	.cfi_def_cfa_register 6
	push	r12
	push	rbx
	sub	rsp, 80
	.cfi_offset 12, -24
	.cfi_offset 3, -32
	mov	QWORD PTR -56[rbp], rdi
	mov	QWORD PTR -64[rbp], rsi
	mov	QWORD PTR -72[rbp], rdx
	mov	QWORD PTR -80[rbp], rcx
	mov	QWORD PTR -88[rbp], r8
	mov	rax, QWORD PTR fs:40
	mov	QWORD PTR -24[rbp], rax
	xor	eax, eax
	cmp	QWORD PTR -64[rbp], 0
	jne	.L229
	mov	rax, QWORD PTR -56[rbp]
	mov	rdi, rax
	call	_ZNSt8_Rb_treeIxxSt9_IdentityIxESt4lessIxESaIxEE6_M_endEv
	cmp	QWORD PTR -72[rbp], rax
	je	.L229
	mov	rbx, QWORD PTR -56[rbp]
	mov	rax, QWORD PTR -72[rbp]
	mov	rdi, rax
	call	_ZNSt8_Rb_treeIxxSt9_IdentityIxESt4lessIxESaIxEE6_S_keyEPKSt18_Rb_tree_node_base
	mov	r12, rax
	mov	rdx, QWORD PTR -80[rbp]
	lea	rax, -40[rbp]
	mov	rsi, rdx
	mov	rdi, rax
	call	_ZNKSt9_IdentityIxEclERx
	mov	rdx, r12
	mov	rsi, rax
	mov	rdi, rbx
	call	_ZNKSt4lessIxEclERKxS2_
	test	al, al
	je	.L230
.L229:
	mov	eax, 1
	jmp	.L231
.L230:
	mov	eax, 0
.L231:
	mov	BYTE PTR -41[rbp], al
	mov	rax, QWORD PTR -80[rbp]
	mov	rdi, rax
	call	_ZSt7forwardIxEOT_RNSt16remove_referenceIS0_E4typeE
	mov	rdx, rax
	mov	rax, QWORD PTR -88[rbp]
	mov	rsi, rdx
	mov	rdi, rax
	call	_ZNKSt8_Rb_treeIxxSt9_IdentityIxESt4lessIxESaIxEE11_Alloc_nodeclIxEEPSt13_Rb_tree_nodeIxEOT_
	mov	QWORD PTR -32[rbp], rax
	mov	rax, QWORD PTR -56[rbp]
	lea	rcx, 8[rax]
	movzx	eax, BYTE PTR -41[rbp]
	mov	rdx, QWORD PTR -72[rbp]
	mov	rsi, QWORD PTR -32[rbp]
	mov	edi, eax
	call	_ZSt29_Rb_tree_insert_and_rebalancebPSt18_Rb_tree_node_baseS0_RS_@PLT
	mov	rax, QWORD PTR -56[rbp]
	mov	rax, QWORD PTR 40[rax]
	lea	rdx, 1[rax]
	mov	rax, QWORD PTR -56[rbp]
	mov	QWORD PTR 40[rax], rdx
	mov	rdx, QWORD PTR -32[rbp]
	lea	rax, -40[rbp]
	mov	rsi, rdx
	mov	rdi, rax
	call	_ZNSt17_Rb_tree_iteratorIxEC1EPSt18_Rb_tree_node_base
	mov	rax, QWORD PTR -40[rbp]
	mov	rdx, QWORD PTR -24[rbp]
	sub	rdx, QWORD PTR fs:40
	je	.L233
	call	__stack_chk_fail@PLT
.L233:
	add	rsp, 80
	pop	rbx
	pop	r12
	pop	rbp
	.cfi_def_cfa 7, 8
	ret
	.cfi_endproc
.LFE11220:
	.size	_ZNSt8_Rb_treeIxxSt9_IdentityIxESt4lessIxESaIxEE10_M_insert_IxNS5_11_Alloc_nodeEEESt17_Rb_tree_iteratorIxEPSt18_Rb_tree_node_baseSB_OT_RT0_, .-_ZNSt8_Rb_treeIxxSt9_IdentityIxESt4lessIxESaIxEE10_M_insert_IxNS5_11_Alloc_nodeEEESt17_Rb_tree_iteratorIxEPSt18_Rb_tree_node_baseSB_OT_RT0_
	.section	.text._ZNSt4pairISt17_Rb_tree_iteratorIxEbEC2IS1_bLb1EEEOT_OT0_,"axG",@progbits,_ZNSt4pairISt17_Rb_tree_iteratorIxEbEC5IS1_bLb1EEEOT_OT0_,comdat
	.align 2
	.weak	_ZNSt4pairISt17_Rb_tree_iteratorIxEbEC2IS1_bLb1EEEOT_OT0_
	.type	_ZNSt4pairISt17_Rb_tree_iteratorIxEbEC2IS1_bLb1EEEOT_OT0_, @function
_ZNSt4pairISt17_Rb_tree_iteratorIxEbEC2IS1_bLb1EEEOT_OT0_:
.LFB11222:
	.cfi_startproc
	endbr64
	push	rbp
	.cfi_def_cfa_offset 16
	.cfi_offset 6, -16
	mov	rbp, rsp
	.cfi_def_cfa_register 6
	sub	rsp, 32
	mov	QWORD PTR -8[rbp], rdi
	mov	QWORD PTR -16[rbp], rsi
	mov	QWORD PTR -24[rbp], rdx
	mov	rax, QWORD PTR -16[rbp]
	mov	rdi, rax
	call	_ZSt7forwardISt17_Rb_tree_iteratorIxEEOT_RNSt16remove_referenceIS2_E4typeE
	mov	rdx, QWORD PTR -8[rbp]
	mov	rax, QWORD PTR [rax]
	mov	QWORD PTR [rdx], rax
	mov	rax, QWORD PTR -24[rbp]
	mov	rdi, rax
	call	_ZSt7forwardIbEOT_RNSt16remove_referenceIS0_E4typeE
	movzx	edx, BYTE PTR [rax]
	mov	rax, QWORD PTR -8[rbp]
	mov	BYTE PTR 8[rax], dl
	nop
	leave
	.cfi_def_cfa 7, 8
	ret
	.cfi_endproc
.LFE11222:
	.size	_ZNSt4pairISt17_Rb_tree_iteratorIxEbEC2IS1_bLb1EEEOT_OT0_, .-_ZNSt4pairISt17_Rb_tree_iteratorIxEbEC2IS1_bLb1EEEOT_OT0_
	.weak	_ZNSt4pairISt17_Rb_tree_iteratorIxEbEC1IS1_bLb1EEEOT_OT0_
	.set	_ZNSt4pairISt17_Rb_tree_iteratorIxEbEC1IS1_bLb1EEEOT_OT0_,_ZNSt4pairISt17_Rb_tree_iteratorIxEbEC2IS1_bLb1EEEOT_OT0_
	.section	.text._ZNSt17_Rb_tree_iteratorIxEC2EPSt18_Rb_tree_node_base,"axG",@progbits,_ZNSt17_Rb_tree_iteratorIxEC5EPSt18_Rb_tree_node_base,comdat
	.align 2
	.weak	_ZNSt17_Rb_tree_iteratorIxEC2EPSt18_Rb_tree_node_base
	.type	_ZNSt17_Rb_tree_iteratorIxEC2EPSt18_Rb_tree_node_base, @function
_ZNSt17_Rb_tree_iteratorIxEC2EPSt18_Rb_tree_node_base:
.LFB11225:
	.cfi_startproc
	endbr64
	push	rbp
	.cfi_def_cfa_offset 16
	.cfi_offset 6, -16
	mov	rbp, rsp
	.cfi_def_cfa_register 6
	mov	QWORD PTR -8[rbp], rdi
	mov	QWORD PTR -16[rbp], rsi
	mov	rax, QWORD PTR -8[rbp]
	mov	rdx, QWORD PTR -16[rbp]
	mov	QWORD PTR [rax], rdx
	nop
	pop	rbp
	.cfi_def_cfa 7, 8
	ret
	.cfi_endproc
.LFE11225:
	.size	_ZNSt17_Rb_tree_iteratorIxEC2EPSt18_Rb_tree_node_base, .-_ZNSt17_Rb_tree_iteratorIxEC2EPSt18_Rb_tree_node_base
	.weak	_ZNSt17_Rb_tree_iteratorIxEC1EPSt18_Rb_tree_node_base
	.set	_ZNSt17_Rb_tree_iteratorIxEC1EPSt18_Rb_tree_node_base,_ZNSt17_Rb_tree_iteratorIxEC2EPSt18_Rb_tree_node_base
	.section	.text._ZSt7forwardIRSt17_Rb_tree_iteratorIxEEOT_RNSt16remove_referenceIS3_E4typeE,"axG",@progbits,_ZSt7forwardIRSt17_Rb_tree_iteratorIxEEOT_RNSt16remove_referenceIS3_E4typeE,comdat
	.weak	_ZSt7forwardIRSt17_Rb_tree_iteratorIxEEOT_RNSt16remove_referenceIS3_E4typeE
	.type	_ZSt7forwardIRSt17_Rb_tree_iteratorIxEEOT_RNSt16remove_referenceIS3_E4typeE, @function
_ZSt7forwardIRSt17_Rb_tree_iteratorIxEEOT_RNSt16remove_referenceIS3_E4typeE:
.LFB11227:
	.cfi_startproc
	endbr64
	push	rbp
	.cfi_def_cfa_offset 16
	.cfi_offset 6, -16
	mov	rbp, rsp
	.cfi_def_cfa_register 6
	mov	QWORD PTR -8[rbp], rdi
	mov	rax, QWORD PTR -8[rbp]
	pop	rbp
	.cfi_def_cfa 7, 8
	ret
	.cfi_endproc
.LFE11227:
	.size	_ZSt7forwardIRSt17_Rb_tree_iteratorIxEEOT_RNSt16remove_referenceIS3_E4typeE, .-_ZSt7forwardIRSt17_Rb_tree_iteratorIxEEOT_RNSt16remove_referenceIS3_E4typeE
	.section	.text._ZSt7forwardIRbEOT_RNSt16remove_referenceIS1_E4typeE,"axG",@progbits,_ZSt7forwardIRbEOT_RNSt16remove_referenceIS1_E4typeE,comdat
	.weak	_ZSt7forwardIRbEOT_RNSt16remove_referenceIS1_E4typeE
	.type	_ZSt7forwardIRbEOT_RNSt16remove_referenceIS1_E4typeE, @function
_ZSt7forwardIRbEOT_RNSt16remove_referenceIS1_E4typeE:
.LFB11228:
	.cfi_startproc
	endbr64
	push	rbp
	.cfi_def_cfa_offset 16
	.cfi_offset 6, -16
	mov	rbp, rsp
	.cfi_def_cfa_register 6
	mov	QWORD PTR -8[rbp], rdi
	mov	rax, QWORD PTR -8[rbp]
	pop	rbp
	.cfi_def_cfa 7, 8
	ret
	.cfi_endproc
.LFE11228:
	.size	_ZSt7forwardIRbEOT_RNSt16remove_referenceIS1_E4typeE, .-_ZSt7forwardIRbEOT_RNSt16remove_referenceIS1_E4typeE
	.section	.text._ZN9__gnu_cxxmiIPSt4pairIxS1_IxxEESt6vectorIS3_SaIS3_EEEENS_17__normal_iteratorIT_T0_E15difference_typeERKSB_SE_,"axG",@progbits,_ZN9__gnu_cxxmiIPSt4pairIxS1_IxxEESt6vectorIS3_SaIS3_EEEENS_17__normal_iteratorIT_T0_E15difference_typeERKSB_SE_,comdat
	.weak	_ZN9__gnu_cxxmiIPSt4pairIxS1_IxxEESt6vectorIS3_SaIS3_EEEENS_17__normal_iteratorIT_T0_E15difference_typeERKSB_SE_
	.type	_ZN9__gnu_cxxmiIPSt4pairIxS1_IxxEESt6vectorIS3_SaIS3_EEEENS_17__normal_iteratorIT_T0_E15difference_typeERKSB_SE_, @function
_ZN9__gnu_cxxmiIPSt4pairIxS1_IxxEESt6vectorIS3_SaIS3_EEEENS_17__normal_iteratorIT_T0_E15difference_typeERKSB_SE_:
.LFB11229:
	.cfi_startproc
	endbr64
	push	rbp
	.cfi_def_cfa_offset 16
	.cfi_offset 6, -16
	mov	rbp, rsp
	.cfi_def_cfa_register 6
	push	rbx
	sub	rsp, 24
	.cfi_offset 3, -24
	mov	QWORD PTR -24[rbp], rdi
	mov	QWORD PTR -32[rbp], rsi
	mov	rax, QWORD PTR -24[rbp]
	mov	rdi, rax
	call	_ZNK9__gnu_cxx17__normal_iteratorIPSt4pairIxS1_IxxEESt6vectorIS3_SaIS3_EEE4baseEv
	mov	rbx, QWORD PTR [rax]
	mov	rax, QWORD PTR -32[rbp]
	mov	rdi, rax
	call	_ZNK9__gnu_cxx17__normal_iteratorIPSt4pairIxS1_IxxEESt6vectorIS3_SaIS3_EEE4baseEv
	mov	rdx, QWORD PTR [rax]
	mov	rax, rbx
	sub	rax, rdx
	sar	rax, 3
	mov	rdx, rax
	movabs	rax, -6148914691236517205
	imul	rax, rdx
	mov	rbx, QWORD PTR -8[rbp]
	leave
	.cfi_def_cfa 7, 8
	ret
	.cfi_endproc
.LFE11229:
	.size	_ZN9__gnu_cxxmiIPSt4pairIxS1_IxxEESt6vectorIS3_SaIS3_EEEENS_17__normal_iteratorIT_T0_E15difference_typeERKSB_SE_, .-_ZN9__gnu_cxxmiIPSt4pairIxS1_IxxEESt6vectorIS3_SaIS3_EEEENS_17__normal_iteratorIT_T0_E15difference_typeERKSB_SE_
	.section	.text._ZSt16__introsort_loopIN9__gnu_cxx17__normal_iteratorIPSt4pairIxS2_IxxEESt6vectorIS4_SaIS4_EEEElNS0_5__ops15_Iter_less_iterEEvT_SC_T0_T1_,"axG",@progbits,_ZSt16__introsort_loopIN9__gnu_cxx17__normal_iteratorIPSt4pairIxS2_IxxEESt6vectorIS4_SaIS4_EEEElNS0_5__ops15_Iter_less_iterEEvT_SC_T0_T1_,comdat
	.weak	_ZSt16__introsort_loopIN9__gnu_cxx17__normal_iteratorIPSt4pairIxS2_IxxEESt6vectorIS4_SaIS4_EEEElNS0_5__ops15_Iter_less_iterEEvT_SC_T0_T1_
	.type	_ZSt16__introsort_loopIN9__gnu_cxx17__normal_iteratorIPSt4pairIxS2_IxxEESt6vectorIS4_SaIS4_EEEElNS0_5__ops15_Iter_less_iterEEvT_SC_T0_T1_, @function
_ZSt16__introsort_loopIN9__gnu_cxx17__normal_iteratorIPSt4pairIxS2_IxxEESt6vectorIS4_SaIS4_EEEElNS0_5__ops15_Iter_less_iterEEvT_SC_T0_T1_:
.LFB11230:
	.cfi_startproc
	endbr64
	push	rbp
	.cfi_def_cfa_offset 16
	.cfi_offset 6, -16
	mov	rbp, rsp
	.cfi_def_cfa_register 6
	sub	rsp, 48
	mov	QWORD PTR -24[rbp], rdi
	mov	QWORD PTR -32[rbp], rsi
	mov	QWORD PTR -40[rbp], rdx
	mov	rax, QWORD PTR fs:40
	mov	QWORD PTR -8[rbp], rax
	xor	eax, eax
	jmp	.L243
.L246:
	cmp	QWORD PTR -40[rbp], 0
	jne	.L244
	mov	rdx, QWORD PTR -32[rbp]
	mov	rcx, QWORD PTR -32[rbp]
	mov	rax, QWORD PTR -24[rbp]
	mov	rsi, rcx
	mov	rdi, rax
	call	_ZSt14__partial_sortIN9__gnu_cxx17__normal_iteratorIPSt4pairIxS2_IxxEESt6vectorIS4_SaIS4_EEEENS0_5__ops15_Iter_less_iterEEvT_SC_SC_T0_
	jmp	.L242
.L244:
	sub	QWORD PTR -40[rbp], 1
	mov	rdx, QWORD PTR -32[rbp]
	mov	rax, QWORD PTR -24[rbp]
	mov	rsi, rdx
	mov	rdi, rax
	call	_ZSt27__unguarded_partition_pivotIN9__gnu_cxx17__normal_iteratorIPSt4pairIxS2_IxxEESt6vectorIS4_SaIS4_EEEENS0_5__ops15_Iter_less_iterEET_SC_SC_T0_
	mov	QWORD PTR -16[rbp], rax
	mov	rdx, QWORD PTR -40[rbp]
	mov	rcx, QWORD PTR -32[rbp]
	mov	rax, QWORD PTR -16[rbp]
	mov	rsi, rcx
	mov	rdi, rax
	call	_ZSt16__introsort_loopIN9__gnu_cxx17__normal_iteratorIPSt4pairIxS2_IxxEESt6vectorIS4_SaIS4_EEEElNS0_5__ops15_Iter_less_iterEEvT_SC_T0_T1_
	mov	rax, QWORD PTR -16[rbp]
	mov	QWORD PTR -32[rbp], rax
.L243:
	lea	rdx, -24[rbp]
	lea	rax, -32[rbp]
	mov	rsi, rdx
	mov	rdi, rax
	call	_ZN9__gnu_cxxmiIPSt4pairIxS1_IxxEESt6vectorIS3_SaIS3_EEEENS_17__normal_iteratorIT_T0_E15difference_typeERKSB_SE_
	cmp	rax, 16
	setg	al
	test	al, al
	jne	.L246
.L242:
	mov	rax, QWORD PTR -8[rbp]
	sub	rax, QWORD PTR fs:40
	je	.L247
	call	__stack_chk_fail@PLT
.L247:
	leave
	.cfi_def_cfa 7, 8
	ret
	.cfi_endproc
.LFE11230:
	.size	_ZSt16__introsort_loopIN9__gnu_cxx17__normal_iteratorIPSt4pairIxS2_IxxEESt6vectorIS4_SaIS4_EEEElNS0_5__ops15_Iter_less_iterEEvT_SC_T0_T1_, .-_ZSt16__introsort_loopIN9__gnu_cxx17__normal_iteratorIPSt4pairIxS2_IxxEESt6vectorIS4_SaIS4_EEEElNS0_5__ops15_Iter_less_iterEEvT_SC_T0_T1_
	.section	.text._ZSt22__final_insertion_sortIN9__gnu_cxx17__normal_iteratorIPSt4pairIxS2_IxxEESt6vectorIS4_SaIS4_EEEENS0_5__ops15_Iter_less_iterEEvT_SC_T0_,"axG",@progbits,_ZSt22__final_insertion_sortIN9__gnu_cxx17__normal_iteratorIPSt4pairIxS2_IxxEESt6vectorIS4_SaIS4_EEEENS0_5__ops15_Iter_less_iterEEvT_SC_T0_,comdat
	.weak	_ZSt22__final_insertion_sortIN9__gnu_cxx17__normal_iteratorIPSt4pairIxS2_IxxEESt6vectorIS4_SaIS4_EEEENS0_5__ops15_Iter_less_iterEEvT_SC_T0_
	.type	_ZSt22__final_insertion_sortIN9__gnu_cxx17__normal_iteratorIPSt4pairIxS2_IxxEESt6vectorIS4_SaIS4_EEEENS0_5__ops15_Iter_less_iterEEvT_SC_T0_, @function
_ZSt22__final_insertion_sortIN9__gnu_cxx17__normal_iteratorIPSt4pairIxS2_IxxEESt6vectorIS4_SaIS4_EEEENS0_5__ops15_Iter_less_iterEEvT_SC_T0_:
.LFB11231:
	.cfi_startproc
	endbr64
	push	rbp
	.cfi_def_cfa_offset 16
	.cfi_offset 6, -16
	mov	rbp, rsp
	.cfi_def_cfa_register 6
	sub	rsp, 32
	mov	QWORD PTR -8[rbp], rdi
	mov	QWORD PTR -16[rbp], rsi
	lea	rdx, -8[rbp]
	lea	rax, -16[rbp]
	mov	rsi, rdx
	mov	rdi, rax
	call	_ZN9__gnu_cxxmiIPSt4pairIxS1_IxxEESt6vectorIS3_SaIS3_EEEENS_17__normal_iteratorIT_T0_E15difference_typeERKSB_SE_
	cmp	rax, 16
	setg	al
	test	al, al
	je	.L249
	lea	rax, -8[rbp]
	mov	esi, 16
	mov	rdi, rax
	call	_ZNK9__gnu_cxx17__normal_iteratorIPSt4pairIxS1_IxxEESt6vectorIS3_SaIS3_EEEplEl
	mov	rdx, rax
	mov	rax, QWORD PTR -8[rbp]
	mov	rsi, rdx
	mov	rdi, rax
	call	_ZSt16__insertion_sortIN9__gnu_cxx17__normal_iteratorIPSt4pairIxS2_IxxEESt6vectorIS4_SaIS4_EEEENS0_5__ops15_Iter_less_iterEEvT_SC_T0_
	lea	rax, -8[rbp]
	mov	esi, 16
	mov	rdi, rax
	call	_ZNK9__gnu_cxx17__normal_iteratorIPSt4pairIxS1_IxxEESt6vectorIS3_SaIS3_EEEplEl
	mov	rdx, rax
	mov	rax, QWORD PTR -16[rbp]
	mov	rsi, rax
	mov	rdi, rdx
	call	_ZSt26__unguarded_insertion_sortIN9__gnu_cxx17__normal_iteratorIPSt4pairIxS2_IxxEESt6vectorIS4_SaIS4_EEEENS0_5__ops15_Iter_less_iterEEvT_SC_T0_
	jmp	.L251
.L249:
	mov	rdx, QWORD PTR -16[rbp]
	mov	rax, QWORD PTR -8[rbp]
	mov	rsi, rdx
	mov	rdi, rax
	call	_ZSt16__insertion_sortIN9__gnu_cxx17__normal_iteratorIPSt4pairIxS2_IxxEESt6vectorIS4_SaIS4_EEEENS0_5__ops15_Iter_less_iterEEvT_SC_T0_
.L251:
	nop
	leave
	.cfi_def_cfa 7, 8
	ret
	.cfi_endproc
.LFE11231:
	.size	_ZSt22__final_insertion_sortIN9__gnu_cxx17__normal_iteratorIPSt4pairIxS2_IxxEESt6vectorIS4_SaIS4_EEEENS0_5__ops15_Iter_less_iterEEvT_SC_T0_, .-_ZSt22__final_insertion_sortIN9__gnu_cxx17__normal_iteratorIPSt4pairIxS2_IxxEESt6vectorIS4_SaIS4_EEEENS0_5__ops15_Iter_less_iterEEvT_SC_T0_
	.section	.text._ZNSt8_Rb_treeIxxSt9_IdentityIxESt4lessIxESaIxEE6_M_endEv,"axG",@progbits,_ZNSt8_Rb_treeIxxSt9_IdentityIxESt4lessIxESaIxEE6_M_endEv,comdat
	.align 2
	.weak	_ZNSt8_Rb_treeIxxSt9_IdentityIxESt4lessIxESaIxEE6_M_endEv
	.type	_ZNSt8_Rb_treeIxxSt9_IdentityIxESt4lessIxESaIxEE6_M_endEv, @function
_ZNSt8_Rb_treeIxxSt9_IdentityIxESt4lessIxESaIxEE6_M_endEv:
.LFB11232:
	.cfi_startproc
	endbr64
	push	rbp
	.cfi_def_cfa_offset 16
	.cfi_offset 6, -16
	mov	rbp, rsp
	.cfi_def_cfa_register 6
	mov	QWORD PTR -8[rbp], rdi
	mov	rax, QWORD PTR -8[rbp]
	add	rax, 8
	pop	rbp
	.cfi_def_cfa 7, 8
	ret
	.cfi_endproc
.LFE11232:
	.size	_ZNSt8_Rb_treeIxxSt9_IdentityIxESt4lessIxESaIxEE6_M_endEv, .-_ZNSt8_Rb_treeIxxSt9_IdentityIxESt4lessIxESaIxEE6_M_endEv
	.section	.text._ZNSt8_Rb_treeIxxSt9_IdentityIxESt4lessIxESaIxEE14_M_upper_boundEPSt13_Rb_tree_nodeIxEPSt18_Rb_tree_node_baseRKx,"axG",@progbits,_ZNSt8_Rb_treeIxxSt9_IdentityIxESt4lessIxESaIxEE14_M_upper_boundEPSt13_Rb_tree_nodeIxEPSt18_Rb_tree_node_baseRKx,comdat
	.align 2
	.weak	_ZNSt8_Rb_treeIxxSt9_IdentityIxESt4lessIxESaIxEE14_M_upper_boundEPSt13_Rb_tree_nodeIxEPSt18_Rb_tree_node_baseRKx
	.type	_ZNSt8_Rb_treeIxxSt9_IdentityIxESt4lessIxESaIxEE14_M_upper_boundEPSt13_Rb_tree_nodeIxEPSt18_Rb_tree_node_baseRKx, @function
_ZNSt8_Rb_treeIxxSt9_IdentityIxESt4lessIxESaIxEE14_M_upper_boundEPSt13_Rb_tree_nodeIxEPSt18_Rb_tree_node_baseRKx:
.LFB11233:
	.cfi_startproc
	endbr64
	push	rbp
	.cfi_def_cfa_offset 16
	.cfi_offset 6, -16
	mov	rbp, rsp
	.cfi_def_cfa_register 6
	push	rbx
	sub	rsp, 56
	.cfi_offset 3, -24
	mov	QWORD PTR -40[rbp], rdi
	mov	QWORD PTR -48[rbp], rsi
	mov	QWORD PTR -56[rbp], rdx
	mov	QWORD PTR -64[rbp], rcx
	mov	rax, QWORD PTR fs:40
	mov	QWORD PTR -24[rbp], rax
	xor	eax, eax
	jmp	.L255
.L257:
	mov	rbx, QWORD PTR -40[rbp]
	mov	rax, QWORD PTR -48[rbp]
	mov	rdi, rax
	call	_ZNSt8_Rb_treeIxxSt9_IdentityIxESt4lessIxESaIxEE6_S_keyEPKSt13_Rb_tree_nodeIxE
	mov	rdx, rax
	mov	rax, QWORD PTR -64[rbp]
	mov	rsi, rax
	mov	rdi, rbx
	call	_ZNKSt4lessIxEclERKxS2_
	test	al, al
	je	.L256
	mov	rax, QWORD PTR -48[rbp]
	mov	QWORD PTR -56[rbp], rax
	mov	rax, QWORD PTR -48[rbp]
	mov	rdi, rax
	call	_ZNSt8_Rb_treeIxxSt9_IdentityIxESt4lessIxESaIxEE7_S_leftEPSt18_Rb_tree_node_base
	mov	QWORD PTR -48[rbp], rax
	jmp	.L255
.L256:
	mov	rax, QWORD PTR -48[rbp]
	mov	rdi, rax
	call	_ZNSt8_Rb_treeIxxSt9_IdentityIxESt4lessIxESaIxEE8_S_rightEPSt18_Rb_tree_node_base
	mov	QWORD PTR -48[rbp], rax
.L255:
	cmp	QWORD PTR -48[rbp], 0
	jne	.L257
	mov	rdx, QWORD PTR -56[rbp]
	lea	rax, -32[rbp]
	mov	rsi, rdx
	mov	rdi, rax
	call	_ZNSt17_Rb_tree_iteratorIxEC1EPSt18_Rb_tree_node_base
	mov	rax, QWORD PTR -32[rbp]
	mov	rdx, QWORD PTR -24[rbp]
	sub	rdx, QWORD PTR fs:40
	je	.L259
	call	__stack_chk_fail@PLT
.L259:
	mov	rbx, QWORD PTR -8[rbp]
	leave
	.cfi_def_cfa 7, 8
	ret
	.cfi_endproc
.LFE11233:
	.size	_ZNSt8_Rb_treeIxxSt9_IdentityIxESt4lessIxESaIxEE14_M_upper_boundEPSt13_Rb_tree_nodeIxEPSt18_Rb_tree_node_baseRKx, .-_ZNSt8_Rb_treeIxxSt9_IdentityIxESt4lessIxESaIxEE14_M_upper_boundEPSt13_Rb_tree_nodeIxEPSt18_Rb_tree_node_baseRKx
	.section	.text._ZNK9__gnu_cxx16__aligned_membufIxE6_M_ptrEv,"axG",@progbits,_ZNK9__gnu_cxx16__aligned_membufIxE6_M_ptrEv,comdat
	.align 2
	.weak	_ZNK9__gnu_cxx16__aligned_membufIxE6_M_ptrEv
	.type	_ZNK9__gnu_cxx16__aligned_membufIxE6_M_ptrEv, @function
_ZNK9__gnu_cxx16__aligned_membufIxE6_M_ptrEv:
.LFB11234:
	.cfi_startproc
	endbr64
	push	rbp
	.cfi_def_cfa_offset 16
	.cfi_offset 6, -16
	mov	rbp, rsp
	.cfi_def_cfa_register 6
	sub	rsp, 16
	mov	QWORD PTR -8[rbp], rdi
	mov	rax, QWORD PTR -8[rbp]
	mov	rdi, rax
	call	_ZNK9__gnu_cxx16__aligned_membufIxE7_M_addrEv
	leave
	.cfi_def_cfa 7, 8
	ret
	.cfi_endproc
.LFE11234:
	.size	_ZNK9__gnu_cxx16__aligned_membufIxE6_M_ptrEv, .-_ZNK9__gnu_cxx16__aligned_membufIxE6_M_ptrEv
	.section	.text._ZNSt8_Rb_treeIxxSt9_IdentityIxESt4lessIxESaIxEE14_M_lower_boundEPSt13_Rb_tree_nodeIxEPSt18_Rb_tree_node_baseRKx,"axG",@progbits,_ZNSt8_Rb_treeIxxSt9_IdentityIxESt4lessIxESaIxEE14_M_lower_boundEPSt13_Rb_tree_nodeIxEPSt18_Rb_tree_node_baseRKx,comdat
	.align 2
	.weak	_ZNSt8_Rb_treeIxxSt9_IdentityIxESt4lessIxESaIxEE14_M_lower_boundEPSt13_Rb_tree_nodeIxEPSt18_Rb_tree_node_baseRKx
	.type	_ZNSt8_Rb_treeIxxSt9_IdentityIxESt4lessIxESaIxEE14_M_lower_boundEPSt13_Rb_tree_nodeIxEPSt18_Rb_tree_node_baseRKx, @function
_ZNSt8_Rb_treeIxxSt9_IdentityIxESt4lessIxESaIxEE14_M_lower_boundEPSt13_Rb_tree_nodeIxEPSt18_Rb_tree_node_baseRKx:
.LFB11235:
	.cfi_startproc
	endbr64
	push	rbp
	.cfi_def_cfa_offset 16
	.cfi_offset 6, -16
	mov	rbp, rsp
	.cfi_def_cfa_register 6
	push	rbx
	sub	rsp, 56
	.cfi_offset 3, -24
	mov	QWORD PTR -40[rbp], rdi
	mov	QWORD PTR -48[rbp], rsi
	mov	QWORD PTR -56[rbp], rdx
	mov	QWORD PTR -64[rbp], rcx
	mov	rax, QWORD PTR fs:40
	mov	QWORD PTR -24[rbp], rax
	xor	eax, eax
	jmp	.L263
.L265:
	mov	rbx, QWORD PTR -40[rbp]
	mov	rax, QWORD PTR -48[rbp]
	mov	rdi, rax
	call	_ZNSt8_Rb_treeIxxSt9_IdentityIxESt4lessIxESaIxEE6_S_keyEPKSt13_Rb_tree_nodeIxE
	mov	rcx, rax
	mov	rax, QWORD PTR -64[rbp]
	mov	rdx, rax
	mov	rsi, rcx
	mov	rdi, rbx
	call	_ZNKSt4lessIxEclERKxS2_
	xor	eax, 1
	test	al, al
	je	.L264
	mov	rax, QWORD PTR -48[rbp]
	mov	QWORD PTR -56[rbp], rax
	mov	rax, QWORD PTR -48[rbp]
	mov	rdi, rax
	call	_ZNSt8_Rb_treeIxxSt9_IdentityIxESt4lessIxESaIxEE7_S_leftEPSt18_Rb_tree_node_base
	mov	QWORD PTR -48[rbp], rax
	jmp	.L263
.L264:
	mov	rax, QWORD PTR -48[rbp]
	mov	rdi, rax
	call	_ZNSt8_Rb_treeIxxSt9_IdentityIxESt4lessIxESaIxEE8_S_rightEPSt18_Rb_tree_node_base
	mov	QWORD PTR -48[rbp], rax
.L263:
	cmp	QWORD PTR -48[rbp], 0
	jne	.L265
	mov	rdx, QWORD PTR -56[rbp]
	lea	rax, -32[rbp]
	mov	rsi, rdx
	mov	rdi, rax
	call	_ZNSt17_Rb_tree_iteratorIxEC1EPSt18_Rb_tree_node_base
	mov	rax, QWORD PTR -32[rbp]
	mov	rdx, QWORD PTR -24[rbp]
	sub	rdx, QWORD PTR fs:40
	je	.L267
	call	__stack_chk_fail@PLT
.L267:
	mov	rbx, QWORD PTR -8[rbp]
	leave
	.cfi_def_cfa 7, 8
	ret
	.cfi_endproc
.LFE11235:
	.size	_ZNSt8_Rb_treeIxxSt9_IdentityIxESt4lessIxESaIxEE14_M_lower_boundEPSt13_Rb_tree_nodeIxEPSt18_Rb_tree_node_baseRKx, .-_ZNSt8_Rb_treeIxxSt9_IdentityIxESt4lessIxESaIxEE14_M_lower_boundEPSt13_Rb_tree_nodeIxEPSt18_Rb_tree_node_baseRKx
	.section	.text._ZNKSt9_IdentityIxEclERKx,"axG",@progbits,_ZNKSt9_IdentityIxEclERKx,comdat
	.align 2
	.weak	_ZNKSt9_IdentityIxEclERKx
	.type	_ZNKSt9_IdentityIxEclERKx, @function
_ZNKSt9_IdentityIxEclERKx:
.LFB11236:
	.cfi_startproc
	endbr64
	push	rbp
	.cfi_def_cfa_offset 16
	.cfi_offset 6, -16
	mov	rbp, rsp
	.cfi_def_cfa_register 6
	mov	QWORD PTR -8[rbp], rdi
	mov	QWORD PTR -16[rbp], rsi
	mov	rax, QWORD PTR -16[rbp]
	pop	rbp
	.cfi_def_cfa 7, 8
	ret
	.cfi_endproc
.LFE11236:
	.size	_ZNKSt9_IdentityIxEclERKx, .-_ZNKSt9_IdentityIxEclERKx
	.section	.text._ZSt7forwardIRKxEOT_RNSt16remove_referenceIS2_E4typeE,"axG",@progbits,_ZSt7forwardIRKxEOT_RNSt16remove_referenceIS2_E4typeE,comdat
	.weak	_ZSt7forwardIRKxEOT_RNSt16remove_referenceIS2_E4typeE
	.type	_ZSt7forwardIRKxEOT_RNSt16remove_referenceIS2_E4typeE, @function
_ZSt7forwardIRKxEOT_RNSt16remove_referenceIS2_E4typeE:
.LFB11237:
	.cfi_startproc
	endbr64
	push	rbp
	.cfi_def_cfa_offset 16
	.cfi_offset 6, -16
	mov	rbp, rsp
	.cfi_def_cfa_register 6
	mov	QWORD PTR -8[rbp], rdi
	mov	rax, QWORD PTR -8[rbp]
	pop	rbp
	.cfi_def_cfa 7, 8
	ret
	.cfi_endproc
.LFE11237:
	.size	_ZSt7forwardIRKxEOT_RNSt16remove_referenceIS2_E4typeE, .-_ZSt7forwardIRKxEOT_RNSt16remove_referenceIS2_E4typeE
	.section	.text._ZNSt8_Rb_treeIxxSt9_IdentityIxESt4lessIxESaIxEE10_M_insert_IRKxNS5_11_Alloc_nodeEEESt17_Rb_tree_iteratorIxEPSt18_Rb_tree_node_baseSD_OT_RT0_,"axG",@progbits,_ZNSt8_Rb_treeIxxSt9_IdentityIxESt4lessIxESaIxEE10_M_insert_IRKxNS5_11_Alloc_nodeEEESt17_Rb_tree_iteratorIxEPSt18_Rb_tree_node_baseSD_OT_RT0_,comdat
	.align 2
	.weak	_ZNSt8_Rb_treeIxxSt9_IdentityIxESt4lessIxESaIxEE10_M_insert_IRKxNS5_11_Alloc_nodeEEESt17_Rb_tree_iteratorIxEPSt18_Rb_tree_node_baseSD_OT_RT0_
	.type	_ZNSt8_Rb_treeIxxSt9_IdentityIxESt4lessIxESaIxEE10_M_insert_IRKxNS5_11_Alloc_nodeEEESt17_Rb_tree_iteratorIxEPSt18_Rb_tree_node_baseSD_OT_RT0_, @function
_ZNSt8_Rb_treeIxxSt9_IdentityIxESt4lessIxESaIxEE10_M_insert_IRKxNS5_11_Alloc_nodeEEESt17_Rb_tree_iteratorIxEPSt18_Rb_tree_node_baseSD_OT_RT0_:
.LFB11238:
	.cfi_startproc
	endbr64
	push	rbp
	.cfi_def_cfa_offset 16
	.cfi_offset 6, -16
	mov	rbp, rsp
	.cfi_def_cfa_register 6
	push	r12
	push	rbx
	sub	rsp, 80
	.cfi_offset 12, -24
	.cfi_offset 3, -32
	mov	QWORD PTR -56[rbp], rdi
	mov	QWORD PTR -64[rbp], rsi
	mov	QWORD PTR -72[rbp], rdx
	mov	QWORD PTR -80[rbp], rcx
	mov	QWORD PTR -88[rbp], r8
	mov	rax, QWORD PTR fs:40
	mov	QWORD PTR -24[rbp], rax
	xor	eax, eax
	cmp	QWORD PTR -64[rbp], 0
	jne	.L273
	mov	rax, QWORD PTR -56[rbp]
	mov	rdi, rax
	call	_ZNSt8_Rb_treeIxxSt9_IdentityIxESt4lessIxESaIxEE6_M_endEv
	cmp	QWORD PTR -72[rbp], rax
	je	.L273
	mov	rbx, QWORD PTR -56[rbp]
	mov	rax, QWORD PTR -72[rbp]
	mov	rdi, rax
	call	_ZNSt8_Rb_treeIxxSt9_IdentityIxESt4lessIxESaIxEE6_S_keyEPKSt18_Rb_tree_node_base
	mov	r12, rax
	mov	rdx, QWORD PTR -80[rbp]
	lea	rax, -40[rbp]
	mov	rsi, rdx
	mov	rdi, rax
	call	_ZNKSt9_IdentityIxEclERKx
	mov	rdx, r12
	mov	rsi, rax
	mov	rdi, rbx
	call	_ZNKSt4lessIxEclERKxS2_
	test	al, al
	je	.L274
.L273:
	mov	eax, 1
	jmp	.L275
.L274:
	mov	eax, 0
.L275:
	mov	BYTE PTR -41[rbp], al
	mov	rax, QWORD PTR -80[rbp]
	mov	rdi, rax
	call	_ZSt7forwardIRKxEOT_RNSt16remove_referenceIS2_E4typeE
	mov	rdx, rax
	mov	rax, QWORD PTR -88[rbp]
	mov	rsi, rdx
	mov	rdi, rax
	call	_ZNKSt8_Rb_treeIxxSt9_IdentityIxESt4lessIxESaIxEE11_Alloc_nodeclIRKxEEPSt13_Rb_tree_nodeIxEOT_
	mov	QWORD PTR -32[rbp], rax
	mov	rax, QWORD PTR -56[rbp]
	lea	rcx, 8[rax]
	movzx	eax, BYTE PTR -41[rbp]
	mov	rdx, QWORD PTR -72[rbp]
	mov	rsi, QWORD PTR -32[rbp]
	mov	edi, eax
	call	_ZSt29_Rb_tree_insert_and_rebalancebPSt18_Rb_tree_node_baseS0_RS_@PLT
	mov	rax, QWORD PTR -56[rbp]
	mov	rax, QWORD PTR 40[rax]
	lea	rdx, 1[rax]
	mov	rax, QWORD PTR -56[rbp]
	mov	QWORD PTR 40[rax], rdx
	mov	rdx, QWORD PTR -32[rbp]
	lea	rax, -40[rbp]
	mov	rsi, rdx
	mov	rdi, rax
	call	_ZNSt17_Rb_tree_iteratorIxEC1EPSt18_Rb_tree_node_base
	mov	rax, QWORD PTR -40[rbp]
	mov	rdx, QWORD PTR -24[rbp]
	sub	rdx, QWORD PTR fs:40
	je	.L277
	call	__stack_chk_fail@PLT
.L277:
	add	rsp, 80
	pop	rbx
	pop	r12
	pop	rbp
	.cfi_def_cfa 7, 8
	ret
	.cfi_endproc
.LFE11238:
	.size	_ZNSt8_Rb_treeIxxSt9_IdentityIxESt4lessIxESaIxEE10_M_insert_IRKxNS5_11_Alloc_nodeEEESt17_Rb_tree_iteratorIxEPSt18_Rb_tree_node_baseSD_OT_RT0_, .-_ZNSt8_Rb_treeIxxSt9_IdentityIxESt4lessIxESaIxEE10_M_insert_IRKxNS5_11_Alloc_nodeEEESt17_Rb_tree_iteratorIxEPSt18_Rb_tree_node_baseSD_OT_RT0_
	.section	.text._ZNSt16allocator_traitsISaIxEE8max_sizeERKS0_,"axG",@progbits,_ZNSt16allocator_traitsISaIxEE8max_sizeERKS0_,comdat
	.weak	_ZNSt16allocator_traitsISaIxEE8max_sizeERKS0_
	.type	_ZNSt16allocator_traitsISaIxEE8max_sizeERKS0_, @function
_ZNSt16allocator_traitsISaIxEE8max_sizeERKS0_:
.LFB11376:
	.cfi_startproc
	endbr64
	push	rbp
	.cfi_def_cfa_offset 16
	.cfi_offset 6, -16
	mov	rbp, rsp
	.cfi_def_cfa_register 6
	sub	rsp, 16
	mov	QWORD PTR -8[rbp], rdi
	mov	rax, QWORD PTR -8[rbp]
	mov	rdi, rax
	call	_ZNK9__gnu_cxx13new_allocatorIxE8max_sizeEv
	leave
	.cfi_def_cfa 7, 8
	ret
	.cfi_endproc
.LFE11376:
	.size	_ZNSt16allocator_traitsISaIxEE8max_sizeERKS0_, .-_ZNSt16allocator_traitsISaIxEE8max_sizeERKS0_
	.section	.text._ZN9__gnu_cxx13new_allocatorIxEC2ERKS1_,"axG",@progbits,_ZN9__gnu_cxx13new_allocatorIxEC5ERKS1_,comdat
	.align 2
	.weak	_ZN9__gnu_cxx13new_allocatorIxEC2ERKS1_
	.type	_ZN9__gnu_cxx13new_allocatorIxEC2ERKS1_, @function
_ZN9__gnu_cxx13new_allocatorIxEC2ERKS1_:
.LFB11378:
	.cfi_startproc
	endbr64
	push	rbp
	.cfi_def_cfa_offset 16
	.cfi_offset 6, -16
	mov	rbp, rsp
	.cfi_def_cfa_register 6
	mov	QWORD PTR -8[rbp], rdi
	mov	QWORD PTR -16[rbp], rsi
	nop
	pop	rbp
	.cfi_def_cfa 7, 8
	ret
	.cfi_endproc
.LFE11378:
	.size	_ZN9__gnu_cxx13new_allocatorIxEC2ERKS1_, .-_ZN9__gnu_cxx13new_allocatorIxEC2ERKS1_
	.weak	_ZN9__gnu_cxx13new_allocatorIxEC1ERKS1_
	.set	_ZN9__gnu_cxx13new_allocatorIxEC1ERKS1_,_ZN9__gnu_cxx13new_allocatorIxEC2ERKS1_
	.section	.text._ZNSt12_Vector_baseIxSaIxEE17_Vector_impl_dataC2Ev,"axG",@progbits,_ZNSt12_Vector_baseIxSaIxEE17_Vector_impl_dataC5Ev,comdat
	.align 2
	.weak	_ZNSt12_Vector_baseIxSaIxEE17_Vector_impl_dataC2Ev
	.type	_ZNSt12_Vector_baseIxSaIxEE17_Vector_impl_dataC2Ev, @function
_ZNSt12_Vector_baseIxSaIxEE17_Vector_impl_dataC2Ev:
.LFB11381:
	.cfi_startproc
	endbr64
	push	rbp
	.cfi_def_cfa_offset 16
	.cfi_offset 6, -16
	mov	rbp, rsp
	.cfi_def_cfa_register 6
	mov	QWORD PTR -8[rbp], rdi
	mov	rax, QWORD PTR -8[rbp]
	mov	QWORD PTR [rax], 0
	mov	rax, QWORD PTR -8[rbp]
	mov	QWORD PTR 8[rax], 0
	mov	rax, QWORD PTR -8[rbp]
	mov	QWORD PTR 16[rax], 0
	nop
	pop	rbp
	.cfi_def_cfa 7, 8
	ret
	.cfi_endproc
.LFE11381:
	.size	_ZNSt12_Vector_baseIxSaIxEE17_Vector_impl_dataC2Ev, .-_ZNSt12_Vector_baseIxSaIxEE17_Vector_impl_dataC2Ev
	.weak	_ZNSt12_Vector_baseIxSaIxEE17_Vector_impl_dataC1Ev
	.set	_ZNSt12_Vector_baseIxSaIxEE17_Vector_impl_dataC1Ev,_ZNSt12_Vector_baseIxSaIxEE17_Vector_impl_dataC2Ev
	.section	.text._ZNSt12_Vector_baseIxSaIxEE11_M_allocateEm,"axG",@progbits,_ZNSt12_Vector_baseIxSaIxEE11_M_allocateEm,comdat
	.align 2
	.weak	_ZNSt12_Vector_baseIxSaIxEE11_M_allocateEm
	.type	_ZNSt12_Vector_baseIxSaIxEE11_M_allocateEm, @function
_ZNSt12_Vector_baseIxSaIxEE11_M_allocateEm:
.LFB11383:
	.cfi_startproc
	endbr64
	push	rbp
	.cfi_def_cfa_offset 16
	.cfi_offset 6, -16
	mov	rbp, rsp
	.cfi_def_cfa_register 6
	sub	rsp, 16
	mov	QWORD PTR -8[rbp], rdi
	mov	QWORD PTR -16[rbp], rsi
	cmp	QWORD PTR -16[rbp], 0
	je	.L283
	mov	rax, QWORD PTR -8[rbp]
	mov	rdx, QWORD PTR -16[rbp]
	mov	rsi, rdx
	mov	rdi, rax
	call	_ZNSt16allocator_traitsISaIxEE8allocateERS0_m
	jmp	.L285
.L283:
	mov	eax, 0
.L285:
	leave
	.cfi_def_cfa 7, 8
	ret
	.cfi_endproc
.LFE11383:
	.size	_ZNSt12_Vector_baseIxSaIxEE11_M_allocateEm, .-_ZNSt12_Vector_baseIxSaIxEE11_M_allocateEm
	.section	.text._ZNSt16allocator_traitsISaIxEE10deallocateERS0_Pxm,"axG",@progbits,_ZNSt16allocator_traitsISaIxEE10deallocateERS0_Pxm,comdat
	.weak	_ZNSt16allocator_traitsISaIxEE10deallocateERS0_Pxm
	.type	_ZNSt16allocator_traitsISaIxEE10deallocateERS0_Pxm, @function
_ZNSt16allocator_traitsISaIxEE10deallocateERS0_Pxm:
.LFB11384:
	.cfi_startproc
	endbr64
	push	rbp
	.cfi_def_cfa_offset 16
	.cfi_offset 6, -16
	mov	rbp, rsp
	.cfi_def_cfa_register 6
	sub	rsp, 32
	mov	QWORD PTR -8[rbp], rdi
	mov	QWORD PTR -16[rbp], rsi
	mov	QWORD PTR -24[rbp], rdx
	mov	rdx, QWORD PTR -24[rbp]
	mov	rcx, QWORD PTR -16[rbp]
	mov	rax, QWORD PTR -8[rbp]
	mov	rsi, rcx
	mov	rdi, rax
	call	_ZN9__gnu_cxx13new_allocatorIxE10deallocateEPxm
	nop
	leave
	.cfi_def_cfa 7, 8
	ret
	.cfi_endproc
.LFE11384:
	.size	_ZNSt16allocator_traitsISaIxEE10deallocateERS0_Pxm, .-_ZNSt16allocator_traitsISaIxEE10deallocateERS0_Pxm
	.section	.text._ZSt20uninitialized_fill_nIPxmxET_S1_T0_RKT1_,"axG",@progbits,_ZSt20uninitialized_fill_nIPxmxET_S1_T0_RKT1_,comdat
	.weak	_ZSt20uninitialized_fill_nIPxmxET_S1_T0_RKT1_
	.type	_ZSt20uninitialized_fill_nIPxmxET_S1_T0_RKT1_, @function
_ZSt20uninitialized_fill_nIPxmxET_S1_T0_RKT1_:
.LFB11385:
	.cfi_startproc
	endbr64
	push	rbp
	.cfi_def_cfa_offset 16
	.cfi_offset 6, -16
	mov	rbp, rsp
	.cfi_def_cfa_register 6
	sub	rsp, 48
	mov	QWORD PTR -24[rbp], rdi
	mov	QWORD PTR -32[rbp], rsi
	mov	QWORD PTR -40[rbp], rdx
	mov	BYTE PTR -1[rbp], 1
	mov	rdx, QWORD PTR -40[rbp]
	mov	rcx, QWORD PTR -32[rbp]
	mov	rax, QWORD PTR -24[rbp]
	mov	rsi, rcx
	mov	rdi, rax
	call	_ZNSt22__uninitialized_fill_nILb1EE15__uninit_fill_nIPxmxEET_S3_T0_RKT1_
	leave
	.cfi_def_cfa 7, 8
	ret
	.cfi_endproc
.LFE11385:
	.size	_ZSt20uninitialized_fill_nIPxmxET_S1_T0_RKT1_, .-_ZSt20uninitialized_fill_nIPxmxET_S1_T0_RKT1_
	.section	.text._ZNSt12_Destroy_auxILb1EE9__destroyIPxEEvT_S3_,"axG",@progbits,_ZNSt12_Destroy_auxILb1EE9__destroyIPxEEvT_S3_,comdat
	.weak	_ZNSt12_Destroy_auxILb1EE9__destroyIPxEEvT_S3_
	.type	_ZNSt12_Destroy_auxILb1EE9__destroyIPxEEvT_S3_, @function
_ZNSt12_Destroy_auxILb1EE9__destroyIPxEEvT_S3_:
.LFB11386:
	.cfi_startproc
	endbr64
	push	rbp
	.cfi_def_cfa_offset 16
	.cfi_offset 6, -16
	mov	rbp, rsp
	.cfi_def_cfa_register 6
	mov	QWORD PTR -8[rbp], rdi
	mov	QWORD PTR -16[rbp], rsi
	nop
	pop	rbp
	.cfi_def_cfa 7, 8
	ret
	.cfi_endproc
.LFE11386:
	.size	_ZNSt12_Destroy_auxILb1EE9__destroyIPxEEvT_S3_, .-_ZNSt12_Destroy_auxILb1EE9__destroyIPxEEvT_S3_
	.section	.text._ZN9__gnu_cxx13new_allocatorISt4pairIxS1_IxxEEE10deallocateEPS3_m,"axG",@progbits,_ZN9__gnu_cxx13new_allocatorISt4pairIxS1_IxxEEE10deallocateEPS3_m,comdat
	.align 2
	.weak	_ZN9__gnu_cxx13new_allocatorISt4pairIxS1_IxxEEE10deallocateEPS3_m
	.type	_ZN9__gnu_cxx13new_allocatorISt4pairIxS1_IxxEEE10deallocateEPS3_m, @function
_ZN9__gnu_cxx13new_allocatorISt4pairIxS1_IxxEEE10deallocateEPS3_m:
.LFB11387:
	.cfi_startproc
	endbr64
	push	rbp
	.cfi_def_cfa_offset 16
	.cfi_offset 6, -16
	mov	rbp, rsp
	.cfi_def_cfa_register 6
	sub	rsp, 32
	mov	QWORD PTR -8[rbp], rdi
	mov	QWORD PTR -16[rbp], rsi
	mov	QWORD PTR -24[rbp], rdx
	mov	rdx, QWORD PTR -24[rbp]
	mov	rax, rdx
	add	rax, rax
	add	rax, rdx
	sal	rax, 3
	mov	rdx, rax
	mov	rax, QWORD PTR -16[rbp]
	mov	rsi, rdx
	mov	rdi, rax
	call	_ZdlPvm@PLT
	leave
	.cfi_def_cfa 7, 8
	ret
	.cfi_endproc
.LFE11387:
	.size	_ZN9__gnu_cxx13new_allocatorISt4pairIxS1_IxxEEE10deallocateEPS3_m, .-_ZN9__gnu_cxx13new_allocatorISt4pairIxS1_IxxEEE10deallocateEPS3_m
	.section	.text._ZNSt12_Destroy_auxILb1EE9__destroyIPSt4pairIxS2_IxxEEEEvT_S6_,"axG",@progbits,_ZNSt12_Destroy_auxILb1EE9__destroyIPSt4pairIxS2_IxxEEEEvT_S6_,comdat
	.weak	_ZNSt12_Destroy_auxILb1EE9__destroyIPSt4pairIxS2_IxxEEEEvT_S6_
	.type	_ZNSt12_Destroy_auxILb1EE9__destroyIPSt4pairIxS2_IxxEEEEvT_S6_, @function
_ZNSt12_Destroy_auxILb1EE9__destroyIPSt4pairIxS2_IxxEEEEvT_S6_:
.LFB11388:
	.cfi_startproc
	endbr64
	push	rbp
	.cfi_def_cfa_offset 16
	.cfi_offset 6, -16
	mov	rbp, rsp
	.cfi_def_cfa_register 6
	mov	QWORD PTR -8[rbp], rdi
	mov	QWORD PTR -16[rbp], rsi
	nop
	pop	rbp
	.cfi_def_cfa 7, 8
	ret
	.cfi_endproc
.LFE11388:
	.size	_ZNSt12_Destroy_auxILb1EE9__destroyIPSt4pairIxS2_IxxEEEEvT_S6_, .-_ZNSt12_Destroy_auxILb1EE9__destroyIPSt4pairIxS2_IxxEEEEvT_S6_
	.section	.text._ZN9__gnu_cxx13new_allocatorISt4pairIxS1_IxxEEE9constructIS3_JS3_EEEvPT_DpOT0_,"axG",@progbits,_ZN9__gnu_cxx13new_allocatorISt4pairIxS1_IxxEEE9constructIS3_JS3_EEEvPT_DpOT0_,comdat
	.align 2
	.weak	_ZN9__gnu_cxx13new_allocatorISt4pairIxS1_IxxEEE9constructIS3_JS3_EEEvPT_DpOT0_
	.type	_ZN9__gnu_cxx13new_allocatorISt4pairIxS1_IxxEEE9constructIS3_JS3_EEEvPT_DpOT0_, @function
_ZN9__gnu_cxx13new_allocatorISt4pairIxS1_IxxEEE9constructIS3_JS3_EEEvPT_DpOT0_:
.LFB11389:
	.cfi_startproc
	endbr64
	push	rbp
	.cfi_def_cfa_offset 16
	.cfi_offset 6, -16
	mov	rbp, rsp
	.cfi_def_cfa_register 6
	push	rbx
	sub	rsp, 40
	.cfi_offset 3, -24
	mov	QWORD PTR -24[rbp], rdi
	mov	QWORD PTR -32[rbp], rsi
	mov	QWORD PTR -40[rbp], rdx
	mov	rax, QWORD PTR -40[rbp]
	mov	rdi, rax
	call	_ZSt7forwardISt4pairIxS0_IxxEEEOT_RNSt16remove_referenceIS3_E4typeE
	mov	rbx, rax
	mov	rax, QWORD PTR -32[rbp]
	mov	rsi, rax
	mov	edi, 24
	call	_ZnwmPv
	mov	rcx, rax
	mov	rax, QWORD PTR [rbx]
	mov	rdx, QWORD PTR 8[rbx]
	mov	QWORD PTR [rcx], rax
	mov	QWORD PTR 8[rcx], rdx
	mov	rax, QWORD PTR 16[rbx]
	mov	QWORD PTR 16[rcx], rax
	nop
	mov	rbx, QWORD PTR -8[rbp]
	leave
	.cfi_def_cfa 7, 8
	ret
	.cfi_endproc
.LFE11389:
	.size	_ZN9__gnu_cxx13new_allocatorISt4pairIxS1_IxxEEE9constructIS3_JS3_EEEvPT_DpOT0_, .-_ZN9__gnu_cxx13new_allocatorISt4pairIxS1_IxxEEE9constructIS3_JS3_EEEvPT_DpOT0_
	.section	.text._ZNKSt6vectorISt4pairIxS0_IxxEESaIS2_EE12_M_check_lenEmPKc,"axG",@progbits,_ZNKSt6vectorISt4pairIxS0_IxxEESaIS2_EE12_M_check_lenEmPKc,comdat
	.align 2
	.weak	_ZNKSt6vectorISt4pairIxS0_IxxEESaIS2_EE12_M_check_lenEmPKc
	.type	_ZNKSt6vectorISt4pairIxS0_IxxEESaIS2_EE12_M_check_lenEmPKc, @function
_ZNKSt6vectorISt4pairIxS0_IxxEESaIS2_EE12_M_check_lenEmPKc:
.LFB11390:
	.cfi_startproc
	endbr64
	push	rbp
	.cfi_def_cfa_offset 16
	.cfi_offset 6, -16
	mov	rbp, rsp
	.cfi_def_cfa_register 6
	push	rbx
	sub	rsp, 72
	.cfi_offset 3, -24
	mov	QWORD PTR -56[rbp], rdi
	mov	QWORD PTR -64[rbp], rsi
	mov	QWORD PTR -72[rbp], rdx
	mov	rax, QWORD PTR fs:40
	mov	QWORD PTR -24[rbp], rax
	xor	eax, eax
	mov	rax, QWORD PTR -56[rbp]
	mov	rdi, rax
	call	_ZNKSt6vectorISt4pairIxS0_IxxEESaIS2_EE8max_sizeEv
	mov	rbx, rax
	mov	rax, QWORD PTR -56[rbp]
	mov	rdi, rax
	call	_ZNKSt6vectorISt4pairIxS0_IxxEESaIS2_EE4sizeEv
	sub	rbx, rax
	mov	rdx, rbx
	mov	rax, QWORD PTR -64[rbp]
	cmp	rdx, rax
	setb	al
	test	al, al
	je	.L295
	mov	rax, QWORD PTR -72[rbp]
	mov	rdi, rax
	call	_ZSt20__throw_length_errorPKc@PLT
.L295:
	mov	rax, QWORD PTR -56[rbp]
	mov	rdi, rax
	call	_ZNKSt6vectorISt4pairIxS0_IxxEESaIS2_EE4sizeEv
	mov	rbx, rax
	mov	rax, QWORD PTR -56[rbp]
	mov	rdi, rax
	call	_ZNKSt6vectorISt4pairIxS0_IxxEESaIS2_EE4sizeEv
	mov	QWORD PTR -40[rbp], rax
	lea	rdx, -64[rbp]
	lea	rax, -40[rbp]
	mov	rsi, rdx
	mov	rdi, rax
	call	_ZSt3maxImERKT_S2_S2_
	mov	rax, QWORD PTR [rax]
	add	rax, rbx
	mov	QWORD PTR -32[rbp], rax
	mov	rax, QWORD PTR -56[rbp]
	mov	rdi, rax
	call	_ZNKSt6vectorISt4pairIxS0_IxxEESaIS2_EE4sizeEv
	cmp	QWORD PTR -32[rbp], rax
	jb	.L296
	mov	rax, QWORD PTR -56[rbp]
	mov	rdi, rax
	call	_ZNKSt6vectorISt4pairIxS0_IxxEESaIS2_EE8max_sizeEv
	cmp	QWORD PTR -32[rbp], rax
	jbe	.L297
.L296:
	mov	rax, QWORD PTR -56[rbp]
	mov	rdi, rax
	call	_ZNKSt6vectorISt4pairIxS0_IxxEESaIS2_EE8max_sizeEv
	jmp	.L298
.L297:
	mov	rax, QWORD PTR -32[rbp]
.L298:
	mov	rdx, QWORD PTR -24[rbp]
	sub	rdx, QWORD PTR fs:40
	je	.L300
	call	__stack_chk_fail@PLT
.L300:
	mov	rbx, QWORD PTR -8[rbp]
	leave
	.cfi_def_cfa 7, 8
	ret
	.cfi_endproc
.LFE11390:
	.size	_ZNKSt6vectorISt4pairIxS0_IxxEESaIS2_EE12_M_check_lenEmPKc, .-_ZNKSt6vectorISt4pairIxS0_IxxEESaIS2_EE12_M_check_lenEmPKc
	.section	.text._ZNSt12_Vector_baseISt4pairIxS0_IxxEESaIS2_EE11_M_allocateEm,"axG",@progbits,_ZNSt12_Vector_baseISt4pairIxS0_IxxEESaIS2_EE11_M_allocateEm,comdat
	.align 2
	.weak	_ZNSt12_Vector_baseISt4pairIxS0_IxxEESaIS2_EE11_M_allocateEm
	.type	_ZNSt12_Vector_baseISt4pairIxS0_IxxEESaIS2_EE11_M_allocateEm, @function
_ZNSt12_Vector_baseISt4pairIxS0_IxxEESaIS2_EE11_M_allocateEm:
.LFB11391:
	.cfi_startproc
	endbr64
	push	rbp
	.cfi_def_cfa_offset 16
	.cfi_offset 6, -16
	mov	rbp, rsp
	.cfi_def_cfa_register 6
	sub	rsp, 16
	mov	QWORD PTR -8[rbp], rdi
	mov	QWORD PTR -16[rbp], rsi
	cmp	QWORD PTR -16[rbp], 0
	je	.L302
	mov	rax, QWORD PTR -8[rbp]
	mov	rdx, QWORD PTR -16[rbp]
	mov	rsi, rdx
	mov	rdi, rax
	call	_ZNSt16allocator_traitsISaISt4pairIxS0_IxxEEEE8allocateERS3_m
	jmp	.L304
.L302:
	mov	eax, 0
.L304:
	leave
	.cfi_def_cfa 7, 8
	ret
	.cfi_endproc
.LFE11391:
	.size	_ZNSt12_Vector_baseISt4pairIxS0_IxxEESaIS2_EE11_M_allocateEm, .-_ZNSt12_Vector_baseISt4pairIxS0_IxxEESaIS2_EE11_M_allocateEm
	.section	.text._ZNSt6vectorISt4pairIxS0_IxxEESaIS2_EE11_S_relocateEPS2_S5_S5_RS3_,"axG",@progbits,_ZNSt6vectorISt4pairIxS0_IxxEESaIS2_EE11_S_relocateEPS2_S5_S5_RS3_,comdat
	.weak	_ZNSt6vectorISt4pairIxS0_IxxEESaIS2_EE11_S_relocateEPS2_S5_S5_RS3_
	.type	_ZNSt6vectorISt4pairIxS0_IxxEESaIS2_EE11_S_relocateEPS2_S5_S5_RS3_, @function
_ZNSt6vectorISt4pairIxS0_IxxEESaIS2_EE11_S_relocateEPS2_S5_S5_RS3_:
.LFB11392:
	.cfi_startproc
	endbr64
	push	rbp
	.cfi_def_cfa_offset 16
	.cfi_offset 6, -16
	mov	rbp, rsp
	.cfi_def_cfa_register 6
	sub	rsp, 32
	mov	QWORD PTR -8[rbp], rdi
	mov	QWORD PTR -16[rbp], rsi
	mov	QWORD PTR -24[rbp], rdx
	mov	QWORD PTR -32[rbp], rcx
	mov	rcx, QWORD PTR -32[rbp]
	mov	rdx, QWORD PTR -24[rbp]
	mov	rsi, QWORD PTR -16[rbp]
	mov	rax, QWORD PTR -8[rbp]
	mov	rdi, rax
	call	_ZNSt6vectorISt4pairIxS0_IxxEESaIS2_EE14_S_do_relocateEPS2_S5_S5_RS3_St17integral_constantIbLb1EE
	leave
	.cfi_def_cfa 7, 8
	ret
	.cfi_endproc
.LFE11392:
	.size	_ZNSt6vectorISt4pairIxS0_IxxEESaIS2_EE11_S_relocateEPS2_S5_S5_RS3_, .-_ZNSt6vectorISt4pairIxS0_IxxEESaIS2_EE11_S_relocateEPS2_S5_S5_RS3_
	.section	.text._ZNSt16allocator_traitsISaISt4pairIxS0_IxxEEEE7destroyIS2_EEvRS3_PT_,"axG",@progbits,_ZNSt16allocator_traitsISaISt4pairIxS0_IxxEEEE7destroyIS2_EEvRS3_PT_,comdat
	.weak	_ZNSt16allocator_traitsISaISt4pairIxS0_IxxEEEE7destroyIS2_EEvRS3_PT_
	.type	_ZNSt16allocator_traitsISaISt4pairIxS0_IxxEEEE7destroyIS2_EEvRS3_PT_, @function
_ZNSt16allocator_traitsISaISt4pairIxS0_IxxEEEE7destroyIS2_EEvRS3_PT_:
.LFB11393:
	.cfi_startproc
	endbr64
	push	rbp
	.cfi_def_cfa_offset 16
	.cfi_offset 6, -16
	mov	rbp, rsp
	.cfi_def_cfa_register 6
	sub	rsp, 16
	mov	QWORD PTR -8[rbp], rdi
	mov	QWORD PTR -16[rbp], rsi
	mov	rdx, QWORD PTR -16[rbp]
	mov	rax, QWORD PTR -8[rbp]
	mov	rsi, rdx
	mov	rdi, rax
	call	_ZN9__gnu_cxx13new_allocatorISt4pairIxS1_IxxEEE7destroyIS3_EEvPT_
	nop
	leave
	.cfi_def_cfa 7, 8
	ret
	.cfi_endproc
.LFE11393:
	.size	_ZNSt16allocator_traitsISaISt4pairIxS0_IxxEEEE7destroyIS2_EEvRS3_PT_, .-_ZNSt16allocator_traitsISaISt4pairIxS0_IxxEEEE7destroyIS2_EEvRS3_PT_
	.section	.text._ZNK9__gnu_cxx17__normal_iteratorIPSt4pairIxS1_IxxEESt6vectorIS3_SaIS3_EEEmiEl,"axG",@progbits,_ZNK9__gnu_cxx17__normal_iteratorIPSt4pairIxS1_IxxEESt6vectorIS3_SaIS3_EEEmiEl,comdat
	.align 2
	.weak	_ZNK9__gnu_cxx17__normal_iteratorIPSt4pairIxS1_IxxEESt6vectorIS3_SaIS3_EEEmiEl
	.type	_ZNK9__gnu_cxx17__normal_iteratorIPSt4pairIxS1_IxxEESt6vectorIS3_SaIS3_EEEmiEl, @function
_ZNK9__gnu_cxx17__normal_iteratorIPSt4pairIxS1_IxxEESt6vectorIS3_SaIS3_EEEmiEl:
.LFB11394:
	.cfi_startproc
	endbr64
	push	rbp
	.cfi_def_cfa_offset 16
	.cfi_offset 6, -16
	mov	rbp, rsp
	.cfi_def_cfa_register 6
	sub	rsp, 48
	mov	QWORD PTR -40[rbp], rdi
	mov	QWORD PTR -48[rbp], rsi
	mov	rax, QWORD PTR fs:40
	mov	QWORD PTR -8[rbp], rax
	xor	eax, eax
	mov	rax, QWORD PTR -40[rbp]
	mov	rcx, QWORD PTR [rax]
	mov	rdx, QWORD PTR -48[rbp]
	mov	rax, rdx
	add	rax, rax
	add	rax, rdx
	sal	rax, 3
	neg	rax
	add	rax, rcx
	mov	QWORD PTR -24[rbp], rax
	lea	rdx, -24[rbp]
	lea	rax, -16[rbp]
	mov	rsi, rdx
	mov	rdi, rax
	call	_ZN9__gnu_cxx17__normal_iteratorIPSt4pairIxS1_IxxEESt6vectorIS3_SaIS3_EEEC1ERKS4_
	mov	rax, QWORD PTR -16[rbp]
	mov	rdx, QWORD PTR -8[rbp]
	sub	rdx, QWORD PTR fs:40
	je	.L310
	call	__stack_chk_fail@PLT
.L310:
	leave
	.cfi_def_cfa 7, 8
	ret
	.cfi_endproc
.LFE11394:
	.size	_ZNK9__gnu_cxx17__normal_iteratorIPSt4pairIxS1_IxxEESt6vectorIS3_SaIS3_EEEmiEl, .-_ZNK9__gnu_cxx17__normal_iteratorIPSt4pairIxS1_IxxEESt6vectorIS3_SaIS3_EEEmiEl
	.section	.text._ZNSt8_Rb_treeIxxSt9_IdentityIxESt4lessIxESaIxEE15_M_destroy_nodeEPSt13_Rb_tree_nodeIxE,"axG",@progbits,_ZNSt8_Rb_treeIxxSt9_IdentityIxESt4lessIxESaIxEE15_M_destroy_nodeEPSt13_Rb_tree_nodeIxE,comdat
	.align 2
	.weak	_ZNSt8_Rb_treeIxxSt9_IdentityIxESt4lessIxESaIxEE15_M_destroy_nodeEPSt13_Rb_tree_nodeIxE
	.type	_ZNSt8_Rb_treeIxxSt9_IdentityIxESt4lessIxESaIxEE15_M_destroy_nodeEPSt13_Rb_tree_nodeIxE, @function
_ZNSt8_Rb_treeIxxSt9_IdentityIxESt4lessIxESaIxEE15_M_destroy_nodeEPSt13_Rb_tree_nodeIxE:
.LFB11395:
	.cfi_startproc
	endbr64
	push	rbp
	.cfi_def_cfa_offset 16
	.cfi_offset 6, -16
	mov	rbp, rsp
	.cfi_def_cfa_register 6
	push	rbx
	sub	rsp, 24
	.cfi_offset 3, -24
	mov	QWORD PTR -24[rbp], rdi
	mov	QWORD PTR -32[rbp], rsi
	mov	rax, QWORD PTR -32[rbp]
	mov	rdi, rax
	call	_ZNSt13_Rb_tree_nodeIxE9_M_valptrEv
	mov	rbx, rax
	mov	rax, QWORD PTR -24[rbp]
	mov	rdi, rax
	call	_ZNSt8_Rb_treeIxxSt9_IdentityIxESt4lessIxESaIxEE21_M_get_Node_allocatorEv
	mov	rsi, rbx
	mov	rdi, rax
	call	_ZNSt16allocator_traitsISaISt13_Rb_tree_nodeIxEEE7destroyIxEEvRS2_PT_
	nop
	mov	rbx, QWORD PTR -8[rbp]
	leave
	.cfi_def_cfa 7, 8
	ret
	.cfi_endproc
.LFE11395:
	.size	_ZNSt8_Rb_treeIxxSt9_IdentityIxESt4lessIxESaIxEE15_M_destroy_nodeEPSt13_Rb_tree_nodeIxE, .-_ZNSt8_Rb_treeIxxSt9_IdentityIxESt4lessIxESaIxEE15_M_destroy_nodeEPSt13_Rb_tree_nodeIxE
	.section	.text._ZNSt8_Rb_treeIxxSt9_IdentityIxESt4lessIxESaIxEE11_M_put_nodeEPSt13_Rb_tree_nodeIxE,"axG",@progbits,_ZNSt8_Rb_treeIxxSt9_IdentityIxESt4lessIxESaIxEE11_M_put_nodeEPSt13_Rb_tree_nodeIxE,comdat
	.align 2
	.weak	_ZNSt8_Rb_treeIxxSt9_IdentityIxESt4lessIxESaIxEE11_M_put_nodeEPSt13_Rb_tree_nodeIxE
	.type	_ZNSt8_Rb_treeIxxSt9_IdentityIxESt4lessIxESaIxEE11_M_put_nodeEPSt13_Rb_tree_nodeIxE, @function
_ZNSt8_Rb_treeIxxSt9_IdentityIxESt4lessIxESaIxEE11_M_put_nodeEPSt13_Rb_tree_nodeIxE:
.LFB11396:
	.cfi_startproc
	.cfi_personality 0x9b,DW.ref.__gxx_personality_v0
	.cfi_lsda 0x1b,.LLSDA11396
	endbr64
	push	rbp
	.cfi_def_cfa_offset 16
	.cfi_offset 6, -16
	mov	rbp, rsp
	.cfi_def_cfa_register 6
	sub	rsp, 16
	mov	QWORD PTR -8[rbp], rdi
	mov	QWORD PTR -16[rbp], rsi
	mov	rax, QWORD PTR -8[rbp]
	mov	rdi, rax
	call	_ZNSt8_Rb_treeIxxSt9_IdentityIxESt4lessIxESaIxEE21_M_get_Node_allocatorEv
	mov	rcx, rax
	mov	rax, QWORD PTR -16[rbp]
	mov	edx, 1
	mov	rsi, rax
	mov	rdi, rcx
	call	_ZNSt16allocator_traitsISaISt13_Rb_tree_nodeIxEEE10deallocateERS2_PS1_m
	nop
	leave
	.cfi_def_cfa 7, 8
	ret
	.cfi_endproc
.LFE11396:
	.section	.gcc_except_table
.LLSDA11396:
	.byte	0xff
	.byte	0xff
	.byte	0x1
	.uleb128 .LLSDACSE11396-.LLSDACSB11396
.LLSDACSB11396:
.LLSDACSE11396:
	.section	.text._ZNSt8_Rb_treeIxxSt9_IdentityIxESt4lessIxESaIxEE11_M_put_nodeEPSt13_Rb_tree_nodeIxE,"axG",@progbits,_ZNSt8_Rb_treeIxxSt9_IdentityIxESt4lessIxESaIxEE11_M_put_nodeEPSt13_Rb_tree_nodeIxE,comdat
	.size	_ZNSt8_Rb_treeIxxSt9_IdentityIxESt4lessIxESaIxEE11_M_put_nodeEPSt13_Rb_tree_nodeIxE, .-_ZNSt8_Rb_treeIxxSt9_IdentityIxESt4lessIxESaIxEE11_M_put_nodeEPSt13_Rb_tree_nodeIxE
	.section	.text._ZNSt8_Rb_treeIxxSt9_IdentityIxESt4lessIxESaIxEE6_S_keyEPKSt13_Rb_tree_nodeIxE,"axG",@progbits,_ZNSt8_Rb_treeIxxSt9_IdentityIxESt4lessIxESaIxEE6_S_keyEPKSt13_Rb_tree_nodeIxE,comdat
	.weak	_ZNSt8_Rb_treeIxxSt9_IdentityIxESt4lessIxESaIxEE6_S_keyEPKSt13_Rb_tree_nodeIxE
	.type	_ZNSt8_Rb_treeIxxSt9_IdentityIxESt4lessIxESaIxEE6_S_keyEPKSt13_Rb_tree_nodeIxE, @function
_ZNSt8_Rb_treeIxxSt9_IdentityIxESt4lessIxESaIxEE6_S_keyEPKSt13_Rb_tree_nodeIxE:
.LFB11397:
	.cfi_startproc
	endbr64
	push	rbp
	.cfi_def_cfa_offset 16
	.cfi_offset 6, -16
	mov	rbp, rsp
	.cfi_def_cfa_register 6
	sub	rsp, 32
	mov	QWORD PTR -24[rbp], rdi
	mov	rax, QWORD PTR fs:40
	mov	QWORD PTR -8[rbp], rax
	xor	eax, eax
	mov	rax, QWORD PTR -24[rbp]
	mov	rdi, rax
	call	_ZNKSt13_Rb_tree_nodeIxE9_M_valptrEv
	mov	rdx, rax
	lea	rax, -9[rbp]
	mov	rsi, rdx
	mov	rdi, rax
	call	_ZNKSt9_IdentityIxEclERKx
	mov	rdx, QWORD PTR -8[rbp]
	sub	rdx, QWORD PTR fs:40
	je	.L315
	call	__stack_chk_fail@PLT
.L315:
	leave
	.cfi_def_cfa 7, 8
	ret
	.cfi_endproc
.LFE11397:
	.size	_ZNSt8_Rb_treeIxxSt9_IdentityIxESt4lessIxESaIxEE6_S_keyEPKSt13_Rb_tree_nodeIxE, .-_ZNSt8_Rb_treeIxxSt9_IdentityIxESt4lessIxESaIxEE6_S_keyEPKSt13_Rb_tree_nodeIxE
	.section	.text._ZNKSt4lessIxEclERKxS2_,"axG",@progbits,_ZNKSt4lessIxEclERKxS2_,comdat
	.align 2
	.weak	_ZNKSt4lessIxEclERKxS2_
	.type	_ZNKSt4lessIxEclERKxS2_, @function
_ZNKSt4lessIxEclERKxS2_:
.LFB11400:
	.cfi_startproc
	endbr64
	push	rbp
	.cfi_def_cfa_offset 16
	.cfi_offset 6, -16
	mov	rbp, rsp
	.cfi_def_cfa_register 6
	mov	QWORD PTR -8[rbp], rdi
	mov	QWORD PTR -16[rbp], rsi
	mov	QWORD PTR -24[rbp], rdx
	mov	rax, QWORD PTR -16[rbp]
	mov	rdx, QWORD PTR [rax]
	mov	rax, QWORD PTR -24[rbp]
	mov	rax, QWORD PTR [rax]
	cmp	rdx, rax
	setl	al
	pop	rbp
	.cfi_def_cfa 7, 8
	ret
	.cfi_endproc
.LFE11400:
	.size	_ZNKSt4lessIxEclERKxS2_, .-_ZNKSt4lessIxEclERKxS2_
	.section	.text._ZNSt8_Rb_treeIxxSt9_IdentityIxESt4lessIxESaIxEE5beginEv,"axG",@progbits,_ZNSt8_Rb_treeIxxSt9_IdentityIxESt4lessIxESaIxEE5beginEv,comdat
	.align 2
	.weak	_ZNSt8_Rb_treeIxxSt9_IdentityIxESt4lessIxESaIxEE5beginEv
	.type	_ZNSt8_Rb_treeIxxSt9_IdentityIxESt4lessIxESaIxEE5beginEv, @function
_ZNSt8_Rb_treeIxxSt9_IdentityIxESt4lessIxESaIxEE5beginEv:
.LFB11401:
	.cfi_startproc
	endbr64
	push	rbp
	.cfi_def_cfa_offset 16
	.cfi_offset 6, -16
	mov	rbp, rsp
	.cfi_def_cfa_register 6
	sub	rsp, 32
	mov	QWORD PTR -24[rbp], rdi
	mov	rax, QWORD PTR fs:40
	mov	QWORD PTR -8[rbp], rax
	xor	eax, eax
	mov	rax, QWORD PTR -24[rbp]
	mov	rdx, QWORD PTR 24[rax]
	lea	rax, -16[rbp]
	mov	rsi, rdx
	mov	rdi, rax
	call	_ZNSt17_Rb_tree_iteratorIxEC1EPSt18_Rb_tree_node_base
	mov	rax, QWORD PTR -16[rbp]
	mov	rdx, QWORD PTR -8[rbp]
	sub	rdx, QWORD PTR fs:40
	je	.L320
	call	__stack_chk_fail@PLT
.L320:
	leave
	.cfi_def_cfa 7, 8
	ret
	.cfi_endproc
.LFE11401:
	.size	_ZNSt8_Rb_treeIxxSt9_IdentityIxESt4lessIxESaIxEE5beginEv, .-_ZNSt8_Rb_treeIxxSt9_IdentityIxESt4lessIxESaIxEE5beginEv
	.section	.text._ZSteqRKSt17_Rb_tree_iteratorIxES2_,"axG",@progbits,_ZSteqRKSt17_Rb_tree_iteratorIxES2_,comdat
	.weak	_ZSteqRKSt17_Rb_tree_iteratorIxES2_
	.type	_ZSteqRKSt17_Rb_tree_iteratorIxES2_, @function
_ZSteqRKSt17_Rb_tree_iteratorIxES2_:
.LFB11402:
	.cfi_startproc
	endbr64
	push	rbp
	.cfi_def_cfa_offset 16
	.cfi_offset 6, -16
	mov	rbp, rsp
	.cfi_def_cfa_register 6
	mov	QWORD PTR -8[rbp], rdi
	mov	QWORD PTR -16[rbp], rsi
	mov	rax, QWORD PTR -8[rbp]
	mov	rdx, QWORD PTR [rax]
	mov	rax, QWORD PTR -16[rbp]
	mov	rax, QWORD PTR [rax]
	cmp	rdx, rax
	sete	al
	pop	rbp
	.cfi_def_cfa 7, 8
	ret
	.cfi_endproc
.LFE11402:
	.size	_ZSteqRKSt17_Rb_tree_iteratorIxES2_, .-_ZSteqRKSt17_Rb_tree_iteratorIxES2_
	.section	.text._ZNSt4pairIPSt18_Rb_tree_node_baseS1_EC2IRPSt13_Rb_tree_nodeIxERS1_Lb1EEEOT_OT0_,"axG",@progbits,_ZNSt4pairIPSt18_Rb_tree_node_baseS1_EC5IRPSt13_Rb_tree_nodeIxERS1_Lb1EEEOT_OT0_,comdat
	.align 2
	.weak	_ZNSt4pairIPSt18_Rb_tree_node_baseS1_EC2IRPSt13_Rb_tree_nodeIxERS1_Lb1EEEOT_OT0_
	.type	_ZNSt4pairIPSt18_Rb_tree_node_baseS1_EC2IRPSt13_Rb_tree_nodeIxERS1_Lb1EEEOT_OT0_, @function
_ZNSt4pairIPSt18_Rb_tree_node_baseS1_EC2IRPSt13_Rb_tree_nodeIxERS1_Lb1EEEOT_OT0_:
.LFB11404:
	.cfi_startproc
	endbr64
	push	rbp
	.cfi_def_cfa_offset 16
	.cfi_offset 6, -16
	mov	rbp, rsp
	.cfi_def_cfa_register 6
	sub	rsp, 32
	mov	QWORD PTR -8[rbp], rdi
	mov	QWORD PTR -16[rbp], rsi
	mov	QWORD PTR -24[rbp], rdx
	mov	rax, QWORD PTR -16[rbp]
	mov	rdi, rax
	call	_ZSt7forwardIRPSt13_Rb_tree_nodeIxEEOT_RNSt16remove_referenceIS4_E4typeE
	mov	rdx, QWORD PTR [rax]
	mov	rax, QWORD PTR -8[rbp]
	mov	QWORD PTR [rax], rdx
	mov	rax, QWORD PTR -24[rbp]
	mov	rdi, rax
	call	_ZSt7forwardIRPSt18_Rb_tree_node_baseEOT_RNSt16remove_referenceIS3_E4typeE
	mov	rdx, QWORD PTR [rax]
	mov	rax, QWORD PTR -8[rbp]
	mov	QWORD PTR 8[rax], rdx
	nop
	leave
	.cfi_def_cfa 7, 8
	ret
	.cfi_endproc
.LFE11404:
	.size	_ZNSt4pairIPSt18_Rb_tree_node_baseS1_EC2IRPSt13_Rb_tree_nodeIxERS1_Lb1EEEOT_OT0_, .-_ZNSt4pairIPSt18_Rb_tree_node_baseS1_EC2IRPSt13_Rb_tree_nodeIxERS1_Lb1EEEOT_OT0_
	.weak	_ZNSt4pairIPSt18_Rb_tree_node_baseS1_EC1IRPSt13_Rb_tree_nodeIxERS1_Lb1EEEOT_OT0_
	.set	_ZNSt4pairIPSt18_Rb_tree_node_baseS1_EC1IRPSt13_Rb_tree_nodeIxERS1_Lb1EEEOT_OT0_,_ZNSt4pairIPSt18_Rb_tree_node_baseS1_EC2IRPSt13_Rb_tree_nodeIxERS1_Lb1EEEOT_OT0_
	.section	.text._ZNSt17_Rb_tree_iteratorIxEmmEv,"axG",@progbits,_ZNSt17_Rb_tree_iteratorIxEmmEv,comdat
	.align 2
	.weak	_ZNSt17_Rb_tree_iteratorIxEmmEv
	.type	_ZNSt17_Rb_tree_iteratorIxEmmEv, @function
_ZNSt17_Rb_tree_iteratorIxEmmEv:
.LFB11406:
	.cfi_startproc
	endbr64
	push	rbp
	.cfi_def_cfa_offset 16
	.cfi_offset 6, -16
	mov	rbp, rsp
	.cfi_def_cfa_register 6
	sub	rsp, 16
	mov	QWORD PTR -8[rbp], rdi
	mov	rax, QWORD PTR -8[rbp]
	mov	rax, QWORD PTR [rax]
	mov	rdi, rax
	call	_ZSt18_Rb_tree_decrementPSt18_Rb_tree_node_base@PLT
	mov	rdx, QWORD PTR -8[rbp]
	mov	QWORD PTR [rdx], rax
	mov	rax, QWORD PTR -8[rbp]
	leave
	.cfi_def_cfa 7, 8
	ret
	.cfi_endproc
.LFE11406:
	.size	_ZNSt17_Rb_tree_iteratorIxEmmEv, .-_ZNSt17_Rb_tree_iteratorIxEmmEv
	.section	.text._ZNSt8_Rb_treeIxxSt9_IdentityIxESt4lessIxESaIxEE6_S_keyEPKSt18_Rb_tree_node_base,"axG",@progbits,_ZNSt8_Rb_treeIxxSt9_IdentityIxESt4lessIxESaIxEE6_S_keyEPKSt18_Rb_tree_node_base,comdat
	.weak	_ZNSt8_Rb_treeIxxSt9_IdentityIxESt4lessIxESaIxEE6_S_keyEPKSt18_Rb_tree_node_base
	.type	_ZNSt8_Rb_treeIxxSt9_IdentityIxESt4lessIxESaIxEE6_S_keyEPKSt18_Rb_tree_node_base, @function
_ZNSt8_Rb_treeIxxSt9_IdentityIxESt4lessIxESaIxEE6_S_keyEPKSt18_Rb_tree_node_base:
.LFB11407:
	.cfi_startproc
	endbr64
	push	rbp
	.cfi_def_cfa_offset 16
	.cfi_offset 6, -16
	mov	rbp, rsp
	.cfi_def_cfa_register 6
	sub	rsp, 16
	mov	QWORD PTR -8[rbp], rdi
	mov	rax, QWORD PTR -8[rbp]
	mov	rdi, rax
	call	_ZNSt8_Rb_treeIxxSt9_IdentityIxESt4lessIxESaIxEE6_S_keyEPKSt13_Rb_tree_nodeIxE
	leave
	.cfi_def_cfa 7, 8
	ret
	.cfi_endproc
.LFE11407:
	.size	_ZNSt8_Rb_treeIxxSt9_IdentityIxESt4lessIxESaIxEE6_S_keyEPKSt18_Rb_tree_node_base, .-_ZNSt8_Rb_treeIxxSt9_IdentityIxESt4lessIxESaIxEE6_S_keyEPKSt18_Rb_tree_node_base
	.section	.text._ZNSt4pairIPSt18_Rb_tree_node_baseS1_EC2IRS1_Lb1EEEOT_RKS1_,"axG",@progbits,_ZNSt4pairIPSt18_Rb_tree_node_baseS1_EC5IRS1_Lb1EEEOT_RKS1_,comdat
	.align 2
	.weak	_ZNSt4pairIPSt18_Rb_tree_node_baseS1_EC2IRS1_Lb1EEEOT_RKS1_
	.type	_ZNSt4pairIPSt18_Rb_tree_node_baseS1_EC2IRS1_Lb1EEEOT_RKS1_, @function
_ZNSt4pairIPSt18_Rb_tree_node_baseS1_EC2IRS1_Lb1EEEOT_RKS1_:
.LFB11409:
	.cfi_startproc
	endbr64
	push	rbp
	.cfi_def_cfa_offset 16
	.cfi_offset 6, -16
	mov	rbp, rsp
	.cfi_def_cfa_register 6
	sub	rsp, 32
	mov	QWORD PTR -8[rbp], rdi
	mov	QWORD PTR -16[rbp], rsi
	mov	QWORD PTR -24[rbp], rdx
	mov	rax, QWORD PTR -16[rbp]
	mov	rdi, rax
	call	_ZSt7forwardIRPSt18_Rb_tree_node_baseEOT_RNSt16remove_referenceIS3_E4typeE
	mov	rdx, QWORD PTR [rax]
	mov	rax, QWORD PTR -8[rbp]
	mov	QWORD PTR [rax], rdx
	mov	rax, QWORD PTR -24[rbp]
	mov	rdx, QWORD PTR [rax]
	mov	rax, QWORD PTR -8[rbp]
	mov	QWORD PTR 8[rax], rdx
	nop
	leave
	.cfi_def_cfa 7, 8
	ret
	.cfi_endproc
.LFE11409:
	.size	_ZNSt4pairIPSt18_Rb_tree_node_baseS1_EC2IRS1_Lb1EEEOT_RKS1_, .-_ZNSt4pairIPSt18_Rb_tree_node_baseS1_EC2IRS1_Lb1EEEOT_RKS1_
	.weak	_ZNSt4pairIPSt18_Rb_tree_node_baseS1_EC1IRS1_Lb1EEEOT_RKS1_
	.set	_ZNSt4pairIPSt18_Rb_tree_node_baseS1_EC1IRS1_Lb1EEEOT_RKS1_,_ZNSt4pairIPSt18_Rb_tree_node_baseS1_EC2IRS1_Lb1EEEOT_RKS1_
	.section	.text._ZNKSt8_Rb_treeIxxSt9_IdentityIxESt4lessIxESaIxEE11_Alloc_nodeclIxEEPSt13_Rb_tree_nodeIxEOT_,"axG",@progbits,_ZNKSt8_Rb_treeIxxSt9_IdentityIxESt4lessIxESaIxEE11_Alloc_nodeclIxEEPSt13_Rb_tree_nodeIxEOT_,comdat
	.align 2
	.weak	_ZNKSt8_Rb_treeIxxSt9_IdentityIxESt4lessIxESaIxEE11_Alloc_nodeclIxEEPSt13_Rb_tree_nodeIxEOT_
	.type	_ZNKSt8_Rb_treeIxxSt9_IdentityIxESt4lessIxESaIxEE11_Alloc_nodeclIxEEPSt13_Rb_tree_nodeIxEOT_, @function
_ZNKSt8_Rb_treeIxxSt9_IdentityIxESt4lessIxESaIxEE11_Alloc_nodeclIxEEPSt13_Rb_tree_nodeIxEOT_:
.LFB11411:
	.cfi_startproc
	endbr64
	push	rbp
	.cfi_def_cfa_offset 16
	.cfi_offset 6, -16
	mov	rbp, rsp
	.cfi_def_cfa_register 6
	push	rbx
	sub	rsp, 24
	.cfi_offset 3, -24
	mov	QWORD PTR -24[rbp], rdi
	mov	QWORD PTR -32[rbp], rsi
	mov	rax, QWORD PTR -24[rbp]
	mov	rbx, QWORD PTR [rax]
	mov	rax, QWORD PTR -32[rbp]
	mov	rdi, rax
	call	_ZSt7forwardIxEOT_RNSt16remove_referenceIS0_E4typeE
	mov	rsi, rax
	mov	rdi, rbx
	call	_ZNSt8_Rb_treeIxxSt9_IdentityIxESt4lessIxESaIxEE14_M_create_nodeIJxEEEPSt13_Rb_tree_nodeIxEDpOT_
	mov	rbx, QWORD PTR -8[rbp]
	leave
	.cfi_def_cfa 7, 8
	ret
	.cfi_endproc
.LFE11411:
	.size	_ZNKSt8_Rb_treeIxxSt9_IdentityIxESt4lessIxESaIxEE11_Alloc_nodeclIxEEPSt13_Rb_tree_nodeIxEOT_, .-_ZNKSt8_Rb_treeIxxSt9_IdentityIxESt4lessIxESaIxEE11_Alloc_nodeclIxEEPSt13_Rb_tree_nodeIxEOT_
	.section	.text._ZSt7forwardISt17_Rb_tree_iteratorIxEEOT_RNSt16remove_referenceIS2_E4typeE,"axG",@progbits,_ZSt7forwardISt17_Rb_tree_iteratorIxEEOT_RNSt16remove_referenceIS2_E4typeE,comdat
	.weak	_ZSt7forwardISt17_Rb_tree_iteratorIxEEOT_RNSt16remove_referenceIS2_E4typeE
	.type	_ZSt7forwardISt17_Rb_tree_iteratorIxEEOT_RNSt16remove_referenceIS2_E4typeE, @function
_ZSt7forwardISt17_Rb_tree_iteratorIxEEOT_RNSt16remove_referenceIS2_E4typeE:
.LFB11412:
	.cfi_startproc
	endbr64
	push	rbp
	.cfi_def_cfa_offset 16
	.cfi_offset 6, -16
	mov	rbp, rsp
	.cfi_def_cfa_register 6
	mov	QWORD PTR -8[rbp], rdi
	mov	rax, QWORD PTR -8[rbp]
	pop	rbp
	.cfi_def_cfa 7, 8
	ret
	.cfi_endproc
.LFE11412:
	.size	_ZSt7forwardISt17_Rb_tree_iteratorIxEEOT_RNSt16remove_referenceIS2_E4typeE, .-_ZSt7forwardISt17_Rb_tree_iteratorIxEEOT_RNSt16remove_referenceIS2_E4typeE
	.section	.text._ZSt14__partial_sortIN9__gnu_cxx17__normal_iteratorIPSt4pairIxS2_IxxEESt6vectorIS4_SaIS4_EEEENS0_5__ops15_Iter_less_iterEEvT_SC_SC_T0_,"axG",@progbits,_ZSt14__partial_sortIN9__gnu_cxx17__normal_iteratorIPSt4pairIxS2_IxxEESt6vectorIS4_SaIS4_EEEENS0_5__ops15_Iter_less_iterEEvT_SC_SC_T0_,comdat
	.weak	_ZSt14__partial_sortIN9__gnu_cxx17__normal_iteratorIPSt4pairIxS2_IxxEESt6vectorIS4_SaIS4_EEEENS0_5__ops15_Iter_less_iterEEvT_SC_SC_T0_
	.type	_ZSt14__partial_sortIN9__gnu_cxx17__normal_iteratorIPSt4pairIxS2_IxxEESt6vectorIS4_SaIS4_EEEENS0_5__ops15_Iter_less_iterEEvT_SC_SC_T0_, @function
_ZSt14__partial_sortIN9__gnu_cxx17__normal_iteratorIPSt4pairIxS2_IxxEESt6vectorIS4_SaIS4_EEEENS0_5__ops15_Iter_less_iterEEvT_SC_SC_T0_:
.LFB11413:
	.cfi_startproc
	endbr64
	push	rbp
	.cfi_def_cfa_offset 16
	.cfi_offset 6, -16
	mov	rbp, rsp
	.cfi_def_cfa_register 6
	sub	rsp, 32
	mov	QWORD PTR -8[rbp], rdi
	mov	QWORD PTR -16[rbp], rsi
	mov	QWORD PTR -24[rbp], rdx
	mov	rdx, QWORD PTR -24[rbp]
	mov	rcx, QWORD PTR -16[rbp]
	mov	rax, QWORD PTR -8[rbp]
	mov	rsi, rcx
	mov	rdi, rax
	call	_ZSt13__heap_selectIN9__gnu_cxx17__normal_iteratorIPSt4pairIxS2_IxxEESt6vectorIS4_SaIS4_EEEENS0_5__ops15_Iter_less_iterEEvT_SC_SC_T0_
	lea	rdx, -25[rbp]
	mov	rcx, QWORD PTR -16[rbp]
	mov	rax, QWORD PTR -8[rbp]
	mov	rsi, rcx
	mov	rdi, rax
	call	_ZSt11__sort_heapIN9__gnu_cxx17__normal_iteratorIPSt4pairIxS2_IxxEESt6vectorIS4_SaIS4_EEEENS0_5__ops15_Iter_less_iterEEvT_SC_RT0_
	nop
	leave
	.cfi_def_cfa 7, 8
	ret
	.cfi_endproc
.LFE11413:
	.size	_ZSt14__partial_sortIN9__gnu_cxx17__normal_iteratorIPSt4pairIxS2_IxxEESt6vectorIS4_SaIS4_EEEENS0_5__ops15_Iter_less_iterEEvT_SC_SC_T0_, .-_ZSt14__partial_sortIN9__gnu_cxx17__normal_iteratorIPSt4pairIxS2_IxxEESt6vectorIS4_SaIS4_EEEENS0_5__ops15_Iter_less_iterEEvT_SC_SC_T0_
	.section	.text._ZSt27__unguarded_partition_pivotIN9__gnu_cxx17__normal_iteratorIPSt4pairIxS2_IxxEESt6vectorIS4_SaIS4_EEEENS0_5__ops15_Iter_less_iterEET_SC_SC_T0_,"axG",@progbits,_ZSt27__unguarded_partition_pivotIN9__gnu_cxx17__normal_iteratorIPSt4pairIxS2_IxxEESt6vectorIS4_SaIS4_EEEENS0_5__ops15_Iter_less_iterEET_SC_SC_T0_,comdat
	.weak	_ZSt27__unguarded_partition_pivotIN9__gnu_cxx17__normal_iteratorIPSt4pairIxS2_IxxEESt6vectorIS4_SaIS4_EEEENS0_5__ops15_Iter_less_iterEET_SC_SC_T0_
	.type	_ZSt27__unguarded_partition_pivotIN9__gnu_cxx17__normal_iteratorIPSt4pairIxS2_IxxEESt6vectorIS4_SaIS4_EEEENS0_5__ops15_Iter_less_iterEET_SC_SC_T0_, @function
_ZSt27__unguarded_partition_pivotIN9__gnu_cxx17__normal_iteratorIPSt4pairIxS2_IxxEESt6vectorIS4_SaIS4_EEEENS0_5__ops15_Iter_less_iterEET_SC_SC_T0_:
.LFB11414:
	.cfi_startproc
	endbr64
	push	rbp
	.cfi_def_cfa_offset 16
	.cfi_offset 6, -16
	mov	rbp, rsp
	.cfi_def_cfa_register 6
	push	rbx
	sub	rsp, 56
	.cfi_offset 3, -24
	mov	QWORD PTR -40[rbp], rdi
	mov	QWORD PTR -48[rbp], rsi
	mov	rax, QWORD PTR fs:40
	mov	QWORD PTR -24[rbp], rax
	xor	eax, eax
	lea	rdx, -40[rbp]
	lea	rax, -48[rbp]
	mov	rsi, rdx
	mov	rdi, rax
	call	_ZN9__gnu_cxxmiIPSt4pairIxS1_IxxEESt6vectorIS3_SaIS3_EEEENS_17__normal_iteratorIT_T0_E15difference_typeERKSB_SE_
	mov	rdx, rax
	shr	rdx, 63
	add	rax, rdx
	sar	rax
	mov	rdx, rax
	lea	rax, -40[rbp]
	mov	rsi, rdx
	mov	rdi, rax
	call	_ZNK9__gnu_cxx17__normal_iteratorIPSt4pairIxS1_IxxEESt6vectorIS3_SaIS3_EEEplEl
	mov	QWORD PTR -32[rbp], rax
	lea	rax, -48[rbp]
	mov	esi, 1
	mov	rdi, rax
	call	_ZNK9__gnu_cxx17__normal_iteratorIPSt4pairIxS1_IxxEESt6vectorIS3_SaIS3_EEEmiEl
	mov	rbx, rax
	lea	rax, -40[rbp]
	mov	esi, 1
	mov	rdi, rax
	call	_ZNK9__gnu_cxx17__normal_iteratorIPSt4pairIxS1_IxxEESt6vectorIS3_SaIS3_EEEplEl
	mov	rsi, rax
	mov	rdx, QWORD PTR -32[rbp]
	mov	rax, QWORD PTR -40[rbp]
	mov	rcx, rbx
	mov	rdi, rax
	call	_ZSt22__move_median_to_firstIN9__gnu_cxx17__normal_iteratorIPSt4pairIxS2_IxxEESt6vectorIS4_SaIS4_EEEENS0_5__ops15_Iter_less_iterEEvT_SC_SC_SC_T0_
	lea	rax, -40[rbp]
	mov	esi, 1
	mov	rdi, rax
	call	_ZNK9__gnu_cxx17__normal_iteratorIPSt4pairIxS1_IxxEESt6vectorIS3_SaIS3_EEEplEl
	mov	rcx, rax
	mov	rdx, QWORD PTR -40[rbp]
	mov	rax, QWORD PTR -48[rbp]
	mov	rsi, rax
	mov	rdi, rcx
	call	_ZSt21__unguarded_partitionIN9__gnu_cxx17__normal_iteratorIPSt4pairIxS2_IxxEESt6vectorIS4_SaIS4_EEEENS0_5__ops15_Iter_less_iterEET_SC_SC_SC_T0_
	mov	rdx, QWORD PTR -24[rbp]
	sub	rdx, QWORD PTR fs:40
	je	.L336
	call	__stack_chk_fail@PLT
.L336:
	mov	rbx, QWORD PTR -8[rbp]
	leave
	.cfi_def_cfa 7, 8
	ret
	.cfi_endproc
.LFE11414:
	.size	_ZSt27__unguarded_partition_pivotIN9__gnu_cxx17__normal_iteratorIPSt4pairIxS2_IxxEESt6vectorIS4_SaIS4_EEEENS0_5__ops15_Iter_less_iterEET_SC_SC_T0_, .-_ZSt27__unguarded_partition_pivotIN9__gnu_cxx17__normal_iteratorIPSt4pairIxS2_IxxEESt6vectorIS4_SaIS4_EEEENS0_5__ops15_Iter_less_iterEET_SC_SC_T0_
	.section	.text._ZNK9__gnu_cxx17__normal_iteratorIPSt4pairIxS1_IxxEESt6vectorIS3_SaIS3_EEEplEl,"axG",@progbits,_ZNK9__gnu_cxx17__normal_iteratorIPSt4pairIxS1_IxxEESt6vectorIS3_SaIS3_EEEplEl,comdat
	.align 2
	.weak	_ZNK9__gnu_cxx17__normal_iteratorIPSt4pairIxS1_IxxEESt6vectorIS3_SaIS3_EEEplEl
	.type	_ZNK9__gnu_cxx17__normal_iteratorIPSt4pairIxS1_IxxEESt6vectorIS3_SaIS3_EEEplEl, @function
_ZNK9__gnu_cxx17__normal_iteratorIPSt4pairIxS1_IxxEESt6vectorIS3_SaIS3_EEEplEl:
.LFB11415:
	.cfi_startproc
	endbr64
	push	rbp
	.cfi_def_cfa_offset 16
	.cfi_offset 6, -16
	mov	rbp, rsp
	.cfi_def_cfa_register 6
	sub	rsp, 48
	mov	QWORD PTR -40[rbp], rdi
	mov	QWORD PTR -48[rbp], rsi
	mov	rax, QWORD PTR fs:40
	mov	QWORD PTR -8[rbp], rax
	xor	eax, eax
	mov	rax, QWORD PTR -40[rbp]
	mov	rcx, QWORD PTR [rax]
	mov	rdx, QWORD PTR -48[rbp]
	mov	rax, rdx
	add	rax, rax
	add	rax, rdx
	sal	rax, 3
	add	rax, rcx
	mov	QWORD PTR -24[rbp], rax
	lea	rdx, -24[rbp]
	lea	rax, -16[rbp]
	mov	rsi, rdx
	mov	rdi, rax
	call	_ZN9__gnu_cxx17__normal_iteratorIPSt4pairIxS1_IxxEESt6vectorIS3_SaIS3_EEEC1ERKS4_
	mov	rax, QWORD PTR -16[rbp]
	mov	rdx, QWORD PTR -8[rbp]
	sub	rdx, QWORD PTR fs:40
	je	.L339
	call	__stack_chk_fail@PLT
.L339:
	leave
	.cfi_def_cfa 7, 8
	ret
	.cfi_endproc
.LFE11415:
	.size	_ZNK9__gnu_cxx17__normal_iteratorIPSt4pairIxS1_IxxEESt6vectorIS3_SaIS3_EEEplEl, .-_ZNK9__gnu_cxx17__normal_iteratorIPSt4pairIxS1_IxxEESt6vectorIS3_SaIS3_EEEplEl
	.section	.text._ZSt16__insertion_sortIN9__gnu_cxx17__normal_iteratorIPSt4pairIxS2_IxxEESt6vectorIS4_SaIS4_EEEENS0_5__ops15_Iter_less_iterEEvT_SC_T0_,"axG",@progbits,_ZSt16__insertion_sortIN9__gnu_cxx17__normal_iteratorIPSt4pairIxS2_IxxEESt6vectorIS4_SaIS4_EEEENS0_5__ops15_Iter_less_iterEEvT_SC_T0_,comdat
	.weak	_ZSt16__insertion_sortIN9__gnu_cxx17__normal_iteratorIPSt4pairIxS2_IxxEESt6vectorIS4_SaIS4_EEEENS0_5__ops15_Iter_less_iterEEvT_SC_T0_
	.type	_ZSt16__insertion_sortIN9__gnu_cxx17__normal_iteratorIPSt4pairIxS2_IxxEESt6vectorIS4_SaIS4_EEEENS0_5__ops15_Iter_less_iterEEvT_SC_T0_, @function
_ZSt16__insertion_sortIN9__gnu_cxx17__normal_iteratorIPSt4pairIxS2_IxxEESt6vectorIS4_SaIS4_EEEENS0_5__ops15_Iter_less_iterEEvT_SC_T0_:
.LFB11416:
	.cfi_startproc
	endbr64
	push	rbp
	.cfi_def_cfa_offset 16
	.cfi_offset 6, -16
	mov	rbp, rsp
	.cfi_def_cfa_register 6
	push	rbx
	sub	rsp, 88
	.cfi_offset 3, -24
	mov	QWORD PTR -72[rbp], rdi
	mov	QWORD PTR -80[rbp], rsi
	mov	rax, QWORD PTR fs:40
	mov	QWORD PTR -24[rbp], rax
	xor	eax, eax
	lea	rdx, -80[rbp]
	lea	rax, -72[rbp]
	mov	rsi, rdx
	mov	rdi, rax
	call	_ZN9__gnu_cxxeqIPSt4pairIxS1_IxxEESt6vectorIS3_SaIS3_EEEEbRKNS_17__normal_iteratorIT_T0_EESD_
	test	al, al
	jne	.L348
	lea	rax, -72[rbp]
	mov	esi, 1
	mov	rdi, rax
	call	_ZNK9__gnu_cxx17__normal_iteratorIPSt4pairIxS1_IxxEESt6vectorIS3_SaIS3_EEEplEl
	mov	QWORD PTR -56[rbp], rax
	jmp	.L343
.L346:
	mov	rdx, QWORD PTR -72[rbp]
	mov	rcx, QWORD PTR -56[rbp]
	lea	rax, -81[rbp]
	mov	rsi, rcx
	mov	rdi, rax
	call	_ZNK9__gnu_cxx5__ops15_Iter_less_iterclINS_17__normal_iteratorIPSt4pairIxS4_IxxEESt6vectorIS6_SaIS6_EEEESB_EEbT_T0_
	test	al, al
	je	.L344
	lea	rax, -56[rbp]
	mov	rdi, rax
	call	_ZNK9__gnu_cxx17__normal_iteratorIPSt4pairIxS1_IxxEESt6vectorIS3_SaIS3_EEEdeEv
	mov	rdi, rax
	call	_ZSt4moveIRSt4pairIxS0_IxxEEEONSt16remove_referenceIT_E4typeEOS5_
	mov	rcx, rax
	mov	rax, QWORD PTR [rcx]
	mov	rdx, QWORD PTR 8[rcx]
	mov	QWORD PTR -48[rbp], rax
	mov	QWORD PTR -40[rbp], rdx
	mov	rax, QWORD PTR 16[rcx]
	mov	QWORD PTR -32[rbp], rax
	lea	rax, -56[rbp]
	mov	esi, 1
	mov	rdi, rax
	call	_ZNK9__gnu_cxx17__normal_iteratorIPSt4pairIxS1_IxxEESt6vectorIS3_SaIS3_EEEplEl
	mov	rdx, rax
	mov	rcx, QWORD PTR -56[rbp]
	mov	rax, QWORD PTR -72[rbp]
	mov	rsi, rcx
	mov	rdi, rax
	call	_ZSt13move_backwardIN9__gnu_cxx17__normal_iteratorIPSt4pairIxS2_IxxEESt6vectorIS4_SaIS4_EEEES9_ET0_T_SB_SA_
	lea	rax, -48[rbp]
	mov	rdi, rax
	call	_ZSt4moveIRSt4pairIxS0_IxxEEEONSt16remove_referenceIT_E4typeEOS5_
	mov	rbx, rax
	lea	rax, -72[rbp]
	mov	rdi, rax
	call	_ZNK9__gnu_cxx17__normal_iteratorIPSt4pairIxS1_IxxEESt6vectorIS3_SaIS3_EEEdeEv
	mov	rsi, rbx
	mov	rdi, rax
	call	_ZNSt4pairIxS_IxxEEaSEOS1_
	jmp	.L345
.L344:
	call	_ZN9__gnu_cxx5__ops15__val_comp_iterENS0_15_Iter_less_iterE
	mov	rax, QWORD PTR -56[rbp]
	mov	rdi, rax
	call	_ZSt25__unguarded_linear_insertIN9__gnu_cxx17__normal_iteratorIPSt4pairIxS2_IxxEESt6vectorIS4_SaIS4_EEEENS0_5__ops14_Val_less_iterEEvT_T0_
.L345:
	lea	rax, -56[rbp]
	mov	rdi, rax
	call	_ZN9__gnu_cxx17__normal_iteratorIPSt4pairIxS1_IxxEESt6vectorIS3_SaIS3_EEEppEv
.L343:
	lea	rdx, -80[rbp]
	lea	rax, -56[rbp]
	mov	rsi, rdx
	mov	rdi, rax
	call	_ZN9__gnu_cxxneIPSt4pairIxS1_IxxEESt6vectorIS3_SaIS3_EEEEbRKNS_17__normal_iteratorIT_T0_EESD_
	test	al, al
	jne	.L346
	jmp	.L340
.L348:
	nop
.L340:
	mov	rax, QWORD PTR -24[rbp]
	sub	rax, QWORD PTR fs:40
	je	.L347
	call	__stack_chk_fail@PLT
.L347:
	mov	rbx, QWORD PTR -8[rbp]
	leave
	.cfi_def_cfa 7, 8
	ret
	.cfi_endproc
.LFE11416:
	.size	_ZSt16__insertion_sortIN9__gnu_cxx17__normal_iteratorIPSt4pairIxS2_IxxEESt6vectorIS4_SaIS4_EEEENS0_5__ops15_Iter_less_iterEEvT_SC_T0_, .-_ZSt16__insertion_sortIN9__gnu_cxx17__normal_iteratorIPSt4pairIxS2_IxxEESt6vectorIS4_SaIS4_EEEENS0_5__ops15_Iter_less_iterEEvT_SC_T0_
	.section	.text._ZSt26__unguarded_insertion_sortIN9__gnu_cxx17__normal_iteratorIPSt4pairIxS2_IxxEESt6vectorIS4_SaIS4_EEEENS0_5__ops15_Iter_less_iterEEvT_SC_T0_,"axG",@progbits,_ZSt26__unguarded_insertion_sortIN9__gnu_cxx17__normal_iteratorIPSt4pairIxS2_IxxEESt6vectorIS4_SaIS4_EEEENS0_5__ops15_Iter_less_iterEEvT_SC_T0_,comdat
	.weak	_ZSt26__unguarded_insertion_sortIN9__gnu_cxx17__normal_iteratorIPSt4pairIxS2_IxxEESt6vectorIS4_SaIS4_EEEENS0_5__ops15_Iter_less_iterEEvT_SC_T0_
	.type	_ZSt26__unguarded_insertion_sortIN9__gnu_cxx17__normal_iteratorIPSt4pairIxS2_IxxEESt6vectorIS4_SaIS4_EEEENS0_5__ops15_Iter_less_iterEEvT_SC_T0_, @function
_ZSt26__unguarded_insertion_sortIN9__gnu_cxx17__normal_iteratorIPSt4pairIxS2_IxxEESt6vectorIS4_SaIS4_EEEENS0_5__ops15_Iter_less_iterEEvT_SC_T0_:
.LFB11417:
	.cfi_startproc
	endbr64
	push	rbp
	.cfi_def_cfa_offset 16
	.cfi_offset 6, -16
	mov	rbp, rsp
	.cfi_def_cfa_register 6
	sub	rsp, 48
	mov	QWORD PTR -24[rbp], rdi
	mov	QWORD PTR -32[rbp], rsi
	mov	rax, QWORD PTR fs:40
	mov	QWORD PTR -8[rbp], rax
	xor	eax, eax
	mov	rax, QWORD PTR -24[rbp]
	mov	QWORD PTR -16[rbp], rax
	jmp	.L350
.L351:
	call	_ZN9__gnu_cxx5__ops15__val_comp_iterENS0_15_Iter_less_iterE
	mov	rax, QWORD PTR -16[rbp]
	mov	rdi, rax
	call	_ZSt25__unguarded_linear_insertIN9__gnu_cxx17__normal_iteratorIPSt4pairIxS2_IxxEESt6vectorIS4_SaIS4_EEEENS0_5__ops14_Val_less_iterEEvT_T0_
	lea	rax, -16[rbp]
	mov	rdi, rax
	call	_ZN9__gnu_cxx17__normal_iteratorIPSt4pairIxS1_IxxEESt6vectorIS3_SaIS3_EEEppEv
.L350:
	lea	rdx, -32[rbp]
	lea	rax, -16[rbp]
	mov	rsi, rdx
	mov	rdi, rax
	call	_ZN9__gnu_cxxneIPSt4pairIxS1_IxxEESt6vectorIS3_SaIS3_EEEEbRKNS_17__normal_iteratorIT_T0_EESD_
	test	al, al
	jne	.L351
	nop
	mov	rax, QWORD PTR -8[rbp]
	sub	rax, QWORD PTR fs:40
	je	.L352
	call	__stack_chk_fail@PLT
.L352:
	leave
	.cfi_def_cfa 7, 8
	ret
	.cfi_endproc
.LFE11417:
	.size	_ZSt26__unguarded_insertion_sortIN9__gnu_cxx17__normal_iteratorIPSt4pairIxS2_IxxEESt6vectorIS4_SaIS4_EEEENS0_5__ops15_Iter_less_iterEEvT_SC_T0_, .-_ZSt26__unguarded_insertion_sortIN9__gnu_cxx17__normal_iteratorIPSt4pairIxS2_IxxEESt6vectorIS4_SaIS4_EEEENS0_5__ops15_Iter_less_iterEEvT_SC_T0_
	.section	.text._ZNK9__gnu_cxx16__aligned_membufIxE7_M_addrEv,"axG",@progbits,_ZNK9__gnu_cxx16__aligned_membufIxE7_M_addrEv,comdat
	.align 2
	.weak	_ZNK9__gnu_cxx16__aligned_membufIxE7_M_addrEv
	.type	_ZNK9__gnu_cxx16__aligned_membufIxE7_M_addrEv, @function
_ZNK9__gnu_cxx16__aligned_membufIxE7_M_addrEv:
.LFB11418:
	.cfi_startproc
	endbr64
	push	rbp
	.cfi_def_cfa_offset 16
	.cfi_offset 6, -16
	mov	rbp, rsp
	.cfi_def_cfa_register 6
	mov	QWORD PTR -8[rbp], rdi
	mov	rax, QWORD PTR -8[rbp]
	pop	rbp
	.cfi_def_cfa 7, 8
	ret
	.cfi_endproc
.LFE11418:
	.size	_ZNK9__gnu_cxx16__aligned_membufIxE7_M_addrEv, .-_ZNK9__gnu_cxx16__aligned_membufIxE7_M_addrEv
	.section	.text._ZNKSt8_Rb_treeIxxSt9_IdentityIxESt4lessIxESaIxEE11_Alloc_nodeclIRKxEEPSt13_Rb_tree_nodeIxEOT_,"axG",@progbits,_ZNKSt8_Rb_treeIxxSt9_IdentityIxESt4lessIxESaIxEE11_Alloc_nodeclIRKxEEPSt13_Rb_tree_nodeIxEOT_,comdat
	.align 2
	.weak	_ZNKSt8_Rb_treeIxxSt9_IdentityIxESt4lessIxESaIxEE11_Alloc_nodeclIRKxEEPSt13_Rb_tree_nodeIxEOT_
	.type	_ZNKSt8_Rb_treeIxxSt9_IdentityIxESt4lessIxESaIxEE11_Alloc_nodeclIRKxEEPSt13_Rb_tree_nodeIxEOT_, @function
_ZNKSt8_Rb_treeIxxSt9_IdentityIxESt4lessIxESaIxEE11_Alloc_nodeclIRKxEEPSt13_Rb_tree_nodeIxEOT_:
.LFB11419:
	.cfi_startproc
	endbr64
	push	rbp
	.cfi_def_cfa_offset 16
	.cfi_offset 6, -16
	mov	rbp, rsp
	.cfi_def_cfa_register 6
	push	rbx
	sub	rsp, 24
	.cfi_offset 3, -24
	mov	QWORD PTR -24[rbp], rdi
	mov	QWORD PTR -32[rbp], rsi
	mov	rax, QWORD PTR -24[rbp]
	mov	rbx, QWORD PTR [rax]
	mov	rax, QWORD PTR -32[rbp]
	mov	rdi, rax
	call	_ZSt7forwardIRKxEOT_RNSt16remove_referenceIS2_E4typeE
	mov	rsi, rax
	mov	rdi, rbx
	call	_ZNSt8_Rb_treeIxxSt9_IdentityIxESt4lessIxESaIxEE14_M_create_nodeIJRKxEEEPSt13_Rb_tree_nodeIxEDpOT_
	mov	rbx, QWORD PTR -8[rbp]
	leave
	.cfi_def_cfa 7, 8
	ret
	.cfi_endproc
.LFE11419:
	.size	_ZNKSt8_Rb_treeIxxSt9_IdentityIxESt4lessIxESaIxEE11_Alloc_nodeclIRKxEEPSt13_Rb_tree_nodeIxEOT_, .-_ZNKSt8_Rb_treeIxxSt9_IdentityIxESt4lessIxESaIxEE11_Alloc_nodeclIRKxEEPSt13_Rb_tree_nodeIxEOT_
	.section	.text._ZNK9__gnu_cxx13new_allocatorIxE8max_sizeEv,"axG",@progbits,_ZNK9__gnu_cxx13new_allocatorIxE8max_sizeEv,comdat
	.align 2
	.weak	_ZNK9__gnu_cxx13new_allocatorIxE8max_sizeEv
	.type	_ZNK9__gnu_cxx13new_allocatorIxE8max_sizeEv, @function
_ZNK9__gnu_cxx13new_allocatorIxE8max_sizeEv:
.LFB11504:
	.cfi_startproc
	endbr64
	push	rbp
	.cfi_def_cfa_offset 16
	.cfi_offset 6, -16
	mov	rbp, rsp
	.cfi_def_cfa_register 6
	sub	rsp, 16
	mov	QWORD PTR -8[rbp], rdi
	mov	rax, QWORD PTR -8[rbp]
	mov	rdi, rax
	call	_ZNK9__gnu_cxx13new_allocatorIxE11_M_max_sizeEv
	leave
	.cfi_def_cfa 7, 8
	ret
	.cfi_endproc
.LFE11504:
	.size	_ZNK9__gnu_cxx13new_allocatorIxE8max_sizeEv, .-_ZNK9__gnu_cxx13new_allocatorIxE8max_sizeEv
	.section	.text._ZNSt16allocator_traitsISaIxEE8allocateERS0_m,"axG",@progbits,_ZNSt16allocator_traitsISaIxEE8allocateERS0_m,comdat
	.weak	_ZNSt16allocator_traitsISaIxEE8allocateERS0_m
	.type	_ZNSt16allocator_traitsISaIxEE8allocateERS0_m, @function
_ZNSt16allocator_traitsISaIxEE8allocateERS0_m:
.LFB11505:
	.cfi_startproc
	endbr64
	push	rbp
	.cfi_def_cfa_offset 16
	.cfi_offset 6, -16
	mov	rbp, rsp
	.cfi_def_cfa_register 6
	sub	rsp, 16
	mov	QWORD PTR -8[rbp], rdi
	mov	QWORD PTR -16[rbp], rsi
	mov	rcx, QWORD PTR -16[rbp]
	mov	rax, QWORD PTR -8[rbp]
	mov	edx, 0
	mov	rsi, rcx
	mov	rdi, rax
	call	_ZN9__gnu_cxx13new_allocatorIxE8allocateEmPKv
	leave
	.cfi_def_cfa 7, 8
	ret
	.cfi_endproc
.LFE11505:
	.size	_ZNSt16allocator_traitsISaIxEE8allocateERS0_m, .-_ZNSt16allocator_traitsISaIxEE8allocateERS0_m
	.section	.text._ZN9__gnu_cxx13new_allocatorIxE10deallocateEPxm,"axG",@progbits,_ZN9__gnu_cxx13new_allocatorIxE10deallocateEPxm,comdat
	.align 2
	.weak	_ZN9__gnu_cxx13new_allocatorIxE10deallocateEPxm
	.type	_ZN9__gnu_cxx13new_allocatorIxE10deallocateEPxm, @function
_ZN9__gnu_cxx13new_allocatorIxE10deallocateEPxm:
.LFB11506:
	.cfi_startproc
	endbr64
	push	rbp
	.cfi_def_cfa_offset 16
	.cfi_offset 6, -16
	mov	rbp, rsp
	.cfi_def_cfa_register 6
	sub	rsp, 32
	mov	QWORD PTR -8[rbp], rdi
	mov	QWORD PTR -16[rbp], rsi
	mov	QWORD PTR -24[rbp], rdx
	mov	rax, QWORD PTR -24[rbp]
	lea	rdx, 0[0+rax*8]
	mov	rax, QWORD PTR -16[rbp]
	mov	rsi, rdx
	mov	rdi, rax
	call	_ZdlPvm@PLT
	leave
	.cfi_def_cfa 7, 8
	ret
	.cfi_endproc
.LFE11506:
	.size	_ZN9__gnu_cxx13new_allocatorIxE10deallocateEPxm, .-_ZN9__gnu_cxx13new_allocatorIxE10deallocateEPxm
	.section	.text._ZNSt22__uninitialized_fill_nILb1EE15__uninit_fill_nIPxmxEET_S3_T0_RKT1_,"axG",@progbits,_ZNSt22__uninitialized_fill_nILb1EE15__uninit_fill_nIPxmxEET_S3_T0_RKT1_,comdat
	.weak	_ZNSt22__uninitialized_fill_nILb1EE15__uninit_fill_nIPxmxEET_S3_T0_RKT1_
	.type	_ZNSt22__uninitialized_fill_nILb1EE15__uninit_fill_nIPxmxEET_S3_T0_RKT1_, @function
_ZNSt22__uninitialized_fill_nILb1EE15__uninit_fill_nIPxmxEET_S3_T0_RKT1_:
.LFB11507:
	.cfi_startproc
	endbr64
	push	rbp
	.cfi_def_cfa_offset 16
	.cfi_offset 6, -16
	mov	rbp, rsp
	.cfi_def_cfa_register 6
	sub	rsp, 32
	mov	QWORD PTR -8[rbp], rdi
	mov	QWORD PTR -16[rbp], rsi
	mov	QWORD PTR -24[rbp], rdx
	mov	rdx, QWORD PTR -24[rbp]
	mov	rcx, QWORD PTR -16[rbp]
	mov	rax, QWORD PTR -8[rbp]
	mov	rsi, rcx
	mov	rdi, rax
	call	_ZSt6fill_nIPxmxET_S1_T0_RKT1_
	leave
	.cfi_def_cfa 7, 8
	ret
	.cfi_endproc
.LFE11507:
	.size	_ZNSt22__uninitialized_fill_nILb1EE15__uninit_fill_nIPxmxEET_S3_T0_RKT1_, .-_ZNSt22__uninitialized_fill_nILb1EE15__uninit_fill_nIPxmxEET_S3_T0_RKT1_
	.section	.text._ZNKSt6vectorISt4pairIxS0_IxxEESaIS2_EE8max_sizeEv,"axG",@progbits,_ZNKSt6vectorISt4pairIxS0_IxxEESaIS2_EE8max_sizeEv,comdat
	.align 2
	.weak	_ZNKSt6vectorISt4pairIxS0_IxxEESaIS2_EE8max_sizeEv
	.type	_ZNKSt6vectorISt4pairIxS0_IxxEESaIS2_EE8max_sizeEv, @function
_ZNKSt6vectorISt4pairIxS0_IxxEESaIS2_EE8max_sizeEv:
.LFB11508:
	.cfi_startproc
	endbr64
	push	rbp
	.cfi_def_cfa_offset 16
	.cfi_offset 6, -16
	mov	rbp, rsp
	.cfi_def_cfa_register 6
	sub	rsp, 16
	mov	QWORD PTR -8[rbp], rdi
	mov	rax, QWORD PTR -8[rbp]
	mov	rdi, rax
	call	_ZNKSt12_Vector_baseISt4pairIxS0_IxxEESaIS2_EE19_M_get_Tp_allocatorEv
	mov	rdi, rax
	call	_ZNSt6vectorISt4pairIxS0_IxxEESaIS2_EE11_S_max_sizeERKS3_
	leave
	.cfi_def_cfa 7, 8
	ret
	.cfi_endproc
.LFE11508:
	.size	_ZNKSt6vectorISt4pairIxS0_IxxEESaIS2_EE8max_sizeEv, .-_ZNKSt6vectorISt4pairIxS0_IxxEESaIS2_EE8max_sizeEv
	.section	.text._ZNKSt6vectorISt4pairIxS0_IxxEESaIS2_EE4sizeEv,"axG",@progbits,_ZNKSt6vectorISt4pairIxS0_IxxEESaIS2_EE4sizeEv,comdat
	.align 2
	.weak	_ZNKSt6vectorISt4pairIxS0_IxxEESaIS2_EE4sizeEv
	.type	_ZNKSt6vectorISt4pairIxS0_IxxEESaIS2_EE4sizeEv, @function
_ZNKSt6vectorISt4pairIxS0_IxxEESaIS2_EE4sizeEv:
.LFB11509:
	.cfi_startproc
	endbr64
	push	rbp
	.cfi_def_cfa_offset 16
	.cfi_offset 6, -16
	mov	rbp, rsp
	.cfi_def_cfa_register 6
	mov	QWORD PTR -8[rbp], rdi
	mov	rax, QWORD PTR -8[rbp]
	mov	rdx, QWORD PTR 8[rax]
	mov	rax, QWORD PTR -8[rbp]
	mov	rcx, QWORD PTR [rax]
	mov	rax, rdx
	sub	rax, rcx
	sar	rax, 3
	mov	rdx, rax
	movabs	rax, -6148914691236517205
	imul	rax, rdx
	pop	rbp
	.cfi_def_cfa 7, 8
	ret
	.cfi_endproc
.LFE11509:
	.size	_ZNKSt6vectorISt4pairIxS0_IxxEESaIS2_EE4sizeEv, .-_ZNKSt6vectorISt4pairIxS0_IxxEESaIS2_EE4sizeEv
	.section	.text._ZNSt16allocator_traitsISaISt4pairIxS0_IxxEEEE8allocateERS3_m,"axG",@progbits,_ZNSt16allocator_traitsISaISt4pairIxS0_IxxEEEE8allocateERS3_m,comdat
	.weak	_ZNSt16allocator_traitsISaISt4pairIxS0_IxxEEEE8allocateERS3_m
	.type	_ZNSt16allocator_traitsISaISt4pairIxS0_IxxEEEE8allocateERS3_m, @function
_ZNSt16allocator_traitsISaISt4pairIxS0_IxxEEEE8allocateERS3_m:
.LFB11510:
	.cfi_startproc
	endbr64
	push	rbp
	.cfi_def_cfa_offset 16
	.cfi_offset 6, -16
	mov	rbp, rsp
	.cfi_def_cfa_register 6
	sub	rsp, 16
	mov	QWORD PTR -8[rbp], rdi
	mov	QWORD PTR -16[rbp], rsi
	mov	rcx, QWORD PTR -16[rbp]
	mov	rax, QWORD PTR -8[rbp]
	mov	edx, 0
	mov	rsi, rcx
	mov	rdi, rax
	call	_ZN9__gnu_cxx13new_allocatorISt4pairIxS1_IxxEEE8allocateEmPKv
	leave
	.cfi_def_cfa 7, 8
	ret
	.cfi_endproc
.LFE11510:
	.size	_ZNSt16allocator_traitsISaISt4pairIxS0_IxxEEEE8allocateERS3_m, .-_ZNSt16allocator_traitsISaISt4pairIxS0_IxxEEEE8allocateERS3_m
	.section	.text._ZNSt6vectorISt4pairIxS0_IxxEESaIS2_EE14_S_do_relocateEPS2_S5_S5_RS3_St17integral_constantIbLb1EE,"axG",@progbits,_ZNSt6vectorISt4pairIxS0_IxxEESaIS2_EE14_S_do_relocateEPS2_S5_S5_RS3_St17integral_constantIbLb1EE,comdat
	.weak	_ZNSt6vectorISt4pairIxS0_IxxEESaIS2_EE14_S_do_relocateEPS2_S5_S5_RS3_St17integral_constantIbLb1EE
	.type	_ZNSt6vectorISt4pairIxS0_IxxEESaIS2_EE14_S_do_relocateEPS2_S5_S5_RS3_St17integral_constantIbLb1EE, @function
_ZNSt6vectorISt4pairIxS0_IxxEESaIS2_EE14_S_do_relocateEPS2_S5_S5_RS3_St17integral_constantIbLb1EE:
.LFB11511:
	.cfi_startproc
	endbr64
	push	rbp
	.cfi_def_cfa_offset 16
	.cfi_offset 6, -16
	mov	rbp, rsp
	.cfi_def_cfa_register 6
	sub	rsp, 32
	mov	QWORD PTR -8[rbp], rdi
	mov	QWORD PTR -16[rbp], rsi
	mov	QWORD PTR -24[rbp], rdx
	mov	QWORD PTR -32[rbp], rcx
	mov	rcx, QWORD PTR -32[rbp]
	mov	rdx, QWORD PTR -24[rbp]
	mov	rsi, QWORD PTR -16[rbp]
	mov	rax, QWORD PTR -8[rbp]
	mov	rdi, rax
	call	_ZSt12__relocate_aIPSt4pairIxS0_IxxEES3_SaIS2_EET0_T_S6_S5_RT1_
	leave
	.cfi_def_cfa 7, 8
	ret
	.cfi_endproc
.LFE11511:
	.size	_ZNSt6vectorISt4pairIxS0_IxxEESaIS2_EE14_S_do_relocateEPS2_S5_S5_RS3_St17integral_constantIbLb1EE, .-_ZNSt6vectorISt4pairIxS0_IxxEESaIS2_EE14_S_do_relocateEPS2_S5_S5_RS3_St17integral_constantIbLb1EE
	.section	.text._ZN9__gnu_cxx13new_allocatorISt4pairIxS1_IxxEEE7destroyIS3_EEvPT_,"axG",@progbits,_ZN9__gnu_cxx13new_allocatorISt4pairIxS1_IxxEEE7destroyIS3_EEvPT_,comdat
	.align 2
	.weak	_ZN9__gnu_cxx13new_allocatorISt4pairIxS1_IxxEEE7destroyIS3_EEvPT_
	.type	_ZN9__gnu_cxx13new_allocatorISt4pairIxS1_IxxEEE7destroyIS3_EEvPT_, @function
_ZN9__gnu_cxx13new_allocatorISt4pairIxS1_IxxEEE7destroyIS3_EEvPT_:
.LFB11512:
	.cfi_startproc
	endbr64
	push	rbp
	.cfi_def_cfa_offset 16
	.cfi_offset 6, -16
	mov	rbp, rsp
	.cfi_def_cfa_register 6
	mov	QWORD PTR -8[rbp], rdi
	mov	QWORD PTR -16[rbp], rsi
	nop
	pop	rbp
	.cfi_def_cfa 7, 8
	ret
	.cfi_endproc
.LFE11512:
	.size	_ZN9__gnu_cxx13new_allocatorISt4pairIxS1_IxxEEE7destroyIS3_EEvPT_, .-_ZN9__gnu_cxx13new_allocatorISt4pairIxS1_IxxEEE7destroyIS3_EEvPT_
	.section	.text._ZNSt8_Rb_treeIxxSt9_IdentityIxESt4lessIxESaIxEE21_M_get_Node_allocatorEv,"axG",@progbits,_ZNSt8_Rb_treeIxxSt9_IdentityIxESt4lessIxESaIxEE21_M_get_Node_allocatorEv,comdat
	.align 2
	.weak	_ZNSt8_Rb_treeIxxSt9_IdentityIxESt4lessIxESaIxEE21_M_get_Node_allocatorEv
	.type	_ZNSt8_Rb_treeIxxSt9_IdentityIxESt4lessIxESaIxEE21_M_get_Node_allocatorEv, @function
_ZNSt8_Rb_treeIxxSt9_IdentityIxESt4lessIxESaIxEE21_M_get_Node_allocatorEv:
.LFB11513:
	.cfi_startproc
	endbr64
	push	rbp
	.cfi_def_cfa_offset 16
	.cfi_offset 6, -16
	mov	rbp, rsp
	.cfi_def_cfa_register 6
	mov	QWORD PTR -8[rbp], rdi
	mov	rax, QWORD PTR -8[rbp]
	pop	rbp
	.cfi_def_cfa 7, 8
	ret
	.cfi_endproc
.LFE11513:
	.size	_ZNSt8_Rb_treeIxxSt9_IdentityIxESt4lessIxESaIxEE21_M_get_Node_allocatorEv, .-_ZNSt8_Rb_treeIxxSt9_IdentityIxESt4lessIxESaIxEE21_M_get_Node_allocatorEv
	.section	.text._ZNSt13_Rb_tree_nodeIxE9_M_valptrEv,"axG",@progbits,_ZNSt13_Rb_tree_nodeIxE9_M_valptrEv,comdat
	.align 2
	.weak	_ZNSt13_Rb_tree_nodeIxE9_M_valptrEv
	.type	_ZNSt13_Rb_tree_nodeIxE9_M_valptrEv, @function
_ZNSt13_Rb_tree_nodeIxE9_M_valptrEv:
.LFB11514:
	.cfi_startproc
	endbr64
	push	rbp
	.cfi_def_cfa_offset 16
	.cfi_offset 6, -16
	mov	rbp, rsp
	.cfi_def_cfa_register 6
	sub	rsp, 16
	mov	QWORD PTR -8[rbp], rdi
	mov	rax, QWORD PTR -8[rbp]
	add	rax, 32
	mov	rdi, rax
	call	_ZN9__gnu_cxx16__aligned_membufIxE6_M_ptrEv
	leave
	.cfi_def_cfa 7, 8
	ret
	.cfi_endproc
.LFE11514:
	.size	_ZNSt13_Rb_tree_nodeIxE9_M_valptrEv, .-_ZNSt13_Rb_tree_nodeIxE9_M_valptrEv
	.section	.text._ZNSt16allocator_traitsISaISt13_Rb_tree_nodeIxEEE7destroyIxEEvRS2_PT_,"axG",@progbits,_ZNSt16allocator_traitsISaISt13_Rb_tree_nodeIxEEE7destroyIxEEvRS2_PT_,comdat
	.weak	_ZNSt16allocator_traitsISaISt13_Rb_tree_nodeIxEEE7destroyIxEEvRS2_PT_
	.type	_ZNSt16allocator_traitsISaISt13_Rb_tree_nodeIxEEE7destroyIxEEvRS2_PT_, @function
_ZNSt16allocator_traitsISaISt13_Rb_tree_nodeIxEEE7destroyIxEEvRS2_PT_:
.LFB11515:
	.cfi_startproc
	endbr64
	push	rbp
	.cfi_def_cfa_offset 16
	.cfi_offset 6, -16
	mov	rbp, rsp
	.cfi_def_cfa_register 6
	sub	rsp, 16
	mov	QWORD PTR -8[rbp], rdi
	mov	QWORD PTR -16[rbp], rsi
	mov	rdx, QWORD PTR -16[rbp]
	mov	rax, QWORD PTR -8[rbp]
	mov	rsi, rdx
	mov	rdi, rax
	call	_ZN9__gnu_cxx13new_allocatorISt13_Rb_tree_nodeIxEE7destroyIxEEvPT_
	nop
	leave
	.cfi_def_cfa 7, 8
	ret
	.cfi_endproc
.LFE11515:
	.size	_ZNSt16allocator_traitsISaISt13_Rb_tree_nodeIxEEE7destroyIxEEvRS2_PT_, .-_ZNSt16allocator_traitsISaISt13_Rb_tree_nodeIxEEE7destroyIxEEvRS2_PT_
	.section	.text._ZNSt16allocator_traitsISaISt13_Rb_tree_nodeIxEEE10deallocateERS2_PS1_m,"axG",@progbits,_ZNSt16allocator_traitsISaISt13_Rb_tree_nodeIxEEE10deallocateERS2_PS1_m,comdat
	.weak	_ZNSt16allocator_traitsISaISt13_Rb_tree_nodeIxEEE10deallocateERS2_PS1_m
	.type	_ZNSt16allocator_traitsISaISt13_Rb_tree_nodeIxEEE10deallocateERS2_PS1_m, @function
_ZNSt16allocator_traitsISaISt13_Rb_tree_nodeIxEEE10deallocateERS2_PS1_m:
.LFB11516:
	.cfi_startproc
	endbr64
	push	rbp
	.cfi_def_cfa_offset 16
	.cfi_offset 6, -16
	mov	rbp, rsp
	.cfi_def_cfa_register 6
	sub	rsp, 32
	mov	QWORD PTR -8[rbp], rdi
	mov	QWORD PTR -16[rbp], rsi
	mov	QWORD PTR -24[rbp], rdx
	mov	rdx, QWORD PTR -24[rbp]
	mov	rcx, QWORD PTR -16[rbp]
	mov	rax, QWORD PTR -8[rbp]
	mov	rsi, rcx
	mov	rdi, rax
	call	_ZN9__gnu_cxx13new_allocatorISt13_Rb_tree_nodeIxEE10deallocateEPS2_m
	nop
	leave
	.cfi_def_cfa 7, 8
	ret
	.cfi_endproc
.LFE11516:
	.size	_ZNSt16allocator_traitsISaISt13_Rb_tree_nodeIxEEE10deallocateERS2_PS1_m, .-_ZNSt16allocator_traitsISaISt13_Rb_tree_nodeIxEEE10deallocateERS2_PS1_m
	.section	.text._ZSt7forwardIRPSt13_Rb_tree_nodeIxEEOT_RNSt16remove_referenceIS4_E4typeE,"axG",@progbits,_ZSt7forwardIRPSt13_Rb_tree_nodeIxEEOT_RNSt16remove_referenceIS4_E4typeE,comdat
	.weak	_ZSt7forwardIRPSt13_Rb_tree_nodeIxEEOT_RNSt16remove_referenceIS4_E4typeE
	.type	_ZSt7forwardIRPSt13_Rb_tree_nodeIxEEOT_RNSt16remove_referenceIS4_E4typeE, @function
_ZSt7forwardIRPSt13_Rb_tree_nodeIxEEOT_RNSt16remove_referenceIS4_E4typeE:
.LFB11517:
	.cfi_startproc
	endbr64
	push	rbp
	.cfi_def_cfa_offset 16
	.cfi_offset 6, -16
	mov	rbp, rsp
	.cfi_def_cfa_register 6
	mov	QWORD PTR -8[rbp], rdi
	mov	rax, QWORD PTR -8[rbp]
	pop	rbp
	.cfi_def_cfa 7, 8
	ret
	.cfi_endproc
.LFE11517:
	.size	_ZSt7forwardIRPSt13_Rb_tree_nodeIxEEOT_RNSt16remove_referenceIS4_E4typeE, .-_ZSt7forwardIRPSt13_Rb_tree_nodeIxEEOT_RNSt16remove_referenceIS4_E4typeE
	.section	.text._ZSt7forwardIRPSt18_Rb_tree_node_baseEOT_RNSt16remove_referenceIS3_E4typeE,"axG",@progbits,_ZSt7forwardIRPSt18_Rb_tree_node_baseEOT_RNSt16remove_referenceIS3_E4typeE,comdat
	.weak	_ZSt7forwardIRPSt18_Rb_tree_node_baseEOT_RNSt16remove_referenceIS3_E4typeE
	.type	_ZSt7forwardIRPSt18_Rb_tree_node_baseEOT_RNSt16remove_referenceIS3_E4typeE, @function
_ZSt7forwardIRPSt18_Rb_tree_node_baseEOT_RNSt16remove_referenceIS3_E4typeE:
.LFB11518:
	.cfi_startproc
	endbr64
	push	rbp
	.cfi_def_cfa_offset 16
	.cfi_offset 6, -16
	mov	rbp, rsp
	.cfi_def_cfa_register 6
	mov	QWORD PTR -8[rbp], rdi
	mov	rax, QWORD PTR -8[rbp]
	pop	rbp
	.cfi_def_cfa 7, 8
	ret
	.cfi_endproc
.LFE11518:
	.size	_ZSt7forwardIRPSt18_Rb_tree_node_baseEOT_RNSt16remove_referenceIS3_E4typeE, .-_ZSt7forwardIRPSt18_Rb_tree_node_baseEOT_RNSt16remove_referenceIS3_E4typeE
	.section	.text._ZNSt8_Rb_treeIxxSt9_IdentityIxESt4lessIxESaIxEE14_M_create_nodeIJxEEEPSt13_Rb_tree_nodeIxEDpOT_,"axG",@progbits,_ZNSt8_Rb_treeIxxSt9_IdentityIxESt4lessIxESaIxEE14_M_create_nodeIJxEEEPSt13_Rb_tree_nodeIxEDpOT_,comdat
	.align 2
	.weak	_ZNSt8_Rb_treeIxxSt9_IdentityIxESt4lessIxESaIxEE14_M_create_nodeIJxEEEPSt13_Rb_tree_nodeIxEDpOT_
	.type	_ZNSt8_Rb_treeIxxSt9_IdentityIxESt4lessIxESaIxEE14_M_create_nodeIJxEEEPSt13_Rb_tree_nodeIxEDpOT_, @function
_ZNSt8_Rb_treeIxxSt9_IdentityIxESt4lessIxESaIxEE14_M_create_nodeIJxEEEPSt13_Rb_tree_nodeIxEDpOT_:
.LFB11519:
	.cfi_startproc
	endbr64
	push	rbp
	.cfi_def_cfa_offset 16
	.cfi_offset 6, -16
	mov	rbp, rsp
	.cfi_def_cfa_register 6
	sub	rsp, 32
	mov	QWORD PTR -24[rbp], rdi
	mov	QWORD PTR -32[rbp], rsi
	mov	rax, QWORD PTR -24[rbp]
	mov	rdi, rax
	call	_ZNSt8_Rb_treeIxxSt9_IdentityIxESt4lessIxESaIxEE11_M_get_nodeEv
	mov	QWORD PTR -8[rbp], rax
	mov	rax, QWORD PTR -32[rbp]
	mov	rdi, rax
	call	_ZSt7forwardIxEOT_RNSt16remove_referenceIS0_E4typeE
	mov	rdx, rax
	mov	rcx, QWORD PTR -8[rbp]
	mov	rax, QWORD PTR -24[rbp]
	mov	rsi, rcx
	mov	rdi, rax
	call	_ZNSt8_Rb_treeIxxSt9_IdentityIxESt4lessIxESaIxEE17_M_construct_nodeIJxEEEvPSt13_Rb_tree_nodeIxEDpOT_
	mov	rax, QWORD PTR -8[rbp]
	leave
	.cfi_def_cfa 7, 8
	ret
	.cfi_endproc
.LFE11519:
	.size	_ZNSt8_Rb_treeIxxSt9_IdentityIxESt4lessIxESaIxEE14_M_create_nodeIJxEEEPSt13_Rb_tree_nodeIxEDpOT_, .-_ZNSt8_Rb_treeIxxSt9_IdentityIxESt4lessIxESaIxEE14_M_create_nodeIJxEEEPSt13_Rb_tree_nodeIxEDpOT_
	.section	.text._ZSt13__heap_selectIN9__gnu_cxx17__normal_iteratorIPSt4pairIxS2_IxxEESt6vectorIS4_SaIS4_EEEENS0_5__ops15_Iter_less_iterEEvT_SC_SC_T0_,"axG",@progbits,_ZSt13__heap_selectIN9__gnu_cxx17__normal_iteratorIPSt4pairIxS2_IxxEESt6vectorIS4_SaIS4_EEEENS0_5__ops15_Iter_less_iterEEvT_SC_SC_T0_,comdat
	.weak	_ZSt13__heap_selectIN9__gnu_cxx17__normal_iteratorIPSt4pairIxS2_IxxEESt6vectorIS4_SaIS4_EEEENS0_5__ops15_Iter_less_iterEEvT_SC_SC_T0_
	.type	_ZSt13__heap_selectIN9__gnu_cxx17__normal_iteratorIPSt4pairIxS2_IxxEESt6vectorIS4_SaIS4_EEEENS0_5__ops15_Iter_less_iterEEvT_SC_SC_T0_, @function
_ZSt13__heap_selectIN9__gnu_cxx17__normal_iteratorIPSt4pairIxS2_IxxEESt6vectorIS4_SaIS4_EEEENS0_5__ops15_Iter_less_iterEEvT_SC_SC_T0_:
.LFB11520:
	.cfi_startproc
	endbr64
	push	rbp
	.cfi_def_cfa_offset 16
	.cfi_offset 6, -16
	mov	rbp, rsp
	.cfi_def_cfa_register 6
	sub	rsp, 48
	mov	QWORD PTR -24[rbp], rdi
	mov	QWORD PTR -32[rbp], rsi
	mov	QWORD PTR -40[rbp], rdx
	mov	rax, QWORD PTR fs:40
	mov	QWORD PTR -8[rbp], rax
	xor	eax, eax
	lea	rdx, -41[rbp]
	mov	rcx, QWORD PTR -32[rbp]
	mov	rax, QWORD PTR -24[rbp]
	mov	rsi, rcx
	mov	rdi, rax
	call	_ZSt11__make_heapIN9__gnu_cxx17__normal_iteratorIPSt4pairIxS2_IxxEESt6vectorIS4_SaIS4_EEEENS0_5__ops15_Iter_less_iterEEvT_SC_RT0_
	mov	rax, QWORD PTR -32[rbp]
	mov	QWORD PTR -16[rbp], rax
	jmp	.L387
.L389:
	mov	rdx, QWORD PTR -24[rbp]
	mov	rcx, QWORD PTR -16[rbp]
	lea	rax, -41[rbp]
	mov	rsi, rcx
	mov	rdi, rax
	call	_ZNK9__gnu_cxx5__ops15_Iter_less_iterclINS_17__normal_iteratorIPSt4pairIxS4_IxxEESt6vectorIS6_SaIS6_EEEESB_EEbT_T0_
	test	al, al
	je	.L388
	lea	rcx, -41[rbp]
	mov	rdx, QWORD PTR -16[rbp]
	mov	rsi, QWORD PTR -32[rbp]
	mov	rax, QWORD PTR -24[rbp]
	mov	rdi, rax
	call	_ZSt10__pop_heapIN9__gnu_cxx17__normal_iteratorIPSt4pairIxS2_IxxEESt6vectorIS4_SaIS4_EEEENS0_5__ops15_Iter_less_iterEEvT_SC_SC_RT0_
.L388:
	lea	rax, -16[rbp]
	mov	rdi, rax
	call	_ZN9__gnu_cxx17__normal_iteratorIPSt4pairIxS1_IxxEESt6vectorIS3_SaIS3_EEEppEv
.L387:
	lea	rdx, -40[rbp]
	lea	rax, -16[rbp]
	mov	rsi, rdx
	mov	rdi, rax
	call	_ZN9__gnu_cxxltIPSt4pairIxS1_IxxEESt6vectorIS3_SaIS3_EEEEbRKNS_17__normal_iteratorIT_T0_EESD_
	test	al, al
	jne	.L389
	nop
	mov	rax, QWORD PTR -8[rbp]
	sub	rax, QWORD PTR fs:40
	je	.L390
	call	__stack_chk_fail@PLT
.L390:
	leave
	.cfi_def_cfa 7, 8
	ret
	.cfi_endproc
.LFE11520:
	.size	_ZSt13__heap_selectIN9__gnu_cxx17__normal_iteratorIPSt4pairIxS2_IxxEESt6vectorIS4_SaIS4_EEEENS0_5__ops15_Iter_less_iterEEvT_SC_SC_T0_, .-_ZSt13__heap_selectIN9__gnu_cxx17__normal_iteratorIPSt4pairIxS2_IxxEESt6vectorIS4_SaIS4_EEEENS0_5__ops15_Iter_less_iterEEvT_SC_SC_T0_
	.section	.text._ZSt11__sort_heapIN9__gnu_cxx17__normal_iteratorIPSt4pairIxS2_IxxEESt6vectorIS4_SaIS4_EEEENS0_5__ops15_Iter_less_iterEEvT_SC_RT0_,"axG",@progbits,_ZSt11__sort_heapIN9__gnu_cxx17__normal_iteratorIPSt4pairIxS2_IxxEESt6vectorIS4_SaIS4_EEEENS0_5__ops15_Iter_less_iterEEvT_SC_RT0_,comdat
	.weak	_ZSt11__sort_heapIN9__gnu_cxx17__normal_iteratorIPSt4pairIxS2_IxxEESt6vectorIS4_SaIS4_EEEENS0_5__ops15_Iter_less_iterEEvT_SC_RT0_
	.type	_ZSt11__sort_heapIN9__gnu_cxx17__normal_iteratorIPSt4pairIxS2_IxxEESt6vectorIS4_SaIS4_EEEENS0_5__ops15_Iter_less_iterEEvT_SC_RT0_, @function
_ZSt11__sort_heapIN9__gnu_cxx17__normal_iteratorIPSt4pairIxS2_IxxEESt6vectorIS4_SaIS4_EEEENS0_5__ops15_Iter_less_iterEEvT_SC_RT0_:
.LFB11521:
	.cfi_startproc
	endbr64
	push	rbp
	.cfi_def_cfa_offset 16
	.cfi_offset 6, -16
	mov	rbp, rsp
	.cfi_def_cfa_register 6
	sub	rsp, 32
	mov	QWORD PTR -8[rbp], rdi
	mov	QWORD PTR -16[rbp], rsi
	mov	QWORD PTR -24[rbp], rdx
	jmp	.L392
.L393:
	lea	rax, -16[rbp]
	mov	rdi, rax
	call	_ZN9__gnu_cxx17__normal_iteratorIPSt4pairIxS1_IxxEESt6vectorIS3_SaIS3_EEEmmEv
	mov	rcx, QWORD PTR -24[rbp]
	mov	rdx, QWORD PTR -16[rbp]
	mov	rsi, QWORD PTR -16[rbp]
	mov	rax, QWORD PTR -8[rbp]
	mov	rdi, rax
	call	_ZSt10__pop_heapIN9__gnu_cxx17__normal_iteratorIPSt4pairIxS2_IxxEESt6vectorIS4_SaIS4_EEEENS0_5__ops15_Iter_less_iterEEvT_SC_SC_RT0_
.L392:
	lea	rdx, -8[rbp]
	lea	rax, -16[rbp]
	mov	rsi, rdx
	mov	rdi, rax
	call	_ZN9__gnu_cxxmiIPSt4pairIxS1_IxxEESt6vectorIS3_SaIS3_EEEENS_17__normal_iteratorIT_T0_E15difference_typeERKSB_SE_
	cmp	rax, 1
	setg	al
	test	al, al
	jne	.L393
	nop
	nop
	leave
	.cfi_def_cfa 7, 8
	ret
	.cfi_endproc
.LFE11521:
	.size	_ZSt11__sort_heapIN9__gnu_cxx17__normal_iteratorIPSt4pairIxS2_IxxEESt6vectorIS4_SaIS4_EEEENS0_5__ops15_Iter_less_iterEEvT_SC_RT0_, .-_ZSt11__sort_heapIN9__gnu_cxx17__normal_iteratorIPSt4pairIxS2_IxxEESt6vectorIS4_SaIS4_EEEENS0_5__ops15_Iter_less_iterEEvT_SC_RT0_
	.section	.text._ZNK9__gnu_cxx5__ops15_Iter_less_iterclINS_17__normal_iteratorIPSt4pairIxS4_IxxEESt6vectorIS6_SaIS6_EEEESB_EEbT_T0_,"axG",@progbits,_ZNK9__gnu_cxx5__ops15_Iter_less_iterclINS_17__normal_iteratorIPSt4pairIxS4_IxxEESt6vectorIS6_SaIS6_EEEESB_EEbT_T0_,comdat
	.align 2
	.weak	_ZNK9__gnu_cxx5__ops15_Iter_less_iterclINS_17__normal_iteratorIPSt4pairIxS4_IxxEESt6vectorIS6_SaIS6_EEEESB_EEbT_T0_
	.type	_ZNK9__gnu_cxx5__ops15_Iter_less_iterclINS_17__normal_iteratorIPSt4pairIxS4_IxxEESt6vectorIS6_SaIS6_EEEESB_EEbT_T0_, @function
_ZNK9__gnu_cxx5__ops15_Iter_less_iterclINS_17__normal_iteratorIPSt4pairIxS4_IxxEESt6vectorIS6_SaIS6_EEEESB_EEbT_T0_:
.LFB11523:
	.cfi_startproc
	endbr64
	push	rbp
	.cfi_def_cfa_offset 16
	.cfi_offset 6, -16
	mov	rbp, rsp
	.cfi_def_cfa_register 6
	push	rbx
	sub	rsp, 40
	.cfi_offset 3, -24
	mov	QWORD PTR -24[rbp], rdi
	mov	QWORD PTR -32[rbp], rsi
	mov	QWORD PTR -40[rbp], rdx
	lea	rax, -40[rbp]
	mov	rdi, rax
	call	_ZNK9__gnu_cxx17__normal_iteratorIPSt4pairIxS1_IxxEESt6vectorIS3_SaIS3_EEEdeEv
	mov	rbx, rax
	lea	rax, -32[rbp]
	mov	rdi, rax
	call	_ZNK9__gnu_cxx17__normal_iteratorIPSt4pairIxS1_IxxEESt6vectorIS3_SaIS3_EEEdeEv
	mov	rsi, rbx
	mov	rdi, rax
	call	_ZStltIxSt4pairIxxEEbRKS0_IT_T0_ES6_
	mov	rbx, QWORD PTR -8[rbp]
	leave
	.cfi_def_cfa 7, 8
	ret
	.cfi_endproc
.LFE11523:
	.size	_ZNK9__gnu_cxx5__ops15_Iter_less_iterclINS_17__normal_iteratorIPSt4pairIxS4_IxxEESt6vectorIS6_SaIS6_EEEESB_EEbT_T0_, .-_ZNK9__gnu_cxx5__ops15_Iter_less_iterclINS_17__normal_iteratorIPSt4pairIxS4_IxxEESt6vectorIS6_SaIS6_EEEESB_EEbT_T0_
	.section	.text._ZSt22__move_median_to_firstIN9__gnu_cxx17__normal_iteratorIPSt4pairIxS2_IxxEESt6vectorIS4_SaIS4_EEEENS0_5__ops15_Iter_less_iterEEvT_SC_SC_SC_T0_,"axG",@progbits,_ZSt22__move_median_to_firstIN9__gnu_cxx17__normal_iteratorIPSt4pairIxS2_IxxEESt6vectorIS4_SaIS4_EEEENS0_5__ops15_Iter_less_iterEEvT_SC_SC_SC_T0_,comdat
	.weak	_ZSt22__move_median_to_firstIN9__gnu_cxx17__normal_iteratorIPSt4pairIxS2_IxxEESt6vectorIS4_SaIS4_EEEENS0_5__ops15_Iter_less_iterEEvT_SC_SC_SC_T0_
	.type	_ZSt22__move_median_to_firstIN9__gnu_cxx17__normal_iteratorIPSt4pairIxS2_IxxEESt6vectorIS4_SaIS4_EEEENS0_5__ops15_Iter_less_iterEEvT_SC_SC_SC_T0_, @function
_ZSt22__move_median_to_firstIN9__gnu_cxx17__normal_iteratorIPSt4pairIxS2_IxxEESt6vectorIS4_SaIS4_EEEENS0_5__ops15_Iter_less_iterEEvT_SC_SC_SC_T0_:
.LFB11522:
	.cfi_startproc
	endbr64
	push	rbp
	.cfi_def_cfa_offset 16
	.cfi_offset 6, -16
	mov	rbp, rsp
	.cfi_def_cfa_register 6
	sub	rsp, 48
	mov	QWORD PTR -8[rbp], rdi
	mov	QWORD PTR -16[rbp], rsi
	mov	QWORD PTR -24[rbp], rdx
	mov	QWORD PTR -32[rbp], rcx
	mov	rdx, QWORD PTR -24[rbp]
	mov	rcx, QWORD PTR -16[rbp]
	lea	rax, -33[rbp]
	mov	rsi, rcx
	mov	rdi, rax
	call	_ZNK9__gnu_cxx5__ops15_Iter_less_iterclINS_17__normal_iteratorIPSt4pairIxS4_IxxEESt6vectorIS6_SaIS6_EEEESB_EEbT_T0_
	test	al, al
	je	.L397
	mov	rdx, QWORD PTR -32[rbp]
	mov	rcx, QWORD PTR -24[rbp]
	lea	rax, -33[rbp]
	mov	rsi, rcx
	mov	rdi, rax
	call	_ZNK9__gnu_cxx5__ops15_Iter_less_iterclINS_17__normal_iteratorIPSt4pairIxS4_IxxEESt6vectorIS6_SaIS6_EEEESB_EEbT_T0_
	test	al, al
	je	.L398
	mov	rdx, QWORD PTR -24[rbp]
	mov	rax, QWORD PTR -8[rbp]
	mov	rsi, rdx
	mov	rdi, rax
	call	_ZSt9iter_swapIN9__gnu_cxx17__normal_iteratorIPSt4pairIxS2_IxxEESt6vectorIS4_SaIS4_EEEES9_EvT_T0_
	jmp	.L403
.L398:
	mov	rdx, QWORD PTR -32[rbp]
	mov	rcx, QWORD PTR -16[rbp]
	lea	rax, -33[rbp]
	mov	rsi, rcx
	mov	rdi, rax
	call	_ZNK9__gnu_cxx5__ops15_Iter_less_iterclINS_17__normal_iteratorIPSt4pairIxS4_IxxEESt6vectorIS6_SaIS6_EEEESB_EEbT_T0_
	test	al, al
	je	.L400
	mov	rdx, QWORD PTR -32[rbp]
	mov	rax, QWORD PTR -8[rbp]
	mov	rsi, rdx
	mov	rdi, rax
	call	_ZSt9iter_swapIN9__gnu_cxx17__normal_iteratorIPSt4pairIxS2_IxxEESt6vectorIS4_SaIS4_EEEES9_EvT_T0_
	jmp	.L403
.L400:
	mov	rdx, QWORD PTR -16[rbp]
	mov	rax, QWORD PTR -8[rbp]
	mov	rsi, rdx
	mov	rdi, rax
	call	_ZSt9iter_swapIN9__gnu_cxx17__normal_iteratorIPSt4pairIxS2_IxxEESt6vectorIS4_SaIS4_EEEES9_EvT_T0_
	jmp	.L403
.L397:
	mov	rdx, QWORD PTR -32[rbp]
	mov	rcx, QWORD PTR -16[rbp]
	lea	rax, -33[rbp]
	mov	rsi, rcx
	mov	rdi, rax
	call	_ZNK9__gnu_cxx5__ops15_Iter_less_iterclINS_17__normal_iteratorIPSt4pairIxS4_IxxEESt6vectorIS6_SaIS6_EEEESB_EEbT_T0_
	test	al, al
	je	.L401
	mov	rdx, QWORD PTR -16[rbp]
	mov	rax, QWORD PTR -8[rbp]
	mov	rsi, rdx
	mov	rdi, rax
	call	_ZSt9iter_swapIN9__gnu_cxx17__normal_iteratorIPSt4pairIxS2_IxxEESt6vectorIS4_SaIS4_EEEES9_EvT_T0_
	jmp	.L403
.L401:
	mov	rdx, QWORD PTR -32[rbp]
	mov	rcx, QWORD PTR -24[rbp]
	lea	rax, -33[rbp]
	mov	rsi, rcx
	mov	rdi, rax
	call	_ZNK9__gnu_cxx5__ops15_Iter_less_iterclINS_17__normal_iteratorIPSt4pairIxS4_IxxEESt6vectorIS6_SaIS6_EEEESB_EEbT_T0_
	test	al, al
	je	.L402
	mov	rdx, QWORD PTR -32[rbp]
	mov	rax, QWORD PTR -8[rbp]
	mov	rsi, rdx
	mov	rdi, rax
	call	_ZSt9iter_swapIN9__gnu_cxx17__normal_iteratorIPSt4pairIxS2_IxxEESt6vectorIS4_SaIS4_EEEES9_EvT_T0_
	jmp	.L403
.L402:
	mov	rdx, QWORD PTR -24[rbp]
	mov	rax, QWORD PTR -8[rbp]
	mov	rsi, rdx
	mov	rdi, rax
	call	_ZSt9iter_swapIN9__gnu_cxx17__normal_iteratorIPSt4pairIxS2_IxxEESt6vectorIS4_SaIS4_EEEES9_EvT_T0_
.L403:
	nop
	leave
	.cfi_def_cfa 7, 8
	ret
	.cfi_endproc
.LFE11522:
	.size	_ZSt22__move_median_to_firstIN9__gnu_cxx17__normal_iteratorIPSt4pairIxS2_IxxEESt6vectorIS4_SaIS4_EEEENS0_5__ops15_Iter_less_iterEEvT_SC_SC_SC_T0_, .-_ZSt22__move_median_to_firstIN9__gnu_cxx17__normal_iteratorIPSt4pairIxS2_IxxEESt6vectorIS4_SaIS4_EEEENS0_5__ops15_Iter_less_iterEEvT_SC_SC_SC_T0_
	.section	.text._ZSt21__unguarded_partitionIN9__gnu_cxx17__normal_iteratorIPSt4pairIxS2_IxxEESt6vectorIS4_SaIS4_EEEENS0_5__ops15_Iter_less_iterEET_SC_SC_SC_T0_,"axG",@progbits,_ZSt21__unguarded_partitionIN9__gnu_cxx17__normal_iteratorIPSt4pairIxS2_IxxEESt6vectorIS4_SaIS4_EEEENS0_5__ops15_Iter_less_iterEET_SC_SC_SC_T0_,comdat
	.weak	_ZSt21__unguarded_partitionIN9__gnu_cxx17__normal_iteratorIPSt4pairIxS2_IxxEESt6vectorIS4_SaIS4_EEEENS0_5__ops15_Iter_less_iterEET_SC_SC_SC_T0_
	.type	_ZSt21__unguarded_partitionIN9__gnu_cxx17__normal_iteratorIPSt4pairIxS2_IxxEESt6vectorIS4_SaIS4_EEEENS0_5__ops15_Iter_less_iterEET_SC_SC_SC_T0_, @function
_ZSt21__unguarded_partitionIN9__gnu_cxx17__normal_iteratorIPSt4pairIxS2_IxxEESt6vectorIS4_SaIS4_EEEENS0_5__ops15_Iter_less_iterEET_SC_SC_SC_T0_:
.LFB11524:
	.cfi_startproc
	endbr64
	push	rbp
	.cfi_def_cfa_offset 16
	.cfi_offset 6, -16
	mov	rbp, rsp
	.cfi_def_cfa_register 6
	sub	rsp, 32
	mov	QWORD PTR -8[rbp], rdi
	mov	QWORD PTR -16[rbp], rsi
	mov	QWORD PTR -24[rbp], rdx
	jmp	.L405
.L406:
	lea	rax, -8[rbp]
	mov	rdi, rax
	call	_ZN9__gnu_cxx17__normal_iteratorIPSt4pairIxS1_IxxEESt6vectorIS3_SaIS3_EEEppEv
.L405:
	mov	rdx, QWORD PTR -24[rbp]
	mov	rcx, QWORD PTR -8[rbp]
	lea	rax, -25[rbp]
	mov	rsi, rcx
	mov	rdi, rax
	call	_ZNK9__gnu_cxx5__ops15_Iter_less_iterclINS_17__normal_iteratorIPSt4pairIxS4_IxxEESt6vectorIS6_SaIS6_EEEESB_EEbT_T0_
	test	al, al
	jne	.L406
	lea	rax, -16[rbp]
	mov	rdi, rax
	call	_ZN9__gnu_cxx17__normal_iteratorIPSt4pairIxS1_IxxEESt6vectorIS3_SaIS3_EEEmmEv
	jmp	.L407
.L408:
	lea	rax, -16[rbp]
	mov	rdi, rax
	call	_ZN9__gnu_cxx17__normal_iteratorIPSt4pairIxS1_IxxEESt6vectorIS3_SaIS3_EEEmmEv
.L407:
	mov	rdx, QWORD PTR -16[rbp]
	mov	rcx, QWORD PTR -24[rbp]
	lea	rax, -25[rbp]
	mov	rsi, rcx
	mov	rdi, rax
	call	_ZNK9__gnu_cxx5__ops15_Iter_less_iterclINS_17__normal_iteratorIPSt4pairIxS4_IxxEESt6vectorIS6_SaIS6_EEEESB_EEbT_T0_
	test	al, al
	jne	.L408
	lea	rdx, -16[rbp]
	lea	rax, -8[rbp]
	mov	rsi, rdx
	mov	rdi, rax
	call	_ZN9__gnu_cxxltIPSt4pairIxS1_IxxEESt6vectorIS3_SaIS3_EEEEbRKNS_17__normal_iteratorIT_T0_EESD_
	xor	eax, 1
	test	al, al
	je	.L409
	mov	rax, QWORD PTR -8[rbp]
	jmp	.L412
.L409:
	mov	rdx, QWORD PTR -16[rbp]
	mov	rax, QWORD PTR -8[rbp]
	mov	rsi, rdx
	mov	rdi, rax
	call	_ZSt9iter_swapIN9__gnu_cxx17__normal_iteratorIPSt4pairIxS2_IxxEESt6vectorIS4_SaIS4_EEEES9_EvT_T0_
	lea	rax, -8[rbp]
	mov	rdi, rax
	call	_ZN9__gnu_cxx17__normal_iteratorIPSt4pairIxS1_IxxEESt6vectorIS3_SaIS3_EEEppEv
	jmp	.L405
.L412:
	leave
	.cfi_def_cfa 7, 8
	ret
	.cfi_endproc
.LFE11524:
	.size	_ZSt21__unguarded_partitionIN9__gnu_cxx17__normal_iteratorIPSt4pairIxS2_IxxEESt6vectorIS4_SaIS4_EEEENS0_5__ops15_Iter_less_iterEET_SC_SC_SC_T0_, .-_ZSt21__unguarded_partitionIN9__gnu_cxx17__normal_iteratorIPSt4pairIxS2_IxxEESt6vectorIS4_SaIS4_EEEENS0_5__ops15_Iter_less_iterEET_SC_SC_SC_T0_
	.section	.text._ZN9__gnu_cxxeqIPSt4pairIxS1_IxxEESt6vectorIS3_SaIS3_EEEEbRKNS_17__normal_iteratorIT_T0_EESD_,"axG",@progbits,_ZN9__gnu_cxxeqIPSt4pairIxS1_IxxEESt6vectorIS3_SaIS3_EEEEbRKNS_17__normal_iteratorIT_T0_EESD_,comdat
	.weak	_ZN9__gnu_cxxeqIPSt4pairIxS1_IxxEESt6vectorIS3_SaIS3_EEEEbRKNS_17__normal_iteratorIT_T0_EESD_
	.type	_ZN9__gnu_cxxeqIPSt4pairIxS1_IxxEESt6vectorIS3_SaIS3_EEEEbRKNS_17__normal_iteratorIT_T0_EESD_, @function
_ZN9__gnu_cxxeqIPSt4pairIxS1_IxxEESt6vectorIS3_SaIS3_EEEEbRKNS_17__normal_iteratorIT_T0_EESD_:
.LFB11525:
	.cfi_startproc
	endbr64
	push	rbp
	.cfi_def_cfa_offset 16
	.cfi_offset 6, -16
	mov	rbp, rsp
	.cfi_def_cfa_register 6
	push	rbx
	sub	rsp, 24
	.cfi_offset 3, -24
	mov	QWORD PTR -24[rbp], rdi
	mov	QWORD PTR -32[rbp], rsi
	mov	rax, QWORD PTR -24[rbp]
	mov	rdi, rax
	call	_ZNK9__gnu_cxx17__normal_iteratorIPSt4pairIxS1_IxxEESt6vectorIS3_SaIS3_EEE4baseEv
	mov	rbx, QWORD PTR [rax]
	mov	rax, QWORD PTR -32[rbp]
	mov	rdi, rax
	call	_ZNK9__gnu_cxx17__normal_iteratorIPSt4pairIxS1_IxxEESt6vectorIS3_SaIS3_EEE4baseEv
	mov	rax, QWORD PTR [rax]
	cmp	rbx, rax
	sete	al
	mov	rbx, QWORD PTR -8[rbp]
	leave
	.cfi_def_cfa 7, 8
	ret
	.cfi_endproc
.LFE11525:
	.size	_ZN9__gnu_cxxeqIPSt4pairIxS1_IxxEESt6vectorIS3_SaIS3_EEEEbRKNS_17__normal_iteratorIT_T0_EESD_, .-_ZN9__gnu_cxxeqIPSt4pairIxS1_IxxEESt6vectorIS3_SaIS3_EEEEbRKNS_17__normal_iteratorIT_T0_EESD_
	.section	.text._ZSt13move_backwardIN9__gnu_cxx17__normal_iteratorIPSt4pairIxS2_IxxEESt6vectorIS4_SaIS4_EEEES9_ET0_T_SB_SA_,"axG",@progbits,_ZSt13move_backwardIN9__gnu_cxx17__normal_iteratorIPSt4pairIxS2_IxxEESt6vectorIS4_SaIS4_EEEES9_ET0_T_SB_SA_,comdat
	.weak	_ZSt13move_backwardIN9__gnu_cxx17__normal_iteratorIPSt4pairIxS2_IxxEESt6vectorIS4_SaIS4_EEEES9_ET0_T_SB_SA_
	.type	_ZSt13move_backwardIN9__gnu_cxx17__normal_iteratorIPSt4pairIxS2_IxxEESt6vectorIS4_SaIS4_EEEES9_ET0_T_SB_SA_, @function
_ZSt13move_backwardIN9__gnu_cxx17__normal_iteratorIPSt4pairIxS2_IxxEESt6vectorIS4_SaIS4_EEEES9_ET0_T_SB_SA_:
.LFB11526:
	.cfi_startproc
	endbr64
	push	rbp
	.cfi_def_cfa_offset 16
	.cfi_offset 6, -16
	mov	rbp, rsp
	.cfi_def_cfa_register 6
	push	rbx
	sub	rsp, 40
	.cfi_offset 3, -24
	mov	QWORD PTR -24[rbp], rdi
	mov	QWORD PTR -32[rbp], rsi
	mov	QWORD PTR -40[rbp], rdx
	mov	rax, QWORD PTR -32[rbp]
	mov	rdi, rax
	call	_ZSt12__miter_baseIN9__gnu_cxx17__normal_iteratorIPSt4pairIxS2_IxxEESt6vectorIS4_SaIS4_EEEEET_SA_
	mov	rbx, rax
	mov	rax, QWORD PTR -24[rbp]
	mov	rdi, rax
	call	_ZSt12__miter_baseIN9__gnu_cxx17__normal_iteratorIPSt4pairIxS2_IxxEESt6vectorIS4_SaIS4_EEEEET_SA_
	mov	rcx, rax
	mov	rax, QWORD PTR -40[rbp]
	mov	rdx, rax
	mov	rsi, rbx
	mov	rdi, rcx
	call	_ZSt22__copy_move_backward_aILb1EN9__gnu_cxx17__normal_iteratorIPSt4pairIxS2_IxxEESt6vectorIS4_SaIS4_EEEES9_ET1_T0_SB_SA_
	mov	rbx, QWORD PTR -8[rbp]
	leave
	.cfi_def_cfa 7, 8
	ret
	.cfi_endproc
.LFE11526:
	.size	_ZSt13move_backwardIN9__gnu_cxx17__normal_iteratorIPSt4pairIxS2_IxxEESt6vectorIS4_SaIS4_EEEES9_ET0_T_SB_SA_, .-_ZSt13move_backwardIN9__gnu_cxx17__normal_iteratorIPSt4pairIxS2_IxxEESt6vectorIS4_SaIS4_EEEES9_ET0_T_SB_SA_
	.section	.text._ZNSt4pairIxS_IxxEEaSEOS1_,"axG",@progbits,_ZNSt4pairIxS_IxxEEaSEOS1_,comdat
	.align 2
	.weak	_ZNSt4pairIxS_IxxEEaSEOS1_
	.type	_ZNSt4pairIxS_IxxEEaSEOS1_, @function
_ZNSt4pairIxS_IxxEEaSEOS1_:
.LFB11527:
	.cfi_startproc
	endbr64
	push	rbp
	.cfi_def_cfa_offset 16
	.cfi_offset 6, -16
	mov	rbp, rsp
	.cfi_def_cfa_register 6
	sub	rsp, 16
	mov	QWORD PTR -8[rbp], rdi
	mov	QWORD PTR -16[rbp], rsi
	mov	rax, QWORD PTR -16[rbp]
	mov	rdi, rax
	call	_ZSt7forwardIxEOT_RNSt16remove_referenceIS0_E4typeE
	mov	rdx, QWORD PTR [rax]
	mov	rax, QWORD PTR -8[rbp]
	mov	QWORD PTR [rax], rdx
	mov	rax, QWORD PTR -16[rbp]
	add	rax, 8
	mov	rdi, rax
	call	_ZSt7forwardISt4pairIxxEEOT_RNSt16remove_referenceIS2_E4typeE
	mov	rdx, rax
	mov	rax, QWORD PTR -8[rbp]
	add	rax, 8
	mov	rsi, rdx
	mov	rdi, rax
	call	_ZNSt4pairIxxEaSEOS0_
	mov	rax, QWORD PTR -8[rbp]
	leave
	.cfi_def_cfa 7, 8
	ret
	.cfi_endproc
.LFE11527:
	.size	_ZNSt4pairIxS_IxxEEaSEOS1_, .-_ZNSt4pairIxS_IxxEEaSEOS1_
	.section	.text._ZSt25__unguarded_linear_insertIN9__gnu_cxx17__normal_iteratorIPSt4pairIxS2_IxxEESt6vectorIS4_SaIS4_EEEENS0_5__ops14_Val_less_iterEEvT_T0_,"axG",@progbits,_ZSt25__unguarded_linear_insertIN9__gnu_cxx17__normal_iteratorIPSt4pairIxS2_IxxEESt6vectorIS4_SaIS4_EEEENS0_5__ops14_Val_less_iterEEvT_T0_,comdat
	.weak	_ZSt25__unguarded_linear_insertIN9__gnu_cxx17__normal_iteratorIPSt4pairIxS2_IxxEESt6vectorIS4_SaIS4_EEEENS0_5__ops14_Val_less_iterEEvT_T0_
	.type	_ZSt25__unguarded_linear_insertIN9__gnu_cxx17__normal_iteratorIPSt4pairIxS2_IxxEESt6vectorIS4_SaIS4_EEEENS0_5__ops14_Val_less_iterEEvT_T0_, @function
_ZSt25__unguarded_linear_insertIN9__gnu_cxx17__normal_iteratorIPSt4pairIxS2_IxxEESt6vectorIS4_SaIS4_EEEENS0_5__ops14_Val_less_iterEEvT_T0_:
.LFB11528:
	.cfi_startproc
	endbr64
	push	rbp
	.cfi_def_cfa_offset 16
	.cfi_offset 6, -16
	mov	rbp, rsp
	.cfi_def_cfa_register 6
	push	rbx
	sub	rsp, 72
	.cfi_offset 3, -24
	mov	QWORD PTR -72[rbp], rdi
	mov	rax, QWORD PTR fs:40
	mov	QWORD PTR -24[rbp], rax
	xor	eax, eax
	lea	rax, -72[rbp]
	mov	rdi, rax
	call	_ZNK9__gnu_cxx17__normal_iteratorIPSt4pairIxS1_IxxEESt6vectorIS3_SaIS3_EEEdeEv
	mov	rdi, rax
	call	_ZSt4moveIRSt4pairIxS0_IxxEEEONSt16remove_referenceIT_E4typeEOS5_
	mov	rcx, rax
	mov	rax, QWORD PTR [rcx]
	mov	rdx, QWORD PTR 8[rcx]
	mov	QWORD PTR -48[rbp], rax
	mov	QWORD PTR -40[rbp], rdx
	mov	rax, QWORD PTR 16[rcx]
	mov	QWORD PTR -32[rbp], rax
	mov	rax, QWORD PTR -72[rbp]
	mov	QWORD PTR -56[rbp], rax
	lea	rax, -56[rbp]
	mov	rdi, rax
	call	_ZN9__gnu_cxx17__normal_iteratorIPSt4pairIxS1_IxxEESt6vectorIS3_SaIS3_EEEmmEv
	jmp	.L420
.L421:
	lea	rax, -56[rbp]
	mov	rdi, rax
	call	_ZNK9__gnu_cxx17__normal_iteratorIPSt4pairIxS1_IxxEESt6vectorIS3_SaIS3_EEEdeEv
	mov	rdi, rax
	call	_ZSt4moveIRSt4pairIxS0_IxxEEEONSt16remove_referenceIT_E4typeEOS5_
	mov	rbx, rax
	lea	rax, -72[rbp]
	mov	rdi, rax
	call	_ZNK9__gnu_cxx17__normal_iteratorIPSt4pairIxS1_IxxEESt6vectorIS3_SaIS3_EEEdeEv
	mov	rsi, rbx
	mov	rdi, rax
	call	_ZNSt4pairIxS_IxxEEaSEOS1_
	mov	rax, QWORD PTR -56[rbp]
	mov	QWORD PTR -72[rbp], rax
	lea	rax, -56[rbp]
	mov	rdi, rax
	call	_ZN9__gnu_cxx17__normal_iteratorIPSt4pairIxS1_IxxEESt6vectorIS3_SaIS3_EEEmmEv
.L420:
	mov	rdx, QWORD PTR -56[rbp]
	lea	rcx, -48[rbp]
	lea	rax, -73[rbp]
	mov	rsi, rcx
	mov	rdi, rax
	call	_ZNK9__gnu_cxx5__ops14_Val_less_iterclISt4pairIxS3_IxxEENS_17__normal_iteratorIPS5_St6vectorIS5_SaIS5_EEEEEEbRT_T0_
	test	al, al
	jne	.L421
	lea	rax, -48[rbp]
	mov	rdi, rax
	call	_ZSt4moveIRSt4pairIxS0_IxxEEEONSt16remove_referenceIT_E4typeEOS5_
	mov	rbx, rax
	lea	rax, -72[rbp]
	mov	rdi, rax
	call	_ZNK9__gnu_cxx17__normal_iteratorIPSt4pairIxS1_IxxEESt6vectorIS3_SaIS3_EEEdeEv
	mov	rsi, rbx
	mov	rdi, rax
	call	_ZNSt4pairIxS_IxxEEaSEOS1_
	nop
	mov	rax, QWORD PTR -24[rbp]
	sub	rax, QWORD PTR fs:40
	je	.L422
	call	__stack_chk_fail@PLT
.L422:
	mov	rbx, QWORD PTR -8[rbp]
	leave
	.cfi_def_cfa 7, 8
	ret
	.cfi_endproc
.LFE11528:
	.size	_ZSt25__unguarded_linear_insertIN9__gnu_cxx17__normal_iteratorIPSt4pairIxS2_IxxEESt6vectorIS4_SaIS4_EEEENS0_5__ops14_Val_less_iterEEvT_T0_, .-_ZSt25__unguarded_linear_insertIN9__gnu_cxx17__normal_iteratorIPSt4pairIxS2_IxxEESt6vectorIS4_SaIS4_EEEENS0_5__ops14_Val_less_iterEEvT_T0_
	.section	.text._ZNSt8_Rb_treeIxxSt9_IdentityIxESt4lessIxESaIxEE14_M_create_nodeIJRKxEEEPSt13_Rb_tree_nodeIxEDpOT_,"axG",@progbits,_ZNSt8_Rb_treeIxxSt9_IdentityIxESt4lessIxESaIxEE14_M_create_nodeIJRKxEEEPSt13_Rb_tree_nodeIxEDpOT_,comdat
	.align 2
	.weak	_ZNSt8_Rb_treeIxxSt9_IdentityIxESt4lessIxESaIxEE14_M_create_nodeIJRKxEEEPSt13_Rb_tree_nodeIxEDpOT_
	.type	_ZNSt8_Rb_treeIxxSt9_IdentityIxESt4lessIxESaIxEE14_M_create_nodeIJRKxEEEPSt13_Rb_tree_nodeIxEDpOT_, @function
_ZNSt8_Rb_treeIxxSt9_IdentityIxESt4lessIxESaIxEE14_M_create_nodeIJRKxEEEPSt13_Rb_tree_nodeIxEDpOT_:
.LFB11529:
	.cfi_startproc
	endbr64
	push	rbp
	.cfi_def_cfa_offset 16
	.cfi_offset 6, -16
	mov	rbp, rsp
	.cfi_def_cfa_register 6
	sub	rsp, 32
	mov	QWORD PTR -24[rbp], rdi
	mov	QWORD PTR -32[rbp], rsi
	mov	rax, QWORD PTR -24[rbp]
	mov	rdi, rax
	call	_ZNSt8_Rb_treeIxxSt9_IdentityIxESt4lessIxESaIxEE11_M_get_nodeEv
	mov	QWORD PTR -8[rbp], rax
	mov	rax, QWORD PTR -32[rbp]
	mov	rdi, rax
	call	_ZSt7forwardIRKxEOT_RNSt16remove_referenceIS2_E4typeE
	mov	rdx, rax
	mov	rcx, QWORD PTR -8[rbp]
	mov	rax, QWORD PTR -24[rbp]
	mov	rsi, rcx
	mov	rdi, rax
	call	_ZNSt8_Rb_treeIxxSt9_IdentityIxESt4lessIxESaIxEE17_M_construct_nodeIJRKxEEEvPSt13_Rb_tree_nodeIxEDpOT_
	mov	rax, QWORD PTR -8[rbp]
	leave
	.cfi_def_cfa 7, 8
	ret
	.cfi_endproc
.LFE11529:
	.size	_ZNSt8_Rb_treeIxxSt9_IdentityIxESt4lessIxESaIxEE14_M_create_nodeIJRKxEEEPSt13_Rb_tree_nodeIxEDpOT_, .-_ZNSt8_Rb_treeIxxSt9_IdentityIxESt4lessIxESaIxEE14_M_create_nodeIJRKxEEEPSt13_Rb_tree_nodeIxEDpOT_
	.section	.text._ZNK9__gnu_cxx13new_allocatorIxE11_M_max_sizeEv,"axG",@progbits,_ZNK9__gnu_cxx13new_allocatorIxE11_M_max_sizeEv,comdat
	.align 2
	.weak	_ZNK9__gnu_cxx13new_allocatorIxE11_M_max_sizeEv
	.type	_ZNK9__gnu_cxx13new_allocatorIxE11_M_max_sizeEv, @function
_ZNK9__gnu_cxx13new_allocatorIxE11_M_max_sizeEv:
.LFB11635:
	.cfi_startproc
	endbr64
	push	rbp
	.cfi_def_cfa_offset 16
	.cfi_offset 6, -16
	mov	rbp, rsp
	.cfi_def_cfa_register 6
	mov	QWORD PTR -8[rbp], rdi
	movabs	rax, 1152921504606846975
	pop	rbp
	.cfi_def_cfa 7, 8
	ret
	.cfi_endproc
.LFE11635:
	.size	_ZNK9__gnu_cxx13new_allocatorIxE11_M_max_sizeEv, .-_ZNK9__gnu_cxx13new_allocatorIxE11_M_max_sizeEv
	.section	.text._ZN9__gnu_cxx13new_allocatorIxE8allocateEmPKv,"axG",@progbits,_ZN9__gnu_cxx13new_allocatorIxE8allocateEmPKv,comdat
	.align 2
	.weak	_ZN9__gnu_cxx13new_allocatorIxE8allocateEmPKv
	.type	_ZN9__gnu_cxx13new_allocatorIxE8allocateEmPKv, @function
_ZN9__gnu_cxx13new_allocatorIxE8allocateEmPKv:
.LFB11636:
	.cfi_startproc
	endbr64
	push	rbp
	.cfi_def_cfa_offset 16
	.cfi_offset 6, -16
	mov	rbp, rsp
	.cfi_def_cfa_register 6
	sub	rsp, 32
	mov	QWORD PTR -8[rbp], rdi
	mov	QWORD PTR -16[rbp], rsi
	mov	QWORD PTR -24[rbp], rdx
	mov	rax, QWORD PTR -8[rbp]
	mov	rdi, rax
	call	_ZNK9__gnu_cxx13new_allocatorIxE11_M_max_sizeEv
	cmp	QWORD PTR -16[rbp], rax
	seta	al
	movzx	eax, al
	test	rax, rax
	setne	al
	test	al, al
	je	.L428
	movabs	rax, 2305843009213693951
	cmp	QWORD PTR -16[rbp], rax
	jbe	.L429
	call	_ZSt28__throw_bad_array_new_lengthv@PLT
.L429:
	call	_ZSt17__throw_bad_allocv@PLT
.L428:
	mov	rax, QWORD PTR -16[rbp]
	sal	rax, 3
	mov	rdi, rax
	call	_Znwm@PLT
	nop
	leave
	.cfi_def_cfa 7, 8
	ret
	.cfi_endproc
.LFE11636:
	.size	_ZN9__gnu_cxx13new_allocatorIxE8allocateEmPKv, .-_ZN9__gnu_cxx13new_allocatorIxE8allocateEmPKv
	.section	.text._ZSt6fill_nIPxmxET_S1_T0_RKT1_,"axG",@progbits,_ZSt6fill_nIPxmxET_S1_T0_RKT1_,comdat
	.weak	_ZSt6fill_nIPxmxET_S1_T0_RKT1_
	.type	_ZSt6fill_nIPxmxET_S1_T0_RKT1_, @function
_ZSt6fill_nIPxmxET_S1_T0_RKT1_:
.LFB11637:
	.cfi_startproc
	endbr64
	push	rbp
	.cfi_def_cfa_offset 16
	.cfi_offset 6, -16
	mov	rbp, rsp
	.cfi_def_cfa_register 6
	sub	rsp, 32
	mov	QWORD PTR -8[rbp], rdi
	mov	QWORD PTR -16[rbp], rsi
	mov	QWORD PTR -24[rbp], rdx
	lea	rax, -8[rbp]
	mov	rdi, rax
	call	_ZSt19__iterator_categoryIPxENSt15iterator_traitsIT_E17iterator_categoryERKS2_
	mov	rax, QWORD PTR -16[rbp]
	mov	rdi, rax
	call	_ZSt17__size_to_integerm
	mov	rcx, rax
	mov	rax, QWORD PTR -8[rbp]
	mov	rdx, QWORD PTR -24[rbp]
	mov	rsi, rcx
	mov	rdi, rax
	call	_ZSt10__fill_n_aIPxmxET_S1_T0_RKT1_St26random_access_iterator_tag
	leave
	.cfi_def_cfa 7, 8
	ret
	.cfi_endproc
.LFE11637:
	.size	_ZSt6fill_nIPxmxET_S1_T0_RKT1_, .-_ZSt6fill_nIPxmxET_S1_T0_RKT1_
	.section	.text._ZNSt6vectorISt4pairIxS0_IxxEESaIS2_EE11_S_max_sizeERKS3_,"axG",@progbits,_ZNSt6vectorISt4pairIxS0_IxxEESaIS2_EE11_S_max_sizeERKS3_,comdat
	.weak	_ZNSt6vectorISt4pairIxS0_IxxEESaIS2_EE11_S_max_sizeERKS3_
	.type	_ZNSt6vectorISt4pairIxS0_IxxEESaIS2_EE11_S_max_sizeERKS3_, @function
_ZNSt6vectorISt4pairIxS0_IxxEESaIS2_EE11_S_max_sizeERKS3_:
.LFB11638:
	.cfi_startproc
	endbr64
	push	rbp
	.cfi_def_cfa_offset 16
	.cfi_offset 6, -16
	mov	rbp, rsp
	.cfi_def_cfa_register 6
	sub	rsp, 48
	mov	QWORD PTR -40[rbp], rdi
	mov	rax, QWORD PTR fs:40
	mov	QWORD PTR -8[rbp], rax
	xor	eax, eax
	movabs	rax, 384307168202282325
	mov	QWORD PTR -24[rbp], rax
	mov	rax, QWORD PTR -40[rbp]
	mov	rdi, rax
	call	_ZNSt16allocator_traitsISaISt4pairIxS0_IxxEEEE8max_sizeERKS3_
	mov	QWORD PTR -16[rbp], rax
	lea	rdx, -16[rbp]
	lea	rax, -24[rbp]
	mov	rsi, rdx
	mov	rdi, rax
	call	_ZSt3minImERKT_S2_S2_
	mov	rax, QWORD PTR [rax]
	mov	rdx, QWORD PTR -8[rbp]
	sub	rdx, QWORD PTR fs:40
	je	.L435
	call	__stack_chk_fail@PLT
.L435:
	leave
	.cfi_def_cfa 7, 8
	ret
	.cfi_endproc
.LFE11638:
	.size	_ZNSt6vectorISt4pairIxS0_IxxEESaIS2_EE11_S_max_sizeERKS3_, .-_ZNSt6vectorISt4pairIxS0_IxxEESaIS2_EE11_S_max_sizeERKS3_
	.section	.text._ZNKSt12_Vector_baseISt4pairIxS0_IxxEESaIS2_EE19_M_get_Tp_allocatorEv,"axG",@progbits,_ZNKSt12_Vector_baseISt4pairIxS0_IxxEESaIS2_EE19_M_get_Tp_allocatorEv,comdat
	.align 2
	.weak	_ZNKSt12_Vector_baseISt4pairIxS0_IxxEESaIS2_EE19_M_get_Tp_allocatorEv
	.type	_ZNKSt12_Vector_baseISt4pairIxS0_IxxEESaIS2_EE19_M_get_Tp_allocatorEv, @function
_ZNKSt12_Vector_baseISt4pairIxS0_IxxEESaIS2_EE19_M_get_Tp_allocatorEv:
.LFB11639:
	.cfi_startproc
	endbr64
	push	rbp
	.cfi_def_cfa_offset 16
	.cfi_offset 6, -16
	mov	rbp, rsp
	.cfi_def_cfa_register 6
	mov	QWORD PTR -8[rbp], rdi
	mov	rax, QWORD PTR -8[rbp]
	pop	rbp
	.cfi_def_cfa 7, 8
	ret
	.cfi_endproc
.LFE11639:
	.size	_ZNKSt12_Vector_baseISt4pairIxS0_IxxEESaIS2_EE19_M_get_Tp_allocatorEv, .-_ZNKSt12_Vector_baseISt4pairIxS0_IxxEESaIS2_EE19_M_get_Tp_allocatorEv
	.section	.text._ZNK9__gnu_cxx13new_allocatorISt4pairIxS1_IxxEEE11_M_max_sizeEv,"axG",@progbits,_ZNK9__gnu_cxx13new_allocatorISt4pairIxS1_IxxEEE11_M_max_sizeEv,comdat
	.align 2
	.weak	_ZNK9__gnu_cxx13new_allocatorISt4pairIxS1_IxxEEE11_M_max_sizeEv
	.type	_ZNK9__gnu_cxx13new_allocatorISt4pairIxS1_IxxEEE11_M_max_sizeEv, @function
_ZNK9__gnu_cxx13new_allocatorISt4pairIxS1_IxxEEE11_M_max_sizeEv:
.LFB11641:
	.cfi_startproc
	endbr64
	push	rbp
	.cfi_def_cfa_offset 16
	.cfi_offset 6, -16
	mov	rbp, rsp
	.cfi_def_cfa_register 6
	mov	QWORD PTR -8[rbp], rdi
	movabs	rax, 384307168202282325
	pop	rbp
	.cfi_def_cfa 7, 8
	ret
	.cfi_endproc
.LFE11641:
	.size	_ZNK9__gnu_cxx13new_allocatorISt4pairIxS1_IxxEEE11_M_max_sizeEv, .-_ZNK9__gnu_cxx13new_allocatorISt4pairIxS1_IxxEEE11_M_max_sizeEv
	.section	.text._ZN9__gnu_cxx13new_allocatorISt4pairIxS1_IxxEEE8allocateEmPKv,"axG",@progbits,_ZN9__gnu_cxx13new_allocatorISt4pairIxS1_IxxEEE8allocateEmPKv,comdat
	.align 2
	.weak	_ZN9__gnu_cxx13new_allocatorISt4pairIxS1_IxxEEE8allocateEmPKv
	.type	_ZN9__gnu_cxx13new_allocatorISt4pairIxS1_IxxEEE8allocateEmPKv, @function
_ZN9__gnu_cxx13new_allocatorISt4pairIxS1_IxxEEE8allocateEmPKv:
.LFB11640:
	.cfi_startproc
	endbr64
	push	rbp
	.cfi_def_cfa_offset 16
	.cfi_offset 6, -16
	mov	rbp, rsp
	.cfi_def_cfa_register 6
	sub	rsp, 32
	mov	QWORD PTR -8[rbp], rdi
	mov	QWORD PTR -16[rbp], rsi
	mov	QWORD PTR -24[rbp], rdx
	mov	rax, QWORD PTR -8[rbp]
	mov	rdi, rax
	call	_ZNK9__gnu_cxx13new_allocatorISt4pairIxS1_IxxEEE11_M_max_sizeEv
	cmp	QWORD PTR -16[rbp], rax
	seta	al
	movzx	eax, al
	test	rax, rax
	setne	al
	test	al, al
	je	.L441
	movabs	rax, 768614336404564650
	cmp	QWORD PTR -16[rbp], rax
	jbe	.L442
	call	_ZSt28__throw_bad_array_new_lengthv@PLT
.L442:
	call	_ZSt17__throw_bad_allocv@PLT
.L441:
	mov	rdx, QWORD PTR -16[rbp]
	mov	rax, rdx
	add	rax, rax
	add	rax, rdx
	sal	rax, 3
	mov	rdi, rax
	call	_Znwm@PLT
	nop
	leave
	.cfi_def_cfa 7, 8
	ret
	.cfi_endproc
.LFE11640:
	.size	_ZN9__gnu_cxx13new_allocatorISt4pairIxS1_IxxEEE8allocateEmPKv, .-_ZN9__gnu_cxx13new_allocatorISt4pairIxS1_IxxEEE8allocateEmPKv
	.section	.text._ZSt12__relocate_aIPSt4pairIxS0_IxxEES3_SaIS2_EET0_T_S6_S5_RT1_,"axG",@progbits,_ZSt12__relocate_aIPSt4pairIxS0_IxxEES3_SaIS2_EET0_T_S6_S5_RT1_,comdat
	.weak	_ZSt12__relocate_aIPSt4pairIxS0_IxxEES3_SaIS2_EET0_T_S6_S5_RT1_
	.type	_ZSt12__relocate_aIPSt4pairIxS0_IxxEES3_SaIS2_EET0_T_S6_S5_RT1_, @function
_ZSt12__relocate_aIPSt4pairIxS0_IxxEES3_SaIS2_EET0_T_S6_S5_RT1_:
.LFB11642:
	.cfi_startproc
	endbr64
	push	rbp
	.cfi_def_cfa_offset 16
	.cfi_offset 6, -16
	mov	rbp, rsp
	.cfi_def_cfa_register 6
	push	r12
	push	rbx
	sub	rsp, 32
	.cfi_offset 12, -24
	.cfi_offset 3, -32
	mov	QWORD PTR -24[rbp], rdi
	mov	QWORD PTR -32[rbp], rsi
	mov	QWORD PTR -40[rbp], rdx
	mov	QWORD PTR -48[rbp], rcx
	mov	rax, QWORD PTR -40[rbp]
	mov	rdi, rax
	call	_ZSt12__niter_baseIPSt4pairIxS0_IxxEEET_S4_
	mov	r12, rax
	mov	rax, QWORD PTR -32[rbp]
	mov	rdi, rax
	call	_ZSt12__niter_baseIPSt4pairIxS0_IxxEEET_S4_
	mov	rbx, rax
	mov	rax, QWORD PTR -24[rbp]
	mov	rdi, rax
	call	_ZSt12__niter_baseIPSt4pairIxS0_IxxEEET_S4_
	mov	rdi, rax
	mov	rax, QWORD PTR -48[rbp]
	mov	rcx, rax
	mov	rdx, r12
	mov	rsi, rbx
	call	_ZSt14__relocate_a_1IPSt4pairIxS0_IxxEES3_SaIS2_EET0_T_S6_S5_RT1_
	add	rsp, 32
	pop	rbx
	pop	r12
	pop	rbp
	.cfi_def_cfa 7, 8
	ret
	.cfi_endproc
.LFE11642:
	.size	_ZSt12__relocate_aIPSt4pairIxS0_IxxEES3_SaIS2_EET0_T_S6_S5_RT1_, .-_ZSt12__relocate_aIPSt4pairIxS0_IxxEES3_SaIS2_EET0_T_S6_S5_RT1_
	.section	.text._ZN9__gnu_cxx16__aligned_membufIxE6_M_ptrEv,"axG",@progbits,_ZN9__gnu_cxx16__aligned_membufIxE6_M_ptrEv,comdat
	.align 2
	.weak	_ZN9__gnu_cxx16__aligned_membufIxE6_M_ptrEv
	.type	_ZN9__gnu_cxx16__aligned_membufIxE6_M_ptrEv, @function
_ZN9__gnu_cxx16__aligned_membufIxE6_M_ptrEv:
.LFB11643:
	.cfi_startproc
	endbr64
	push	rbp
	.cfi_def_cfa_offset 16
	.cfi_offset 6, -16
	mov	rbp, rsp
	.cfi_def_cfa_register 6
	sub	rsp, 16
	mov	QWORD PTR -8[rbp], rdi
	mov	rax, QWORD PTR -8[rbp]
	mov	rdi, rax
	call	_ZN9__gnu_cxx16__aligned_membufIxE7_M_addrEv
	leave
	.cfi_def_cfa 7, 8
	ret
	.cfi_endproc
.LFE11643:
	.size	_ZN9__gnu_cxx16__aligned_membufIxE6_M_ptrEv, .-_ZN9__gnu_cxx16__aligned_membufIxE6_M_ptrEv
	.section	.text._ZN9__gnu_cxx13new_allocatorISt13_Rb_tree_nodeIxEE7destroyIxEEvPT_,"axG",@progbits,_ZN9__gnu_cxx13new_allocatorISt13_Rb_tree_nodeIxEE7destroyIxEEvPT_,comdat
	.align 2
	.weak	_ZN9__gnu_cxx13new_allocatorISt13_Rb_tree_nodeIxEE7destroyIxEEvPT_
	.type	_ZN9__gnu_cxx13new_allocatorISt13_Rb_tree_nodeIxEE7destroyIxEEvPT_, @function
_ZN9__gnu_cxx13new_allocatorISt13_Rb_tree_nodeIxEE7destroyIxEEvPT_:
.LFB11644:
	.cfi_startproc
	endbr64
	push	rbp
	.cfi_def_cfa_offset 16
	.cfi_offset 6, -16
	mov	rbp, rsp
	.cfi_def_cfa_register 6
	mov	QWORD PTR -8[rbp], rdi
	mov	QWORD PTR -16[rbp], rsi
	nop
	pop	rbp
	.cfi_def_cfa 7, 8
	ret
	.cfi_endproc
.LFE11644:
	.size	_ZN9__gnu_cxx13new_allocatorISt13_Rb_tree_nodeIxEE7destroyIxEEvPT_, .-_ZN9__gnu_cxx13new_allocatorISt13_Rb_tree_nodeIxEE7destroyIxEEvPT_
	.section	.text._ZN9__gnu_cxx13new_allocatorISt13_Rb_tree_nodeIxEE10deallocateEPS2_m,"axG",@progbits,_ZN9__gnu_cxx13new_allocatorISt13_Rb_tree_nodeIxEE10deallocateEPS2_m,comdat
	.align 2
	.weak	_ZN9__gnu_cxx13new_allocatorISt13_Rb_tree_nodeIxEE10deallocateEPS2_m
	.type	_ZN9__gnu_cxx13new_allocatorISt13_Rb_tree_nodeIxEE10deallocateEPS2_m, @function
_ZN9__gnu_cxx13new_allocatorISt13_Rb_tree_nodeIxEE10deallocateEPS2_m:
.LFB11645:
	.cfi_startproc
	endbr64
	push	rbp
	.cfi_def_cfa_offset 16
	.cfi_offset 6, -16
	mov	rbp, rsp
	.cfi_def_cfa_register 6
	sub	rsp, 32
	mov	QWORD PTR -8[rbp], rdi
	mov	QWORD PTR -16[rbp], rsi
	mov	QWORD PTR -24[rbp], rdx
	mov	rdx, QWORD PTR -24[rbp]
	mov	rax, rdx
	sal	rax, 2
	add	rax, rdx
	sal	rax, 3
	mov	rdx, rax
	mov	rax, QWORD PTR -16[rbp]
	mov	rsi, rdx
	mov	rdi, rax
	call	_ZdlPvm@PLT
	leave
	.cfi_def_cfa 7, 8
	ret
	.cfi_endproc
.LFE11645:
	.size	_ZN9__gnu_cxx13new_allocatorISt13_Rb_tree_nodeIxEE10deallocateEPS2_m, .-_ZN9__gnu_cxx13new_allocatorISt13_Rb_tree_nodeIxEE10deallocateEPS2_m
	.section	.text._ZNSt8_Rb_treeIxxSt9_IdentityIxESt4lessIxESaIxEE11_M_get_nodeEv,"axG",@progbits,_ZNSt8_Rb_treeIxxSt9_IdentityIxESt4lessIxESaIxEE11_M_get_nodeEv,comdat
	.align 2
	.weak	_ZNSt8_Rb_treeIxxSt9_IdentityIxESt4lessIxESaIxEE11_M_get_nodeEv
	.type	_ZNSt8_Rb_treeIxxSt9_IdentityIxESt4lessIxESaIxEE11_M_get_nodeEv, @function
_ZNSt8_Rb_treeIxxSt9_IdentityIxESt4lessIxESaIxEE11_M_get_nodeEv:
.LFB11646:
	.cfi_startproc
	endbr64
	push	rbp
	.cfi_def_cfa_offset 16
	.cfi_offset 6, -16
	mov	rbp, rsp
	.cfi_def_cfa_register 6
	sub	rsp, 16
	mov	QWORD PTR -8[rbp], rdi
	mov	rax, QWORD PTR -8[rbp]
	mov	rdi, rax
	call	_ZNSt8_Rb_treeIxxSt9_IdentityIxESt4lessIxESaIxEE21_M_get_Node_allocatorEv
	mov	esi, 1
	mov	rdi, rax
	call	_ZNSt16allocator_traitsISaISt13_Rb_tree_nodeIxEEE8allocateERS2_m
	leave
	.cfi_def_cfa 7, 8
	ret
	.cfi_endproc
.LFE11646:
	.size	_ZNSt8_Rb_treeIxxSt9_IdentityIxESt4lessIxESaIxEE11_M_get_nodeEv, .-_ZNSt8_Rb_treeIxxSt9_IdentityIxESt4lessIxESaIxEE11_M_get_nodeEv
	.section	.text._ZNSt8_Rb_treeIxxSt9_IdentityIxESt4lessIxESaIxEE17_M_construct_nodeIJxEEEvPSt13_Rb_tree_nodeIxEDpOT_,"axG",@progbits,_ZNSt8_Rb_treeIxxSt9_IdentityIxESt4lessIxESaIxEE17_M_construct_nodeIJxEEEvPSt13_Rb_tree_nodeIxEDpOT_,comdat
	.align 2
	.weak	_ZNSt8_Rb_treeIxxSt9_IdentityIxESt4lessIxESaIxEE17_M_construct_nodeIJxEEEvPSt13_Rb_tree_nodeIxEDpOT_
	.type	_ZNSt8_Rb_treeIxxSt9_IdentityIxESt4lessIxESaIxEE17_M_construct_nodeIJxEEEvPSt13_Rb_tree_nodeIxEDpOT_, @function
_ZNSt8_Rb_treeIxxSt9_IdentityIxESt4lessIxESaIxEE17_M_construct_nodeIJxEEEvPSt13_Rb_tree_nodeIxEDpOT_:
.LFB11647:
	.cfi_startproc
	endbr64
	push	rbp
	.cfi_def_cfa_offset 16
	.cfi_offset 6, -16
	mov	rbp, rsp
	.cfi_def_cfa_register 6
	push	r12
	push	rbx
	sub	rsp, 32
	.cfi_offset 12, -24
	.cfi_offset 3, -32
	mov	QWORD PTR -24[rbp], rdi
	mov	QWORD PTR -32[rbp], rsi
	mov	QWORD PTR -40[rbp], rdx
	mov	rax, QWORD PTR -32[rbp]
	mov	rsi, rax
	mov	edi, 40
	call	_ZnwmPv
	mov	rax, QWORD PTR -40[rbp]
	mov	rdi, rax
	call	_ZSt7forwardIxEOT_RNSt16remove_referenceIS0_E4typeE
	mov	r12, rax
	mov	rax, QWORD PTR -32[rbp]
	mov	rdi, rax
	call	_ZNSt13_Rb_tree_nodeIxE9_M_valptrEv
	mov	rbx, rax
	mov	rax, QWORD PTR -24[rbp]
	mov	rdi, rax
	call	_ZNSt8_Rb_treeIxxSt9_IdentityIxESt4lessIxESaIxEE21_M_get_Node_allocatorEv
	mov	rdx, r12
	mov	rsi, rbx
	mov	rdi, rax
	call	_ZNSt16allocator_traitsISaISt13_Rb_tree_nodeIxEEE9constructIxJxEEEvRS2_PT_DpOT0_
	nop
	add	rsp, 32
	pop	rbx
	pop	r12
	pop	rbp
	.cfi_def_cfa 7, 8
	ret
	.cfi_endproc
.LFE11647:
	.size	_ZNSt8_Rb_treeIxxSt9_IdentityIxESt4lessIxESaIxEE17_M_construct_nodeIJxEEEvPSt13_Rb_tree_nodeIxEDpOT_, .-_ZNSt8_Rb_treeIxxSt9_IdentityIxESt4lessIxESaIxEE17_M_construct_nodeIJxEEEvPSt13_Rb_tree_nodeIxEDpOT_
	.section	.text._ZSt11__make_heapIN9__gnu_cxx17__normal_iteratorIPSt4pairIxS2_IxxEESt6vectorIS4_SaIS4_EEEENS0_5__ops15_Iter_less_iterEEvT_SC_RT0_,"axG",@progbits,_ZSt11__make_heapIN9__gnu_cxx17__normal_iteratorIPSt4pairIxS2_IxxEESt6vectorIS4_SaIS4_EEEENS0_5__ops15_Iter_less_iterEEvT_SC_RT0_,comdat
	.weak	_ZSt11__make_heapIN9__gnu_cxx17__normal_iteratorIPSt4pairIxS2_IxxEESt6vectorIS4_SaIS4_EEEENS0_5__ops15_Iter_less_iterEEvT_SC_RT0_
	.type	_ZSt11__make_heapIN9__gnu_cxx17__normal_iteratorIPSt4pairIxS2_IxxEESt6vectorIS4_SaIS4_EEEENS0_5__ops15_Iter_less_iterEEvT_SC_RT0_, @function
_ZSt11__make_heapIN9__gnu_cxx17__normal_iteratorIPSt4pairIxS2_IxxEESt6vectorIS4_SaIS4_EEEENS0_5__ops15_Iter_less_iterEEvT_SC_RT0_:
.LFB11648:
	.cfi_startproc
	endbr64
	push	rbp
	.cfi_def_cfa_offset 16
	.cfi_offset 6, -16
	mov	rbp, rsp
	.cfi_def_cfa_register 6
	sub	rsp, 96
	mov	QWORD PTR -72[rbp], rdi
	mov	QWORD PTR -80[rbp], rsi
	mov	QWORD PTR -88[rbp], rdx
	mov	rax, QWORD PTR fs:40
	mov	QWORD PTR -8[rbp], rax
	xor	eax, eax
	lea	rdx, -72[rbp]
	lea	rax, -80[rbp]
	mov	rsi, rdx
	mov	rdi, rax
	call	_ZN9__gnu_cxxmiIPSt4pairIxS1_IxxEESt6vectorIS3_SaIS3_EEEENS_17__normal_iteratorIT_T0_E15difference_typeERKSB_SE_
	cmp	rax, 1
	setle	al
	test	al, al
	jne	.L460
	lea	rdx, -72[rbp]
	lea	rax, -80[rbp]
	mov	rsi, rdx
	mov	rdi, rax
	call	_ZN9__gnu_cxxmiIPSt4pairIxS1_IxxEESt6vectorIS3_SaIS3_EEEENS_17__normal_iteratorIT_T0_E15difference_typeERKSB_SE_
	mov	QWORD PTR -40[rbp], rax
	mov	rax, QWORD PTR -40[rbp]
	sub	rax, 2
	mov	rdx, rax
	shr	rdx, 63
	add	rax, rdx
	sar	rax
	mov	QWORD PTR -48[rbp], rax
.L458:
	mov	rdx, QWORD PTR -48[rbp]
	lea	rax, -72[rbp]
	mov	rsi, rdx
	mov	rdi, rax
	call	_ZNK9__gnu_cxx17__normal_iteratorIPSt4pairIxS1_IxxEESt6vectorIS3_SaIS3_EEEplEl
	mov	QWORD PTR -56[rbp], rax
	lea	rax, -56[rbp]
	mov	rdi, rax
	call	_ZNK9__gnu_cxx17__normal_iteratorIPSt4pairIxS1_IxxEESt6vectorIS3_SaIS3_EEEdeEv
	mov	rdi, rax
	call	_ZSt4moveIRSt4pairIxS0_IxxEEEONSt16remove_referenceIT_E4typeEOS5_
	mov	rcx, rax
	mov	rax, QWORD PTR [rcx]
	mov	rdx, QWORD PTR 8[rcx]
	mov	QWORD PTR -32[rbp], rax
	mov	QWORD PTR -24[rbp], rdx
	mov	rax, QWORD PTR 16[rcx]
	mov	QWORD PTR -16[rbp], rax
	lea	rax, -32[rbp]
	mov	rdi, rax
	call	_ZSt4moveIRSt4pairIxS0_IxxEEEONSt16remove_referenceIT_E4typeEOS5_
	mov	rdx, QWORD PTR -40[rbp]
	mov	rsi, QWORD PTR -48[rbp]
	mov	rcx, QWORD PTR -72[rbp]
	sub	rsp, 8
	push	QWORD PTR 16[rax]
	push	QWORD PTR 8[rax]
	push	QWORD PTR [rax]
	mov	rdi, rcx
	call	_ZSt13__adjust_heapIN9__gnu_cxx17__normal_iteratorIPSt4pairIxS2_IxxEESt6vectorIS4_SaIS4_EEEElS4_NS0_5__ops15_Iter_less_iterEEvT_T0_SD_T1_T2_
	add	rsp, 32
	cmp	QWORD PTR -48[rbp], 0
	je	.L461
	sub	QWORD PTR -48[rbp], 1
	jmp	.L458
.L460:
	nop
	jmp	.L454
.L461:
	nop
.L454:
	mov	rax, QWORD PTR -8[rbp]
	sub	rax, QWORD PTR fs:40
	je	.L459
	call	__stack_chk_fail@PLT
.L459:
	leave
	.cfi_def_cfa 7, 8
	ret
	.cfi_endproc
.LFE11648:
	.size	_ZSt11__make_heapIN9__gnu_cxx17__normal_iteratorIPSt4pairIxS2_IxxEESt6vectorIS4_SaIS4_EEEENS0_5__ops15_Iter_less_iterEEvT_SC_RT0_, .-_ZSt11__make_heapIN9__gnu_cxx17__normal_iteratorIPSt4pairIxS2_IxxEESt6vectorIS4_SaIS4_EEEENS0_5__ops15_Iter_less_iterEEvT_SC_RT0_
	.section	.text._ZN9__gnu_cxxltIPSt4pairIxS1_IxxEESt6vectorIS3_SaIS3_EEEEbRKNS_17__normal_iteratorIT_T0_EESD_,"axG",@progbits,_ZN9__gnu_cxxltIPSt4pairIxS1_IxxEESt6vectorIS3_SaIS3_EEEEbRKNS_17__normal_iteratorIT_T0_EESD_,comdat
	.weak	_ZN9__gnu_cxxltIPSt4pairIxS1_IxxEESt6vectorIS3_SaIS3_EEEEbRKNS_17__normal_iteratorIT_T0_EESD_
