	.file	"1325B.cpp"
	.intel_syntax noprefix
	.text
	.section	.text._ZnwmPv,"axG",@progbits,_ZnwmPv,comdat
	.weak	_ZnwmPv
	.type	_ZnwmPv, @function
_ZnwmPv:
.LFB1007:
	.cfi_startproc
	endbr64
	push	rbp
	.cfi_def_cfa_offset 16
	.cfi_offset 6, -16
	mov	rbp, rsp
	.cfi_def_cfa_register 6
	mov	QWORD PTR -8[rbp], rdi
	mov	QWORD PTR -16[rbp], rsi
	mov	rax, QWORD PTR -16[rbp]
	pop	rbp
	.cfi_def_cfa 7, 8
	ret
	.cfi_endproc
.LFE1007:
	.size	_ZnwmPv, .-_ZnwmPv
	.section	.rodata
	.type	_ZN6__pstl9execution2v1L3seqE, @object
	.size	_ZN6__pstl9execution2v1L3seqE, 1
_ZN6__pstl9execution2v1L3seqE:
	.zero	1
	.type	_ZN6__pstl9execution2v1L3parE, @object
	.size	_ZN6__pstl9execution2v1L3parE, 1
_ZN6__pstl9execution2v1L3parE:
	.zero	1
	.type	_ZN6__pstl9execution2v1L9par_unseqE, @object
	.size	_ZN6__pstl9execution2v1L9par_unseqE, 1
_ZN6__pstl9execution2v1L9par_unseqE:
	.zero	1
	.type	_ZN6__pstl9execution2v1L5unseqE, @object
	.size	_ZN6__pstl9execution2v1L5unseqE, 1
_ZN6__pstl9execution2v1L5unseqE:
	.zero	1
	.local	_ZStL8__ioinit
	.comm	_ZStL8__ioinit,1,1
	.section	.text._ZNSt15_Rb_tree_headerC2Ev,"axG",@progbits,_ZNSt15_Rb_tree_headerC5Ev,comdat
	.align 2
	.weak	_ZNSt15_Rb_tree_headerC2Ev
	.type	_ZNSt15_Rb_tree_headerC2Ev, @function
_ZNSt15_Rb_tree_headerC2Ev:
.LFB5009:
	.cfi_startproc
	endbr64
	push	rbp
	.cfi_def_cfa_offset 16
	.cfi_offset 6, -16
	mov	rbp, rsp
	.cfi_def_cfa_register 6
	sub	rsp, 16
	mov	QWORD PTR -8[rbp], rdi
	mov	rax, QWORD PTR -8[rbp]
	mov	DWORD PTR [rax], 0
	mov	rax, QWORD PTR -8[rbp]
	mov	rdi, rax
	call	_ZNSt15_Rb_tree_header8_M_resetEv
	nop
	leave
	.cfi_def_cfa 7, 8
	ret
	.cfi_endproc
.LFE5009:
	.size	_ZNSt15_Rb_tree_headerC2Ev, .-_ZNSt15_Rb_tree_headerC2Ev
	.weak	_ZNSt15_Rb_tree_headerC1Ev
	.set	_ZNSt15_Rb_tree_headerC1Ev,_ZNSt15_Rb_tree_headerC2Ev
	.section	.text._ZNSt15_Rb_tree_header8_M_resetEv,"axG",@progbits,_ZNSt15_Rb_tree_header8_M_resetEv,comdat
	.align 2
	.weak	_ZNSt15_Rb_tree_header8_M_resetEv
	.type	_ZNSt15_Rb_tree_header8_M_resetEv, @function
_ZNSt15_Rb_tree_header8_M_resetEv:
.LFB5015:
	.cfi_startproc
	endbr64
	push	rbp
	.cfi_def_cfa_offset 16
	.cfi_offset 6, -16
	mov	rbp, rsp
	.cfi_def_cfa_register 6
	mov	QWORD PTR -8[rbp], rdi
	mov	rax, QWORD PTR -8[rbp]
	mov	QWORD PTR 8[rax], 0
	mov	rdx, QWORD PTR -8[rbp]
	mov	rax, QWORD PTR -8[rbp]
	mov	QWORD PTR 16[rax], rdx
	mov	rdx, QWORD PTR -8[rbp]
	mov	rax, QWORD PTR -8[rbp]
	mov	QWORD PTR 24[rax], rdx
	mov	rax, QWORD PTR -8[rbp]
	mov	QWORD PTR 32[rax], 0
	nop
	pop	rbp
	.cfi_def_cfa 7, 8
	ret
	.cfi_endproc
.LFE5015:
	.size	_ZNSt15_Rb_tree_header8_M_resetEv, .-_ZNSt15_Rb_tree_header8_M_resetEv
	.section	.rodata
	.align 4
	.type	_ZN9__gnu_cxxL21__default_lock_policyE, @object
	.size	_ZN9__gnu_cxxL21__default_lock_policyE, 4
_ZN9__gnu_cxxL21__default_lock_policyE:
	.long	2
	.align 4
	.type	_ZNSt15regex_constantsL13error_collateE, @object
	.size	_ZNSt15regex_constantsL13error_collateE, 4
_ZNSt15regex_constantsL13error_collateE:
	.zero	4
	.align 4
	.type	_ZNSt15regex_constantsL11error_ctypeE, @object
	.size	_ZNSt15regex_constantsL11error_ctypeE, 4
_ZNSt15regex_constantsL11error_ctypeE:
	.long	1
	.align 4
	.type	_ZNSt15regex_constantsL12error_escapeE, @object
	.size	_ZNSt15regex_constantsL12error_escapeE, 4
_ZNSt15regex_constantsL12error_escapeE:
	.long	2
	.align 4
	.type	_ZNSt15regex_constantsL13error_backrefE, @object
	.size	_ZNSt15regex_constantsL13error_backrefE, 4
_ZNSt15regex_constantsL13error_backrefE:
	.long	3
	.align 4
	.type	_ZNSt15regex_constantsL11error_brackE, @object
	.size	_ZNSt15regex_constantsL11error_brackE, 4
_ZNSt15regex_constantsL11error_brackE:
	.long	4
	.align 4
	.type	_ZNSt15regex_constantsL11error_parenE, @object
	.size	_ZNSt15regex_constantsL11error_parenE, 4
_ZNSt15regex_constantsL11error_parenE:
	.long	5
	.align 4
	.type	_ZNSt15regex_constantsL11error_braceE, @object
	.size	_ZNSt15regex_constantsL11error_braceE, 4
_ZNSt15regex_constantsL11error_braceE:
	.long	6
	.align 4
	.type	_ZNSt15regex_constantsL14error_badbraceE, @object
	.size	_ZNSt15regex_constantsL14error_badbraceE, 4
_ZNSt15regex_constantsL14error_badbraceE:
	.long	7
	.align 4
	.type	_ZNSt15regex_constantsL11error_rangeE, @object
	.size	_ZNSt15regex_constantsL11error_rangeE, 4
_ZNSt15regex_constantsL11error_rangeE:
	.long	8
	.align 4
	.type	_ZNSt15regex_constantsL11error_spaceE, @object
	.size	_ZNSt15regex_constantsL11error_spaceE, 4
_ZNSt15regex_constantsL11error_spaceE:
	.long	9
	.align 4
	.type	_ZNSt15regex_constantsL15error_badrepeatE, @object
	.size	_ZNSt15regex_constantsL15error_badrepeatE, 4
_ZNSt15regex_constantsL15error_badrepeatE:
	.long	10
	.align 4
	.type	_ZNSt15regex_constantsL16error_complexityE, @object
	.size	_ZNSt15regex_constantsL16error_complexityE, 4
_ZNSt15regex_constantsL16error_complexityE:
	.long	11
	.align 4
	.type	_ZNSt15regex_constantsL11error_stackE, @object
	.size	_ZNSt15regex_constantsL11error_stackE, 4
_ZNSt15regex_constantsL11error_stackE:
	.long	12
	.align 8
	.type	_ZNSt8__detailL19_S_invalid_state_idE, @object
	.size	_ZNSt8__detailL19_S_invalid_state_idE, 8
_ZNSt8__detailL19_S_invalid_state_idE:
	.quad	-1
	.align 8
	.type	_ZL3INF, @object
	.size	_ZL3INF, 8
_ZL3INF:
	.quad	2000000000000000000
	.section	.text._ZNSt8_Rb_treeIiiSt9_IdentityIiESt7greaterIiESaIiEE13_Rb_tree_implIS3_Lb1EED2Ev,"axG",@progbits,_ZNSt8_Rb_treeIiiSt9_IdentityIiESt7greaterIiESaIiEE13_Rb_tree_implIS3_Lb1EED5Ev,comdat
	.align 2
	.weak	_ZNSt8_Rb_treeIiiSt9_IdentityIiESt7greaterIiESaIiEE13_Rb_tree_implIS3_Lb1EED2Ev
	.type	_ZNSt8_Rb_treeIiiSt9_IdentityIiESt7greaterIiESaIiEE13_Rb_tree_implIS3_Lb1EED2Ev, @function
_ZNSt8_Rb_treeIiiSt9_IdentityIiESt7greaterIiESaIiEE13_Rb_tree_implIS3_Lb1EED2Ev:
.LFB9711:
	.cfi_startproc
	endbr64
	push	rbp
	.cfi_def_cfa_offset 16
	.cfi_offset 6, -16
	mov	rbp, rsp
	.cfi_def_cfa_register 6
	sub	rsp, 16
	mov	QWORD PTR -8[rbp], rdi
	mov	rax, QWORD PTR -8[rbp]
	mov	rdi, rax
	call	_ZNSaISt13_Rb_tree_nodeIiEED2Ev
	nop
	leave
	.cfi_def_cfa 7, 8
	ret
	.cfi_endproc
.LFE9711:
	.size	_ZNSt8_Rb_treeIiiSt9_IdentityIiESt7greaterIiESaIiEE13_Rb_tree_implIS3_Lb1EED2Ev, .-_ZNSt8_Rb_treeIiiSt9_IdentityIiESt7greaterIiESaIiEE13_Rb_tree_implIS3_Lb1EED2Ev
	.weak	_ZNSt8_Rb_treeIiiSt9_IdentityIiESt7greaterIiESaIiEE13_Rb_tree_implIS3_Lb1EED1Ev
	.set	_ZNSt8_Rb_treeIiiSt9_IdentityIiESt7greaterIiESaIiEE13_Rb_tree_implIS3_Lb1EED1Ev,_ZNSt8_Rb_treeIiiSt9_IdentityIiESt7greaterIiESaIiEE13_Rb_tree_implIS3_Lb1EED2Ev
	.section	.text._ZNSt8_Rb_treeIiiSt9_IdentityIiESt7greaterIiESaIiEEC2Ev,"axG",@progbits,_ZNSt8_Rb_treeIiiSt9_IdentityIiESt7greaterIiESaIiEEC5Ev,comdat
	.align 2
	.weak	_ZNSt8_Rb_treeIiiSt9_IdentityIiESt7greaterIiESaIiEEC2Ev
	.type	_ZNSt8_Rb_treeIiiSt9_IdentityIiESt7greaterIiESaIiEEC2Ev, @function
_ZNSt8_Rb_treeIiiSt9_IdentityIiESt7greaterIiESaIiEEC2Ev:
.LFB9713:
	.cfi_startproc
	endbr64
	push	rbp
	.cfi_def_cfa_offset 16
	.cfi_offset 6, -16
	mov	rbp, rsp
	.cfi_def_cfa_register 6
	sub	rsp, 16
	mov	QWORD PTR -8[rbp], rdi
	mov	rax, QWORD PTR -8[rbp]
	mov	rdi, rax
	call	_ZNSt8_Rb_treeIiiSt9_IdentityIiESt7greaterIiESaIiEE13_Rb_tree_implIS3_Lb1EEC1Ev
	nop
	leave
	.cfi_def_cfa 7, 8
	ret
	.cfi_endproc
.LFE9713:
	.size	_ZNSt8_Rb_treeIiiSt9_IdentityIiESt7greaterIiESaIiEEC2Ev, .-_ZNSt8_Rb_treeIiiSt9_IdentityIiESt7greaterIiESaIiEEC2Ev
	.weak	_ZNSt8_Rb_treeIiiSt9_IdentityIiESt7greaterIiESaIiEEC1Ev
	.set	_ZNSt8_Rb_treeIiiSt9_IdentityIiESt7greaterIiESaIiEEC1Ev,_ZNSt8_Rb_treeIiiSt9_IdentityIiESt7greaterIiESaIiEEC2Ev
	.section	.text._ZNSt3setIiSt7greaterIiESaIiEEC2Ev,"axG",@progbits,_ZNSt3setIiSt7greaterIiESaIiEEC5Ev,comdat
	.align 2
	.weak	_ZNSt3setIiSt7greaterIiESaIiEEC2Ev
	.type	_ZNSt3setIiSt7greaterIiESaIiEEC2Ev, @function
_ZNSt3setIiSt7greaterIiESaIiEEC2Ev:
.LFB9715:
	.cfi_startproc
	endbr64
	push	rbp
	.cfi_def_cfa_offset 16
	.cfi_offset 6, -16
	mov	rbp, rsp
	.cfi_def_cfa_register 6
	sub	rsp, 16
	mov	QWORD PTR -8[rbp], rdi
	mov	rax, QWORD PTR -8[rbp]
	mov	rdi, rax
	call	_ZNSt8_Rb_treeIiiSt9_IdentityIiESt7greaterIiESaIiEEC1Ev
	nop
	leave
	.cfi_def_cfa 7, 8
	ret
	.cfi_endproc
.LFE9715:
	.size	_ZNSt3setIiSt7greaterIiESaIiEEC2Ev, .-_ZNSt3setIiSt7greaterIiESaIiEEC2Ev
	.weak	_ZNSt3setIiSt7greaterIiESaIiEEC1Ev
	.set	_ZNSt3setIiSt7greaterIiESaIiEEC1Ev,_ZNSt3setIiSt7greaterIiESaIiEEC2Ev
	.section	.text._ZNSt3setIiSt7greaterIiESaIiEED2Ev,"axG",@progbits,_ZNSt3setIiSt7greaterIiESaIiEED5Ev,comdat
	.align 2
	.weak	_ZNSt3setIiSt7greaterIiESaIiEED2Ev
	.type	_ZNSt3setIiSt7greaterIiESaIiEED2Ev, @function
_ZNSt3setIiSt7greaterIiESaIiEED2Ev:
.LFB9718:
	.cfi_startproc
	endbr64
	push	rbp
	.cfi_def_cfa_offset 16
	.cfi_offset 6, -16
	mov	rbp, rsp
	.cfi_def_cfa_register 6
	sub	rsp, 16
	mov	QWORD PTR -8[rbp], rdi
	mov	rax, QWORD PTR -8[rbp]
	mov	rdi, rax
	call	_ZNSt8_Rb_treeIiiSt9_IdentityIiESt7greaterIiESaIiEED1Ev
	nop
	leave
	.cfi_def_cfa 7, 8
	ret
	.cfi_endproc
.LFE9718:
	.size	_ZNSt3setIiSt7greaterIiESaIiEED2Ev, .-_ZNSt3setIiSt7greaterIiESaIiEED2Ev
	.weak	_ZNSt3setIiSt7greaterIiESaIiEED1Ev
	.set	_ZNSt3setIiSt7greaterIiESaIiEED1Ev,_ZNSt3setIiSt7greaterIiESaIiEED2Ev
	.text
	.globl	main
	.type	main, @function
main:
.LFB9704:
	.cfi_startproc
	.cfi_personality 0x9b,DW.ref.__gxx_personality_v0
	.cfi_lsda 0x1b,.LLSDA9704
	endbr64
	push	rbp
	.cfi_def_cfa_offset 16
	.cfi_offset 6, -16
	mov	rbp, rsp
	.cfi_def_cfa_register 6
	push	rbx
	sub	rsp, 88
	.cfi_offset 3, -24
	mov	rax, QWORD PTR fs:40
	mov	QWORD PTR -24[rbp], rax
	xor	eax, eax
	mov	edi, 0
.LEHB0:
	call	_ZNSt8ios_base15sync_with_stdioEb@PLT
	mov	esi, 0
	lea	rax, _ZSt3cin[rip+16]
	mov	rdi, rax
	call	_ZNSt9basic_iosIcSt11char_traitsIcEE3tieEPSo@PLT
	lea	rax, -96[rbp]
	mov	rsi, rax
	lea	rax, _ZSt3cin[rip]
	mov	rdi, rax
	call	_ZNSirsERi@PLT
	jmp	.L10
.L13:
	lea	rax, -92[rbp]
	mov	rsi, rax
	lea	rax, _ZSt3cin[rip]
	mov	rdi, rax
	call	_ZNSirsERi@PLT
.LEHE0:
	lea	rax, -80[rbp]
	mov	rdi, rax
	call	_ZNSt3setIiSt7greaterIiESaIiEEC1Ev
	mov	DWORD PTR -84[rbp], 0
	jmp	.L11
.L12:
	lea	rax, -88[rbp]
	mov	rsi, rax
	lea	rax, _ZSt3cin[rip]
	mov	rdi, rax
.LEHB1:
	call	_ZNSirsERi@PLT
	lea	rdx, -88[rbp]
	lea	rax, -80[rbp]
	mov	rsi, rdx
	mov	rdi, rax
	call	_ZNSt3setIiSt7greaterIiESaIiEE6insertERKi
	add	DWORD PTR -84[rbp], 1
.L11:
	mov	eax, DWORD PTR -92[rbp]
	cmp	DWORD PTR -84[rbp], eax
	jl	.L12
	lea	rax, -80[rbp]
	mov	rdi, rax
	call	_ZNKSt3setIiSt7greaterIiESaIiEE4sizeEv
	mov	rsi, rax
	lea	rax, _ZSt4cout[rip]
	mov	rdi, rax
	call	_ZNSolsEm@PLT
	mov	esi, 10
	mov	rdi, rax
	call	_ZStlsISt11char_traitsIcEERSt13basic_ostreamIcT_ES5_c@PLT
.LEHE1:
	lea	rax, -80[rbp]
	mov	rdi, rax
	call	_ZNSt3setIiSt7greaterIiESaIiEED1Ev
.L10:
	mov	eax, DWORD PTR -96[rbp]
	lea	edx, -1[rax]
	mov	DWORD PTR -96[rbp], edx
	test	eax, eax
	setne	al
	test	al, al
	jne	.L13
	mov	eax, 0
	mov	rdx, QWORD PTR -24[rbp]
	sub	rdx, QWORD PTR fs:40
	je	.L16
	jmp	.L18
.L17:
	endbr64
	mov	rbx, rax
	lea	rax, -80[rbp]
	mov	rdi, rax
	call	_ZNSt3setIiSt7greaterIiESaIiEED1Ev
	mov	rax, rbx
	mov	rdi, rax
.LEHB2:
	call	_Unwind_Resume@PLT
.LEHE2:
.L18:
	call	__stack_chk_fail@PLT
.L16:
	mov	rbx, QWORD PTR -8[rbp]
	leave
	.cfi_def_cfa 7, 8
	ret
	.cfi_endproc
.LFE9704:
	.globl	__gxx_personality_v0
	.section	.gcc_except_table,"a",@progbits
.LLSDA9704:
	.byte	0xff
	.byte	0xff
	.byte	0x1
	.uleb128 .LLSDACSE9704-.LLSDACSB9704
.LLSDACSB9704:
	.uleb128 .LEHB0-.LFB9704
	.uleb128 .LEHE0-.LEHB0
	.uleb128 0
	.uleb128 0
	.uleb128 .LEHB1-.LFB9704
	.uleb128 .LEHE1-.LEHB1
	.uleb128 .L17-.LFB9704
	.uleb128 0
	.uleb128 .LEHB2-.LFB9704
	.uleb128 .LEHE2-.LEHB2
	.uleb128 0
	.uleb128 0
.LLSDACSE9704:
	.text
	.size	main, .-main
	.section	.text._ZNSt8_Rb_treeIiiSt9_IdentityIiESt7greaterIiESaIiEE13_Rb_tree_implIS3_Lb1EEC2Ev,"axG",@progbits,_ZNSt8_Rb_treeIiiSt9_IdentityIiESt7greaterIiESaIiEE13_Rb_tree_implIS3_Lb1EEC5Ev,comdat
	.align 2
	.weak	_ZNSt8_Rb_treeIiiSt9_IdentityIiESt7greaterIiESaIiEE13_Rb_tree_implIS3_Lb1EEC2Ev
	.type	_ZNSt8_Rb_treeIiiSt9_IdentityIiESt7greaterIiESaIiEE13_Rb_tree_implIS3_Lb1EEC2Ev, @function
_ZNSt8_Rb_treeIiiSt9_IdentityIiESt7greaterIiESaIiEE13_Rb_tree_implIS3_Lb1EEC2Ev:
.LFB10410:
	.cfi_startproc
	endbr64
	push	rbp
	.cfi_def_cfa_offset 16
	.cfi_offset 6, -16
	mov	rbp, rsp
	.cfi_def_cfa_register 6
	sub	rsp, 16
	mov	QWORD PTR -8[rbp], rdi
	mov	rax, QWORD PTR -8[rbp]
	mov	rdi, rax
	call	_ZNSaISt13_Rb_tree_nodeIiEEC2Ev
	mov	rax, QWORD PTR -8[rbp]
	mov	rdi, rax
	call	_ZNSt20_Rb_tree_key_compareISt7greaterIiEEC2Ev
	mov	rax, QWORD PTR -8[rbp]
	add	rax, 8
	mov	rdi, rax
	call	_ZNSt15_Rb_tree_headerC2Ev
	nop
	leave
	.cfi_def_cfa 7, 8
	ret
	.cfi_endproc
.LFE10410:
	.size	_ZNSt8_Rb_treeIiiSt9_IdentityIiESt7greaterIiESaIiEE13_Rb_tree_implIS3_Lb1EEC2Ev, .-_ZNSt8_Rb_treeIiiSt9_IdentityIiESt7greaterIiESaIiEE13_Rb_tree_implIS3_Lb1EEC2Ev
	.weak	_ZNSt8_Rb_treeIiiSt9_IdentityIiESt7greaterIiESaIiEE13_Rb_tree_implIS3_Lb1EEC1Ev
	.set	_ZNSt8_Rb_treeIiiSt9_IdentityIiESt7greaterIiESaIiEE13_Rb_tree_implIS3_Lb1EEC1Ev,_ZNSt8_Rb_treeIiiSt9_IdentityIiESt7greaterIiESaIiEE13_Rb_tree_implIS3_Lb1EEC2Ev
	.section	.text._ZNSaISt13_Rb_tree_nodeIiEED2Ev,"axG",@progbits,_ZNSaISt13_Rb_tree_nodeIiEED5Ev,comdat
	.align 2
	.weak	_ZNSaISt13_Rb_tree_nodeIiEED2Ev
	.type	_ZNSaISt13_Rb_tree_nodeIiEED2Ev, @function
_ZNSaISt13_Rb_tree_nodeIiEED2Ev:
.LFB10413:
	.cfi_startproc
	endbr64
	push	rbp
	.cfi_def_cfa_offset 16
	.cfi_offset 6, -16
	mov	rbp, rsp
	.cfi_def_cfa_register 6
	sub	rsp, 16
	mov	QWORD PTR -8[rbp], rdi
	mov	rax, QWORD PTR -8[rbp]
	mov	rdi, rax
	call	_ZN9__gnu_cxx13new_allocatorISt13_Rb_tree_nodeIiEED2Ev
	nop
	leave
	.cfi_def_cfa 7, 8
	ret
	.cfi_endproc
.LFE10413:
	.size	_ZNSaISt13_Rb_tree_nodeIiEED2Ev, .-_ZNSaISt13_Rb_tree_nodeIiEED2Ev
	.weak	_ZNSaISt13_Rb_tree_nodeIiEED1Ev
	.set	_ZNSaISt13_Rb_tree_nodeIiEED1Ev,_ZNSaISt13_Rb_tree_nodeIiEED2Ev
	.section	.text._ZNSt8_Rb_treeIiiSt9_IdentityIiESt7greaterIiESaIiEED2Ev,"axG",@progbits,_ZNSt8_Rb_treeIiiSt9_IdentityIiESt7greaterIiESaIiEED5Ev,comdat
	.align 2
	.weak	_ZNSt8_Rb_treeIiiSt9_IdentityIiESt7greaterIiESaIiEED2Ev
	.type	_ZNSt8_Rb_treeIiiSt9_IdentityIiESt7greaterIiESaIiEED2Ev, @function
_ZNSt8_Rb_treeIiiSt9_IdentityIiESt7greaterIiESaIiEED2Ev:
.LFB10416:
	.cfi_startproc
	.cfi_personality 0x9b,DW.ref.__gxx_personality_v0
	.cfi_lsda 0x1b,.LLSDA10416
	endbr64
	push	rbp
	.cfi_def_cfa_offset 16
	.cfi_offset 6, -16
	mov	rbp, rsp
	.cfi_def_cfa_register 6
	sub	rsp, 16
	mov	QWORD PTR -8[rbp], rdi
	mov	rax, QWORD PTR -8[rbp]
	mov	rdi, rax
	call	_ZNSt8_Rb_treeIiiSt9_IdentityIiESt7greaterIiESaIiEE8_M_beginEv
	mov	rdx, rax
	mov	rax, QWORD PTR -8[rbp]
	mov	rsi, rdx
	mov	rdi, rax
	call	_ZNSt8_Rb_treeIiiSt9_IdentityIiESt7greaterIiESaIiEE8_M_eraseEPSt13_Rb_tree_nodeIiE
	mov	rax, QWORD PTR -8[rbp]
	mov	rdi, rax
	call	_ZNSt8_Rb_treeIiiSt9_IdentityIiESt7greaterIiESaIiEE13_Rb_tree_implIS3_Lb1EED1Ev
	nop
	leave
	.cfi_def_cfa 7, 8
	ret
	.cfi_endproc
.LFE10416:
	.section	.gcc_except_table
.LLSDA10416:
	.byte	0xff
	.byte	0xff
	.byte	0x1
	.uleb128 .LLSDACSE10416-.LLSDACSB10416
.LLSDACSB10416:
.LLSDACSE10416:
	.section	.text._ZNSt8_Rb_treeIiiSt9_IdentityIiESt7greaterIiESaIiEED2Ev,"axG",@progbits,_ZNSt8_Rb_treeIiiSt9_IdentityIiESt7greaterIiESaIiEED5Ev,comdat
	.size	_ZNSt8_Rb_treeIiiSt9_IdentityIiESt7greaterIiESaIiEED2Ev, .-_ZNSt8_Rb_treeIiiSt9_IdentityIiESt7greaterIiESaIiEED2Ev
	.weak	_ZNSt8_Rb_treeIiiSt9_IdentityIiESt7greaterIiESaIiEED1Ev
	.set	_ZNSt8_Rb_treeIiiSt9_IdentityIiESt7greaterIiESaIiEED1Ev,_ZNSt8_Rb_treeIiiSt9_IdentityIiESt7greaterIiESaIiEED2Ev
	.section	.text._ZNSt3setIiSt7greaterIiESaIiEE6insertERKi,"axG",@progbits,_ZNSt3setIiSt7greaterIiESaIiEE6insertERKi,comdat
	.align 2
	.weak	_ZNSt3setIiSt7greaterIiESaIiEE6insertERKi
	.type	_ZNSt3setIiSt7greaterIiESaIiEE6insertERKi, @function
_ZNSt3setIiSt7greaterIiESaIiEE6insertERKi:
.LFB10418:
	.cfi_startproc
	endbr64
	push	rbp
	.cfi_def_cfa_offset 16
	.cfi_offset 6, -16
	mov	rbp, rsp
	.cfi_def_cfa_register 6
	sub	rsp, 64
	mov	QWORD PTR -56[rbp], rdi
	mov	QWORD PTR -64[rbp], rsi
	mov	rax, QWORD PTR fs:40
	mov	QWORD PTR -8[rbp], rax
	xor	eax, eax
	mov	rax, QWORD PTR -56[rbp]
	mov	rdx, QWORD PTR -64[rbp]
	mov	rsi, rdx
	mov	rdi, rax
	call	_ZNSt8_Rb_treeIiiSt9_IdentityIiESt7greaterIiESaIiEE16_M_insert_uniqueIRKiEESt4pairISt17_Rb_tree_iteratorIiEbEOT_
	mov	QWORD PTR -48[rbp], rax
	mov	QWORD PTR -40[rbp], rdx
	lea	rax, -48[rbp]
	lea	rdx, 8[rax]
	lea	rcx, -48[rbp]
	lea	rax, -32[rbp]
	mov	rsi, rcx
	mov	rdi, rax
	call	_ZNSt4pairISt23_Rb_tree_const_iteratorIiEbEC1IRSt17_Rb_tree_iteratorIiERbLb1EEEOT_OT0_
	mov	rax, QWORD PTR -32[rbp]
	mov	rdx, QWORD PTR -24[rbp]
	mov	rcx, QWORD PTR -8[rbp]
	sub	rcx, QWORD PTR fs:40
	je	.L24
	call	__stack_chk_fail@PLT
.L24:
	leave
	.cfi_def_cfa 7, 8
	ret
	.cfi_endproc
.LFE10418:
	.size	_ZNSt3setIiSt7greaterIiESaIiEE6insertERKi, .-_ZNSt3setIiSt7greaterIiESaIiEE6insertERKi
	.section	.text._ZNKSt3setIiSt7greaterIiESaIiEE4sizeEv,"axG",@progbits,_ZNKSt3setIiSt7greaterIiESaIiEE4sizeEv,comdat
	.align 2
	.weak	_ZNKSt3setIiSt7greaterIiESaIiEE4sizeEv
	.type	_ZNKSt3setIiSt7greaterIiESaIiEE4sizeEv, @function
_ZNKSt3setIiSt7greaterIiESaIiEE4sizeEv:
.LFB10428:
	.cfi_startproc
	endbr64
	push	rbp
	.cfi_def_cfa_offset 16
	.cfi_offset 6, -16
	mov	rbp, rsp
	.cfi_def_cfa_register 6
	sub	rsp, 16
	mov	QWORD PTR -8[rbp], rdi
	mov	rax, QWORD PTR -8[rbp]
	mov	rdi, rax
	call	_ZNKSt8_Rb_treeIiiSt9_IdentityIiESt7greaterIiESaIiEE4sizeEv
	leave
	.cfi_def_cfa 7, 8
	ret
	.cfi_endproc
.LFE10428:
	.size	_ZNKSt3setIiSt7greaterIiESaIiEE4sizeEv, .-_ZNKSt3setIiSt7greaterIiESaIiEE4sizeEv
	.section	.text._ZSt7forwardIbEOT_RNSt16remove_referenceIS0_E4typeE,"axG",@progbits,_ZSt7forwardIbEOT_RNSt16remove_referenceIS0_E4typeE,comdat
	.weak	_ZSt7forwardIbEOT_RNSt16remove_referenceIS0_E4typeE
	.type	_ZSt7forwardIbEOT_RNSt16remove_referenceIS0_E4typeE, @function
_ZSt7forwardIbEOT_RNSt16remove_referenceIS0_E4typeE:
.LFB10554:
	.cfi_startproc
	endbr64
	push	rbp
	.cfi_def_cfa_offset 16
	.cfi_offset 6, -16
	mov	rbp, rsp
	.cfi_def_cfa_register 6
	mov	QWORD PTR -8[rbp], rdi
	mov	rax, QWORD PTR -8[rbp]
	pop	rbp
	.cfi_def_cfa 7, 8
	ret
	.cfi_endproc
.LFE10554:
	.size	_ZSt7forwardIbEOT_RNSt16remove_referenceIS0_E4typeE, .-_ZSt7forwardIbEOT_RNSt16remove_referenceIS0_E4typeE
	.section	.text._ZNSaISt13_Rb_tree_nodeIiEEC2Ev,"axG",@progbits,_ZNSaISt13_Rb_tree_nodeIiEEC5Ev,comdat
	.align 2
	.weak	_ZNSaISt13_Rb_tree_nodeIiEEC2Ev
	.type	_ZNSaISt13_Rb_tree_nodeIiEEC2Ev, @function
_ZNSaISt13_Rb_tree_nodeIiEEC2Ev:
.LFB10823:
	.cfi_startproc
	endbr64
	push	rbp
	.cfi_def_cfa_offset 16
	.cfi_offset 6, -16
	mov	rbp, rsp
	.cfi_def_cfa_register 6
	sub	rsp, 16
	mov	QWORD PTR -8[rbp], rdi
	mov	rax, QWORD PTR -8[rbp]
	mov	rdi, rax
	call	_ZN9__gnu_cxx13new_allocatorISt13_Rb_tree_nodeIiEEC2Ev
	nop
	leave
	.cfi_def_cfa 7, 8
	ret
	.cfi_endproc
.LFE10823:
	.size	_ZNSaISt13_Rb_tree_nodeIiEEC2Ev, .-_ZNSaISt13_Rb_tree_nodeIiEEC2Ev
	.weak	_ZNSaISt13_Rb_tree_nodeIiEEC1Ev
	.set	_ZNSaISt13_Rb_tree_nodeIiEEC1Ev,_ZNSaISt13_Rb_tree_nodeIiEEC2Ev
	.section	.text._ZNSt20_Rb_tree_key_compareISt7greaterIiEEC2Ev,"axG",@progbits,_ZNSt20_Rb_tree_key_compareISt7greaterIiEEC5Ev,comdat
	.align 2
	.weak	_ZNSt20_Rb_tree_key_compareISt7greaterIiEEC2Ev
	.type	_ZNSt20_Rb_tree_key_compareISt7greaterIiEEC2Ev, @function
_ZNSt20_Rb_tree_key_compareISt7greaterIiEEC2Ev:
.LFB10826:
	.cfi_startproc
	endbr64
	push	rbp
	.cfi_def_cfa_offset 16
	.cfi_offset 6, -16
	mov	rbp, rsp
	.cfi_def_cfa_register 6
	mov	QWORD PTR -8[rbp], rdi
	nop
	pop	rbp
	.cfi_def_cfa 7, 8
	ret
	.cfi_endproc
.LFE10826:
	.size	_ZNSt20_Rb_tree_key_compareISt7greaterIiEEC2Ev, .-_ZNSt20_Rb_tree_key_compareISt7greaterIiEEC2Ev
	.weak	_ZNSt20_Rb_tree_key_compareISt7greaterIiEEC1Ev
	.set	_ZNSt20_Rb_tree_key_compareISt7greaterIiEEC1Ev,_ZNSt20_Rb_tree_key_compareISt7greaterIiEEC2Ev
	.section	.text._ZN9__gnu_cxx13new_allocatorISt13_Rb_tree_nodeIiEED2Ev,"axG",@progbits,_ZN9__gnu_cxx13new_allocatorISt13_Rb_tree_nodeIiEED5Ev,comdat
	.align 2
	.weak	_ZN9__gnu_cxx13new_allocatorISt13_Rb_tree_nodeIiEED2Ev
	.type	_ZN9__gnu_cxx13new_allocatorISt13_Rb_tree_nodeIiEED2Ev, @function
_ZN9__gnu_cxx13new_allocatorISt13_Rb_tree_nodeIiEED2Ev:
.LFB10829:
	.cfi_startproc
	endbr64
	push	rbp
	.cfi_def_cfa_offset 16
	.cfi_offset 6, -16
	mov	rbp, rsp
	.cfi_def_cfa_register 6
	mov	QWORD PTR -8[rbp], rdi
	nop
	pop	rbp
	.cfi_def_cfa 7, 8
	ret
	.cfi_endproc
.LFE10829:
	.size	_ZN9__gnu_cxx13new_allocatorISt13_Rb_tree_nodeIiEED2Ev, .-_ZN9__gnu_cxx13new_allocatorISt13_Rb_tree_nodeIiEED2Ev
	.weak	_ZN9__gnu_cxx13new_allocatorISt13_Rb_tree_nodeIiEED1Ev
	.set	_ZN9__gnu_cxx13new_allocatorISt13_Rb_tree_nodeIiEED1Ev,_ZN9__gnu_cxx13new_allocatorISt13_Rb_tree_nodeIiEED2Ev
	.section	.text._ZNSt8_Rb_treeIiiSt9_IdentityIiESt7greaterIiESaIiEE8_M_eraseEPSt13_Rb_tree_nodeIiE,"axG",@progbits,_ZNSt8_Rb_treeIiiSt9_IdentityIiESt7greaterIiESaIiEE8_M_eraseEPSt13_Rb_tree_nodeIiE,comdat
	.align 2
	.weak	_ZNSt8_Rb_treeIiiSt9_IdentityIiESt7greaterIiESaIiEE8_M_eraseEPSt13_Rb_tree_nodeIiE
	.type	_ZNSt8_Rb_treeIiiSt9_IdentityIiESt7greaterIiESaIiEE8_M_eraseEPSt13_Rb_tree_nodeIiE, @function
_ZNSt8_Rb_treeIiiSt9_IdentityIiESt7greaterIiESaIiEE8_M_eraseEPSt13_Rb_tree_nodeIiE:
.LFB10831:
	.cfi_startproc
	endbr64
	push	rbp
	.cfi_def_cfa_offset 16
	.cfi_offset 6, -16
	mov	rbp, rsp
	.cfi_def_cfa_register 6
	sub	rsp, 32
	mov	QWORD PTR -24[rbp], rdi
	mov	QWORD PTR -32[rbp], rsi
	jmp	.L33
.L34:
	mov	rax, QWORD PTR -32[rbp]
	mov	rdi, rax
	call	_ZNSt8_Rb_treeIiiSt9_IdentityIiESt7greaterIiESaIiEE8_S_rightEPSt18_Rb_tree_node_base
	mov	rdx, rax
	mov	rax, QWORD PTR -24[rbp]
	mov	rsi, rdx
	mov	rdi, rax
	call	_ZNSt8_Rb_treeIiiSt9_IdentityIiESt7greaterIiESaIiEE8_M_eraseEPSt13_Rb_tree_nodeIiE
	mov	rax, QWORD PTR -32[rbp]
	mov	rdi, rax
	call	_ZNSt8_Rb_treeIiiSt9_IdentityIiESt7greaterIiESaIiEE7_S_leftEPSt18_Rb_tree_node_base
	mov	QWORD PTR -8[rbp], rax
	mov	rdx, QWORD PTR -32[rbp]
	mov	rax, QWORD PTR -24[rbp]
	mov	rsi, rdx
	mov	rdi, rax
	call	_ZNSt8_Rb_treeIiiSt9_IdentityIiESt7greaterIiESaIiEE12_M_drop_nodeEPSt13_Rb_tree_nodeIiE
	mov	rax, QWORD PTR -8[rbp]
	mov	QWORD PTR -32[rbp], rax
.L33:
	cmp	QWORD PTR -32[rbp], 0
	jne	.L34
	nop
	nop
	leave
	.cfi_def_cfa 7, 8
	ret
	.cfi_endproc
.LFE10831:
	.size	_ZNSt8_Rb_treeIiiSt9_IdentityIiESt7greaterIiESaIiEE8_M_eraseEPSt13_Rb_tree_nodeIiE, .-_ZNSt8_Rb_treeIiiSt9_IdentityIiESt7greaterIiESaIiEE8_M_eraseEPSt13_Rb_tree_nodeIiE
	.section	.text._ZNSt8_Rb_treeIiiSt9_IdentityIiESt7greaterIiESaIiEE8_M_beginEv,"axG",@progbits,_ZNSt8_Rb_treeIiiSt9_IdentityIiESt7greaterIiESaIiEE8_M_beginEv,comdat
	.align 2
	.weak	_ZNSt8_Rb_treeIiiSt9_IdentityIiESt7greaterIiESaIiEE8_M_beginEv
	.type	_ZNSt8_Rb_treeIiiSt9_IdentityIiESt7greaterIiESaIiEE8_M_beginEv, @function
_ZNSt8_Rb_treeIiiSt9_IdentityIiESt7greaterIiESaIiEE8_M_beginEv:
.LFB10832:
	.cfi_startproc
	endbr64
	push	rbp
	.cfi_def_cfa_offset 16
	.cfi_offset 6, -16
	mov	rbp, rsp
	.cfi_def_cfa_register 6
	sub	rsp, 16
	mov	QWORD PTR -8[rbp], rdi
	mov	rax, QWORD PTR -8[rbp]
	mov	rdi, rax
	call	_ZNKSt8_Rb_treeIiiSt9_IdentityIiESt7greaterIiESaIiEE9_M_mbeginEv
	leave
	.cfi_def_cfa 7, 8
	ret
	.cfi_endproc
.LFE10832:
	.size	_ZNSt8_Rb_treeIiiSt9_IdentityIiESt7greaterIiESaIiEE8_M_beginEv, .-_ZNSt8_Rb_treeIiiSt9_IdentityIiESt7greaterIiESaIiEE8_M_beginEv
	.section	.text._ZNSt8_Rb_treeIiiSt9_IdentityIiESt7greaterIiESaIiEE16_M_insert_uniqueIRKiEESt4pairISt17_Rb_tree_iteratorIiEbEOT_,"axG",@progbits,_ZNSt8_Rb_treeIiiSt9_IdentityIiESt7greaterIiESaIiEE16_M_insert_uniqueIRKiEESt4pairISt17_Rb_tree_iteratorIiEbEOT_,comdat
	.align 2
	.weak	_ZNSt8_Rb_treeIiiSt9_IdentityIiESt7greaterIiESaIiEE16_M_insert_uniqueIRKiEESt4pairISt17_Rb_tree_iteratorIiEbEOT_
	.type	_ZNSt8_Rb_treeIiiSt9_IdentityIiESt7greaterIiESaIiEE16_M_insert_uniqueIRKiEESt4pairISt17_Rb_tree_iteratorIiEbEOT_, @function
_ZNSt8_Rb_treeIiiSt9_IdentityIiESt7greaterIiESaIiEE16_M_insert_uniqueIRKiEESt4pairISt17_Rb_tree_iteratorIiEbEOT_:
.LFB10833:
	.cfi_startproc
	endbr64
	push	rbp
	.cfi_def_cfa_offset 16
	.cfi_offset 6, -16
	mov	rbp, rsp
	.cfi_def_cfa_register 6
	sub	rsp, 96
	mov	QWORD PTR -88[rbp], rdi
	mov	QWORD PTR -96[rbp], rsi
	mov	rax, QWORD PTR fs:40
	mov	QWORD PTR -8[rbp], rax
	xor	eax, eax
	mov	rdx, QWORD PTR -96[rbp]
	lea	rax, -32[rbp]
	mov	rsi, rdx
	mov	rdi, rax
	call	_ZNKSt9_IdentityIiEclERKi
	mov	rdx, rax
	mov	rax, QWORD PTR -88[rbp]
	mov	rsi, rdx
	mov	rdi, rax
	call	_ZNSt8_Rb_treeIiiSt9_IdentityIiESt7greaterIiESaIiEE24_M_get_insert_unique_posERKi
	mov	QWORD PTR -48[rbp], rax
	mov	QWORD PTR -40[rbp], rdx
	mov	rax, QWORD PTR -40[rbp]
	test	rax, rax
	je	.L38
	mov	rdx, QWORD PTR -88[rbp]
	lea	rax, -64[rbp]
	mov	rsi, rdx
	mov	rdi, rax
	call	_ZNSt8_Rb_treeIiiSt9_IdentityIiESt7greaterIiESaIiEE11_Alloc_nodeC1ERS5_
	mov	BYTE PTR -65[rbp], 1
	mov	rax, QWORD PTR -96[rbp]
	mov	rdi, rax
	call	_ZSt7forwardIRKiEOT_RNSt16remove_referenceIS2_E4typeE
	mov	rcx, rax
	mov	rdx, QWORD PTR -40[rbp]
	mov	rsi, QWORD PTR -48[rbp]
	lea	rdi, -64[rbp]
	mov	rax, QWORD PTR -88[rbp]
	mov	r8, rdi
	mov	rdi, rax
	call	_ZNSt8_Rb_treeIiiSt9_IdentityIiESt7greaterIiESaIiEE10_M_insert_IRKiNS5_11_Alloc_nodeEEESt17_Rb_tree_iteratorIiEPSt18_Rb_tree_node_baseSD_OT_RT0_
	mov	QWORD PTR -56[rbp], rax
	lea	rdx, -65[rbp]
	lea	rcx, -56[rbp]
	lea	rax, -32[rbp]
	mov	rsi, rcx
	mov	rdi, rax
	call	_ZNSt4pairISt17_Rb_tree_iteratorIiEbEC1IS1_bLb1EEEOT_OT0_
	mov	rax, QWORD PTR -32[rbp]
	mov	rdx, QWORD PTR -24[rbp]
	jmp	.L40
.L38:
	mov	BYTE PTR -64[rbp], 0
	mov	rdx, QWORD PTR -48[rbp]
	lea	rax, -56[rbp]
	mov	rsi, rdx
	mov	rdi, rax
	call	_ZNSt17_Rb_tree_iteratorIiEC1EPSt18_Rb_tree_node_base
	lea	rdx, -64[rbp]
	lea	rcx, -56[rbp]
	lea	rax, -32[rbp]
	mov	rsi, rcx
	mov	rdi, rax
	call	_ZNSt4pairISt17_Rb_tree_iteratorIiEbEC1IS1_bLb1EEEOT_OT0_
	mov	rax, QWORD PTR -32[rbp]
	mov	rdx, QWORD PTR -24[rbp]
.L40:
	mov	rcx, QWORD PTR -8[rbp]
	sub	rcx, QWORD PTR fs:40
	je	.L41
	call	__stack_chk_fail@PLT
.L41:
	leave
	.cfi_def_cfa 7, 8
	ret
	.cfi_endproc
.LFE10833:
	.size	_ZNSt8_Rb_treeIiiSt9_IdentityIiESt7greaterIiESaIiEE16_M_insert_uniqueIRKiEESt4pairISt17_Rb_tree_iteratorIiEbEOT_, .-_ZNSt8_Rb_treeIiiSt9_IdentityIiESt7greaterIiESaIiEE16_M_insert_uniqueIRKiEESt4pairISt17_Rb_tree_iteratorIiEbEOT_
	.section	.text._ZNSt4pairISt23_Rb_tree_const_iteratorIiEbEC2IRSt17_Rb_tree_iteratorIiERbLb1EEEOT_OT0_,"axG",@progbits,_ZNSt4pairISt23_Rb_tree_const_iteratorIiEbEC5IRSt17_Rb_tree_iteratorIiERbLb1EEEOT_OT0_,comdat
	.align 2
	.weak	_ZNSt4pairISt23_Rb_tree_const_iteratorIiEbEC2IRSt17_Rb_tree_iteratorIiERbLb1EEEOT_OT0_
	.type	_ZNSt4pairISt23_Rb_tree_const_iteratorIiEbEC2IRSt17_Rb_tree_iteratorIiERbLb1EEEOT_OT0_, @function
_ZNSt4pairISt23_Rb_tree_const_iteratorIiEbEC2IRSt17_Rb_tree_iteratorIiERbLb1EEEOT_OT0_:
.LFB10843:
	.cfi_startproc
	endbr64
	push	rbp
	.cfi_def_cfa_offset 16
	.cfi_offset 6, -16
	mov	rbp, rsp
	.cfi_def_cfa_register 6
	push	rbx
	sub	rsp, 40
	.cfi_offset 3, -24
	mov	QWORD PTR -24[rbp], rdi
	mov	QWORD PTR -32[rbp], rsi
	mov	QWORD PTR -40[rbp], rdx
	mov	rbx, QWORD PTR -24[rbp]
	mov	rax, QWORD PTR -32[rbp]
	mov	rdi, rax
	call	_ZSt7forwardIRSt17_Rb_tree_iteratorIiEEOT_RNSt16remove_referenceIS3_E4typeE
	mov	rsi, rax
	mov	rdi, rbx
	call	_ZNSt23_Rb_tree_const_iteratorIiEC1ERKSt17_Rb_tree_iteratorIiE
	mov	rax, QWORD PTR -40[rbp]
	mov	rdi, rax
	call	_ZSt7forwardIRbEOT_RNSt16remove_referenceIS1_E4typeE
	movzx	edx, BYTE PTR [rax]
	mov	rax, QWORD PTR -24[rbp]
	mov	BYTE PTR 8[rax], dl
	nop
	mov	rbx, QWORD PTR -8[rbp]
	leave
	.cfi_def_cfa 7, 8
	ret
	.cfi_endproc
.LFE10843:
	.size	_ZNSt4pairISt23_Rb_tree_const_iteratorIiEbEC2IRSt17_Rb_tree_iteratorIiERbLb1EEEOT_OT0_, .-_ZNSt4pairISt23_Rb_tree_const_iteratorIiEbEC2IRSt17_Rb_tree_iteratorIiERbLb1EEEOT_OT0_
	.weak	_ZNSt4pairISt23_Rb_tree_const_iteratorIiEbEC1IRSt17_Rb_tree_iteratorIiERbLb1EEEOT_OT0_
	.set	_ZNSt4pairISt23_Rb_tree_const_iteratorIiEbEC1IRSt17_Rb_tree_iteratorIiERbLb1EEEOT_OT0_,_ZNSt4pairISt23_Rb_tree_const_iteratorIiEbEC2IRSt17_Rb_tree_iteratorIiERbLb1EEEOT_OT0_
	.section	.text._ZNKSt8_Rb_treeIiiSt9_IdentityIiESt7greaterIiESaIiEE4sizeEv,"axG",@progbits,_ZNKSt8_Rb_treeIiiSt9_IdentityIiESt7greaterIiESaIiEE4sizeEv,comdat
	.align 2
	.weak	_ZNKSt8_Rb_treeIiiSt9_IdentityIiESt7greaterIiESaIiEE4sizeEv
	.type	_ZNKSt8_Rb_treeIiiSt9_IdentityIiESt7greaterIiESaIiEE4sizeEv, @function
_ZNKSt8_Rb_treeIiiSt9_IdentityIiESt7greaterIiESaIiEE4sizeEv:
.LFB10845:
	.cfi_startproc
	endbr64
	push	rbp
	.cfi_def_cfa_offset 16
	.cfi_offset 6, -16
	mov	rbp, rsp
	.cfi_def_cfa_register 6
	mov	QWORD PTR -8[rbp], rdi
	mov	rax, QWORD PTR -8[rbp]
	mov	rax, QWORD PTR 40[rax]
	pop	rbp
	.cfi_def_cfa 7, 8
	ret
	.cfi_endproc
.LFE10845:
	.size	_ZNKSt8_Rb_treeIiiSt9_IdentityIiESt7greaterIiESaIiEE4sizeEv, .-_ZNKSt8_Rb_treeIiiSt9_IdentityIiESt7greaterIiESaIiEE4sizeEv
	.section	.text._ZN9__gnu_cxx13new_allocatorISt13_Rb_tree_nodeIiEEC2Ev,"axG",@progbits,_ZN9__gnu_cxx13new_allocatorISt13_Rb_tree_nodeIiEEC5Ev,comdat
	.align 2
	.weak	_ZN9__gnu_cxx13new_allocatorISt13_Rb_tree_nodeIiEEC2Ev
	.type	_ZN9__gnu_cxx13new_allocatorISt13_Rb_tree_nodeIiEEC2Ev, @function
_ZN9__gnu_cxx13new_allocatorISt13_Rb_tree_nodeIiEEC2Ev:
.LFB11043:
	.cfi_startproc
	endbr64
	push	rbp
	.cfi_def_cfa_offset 16
	.cfi_offset 6, -16
	mov	rbp, rsp
	.cfi_def_cfa_register 6
	mov	QWORD PTR -8[rbp], rdi
	nop
	pop	rbp
	.cfi_def_cfa 7, 8
	ret
	.cfi_endproc
.LFE11043:
	.size	_ZN9__gnu_cxx13new_allocatorISt13_Rb_tree_nodeIiEEC2Ev, .-_ZN9__gnu_cxx13new_allocatorISt13_Rb_tree_nodeIiEEC2Ev
	.weak	_ZN9__gnu_cxx13new_allocatorISt13_Rb_tree_nodeIiEEC1Ev
	.set	_ZN9__gnu_cxx13new_allocatorISt13_Rb_tree_nodeIiEEC1Ev,_ZN9__gnu_cxx13new_allocatorISt13_Rb_tree_nodeIiEEC2Ev
	.section	.text._ZNSt8_Rb_treeIiiSt9_IdentityIiESt7greaterIiESaIiEE8_S_rightEPSt18_Rb_tree_node_base,"axG",@progbits,_ZNSt8_Rb_treeIiiSt9_IdentityIiESt7greaterIiESaIiEE8_S_rightEPSt18_Rb_tree_node_base,comdat
	.weak	_ZNSt8_Rb_treeIiiSt9_IdentityIiESt7greaterIiESaIiEE8_S_rightEPSt18_Rb_tree_node_base
	.type	_ZNSt8_Rb_treeIiiSt9_IdentityIiESt7greaterIiESaIiEE8_S_rightEPSt18_Rb_tree_node_base, @function
_ZNSt8_Rb_treeIiiSt9_IdentityIiESt7greaterIiESaIiEE8_S_rightEPSt18_Rb_tree_node_base:
.LFB11045:
	.cfi_startproc
	endbr64
	push	rbp
	.cfi_def_cfa_offset 16
	.cfi_offset 6, -16
	mov	rbp, rsp
	.cfi_def_cfa_register 6
	mov	QWORD PTR -8[rbp], rdi
	mov	rax, QWORD PTR -8[rbp]
	mov	rax, QWORD PTR 24[rax]
	pop	rbp
	.cfi_def_cfa 7, 8
	ret
	.cfi_endproc
.LFE11045:
	.size	_ZNSt8_Rb_treeIiiSt9_IdentityIiESt7greaterIiESaIiEE8_S_rightEPSt18_Rb_tree_node_base, .-_ZNSt8_Rb_treeIiiSt9_IdentityIiESt7greaterIiESaIiEE8_S_rightEPSt18_Rb_tree_node_base
	.section	.text._ZNSt8_Rb_treeIiiSt9_IdentityIiESt7greaterIiESaIiEE7_S_leftEPSt18_Rb_tree_node_base,"axG",@progbits,_ZNSt8_Rb_treeIiiSt9_IdentityIiESt7greaterIiESaIiEE7_S_leftEPSt18_Rb_tree_node_base,comdat
	.weak	_ZNSt8_Rb_treeIiiSt9_IdentityIiESt7greaterIiESaIiEE7_S_leftEPSt18_Rb_tree_node_base
	.type	_ZNSt8_Rb_treeIiiSt9_IdentityIiESt7greaterIiESaIiEE7_S_leftEPSt18_Rb_tree_node_base, @function
_ZNSt8_Rb_treeIiiSt9_IdentityIiESt7greaterIiESaIiEE7_S_leftEPSt18_Rb_tree_node_base:
.LFB11046:
	.cfi_startproc
	endbr64
	push	rbp
	.cfi_def_cfa_offset 16
	.cfi_offset 6, -16
	mov	rbp, rsp
	.cfi_def_cfa_register 6
	mov	QWORD PTR -8[rbp], rdi
	mov	rax, QWORD PTR -8[rbp]
	mov	rax, QWORD PTR 16[rax]
	pop	rbp
	.cfi_def_cfa 7, 8
	ret
	.cfi_endproc
.LFE11046:
	.size	_ZNSt8_Rb_treeIiiSt9_IdentityIiESt7greaterIiESaIiEE7_S_leftEPSt18_Rb_tree_node_base, .-_ZNSt8_Rb_treeIiiSt9_IdentityIiESt7greaterIiESaIiEE7_S_leftEPSt18_Rb_tree_node_base
	.section	.text._ZNSt8_Rb_treeIiiSt9_IdentityIiESt7greaterIiESaIiEE12_M_drop_nodeEPSt13_Rb_tree_nodeIiE,"axG",@progbits,_ZNSt8_Rb_treeIiiSt9_IdentityIiESt7greaterIiESaIiEE12_M_drop_nodeEPSt13_Rb_tree_nodeIiE,comdat
	.align 2
	.weak	_ZNSt8_Rb_treeIiiSt9_IdentityIiESt7greaterIiESaIiEE12_M_drop_nodeEPSt13_Rb_tree_nodeIiE
	.type	_ZNSt8_Rb_treeIiiSt9_IdentityIiESt7greaterIiESaIiEE12_M_drop_nodeEPSt13_Rb_tree_nodeIiE, @function
_ZNSt8_Rb_treeIiiSt9_IdentityIiESt7greaterIiESaIiEE12_M_drop_nodeEPSt13_Rb_tree_nodeIiE:
.LFB11047:
	.cfi_startproc
	endbr64
	push	rbp
	.cfi_def_cfa_offset 16
	.cfi_offset 6, -16
	mov	rbp, rsp
	.cfi_def_cfa_register 6
	sub	rsp, 16
	mov	QWORD PTR -8[rbp], rdi
	mov	QWORD PTR -16[rbp], rsi
	mov	rdx, QWORD PTR -16[rbp]
	mov	rax, QWORD PTR -8[rbp]
	mov	rsi, rdx
	mov	rdi, rax
	call	_ZNSt8_Rb_treeIiiSt9_IdentityIiESt7greaterIiESaIiEE15_M_destroy_nodeEPSt13_Rb_tree_nodeIiE
	mov	rdx, QWORD PTR -16[rbp]
	mov	rax, QWORD PTR -8[rbp]
	mov	rsi, rdx
	mov	rdi, rax
	call	_ZNSt8_Rb_treeIiiSt9_IdentityIiESt7greaterIiESaIiEE11_M_put_nodeEPSt13_Rb_tree_nodeIiE
	nop
	leave
	.cfi_def_cfa 7, 8
	ret
	.cfi_endproc
.LFE11047:
	.size	_ZNSt8_Rb_treeIiiSt9_IdentityIiESt7greaterIiESaIiEE12_M_drop_nodeEPSt13_Rb_tree_nodeIiE, .-_ZNSt8_Rb_treeIiiSt9_IdentityIiESt7greaterIiESaIiEE12_M_drop_nodeEPSt13_Rb_tree_nodeIiE
	.section	.text._ZNKSt8_Rb_treeIiiSt9_IdentityIiESt7greaterIiESaIiEE9_M_mbeginEv,"axG",@progbits,_ZNKSt8_Rb_treeIiiSt9_IdentityIiESt7greaterIiESaIiEE9_M_mbeginEv,comdat
	.align 2
	.weak	_ZNKSt8_Rb_treeIiiSt9_IdentityIiESt7greaterIiESaIiEE9_M_mbeginEv
	.type	_ZNKSt8_Rb_treeIiiSt9_IdentityIiESt7greaterIiESaIiEE9_M_mbeginEv, @function
_ZNKSt8_Rb_treeIiiSt9_IdentityIiESt7greaterIiESaIiEE9_M_mbeginEv:
.LFB11048:
	.cfi_startproc
	endbr64
	push	rbp
	.cfi_def_cfa_offset 16
	.cfi_offset 6, -16
	mov	rbp, rsp
	.cfi_def_cfa_register 6
	mov	QWORD PTR -8[rbp], rdi
	mov	rax, QWORD PTR -8[rbp]
	mov	rax, QWORD PTR 16[rax]
	pop	rbp
	.cfi_def_cfa 7, 8
	ret
	.cfi_endproc
.LFE11048:
	.size	_ZNKSt8_Rb_treeIiiSt9_IdentityIiESt7greaterIiESaIiEE9_M_mbeginEv, .-_ZNKSt8_Rb_treeIiiSt9_IdentityIiESt7greaterIiESaIiEE9_M_mbeginEv
	.section	.text._ZNSt8_Rb_treeIiiSt9_IdentityIiESt7greaterIiESaIiEE24_M_get_insert_unique_posERKi,"axG",@progbits,_ZNSt8_Rb_treeIiiSt9_IdentityIiESt7greaterIiESaIiEE24_M_get_insert_unique_posERKi,comdat
	.align 2
	.weak	_ZNSt8_Rb_treeIiiSt9_IdentityIiESt7greaterIiESaIiEE24_M_get_insert_unique_posERKi
	.type	_ZNSt8_Rb_treeIiiSt9_IdentityIiESt7greaterIiESaIiEE24_M_get_insert_unique_posERKi, @function
_ZNSt8_Rb_treeIiiSt9_IdentityIiESt7greaterIiESaIiEE24_M_get_insert_unique_posERKi:
.LFB11049:
	.cfi_startproc
	endbr64
	push	rbp
	.cfi_def_cfa_offset 16
	.cfi_offset 6, -16
	mov	rbp, rsp
	.cfi_def_cfa_register 6
	push	rbx
	sub	rsp, 104
	.cfi_offset 3, -24
	mov	QWORD PTR -104[rbp], rdi
	mov	QWORD PTR -112[rbp], rsi
	mov	rax, QWORD PTR fs:40
	mov	QWORD PTR -24[rbp], rax
	xor	eax, eax
	mov	rax, QWORD PTR -104[rbp]
	mov	rdi, rax
	call	_ZNSt8_Rb_treeIiiSt9_IdentityIiESt7greaterIiESaIiEE8_M_beginEv
	mov	QWORD PTR -80[rbp], rax
	mov	rax, QWORD PTR -104[rbp]
	mov	rdi, rax
	call	_ZNSt8_Rb_treeIiiSt9_IdentityIiESt7greaterIiESaIiEE6_M_endEv
	mov	QWORD PTR -72[rbp], rax
	mov	BYTE PTR -81[rbp], 1
	jmp	.L54
.L57:
	mov	rax, QWORD PTR -80[rbp]
	mov	QWORD PTR -72[rbp], rax
	mov	rbx, QWORD PTR -104[rbp]
	mov	rax, QWORD PTR -80[rbp]
	mov	rdi, rax
	call	_ZNSt8_Rb_treeIiiSt9_IdentityIiESt7greaterIiESaIiEE6_S_keyEPKSt13_Rb_tree_nodeIiE
	mov	rdx, rax
	mov	rax, QWORD PTR -112[rbp]
	mov	rsi, rax
	mov	rdi, rbx
	call	_ZNKSt7greaterIiEclERKiS2_
	mov	BYTE PTR -81[rbp], al
	cmp	BYTE PTR -81[rbp], 0
	je	.L55
	mov	rax, QWORD PTR -80[rbp]
	mov	rdi, rax
	call	_ZNSt8_Rb_treeIiiSt9_IdentityIiESt7greaterIiESaIiEE7_S_leftEPSt18_Rb_tree_node_base
	jmp	.L56
.L55:
	mov	rax, QWORD PTR -80[rbp]
	mov	rdi, rax
	call	_ZNSt8_Rb_treeIiiSt9_IdentityIiESt7greaterIiESaIiEE8_S_rightEPSt18_Rb_tree_node_base
.L56:
	mov	QWORD PTR -80[rbp], rax
.L54:
	mov	rax, QWORD PTR -80[rbp]
	test	rax, rax
	jne	.L57
	mov	rdx, QWORD PTR -72[rbp]
	lea	rax, -64[rbp]
	mov	rsi, rdx
	mov	rdi, rax
	call	_ZNSt17_Rb_tree_iteratorIiEC1EPSt18_Rb_tree_node_base
	cmp	BYTE PTR -81[rbp], 0
	je	.L58
	mov	rax, QWORD PTR -104[rbp]
	mov	rdi, rax
	call	_ZNSt8_Rb_treeIiiSt9_IdentityIiESt7greaterIiESaIiEE5beginEv
	mov	QWORD PTR -48[rbp], rax
	lea	rdx, -48[rbp]
	lea	rax, -64[rbp]
	mov	rsi, rdx
	mov	rdi, rax
	call	_ZSteqRKSt17_Rb_tree_iteratorIiES2_
	test	al, al
	je	.L59
	lea	rdx, -72[rbp]
	lea	rcx, -80[rbp]
	lea	rax, -48[rbp]
	mov	rsi, rcx
	mov	rdi, rax
	call	_ZNSt4pairIPSt18_Rb_tree_node_baseS1_EC1IRPSt13_Rb_tree_nodeIiERS1_Lb1EEEOT_OT0_
	mov	rax, QWORD PTR -48[rbp]
	mov	rdx, QWORD PTR -40[rbp]
	jmp	.L62
.L59:
	lea	rax, -64[rbp]
	mov	rdi, rax
	call	_ZNSt17_Rb_tree_iteratorIiEmmEv
.L58:
	mov	rbx, QWORD PTR -104[rbp]
	mov	rax, QWORD PTR -64[rbp]
	mov	rdi, rax
	call	_ZNSt8_Rb_treeIiiSt9_IdentityIiESt7greaterIiESaIiEE6_S_keyEPKSt18_Rb_tree_node_base
	mov	rcx, rax
	mov	rax, QWORD PTR -112[rbp]
	mov	rdx, rax
	mov	rsi, rcx
	mov	rdi, rbx
	call	_ZNKSt7greaterIiEclERKiS2_
	test	al, al
	je	.L61
	lea	rdx, -72[rbp]
	lea	rcx, -80[rbp]
	lea	rax, -48[rbp]
	mov	rsi, rcx
	mov	rdi, rax
	call	_ZNSt4pairIPSt18_Rb_tree_node_baseS1_EC1IRPSt13_Rb_tree_nodeIiERS1_Lb1EEEOT_OT0_
	mov	rax, QWORD PTR -48[rbp]
	mov	rdx, QWORD PTR -40[rbp]
	jmp	.L62
.L61:
	mov	QWORD PTR -56[rbp], 0
	lea	rdx, -56[rbp]
	lea	rcx, -64[rbp]
	lea	rax, -48[rbp]
	mov	rsi, rcx
	mov	rdi, rax
	call	_ZNSt4pairIPSt18_Rb_tree_node_baseS1_EC1IRS1_Lb1EEEOT_RKS1_
	mov	rax, QWORD PTR -48[rbp]
	mov	rdx, QWORD PTR -40[rbp]
.L62:
	mov	rcx, QWORD PTR -24[rbp]
	sub	rcx, QWORD PTR fs:40
	je	.L63
	call	__stack_chk_fail@PLT
.L63:
	mov	rbx, QWORD PTR -8[rbp]
	leave
	.cfi_def_cfa 7, 8
	ret
	.cfi_endproc
.LFE11049:
	.size	_ZNSt8_Rb_treeIiiSt9_IdentityIiESt7greaterIiESaIiEE24_M_get_insert_unique_posERKi, .-_ZNSt8_Rb_treeIiiSt9_IdentityIiESt7greaterIiESaIiEE24_M_get_insert_unique_posERKi
	.section	.text._ZNKSt9_IdentityIiEclERKi,"axG",@progbits,_ZNKSt9_IdentityIiEclERKi,comdat
	.align 2
	.weak	_ZNKSt9_IdentityIiEclERKi
	.type	_ZNKSt9_IdentityIiEclERKi, @function
_ZNKSt9_IdentityIiEclERKi:
.LFB11064:
	.cfi_startproc
	endbr64
	push	rbp
	.cfi_def_cfa_offset 16
	.cfi_offset 6, -16
	mov	rbp, rsp
	.cfi_def_cfa_register 6
	mov	QWORD PTR -8[rbp], rdi
	mov	QWORD PTR -16[rbp], rsi
	mov	rax, QWORD PTR -16[rbp]
	pop	rbp
	.cfi_def_cfa 7, 8
	ret
	.cfi_endproc
.LFE11064:
	.size	_ZNKSt9_IdentityIiEclERKi, .-_ZNKSt9_IdentityIiEclERKi
	.section	.text._ZNSt8_Rb_treeIiiSt9_IdentityIiESt7greaterIiESaIiEE11_Alloc_nodeC2ERS5_,"axG",@progbits,_ZNSt8_Rb_treeIiiSt9_IdentityIiESt7greaterIiESaIiEE11_Alloc_nodeC5ERS5_,comdat
	.align 2
	.weak	_ZNSt8_Rb_treeIiiSt9_IdentityIiESt7greaterIiESaIiEE11_Alloc_nodeC2ERS5_
	.type	_ZNSt8_Rb_treeIiiSt9_IdentityIiESt7greaterIiESaIiEE11_Alloc_nodeC2ERS5_, @function
_ZNSt8_Rb_treeIiiSt9_IdentityIiESt7greaterIiESaIiEE11_Alloc_nodeC2ERS5_:
.LFB11066:
	.cfi_startproc
	endbr64
	push	rbp
	.cfi_def_cfa_offset 16
	.cfi_offset 6, -16
	mov	rbp, rsp
	.cfi_def_cfa_register 6
	mov	QWORD PTR -8[rbp], rdi
	mov	QWORD PTR -16[rbp], rsi
	mov	rax, QWORD PTR -8[rbp]
	mov	rdx, QWORD PTR -16[rbp]
	mov	QWORD PTR [rax], rdx
	nop
	pop	rbp
	.cfi_def_cfa 7, 8
	ret
	.cfi_endproc
.LFE11066:
	.size	_ZNSt8_Rb_treeIiiSt9_IdentityIiESt7greaterIiESaIiEE11_Alloc_nodeC2ERS5_, .-_ZNSt8_Rb_treeIiiSt9_IdentityIiESt7greaterIiESaIiEE11_Alloc_nodeC2ERS5_
	.weak	_ZNSt8_Rb_treeIiiSt9_IdentityIiESt7greaterIiESaIiEE11_Alloc_nodeC1ERS5_
	.set	_ZNSt8_Rb_treeIiiSt9_IdentityIiESt7greaterIiESaIiEE11_Alloc_nodeC1ERS5_,_ZNSt8_Rb_treeIiiSt9_IdentityIiESt7greaterIiESaIiEE11_Alloc_nodeC2ERS5_
	.section	.text._ZSt7forwardIRKiEOT_RNSt16remove_referenceIS2_E4typeE,"axG",@progbits,_ZSt7forwardIRKiEOT_RNSt16remove_referenceIS2_E4typeE,comdat
	.weak	_ZSt7forwardIRKiEOT_RNSt16remove_referenceIS2_E4typeE
	.type	_ZSt7forwardIRKiEOT_RNSt16remove_referenceIS2_E4typeE, @function
_ZSt7forwardIRKiEOT_RNSt16remove_referenceIS2_E4typeE:
.LFB11068:
	.cfi_startproc
	endbr64
	push	rbp
	.cfi_def_cfa_offset 16
	.cfi_offset 6, -16
	mov	rbp, rsp
	.cfi_def_cfa_register 6
	mov	QWORD PTR -8[rbp], rdi
	mov	rax, QWORD PTR -8[rbp]
	pop	rbp
	.cfi_def_cfa 7, 8
	ret
	.cfi_endproc
.LFE11068:
	.size	_ZSt7forwardIRKiEOT_RNSt16remove_referenceIS2_E4typeE, .-_ZSt7forwardIRKiEOT_RNSt16remove_referenceIS2_E4typeE
	.section	.text._ZNSt8_Rb_treeIiiSt9_IdentityIiESt7greaterIiESaIiEE10_M_insert_IRKiNS5_11_Alloc_nodeEEESt17_Rb_tree_iteratorIiEPSt18_Rb_tree_node_baseSD_OT_RT0_,"axG",@progbits,_ZNSt8_Rb_treeIiiSt9_IdentityIiESt7greaterIiESaIiEE10_M_insert_IRKiNS5_11_Alloc_nodeEEESt17_Rb_tree_iteratorIiEPSt18_Rb_tree_node_baseSD_OT_RT0_,comdat
	.align 2
	.weak	_ZNSt8_Rb_treeIiiSt9_IdentityIiESt7greaterIiESaIiEE10_M_insert_IRKiNS5_11_Alloc_nodeEEESt17_Rb_tree_iteratorIiEPSt18_Rb_tree_node_baseSD_OT_RT0_
	.type	_ZNSt8_Rb_treeIiiSt9_IdentityIiESt7greaterIiESaIiEE10_M_insert_IRKiNS5_11_Alloc_nodeEEESt17_Rb_tree_iteratorIiEPSt18_Rb_tree_node_baseSD_OT_RT0_, @function
_ZNSt8_Rb_treeIiiSt9_IdentityIiESt7greaterIiESaIiEE10_M_insert_IRKiNS5_11_Alloc_nodeEEESt17_Rb_tree_iteratorIiEPSt18_Rb_tree_node_baseSD_OT_RT0_:
.LFB11069:
	.cfi_startproc
	endbr64
	push	rbp
	.cfi_def_cfa_offset 16
	.cfi_offset 6, -16
	mov	rbp, rsp
	.cfi_def_cfa_register 6
	push	r12
	push	rbx
	sub	rsp, 80
	.cfi_offset 12, -24
	.cfi_offset 3, -32
	mov	QWORD PTR -56[rbp], rdi
	mov	QWORD PTR -64[rbp], rsi
	mov	QWORD PTR -72[rbp], rdx
	mov	QWORD PTR -80[rbp], rcx
	mov	QWORD PTR -88[rbp], r8
	mov	rax, QWORD PTR fs:40
	mov	QWORD PTR -24[rbp], rax
	xor	eax, eax
	cmp	QWORD PTR -64[rbp], 0
	jne	.L70
	mov	rax, QWORD PTR -56[rbp]
	mov	rdi, rax
	call	_ZNSt8_Rb_treeIiiSt9_IdentityIiESt7greaterIiESaIiEE6_M_endEv
	cmp	QWORD PTR -72[rbp], rax
	je	.L70
	mov	rbx, QWORD PTR -56[rbp]
	mov	rax, QWORD PTR -72[rbp]
	mov	rdi, rax
	call	_ZNSt8_Rb_treeIiiSt9_IdentityIiESt7greaterIiESaIiEE6_S_keyEPKSt18_Rb_tree_node_base
	mov	r12, rax
	mov	rdx, QWORD PTR -80[rbp]
	lea	rax, -40[rbp]
	mov	rsi, rdx
	mov	rdi, rax
	call	_ZNKSt9_IdentityIiEclERKi
	mov	rdx, r12
	mov	rsi, rax
	mov	rdi, rbx
	call	_ZNKSt7greaterIiEclERKiS2_
	test	al, al
	je	.L71
.L70:
	mov	eax, 1
	jmp	.L72
.L71:
	mov	eax, 0
.L72:
	mov	BYTE PTR -41[rbp], al
	mov	rax, QWORD PTR -80[rbp]
	mov	rdi, rax
	call	_ZSt7forwardIRKiEOT_RNSt16remove_referenceIS2_E4typeE
	mov	rdx, rax
	mov	rax, QWORD PTR -88[rbp]
	mov	rsi, rdx
	mov	rdi, rax
	call	_ZNKSt8_Rb_treeIiiSt9_IdentityIiESt7greaterIiESaIiEE11_Alloc_nodeclIRKiEEPSt13_Rb_tree_nodeIiEOT_
	mov	QWORD PTR -32[rbp], rax
	mov	rax, QWORD PTR -56[rbp]
	lea	rcx, 8[rax]
	movzx	eax, BYTE PTR -41[rbp]
	mov	rdx, QWORD PTR -72[rbp]
	mov	rsi, QWORD PTR -32[rbp]
	mov	edi, eax
	call	_ZSt29_Rb_tree_insert_and_rebalancebPSt18_Rb_tree_node_baseS0_RS_@PLT
	mov	rax, QWORD PTR -56[rbp]
	mov	rax, QWORD PTR 40[rax]
	lea	rdx, 1[rax]
	mov	rax, QWORD PTR -56[rbp]
	mov	QWORD PTR 40[rax], rdx
	mov	rdx, QWORD PTR -32[rbp]
	lea	rax, -40[rbp]
	mov	rsi, rdx
	mov	rdi, rax
	call	_ZNSt17_Rb_tree_iteratorIiEC1EPSt18_Rb_tree_node_base
	mov	rax, QWORD PTR -40[rbp]
	mov	rdx, QWORD PTR -24[rbp]
	sub	rdx, QWORD PTR fs:40
	je	.L74
	call	__stack_chk_fail@PLT
.L74:
	add	rsp, 80
	pop	rbx
	pop	r12
	pop	rbp
	.cfi_def_cfa 7, 8
	ret
	.cfi_endproc
.LFE11069:
	.size	_ZNSt8_Rb_treeIiiSt9_IdentityIiESt7greaterIiESaIiEE10_M_insert_IRKiNS5_11_Alloc_nodeEEESt17_Rb_tree_iteratorIiEPSt18_Rb_tree_node_baseSD_OT_RT0_, .-_ZNSt8_Rb_treeIiiSt9_IdentityIiESt7greaterIiESaIiEE10_M_insert_IRKiNS5_11_Alloc_nodeEEESt17_Rb_tree_iteratorIiEPSt18_Rb_tree_node_baseSD_OT_RT0_
	.section	.text._ZNSt4pairISt17_Rb_tree_iteratorIiEbEC2IS1_bLb1EEEOT_OT0_,"axG",@progbits,_ZNSt4pairISt17_Rb_tree_iteratorIiEbEC5IS1_bLb1EEEOT_OT0_,comdat
	.align 2
	.weak	_ZNSt4pairISt17_Rb_tree_iteratorIiEbEC2IS1_bLb1EEEOT_OT0_
	.type	_ZNSt4pairISt17_Rb_tree_iteratorIiEbEC2IS1_bLb1EEEOT_OT0_, @function
_ZNSt4pairISt17_Rb_tree_iteratorIiEbEC2IS1_bLb1EEEOT_OT0_:
.LFB11071:
	.cfi_startproc
	endbr64
	push	rbp
	.cfi_def_cfa_offset 16
	.cfi_offset 6, -16
	mov	rbp, rsp
	.cfi_def_cfa_register 6
	sub	rsp, 32
	mov	QWORD PTR -8[rbp], rdi
	mov	QWORD PTR -16[rbp], rsi
	mov	QWORD PTR -24[rbp], rdx
	mov	rax, QWORD PTR -16[rbp]
	mov	rdi, rax
	call	_ZSt7forwardISt17_Rb_tree_iteratorIiEEOT_RNSt16remove_referenceIS2_E4typeE
	mov	rdx, QWORD PTR -8[rbp]
	mov	rax, QWORD PTR [rax]
	mov	QWORD PTR [rdx], rax
	mov	rax, QWORD PTR -24[rbp]
	mov	rdi, rax
	call	_ZSt7forwardIbEOT_RNSt16remove_referenceIS0_E4typeE
	movzx	edx, BYTE PTR [rax]
	mov	rax, QWORD PTR -8[rbp]
	mov	BYTE PTR 8[rax], dl
	nop
	leave
	.cfi_def_cfa 7, 8
	ret
	.cfi_endproc
.LFE11071:
	.size	_ZNSt4pairISt17_Rb_tree_iteratorIiEbEC2IS1_bLb1EEEOT_OT0_, .-_ZNSt4pairISt17_Rb_tree_iteratorIiEbEC2IS1_bLb1EEEOT_OT0_
	.weak	_ZNSt4pairISt17_Rb_tree_iteratorIiEbEC1IS1_bLb1EEEOT_OT0_
	.set	_ZNSt4pairISt17_Rb_tree_iteratorIiEbEC1IS1_bLb1EEEOT_OT0_,_ZNSt4pairISt17_Rb_tree_iteratorIiEbEC2IS1_bLb1EEEOT_OT0_
	.section	.text._ZNSt17_Rb_tree_iteratorIiEC2EPSt18_Rb_tree_node_base,"axG",@progbits,_ZNSt17_Rb_tree_iteratorIiEC5EPSt18_Rb_tree_node_base,comdat
	.align 2
	.weak	_ZNSt17_Rb_tree_iteratorIiEC2EPSt18_Rb_tree_node_base
	.type	_ZNSt17_Rb_tree_iteratorIiEC2EPSt18_Rb_tree_node_base, @function
_ZNSt17_Rb_tree_iteratorIiEC2EPSt18_Rb_tree_node_base:
.LFB11074:
	.cfi_startproc
	endbr64
	push	rbp
	.cfi_def_cfa_offset 16
	.cfi_offset 6, -16
	mov	rbp, rsp
	.cfi_def_cfa_register 6
	mov	QWORD PTR -8[rbp], rdi
	mov	QWORD PTR -16[rbp], rsi
	mov	rax, QWORD PTR -8[rbp]
	mov	rdx, QWORD PTR -16[rbp]
	mov	QWORD PTR [rax], rdx
	nop
	pop	rbp
	.cfi_def_cfa 7, 8
	ret
	.cfi_endproc
.LFE11074:
	.size	_ZNSt17_Rb_tree_iteratorIiEC2EPSt18_Rb_tree_node_base, .-_ZNSt17_Rb_tree_iteratorIiEC2EPSt18_Rb_tree_node_base
	.weak	_ZNSt17_Rb_tree_iteratorIiEC1EPSt18_Rb_tree_node_base
	.set	_ZNSt17_Rb_tree_iteratorIiEC1EPSt18_Rb_tree_node_base,_ZNSt17_Rb_tree_iteratorIiEC2EPSt18_Rb_tree_node_base
	.section	.text._ZSt7forwardIRSt17_Rb_tree_iteratorIiEEOT_RNSt16remove_referenceIS3_E4typeE,"axG",@progbits,_ZSt7forwardIRSt17_Rb_tree_iteratorIiEEOT_RNSt16remove_referenceIS3_E4typeE,comdat
	.weak	_ZSt7forwardIRSt17_Rb_tree_iteratorIiEEOT_RNSt16remove_referenceIS3_E4typeE
	.type	_ZSt7forwardIRSt17_Rb_tree_iteratorIiEEOT_RNSt16remove_referenceIS3_E4typeE, @function
_ZSt7forwardIRSt17_Rb_tree_iteratorIiEEOT_RNSt16remove_referenceIS3_E4typeE:
.LFB11076:
	.cfi_startproc
	endbr64
	push	rbp
	.cfi_def_cfa_offset 16
	.cfi_offset 6, -16
	mov	rbp, rsp
	.cfi_def_cfa_register 6
	mov	QWORD PTR -8[rbp], rdi
	mov	rax, QWORD PTR -8[rbp]
	pop	rbp
	.cfi_def_cfa 7, 8
	ret
	.cfi_endproc
.LFE11076:
	.size	_ZSt7forwardIRSt17_Rb_tree_iteratorIiEEOT_RNSt16remove_referenceIS3_E4typeE, .-_ZSt7forwardIRSt17_Rb_tree_iteratorIiEEOT_RNSt16remove_referenceIS3_E4typeE
	.section	.text._ZSt7forwardIRbEOT_RNSt16remove_referenceIS1_E4typeE,"axG",@progbits,_ZSt7forwardIRbEOT_RNSt16remove_referenceIS1_E4typeE,comdat
	.weak	_ZSt7forwardIRbEOT_RNSt16remove_referenceIS1_E4typeE
	.type	_ZSt7forwardIRbEOT_RNSt16remove_referenceIS1_E4typeE, @function
_ZSt7forwardIRbEOT_RNSt16remove_referenceIS1_E4typeE:
.LFB11077:
	.cfi_startproc
	endbr64
	push	rbp
	.cfi_def_cfa_offset 16
	.cfi_offset 6, -16
	mov	rbp, rsp
	.cfi_def_cfa_register 6
	mov	QWORD PTR -8[rbp], rdi
	mov	rax, QWORD PTR -8[rbp]
	pop	rbp
	.cfi_def_cfa 7, 8
	ret
	.cfi_endproc
.LFE11077:
	.size	_ZSt7forwardIRbEOT_RNSt16remove_referenceIS1_E4typeE, .-_ZSt7forwardIRbEOT_RNSt16remove_referenceIS1_E4typeE
	.section	.text._ZNSt23_Rb_tree_const_iteratorIiEC2ERKSt17_Rb_tree_iteratorIiE,"axG",@progbits,_ZNSt23_Rb_tree_const_iteratorIiEC5ERKSt17_Rb_tree_iteratorIiE,comdat
	.align 2
	.weak	_ZNSt23_Rb_tree_const_iteratorIiEC2ERKSt17_Rb_tree_iteratorIiE
	.type	_ZNSt23_Rb_tree_const_iteratorIiEC2ERKSt17_Rb_tree_iteratorIiE, @function
_ZNSt23_Rb_tree_const_iteratorIiEC2ERKSt17_Rb_tree_iteratorIiE:
.LFB11079:
	.cfi_startproc
	endbr64
	push	rbp
	.cfi_def_cfa_offset 16
	.cfi_offset 6, -16
	mov	rbp, rsp
	.cfi_def_cfa_register 6
	mov	QWORD PTR -8[rbp], rdi
	mov	QWORD PTR -16[rbp], rsi
	mov	rax, QWORD PTR -16[rbp]
	mov	rdx, QWORD PTR [rax]
	mov	rax, QWORD PTR -8[rbp]
	mov	QWORD PTR [rax], rdx
	nop
	pop	rbp
	.cfi_def_cfa 7, 8
	ret
	.cfi_endproc
.LFE11079:
	.size	_ZNSt23_Rb_tree_const_iteratorIiEC2ERKSt17_Rb_tree_iteratorIiE, .-_ZNSt23_Rb_tree_const_iteratorIiEC2ERKSt17_Rb_tree_iteratorIiE
	.weak	_ZNSt23_Rb_tree_const_iteratorIiEC1ERKSt17_Rb_tree_iteratorIiE
	.set	_ZNSt23_Rb_tree_const_iteratorIiEC1ERKSt17_Rb_tree_iteratorIiE,_ZNSt23_Rb_tree_const_iteratorIiEC2ERKSt17_Rb_tree_iteratorIiE
	.section	.text._ZNSt8_Rb_treeIiiSt9_IdentityIiESt7greaterIiESaIiEE15_M_destroy_nodeEPSt13_Rb_tree_nodeIiE,"axG",@progbits,_ZNSt8_Rb_treeIiiSt9_IdentityIiESt7greaterIiESaIiEE15_M_destroy_nodeEPSt13_Rb_tree_nodeIiE,comdat
	.align 2
	.weak	_ZNSt8_Rb_treeIiiSt9_IdentityIiESt7greaterIiESaIiEE15_M_destroy_nodeEPSt13_Rb_tree_nodeIiE
	.type	_ZNSt8_Rb_treeIiiSt9_IdentityIiESt7greaterIiESaIiEE15_M_destroy_nodeEPSt13_Rb_tree_nodeIiE, @function
_ZNSt8_Rb_treeIiiSt9_IdentityIiESt7greaterIiESaIiEE15_M_destroy_nodeEPSt13_Rb_tree_nodeIiE:
.LFB11217:
	.cfi_startproc
	endbr64
	push	rbp
	.cfi_def_cfa_offset 16
	.cfi_offset 6, -16
	mov	rbp, rsp
	.cfi_def_cfa_register 6
	push	rbx
	sub	rsp, 24
	.cfi_offset 3, -24
	mov	QWORD PTR -24[rbp], rdi
	mov	QWORD PTR -32[rbp], rsi
	mov	rax, QWORD PTR -32[rbp]
	mov	rdi, rax
	call	_ZNSt13_Rb_tree_nodeIiE9_M_valptrEv
	mov	rbx, rax
	mov	rax, QWORD PTR -24[rbp]
	mov	rdi, rax
	call	_ZNSt8_Rb_treeIiiSt9_IdentityIiESt7greaterIiESaIiEE21_M_get_Node_allocatorEv
	mov	rsi, rbx
	mov	rdi, rax
	call	_ZNSt16allocator_traitsISaISt13_Rb_tree_nodeIiEEE7destroyIiEEvRS2_PT_
	nop
	mov	rbx, QWORD PTR -8[rbp]
	leave
	.cfi_def_cfa 7, 8
	ret
	.cfi_endproc
.LFE11217:
	.size	_ZNSt8_Rb_treeIiiSt9_IdentityIiESt7greaterIiESaIiEE15_M_destroy_nodeEPSt13_Rb_tree_nodeIiE, .-_ZNSt8_Rb_treeIiiSt9_IdentityIiESt7greaterIiESaIiEE15_M_destroy_nodeEPSt13_Rb_tree_nodeIiE
	.section	.text._ZNSt8_Rb_treeIiiSt9_IdentityIiESt7greaterIiESaIiEE11_M_put_nodeEPSt13_Rb_tree_nodeIiE,"axG",@progbits,_ZNSt8_Rb_treeIiiSt9_IdentityIiESt7greaterIiESaIiEE11_M_put_nodeEPSt13_Rb_tree_nodeIiE,comdat
	.align 2
	.weak	_ZNSt8_Rb_treeIiiSt9_IdentityIiESt7greaterIiESaIiEE11_M_put_nodeEPSt13_Rb_tree_nodeIiE
	.type	_ZNSt8_Rb_treeIiiSt9_IdentityIiESt7greaterIiESaIiEE11_M_put_nodeEPSt13_Rb_tree_nodeIiE, @function
_ZNSt8_Rb_treeIiiSt9_IdentityIiESt7greaterIiESaIiEE11_M_put_nodeEPSt13_Rb_tree_nodeIiE:
.LFB11219:
	.cfi_startproc
	.cfi_personality 0x9b,DW.ref.__gxx_personality_v0
	.cfi_lsda 0x1b,.LLSDA11219
	endbr64
	push	rbp
	.cfi_def_cfa_offset 16
	.cfi_offset 6, -16
	mov	rbp, rsp
	.cfi_def_cfa_register 6
	sub	rsp, 16
	mov	QWORD PTR -8[rbp], rdi
	mov	QWORD PTR -16[rbp], rsi
	mov	rax, QWORD PTR -8[rbp]
	mov	rdi, rax
	call	_ZNSt8_Rb_treeIiiSt9_IdentityIiESt7greaterIiESaIiEE21_M_get_Node_allocatorEv
	mov	rcx, rax
	mov	rax, QWORD PTR -16[rbp]
	mov	edx, 1
	mov	rsi, rax
	mov	rdi, rcx
	call	_ZNSt16allocator_traitsISaISt13_Rb_tree_nodeIiEEE10deallocateERS2_PS1_m
	nop
	leave
	.cfi_def_cfa 7, 8
	ret
	.cfi_endproc
.LFE11219:
	.section	.gcc_except_table
.LLSDA11219:
	.byte	0xff
	.byte	0xff
	.byte	0x1
	.uleb128 .LLSDACSE11219-.LLSDACSB11219
.LLSDACSB11219:
.LLSDACSE11219:
	.section	.text._ZNSt8_Rb_treeIiiSt9_IdentityIiESt7greaterIiESaIiEE11_M_put_nodeEPSt13_Rb_tree_nodeIiE,"axG",@progbits,_ZNSt8_Rb_treeIiiSt9_IdentityIiESt7greaterIiESaIiEE11_M_put_nodeEPSt13_Rb_tree_nodeIiE,comdat
	.size	_ZNSt8_Rb_treeIiiSt9_IdentityIiESt7greaterIiESaIiEE11_M_put_nodeEPSt13_Rb_tree_nodeIiE, .-_ZNSt8_Rb_treeIiiSt9_IdentityIiESt7greaterIiESaIiEE11_M_put_nodeEPSt13_Rb_tree_nodeIiE
	.section	.text._ZNSt8_Rb_treeIiiSt9_IdentityIiESt7greaterIiESaIiEE6_M_endEv,"axG",@progbits,_ZNSt8_Rb_treeIiiSt9_IdentityIiESt7greaterIiESaIiEE6_M_endEv,comdat
	.align 2
	.weak	_ZNSt8_Rb_treeIiiSt9_IdentityIiESt7greaterIiESaIiEE6_M_endEv
	.type	_ZNSt8_Rb_treeIiiSt9_IdentityIiESt7greaterIiESaIiEE6_M_endEv, @function
_ZNSt8_Rb_treeIiiSt9_IdentityIiESt7greaterIiESaIiEE6_M_endEv:
.LFB11220:
	.cfi_startproc
	endbr64
	push	rbp
	.cfi_def_cfa_offset 16
	.cfi_offset 6, -16
	mov	rbp, rsp
	.cfi_def_cfa_register 6
	mov	QWORD PTR -8[rbp], rdi
	mov	rax, QWORD PTR -8[rbp]
	add	rax, 8
	pop	rbp
	.cfi_def_cfa 7, 8
	ret
	.cfi_endproc
.LFE11220:
	.size	_ZNSt8_Rb_treeIiiSt9_IdentityIiESt7greaterIiESaIiEE6_M_endEv, .-_ZNSt8_Rb_treeIiiSt9_IdentityIiESt7greaterIiESaIiEE6_M_endEv
	.section	.text._ZNSt8_Rb_treeIiiSt9_IdentityIiESt7greaterIiESaIiEE6_S_keyEPKSt13_Rb_tree_nodeIiE,"axG",@progbits,_ZNSt8_Rb_treeIiiSt9_IdentityIiESt7greaterIiESaIiEE6_S_keyEPKSt13_Rb_tree_nodeIiE,comdat
	.weak	_ZNSt8_Rb_treeIiiSt9_IdentityIiESt7greaterIiESaIiEE6_S_keyEPKSt13_Rb_tree_nodeIiE
	.type	_ZNSt8_Rb_treeIiiSt9_IdentityIiESt7greaterIiESaIiEE6_S_keyEPKSt13_Rb_tree_nodeIiE, @function
_ZNSt8_Rb_treeIiiSt9_IdentityIiESt7greaterIiESaIiEE6_S_keyEPKSt13_Rb_tree_nodeIiE:
.LFB11221:
	.cfi_startproc
	endbr64
	push	rbp
	.cfi_def_cfa_offset 16
	.cfi_offset 6, -16
	mov	rbp, rsp
	.cfi_def_cfa_register 6
	sub	rsp, 32
	mov	QWORD PTR -24[rbp], rdi
	mov	rax, QWORD PTR fs:40
	mov	QWORD PTR -8[rbp], rax
	xor	eax, eax
	mov	rax, QWORD PTR -24[rbp]
	mov	rdi, rax
	call	_ZNKSt13_Rb_tree_nodeIiE9_M_valptrEv
	mov	rdx, rax
	lea	rax, -9[rbp]
	mov	rsi, rdx
	mov	rdi, rax
	call	_ZNKSt9_IdentityIiEclERKi
	mov	rdx, QWORD PTR -8[rbp]
	sub	rdx, QWORD PTR fs:40
	je	.L88
	call	__stack_chk_fail@PLT
.L88:
	leave
	.cfi_def_cfa 7, 8
	ret
	.cfi_endproc
.LFE11221:
	.size	_ZNSt8_Rb_treeIiiSt9_IdentityIiESt7greaterIiESaIiEE6_S_keyEPKSt13_Rb_tree_nodeIiE, .-_ZNSt8_Rb_treeIiiSt9_IdentityIiESt7greaterIiESaIiEE6_S_keyEPKSt13_Rb_tree_nodeIiE
	.section	.text._ZNKSt7greaterIiEclERKiS2_,"axG",@progbits,_ZNKSt7greaterIiEclERKiS2_,comdat
	.align 2
	.weak	_ZNKSt7greaterIiEclERKiS2_
	.type	_ZNKSt7greaterIiEclERKiS2_, @function
_ZNKSt7greaterIiEclERKiS2_:
.LFB11224:
	.cfi_startproc
	endbr64
	push	rbp
	.cfi_def_cfa_offset 16
	.cfi_offset 6, -16
	mov	rbp, rsp
	.cfi_def_cfa_register 6
	mov	QWORD PTR -8[rbp], rdi
	mov	QWORD PTR -16[rbp], rsi
	mov	QWORD PTR -24[rbp], rdx
	mov	rax, QWORD PTR -16[rbp]
	mov	edx, DWORD PTR [rax]
	mov	rax, QWORD PTR -24[rbp]
	mov	eax, DWORD PTR [rax]
	cmp	edx, eax
	setg	al
	pop	rbp
	.cfi_def_cfa 7, 8
	ret
	.cfi_endproc
.LFE11224:
	.size	_ZNKSt7greaterIiEclERKiS2_, .-_ZNKSt7greaterIiEclERKiS2_
	.section	.text._ZNSt8_Rb_treeIiiSt9_IdentityIiESt7greaterIiESaIiEE5beginEv,"axG",@progbits,_ZNSt8_Rb_treeIiiSt9_IdentityIiESt7greaterIiESaIiEE5beginEv,comdat
	.align 2
	.weak	_ZNSt8_Rb_treeIiiSt9_IdentityIiESt7greaterIiESaIiEE5beginEv
	.type	_ZNSt8_Rb_treeIiiSt9_IdentityIiESt7greaterIiESaIiEE5beginEv, @function
_ZNSt8_Rb_treeIiiSt9_IdentityIiESt7greaterIiESaIiEE5beginEv:
.LFB11225:
	.cfi_startproc
	endbr64
	push	rbp
	.cfi_def_cfa_offset 16
	.cfi_offset 6, -16
	mov	rbp, rsp
	.cfi_def_cfa_register 6
	sub	rsp, 32
	mov	QWORD PTR -24[rbp], rdi
	mov	rax, QWORD PTR fs:40
	mov	QWORD PTR -8[rbp], rax
	xor	eax, eax
	mov	rax, QWORD PTR -24[rbp]
	mov	rdx, QWORD PTR 24[rax]
	lea	rax, -16[rbp]
	mov	rsi, rdx
	mov	rdi, rax
	call	_ZNSt17_Rb_tree_iteratorIiEC1EPSt18_Rb_tree_node_base
	mov	rax, QWORD PTR -16[rbp]
	mov	rdx, QWORD PTR -8[rbp]
	sub	rdx, QWORD PTR fs:40
	je	.L93
	call	__stack_chk_fail@PLT
.L93:
	leave
	.cfi_def_cfa 7, 8
	ret
	.cfi_endproc
.LFE11225:
	.size	_ZNSt8_Rb_treeIiiSt9_IdentityIiESt7greaterIiESaIiEE5beginEv, .-_ZNSt8_Rb_treeIiiSt9_IdentityIiESt7greaterIiESaIiEE5beginEv
	.section	.text._ZSteqRKSt17_Rb_tree_iteratorIiES2_,"axG",@progbits,_ZSteqRKSt17_Rb_tree_iteratorIiES2_,comdat
	.weak	_ZSteqRKSt17_Rb_tree_iteratorIiES2_
	.type	_ZSteqRKSt17_Rb_tree_iteratorIiES2_, @function
_ZSteqRKSt17_Rb_tree_iteratorIiES2_:
.LFB11226:
	.cfi_startproc
	endbr64
	push	rbp
	.cfi_def_cfa_offset 16
	.cfi_offset 6, -16
	mov	rbp, rsp
	.cfi_def_cfa_register 6
	mov	QWORD PTR -8[rbp], rdi
	mov	QWORD PTR -16[rbp], rsi
	mov	rax, QWORD PTR -8[rbp]
	mov	rdx, QWORD PTR [rax]
	mov	rax, QWORD PTR -16[rbp]
	mov	rax, QWORD PTR [rax]
	cmp	rdx, rax
	sete	al
	pop	rbp
	.cfi_def_cfa 7, 8
	ret
	.cfi_endproc
.LFE11226:
	.size	_ZSteqRKSt17_Rb_tree_iteratorIiES2_, .-_ZSteqRKSt17_Rb_tree_iteratorIiES2_
	.section	.text._ZNSt4pairIPSt18_Rb_tree_node_baseS1_EC2IRPSt13_Rb_tree_nodeIiERS1_Lb1EEEOT_OT0_,"axG",@progbits,_ZNSt4pairIPSt18_Rb_tree_node_baseS1_EC5IRPSt13_Rb_tree_nodeIiERS1_Lb1EEEOT_OT0_,comdat
	.align 2
	.weak	_ZNSt4pairIPSt18_Rb_tree_node_baseS1_EC2IRPSt13_Rb_tree_nodeIiERS1_Lb1EEEOT_OT0_
	.type	_ZNSt4pairIPSt18_Rb_tree_node_baseS1_EC2IRPSt13_Rb_tree_nodeIiERS1_Lb1EEEOT_OT0_, @function
_ZNSt4pairIPSt18_Rb_tree_node_baseS1_EC2IRPSt13_Rb_tree_nodeIiERS1_Lb1EEEOT_OT0_:
.LFB11228:
	.cfi_startproc
	endbr64
	push	rbp
	.cfi_def_cfa_offset 16
	.cfi_offset 6, -16
	mov	rbp, rsp
	.cfi_def_cfa_register 6
	sub	rsp, 32
	mov	QWORD PTR -8[rbp], rdi
	mov	QWORD PTR -16[rbp], rsi
	mov	QWORD PTR -24[rbp], rdx
	mov	rax, QWORD PTR -16[rbp]
	mov	rdi, rax
	call	_ZSt7forwardIRPSt13_Rb_tree_nodeIiEEOT_RNSt16remove_referenceIS4_E4typeE
	mov	rdx, QWORD PTR [rax]
	mov	rax, QWORD PTR -8[rbp]
	mov	QWORD PTR [rax], rdx
	mov	rax, QWORD PTR -24[rbp]
	mov	rdi, rax
	call	_ZSt7forwardIRPSt18_Rb_tree_node_baseEOT_RNSt16remove_referenceIS3_E4typeE
	mov	rdx, QWORD PTR [rax]
	mov	rax, QWORD PTR -8[rbp]
	mov	QWORD PTR 8[rax], rdx
	nop
	leave
	.cfi_def_cfa 7, 8
	ret
	.cfi_endproc
.LFE11228:
	.size	_ZNSt4pairIPSt18_Rb_tree_node_baseS1_EC2IRPSt13_Rb_tree_nodeIiERS1_Lb1EEEOT_OT0_, .-_ZNSt4pairIPSt18_Rb_tree_node_baseS1_EC2IRPSt13_Rb_tree_nodeIiERS1_Lb1EEEOT_OT0_
	.weak	_ZNSt4pairIPSt18_Rb_tree_node_baseS1_EC1IRPSt13_Rb_tree_nodeIiERS1_Lb1EEEOT_OT0_
	.set	_ZNSt4pairIPSt18_Rb_tree_node_baseS1_EC1IRPSt13_Rb_tree_nodeIiERS1_Lb1EEEOT_OT0_,_ZNSt4pairIPSt18_Rb_tree_node_baseS1_EC2IRPSt13_Rb_tree_nodeIiERS1_Lb1EEEOT_OT0_
	.section	.text._ZNSt17_Rb_tree_iteratorIiEmmEv,"axG",@progbits,_ZNSt17_Rb_tree_iteratorIiEmmEv,comdat
	.align 2
	.weak	_ZNSt17_Rb_tree_iteratorIiEmmEv
	.type	_ZNSt17_Rb_tree_iteratorIiEmmEv, @function
_ZNSt17_Rb_tree_iteratorIiEmmEv:
.LFB11230:
	.cfi_startproc
	endbr64
	push	rbp
	.cfi_def_cfa_offset 16
	.cfi_offset 6, -16
	mov	rbp, rsp
	.cfi_def_cfa_register 6
	sub	rsp, 16
	mov	QWORD PTR -8[rbp], rdi
	mov	rax, QWORD PTR -8[rbp]
	mov	rax, QWORD PTR [rax]
	mov	rdi, rax
	call	_ZSt18_Rb_tree_decrementPSt18_Rb_tree_node_base@PLT
	mov	rdx, QWORD PTR -8[rbp]
	mov	QWORD PTR [rdx], rax
	mov	rax, QWORD PTR -8[rbp]
	leave
	.cfi_def_cfa 7, 8
	ret
	.cfi_endproc
.LFE11230:
	.size	_ZNSt17_Rb_tree_iteratorIiEmmEv, .-_ZNSt17_Rb_tree_iteratorIiEmmEv
	.section	.text._ZNSt8_Rb_treeIiiSt9_IdentityIiESt7greaterIiESaIiEE6_S_keyEPKSt18_Rb_tree_node_base,"axG",@progbits,_ZNSt8_Rb_treeIiiSt9_IdentityIiESt7greaterIiESaIiEE6_S_keyEPKSt18_Rb_tree_node_base,comdat
	.weak	_ZNSt8_Rb_treeIiiSt9_IdentityIiESt7greaterIiESaIiEE6_S_keyEPKSt18_Rb_tree_node_base
	.type	_ZNSt8_Rb_treeIiiSt9_IdentityIiESt7greaterIiESaIiEE6_S_keyEPKSt18_Rb_tree_node_base, @function
_ZNSt8_Rb_treeIiiSt9_IdentityIiESt7greaterIiESaIiEE6_S_keyEPKSt18_Rb_tree_node_base:
.LFB11231:
	.cfi_startproc
	endbr64
	push	rbp
	.cfi_def_cfa_offset 16
	.cfi_offset 6, -16
	mov	rbp, rsp
	.cfi_def_cfa_register 6
	sub	rsp, 16
	mov	QWORD PTR -8[rbp], rdi
	mov	rax, QWORD PTR -8[rbp]
	mov	rdi, rax
	call	_ZNSt8_Rb_treeIiiSt9_IdentityIiESt7greaterIiESaIiEE6_S_keyEPKSt13_Rb_tree_nodeIiE
	leave
	.cfi_def_cfa 7, 8
	ret
	.cfi_endproc
.LFE11231:
	.size	_ZNSt8_Rb_treeIiiSt9_IdentityIiESt7greaterIiESaIiEE6_S_keyEPKSt18_Rb_tree_node_base, .-_ZNSt8_Rb_treeIiiSt9_IdentityIiESt7greaterIiESaIiEE6_S_keyEPKSt18_Rb_tree_node_base
	.section	.text._ZNSt4pairIPSt18_Rb_tree_node_baseS1_EC2IRS1_Lb1EEEOT_RKS1_,"axG",@progbits,_ZNSt4pairIPSt18_Rb_tree_node_baseS1_EC5IRS1_Lb1EEEOT_RKS1_,comdat
	.align 2
	.weak	_ZNSt4pairIPSt18_Rb_tree_node_baseS1_EC2IRS1_Lb1EEEOT_RKS1_
	.type	_ZNSt4pairIPSt18_Rb_tree_node_baseS1_EC2IRS1_Lb1EEEOT_RKS1_, @function
_ZNSt4pairIPSt18_Rb_tree_node_baseS1_EC2IRS1_Lb1EEEOT_RKS1_:
.LFB11233:
	.cfi_startproc
	endbr64
	push	rbp
	.cfi_def_cfa_offset 16
	.cfi_offset 6, -16
	mov	rbp, rsp
	.cfi_def_cfa_register 6
	sub	rsp, 32
	mov	QWORD PTR -8[rbp], rdi
	mov	QWORD PTR -16[rbp], rsi
	mov	QWORD PTR -24[rbp], rdx
	mov	rax, QWORD PTR -16[rbp]
	mov	rdi, rax
	call	_ZSt7forwardIRPSt18_Rb_tree_node_baseEOT_RNSt16remove_referenceIS3_E4typeE
	mov	rdx, QWORD PTR [rax]
	mov	rax, QWORD PTR -8[rbp]
	mov	QWORD PTR [rax], rdx
	mov	rax, QWORD PTR -24[rbp]
	mov	rdx, QWORD PTR [rax]
	mov	rax, QWORD PTR -8[rbp]
	mov	QWORD PTR 8[rax], rdx
	nop
	leave
	.cfi_def_cfa 7, 8
	ret
	.cfi_endproc
.LFE11233:
	.size	_ZNSt4pairIPSt18_Rb_tree_node_baseS1_EC2IRS1_Lb1EEEOT_RKS1_, .-_ZNSt4pairIPSt18_Rb_tree_node_baseS1_EC2IRS1_Lb1EEEOT_RKS1_
	.weak	_ZNSt4pairIPSt18_Rb_tree_node_baseS1_EC1IRS1_Lb1EEEOT_RKS1_
	.set	_ZNSt4pairIPSt18_Rb_tree_node_baseS1_EC1IRS1_Lb1EEEOT_RKS1_,_ZNSt4pairIPSt18_Rb_tree_node_baseS1_EC2IRS1_Lb1EEEOT_RKS1_
	.section	.text._ZNKSt8_Rb_treeIiiSt9_IdentityIiESt7greaterIiESaIiEE11_Alloc_nodeclIRKiEEPSt13_Rb_tree_nodeIiEOT_,"axG",@progbits,_ZNKSt8_Rb_treeIiiSt9_IdentityIiESt7greaterIiESaIiEE11_Alloc_nodeclIRKiEEPSt13_Rb_tree_nodeIiEOT_,comdat
	.align 2
	.weak	_ZNKSt8_Rb_treeIiiSt9_IdentityIiESt7greaterIiESaIiEE11_Alloc_nodeclIRKiEEPSt13_Rb_tree_nodeIiEOT_
	.type	_ZNKSt8_Rb_treeIiiSt9_IdentityIiESt7greaterIiESaIiEE11_Alloc_nodeclIRKiEEPSt13_Rb_tree_nodeIiEOT_, @function
_ZNKSt8_Rb_treeIiiSt9_IdentityIiESt7greaterIiESaIiEE11_Alloc_nodeclIRKiEEPSt13_Rb_tree_nodeIiEOT_:
.LFB11235:
	.cfi_startproc
	endbr64
	push	rbp
	.cfi_def_cfa_offset 16
	.cfi_offset 6, -16
	mov	rbp, rsp
	.cfi_def_cfa_register 6
	push	rbx
	sub	rsp, 24
	.cfi_offset 3, -24
	mov	QWORD PTR -24[rbp], rdi
	mov	QWORD PTR -32[rbp], rsi
	mov	rax, QWORD PTR -24[rbp]
	mov	rbx, QWORD PTR [rax]
	mov	rax, QWORD PTR -32[rbp]
	mov	rdi, rax
	call	_ZSt7forwardIRKiEOT_RNSt16remove_referenceIS2_E4typeE
	mov	rsi, rax
	mov	rdi, rbx
	call	_ZNSt8_Rb_treeIiiSt9_IdentityIiESt7greaterIiESaIiEE14_M_create_nodeIJRKiEEEPSt13_Rb_tree_nodeIiEDpOT_
	mov	rbx, QWORD PTR -8[rbp]
	leave
	.cfi_def_cfa 7, 8
	ret
	.cfi_endproc
.LFE11235:
	.size	_ZNKSt8_Rb_treeIiiSt9_IdentityIiESt7greaterIiESaIiEE11_Alloc_nodeclIRKiEEPSt13_Rb_tree_nodeIiEOT_, .-_ZNKSt8_Rb_treeIiiSt9_IdentityIiESt7greaterIiESaIiEE11_Alloc_nodeclIRKiEEPSt13_Rb_tree_nodeIiEOT_
	.section	.text._ZSt7forwardISt17_Rb_tree_iteratorIiEEOT_RNSt16remove_referenceIS2_E4typeE,"axG",@progbits,_ZSt7forwardISt17_Rb_tree_iteratorIiEEOT_RNSt16remove_referenceIS2_E4typeE,comdat
	.weak	_ZSt7forwardISt17_Rb_tree_iteratorIiEEOT_RNSt16remove_referenceIS2_E4typeE
	.type	_ZSt7forwardISt17_Rb_tree_iteratorIiEEOT_RNSt16remove_referenceIS2_E4typeE, @function
_ZSt7forwardISt17_Rb_tree_iteratorIiEEOT_RNSt16remove_referenceIS2_E4typeE:
.LFB11236:
	.cfi_startproc
	endbr64
	push	rbp
	.cfi_def_cfa_offset 16
	.cfi_offset 6, -16
	mov	rbp, rsp
	.cfi_def_cfa_register 6
	mov	QWORD PTR -8[rbp], rdi
	mov	rax, QWORD PTR -8[rbp]
	pop	rbp
	.cfi_def_cfa 7, 8
	ret
	.cfi_endproc
.LFE11236:
	.size	_ZSt7forwardISt17_Rb_tree_iteratorIiEEOT_RNSt16remove_referenceIS2_E4typeE, .-_ZSt7forwardISt17_Rb_tree_iteratorIiEEOT_RNSt16remove_referenceIS2_E4typeE
	.section	.text._ZNSt8_Rb_treeIiiSt9_IdentityIiESt7greaterIiESaIiEE21_M_get_Node_allocatorEv,"axG",@progbits,_ZNSt8_Rb_treeIiiSt9_IdentityIiESt7greaterIiESaIiEE21_M_get_Node_allocatorEv,comdat
	.align 2
	.weak	_ZNSt8_Rb_treeIiiSt9_IdentityIiESt7greaterIiESaIiEE21_M_get_Node_allocatorEv
	.type	_ZNSt8_Rb_treeIiiSt9_IdentityIiESt7greaterIiESaIiEE21_M_get_Node_allocatorEv, @function
_ZNSt8_Rb_treeIiiSt9_IdentityIiESt7greaterIiESaIiEE21_M_get_Node_allocatorEv:
.LFB11321:
	.cfi_startproc
	endbr64
	push	rbp
	.cfi_def_cfa_offset 16
	.cfi_offset 6, -16
	mov	rbp, rsp
	.cfi_def_cfa_register 6
	mov	QWORD PTR -8[rbp], rdi
	mov	rax, QWORD PTR -8[rbp]
	pop	rbp
	.cfi_def_cfa 7, 8
	ret
	.cfi_endproc
.LFE11321:
	.size	_ZNSt8_Rb_treeIiiSt9_IdentityIiESt7greaterIiESaIiEE21_M_get_Node_allocatorEv, .-_ZNSt8_Rb_treeIiiSt9_IdentityIiESt7greaterIiESaIiEE21_M_get_Node_allocatorEv
	.section	.text._ZNSt13_Rb_tree_nodeIiE9_M_valptrEv,"axG",@progbits,_ZNSt13_Rb_tree_nodeIiE9_M_valptrEv,comdat
	.align 2
	.weak	_ZNSt13_Rb_tree_nodeIiE9_M_valptrEv
	.type	_ZNSt13_Rb_tree_nodeIiE9_M_valptrEv, @function
_ZNSt13_Rb_tree_nodeIiE9_M_valptrEv:
.LFB11322:
	.cfi_startproc
	endbr64
	push	rbp
	.cfi_def_cfa_offset 16
	.cfi_offset 6, -16
	mov	rbp, rsp
	.cfi_def_cfa_register 6
	sub	rsp, 16
	mov	QWORD PTR -8[rbp], rdi
	mov	rax, QWORD PTR -8[rbp]
	add	rax, 32
	mov	rdi, rax
	call	_ZN9__gnu_cxx16__aligned_membufIiE6_M_ptrEv
	leave
	.cfi_def_cfa 7, 8
	ret
	.cfi_endproc
.LFE11322:
	.size	_ZNSt13_Rb_tree_nodeIiE9_M_valptrEv, .-_ZNSt13_Rb_tree_nodeIiE9_M_valptrEv
	.section	.text._ZNSt16allocator_traitsISaISt13_Rb_tree_nodeIiEEE7destroyIiEEvRS2_PT_,"axG",@progbits,_ZNSt16allocator_traitsISaISt13_Rb_tree_nodeIiEEE7destroyIiEEvRS2_PT_,comdat
	.weak	_ZNSt16allocator_traitsISaISt13_Rb_tree_nodeIiEEE7destroyIiEEvRS2_PT_
	.type	_ZNSt16allocator_traitsISaISt13_Rb_tree_nodeIiEEE7destroyIiEEvRS2_PT_, @function
_ZNSt16allocator_traitsISaISt13_Rb_tree_nodeIiEEE7destroyIiEEvRS2_PT_:
.LFB11323:
	.cfi_startproc
	endbr64
	push	rbp
	.cfi_def_cfa_offset 16
	.cfi_offset 6, -16
	mov	rbp, rsp
	.cfi_def_cfa_register 6
	sub	rsp, 16
	mov	QWORD PTR -8[rbp], rdi
	mov	QWORD PTR -16[rbp], rsi
	mov	rdx, QWORD PTR -16[rbp]
	mov	rax, QWORD PTR -8[rbp]
	mov	rsi, rdx
	mov	rdi, rax
	call	_ZN9__gnu_cxx13new_allocatorISt13_Rb_tree_nodeIiEE7destroyIiEEvPT_
	nop
	leave
	.cfi_def_cfa 7, 8
	ret
	.cfi_endproc
.LFE11323:
	.size	_ZNSt16allocator_traitsISaISt13_Rb_tree_nodeIiEEE7destroyIiEEvRS2_PT_, .-_ZNSt16allocator_traitsISaISt13_Rb_tree_nodeIiEEE7destroyIiEEvRS2_PT_
	.section	.text._ZNSt16allocator_traitsISaISt13_Rb_tree_nodeIiEEE10deallocateERS2_PS1_m,"axG",@progbits,_ZNSt16allocator_traitsISaISt13_Rb_tree_nodeIiEEE10deallocateERS2_PS1_m,comdat
	.weak	_ZNSt16allocator_traitsISaISt13_Rb_tree_nodeIiEEE10deallocateERS2_PS1_m
	.type	_ZNSt16allocator_traitsISaISt13_Rb_tree_nodeIiEEE10deallocateERS2_PS1_m, @function
_ZNSt16allocator_traitsISaISt13_Rb_tree_nodeIiEEE10deallocateERS2_PS1_m:
.LFB11324:
	.cfi_startproc
	endbr64
	push	rbp
	.cfi_def_cfa_offset 16
	.cfi_offset 6, -16
	mov	rbp, rsp
	.cfi_def_cfa_register 6
	sub	rsp, 32
	mov	QWORD PTR -8[rbp], rdi
	mov	QWORD PTR -16[rbp], rsi
	mov	QWORD PTR -24[rbp], rdx
	mov	rdx, QWORD PTR -24[rbp]
	mov	rcx, QWORD PTR -16[rbp]
	mov	rax, QWORD PTR -8[rbp]
	mov	rsi, rcx
	mov	rdi, rax
	call	_ZN9__gnu_cxx13new_allocatorISt13_Rb_tree_nodeIiEE10deallocateEPS2_m
	nop
	leave
	.cfi_def_cfa 7, 8
	ret
	.cfi_endproc
.LFE11324:
	.size	_ZNSt16allocator_traitsISaISt13_Rb_tree_nodeIiEEE10deallocateERS2_PS1_m, .-_ZNSt16allocator_traitsISaISt13_Rb_tree_nodeIiEEE10deallocateERS2_PS1_m
	.section	.text._ZNKSt13_Rb_tree_nodeIiE9_M_valptrEv,"axG",@progbits,_ZNKSt13_Rb_tree_nodeIiE9_M_valptrEv,comdat
	.align 2
	.weak	_ZNKSt13_Rb_tree_nodeIiE9_M_valptrEv
	.type	_ZNKSt13_Rb_tree_nodeIiE9_M_valptrEv, @function
_ZNKSt13_Rb_tree_nodeIiE9_M_valptrEv:
.LFB11325:
	.cfi_startproc
	endbr64
	push	rbp
	.cfi_def_cfa_offset 16
	.cfi_offset 6, -16
	mov	rbp, rsp
	.cfi_def_cfa_register 6
	sub	rsp, 16
	mov	QWORD PTR -8[rbp], rdi
	mov	rax, QWORD PTR -8[rbp]
	add	rax, 32
	mov	rdi, rax
	call	_ZNK9__gnu_cxx16__aligned_membufIiE6_M_ptrEv
	leave
	.cfi_def_cfa 7, 8
	ret
	.cfi_endproc
.LFE11325:
	.size	_ZNKSt13_Rb_tree_nodeIiE9_M_valptrEv, .-_ZNKSt13_Rb_tree_nodeIiE9_M_valptrEv
	.section	.text._ZSt7forwardIRPSt13_Rb_tree_nodeIiEEOT_RNSt16remove_referenceIS4_E4typeE,"axG",@progbits,_ZSt7forwardIRPSt13_Rb_tree_nodeIiEEOT_RNSt16remove_referenceIS4_E4typeE,comdat
	.weak	_ZSt7forwardIRPSt13_Rb_tree_nodeIiEEOT_RNSt16remove_referenceIS4_E4typeE
	.type	_ZSt7forwardIRPSt13_Rb_tree_nodeIiEEOT_RNSt16remove_referenceIS4_E4typeE, @function
_ZSt7forwardIRPSt13_Rb_tree_nodeIiEEOT_RNSt16remove_referenceIS4_E4typeE:
.LFB11326:
	.cfi_startproc
	endbr64
	push	rbp
	.cfi_def_cfa_offset 16
	.cfi_offset 6, -16
	mov	rbp, rsp
	.cfi_def_cfa_register 6
	mov	QWORD PTR -8[rbp], rdi
	mov	rax, QWORD PTR -8[rbp]
	pop	rbp
	.cfi_def_cfa 7, 8
	ret
	.cfi_endproc
.LFE11326:
	.size	_ZSt7forwardIRPSt13_Rb_tree_nodeIiEEOT_RNSt16remove_referenceIS4_E4typeE, .-_ZSt7forwardIRPSt13_Rb_tree_nodeIiEEOT_RNSt16remove_referenceIS4_E4typeE
	.section	.text._ZSt7forwardIRPSt18_Rb_tree_node_baseEOT_RNSt16remove_referenceIS3_E4typeE,"axG",@progbits,_ZSt7forwardIRPSt18_Rb_tree_node_baseEOT_RNSt16remove_referenceIS3_E4typeE,comdat
	.weak	_ZSt7forwardIRPSt18_Rb_tree_node_baseEOT_RNSt16remove_referenceIS3_E4typeE
	.type	_ZSt7forwardIRPSt18_Rb_tree_node_baseEOT_RNSt16remove_referenceIS3_E4typeE, @function
_ZSt7forwardIRPSt18_Rb_tree_node_baseEOT_RNSt16remove_referenceIS3_E4typeE:
.LFB11327:
	.cfi_startproc
	endbr64
	push	rbp
	.cfi_def_cfa_offset 16
	.cfi_offset 6, -16
	mov	rbp, rsp
	.cfi_def_cfa_register 6
	mov	QWORD PTR -8[rbp], rdi
	mov	rax, QWORD PTR -8[rbp]
	pop	rbp
	.cfi_def_cfa 7, 8
	ret
	.cfi_endproc
.LFE11327:
	.size	_ZSt7forwardIRPSt18_Rb_tree_node_baseEOT_RNSt16remove_referenceIS3_E4typeE, .-_ZSt7forwardIRPSt18_Rb_tree_node_baseEOT_RNSt16remove_referenceIS3_E4typeE
	.section	.text._ZNSt8_Rb_treeIiiSt9_IdentityIiESt7greaterIiESaIiEE14_M_create_nodeIJRKiEEEPSt13_Rb_tree_nodeIiEDpOT_,"axG",@progbits,_ZNSt8_Rb_treeIiiSt9_IdentityIiESt7greaterIiESaIiEE14_M_create_nodeIJRKiEEEPSt13_Rb_tree_nodeIiEDpOT_,comdat
	.align 2
	.weak	_ZNSt8_Rb_treeIiiSt9_IdentityIiESt7greaterIiESaIiEE14_M_create_nodeIJRKiEEEPSt13_Rb_tree_nodeIiEDpOT_
	.type	_ZNSt8_Rb_treeIiiSt9_IdentityIiESt7greaterIiESaIiEE14_M_create_nodeIJRKiEEEPSt13_Rb_tree_nodeIiEDpOT_, @function
_ZNSt8_Rb_treeIiiSt9_IdentityIiESt7greaterIiESaIiEE14_M_create_nodeIJRKiEEEPSt13_Rb_tree_nodeIiEDpOT_:
.LFB11328:
	.cfi_startproc
	endbr64
	push	rbp
	.cfi_def_cfa_offset 16
	.cfi_offset 6, -16
	mov	rbp, rsp
	.cfi_def_cfa_register 6
	sub	rsp, 32
	mov	QWORD PTR -24[rbp], rdi
	mov	QWORD PTR -32[rbp], rsi
	mov	rax, QWORD PTR -24[rbp]
	mov	rdi, rax
	call	_ZNSt8_Rb_treeIiiSt9_IdentityIiESt7greaterIiESaIiEE11_M_get_nodeEv
	mov	QWORD PTR -8[rbp], rax
	mov	rax, QWORD PTR -32[rbp]
	mov	rdi, rax
	call	_ZSt7forwardIRKiEOT_RNSt16remove_referenceIS2_E4typeE
	mov	rdx, rax
	mov	rcx, QWORD PTR -8[rbp]
	mov	rax, QWORD PTR -24[rbp]
	mov	rsi, rcx
	mov	rdi, rax
	call	_ZNSt8_Rb_treeIiiSt9_IdentityIiESt7greaterIiESaIiEE17_M_construct_nodeIJRKiEEEvPSt13_Rb_tree_nodeIiEDpOT_
	mov	rax, QWORD PTR -8[rbp]
	leave
	.cfi_def_cfa 7, 8
	ret
	.cfi_endproc
.LFE11328:
	.size	_ZNSt8_Rb_treeIiiSt9_IdentityIiESt7greaterIiESaIiEE14_M_create_nodeIJRKiEEEPSt13_Rb_tree_nodeIiEDpOT_, .-_ZNSt8_Rb_treeIiiSt9_IdentityIiESt7greaterIiESaIiEE14_M_create_nodeIJRKiEEEPSt13_Rb_tree_nodeIiEDpOT_
	.section	.text._ZN9__gnu_cxx16__aligned_membufIiE6_M_ptrEv,"axG",@progbits,_ZN9__gnu_cxx16__aligned_membufIiE6_M_ptrEv,comdat
	.align 2
	.weak	_ZN9__gnu_cxx16__aligned_membufIiE6_M_ptrEv
	.type	_ZN9__gnu_cxx16__aligned_membufIiE6_M_ptrEv, @function
_ZN9__gnu_cxx16__aligned_membufIiE6_M_ptrEv:
.LFB11434:
	.cfi_startproc
	endbr64
	push	rbp
	.cfi_def_cfa_offset 16
	.cfi_offset 6, -16
	mov	rbp, rsp
	.cfi_def_cfa_register 6
	sub	rsp, 16
	mov	QWORD PTR -8[rbp], rdi
	mov	rax, QWORD PTR -8[rbp]
	mov	rdi, rax
	call	_ZN9__gnu_cxx16__aligned_membufIiE7_M_addrEv
	leave
	.cfi_def_cfa 7, 8
	ret
	.cfi_endproc
.LFE11434:
	.size	_ZN9__gnu_cxx16__aligned_membufIiE6_M_ptrEv, .-_ZN9__gnu_cxx16__aligned_membufIiE6_M_ptrEv
	.section	.text._ZN9__gnu_cxx13new_allocatorISt13_Rb_tree_nodeIiEE7destroyIiEEvPT_,"axG",@progbits,_ZN9__gnu_cxx13new_allocatorISt13_Rb_tree_nodeIiEE7destroyIiEEvPT_,comdat
	.align 2
	.weak	_ZN9__gnu_cxx13new_allocatorISt13_Rb_tree_nodeIiEE7destroyIiEEvPT_
	.type	_ZN9__gnu_cxx13new_allocatorISt13_Rb_tree_nodeIiEE7destroyIiEEvPT_, @function
_ZN9__gnu_cxx13new_allocatorISt13_Rb_tree_nodeIiEE7destroyIiEEvPT_:
.LFB11435:
	.cfi_startproc
	endbr64
	push	rbp
	.cfi_def_cfa_offset 16
	.cfi_offset 6, -16
	mov	rbp, rsp
	.cfi_def_cfa_register 6
	mov	QWORD PTR -8[rbp], rdi
	mov	QWORD PTR -16[rbp], rsi
	nop
	pop	rbp
	.cfi_def_cfa 7, 8
	ret
	.cfi_endproc
.LFE11435:
	.size	_ZN9__gnu_cxx13new_allocatorISt13_Rb_tree_nodeIiEE7destroyIiEEvPT_, .-_ZN9__gnu_cxx13new_allocatorISt13_Rb_tree_nodeIiEE7destroyIiEEvPT_
	.section	.text._ZN9__gnu_cxx13new_allocatorISt13_Rb_tree_nodeIiEE10deallocateEPS2_m,"axG",@progbits,_ZN9__gnu_cxx13new_allocatorISt13_Rb_tree_nodeIiEE10deallocateEPS2_m,comdat
	.align 2
	.weak	_ZN9__gnu_cxx13new_allocatorISt13_Rb_tree_nodeIiEE10deallocateEPS2_m
	.type	_ZN9__gnu_cxx13new_allocatorISt13_Rb_tree_nodeIiEE10deallocateEPS2_m, @function
_ZN9__gnu_cxx13new_allocatorISt13_Rb_tree_nodeIiEE10deallocateEPS2_m:
.LFB11436:
	.cfi_startproc
	endbr64
	push	rbp
	.cfi_def_cfa_offset 16
	.cfi_offset 6, -16
	mov	rbp, rsp
	.cfi_def_cfa_register 6
	sub	rsp, 32
	mov	QWORD PTR -8[rbp], rdi
	mov	QWORD PTR -16[rbp], rsi
	mov	QWORD PTR -24[rbp], rdx
	mov	rdx, QWORD PTR -24[rbp]
	mov	rax, rdx
	sal	rax, 2
	add	rax, rdx
	sal	rax, 3
	mov	rdx, rax
	mov	rax, QWORD PTR -16[rbp]
	mov	rsi, rdx
	mov	rdi, rax
	call	_ZdlPvm@PLT
	leave
	.cfi_def_cfa 7, 8
	ret
	.cfi_endproc
.LFE11436:
	.size	_ZN9__gnu_cxx13new_allocatorISt13_Rb_tree_nodeIiEE10deallocateEPS2_m, .-_ZN9__gnu_cxx13new_allocatorISt13_Rb_tree_nodeIiEE10deallocateEPS2_m
	.section	.text._ZNK9__gnu_cxx16__aligned_membufIiE6_M_ptrEv,"axG",@progbits,_ZNK9__gnu_cxx16__aligned_membufIiE6_M_ptrEv,comdat
	.align 2
	.weak	_ZNK9__gnu_cxx16__aligned_membufIiE6_M_ptrEv
	.type	_ZNK9__gnu_cxx16__aligned_membufIiE6_M_ptrEv, @function
_ZNK9__gnu_cxx16__aligned_membufIiE6_M_ptrEv:
.LFB11437:
	.cfi_startproc
	endbr64
	push	rbp
	.cfi_def_cfa_offset 16
	.cfi_offset 6, -16
	mov	rbp, rsp
	.cfi_def_cfa_register 6
	sub	rsp, 16
	mov	QWORD PTR -8[rbp], rdi
	mov	rax, QWORD PTR -8[rbp]
	mov	rdi, rax
	call	_ZNK9__gnu_cxx16__aligned_membufIiE7_M_addrEv
	leave
	.cfi_def_cfa 7, 8
	ret
	.cfi_endproc
.LFE11437:
	.size	_ZNK9__gnu_cxx16__aligned_membufIiE6_M_ptrEv, .-_ZNK9__gnu_cxx16__aligned_membufIiE6_M_ptrEv
	.section	.text._ZNSt8_Rb_treeIiiSt9_IdentityIiESt7greaterIiESaIiEE11_M_get_nodeEv,"axG",@progbits,_ZNSt8_Rb_treeIiiSt9_IdentityIiESt7greaterIiESaIiEE11_M_get_nodeEv,comdat
	.align 2
	.weak	_ZNSt8_Rb_treeIiiSt9_IdentityIiESt7greaterIiESaIiEE11_M_get_nodeEv
	.type	_ZNSt8_Rb_treeIiiSt9_IdentityIiESt7greaterIiESaIiEE11_M_get_nodeEv, @function
_ZNSt8_Rb_treeIiiSt9_IdentityIiESt7greaterIiESaIiEE11_M_get_nodeEv:
.LFB11438:
	.cfi_startproc
	endbr64
	push	rbp
	.cfi_def_cfa_offset 16
	.cfi_offset 6, -16
	mov	rbp, rsp
	.cfi_def_cfa_register 6
	sub	rsp, 16
	mov	QWORD PTR -8[rbp], rdi
	mov	rax, QWORD PTR -8[rbp]
	mov	rdi, rax
	call	_ZNSt8_Rb_treeIiiSt9_IdentityIiESt7greaterIiESaIiEE21_M_get_Node_allocatorEv
	mov	esi, 1
	mov	rdi, rax
	call	_ZNSt16allocator_traitsISaISt13_Rb_tree_nodeIiEEE8allocateERS2_m
	leave
	.cfi_def_cfa 7, 8
	ret
	.cfi_endproc
.LFE11438:
	.size	_ZNSt8_Rb_treeIiiSt9_IdentityIiESt7greaterIiESaIiEE11_M_get_nodeEv, .-_ZNSt8_Rb_treeIiiSt9_IdentityIiESt7greaterIiESaIiEE11_M_get_nodeEv
	.section	.text._ZNSt8_Rb_treeIiiSt9_IdentityIiESt7greaterIiESaIiEE17_M_construct_nodeIJRKiEEEvPSt13_Rb_tree_nodeIiEDpOT_,"axG",@progbits,_ZNSt8_Rb_treeIiiSt9_IdentityIiESt7greaterIiESaIiEE17_M_construct_nodeIJRKiEEEvPSt13_Rb_tree_nodeIiEDpOT_,comdat
	.align 2
	.weak	_ZNSt8_Rb_treeIiiSt9_IdentityIiESt7greaterIiESaIiEE17_M_construct_nodeIJRKiEEEvPSt13_Rb_tree_nodeIiEDpOT_
	.type	_ZNSt8_Rb_treeIiiSt9_IdentityIiESt7greaterIiESaIiEE17_M_construct_nodeIJRKiEEEvPSt13_Rb_tree_nodeIiEDpOT_, @function
_ZNSt8_Rb_treeIiiSt9_IdentityIiESt7greaterIiESaIiEE17_M_construct_nodeIJRKiEEEvPSt13_Rb_tree_nodeIiEDpOT_:
.LFB11439:
	.cfi_startproc
	endbr64
	push	rbp
	.cfi_def_cfa_offset 16
	.cfi_offset 6, -16
	mov	rbp, rsp
	.cfi_def_cfa_register 6
	push	r12
	push	rbx
	sub	rsp, 32
	.cfi_offset 12, -24
	.cfi_offset 3, -32
	mov	QWORD PTR -24[rbp], rdi
	mov	QWORD PTR -32[rbp], rsi
	mov	QWORD PTR -40[rbp], rdx
	mov	rax, QWORD PTR -32[rbp]
	mov	rsi, rax
	mov	edi, 40
	call	_ZnwmPv
	mov	rax, QWORD PTR -40[rbp]
	mov	rdi, rax
	call	_ZSt7forwardIRKiEOT_RNSt16remove_referenceIS2_E4typeE
	mov	r12, rax
	mov	rax, QWORD PTR -32[rbp]
	mov	rdi, rax
	call	_ZNSt13_Rb_tree_nodeIiE9_M_valptrEv
	mov	rbx, rax
	mov	rax, QWORD PTR -24[rbp]
	mov	rdi, rax
	call	_ZNSt8_Rb_treeIiiSt9_IdentityIiESt7greaterIiESaIiEE21_M_get_Node_allocatorEv
	mov	rdx, r12
	mov	rsi, rbx
	mov	rdi, rax
	call	_ZNSt16allocator_traitsISaISt13_Rb_tree_nodeIiEEE9constructIiJRKiEEEvRS2_PT_DpOT0_
	nop
	add	rsp, 32
	pop	rbx
	pop	r12
	pop	rbp
	.cfi_def_cfa 7, 8
	ret
	.cfi_endproc
.LFE11439:
	.size	_ZNSt8_Rb_treeIiiSt9_IdentityIiESt7greaterIiESaIiEE17_M_construct_nodeIJRKiEEEvPSt13_Rb_tree_nodeIiEDpOT_, .-_ZNSt8_Rb_treeIiiSt9_IdentityIiESt7greaterIiESaIiEE17_M_construct_nodeIJRKiEEEvPSt13_Rb_tree_nodeIiEDpOT_
	.section	.text._ZN9__gnu_cxx16__aligned_membufIiE7_M_addrEv,"axG",@progbits,_ZN9__gnu_cxx16__aligned_membufIiE7_M_addrEv,comdat
	.align 2
	.weak	_ZN9__gnu_cxx16__aligned_membufIiE7_M_addrEv
	.type	_ZN9__gnu_cxx16__aligned_membufIiE7_M_addrEv, @function
_ZN9__gnu_cxx16__aligned_membufIiE7_M_addrEv:
.LFB11507:
	.cfi_startproc
	endbr64
	push	rbp
	.cfi_def_cfa_offset 16
	.cfi_offset 6, -16
	mov	rbp, rsp
	.cfi_def_cfa_register 6
	mov	QWORD PTR -8[rbp], rdi
	mov	rax, QWORD PTR -8[rbp]
	pop	rbp
	.cfi_def_cfa 7, 8
	ret
	.cfi_endproc
.LFE11507:
	.size	_ZN9__gnu_cxx16__aligned_membufIiE7_M_addrEv, .-_ZN9__gnu_cxx16__aligned_membufIiE7_M_addrEv
	.section	.text._ZNK9__gnu_cxx16__aligned_membufIiE7_M_addrEv,"axG",@progbits,_ZNK9__gnu_cxx16__aligned_membufIiE7_M_addrEv,comdat
	.align 2
	.weak	_ZNK9__gnu_cxx16__aligned_membufIiE7_M_addrEv
	.type	_ZNK9__gnu_cxx16__aligned_membufIiE7_M_addrEv, @function
_ZNK9__gnu_cxx16__aligned_membufIiE7_M_addrEv:
.LFB11508:
	.cfi_startproc
	endbr64
	push	rbp
	.cfi_def_cfa_offset 16
	.cfi_offset 6, -16
	mov	rbp, rsp
	.cfi_def_cfa_register 6
	mov	QWORD PTR -8[rbp], rdi
	mov	rax, QWORD PTR -8[rbp]
	pop	rbp
	.cfi_def_cfa 7, 8
	ret
	.cfi_endproc
.LFE11508:
	.size	_ZNK9__gnu_cxx16__aligned_membufIiE7_M_addrEv, .-_ZNK9__gnu_cxx16__aligned_membufIiE7_M_addrEv
	.section	.text._ZNSt16allocator_traitsISaISt13_Rb_tree_nodeIiEEE8allocateERS2_m,"axG",@progbits,_ZNSt16allocator_traitsISaISt13_Rb_tree_nodeIiEEE8allocateERS2_m,comdat
	.weak	_ZNSt16allocator_traitsISaISt13_Rb_tree_nodeIiEEE8allocateERS2_m
	.type	_ZNSt16allocator_traitsISaISt13_Rb_tree_nodeIiEEE8allocateERS2_m, @function
_ZNSt16allocator_traitsISaISt13_Rb_tree_nodeIiEEE8allocateERS2_m:
.LFB11509:
	.cfi_startproc
	endbr64
	push	rbp
	.cfi_def_cfa_offset 16
	.cfi_offset 6, -16
	mov	rbp, rsp
	.cfi_def_cfa_register 6
	sub	rsp, 16
	mov	QWORD PTR -8[rbp], rdi
	mov	QWORD PTR -16[rbp], rsi
	mov	rcx, QWORD PTR -16[rbp]
	mov	rax, QWORD PTR -8[rbp]
	mov	edx, 0
	mov	rsi, rcx
	mov	rdi, rax
	call	_ZN9__gnu_cxx13new_allocatorISt13_Rb_tree_nodeIiEE8allocateEmPKv
	leave
	.cfi_def_cfa 7, 8
	ret
	.cfi_endproc
.LFE11509:
	.size	_ZNSt16allocator_traitsISaISt13_Rb_tree_nodeIiEEE8allocateERS2_m, .-_ZNSt16allocator_traitsISaISt13_Rb_tree_nodeIiEEE8allocateERS2_m
	.section	.text._ZNSt16allocator_traitsISaISt13_Rb_tree_nodeIiEEE9constructIiJRKiEEEvRS2_PT_DpOT0_,"axG",@progbits,_ZNSt16allocator_traitsISaISt13_Rb_tree_nodeIiEEE9constructIiJRKiEEEvRS2_PT_DpOT0_,comdat
	.weak	_ZNSt16allocator_traitsISaISt13_Rb_tree_nodeIiEEE9constructIiJRKiEEEvRS2_PT_DpOT0_
	.type	_ZNSt16allocator_traitsISaISt13_Rb_tree_nodeIiEEE9constructIiJRKiEEEvRS2_PT_DpOT0_, @function
_ZNSt16allocator_traitsISaISt13_Rb_tree_nodeIiEEE9constructIiJRKiEEEvRS2_PT_DpOT0_:
.LFB11510:
	.cfi_startproc
	endbr64
	push	rbp
	.cfi_def_cfa_offset 16
	.cfi_offset 6, -16
	mov	rbp, rsp
	.cfi_def_cfa_register 6
	sub	rsp, 32
	mov	QWORD PTR -8[rbp], rdi
	mov	QWORD PTR -16[rbp], rsi
	mov	QWORD PTR -24[rbp], rdx
	mov	rax, QWORD PTR -24[rbp]
	mov	rdi, rax
	call	_ZSt7forwardIRKiEOT_RNSt16remove_referenceIS2_E4typeE
	mov	rdx, rax
	mov	rcx, QWORD PTR -16[rbp]
	mov	rax, QWORD PTR -8[rbp]
	mov	rsi, rcx
	mov	rdi, rax
	call	_ZN9__gnu_cxx13new_allocatorISt13_Rb_tree_nodeIiEE9constructIiJRKiEEEvPT_DpOT0_
	nop
	leave
	.cfi_def_cfa 7, 8
	ret
	.cfi_endproc
.LFE11510:
	.size	_ZNSt16allocator_traitsISaISt13_Rb_tree_nodeIiEEE9constructIiJRKiEEEvRS2_PT_DpOT0_, .-_ZNSt16allocator_traitsISaISt13_Rb_tree_nodeIiEEE9constructIiJRKiEEEvRS2_PT_DpOT0_
	.section	.text._ZNK9__gnu_cxx13new_allocatorISt13_Rb_tree_nodeIiEE11_M_max_sizeEv,"axG",@progbits,_ZNK9__gnu_cxx13new_allocatorISt13_Rb_tree_nodeIiEE11_M_max_sizeEv,comdat
	.align 2
	.weak	_ZNK9__gnu_cxx13new_allocatorISt13_Rb_tree_nodeIiEE11_M_max_sizeEv
	.type	_ZNK9__gnu_cxx13new_allocatorISt13_Rb_tree_nodeIiEE11_M_max_sizeEv, @function
_ZNK9__gnu_cxx13new_allocatorISt13_Rb_tree_nodeIiEE11_M_max_sizeEv:
.LFB11541:
	.cfi_startproc
	endbr64
	push	rbp
	.cfi_def_cfa_offset 16
	.cfi_offset 6, -16
	mov	rbp, rsp
	.cfi_def_cfa_register 6
	mov	QWORD PTR -8[rbp], rdi
	movabs	rax, 230584300921369395
	pop	rbp
	.cfi_def_cfa 7, 8
	ret
	.cfi_endproc
.LFE11541:
	.size	_ZNK9__gnu_cxx13new_allocatorISt13_Rb_tree_nodeIiEE11_M_max_sizeEv, .-_ZNK9__gnu_cxx13new_allocatorISt13_Rb_tree_nodeIiEE11_M_max_sizeEv
	.section	.text._ZN9__gnu_cxx13new_allocatorISt13_Rb_tree_nodeIiEE8allocateEmPKv,"axG",@progbits,_ZN9__gnu_cxx13new_allocatorISt13_Rb_tree_nodeIiEE8allocateEmPKv,comdat
	.align 2
	.weak	_ZN9__gnu_cxx13new_allocatorISt13_Rb_tree_nodeIiEE8allocateEmPKv
	.type	_ZN9__gnu_cxx13new_allocatorISt13_Rb_tree_nodeIiEE8allocateEmPKv, @function
_ZN9__gnu_cxx13new_allocatorISt13_Rb_tree_nodeIiEE8allocateEmPKv:
.LFB11540:
	.cfi_startproc
	endbr64
	push	rbp
	.cfi_def_cfa_offset 16
	.cfi_offset 6, -16
	mov	rbp, rsp
	.cfi_def_cfa_register 6
	sub	rsp, 32
	mov	QWORD PTR -8[rbp], rdi
	mov	QWORD PTR -16[rbp], rsi
	mov	QWORD PTR -24[rbp], rdx
	mov	rax, QWORD PTR -8[rbp]
	mov	rdi, rax
	call	_ZNK9__gnu_cxx13new_allocatorISt13_Rb_tree_nodeIiEE11_M_max_sizeEv
	cmp	QWORD PTR -16[rbp], rax
	seta	al
	movzx	eax, al
	test	rax, rax
	setne	al
	test	al, al
	je	.L140
	movabs	rax, 461168601842738790
	cmp	QWORD PTR -16[rbp], rax
	jbe	.L141
	call	_ZSt28__throw_bad_array_new_lengthv@PLT
.L141:
	call	_ZSt17__throw_bad_allocv@PLT
.L140:
	mov	rdx, QWORD PTR -16[rbp]
	mov	rax, rdx
	sal	rax, 2
	add	rax, rdx
	sal	rax, 3
	mov	rdi, rax
	call	_Znwm@PLT
	nop
	leave
	.cfi_def_cfa 7, 8
	ret
	.cfi_endproc
.LFE11540:
	.size	_ZN9__gnu_cxx13new_allocatorISt13_Rb_tree_nodeIiEE8allocateEmPKv, .-_ZN9__gnu_cxx13new_allocatorISt13_Rb_tree_nodeIiEE8allocateEmPKv
	.section	.text._ZN9__gnu_cxx13new_allocatorISt13_Rb_tree_nodeIiEE9constructIiJRKiEEEvPT_DpOT0_,"axG",@progbits,_ZN9__gnu_cxx13new_allocatorISt13_Rb_tree_nodeIiEE9constructIiJRKiEEEvPT_DpOT0_,comdat
	.align 2
	.weak	_ZN9__gnu_cxx13new_allocatorISt13_Rb_tree_nodeIiEE9constructIiJRKiEEEvPT_DpOT0_
	.type	_ZN9__gnu_cxx13new_allocatorISt13_Rb_tree_nodeIiEE9constructIiJRKiEEEvPT_DpOT0_, @function
_ZN9__gnu_cxx13new_allocatorISt13_Rb_tree_nodeIiEE9constructIiJRKiEEEvPT_DpOT0_:
.LFB11542:
	.cfi_startproc
	endbr64
	push	rbp
	.cfi_def_cfa_offset 16
	.cfi_offset 6, -16
	mov	rbp, rsp
	.cfi_def_cfa_register 6
	push	rbx
	sub	rsp, 40
	.cfi_offset 3, -24
	mov	QWORD PTR -24[rbp], rdi
	mov	QWORD PTR -32[rbp], rsi
	mov	QWORD PTR -40[rbp], rdx
	mov	rax, QWORD PTR -40[rbp]
	mov	rdi, rax
	call	_ZSt7forwardIRKiEOT_RNSt16remove_referenceIS2_E4typeE
	mov	ebx, DWORD PTR [rax]
	mov	rax, QWORD PTR -32[rbp]
	mov	rsi, rax
	mov	edi, 4
	call	_ZnwmPv
	mov	DWORD PTR [rax], ebx
	nop
	mov	rbx, QWORD PTR -8[rbp]
	leave
	.cfi_def_cfa 7, 8
	ret
	.cfi_endproc
.LFE11542:
	.size	_ZN9__gnu_cxx13new_allocatorISt13_Rb_tree_nodeIiEE9constructIiJRKiEEEvPT_DpOT0_, .-_ZN9__gnu_cxx13new_allocatorISt13_Rb_tree_nodeIiEE9constructIiJRKiEEEvPT_DpOT0_
	.text
	.type	_Z41__static_initialization_and_destruction_0ii, @function
_Z41__static_initialization_and_destruction_0ii:
.LFB11595:
	.cfi_startproc
	endbr64
	push	rbp
	.cfi_def_cfa_offset 16
	.cfi_offset 6, -16
	mov	rbp, rsp
	.cfi_def_cfa_register 6
	sub	rsp, 16
	mov	DWORD PTR -4[rbp], edi
	mov	DWORD PTR -8[rbp], esi
	cmp	DWORD PTR -4[rbp], 1
	jne	.L146
	cmp	DWORD PTR -8[rbp], 65535
	jne	.L146
	lea	rax, _ZStL8__ioinit[rip]
	mov	rdi, rax
	call	_ZNSt8ios_base4InitC1Ev@PLT
	lea	rax, __dso_handle[rip]
	mov	rdx, rax
	lea	rax, _ZStL8__ioinit[rip]
	mov	rsi, rax
	mov	rax, QWORD PTR _ZNSt8ios_base4InitD1Ev@GOTPCREL[rip]
	mov	rdi, rax
	call	__cxa_atexit@PLT
.L146:
	nop
	leave
	.cfi_def_cfa 7, 8
	ret
	.cfi_endproc
.LFE11595:
	.size	_Z41__static_initialization_and_destruction_0ii, .-_Z41__static_initialization_and_destruction_0ii
	.type	_GLOBAL__sub_I_main, @function
_GLOBAL__sub_I_main:
.LFB11618:
	.cfi_startproc
	endbr64
	push	rbp
	.cfi_def_cfa_offset 16
	.cfi_offset 6, -16
	mov	rbp, rsp
	.cfi_def_cfa_register 6
	mov	esi, 65535
	mov	edi, 1
	call	_Z41__static_initialization_and_destruction_0ii
	pop	rbp
	.cfi_def_cfa 7, 8
	ret
	.cfi_endproc
.LFE11618:
	.size	_GLOBAL__sub_I_main, .-_GLOBAL__sub_I_main
	.section	.init_array,"aw"
	.align 8
	.quad	_GLOBAL__sub_I_main
	.hidden	DW.ref.__gxx_personality_v0
	.weak	DW.ref.__gxx_personality_v0
	.section	.data.rel.local.DW.ref.__gxx_personality_v0,"awG",@progbits,DW.ref.__gxx_personality_v0,comdat
	.align 8
	.type	DW.ref.__gxx_personality_v0, @object
	.size	DW.ref.__gxx_personality_v0, 8
DW.ref.__gxx_personality_v0:
	.quad	__gxx_personality_v0
	.hidden	__dso_handle
	.ident	"GCC: (Ubuntu 11.4.0-1ubuntu1~22.04.2) 11.4.0"
	.section	.note.GNU-stack,"",@progbits
	.section	.note.gnu.property,"a"
	.align 8
	.long	1f - 0f
	.long	4f - 1f
	.long	5
0:
	.string	"GNU"
1:
	.align 8
	.long	0xc0000002
	.long	3f - 2f
2:
	.long	0x3
3:
	.align 8
4:
