	.file	"1593B.cpp"
	.intel_syntax noprefix
	.text
	.section	.text._ZN9__gnu_cxx5__ops16__iter_less_iterEv,"axG",@progbits,_ZN9__gnu_cxx5__ops16__iter_less_iterEv,comdat
	.weak	_ZN9__gnu_cxx5__ops16__iter_less_iterEv
	.type	_ZN9__gnu_cxx5__ops16__iter_less_iterEv, @function
_ZN9__gnu_cxx5__ops16__iter_less_iterEv:
.LFB447:
	.cfi_startproc
	endbr64
	push	rbp
	.cfi_def_cfa_offset 16
	.cfi_offset 6, -16
	mov	rbp, rsp
	.cfi_def_cfa_register 6
	nop
	pop	rbp
	.cfi_def_cfa 7, 8
	ret
	.cfi_endproc
.LFE447:
	.size	_ZN9__gnu_cxx5__ops16__iter_less_iterEv, .-_ZN9__gnu_cxx5__ops16__iter_less_iterEv
	.section	.text._ZNSt11char_traitsIcE6lengthEPKc,"axG",@progbits,_ZNSt11char_traitsIcE6lengthEPKc,comdat
	.weak	_ZNSt11char_traitsIcE6lengthEPKc
	.type	_ZNSt11char_traitsIcE6lengthEPKc, @function
_ZNSt11char_traitsIcE6lengthEPKc:
.LFB1070:
	.cfi_startproc
	endbr64
	push	rbp
	.cfi_def_cfa_offset 16
	.cfi_offset 6, -16
	mov	rbp, rsp
	.cfi_def_cfa_register 6
	sub	rsp, 32
	mov	QWORD PTR -24[rbp], rdi
	mov	rax, QWORD PTR -24[rbp]
	mov	QWORD PTR -8[rbp], rax
	mov	eax, 0
	test	al, al
	je	.L5
	mov	rax, QWORD PTR -24[rbp]
	mov	rdi, rax
	call	_ZN9__gnu_cxx11char_traitsIcE6lengthEPKc
	jmp	.L6
.L5:
	mov	rax, QWORD PTR -24[rbp]
	mov	rdi, rax
	call	strlen@PLT
	nop
.L6:
	leave
	.cfi_def_cfa 7, 8
	ret
	.cfi_endproc
.LFE1070:
	.size	_ZNSt11char_traitsIcE6lengthEPKc, .-_ZNSt11char_traitsIcE6lengthEPKc
	.section	.rodata
	.type	_ZN6__pstl9execution2v1L3seqE, @object
	.size	_ZN6__pstl9execution2v1L3seqE, 1
_ZN6__pstl9execution2v1L3seqE:
	.zero	1
	.type	_ZN6__pstl9execution2v1L3parE, @object
	.size	_ZN6__pstl9execution2v1L3parE, 1
_ZN6__pstl9execution2v1L3parE:
	.zero	1
	.type	_ZN6__pstl9execution2v1L9par_unseqE, @object
	.size	_ZN6__pstl9execution2v1L9par_unseqE, 1
_ZN6__pstl9execution2v1L9par_unseqE:
	.zero	1
	.type	_ZN6__pstl9execution2v1L5unseqE, @object
	.size	_ZN6__pstl9execution2v1L5unseqE, 1
_ZN6__pstl9execution2v1L5unseqE:
	.zero	1
	.local	_ZStL8__ioinit
	.comm	_ZStL8__ioinit,1,1
	.align 4
	.type	_ZN9__gnu_cxxL21__default_lock_policyE, @object
	.size	_ZN9__gnu_cxxL21__default_lock_policyE, 4
_ZN9__gnu_cxxL21__default_lock_policyE:
	.long	2
	.align 4
	.type	_ZNSt15regex_constantsL13error_collateE, @object
	.size	_ZNSt15regex_constantsL13error_collateE, 4
_ZNSt15regex_constantsL13error_collateE:
	.zero	4
	.align 4
	.type	_ZNSt15regex_constantsL11error_ctypeE, @object
	.size	_ZNSt15regex_constantsL11error_ctypeE, 4
_ZNSt15regex_constantsL11error_ctypeE:
	.long	1
	.align 4
	.type	_ZNSt15regex_constantsL12error_escapeE, @object
	.size	_ZNSt15regex_constantsL12error_escapeE, 4
_ZNSt15regex_constantsL12error_escapeE:
	.long	2
	.align 4
	.type	_ZNSt15regex_constantsL13error_backrefE, @object
	.size	_ZNSt15regex_constantsL13error_backrefE, 4
_ZNSt15regex_constantsL13error_backrefE:
	.long	3
	.align 4
	.type	_ZNSt15regex_constantsL11error_brackE, @object
	.size	_ZNSt15regex_constantsL11error_brackE, 4
_ZNSt15regex_constantsL11error_brackE:
	.long	4
	.align 4
	.type	_ZNSt15regex_constantsL11error_parenE, @object
	.size	_ZNSt15regex_constantsL11error_parenE, 4
_ZNSt15regex_constantsL11error_parenE:
	.long	5
	.align 4
	.type	_ZNSt15regex_constantsL11error_braceE, @object
	.size	_ZNSt15regex_constantsL11error_braceE, 4
_ZNSt15regex_constantsL11error_braceE:
	.long	6
	.align 4
	.type	_ZNSt15regex_constantsL14error_badbraceE, @object
	.size	_ZNSt15regex_constantsL14error_badbraceE, 4
_ZNSt15regex_constantsL14error_badbraceE:
	.long	7
	.align 4
	.type	_ZNSt15regex_constantsL11error_rangeE, @object
	.size	_ZNSt15regex_constantsL11error_rangeE, 4
_ZNSt15regex_constantsL11error_rangeE:
	.long	8
	.align 4
	.type	_ZNSt15regex_constantsL11error_spaceE, @object
	.size	_ZNSt15regex_constantsL11error_spaceE, 4
_ZNSt15regex_constantsL11error_spaceE:
	.long	9
	.align 4
	.type	_ZNSt15regex_constantsL15error_badrepeatE, @object
	.size	_ZNSt15regex_constantsL15error_badrepeatE, 4
_ZNSt15regex_constantsL15error_badrepeatE:
	.long	10
	.align 4
	.type	_ZNSt15regex_constantsL16error_complexityE, @object
	.size	_ZNSt15regex_constantsL16error_complexityE, 4
_ZNSt15regex_constantsL16error_complexityE:
	.long	11
	.align 4
	.type	_ZNSt15regex_constantsL11error_stackE, @object
	.size	_ZNSt15regex_constantsL11error_stackE, 4
_ZNSt15regex_constantsL11error_stackE:
	.long	12
	.align 8
	.type	_ZNSt8__detailL19_S_invalid_state_idE, @object
	.size	_ZNSt8__detailL19_S_invalid_state_idE, 8
_ZNSt8__detailL19_S_invalid_state_idE:
	.quad	-1
	.align 8
	.type	_ZL3INF, @object
	.size	_ZL3INF, 8
_ZL3INF:
	.quad	2000000000000000000
	.text
	.globl	_Z8totcountNSt7__cxx1112basic_stringIcSt11char_traitsIcESaIcEEES4_
	.type	_Z8totcountNSt7__cxx1112basic_stringIcSt11char_traitsIcESaIcEEES4_, @function
_Z8totcountNSt7__cxx1112basic_stringIcSt11char_traitsIcESaIcEEES4_:
.LFB9704:
	.cfi_startproc
	endbr64
	push	rbp
	.cfi_def_cfa_offset 16
	.cfi_offset 6, -16
	mov	rbp, rsp
	.cfi_def_cfa_register 6
	push	rbx
	sub	rsp, 40
	.cfi_offset 3, -24
	mov	QWORD PTR -40[rbp], rdi
	mov	QWORD PTR -48[rbp], rsi
	mov	DWORD PTR -24[rbp], 0
	mov	rax, QWORD PTR -40[rbp]
	mov	rdi, rax
	call	_ZNKSt7__cxx1112basic_stringIcSt11char_traitsIcESaIcEE6lengthEv@PLT
	mov	DWORD PTR -20[rbp], eax
	jmp	.L8
.L13:
	mov	rax, QWORD PTR -40[rbp]
	mov	rdi, rax
	call	_ZNSt7__cxx1112basic_stringIcSt11char_traitsIcESaIcEE4backEv@PLT
	movzx	ebx, BYTE PTR [rax]
	mov	rax, QWORD PTR -48[rbp]
	mov	rdi, rax
	call	_ZNSt7__cxx1112basic_stringIcSt11char_traitsIcESaIcEE4backEv@PLT
	movzx	eax, BYTE PTR [rax]
	cmp	bl, al
	sete	al
	test	al, al
	je	.L9
	mov	rax, QWORD PTR -48[rbp]
	mov	rdi, rax
	call	_ZNSt7__cxx1112basic_stringIcSt11char_traitsIcESaIcEE8pop_backEv@PLT
	jmp	.L10
.L9:
	add	DWORD PTR -24[rbp], 1
.L10:
	mov	rax, QWORD PTR -40[rbp]
	mov	rdi, rax
	call	_ZNSt7__cxx1112basic_stringIcSt11char_traitsIcESaIcEE8pop_backEv@PLT
.L8:
	mov	rax, QWORD PTR -40[rbp]
	mov	rdi, rax
	call	_ZNKSt7__cxx1112basic_stringIcSt11char_traitsIcESaIcEE6lengthEv@PLT
	test	rax, rax
	je	.L11
	mov	rax, QWORD PTR -48[rbp]
	mov	rdi, rax
	call	_ZNKSt7__cxx1112basic_stringIcSt11char_traitsIcESaIcEE6lengthEv@PLT
	test	rax, rax
	je	.L11
	mov	eax, 1
	jmp	.L12
.L11:
	mov	eax, 0
.L12:
	test	al, al
	jne	.L13
	mov	rax, QWORD PTR -48[rbp]
	mov	rdi, rax
	call	_ZNKSt7__cxx1112basic_stringIcSt11char_traitsIcESaIcEE6lengthEv@PLT
	test	rax, rax
	sete	al
	test	al, al
	je	.L14
	mov	eax, DWORD PTR -24[rbp]
	jmp	.L15
.L14:
	mov	eax, DWORD PTR -20[rbp]
.L15:
	mov	rbx, QWORD PTR -8[rbp]
	leave
	.cfi_def_cfa 7, 8
	ret
	.cfi_endproc
.LFE9704:
	.size	_Z8totcountNSt7__cxx1112basic_stringIcSt11char_traitsIcESaIcEEES4_, .-_Z8totcountNSt7__cxx1112basic_stringIcSt11char_traitsIcESaIcEEES4_
	.section	.rodata
.LC0:
	.string	"00"
.LC1:
	.string	"25"
.LC2:
	.string	"50"
.LC3:
	.string	"75"
	.text
	.globl	main
	.type	main, @function
main:
.LFB9705:
	.cfi_startproc
	.cfi_personality 0x9b,DW.ref.__gxx_personality_v0
	.cfi_lsda 0x1b,.LLSDA9705
	endbr64
	push	rbp
	.cfi_def_cfa_offset 16
	.cfi_offset 6, -16
	mov	rbp, rsp
	.cfi_def_cfa_register 6
	push	r13
	push	r12
	push	rbx
	sub	rsp, 344
	.cfi_offset 13, -24
	.cfi_offset 12, -32
	.cfi_offset 3, -40
	mov	rax, QWORD PTR fs:40
	mov	QWORD PTR -40[rbp], rax
	xor	eax, eax
	mov	edi, 0
.LEHB0:
	call	_ZNSt8ios_base15sync_with_stdioEb@PLT
	mov	esi, 0
	lea	rax, _ZSt3cin[rip+16]
	mov	rdi, rax
	call	_ZNSt9basic_iosIcSt11char_traitsIcEE3tieEPSo@PLT
	lea	rax, -356[rbp]
	mov	rsi, rax
	lea	rax, _ZSt3cin[rip]
	mov	rdi, rax
	call	_ZNSirsERi@PLT
.LEHE0:
	jmp	.L17
.L20:
	lea	rax, -336[rbp]
	mov	rdi, rax
	call	_ZNSt7__cxx1112basic_stringIcSt11char_traitsIcESaIcEEC1Ev@PLT
	lea	rax, -336[rbp]
	mov	rsi, rax
	lea	rax, _ZSt3cin[rip]
	mov	rdi, rax
.LEHB1:
	call	_ZStrsIcSt11char_traitsIcESaIcEERSt13basic_istreamIT_T0_ES7_RNSt7__cxx1112basic_stringIS4_S5_T1_EE@PLT
	lea	rax, -336[rbp]
	mov	rdi, rax
	call	_ZNKSt7__cxx1112basic_stringIcSt11char_traitsIcESaIcEE6lengthEv@PLT
	cmp	rax, 1
	setbe	al
	test	al, al
	je	.L18
	lea	rax, -336[rbp]
	mov	rdi, rax
	call	_ZNKSt7__cxx1112basic_stringIcSt11char_traitsIcESaIcEE6lengthEv@PLT
	mov	rsi, rax
	lea	rax, _ZSt4cout[rip]
	mov	rdi, rax
	call	_ZNSolsEm@PLT
	mov	esi, 10
	mov	rdi, rax
	call	_ZStlsISt11char_traitsIcEERSt13basic_ostreamIcT_ES5_c@PLT
.LEHE1:
	jmp	.L19
.L18:
	lea	rax, -360[rbp]
	mov	rdi, rax
	call	_ZNSaIcEC1Ev@PLT
	lea	rdx, -360[rbp]
	lea	rax, -272[rbp]
	lea	rcx, .LC0[rip]
	mov	rsi, rcx
	mov	rdi, rax
.LEHB2:
	call	_ZNSt7__cxx1112basic_stringIcSt11char_traitsIcESaIcEEC1IS3_EEPKcRKS3_
.LEHE2:
	lea	rdx, -336[rbp]
	lea	rax, -304[rbp]
	mov	rsi, rdx
	mov	rdi, rax
.LEHB3:
	call	_ZNSt7__cxx1112basic_stringIcSt11char_traitsIcESaIcEEC1ERKS4_@PLT
.LEHE3:
	lea	rdx, -272[rbp]
	lea	rax, -304[rbp]
	mov	rsi, rdx
	mov	rdi, rax
	call	_Z8totcountNSt7__cxx1112basic_stringIcSt11char_traitsIcESaIcEEES4_
	mov	DWORD PTR -352[rbp], eax
	lea	rax, -359[rbp]
	mov	rdi, rax
	call	_ZNSaIcEC1Ev@PLT
	lea	rdx, -359[rbp]
	lea	rax, -208[rbp]
	lea	rcx, .LC1[rip]
	mov	rsi, rcx
	mov	rdi, rax
.LEHB4:
	call	_ZNSt7__cxx1112basic_stringIcSt11char_traitsIcESaIcEEC1IS3_EEPKcRKS3_
.LEHE4:
	lea	rdx, -336[rbp]
	lea	rax, -240[rbp]
	mov	rsi, rdx
	mov	rdi, rax
.LEHB5:
	call	_ZNSt7__cxx1112basic_stringIcSt11char_traitsIcESaIcEEC1ERKS4_@PLT
.LEHE5:
	lea	rdx, -208[rbp]
	lea	rax, -240[rbp]
	mov	rsi, rdx
	mov	rdi, rax
	call	_Z8totcountNSt7__cxx1112basic_stringIcSt11char_traitsIcESaIcEEES4_
	mov	DWORD PTR -348[rbp], eax
	lea	rax, -358[rbp]
	mov	rdi, rax
	call	_ZNSaIcEC1Ev@PLT
	lea	rdx, -358[rbp]
	lea	rax, -144[rbp]
	lea	rcx, .LC2[rip]
	mov	rsi, rcx
	mov	rdi, rax
.LEHB6:
	call	_ZNSt7__cxx1112basic_stringIcSt11char_traitsIcESaIcEEC1IS3_EEPKcRKS3_
.LEHE6:
	lea	rdx, -336[rbp]
	lea	rax, -176[rbp]
	mov	rsi, rdx
	mov	rdi, rax
.LEHB7:
	call	_ZNSt7__cxx1112basic_stringIcSt11char_traitsIcESaIcEEC1ERKS4_@PLT
.LEHE7:
	lea	rdx, -144[rbp]
	lea	rax, -176[rbp]
	mov	rsi, rdx
	mov	rdi, rax
	call	_Z8totcountNSt7__cxx1112basic_stringIcSt11char_traitsIcESaIcEEES4_
	mov	DWORD PTR -344[rbp], eax
	lea	rax, -357[rbp]
	mov	rdi, rax
	call	_ZNSaIcEC1Ev@PLT
	lea	rdx, -357[rbp]
	lea	rax, -80[rbp]
	lea	rcx, .LC3[rip]
	mov	rsi, rcx
	mov	rdi, rax
.LEHB8:
	call	_ZNSt7__cxx1112basic_stringIcSt11char_traitsIcESaIcEEC1IS3_EEPKcRKS3_
.LEHE8:
	lea	rdx, -336[rbp]
	lea	rax, -112[rbp]
	mov	rsi, rdx
	mov	rdi, rax
.LEHB9:
	call	_ZNSt7__cxx1112basic_stringIcSt11char_traitsIcESaIcEEC1ERKS4_@PLT
.LEHE9:
	lea	rdx, -80[rbp]
	lea	rax, -112[rbp]
	mov	rsi, rdx
	mov	rdi, rax
	call	_Z8totcountNSt7__cxx1112basic_stringIcSt11char_traitsIcESaIcEEES4_
	mov	DWORD PTR -340[rbp], eax
	lea	rax, -352[rbp]
	mov	r12, rax
	mov	r13d, 4
	mov	rcx, r12
	mov	rbx, r13
	mov	rax, r12
	mov	rdx, r13
	mov	rax, rdx
	mov	rdi, rcx
	mov	rsi, rax
.LEHB10:
	call	_ZSt3minIiET_St16initializer_listIS0_E
	mov	esi, eax
	lea	rax, _ZSt4cout[rip]
	mov	rdi, rax
	call	_ZNSolsEi@PLT
	mov	esi, 10
	mov	rdi, rax
	call	_ZStlsISt11char_traitsIcEERSt13basic_ostreamIcT_ES5_c@PLT
.LEHE10:
	lea	rax, -112[rbp]
	mov	rdi, rax
	call	_ZNSt7__cxx1112basic_stringIcSt11char_traitsIcESaIcEED1Ev@PLT
	lea	rax, -80[rbp]
	mov	rdi, rax
	call	_ZNSt7__cxx1112basic_stringIcSt11char_traitsIcESaIcEED1Ev@PLT
	lea	rax, -357[rbp]
	mov	rdi, rax
	call	_ZNSaIcED1Ev@PLT
	lea	rax, -176[rbp]
	mov	rdi, rax
	call	_ZNSt7__cxx1112basic_stringIcSt11char_traitsIcESaIcEED1Ev@PLT
	lea	rax, -144[rbp]
	mov	rdi, rax
	call	_ZNSt7__cxx1112basic_stringIcSt11char_traitsIcESaIcEED1Ev@PLT
	lea	rax, -358[rbp]
	mov	rdi, rax
	call	_ZNSaIcED1Ev@PLT
	lea	rax, -240[rbp]
	mov	rdi, rax
	call	_ZNSt7__cxx1112basic_stringIcSt11char_traitsIcESaIcEED1Ev@PLT
	lea	rax, -208[rbp]
	mov	rdi, rax
	call	_ZNSt7__cxx1112basic_stringIcSt11char_traitsIcESaIcEED1Ev@PLT
	lea	rax, -359[rbp]
	mov	rdi, rax
	call	_ZNSaIcED1Ev@PLT
	lea	rax, -304[rbp]
	mov	rdi, rax
	call	_ZNSt7__cxx1112basic_stringIcSt11char_traitsIcESaIcEED1Ev@PLT
	lea	rax, -272[rbp]
	mov	rdi, rax
	call	_ZNSt7__cxx1112basic_stringIcSt11char_traitsIcESaIcEED1Ev@PLT
	lea	rax, -360[rbp]
	mov	rdi, rax
	call	_ZNSaIcED1Ev@PLT
.L19:
	lea	rax, -336[rbp]
	mov	rdi, rax
	call	_ZNSt7__cxx1112basic_stringIcSt11char_traitsIcESaIcEED1Ev@PLT
.L17:
	mov	eax, DWORD PTR -356[rbp]
	lea	edx, -1[rax]
	mov	DWORD PTR -356[rbp], edx
	test	eax, eax
	setne	al
	test	al, al
	jne	.L20
	mov	eax, 0
	mov	rdx, QWORD PTR -40[rbp]
	sub	rdx, QWORD PTR fs:40
	je	.L32
	jmp	.L43
.L42:
	endbr64
	mov	rbx, rax
	lea	rax, -112[rbp]
	mov	rdi, rax
	call	_ZNSt7__cxx1112basic_stringIcSt11char_traitsIcESaIcEED1Ev@PLT
	jmp	.L23
.L41:
	endbr64
	mov	rbx, rax
.L23:
	lea	rax, -80[rbp]
	mov	rdi, rax
	call	_ZNSt7__cxx1112basic_stringIcSt11char_traitsIcESaIcEED1Ev@PLT
	jmp	.L24
.L40:
	endbr64
	mov	rbx, rax
.L24:
	lea	rax, -357[rbp]
	mov	rdi, rax
	call	_ZNSaIcED1Ev@PLT
	lea	rax, -176[rbp]
	mov	rdi, rax
	call	_ZNSt7__cxx1112basic_stringIcSt11char_traitsIcESaIcEED1Ev@PLT
	jmp	.L25
.L39:
	endbr64
	mov	rbx, rax
.L25:
	lea	rax, -144[rbp]
	mov	rdi, rax
	call	_ZNSt7__cxx1112basic_stringIcSt11char_traitsIcESaIcEED1Ev@PLT
	jmp	.L26
.L38:
	endbr64
	mov	rbx, rax
.L26:
	lea	rax, -358[rbp]
	mov	rdi, rax
	call	_ZNSaIcED1Ev@PLT
	lea	rax, -240[rbp]
	mov	rdi, rax
	call	_ZNSt7__cxx1112basic_stringIcSt11char_traitsIcESaIcEED1Ev@PLT
	jmp	.L27
.L37:
	endbr64
	mov	rbx, rax
.L27:
	lea	rax, -208[rbp]
	mov	rdi, rax
	call	_ZNSt7__cxx1112basic_stringIcSt11char_traitsIcESaIcEED1Ev@PLT
	jmp	.L28
.L36:
	endbr64
	mov	rbx, rax
.L28:
	lea	rax, -359[rbp]
	mov	rdi, rax
	call	_ZNSaIcED1Ev@PLT
	lea	rax, -304[rbp]
	mov	rdi, rax
	call	_ZNSt7__cxx1112basic_stringIcSt11char_traitsIcESaIcEED1Ev@PLT
	jmp	.L29
.L35:
	endbr64
	mov	rbx, rax
.L29:
	lea	rax, -272[rbp]
	mov	rdi, rax
	call	_ZNSt7__cxx1112basic_stringIcSt11char_traitsIcESaIcEED1Ev@PLT
	jmp	.L30
.L34:
	endbr64
	mov	rbx, rax
.L30:
	lea	rax, -360[rbp]
	mov	rdi, rax
	call	_ZNSaIcED1Ev@PLT
	jmp	.L31
.L33:
	endbr64
	mov	rbx, rax
.L31:
	lea	rax, -336[rbp]
	mov	rdi, rax
	call	_ZNSt7__cxx1112basic_stringIcSt11char_traitsIcESaIcEED1Ev@PLT
	mov	rax, rbx
	mov	rdi, rax
.LEHB11:
	call	_Unwind_Resume@PLT
.LEHE11:
.L43:
	call	__stack_chk_fail@PLT
.L32:
	add	rsp, 344
	pop	rbx
	pop	r12
	pop	r13
	pop	rbp
	.cfi_def_cfa 7, 8
	ret
	.cfi_endproc
.LFE9705:
	.globl	__gxx_personality_v0
	.section	.gcc_except_table,"a",@progbits
.LLSDA9705:
	.byte	0xff
	.byte	0xff
	.byte	0x1
	.uleb128 .LLSDACSE9705-.LLSDACSB9705
.LLSDACSB9705:
	.uleb128 .LEHB0-.LFB9705
	.uleb128 .LEHE0-.LEHB0
	.uleb128 0
	.uleb128 0
	.uleb128 .LEHB1-.LFB9705
	.uleb128 .LEHE1-.LEHB1
	.uleb128 .L33-.LFB9705
	.uleb128 0
	.uleb128 .LEHB2-.LFB9705
	.uleb128 .LEHE2-.LEHB2
	.uleb128 .L34-.LFB9705
	.uleb128 0
	.uleb128 .LEHB3-.LFB9705
	.uleb128 .LEHE3-.LEHB3
	.uleb128 .L35-.LFB9705
	.uleb128 0
	.uleb128 .LEHB4-.LFB9705
	.uleb128 .LEHE4-.LEHB4
	.uleb128 .L36-.LFB9705
	.uleb128 0
	.uleb128 .LEHB5-.LFB9705
	.uleb128 .LEHE5-.LEHB5
	.uleb128 .L37-.LFB9705
	.uleb128 0
	.uleb128 .LEHB6-.LFB9705
	.uleb128 .LEHE6-.LEHB6
	.uleb128 .L38-.LFB9705
	.uleb128 0
	.uleb128 .LEHB7-.LFB9705
	.uleb128 .LEHE7-.LEHB7
	.uleb128 .L39-.LFB9705
	.uleb128 0
	.uleb128 .LEHB8-.LFB9705
	.uleb128 .LEHE8-.LEHB8
	.uleb128 .L40-.LFB9705
	.uleb128 0
	.uleb128 .LEHB9-.LFB9705
	.uleb128 .LEHE9-.LEHB9
	.uleb128 .L41-.LFB9705
	.uleb128 0
	.uleb128 .LEHB10-.LFB9705
	.uleb128 .LEHE10-.LEHB10
	.uleb128 .L42-.LFB9705
	.uleb128 0
	.uleb128 .LEHB11-.LFB9705
	.uleb128 .LEHE11-.LEHB11
	.uleb128 0
	.uleb128 0
.LLSDACSE9705:
	.text
	.size	main, .-main
	.section	.text._ZN9__gnu_cxx11char_traitsIcE2eqERKcS3_,"axG",@progbits,_ZN9__gnu_cxx11char_traitsIcE2eqERKcS3_,comdat
	.weak	_ZN9__gnu_cxx11char_traitsIcE2eqERKcS3_
	.type	_ZN9__gnu_cxx11char_traitsIcE2eqERKcS3_, @function
_ZN9__gnu_cxx11char_traitsIcE2eqERKcS3_:
.LFB9758:
	.cfi_startproc
	endbr64
	push	rbp
	.cfi_def_cfa_offset 16
	.cfi_offset 6, -16
	mov	rbp, rsp
	.cfi_def_cfa_register 6
	mov	QWORD PTR -8[rbp], rdi
	mov	QWORD PTR -16[rbp], rsi
	mov	rax, QWORD PTR -8[rbp]
	movzx	edx, BYTE PTR [rax]
	mov	rax, QWORD PTR -16[rbp]
	movzx	eax, BYTE PTR [rax]
	cmp	dl, al
	sete	al
	pop	rbp
	.cfi_def_cfa 7, 8
	ret
	.cfi_endproc
.LFE9758:
	.size	_ZN9__gnu_cxx11char_traitsIcE2eqERKcS3_, .-_ZN9__gnu_cxx11char_traitsIcE2eqERKcS3_
	.section	.text._ZN9__gnu_cxx11char_traitsIcE6lengthEPKc,"axG",@progbits,_ZN9__gnu_cxx11char_traitsIcE6lengthEPKc,comdat
	.align 2
	.weak	_ZN9__gnu_cxx11char_traitsIcE6lengthEPKc
	.type	_ZN9__gnu_cxx11char_traitsIcE6lengthEPKc, @function
_ZN9__gnu_cxx11char_traitsIcE6lengthEPKc:
.LFB9757:
	.cfi_startproc
	endbr64
	push	rbp
	.cfi_def_cfa_offset 16
	.cfi_offset 6, -16
	mov	rbp, rsp
	.cfi_def_cfa_register 6
	sub	rsp, 48
	mov	QWORD PTR -40[rbp], rdi
	mov	rax, QWORD PTR fs:40
	mov	QWORD PTR -8[rbp], rax
	xor	eax, eax
	mov	QWORD PTR -16[rbp], 0
	jmp	.L47
.L48:
	add	QWORD PTR -16[rbp], 1
.L47:
	mov	BYTE PTR -17[rbp], 0
	mov	rdx, QWORD PTR -40[rbp]
	mov	rax, QWORD PTR -16[rbp]
	add	rdx, rax
	lea	rax, -17[rbp]
	mov	rsi, rax
	mov	rdi, rdx
	call	_ZN9__gnu_cxx11char_traitsIcE2eqERKcS3_
	xor	eax, 1
	test	al, al
	jne	.L48
	mov	rax, QWORD PTR -16[rbp]
	mov	rdx, QWORD PTR -8[rbp]
	sub	rdx, QWORD PTR fs:40
	je	.L50
	call	__stack_chk_fail@PLT
.L50:
	leave
	.cfi_def_cfa 7, 8
	ret
	.cfi_endproc
.LFE9757:
	.size	_ZN9__gnu_cxx11char_traitsIcE6lengthEPKc, .-_ZN9__gnu_cxx11char_traitsIcE6lengthEPKc
	.section	.text._ZNSt7__cxx1112basic_stringIcSt11char_traitsIcESaIcEE12_Alloc_hiderD2Ev,"axG",@progbits,_ZNSt7__cxx1112basic_stringIcSt11char_traitsIcESaIcEE12_Alloc_hiderD5Ev,comdat
	.align 2
	.weak	_ZNSt7__cxx1112basic_stringIcSt11char_traitsIcESaIcEE12_Alloc_hiderD2Ev
	.type	_ZNSt7__cxx1112basic_stringIcSt11char_traitsIcESaIcEE12_Alloc_hiderD2Ev, @function
_ZNSt7__cxx1112basic_stringIcSt11char_traitsIcESaIcEE12_Alloc_hiderD2Ev:
.LFB9865:
	.cfi_startproc
	endbr64
	push	rbp
	.cfi_def_cfa_offset 16
	.cfi_offset 6, -16
	mov	rbp, rsp
	.cfi_def_cfa_register 6
	sub	rsp, 16
	mov	QWORD PTR -8[rbp], rdi
	mov	rax, QWORD PTR -8[rbp]
	mov	rdi, rax
	call	_ZNSaIcED2Ev@PLT
	nop
	leave
	.cfi_def_cfa 7, 8
	ret
	.cfi_endproc
.LFE9865:
	.size	_ZNSt7__cxx1112basic_stringIcSt11char_traitsIcESaIcEE12_Alloc_hiderD2Ev, .-_ZNSt7__cxx1112basic_stringIcSt11char_traitsIcESaIcEE12_Alloc_hiderD2Ev
	.weak	_ZNSt7__cxx1112basic_stringIcSt11char_traitsIcESaIcEE12_Alloc_hiderD1Ev
	.set	_ZNSt7__cxx1112basic_stringIcSt11char_traitsIcESaIcEE12_Alloc_hiderD1Ev,_ZNSt7__cxx1112basic_stringIcSt11char_traitsIcESaIcEE12_Alloc_hiderD2Ev
	.section	.text._ZNSt7__cxx1112basic_stringIcSt11char_traitsIcESaIcEEC2IS3_EEPKcRKS3_,"axG",@progbits,_ZNSt7__cxx1112basic_stringIcSt11char_traitsIcESaIcEEC5IS3_EEPKcRKS3_,comdat
	.align 2
	.weak	_ZNSt7__cxx1112basic_stringIcSt11char_traitsIcESaIcEEC2IS3_EEPKcRKS3_
	.type	_ZNSt7__cxx1112basic_stringIcSt11char_traitsIcESaIcEEC2IS3_EEPKcRKS3_, @function
_ZNSt7__cxx1112basic_stringIcSt11char_traitsIcESaIcEEC2IS3_EEPKcRKS3_:
.LFB10296:
	.cfi_startproc
	.cfi_personality 0x9b,DW.ref.__gxx_personality_v0
	.cfi_lsda 0x1b,.LLSDA10296
	endbr64
	push	rbp
	.cfi_def_cfa_offset 16
	.cfi_offset 6, -16
	mov	rbp, rsp
	.cfi_def_cfa_register 6
	push	rbx
	sub	rsp, 72
	.cfi_offset 3, -24
	mov	QWORD PTR -56[rbp], rdi
	mov	QWORD PTR -64[rbp], rsi
	mov	QWORD PTR -72[rbp], rdx
	mov	rax, QWORD PTR fs:40
	mov	QWORD PTR -24[rbp], rax
	xor	eax, eax
	mov	rbx, QWORD PTR -56[rbp]
	mov	rax, QWORD PTR -56[rbp]
	mov	rdi, rax
.LEHB12:
	call	_ZNSt7__cxx1112basic_stringIcSt11char_traitsIcESaIcEE13_M_local_dataEv@PLT
	mov	rcx, rax
	mov	rax, QWORD PTR -72[rbp]
	mov	rdx, rax
	mov	rsi, rcx
	mov	rdi, rbx
	call	_ZNSt7__cxx1112basic_stringIcSt11char_traitsIcESaIcEE12_Alloc_hiderC1EPcRKS3_@PLT
.LEHE12:
	cmp	QWORD PTR -64[rbp], 0
	je	.L53
	mov	rax, QWORD PTR -64[rbp]
	mov	rdi, rax
.LEHB13:
	call	_ZNSt11char_traitsIcE6lengthEPKc
	mov	rdx, QWORD PTR -64[rbp]
	add	rax, rdx
	jmp	.L54
.L53:
	mov	eax, 1
.L54:
	mov	QWORD PTR -32[rbp], rax
	mov	rdx, QWORD PTR -32[rbp]
	mov	rcx, QWORD PTR -64[rbp]
	mov	rax, QWORD PTR -56[rbp]
	mov	rsi, rcx
	mov	rdi, rax
	call	_ZNSt7__cxx1112basic_stringIcSt11char_traitsIcESaIcEE12_M_constructIPKcEEvT_S8_St20forward_iterator_tag
.LEHE13:
	jmp	.L58
.L57:
	endbr64
	mov	rbx, rax
	mov	rax, QWORD PTR -56[rbp]
	mov	rdi, rax
	call	_ZNSt7__cxx1112basic_stringIcSt11char_traitsIcESaIcEE12_Alloc_hiderD1Ev
	mov	rax, rbx
	mov	rdi, rax
.LEHB14:
	call	_Unwind_Resume@PLT
.LEHE14:
.L58:
	mov	rax, QWORD PTR -24[rbp]
	sub	rax, QWORD PTR fs:40
	je	.L56
	call	__stack_chk_fail@PLT
.L56:
	mov	rbx, QWORD PTR -8[rbp]
	leave
	.cfi_def_cfa 7, 8
	ret
	.cfi_endproc
.LFE10296:
	.section	.gcc_except_table
.LLSDA10296:
	.byte	0xff
	.byte	0xff
	.byte	0x1
	.uleb128 .LLSDACSE10296-.LLSDACSB10296
.LLSDACSB10296:
	.uleb128 .LEHB12-.LFB10296
	.uleb128 .LEHE12-.LEHB12
	.uleb128 0
	.uleb128 0
	.uleb128 .LEHB13-.LFB10296
	.uleb128 .LEHE13-.LEHB13
	.uleb128 .L57-.LFB10296
	.uleb128 0
	.uleb128 .LEHB14-.LFB10296
	.uleb128 .LEHE14-.LEHB14
	.uleb128 0
	.uleb128 0
.LLSDACSE10296:
	.section	.text._ZNSt7__cxx1112basic_stringIcSt11char_traitsIcESaIcEEC2IS3_EEPKcRKS3_,"axG",@progbits,_ZNSt7__cxx1112basic_stringIcSt11char_traitsIcESaIcEEC5IS3_EEPKcRKS3_,comdat
	.size	_ZNSt7__cxx1112basic_stringIcSt11char_traitsIcESaIcEEC2IS3_EEPKcRKS3_, .-_ZNSt7__cxx1112basic_stringIcSt11char_traitsIcESaIcEEC2IS3_EEPKcRKS3_
	.weak	_ZNSt7__cxx1112basic_stringIcSt11char_traitsIcESaIcEEC1IS3_EEPKcRKS3_
	.set	_ZNSt7__cxx1112basic_stringIcSt11char_traitsIcESaIcEEC1IS3_EEPKcRKS3_,_ZNSt7__cxx1112basic_stringIcSt11char_traitsIcESaIcEEC2IS3_EEPKcRKS3_
	.section	.text._ZSt3minIiET_St16initializer_listIS0_E,"axG",@progbits,_ZSt3minIiET_St16initializer_listIS0_E,comdat
	.weak	_ZSt3minIiET_St16initializer_listIS0_E
	.type	_ZSt3minIiET_St16initializer_listIS0_E, @function
_ZSt3minIiET_St16initializer_listIS0_E:
.LFB10398:
	.cfi_startproc
	endbr64
	push	rbp
	.cfi_def_cfa_offset 16
	.cfi_offset 6, -16
	mov	rbp, rsp
	.cfi_def_cfa_register 6
	push	rbx
	sub	rsp, 24
	.cfi_offset 3, -24
	mov	rax, rdi
	mov	rcx, rsi
	mov	rdx, rcx
	mov	QWORD PTR -32[rbp], rax
	mov	QWORD PTR -24[rbp], rdx
	lea	rax, -32[rbp]
	mov	rdi, rax
	call	_ZNKSt16initializer_listIiE3endEv
	mov	rbx, rax
	lea	rax, -32[rbp]
	mov	rdi, rax
	call	_ZNKSt16initializer_listIiE5beginEv
	mov	rsi, rbx
	mov	rdi, rax
	call	_ZSt11min_elementIPKiET_S2_S2_
	mov	eax, DWORD PTR [rax]
	mov	rbx, QWORD PTR -8[rbp]
	leave
	.cfi_def_cfa 7, 8
	ret
	.cfi_endproc
.LFE10398:
	.size	_ZSt3minIiET_St16initializer_listIS0_E, .-_ZSt3minIiET_St16initializer_listIS0_E
	.section	.text._ZSt8distanceIPKcENSt15iterator_traitsIT_E15difference_typeES3_S3_,"axG",@progbits,_ZSt8distanceIPKcENSt15iterator_traitsIT_E15difference_typeES3_S3_,comdat
	.weak	_ZSt8distanceIPKcENSt15iterator_traitsIT_E15difference_typeES3_S3_
	.type	_ZSt8distanceIPKcENSt15iterator_traitsIT_E15difference_typeES3_S3_, @function
_ZSt8distanceIPKcENSt15iterator_traitsIT_E15difference_typeES3_S3_:
.LFB10670:
	.cfi_startproc
	endbr64
	push	rbp
	.cfi_def_cfa_offset 16
	.cfi_offset 6, -16
	mov	rbp, rsp
	.cfi_def_cfa_register 6
	sub	rsp, 16
	mov	QWORD PTR -8[rbp], rdi
	mov	QWORD PTR -16[rbp], rsi
	lea	rax, -8[rbp]
	mov	rdi, rax
	call	_ZSt19__iterator_categoryIPKcENSt15iterator_traitsIT_E17iterator_categoryERKS3_
	mov	rax, QWORD PTR -8[rbp]
	mov	rdx, QWORD PTR -16[rbp]
	mov	rsi, rdx
	mov	rdi, rax
	call	_ZSt10__distanceIPKcENSt15iterator_traitsIT_E15difference_typeES3_S3_St26random_access_iterator_tag
	leave
	.cfi_def_cfa 7, 8
	ret
	.cfi_endproc
.LFE10670:
	.size	_ZSt8distanceIPKcENSt15iterator_traitsIT_E15difference_typeES3_S3_, .-_ZSt8distanceIPKcENSt15iterator_traitsIT_E15difference_typeES3_S3_
	.section	.rodata
	.align 8
.LC4:
	.string	"basic_string::_M_construct null not valid"
	.section	.text._ZNSt7__cxx1112basic_stringIcSt11char_traitsIcESaIcEE12_M_constructIPKcEEvT_S8_St20forward_iterator_tag,"axG",@progbits,_ZNSt7__cxx1112basic_stringIcSt11char_traitsIcESaIcEE12_M_constructIPKcEEvT_S8_St20forward_iterator_tag,comdat
	.align 2
	.weak	_ZNSt7__cxx1112basic_stringIcSt11char_traitsIcESaIcEE12_M_constructIPKcEEvT_S8_St20forward_iterator_tag
	.type	_ZNSt7__cxx1112basic_stringIcSt11char_traitsIcESaIcEE12_M_constructIPKcEEvT_S8_St20forward_iterator_tag, @function
_ZNSt7__cxx1112basic_stringIcSt11char_traitsIcESaIcEE12_M_constructIPKcEEvT_S8_St20forward_iterator_tag:
.LFB10669:
	.cfi_startproc
	.cfi_personality 0x9b,DW.ref.__gxx_personality_v0
	.cfi_lsda 0x1b,.LLSDA10669
	endbr64
	push	rbp
	.cfi_def_cfa_offset 16
	.cfi_offset 6, -16
	mov	rbp, rsp
	.cfi_def_cfa_register 6
	push	rbx
	sub	rsp, 56
	.cfi_offset 3, -24
	mov	QWORD PTR -40[rbp], rdi
	mov	QWORD PTR -48[rbp], rsi
	mov	QWORD PTR -56[rbp], rdx
	mov	rax, QWORD PTR fs:40
	mov	QWORD PTR -24[rbp], rax
	xor	eax, eax
	mov	rax, QWORD PTR -48[rbp]
	mov	rdi, rax
	call	_ZN9__gnu_cxx17__is_null_pointerIKcEEbPT_
	test	al, al
	je	.L64
	mov	rax, QWORD PTR -48[rbp]
	cmp	rax, QWORD PTR -56[rbp]
	je	.L64
	mov	eax, 1
	jmp	.L65
.L64:
	mov	eax, 0
.L65:
	test	al, al
	je	.L66
	lea	rax, .LC4[rip]
	mov	rdi, rax
.LEHB15:
	call	_ZSt19__throw_logic_errorPKc@PLT
.L66:
	mov	rdx, QWORD PTR -56[rbp]
	mov	rax, QWORD PTR -48[rbp]
	mov	rsi, rdx
	mov	rdi, rax
	call	_ZSt8distanceIPKcENSt15iterator_traitsIT_E15difference_typeES3_S3_
	mov	QWORD PTR -32[rbp], rax
	mov	rax, QWORD PTR -32[rbp]
	cmp	rax, 15
	jbe	.L67
	lea	rcx, -32[rbp]
	mov	rax, QWORD PTR -40[rbp]
	mov	edx, 0
	mov	rsi, rcx
	mov	rdi, rax
	call	_ZNSt7__cxx1112basic_stringIcSt11char_traitsIcESaIcEE9_M_createERmm@PLT
	mov	rdx, rax
	mov	rax, QWORD PTR -40[rbp]
	mov	rsi, rdx
	mov	rdi, rax
	call	_ZNSt7__cxx1112basic_stringIcSt11char_traitsIcESaIcEE7_M_dataEPc@PLT
	mov	rdx, QWORD PTR -32[rbp]
	mov	rax, QWORD PTR -40[rbp]
	mov	rsi, rdx
	mov	rdi, rax
	call	_ZNSt7__cxx1112basic_stringIcSt11char_traitsIcESaIcEE11_M_capacityEm@PLT
.LEHE15:
.L67:
	mov	rax, QWORD PTR -40[rbp]
	mov	rdi, rax
.LEHB16:
	call	_ZNKSt7__cxx1112basic_stringIcSt11char_traitsIcESaIcEE7_M_dataEv@PLT
.LEHE16:
	mov	rcx, rax
	mov	rdx, QWORD PTR -56[rbp]
	mov	rax, QWORD PTR -48[rbp]
	mov	rsi, rax
	mov	rdi, rcx
	call	_ZNSt7__cxx1112basic_stringIcSt11char_traitsIcESaIcEE13_S_copy_charsEPcPKcS7_@PLT
	mov	rdx, QWORD PTR -32[rbp]
	mov	rax, QWORD PTR -40[rbp]
	mov	rsi, rdx
	mov	rdi, rax
.LEHB17:
	call	_ZNSt7__cxx1112basic_stringIcSt11char_traitsIcESaIcEE13_M_set_lengthEm@PLT
.LEHE17:
	nop
	mov	rax, QWORD PTR -24[rbp]
	sub	rax, QWORD PTR fs:40
	je	.L70
	jmp	.L73
.L71:
	endbr64
	mov	rdi, rax
	call	__cxa_begin_catch@PLT
	mov	rax, QWORD PTR -40[rbp]
	mov	rdi, rax
.LEHB18:
	call	_ZNSt7__cxx1112basic_stringIcSt11char_traitsIcESaIcEE10_M_disposeEv@PLT
	call	__cxa_rethrow@PLT
.LEHE18:
.L72:
	endbr64
	mov	rbx, rax
	call	__cxa_end_catch@PLT
	mov	rax, rbx
	mov	rdi, rax
.LEHB19:
	call	_Unwind_Resume@PLT
.LEHE19:
.L73:
	call	__stack_chk_fail@PLT
.L70:
	mov	rbx, QWORD PTR -8[rbp]
	leave
	.cfi_def_cfa 7, 8
	ret
	.cfi_endproc
.LFE10669:
	.section	.gcc_except_table
	.align 4
.LLSDA10669:
	.byte	0xff
	.byte	0x9b
	.uleb128 .LLSDATT10669-.LLSDATTD10669
.LLSDATTD10669:
	.byte	0x1
	.uleb128 .LLSDACSE10669-.LLSDACSB10669
.LLSDACSB10669:
	.uleb128 .LEHB15-.LFB10669
	.uleb128 .LEHE15-.LEHB15
	.uleb128 0
	.uleb128 0
	.uleb128 .LEHB16-.LFB10669
	.uleb128 .LEHE16-.LEHB16
	.uleb128 .L71-.LFB10669
	.uleb128 0x1
	.uleb128 .LEHB17-.LFB10669
	.uleb128 .LEHE17-.LEHB17
	.uleb128 0
	.uleb128 0
	.uleb128 .LEHB18-.LFB10669
	.uleb128 .LEHE18-.LEHB18
	.uleb128 .L72-.LFB10669
	.uleb128 0
	.uleb128 .LEHB19-.LFB10669
	.uleb128 .LEHE19-.LEHB19
	.uleb128 0
	.uleb128 0
.LLSDACSE10669:
	.byte	0x1
	.byte	0
	.align 4
	.long	0

.LLSDATT10669:
	.section	.text._ZNSt7__cxx1112basic_stringIcSt11char_traitsIcESaIcEE12_M_constructIPKcEEvT_S8_St20forward_iterator_tag,"axG",@progbits,_ZNSt7__cxx1112basic_stringIcSt11char_traitsIcESaIcEE12_M_constructIPKcEEvT_S8_St20forward_iterator_tag,comdat
	.size	_ZNSt7__cxx1112basic_stringIcSt11char_traitsIcESaIcEE12_M_constructIPKcEEvT_S8_St20forward_iterator_tag, .-_ZNSt7__cxx1112basic_stringIcSt11char_traitsIcESaIcEE12_M_constructIPKcEEvT_S8_St20forward_iterator_tag
	.section	.text._ZNKSt16initializer_listIiE5beginEv,"axG",@progbits,_ZNKSt16initializer_listIiE5beginEv,comdat
	.align 2
	.weak	_ZNKSt16initializer_listIiE5beginEv
	.type	_ZNKSt16initializer_listIiE5beginEv, @function
_ZNKSt16initializer_listIiE5beginEv:
.LFB10790:
	.cfi_startproc
	endbr64
	push	rbp
	.cfi_def_cfa_offset 16
	.cfi_offset 6, -16
	mov	rbp, rsp
	.cfi_def_cfa_register 6
	mov	QWORD PTR -8[rbp], rdi
	mov	rax, QWORD PTR -8[rbp]
	mov	rax, QWORD PTR [rax]
	pop	rbp
	.cfi_def_cfa 7, 8
	ret
	.cfi_endproc
.LFE10790:
	.size	_ZNKSt16initializer_listIiE5beginEv, .-_ZNKSt16initializer_listIiE5beginEv
	.section	.text._ZNKSt16initializer_listIiE3endEv,"axG",@progbits,_ZNKSt16initializer_listIiE3endEv,comdat
	.align 2
	.weak	_ZNKSt16initializer_listIiE3endEv
	.type	_ZNKSt16initializer_listIiE3endEv, @function
_ZNKSt16initializer_listIiE3endEv:
.LFB10791:
	.cfi_startproc
	endbr64
	push	rbp
	.cfi_def_cfa_offset 16
	.cfi_offset 6, -16
	mov	rbp, rsp
	.cfi_def_cfa_register 6
	push	rbx
	sub	rsp, 24
	.cfi_offset 3, -24
	mov	QWORD PTR -24[rbp], rdi
	mov	rax, QWORD PTR -24[rbp]
	mov	rdi, rax
	call	_ZNKSt16initializer_listIiE5beginEv
	mov	rbx, rax
	mov	rax, QWORD PTR -24[rbp]
	mov	rdi, rax
	call	_ZNKSt16initializer_listIiE4sizeEv
	sal	rax, 2
	add	rax, rbx
	mov	rbx, QWORD PTR -8[rbp]
	leave
	.cfi_def_cfa 7, 8
	ret
	.cfi_endproc
.LFE10791:
	.size	_ZNKSt16initializer_listIiE3endEv, .-_ZNKSt16initializer_listIiE3endEv
	.section	.text._ZSt11min_elementIPKiET_S2_S2_,"axG",@progbits,_ZSt11min_elementIPKiET_S2_S2_,comdat
	.weak	_ZSt11min_elementIPKiET_S2_S2_
	.type	_ZSt11min_elementIPKiET_S2_S2_, @function
_ZSt11min_elementIPKiET_S2_S2_:
.LFB10792:
	.cfi_startproc
	endbr64
	push	rbp
	.cfi_def_cfa_offset 16
	.cfi_offset 6, -16
	mov	rbp, rsp
	.cfi_def_cfa_register 6
	sub	rsp, 16
	mov	QWORD PTR -8[rbp], rdi
	mov	QWORD PTR -16[rbp], rsi
	call	_ZN9__gnu_cxx5__ops16__iter_less_iterEv
	mov	rdx, QWORD PTR -16[rbp]
	mov	rax, QWORD PTR -8[rbp]
	mov	rsi, rdx
	mov	rdi, rax
	call	_ZSt13__min_elementIPKiN9__gnu_cxx5__ops15_Iter_less_iterEET_S5_S5_T0_
	leave
	.cfi_def_cfa 7, 8
	ret
	.cfi_endproc
.LFE10792:
	.size	_ZSt11min_elementIPKiET_S2_S2_, .-_ZSt11min_elementIPKiET_S2_S2_
	.section	.text._ZN9__gnu_cxx17__is_null_pointerIKcEEbPT_,"axG",@progbits,_ZN9__gnu_cxx17__is_null_pointerIKcEEbPT_,comdat
	.weak	_ZN9__gnu_cxx17__is_null_pointerIKcEEbPT_
	.type	_ZN9__gnu_cxx17__is_null_pointerIKcEEbPT_, @function
_ZN9__gnu_cxx17__is_null_pointerIKcEEbPT_:
.LFB10935:
	.cfi_startproc
	endbr64
	push	rbp
	.cfi_def_cfa_offset 16
	.cfi_offset 6, -16
	mov	rbp, rsp
	.cfi_def_cfa_register 6
	mov	QWORD PTR -8[rbp], rdi
	cmp	QWORD PTR -8[rbp], 0
	sete	al
	pop	rbp
	.cfi_def_cfa 7, 8
	ret
	.cfi_endproc
.LFE10935:
	.size	_ZN9__gnu_cxx17__is_null_pointerIKcEEbPT_, .-_ZN9__gnu_cxx17__is_null_pointerIKcEEbPT_
	.section	.text._ZSt19__iterator_categoryIPKcENSt15iterator_traitsIT_E17iterator_categoryERKS3_,"axG",@progbits,_ZSt19__iterator_categoryIPKcENSt15iterator_traitsIT_E17iterator_categoryERKS3_,comdat
	.weak	_ZSt19__iterator_categoryIPKcENSt15iterator_traitsIT_E17iterator_categoryERKS3_
	.type	_ZSt19__iterator_categoryIPKcENSt15iterator_traitsIT_E17iterator_categoryERKS3_, @function
_ZSt19__iterator_categoryIPKcENSt15iterator_traitsIT_E17iterator_categoryERKS3_:
.LFB10936:
	.cfi_startproc
	endbr64
	push	rbp
	.cfi_def_cfa_offset 16
	.cfi_offset 6, -16
	mov	rbp, rsp
	.cfi_def_cfa_register 6
	mov	QWORD PTR -8[rbp], rdi
	pop	rbp
	.cfi_def_cfa 7, 8
	ret
	.cfi_endproc
.LFE10936:
	.size	_ZSt19__iterator_categoryIPKcENSt15iterator_traitsIT_E17iterator_categoryERKS3_, .-_ZSt19__iterator_categoryIPKcENSt15iterator_traitsIT_E17iterator_categoryERKS3_
	.section	.text._ZSt10__distanceIPKcENSt15iterator_traitsIT_E15difference_typeES3_S3_St26random_access_iterator_tag,"axG",@progbits,_ZSt10__distanceIPKcENSt15iterator_traitsIT_E15difference_typeES3_S3_St26random_access_iterator_tag,comdat
	.weak	_ZSt10__distanceIPKcENSt15iterator_traitsIT_E15difference_typeES3_S3_St26random_access_iterator_tag
	.type	_ZSt10__distanceIPKcENSt15iterator_traitsIT_E15difference_typeES3_S3_St26random_access_iterator_tag, @function
_ZSt10__distanceIPKcENSt15iterator_traitsIT_E15difference_typeES3_S3_St26random_access_iterator_tag:
.LFB10937:
	.cfi_startproc
	endbr64
	push	rbp
	.cfi_def_cfa_offset 16
	.cfi_offset 6, -16
	mov	rbp, rsp
	.cfi_def_cfa_register 6
	mov	QWORD PTR -8[rbp], rdi
	mov	QWORD PTR -16[rbp], rsi
	mov	rax, QWORD PTR -16[rbp]
	sub	rax, QWORD PTR -8[rbp]
	pop	rbp
	.cfi_def_cfa 7, 8
	ret
	.cfi_endproc
.LFE10937:
	.size	_ZSt10__distanceIPKcENSt15iterator_traitsIT_E15difference_typeES3_S3_St26random_access_iterator_tag, .-_ZSt10__distanceIPKcENSt15iterator_traitsIT_E15difference_typeES3_S3_St26random_access_iterator_tag
	.section	.text._ZNKSt16initializer_listIiE4sizeEv,"axG",@progbits,_ZNKSt16initializer_listIiE4sizeEv,comdat
	.align 2
	.weak	_ZNKSt16initializer_listIiE4sizeEv
	.type	_ZNKSt16initializer_listIiE4sizeEv, @function
_ZNKSt16initializer_listIiE4sizeEv:
.LFB10989:
	.cfi_startproc
	endbr64
	push	rbp
	.cfi_def_cfa_offset 16
	.cfi_offset 6, -16
	mov	rbp, rsp
	.cfi_def_cfa_register 6
	mov	QWORD PTR -8[rbp], rdi
	mov	rax, QWORD PTR -8[rbp]
	mov	rax, QWORD PTR 8[rax]
	pop	rbp
	.cfi_def_cfa 7, 8
	ret
	.cfi_endproc
.LFE10989:
	.size	_ZNKSt16initializer_listIiE4sizeEv, .-_ZNKSt16initializer_listIiE4sizeEv
	.section	.text._ZNK9__gnu_cxx5__ops15_Iter_less_iterclIPKiS4_EEbT_T0_,"axG",@progbits,_ZNK9__gnu_cxx5__ops15_Iter_less_iterclIPKiS4_EEbT_T0_,comdat
	.align 2
	.weak	_ZNK9__gnu_cxx5__ops15_Iter_less_iterclIPKiS4_EEbT_T0_
	.type	_ZNK9__gnu_cxx5__ops15_Iter_less_iterclIPKiS4_EEbT_T0_, @function
_ZNK9__gnu_cxx5__ops15_Iter_less_iterclIPKiS4_EEbT_T0_:
.LFB10991:
	.cfi_startproc
	endbr64
	push	rbp
	.cfi_def_cfa_offset 16
	.cfi_offset 6, -16
	mov	rbp, rsp
	.cfi_def_cfa_register 6
	mov	QWORD PTR -8[rbp], rdi
	mov	QWORD PTR -16[rbp], rsi
	mov	QWORD PTR -24[rbp], rdx
	mov	rax, QWORD PTR -16[rbp]
	mov	edx, DWORD PTR [rax]
	mov	rax, QWORD PTR -24[rbp]
	mov	eax, DWORD PTR [rax]
	cmp	edx, eax
	setl	al
	pop	rbp
	.cfi_def_cfa 7, 8
	ret
	.cfi_endproc
.LFE10991:
	.size	_ZNK9__gnu_cxx5__ops15_Iter_less_iterclIPKiS4_EEbT_T0_, .-_ZNK9__gnu_cxx5__ops15_Iter_less_iterclIPKiS4_EEbT_T0_
	.section	.text._ZSt13__min_elementIPKiN9__gnu_cxx5__ops15_Iter_less_iterEET_S5_S5_T0_,"axG",@progbits,_ZSt13__min_elementIPKiN9__gnu_cxx5__ops15_Iter_less_iterEET_S5_S5_T0_,comdat
	.weak	_ZSt13__min_elementIPKiN9__gnu_cxx5__ops15_Iter_less_iterEET_S5_S5_T0_
	.type	_ZSt13__min_elementIPKiN9__gnu_cxx5__ops15_Iter_less_iterEET_S5_S5_T0_, @function
_ZSt13__min_elementIPKiN9__gnu_cxx5__ops15_Iter_less_iterEET_S5_S5_T0_:
.LFB10990:
	.cfi_startproc
	endbr64
	push	rbp
	.cfi_def_cfa_offset 16
	.cfi_offset 6, -16
	mov	rbp, rsp
	.cfi_def_cfa_register 6
	sub	rsp, 48
	mov	QWORD PTR -24[rbp], rdi
	mov	QWORD PTR -32[rbp], rsi
	mov	rax, QWORD PTR -24[rbp]
	cmp	rax, QWORD PTR -32[rbp]
	jne	.L91
	mov	rax, QWORD PTR -24[rbp]
	jmp	.L92
.L91:
	mov	rax, QWORD PTR -24[rbp]
	mov	QWORD PTR -8[rbp], rax
	jmp	.L93
.L94:
	mov	rdx, QWORD PTR -8[rbp]
	mov	rcx, QWORD PTR -24[rbp]
	lea	rax, -33[rbp]
	mov	rsi, rcx
	mov	rdi, rax
	call	_ZNK9__gnu_cxx5__ops15_Iter_less_iterclIPKiS4_EEbT_T0_
	test	al, al
	je	.L93
	mov	rax, QWORD PTR -24[rbp]
	mov	QWORD PTR -8[rbp], rax
.L93:
	add	QWORD PTR -24[rbp], 4
	mov	rax, QWORD PTR -24[rbp]
	cmp	rax, QWORD PTR -32[rbp]
	setne	al
	test	al, al
	jne	.L94
	mov	rax, QWORD PTR -8[rbp]
.L92:
	leave
	.cfi_def_cfa 7, 8
	ret
	.cfi_endproc
.LFE10990:
	.size	_ZSt13__min_elementIPKiN9__gnu_cxx5__ops15_Iter_less_iterEET_S5_S5_T0_, .-_ZSt13__min_elementIPKiN9__gnu_cxx5__ops15_Iter_less_iterEET_S5_S5_T0_
	.text
	.type	_Z41__static_initialization_and_destruction_0ii, @function
_Z41__static_initialization_and_destruction_0ii:
.LFB11465:
	.cfi_startproc
	endbr64
	push	rbp
	.cfi_def_cfa_offset 16
	.cfi_offset 6, -16
	mov	rbp, rsp
	.cfi_def_cfa_register 6
	sub	rsp, 16
	mov	DWORD PTR -4[rbp], edi
	mov	DWORD PTR -8[rbp], esi
	cmp	DWORD PTR -4[rbp], 1
	jne	.L97
	cmp	DWORD PTR -8[rbp], 65535
	jne	.L97
	lea	rax, _ZStL8__ioinit[rip]
	mov	rdi, rax
	call	_ZNSt8ios_base4InitC1Ev@PLT
	lea	rax, __dso_handle[rip]
	mov	rdx, rax
	lea	rax, _ZStL8__ioinit[rip]
	mov	rsi, rax
	mov	rax, QWORD PTR _ZNSt8ios_base4InitD1Ev@GOTPCREL[rip]
	mov	rdi, rax
	call	__cxa_atexit@PLT
.L97:
	nop
	leave
	.cfi_def_cfa 7, 8
	ret
	.cfi_endproc
.LFE11465:
	.size	_Z41__static_initialization_and_destruction_0ii, .-_Z41__static_initialization_and_destruction_0ii
	.type	_GLOBAL__sub_I__Z8totcountNSt7__cxx1112basic_stringIcSt11char_traitsIcESaIcEEES4_, @function
_GLOBAL__sub_I__Z8totcountNSt7__cxx1112basic_stringIcSt11char_traitsIcESaIcEEES4_:
.LFB11488:
	.cfi_startproc
	endbr64
	push	rbp
	.cfi_def_cfa_offset 16
	.cfi_offset 6, -16
	mov	rbp, rsp
	.cfi_def_cfa_register 6
	mov	esi, 65535
	mov	edi, 1
	call	_Z41__static_initialization_and_destruction_0ii
	pop	rbp
	.cfi_def_cfa 7, 8
	ret
	.cfi_endproc
.LFE11488:
	.size	_GLOBAL__sub_I__Z8totcountNSt7__cxx1112basic_stringIcSt11char_traitsIcESaIcEEES4_, .-_GLOBAL__sub_I__Z8totcountNSt7__cxx1112basic_stringIcSt11char_traitsIcESaIcEEES4_
	.section	.init_array,"aw"
	.align 8
	.quad	_GLOBAL__sub_I__Z8totcountNSt7__cxx1112basic_stringIcSt11char_traitsIcESaIcEEES4_
	.hidden	DW.ref.__gxx_personality_v0
	.weak	DW.ref.__gxx_personality_v0
	.section	.data.rel.local.DW.ref.__gxx_personality_v0,"awG",@progbits,DW.ref.__gxx_personality_v0,comdat
	.align 8
	.type	DW.ref.__gxx_personality_v0, @object
	.size	DW.ref.__gxx_personality_v0, 8
DW.ref.__gxx_personality_v0:
	.quad	__gxx_personality_v0
	.hidden	__dso_handle
	.ident	"GCC: (Ubuntu 11.4.0-1ubuntu1~22.04.2) 11.4.0"
	.section	.note.GNU-stack,"",@progbits
	.section	.note.gnu.property,"a"
	.align 8
	.long	1f - 0f
	.long	4f - 1f
	.long	5
0:
	.string	"GNU"
1:
	.align 8
	.long	0xc0000002
	.long	3f - 2f
2:
	.long	0x3
3:
	.align 8
4:
