	.file	"1594B.cpp"
	.intel_syntax noprefix
	.text
	.section	.rodata
	.type	_ZN6__pstl9execution2v1L3seqE, @object
	.size	_ZN6__pstl9execution2v1L3seqE, 1
_ZN6__pstl9execution2v1L3seqE:
	.zero	1
	.type	_ZN6__pstl9execution2v1L3parE, @object
	.size	_ZN6__pstl9execution2v1L3parE, 1
_ZN6__pstl9execution2v1L3parE:
	.zero	1
	.type	_ZN6__pstl9execution2v1L9par_unseqE, @object
	.size	_ZN6__pstl9execution2v1L9par_unseqE, 1
_ZN6__pstl9execution2v1L9par_unseqE:
	.zero	1
	.type	_ZN6__pstl9execution2v1L5unseqE, @object
	.size	_ZN6__pstl9execution2v1L5unseqE, 1
_ZN6__pstl9execution2v1L5unseqE:
	.zero	1
	.local	_ZStL8__ioinit
	.comm	_ZStL8__ioinit,1,1
	.align 4
	.type	_ZN9__gnu_cxxL21__default_lock_policyE, @object
	.size	_ZN9__gnu_cxxL21__default_lock_policyE, 4
_ZN9__gnu_cxxL21__default_lock_policyE:
	.long	2
	.align 4
	.type	_ZNSt15regex_constantsL13error_collateE, @object
	.size	_ZNSt15regex_constantsL13error_collateE, 4
_ZNSt15regex_constantsL13error_collateE:
	.zero	4
	.align 4
	.type	_ZNSt15regex_constantsL11error_ctypeE, @object
	.size	_ZNSt15regex_constantsL11error_ctypeE, 4
_ZNSt15regex_constantsL11error_ctypeE:
	.long	1
	.align 4
	.type	_ZNSt15regex_constantsL12error_escapeE, @object
	.size	_ZNSt15regex_constantsL12error_escapeE, 4
_ZNSt15regex_constantsL12error_escapeE:
	.long	2
	.align 4
	.type	_ZNSt15regex_constantsL13error_backrefE, @object
	.size	_ZNSt15regex_constantsL13error_backrefE, 4
_ZNSt15regex_constantsL13error_backrefE:
	.long	3
	.align 4
	.type	_ZNSt15regex_constantsL11error_brackE, @object
	.size	_ZNSt15regex_constantsL11error_brackE, 4
_ZNSt15regex_constantsL11error_brackE:
	.long	4
	.align 4
	.type	_ZNSt15regex_constantsL11error_parenE, @object
	.size	_ZNSt15regex_constantsL11error_parenE, 4
_ZNSt15regex_constantsL11error_parenE:
	.long	5
	.align 4
	.type	_ZNSt15regex_constantsL11error_braceE, @object
	.size	_ZNSt15regex_constantsL11error_braceE, 4
_ZNSt15regex_constantsL11error_braceE:
	.long	6
	.align 4
	.type	_ZNSt15regex_constantsL14error_badbraceE, @object
	.size	_ZNSt15regex_constantsL14error_badbraceE, 4
_ZNSt15regex_constantsL14error_badbraceE:
	.long	7
	.align 4
	.type	_ZNSt15regex_constantsL11error_rangeE, @object
	.size	_ZNSt15regex_constantsL11error_rangeE, 4
_ZNSt15regex_constantsL11error_rangeE:
	.long	8
	.align 4
	.type	_ZNSt15regex_constantsL11error_spaceE, @object
	.size	_ZNSt15regex_constantsL11error_spaceE, 4
_ZNSt15regex_constantsL11error_spaceE:
	.long	9
	.align 4
	.type	_ZNSt15regex_constantsL15error_badrepeatE, @object
	.size	_ZNSt15regex_constantsL15error_badrepeatE, 4
_ZNSt15regex_constantsL15error_badrepeatE:
	.long	10
	.align 4
	.type	_ZNSt15regex_constantsL16error_complexityE, @object
	.size	_ZNSt15regex_constantsL16error_complexityE, 4
_ZNSt15regex_constantsL16error_complexityE:
	.long	11
	.align 4
	.type	_ZNSt15regex_constantsL11error_stackE, @object
	.size	_ZNSt15regex_constantsL11error_stackE, 4
_ZNSt15regex_constantsL11error_stackE:
	.long	12
	.align 8
	.type	_ZNSt8__detailL19_S_invalid_state_idE, @object
	.size	_ZNSt8__detailL19_S_invalid_state_idE, 8
_ZNSt8__detailL19_S_invalid_state_idE:
	.quad	-1
	.globl	MOD
	.data
	.align 8
	.type	MOD, @object
	.size	MOD, 8
MOD:
	.quad	1000000007
	.section	.rodata
	.align 8
	.type	_ZL3INF, @object
	.size	_ZL3INF, 8
_ZL3INF:
	.quad	2000000000000000000
	.text
	.globl	_Z5mypowyy
	.type	_Z5mypowyy, @function
_Z5mypowyy:
.LFB9704:
	.cfi_startproc
	endbr64
	push	rbp
	.cfi_def_cfa_offset 16
	.cfi_offset 6, -16
	mov	rbp, rsp
	.cfi_def_cfa_register 6
	mov	QWORD PTR -24[rbp], rdi
	mov	QWORD PTR -32[rbp], rsi
	mov	QWORD PTR -16[rbp], 1
	mov	rax, QWORD PTR -24[rbp]
	mov	QWORD PTR -8[rbp], rax
	jmp	.L2
.L3:
	mov	rax, QWORD PTR MOD[rip]
	mov	rcx, rax
	mov	rax, QWORD PTR -16[rbp]
	mov	edx, 0
	div	rcx
	mov	rax, rdx
	imul	rax, QWORD PTR -8[rbp]
	mov	rdx, QWORD PTR MOD[rip]
	mov	rcx, rdx
	mov	edx, 0
	div	rcx
	mov	QWORD PTR -16[rbp], rdx
.L2:
	mov	rax, QWORD PTR -32[rbp]
	lea	rdx, -1[rax]
	mov	QWORD PTR -32[rbp], rdx
	test	rax, rax
	setne	al
	test	al, al
	jne	.L3
	mov	rax, QWORD PTR MOD[rip]
	mov	rcx, rax
	mov	rax, QWORD PTR -16[rbp]
	mov	edx, 0
	div	rcx
	mov	rax, rdx
	pop	rbp
	.cfi_def_cfa 7, 8
	ret
	.cfi_endproc
.LFE9704:
	.size	_Z5mypowyy, .-_Z5mypowyy
	.globl	_Z6binaryPyy
	.type	_Z6binaryPyy, @function
_Z6binaryPyy:
.LFB9705:
	.cfi_startproc
	endbr64
	push	rbp
	.cfi_def_cfa_offset 16
	.cfi_offset 6, -16
	mov	rbp, rsp
	.cfi_def_cfa_register 6
	mov	QWORD PTR -24[rbp], rdi
	mov	QWORD PTR -32[rbp], rsi
	mov	QWORD PTR -8[rbp], 0
	jmp	.L6
.L7:
	mov	rax, QWORD PTR -8[rbp]
	lea	rdx, 0[0+rax*8]
	mov	rax, QWORD PTR -24[rbp]
	add	rax, rdx
	mov	rdx, QWORD PTR -32[rbp]
	and	edx, 1
	mov	QWORD PTR [rax], rdx
	mov	rax, QWORD PTR -32[rbp]
	shr	rax
	mov	QWORD PTR -32[rbp], rax
	add	QWORD PTR -8[rbp], 1
.L6:
	cmp	QWORD PTR -32[rbp], 0
	jne	.L7
	mov	rax, QWORD PTR -8[rbp]
	pop	rbp
	.cfi_def_cfa 7, 8
	ret
	.cfi_endproc
.LFE9705:
	.size	_Z6binaryPyy, .-_Z6binaryPyy
	.globl	main
	.type	main, @function
main:
.LFB9706:
	.cfi_startproc
	endbr64
	push	rbp
	.cfi_def_cfa_offset 16
	.cfi_offset 6, -16
	mov	rbp, rsp
	.cfi_def_cfa_register 6
	sub	rsp, 320
	mov	rax, QWORD PTR fs:40
	mov	QWORD PTR -8[rbp], rax
	xor	eax, eax
	mov	edi, 0
	call	_ZNSt8ios_base15sync_with_stdioEb@PLT
	mov	esi, 0
	lea	rax, _ZSt3cin[rip+16]
	mov	rdi, rax
	call	_ZNSt9basic_iosIcSt11char_traitsIcEE3tieEPSo@PLT
	lea	rax, -316[rbp]
	mov	rsi, rax
	lea	rax, _ZSt3cin[rip]
	mov	rdi, rax
	call	_ZNSirsERi@PLT
	jmp	.L10
.L14:
	lea	rax, -312[rbp]
	mov	rsi, rax
	lea	rax, _ZSt3cin[rip]
	mov	rdi, rax
	call	_ZNSirsERy@PLT
	mov	rdx, rax
	lea	rax, -304[rbp]
	mov	rsi, rax
	mov	rdi, rdx
	call	_ZNSirsERy@PLT
	mov	QWORD PTR -296[rbp], 0
	mov	rdx, QWORD PTR -304[rbp]
	lea	rax, -272[rbp]
	mov	rsi, rdx
	mov	rdi, rax
	call	_Z6binaryPyy
	mov	QWORD PTR -280[rbp], rax
	mov	QWORD PTR -288[rbp], 0
	jmp	.L11
.L13:
	mov	rax, QWORD PTR -288[rbp]
	mov	rax, QWORD PTR -272[rbp+rax*8]
	cmp	rax, 1
	jne	.L12
	mov	rax, QWORD PTR -312[rbp]
	mov	rdx, QWORD PTR -288[rbp]
	mov	rsi, rdx
	mov	rdi, rax
	call	_Z5mypowyy
	mov	rdx, QWORD PTR MOD[rip]
	mov	rcx, rdx
	mov	edx, 0
	div	rcx
	mov	rax, rdx
	add	QWORD PTR -296[rbp], rax
.L12:
	add	QWORD PTR -288[rbp], 1
.L11:
	mov	rax, QWORD PTR -288[rbp]
	cmp	rax, QWORD PTR -280[rbp]
	jb	.L13
	mov	rax, QWORD PTR MOD[rip]
	mov	rcx, rax
	mov	rax, QWORD PTR -296[rbp]
	mov	edx, 0
	div	rcx
	mov	rax, rdx
	mov	rsi, rax
	lea	rax, _ZSt4cout[rip]
	mov	rdi, rax
	call	_ZNSolsEy@PLT
	mov	rdx, QWORD PTR _ZSt4endlIcSt11char_traitsIcEERSt13basic_ostreamIT_T0_ES6_@GOTPCREL[rip]
	mov	rsi, rdx
	mov	rdi, rax
	call	_ZNSolsEPFRSoS_E@PLT
.L10:
	mov	eax, DWORD PTR -316[rbp]
	lea	edx, -1[rax]
	mov	DWORD PTR -316[rbp], edx
	test	eax, eax
	setne	al
	test	al, al
	jne	.L14
	mov	eax, 0
	mov	rdx, QWORD PTR -8[rbp]
	sub	rdx, QWORD PTR fs:40
	je	.L16
	call	__stack_chk_fail@PLT
.L16:
	leave
	.cfi_def_cfa 7, 8
	ret
	.cfi_endproc
.LFE9706:
	.size	main, .-main
	.type	_Z41__static_initialization_and_destruction_0ii, @function
_Z41__static_initialization_and_destruction_0ii:
.LFB11462:
	.cfi_startproc
	endbr64
	push	rbp
	.cfi_def_cfa_offset 16
	.cfi_offset 6, -16
	mov	rbp, rsp
	.cfi_def_cfa_register 6
	sub	rsp, 16
	mov	DWORD PTR -4[rbp], edi
	mov	DWORD PTR -8[rbp], esi
	cmp	DWORD PTR -4[rbp], 1
	jne	.L19
	cmp	DWORD PTR -8[rbp], 65535
	jne	.L19
	lea	rax, _ZStL8__ioinit[rip]
	mov	rdi, rax
	call	_ZNSt8ios_base4InitC1Ev@PLT
	lea	rax, __dso_handle[rip]
	mov	rdx, rax
	lea	rax, _ZStL8__ioinit[rip]
	mov	rsi, rax
	mov	rax, QWORD PTR _ZNSt8ios_base4InitD1Ev@GOTPCREL[rip]
	mov	rdi, rax
	call	__cxa_atexit@PLT
.L19:
	nop
	leave
	.cfi_def_cfa 7, 8
	ret
	.cfi_endproc
.LFE11462:
	.size	_Z41__static_initialization_and_destruction_0ii, .-_Z41__static_initialization_and_destruction_0ii
	.type	_GLOBAL__sub_I_MOD, @function
_GLOBAL__sub_I_MOD:
.LFB11485:
	.cfi_startproc
	endbr64
	push	rbp
	.cfi_def_cfa_offset 16
	.cfi_offset 6, -16
	mov	rbp, rsp
	.cfi_def_cfa_register 6
	mov	esi, 65535
	mov	edi, 1
	call	_Z41__static_initialization_and_destruction_0ii
	pop	rbp
	.cfi_def_cfa 7, 8
	ret
	.cfi_endproc
.LFE11485:
	.size	_GLOBAL__sub_I_MOD, .-_GLOBAL__sub_I_MOD
	.section	.init_array,"aw"
	.align 8
	.quad	_GLOBAL__sub_I_MOD
	.hidden	__dso_handle
	.ident	"GCC: (Ubuntu 11.4.0-1ubuntu1~22.04.2) 11.4.0"
	.section	.note.GNU-stack,"",@progbits
	.section	.note.gnu.property,"a"
	.align 8
	.long	1f - 0f
	.long	4f - 1f
	.long	5
0:
	.string	"GNU"
1:
	.align 8
	.long	0xc0000002
	.long	3f - 2f
2:
	.long	0x3
3:
	.align 8
4:
