	.file	"Array Balancing.cpp"
	.intel_syntax noprefix
	.text
	.local	_ZStL8__ioinit
	.comm	_ZStL8__ioinit,1,1
	.section	.rodata
	.type	_ZN6__pstl9execution2v1L3seqE, @object
	.size	_ZN6__pstl9execution2v1L3seqE, 1
_ZN6__pstl9execution2v1L3seqE:
	.zero	1
	.type	_ZN6__pstl9execution2v1L3parE, @object
	.size	_ZN6__pstl9execution2v1L3parE, 1
_ZN6__pstl9execution2v1L3parE:
	.zero	1
	.type	_ZN6__pstl9execution2v1L9par_unseqE, @object
	.size	_ZN6__pstl9execution2v1L9par_unseqE, 1
_ZN6__pstl9execution2v1L9par_unseqE:
	.zero	1
	.type	_ZN6__pstl9execution2v1L5unseqE, @object
	.size	_ZN6__pstl9execution2v1L5unseqE, 1
_ZN6__pstl9execution2v1L5unseqE:
	.zero	1
	.text
	.globl	main
	.type	main, @function
main:
.LFB3779:
	.cfi_startproc
	endbr64
	push	rbp
	.cfi_def_cfa_offset 16
	.cfi_offset 6, -16
	mov	rbp, rsp
	.cfi_def_cfa_register 6
	push	r15
	push	r14
	push	r13
	push	r12
	push	rbx
	sub	rsp, 120
	.cfi_offset 15, -24
	.cfi_offset 14, -32
	.cfi_offset 13, -40
	.cfi_offset 12, -48
	.cfi_offset 3, -56
	mov	rax, QWORD PTR fs:40
	mov	QWORD PTR -56[rbp], rax
	xor	eax, eax
	lea	rax, -124[rbp]
	mov	rsi, rax
	lea	rax, _ZSt3cin[rip]
	mov	rdi, rax
	call	_ZNSirsERi@PLT
	mov	DWORD PTR -116[rbp], 0
	jmp	.L2
.L18:
	mov	rax, rsp
	mov	rbx, rax
	mov	QWORD PTR -96[rbp], 0
	lea	rax, -120[rbp]
	mov	rsi, rax
	lea	rax, _ZSt3cin[rip]
	mov	rdi, rax
	call	_ZNSirsERi@PLT
	mov	eax, DWORD PTR -120[rbp]
	movsx	rdx, eax
	sub	rdx, 1
	mov	QWORD PTR -88[rbp], rdx
	movsx	rdx, eax
	mov	r12, rdx
	mov	r13d, 0
	movsx	rdx, eax
	mov	r14, rdx
	mov	r15d, 0
	cdqe
	lea	rdx, 0[0+rax*4]
	mov	eax, 16
	sub	rax, 1
	add	rax, rdx
	mov	edi, 16
	mov	edx, 0
	div	rdi
	imul	rax, rax, 16
	mov	rcx, rax
	and	rcx, -4096
	mov	rdx, rsp
	sub	rdx, rcx
.L3:
	cmp	rsp, rdx
	je	.L4
	sub	rsp, 4096
	or	QWORD PTR 4088[rsp], 0
	jmp	.L3
.L4:
	mov	rdx, rax
	and	edx, 4095
	sub	rsp, rdx
	mov	rdx, rax
	and	edx, 4095
	test	rdx, rdx
	je	.L5
	and	eax, 4095
	sub	rax, 8
	add	rax, rsp
	or	QWORD PTR [rax], 0
.L5:
	mov	rax, rsp
	add	rax, 3
	shr	rax, 2
	sal	rax, 2
	mov	QWORD PTR -80[rbp], rax
	mov	eax, DWORD PTR -120[rbp]
	movsx	rdx, eax
	sub	rdx, 1
	mov	QWORD PTR -72[rbp], rdx
	movsx	rdx, eax
	mov	QWORD PTR -144[rbp], rdx
	mov	QWORD PTR -136[rbp], 0
	movsx	rdx, eax
	mov	QWORD PTR -160[rbp], rdx
	mov	QWORD PTR -152[rbp], 0
	cdqe
	lea	rdx, 0[0+rax*4]
	mov	eax, 16
	sub	rax, 1
	add	rax, rdx
	mov	esi, 16
	mov	edx, 0
	div	rsi
	imul	rax, rax, 16
	mov	rcx, rax
	and	rcx, -4096
	mov	rdx, rsp
	sub	rdx, rcx
.L6:
	cmp	rsp, rdx
	je	.L7
	sub	rsp, 4096
	or	QWORD PTR 4088[rsp], 0
	jmp	.L6
.L7:
	mov	rdx, rax
	and	edx, 4095
	sub	rsp, rdx
	mov	rdx, rax
	and	edx, 4095
	test	rdx, rdx
	je	.L8
	and	eax, 4095
	sub	rax, 8
	add	rax, rsp
	or	QWORD PTR [rax], 0
.L8:
	mov	rax, rsp
	add	rax, 3
	shr	rax, 2
	sal	rax, 2
	mov	QWORD PTR -64[rbp], rax
	mov	DWORD PTR -112[rbp], 0
	jmp	.L9
.L10:
	mov	eax, DWORD PTR -112[rbp]
	cdqe
	lea	rdx, 0[0+rax*4]
	mov	rax, QWORD PTR -80[rbp]
	add	rax, rdx
	mov	rsi, rax
	lea	rax, _ZSt3cin[rip]
	mov	rdi, rax
	call	_ZNSirsERi@PLT
	add	DWORD PTR -112[rbp], 1
.L9:
	mov	eax, DWORD PTR -120[rbp]
	cmp	DWORD PTR -112[rbp], eax
	jl	.L10
	mov	DWORD PTR -108[rbp], 0
	jmp	.L11
.L12:
	mov	eax, DWORD PTR -108[rbp]
	cdqe
	lea	rdx, 0[0+rax*4]
	mov	rax, QWORD PTR -64[rbp]
	add	rax, rdx
	mov	rsi, rax
	lea	rax, _ZSt3cin[rip]
	mov	rdi, rax
	call	_ZNSirsERi@PLT
	add	DWORD PTR -108[rbp], 1
.L11:
	mov	eax, DWORD PTR -120[rbp]
	cmp	DWORD PTR -108[rbp], eax
	jl	.L12
	mov	DWORD PTR -104[rbp], 0
	jmp	.L13
.L15:
	mov	rax, QWORD PTR -80[rbp]
	mov	edx, DWORD PTR -104[rbp]
	movsx	rdx, edx
	mov	ecx, DWORD PTR [rax+rdx*4]
	mov	rax, QWORD PTR -64[rbp]
	mov	edx, DWORD PTR -104[rbp]
	movsx	rdx, edx
	mov	eax, DWORD PTR [rax+rdx*4]
	cmp	ecx, eax
	jle	.L14
	mov	eax, DWORD PTR -104[rbp]
	cdqe
	lea	rdx, 0[0+rax*4]
	mov	rax, QWORD PTR -64[rbp]
	add	rdx, rax
	mov	eax, DWORD PTR -104[rbp]
	cdqe
	lea	rcx, 0[0+rax*4]
	mov	rax, QWORD PTR -80[rbp]
	add	rax, rcx
	mov	rsi, rdx
	mov	rdi, rax
	call	_ZSt4swapIiENSt9enable_ifIXsrSt6__and_IJSt6__not_ISt15__is_tuple_likeIT_EESt21is_move_constructibleIS4_ESt18is_move_assignableIS4_EEE5valueEvE4typeERS4_SE_
.L14:
	add	DWORD PTR -104[rbp], 1
.L13:
	mov	eax, DWORD PTR -120[rbp]
	cmp	DWORD PTR -104[rbp], eax
	jl	.L15
	mov	DWORD PTR -100[rbp], 0
	jmp	.L16
.L17:
	mov	rax, QWORD PTR -80[rbp]
	mov	edx, DWORD PTR -100[rbp]
	movsx	rdx, edx
	mov	ecx, DWORD PTR [rax+rdx*4]
	mov	eax, DWORD PTR -100[rbp]
	lea	edx, 1[rax]
	mov	rax, QWORD PTR -80[rbp]
	movsx	rdx, edx
	mov	edx, DWORD PTR [rax+rdx*4]
	mov	eax, ecx
	sub	eax, edx
	mov	edx, eax
	neg	edx
	cmovns	eax, edx
	mov	esi, eax
	mov	rax, QWORD PTR -64[rbp]
	mov	edx, DWORD PTR -100[rbp]
	movsx	rdx, edx
	mov	ecx, DWORD PTR [rax+rdx*4]
	mov	eax, DWORD PTR -100[rbp]
	lea	edx, 1[rax]
	mov	rax, QWORD PTR -64[rbp]
	movsx	rdx, edx
	mov	edx, DWORD PTR [rax+rdx*4]
	mov	eax, ecx
	sub	eax, edx
	mov	edx, eax
	neg	edx
	cmovns	eax, edx
	add	eax, esi
	cdqe
	add	QWORD PTR -96[rbp], rax
	add	DWORD PTR -100[rbp], 1
.L16:
	mov	eax, DWORD PTR -120[rbp]
	sub	eax, 1
	cmp	DWORD PTR -100[rbp], eax
	jl	.L17
	mov	rax, QWORD PTR -96[rbp]
	mov	rsi, rax
	lea	rax, _ZSt4cout[rip]
	mov	rdi, rax
	call	_ZNSolsEx@PLT
	mov	rdx, QWORD PTR _ZSt4endlIcSt11char_traitsIcEERSt13basic_ostreamIT_T0_ES6_@GOTPCREL[rip]
	mov	rsi, rdx
	mov	rdi, rax
	call	_ZNSolsEPFRSoS_E@PLT
	mov	rsp, rbx
	add	DWORD PTR -116[rbp], 1
.L2:
	mov	eax, DWORD PTR -124[rbp]
	cmp	DWORD PTR -116[rbp], eax
	jl	.L18
	mov	eax, 0
	mov	rdx, QWORD PTR -56[rbp]
	sub	rdx, QWORD PTR fs:40
	je	.L20
	call	__stack_chk_fail@PLT
.L20:
	lea	rsp, -40[rbp]
	pop	rbx
	pop	r12
	pop	r13
	pop	r14
	pop	r15
	pop	rbp
	.cfi_def_cfa 7, 8
	ret
	.cfi_endproc
.LFE3779:
	.size	main, .-main
	.section	.text._ZSt4moveIRiEONSt16remove_referenceIT_E4typeEOS2_,"axG",@progbits,_ZSt4moveIRiEONSt16remove_referenceIT_E4typeEOS2_,comdat
	.weak	_ZSt4moveIRiEONSt16remove_referenceIT_E4typeEOS2_
	.type	_ZSt4moveIRiEONSt16remove_referenceIT_E4typeEOS2_, @function
_ZSt4moveIRiEONSt16remove_referenceIT_E4typeEOS2_:
.LFB4101:
	.cfi_startproc
	endbr64
	push	rbp
	.cfi_def_cfa_offset 16
	.cfi_offset 6, -16
	mov	rbp, rsp
	.cfi_def_cfa_register 6
	mov	QWORD PTR -8[rbp], rdi
	mov	rax, QWORD PTR -8[rbp]
	pop	rbp
	.cfi_def_cfa 7, 8
	ret
	.cfi_endproc
.LFE4101:
	.size	_ZSt4moveIRiEONSt16remove_referenceIT_E4typeEOS2_, .-_ZSt4moveIRiEONSt16remove_referenceIT_E4typeEOS2_
	.section	.text._ZSt4swapIiENSt9enable_ifIXsrSt6__and_IJSt6__not_ISt15__is_tuple_likeIT_EESt21is_move_constructibleIS4_ESt18is_move_assignableIS4_EEE5valueEvE4typeERS4_SE_,"axG",@progbits,_ZSt4swapIiENSt9enable_ifIXsrSt6__and_IJSt6__not_ISt15__is_tuple_likeIT_EESt21is_move_constructibleIS4_ESt18is_move_assignableIS4_EEE5valueEvE4typeERS4_SE_,comdat
	.weak	_ZSt4swapIiENSt9enable_ifIXsrSt6__and_IJSt6__not_ISt15__is_tuple_likeIT_EESt21is_move_constructibleIS4_ESt18is_move_assignableIS4_EEE5valueEvE4typeERS4_SE_
	.type	_ZSt4swapIiENSt9enable_ifIXsrSt6__and_IJSt6__not_ISt15__is_tuple_likeIT_EESt21is_move_constructibleIS4_ESt18is_move_assignableIS4_EEE5valueEvE4typeERS4_SE_, @function
_ZSt4swapIiENSt9enable_ifIXsrSt6__and_IJSt6__not_ISt15__is_tuple_likeIT_EESt21is_move_constructibleIS4_ESt18is_move_assignableIS4_EEE5valueEvE4typeERS4_SE_:
.LFB4100:
	.cfi_startproc
	endbr64
	push	rbp
	.cfi_def_cfa_offset 16
	.cfi_offset 6, -16
	mov	rbp, rsp
	.cfi_def_cfa_register 6
	sub	rsp, 32
	mov	QWORD PTR -24[rbp], rdi
	mov	QWORD PTR -32[rbp], rsi
	mov	rax, QWORD PTR fs:40
	mov	QWORD PTR -8[rbp], rax
	xor	eax, eax
	mov	rax, QWORD PTR -24[rbp]
	mov	rdi, rax
	call	_ZSt4moveIRiEONSt16remove_referenceIT_E4typeEOS2_
	mov	eax, DWORD PTR [rax]
	mov	DWORD PTR -12[rbp], eax
	mov	rax, QWORD PTR -32[rbp]
	mov	rdi, rax
	call	_ZSt4moveIRiEONSt16remove_referenceIT_E4typeEOS2_
	mov	edx, DWORD PTR [rax]
	mov	rax, QWORD PTR -24[rbp]
	mov	DWORD PTR [rax], edx
	lea	rax, -12[rbp]
	mov	rdi, rax
	call	_ZSt4moveIRiEONSt16remove_referenceIT_E4typeEOS2_
	mov	edx, DWORD PTR [rax]
	mov	rax, QWORD PTR -32[rbp]
	mov	DWORD PTR [rax], edx
	nop
	mov	rax, QWORD PTR -8[rbp]
	sub	rax, QWORD PTR fs:40
	je	.L24
	call	__stack_chk_fail@PLT
.L24:
	leave
	.cfi_def_cfa 7, 8
	ret
	.cfi_endproc
.LFE4100:
	.size	_ZSt4swapIiENSt9enable_ifIXsrSt6__and_IJSt6__not_ISt15__is_tuple_likeIT_EESt21is_move_constructibleIS4_ESt18is_move_assignableIS4_EEE5valueEvE4typeERS4_SE_, .-_ZSt4swapIiENSt9enable_ifIXsrSt6__and_IJSt6__not_ISt15__is_tuple_likeIT_EESt21is_move_constructibleIS4_ESt18is_move_assignableIS4_EEE5valueEvE4typeERS4_SE_
	.text
	.type	_Z41__static_initialization_and_destruction_0ii, @function
_Z41__static_initialization_and_destruction_0ii:
.LFB4443:
	.cfi_startproc
	endbr64
	push	rbp
	.cfi_def_cfa_offset 16
	.cfi_offset 6, -16
	mov	rbp, rsp
	.cfi_def_cfa_register 6
	sub	rsp, 16
	mov	DWORD PTR -4[rbp], edi
	mov	DWORD PTR -8[rbp], esi
	cmp	DWORD PTR -4[rbp], 1
	jne	.L27
	cmp	DWORD PTR -8[rbp], 65535
	jne	.L27
	lea	rax, _ZStL8__ioinit[rip]
	mov	rdi, rax
	call	_ZNSt8ios_base4InitC1Ev@PLT
	lea	rax, __dso_handle[rip]
	mov	rdx, rax
	lea	rax, _ZStL8__ioinit[rip]
	mov	rsi, rax
	mov	rax, QWORD PTR _ZNSt8ios_base4InitD1Ev@GOTPCREL[rip]
	mov	rdi, rax
	call	__cxa_atexit@PLT
.L27:
	nop
	leave
	.cfi_def_cfa 7, 8
	ret
	.cfi_endproc
.LFE4443:
	.size	_Z41__static_initialization_and_destruction_0ii, .-_Z41__static_initialization_and_destruction_0ii
	.type	_GLOBAL__sub_I_main, @function
_GLOBAL__sub_I_main:
.LFB4444:
	.cfi_startproc
	endbr64
	push	rbp
	.cfi_def_cfa_offset 16
	.cfi_offset 6, -16
	mov	rbp, rsp
	.cfi_def_cfa_register 6
	mov	esi, 65535
	mov	edi, 1
	call	_Z41__static_initialization_and_destruction_0ii
	pop	rbp
	.cfi_def_cfa 7, 8
	ret
	.cfi_endproc
.LFE4444:
	.size	_GLOBAL__sub_I_main, .-_GLOBAL__sub_I_main
	.section	.init_array,"aw"
	.align 8
	.quad	_GLOBAL__sub_I_main
	.hidden	__dso_handle
	.ident	"GCC: (Ubuntu 11.4.0-1ubuntu1~22.04.2) 11.4.0"
	.section	.note.GNU-stack,"",@progbits
	.section	.note.gnu.property,"a"
	.align 8
	.long	1f - 0f
	.long	4f - 1f
	.long	5
0:
	.string	"GNU"
1:
	.align 8
	.long	0xc0000002
	.long	3f - 2f
2:
	.long	0x3
3:
	.align 8
4:
