	.file	"C_Numeric_String_Template.cpp"
	.intel_syntax noprefix
	.text
	.weak	_ZSt19piecewise_construct
	.section	.rodata._ZSt19piecewise_construct,"aG",@progbits,_ZSt19piecewise_construct,comdat
	.type	_ZSt19piecewise_construct, @gnu_unique_object
	.size	_ZSt19piecewise_construct, 1
_ZSt19piecewise_construct:
	.zero	1
	.section	.text._ZSt17__size_to_integerm,"axG",@progbits,_ZSt17__size_to_integerm,comdat
	.weak	_ZSt17__size_to_integerm
	.type	_ZSt17__size_to_integerm, @function
_ZSt17__size_to_integerm:
.LFB538:
	.cfi_startproc
	endbr64
	push	rbp
	.cfi_def_cfa_offset 16
	.cfi_offset 6, -16
	mov	rbp, rsp
	.cfi_def_cfa_register 6
	mov	QWORD PTR -8[rbp], rdi
	mov	rax, QWORD PTR -8[rbp]
	pop	rbp
	.cfi_def_cfa 7, 8
	ret
	.cfi_endproc
.LFE538:
	.size	_ZSt17__size_to_integerm, .-_ZSt17__size_to_integerm
	.section	.text._ZnwmPv,"axG",@progbits,_ZnwmPv,comdat
	.weak	_ZnwmPv
	.type	_ZnwmPv, @function
_ZnwmPv:
.LFB1007:
	.cfi_startproc
	endbr64
	push	rbp
	.cfi_def_cfa_offset 16
	.cfi_offset 6, -16
	mov	rbp, rsp
	.cfi_def_cfa_register 6
	mov	QWORD PTR -8[rbp], rdi
	mov	QWORD PTR -16[rbp], rsi
	mov	rax, QWORD PTR -16[rbp]
	pop	rbp
	.cfi_def_cfa 7, 8
	ret
	.cfi_endproc
.LFE1007:
	.size	_ZnwmPv, .-_ZnwmPv
	.section	.text._ZdlPvS_,"axG",@progbits,_ZdlPvS_,comdat
	.weak	_ZdlPvS_
	.type	_ZdlPvS_, @function
_ZdlPvS_:
.LFB1009:
	.cfi_startproc
	endbr64
	push	rbp
	.cfi_def_cfa_offset 16
	.cfi_offset 6, -16
	mov	rbp, rsp
	.cfi_def_cfa_register 6
	mov	QWORD PTR -8[rbp], rdi
	mov	QWORD PTR -16[rbp], rsi
	nop
	pop	rbp
	.cfi_def_cfa 7, 8
	ret
	.cfi_endproc
.LFE1009:
	.size	_ZdlPvS_, .-_ZdlPvS_
	.section	.text._ZSt3minImERKT_S2_S2_,"axG",@progbits,_ZSt3minImERKT_S2_S2_,comdat
	.weak	_ZSt3minImERKT_S2_S2_
	.type	_ZSt3minImERKT_S2_S2_, @function
_ZSt3minImERKT_S2_S2_:
.LFB3255:
	.cfi_startproc
	endbr64
	push	rbp
	.cfi_def_cfa_offset 16
	.cfi_offset 6, -16
	mov	rbp, rsp
	.cfi_def_cfa_register 6
	mov	QWORD PTR -8[rbp], rdi
	mov	QWORD PTR -16[rbp], rsi
	mov	rax, QWORD PTR -16[rbp]
	mov	rdx, QWORD PTR [rax]
	mov	rax, QWORD PTR -8[rbp]
	mov	rax, QWORD PTR [rax]
	cmp	rdx, rax
	jnb	.L7
	mov	rax, QWORD PTR -16[rbp]
	jmp	.L8
.L7:
	mov	rax, QWORD PTR -8[rbp]
.L8:
	pop	rbp
	.cfi_def_cfa 7, 8
	ret
	.cfi_endproc
.LFE3255:
	.size	_ZSt3minImERKT_S2_S2_, .-_ZSt3minImERKT_S2_S2_
	.section	.rodata
	.type	_ZN6__pstl9execution2v1L3seqE, @object
	.size	_ZN6__pstl9execution2v1L3seqE, 1
_ZN6__pstl9execution2v1L3seqE:
	.zero	1
	.type	_ZN6__pstl9execution2v1L3parE, @object
	.size	_ZN6__pstl9execution2v1L3parE, 1
_ZN6__pstl9execution2v1L3parE:
	.zero	1
	.type	_ZN6__pstl9execution2v1L9par_unseqE, @object
	.size	_ZN6__pstl9execution2v1L9par_unseqE, 1
_ZN6__pstl9execution2v1L9par_unseqE:
	.zero	1
	.type	_ZN6__pstl9execution2v1L5unseqE, @object
	.size	_ZN6__pstl9execution2v1L5unseqE, 1
_ZN6__pstl9execution2v1L5unseqE:
	.zero	1
	.local	_ZStL8__ioinit
	.comm	_ZStL8__ioinit,1,1
	.section	.text._ZNSt15_Rb_tree_headerC2Ev,"axG",@progbits,_ZNSt15_Rb_tree_headerC5Ev,comdat
	.align 2
	.weak	_ZNSt15_Rb_tree_headerC2Ev
	.type	_ZNSt15_Rb_tree_headerC2Ev, @function
_ZNSt15_Rb_tree_headerC2Ev:
.LFB5009:
	.cfi_startproc
	endbr64
	push	rbp
	.cfi_def_cfa_offset 16
	.cfi_offset 6, -16
	mov	rbp, rsp
	.cfi_def_cfa_register 6
	sub	rsp, 16
	mov	QWORD PTR -8[rbp], rdi
	mov	rax, QWORD PTR -8[rbp]
	mov	DWORD PTR [rax], 0
	mov	rax, QWORD PTR -8[rbp]
	mov	rdi, rax
	call	_ZNSt15_Rb_tree_header8_M_resetEv
	nop
	leave
	.cfi_def_cfa 7, 8
	ret
	.cfi_endproc
.LFE5009:
	.size	_ZNSt15_Rb_tree_headerC2Ev, .-_ZNSt15_Rb_tree_headerC2Ev
	.weak	_ZNSt15_Rb_tree_headerC1Ev
	.set	_ZNSt15_Rb_tree_headerC1Ev,_ZNSt15_Rb_tree_headerC2Ev
	.section	.text._ZNSt15_Rb_tree_header8_M_resetEv,"axG",@progbits,_ZNSt15_Rb_tree_header8_M_resetEv,comdat
	.align 2
	.weak	_ZNSt15_Rb_tree_header8_M_resetEv
	.type	_ZNSt15_Rb_tree_header8_M_resetEv, @function
_ZNSt15_Rb_tree_header8_M_resetEv:
.LFB5015:
	.cfi_startproc
	endbr64
	push	rbp
	.cfi_def_cfa_offset 16
	.cfi_offset 6, -16
	mov	rbp, rsp
	.cfi_def_cfa_register 6
	mov	QWORD PTR -8[rbp], rdi
	mov	rax, QWORD PTR -8[rbp]
	mov	QWORD PTR 8[rax], 0
	mov	rdx, QWORD PTR -8[rbp]
	mov	rax, QWORD PTR -8[rbp]
	mov	QWORD PTR 16[rax], rdx
	mov	rdx, QWORD PTR -8[rbp]
	mov	rax, QWORD PTR -8[rbp]
	mov	QWORD PTR 24[rax], rdx
	mov	rax, QWORD PTR -8[rbp]
	mov	QWORD PTR 32[rax], 0
	nop
	pop	rbp
	.cfi_def_cfa 7, 8
	ret
	.cfi_endproc
.LFE5015:
	.size	_ZNSt15_Rb_tree_header8_M_resetEv, .-_ZNSt15_Rb_tree_header8_M_resetEv
	.section	.rodata
	.align 4
	.type	_ZN9__gnu_cxxL21__default_lock_policyE, @object
	.size	_ZN9__gnu_cxxL21__default_lock_policyE, 4
_ZN9__gnu_cxxL21__default_lock_policyE:
	.long	2
	.align 4
	.type	_ZNSt15regex_constantsL13error_collateE, @object
	.size	_ZNSt15regex_constantsL13error_collateE, 4
_ZNSt15regex_constantsL13error_collateE:
	.zero	4
	.align 4
	.type	_ZNSt15regex_constantsL11error_ctypeE, @object
	.size	_ZNSt15regex_constantsL11error_ctypeE, 4
_ZNSt15regex_constantsL11error_ctypeE:
	.long	1
	.align 4
	.type	_ZNSt15regex_constantsL12error_escapeE, @object
	.size	_ZNSt15regex_constantsL12error_escapeE, 4
_ZNSt15regex_constantsL12error_escapeE:
	.long	2
	.align 4
	.type	_ZNSt15regex_constantsL13error_backrefE, @object
	.size	_ZNSt15regex_constantsL13error_backrefE, 4
_ZNSt15regex_constantsL13error_backrefE:
	.long	3
	.align 4
	.type	_ZNSt15regex_constantsL11error_brackE, @object
	.size	_ZNSt15regex_constantsL11error_brackE, 4
_ZNSt15regex_constantsL11error_brackE:
	.long	4
	.align 4
	.type	_ZNSt15regex_constantsL11error_parenE, @object
	.size	_ZNSt15regex_constantsL11error_parenE, 4
_ZNSt15regex_constantsL11error_parenE:
	.long	5
	.align 4
	.type	_ZNSt15regex_constantsL11error_braceE, @object
	.size	_ZNSt15regex_constantsL11error_braceE, 4
_ZNSt15regex_constantsL11error_braceE:
	.long	6
	.align 4
	.type	_ZNSt15regex_constantsL14error_badbraceE, @object
	.size	_ZNSt15regex_constantsL14error_badbraceE, 4
_ZNSt15regex_constantsL14error_badbraceE:
	.long	7
	.align 4
	.type	_ZNSt15regex_constantsL11error_rangeE, @object
	.size	_ZNSt15regex_constantsL11error_rangeE, 4
_ZNSt15regex_constantsL11error_rangeE:
	.long	8
	.align 4
	.type	_ZNSt15regex_constantsL11error_spaceE, @object
	.size	_ZNSt15regex_constantsL11error_spaceE, 4
_ZNSt15regex_constantsL11error_spaceE:
	.long	9
	.align 4
	.type	_ZNSt15regex_constantsL15error_badrepeatE, @object
	.size	_ZNSt15regex_constantsL15error_badrepeatE, 4
_ZNSt15regex_constantsL15error_badrepeatE:
	.long	10
	.align 4
	.type	_ZNSt15regex_constantsL16error_complexityE, @object
	.size	_ZNSt15regex_constantsL16error_complexityE, 4
_ZNSt15regex_constantsL16error_complexityE:
	.long	11
	.align 4
	.type	_ZNSt15regex_constantsL11error_stackE, @object
	.size	_ZNSt15regex_constantsL11error_stackE, 4
_ZNSt15regex_constantsL11error_stackE:
	.long	12
	.align 8
	.type	_ZNSt8__detailL19_S_invalid_state_idE, @object
	.size	_ZNSt8__detailL19_S_invalid_state_idE, 8
_ZNSt8__detailL19_S_invalid_state_idE:
	.quad	-1
.LC0:
	.string	"r"
.LC1:
	.string	"input.txt"
.LC2:
	.string	"w"
.LC3:
	.string	"output.txt"
	.text
	.globl	_Z5setupv
	.type	_Z5setupv, @function
_Z5setupv:
.LFB9704:
	.cfi_startproc
	endbr64
	push	rbp
	.cfi_def_cfa_offset 16
	.cfi_offset 6, -16
	mov	rbp, rsp
	.cfi_def_cfa_register 6
	mov	edi, 0
	call	_ZNSt8ios_base15sync_with_stdioEb@PLT
	mov	esi, 0
	lea	rax, _ZSt3cin[rip+16]
	mov	rdi, rax
	call	_ZNSt9basic_iosIcSt11char_traitsIcEE3tieEPSo@PLT
	mov	esi, 0
	lea	rax, _ZSt4cout[rip+8]
	mov	rdi, rax
	call	_ZNSt9basic_iosIcSt11char_traitsIcEE3tieEPSo@PLT
	mov	rax, QWORD PTR stdin[rip]
	mov	rdx, rax
	lea	rax, .LC0[rip]
	mov	rsi, rax
	lea	rax, .LC1[rip]
	mov	rdi, rax
	call	freopen@PLT
	mov	rax, QWORD PTR stdout[rip]
	mov	rdx, rax
	lea	rax, .LC2[rip]
	mov	rsi, rax
	lea	rax, .LC3[rip]
	mov	rdi, rax
	call	freopen@PLT
	nop
	pop	rbp
	.cfi_def_cfa 7, 8
	ret
	.cfi_endproc
.LFE9704:
	.size	_Z5setupv, .-_Z5setupv
	.section	.text._ZNSt8_Rb_treeIcSt4pairIKcSt3setIiSt4lessIiESaIiEEESt10_Select1stIS7_ES3_IcESaIS7_EE13_Rb_tree_implISA_Lb1EED2Ev,"axG",@progbits,_ZNSt8_Rb_treeIcSt4pairIKcSt3setIiSt4lessIiESaIiEEESt10_Select1stIS7_ES3_IcESaIS7_EE13_Rb_tree_implISA_Lb1EED5Ev,comdat
	.align 2
	.weak	_ZNSt8_Rb_treeIcSt4pairIKcSt3setIiSt4lessIiESaIiEEESt10_Select1stIS7_ES3_IcESaIS7_EE13_Rb_tree_implISA_Lb1EED2Ev
	.type	_ZNSt8_Rb_treeIcSt4pairIKcSt3setIiSt4lessIiESaIiEEESt10_Select1stIS7_ES3_IcESaIS7_EE13_Rb_tree_implISA_Lb1EED2Ev, @function
_ZNSt8_Rb_treeIcSt4pairIKcSt3setIiSt4lessIiESaIiEEESt10_Select1stIS7_ES3_IcESaIS7_EE13_Rb_tree_implISA_Lb1EED2Ev:
.LFB9712:
	.cfi_startproc
	endbr64
	push	rbp
	.cfi_def_cfa_offset 16
	.cfi_offset 6, -16
	mov	rbp, rsp
	.cfi_def_cfa_register 6
	sub	rsp, 16
	mov	QWORD PTR -8[rbp], rdi
	mov	rax, QWORD PTR -8[rbp]
	mov	rdi, rax
	call	_ZNSaISt13_Rb_tree_nodeISt4pairIKcSt3setIiSt4lessIiESaIiEEEEED2Ev
	nop
	leave
	.cfi_def_cfa 7, 8
	ret
	.cfi_endproc
.LFE9712:
	.size	_ZNSt8_Rb_treeIcSt4pairIKcSt3setIiSt4lessIiESaIiEEESt10_Select1stIS7_ES3_IcESaIS7_EE13_Rb_tree_implISA_Lb1EED2Ev, .-_ZNSt8_Rb_treeIcSt4pairIKcSt3setIiSt4lessIiESaIiEEESt10_Select1stIS7_ES3_IcESaIS7_EE13_Rb_tree_implISA_Lb1EED2Ev
	.weak	_ZNSt8_Rb_treeIcSt4pairIKcSt3setIiSt4lessIiESaIiEEESt10_Select1stIS7_ES3_IcESaIS7_EE13_Rb_tree_implISA_Lb1EED1Ev
	.set	_ZNSt8_Rb_treeIcSt4pairIKcSt3setIiSt4lessIiESaIiEEESt10_Select1stIS7_ES3_IcESaIS7_EE13_Rb_tree_implISA_Lb1EED1Ev,_ZNSt8_Rb_treeIcSt4pairIKcSt3setIiSt4lessIiESaIiEEESt10_Select1stIS7_ES3_IcESaIS7_EE13_Rb_tree_implISA_Lb1EED2Ev
	.section	.text._ZNSt8_Rb_treeIcSt4pairIKcSt3setIiSt4lessIiESaIiEEESt10_Select1stIS7_ES3_IcESaIS7_EEC2Ev,"axG",@progbits,_ZNSt8_Rb_treeIcSt4pairIKcSt3setIiSt4lessIiESaIiEEESt10_Select1stIS7_ES3_IcESaIS7_EEC5Ev,comdat
	.align 2
	.weak	_ZNSt8_Rb_treeIcSt4pairIKcSt3setIiSt4lessIiESaIiEEESt10_Select1stIS7_ES3_IcESaIS7_EEC2Ev
	.type	_ZNSt8_Rb_treeIcSt4pairIKcSt3setIiSt4lessIiESaIiEEESt10_Select1stIS7_ES3_IcESaIS7_EEC2Ev, @function
_ZNSt8_Rb_treeIcSt4pairIKcSt3setIiSt4lessIiESaIiEEESt10_Select1stIS7_ES3_IcESaIS7_EEC2Ev:
.LFB9714:
	.cfi_startproc
	endbr64
	push	rbp
	.cfi_def_cfa_offset 16
	.cfi_offset 6, -16
	mov	rbp, rsp
	.cfi_def_cfa_register 6
	sub	rsp, 16
	mov	QWORD PTR -8[rbp], rdi
	mov	rax, QWORD PTR -8[rbp]
	mov	rdi, rax
	call	_ZNSt8_Rb_treeIcSt4pairIKcSt3setIiSt4lessIiESaIiEEESt10_Select1stIS7_ES3_IcESaIS7_EE13_Rb_tree_implISA_Lb1EEC1Ev
	nop
	leave
	.cfi_def_cfa 7, 8
	ret
	.cfi_endproc
.LFE9714:
	.size	_ZNSt8_Rb_treeIcSt4pairIKcSt3setIiSt4lessIiESaIiEEESt10_Select1stIS7_ES3_IcESaIS7_EEC2Ev, .-_ZNSt8_Rb_treeIcSt4pairIKcSt3setIiSt4lessIiESaIiEEESt10_Select1stIS7_ES3_IcESaIS7_EEC2Ev
	.weak	_ZNSt8_Rb_treeIcSt4pairIKcSt3setIiSt4lessIiESaIiEEESt10_Select1stIS7_ES3_IcESaIS7_EEC1Ev
	.set	_ZNSt8_Rb_treeIcSt4pairIKcSt3setIiSt4lessIiESaIiEEESt10_Select1stIS7_ES3_IcESaIS7_EEC1Ev,_ZNSt8_Rb_treeIcSt4pairIKcSt3setIiSt4lessIiESaIiEEESt10_Select1stIS7_ES3_IcESaIS7_EEC2Ev
	.section	.text._ZNSt3mapIcSt3setIiSt4lessIiESaIiEES1_IcESaISt4pairIKcS4_EEEC2Ev,"axG",@progbits,_ZNSt3mapIcSt3setIiSt4lessIiESaIiEES1_IcESaISt4pairIKcS4_EEEC5Ev,comdat
	.align 2
	.weak	_ZNSt3mapIcSt3setIiSt4lessIiESaIiEES1_IcESaISt4pairIKcS4_EEEC2Ev
	.type	_ZNSt3mapIcSt3setIiSt4lessIiESaIiEES1_IcESaISt4pairIKcS4_EEEC2Ev, @function
_ZNSt3mapIcSt3setIiSt4lessIiESaIiEES1_IcESaISt4pairIKcS4_EEEC2Ev:
.LFB9716:
	.cfi_startproc
	endbr64
	push	rbp
	.cfi_def_cfa_offset 16
	.cfi_offset 6, -16
	mov	rbp, rsp
	.cfi_def_cfa_register 6
	sub	rsp, 16
	mov	QWORD PTR -8[rbp], rdi
	mov	rax, QWORD PTR -8[rbp]
	mov	rdi, rax
	call	_ZNSt8_Rb_treeIcSt4pairIKcSt3setIiSt4lessIiESaIiEEESt10_Select1stIS7_ES3_IcESaIS7_EEC1Ev
	nop
	leave
	.cfi_def_cfa 7, 8
	ret
	.cfi_endproc
.LFE9716:
	.size	_ZNSt3mapIcSt3setIiSt4lessIiESaIiEES1_IcESaISt4pairIKcS4_EEEC2Ev, .-_ZNSt3mapIcSt3setIiSt4lessIiESaIiEES1_IcESaISt4pairIKcS4_EEEC2Ev
	.weak	_ZNSt3mapIcSt3setIiSt4lessIiESaIiEES1_IcESaISt4pairIKcS4_EEEC1Ev
	.set	_ZNSt3mapIcSt3setIiSt4lessIiESaIiEES1_IcESaISt4pairIKcS4_EEEC1Ev,_ZNSt3mapIcSt3setIiSt4lessIiESaIiEES1_IcESaISt4pairIKcS4_EEEC2Ev
	.section	.text._ZNSt3mapIcSt3setIiSt4lessIiESaIiEES1_IcESaISt4pairIKcS4_EEED2Ev,"axG",@progbits,_ZNSt3mapIcSt3setIiSt4lessIiESaIiEES1_IcESaISt4pairIKcS4_EEED5Ev,comdat
	.align 2
	.weak	_ZNSt3mapIcSt3setIiSt4lessIiESaIiEES1_IcESaISt4pairIKcS4_EEED2Ev
	.type	_ZNSt3mapIcSt3setIiSt4lessIiESaIiEES1_IcESaISt4pairIKcS4_EEED2Ev, @function
_ZNSt3mapIcSt3setIiSt4lessIiESaIiEES1_IcESaISt4pairIKcS4_EEED2Ev:
.LFB9719:
	.cfi_startproc
	endbr64
	push	rbp
	.cfi_def_cfa_offset 16
	.cfi_offset 6, -16
	mov	rbp, rsp
	.cfi_def_cfa_register 6
	sub	rsp, 16
	mov	QWORD PTR -8[rbp], rdi
	mov	rax, QWORD PTR -8[rbp]
	mov	rdi, rax
	call	_ZNSt8_Rb_treeIcSt4pairIKcSt3setIiSt4lessIiESaIiEEESt10_Select1stIS7_ES3_IcESaIS7_EED1Ev
	nop
	leave
	.cfi_def_cfa 7, 8
	ret
	.cfi_endproc
.LFE9719:
	.size	_ZNSt3mapIcSt3setIiSt4lessIiESaIiEES1_IcESaISt4pairIKcS4_EEED2Ev, .-_ZNSt3mapIcSt3setIiSt4lessIiESaIiEES1_IcESaISt4pairIKcS4_EEED2Ev
	.weak	_ZNSt3mapIcSt3setIiSt4lessIiESaIiEES1_IcESaISt4pairIKcS4_EEED1Ev
	.set	_ZNSt3mapIcSt3setIiSt4lessIiESaIiEES1_IcESaISt4pairIKcS4_EEED1Ev,_ZNSt3mapIcSt3setIiSt4lessIiESaIiEES1_IcESaISt4pairIKcS4_EEED2Ev
	.section	.text._ZNSt8_Rb_treeIiSt4pairIKiSt3setIcSt4lessIcESaIcEEESt10_Select1stIS7_ES3_IiESaIS7_EE13_Rb_tree_implISA_Lb1EED2Ev,"axG",@progbits,_ZNSt8_Rb_treeIiSt4pairIKiSt3setIcSt4lessIcESaIcEEESt10_Select1stIS7_ES3_IiESaIS7_EE13_Rb_tree_implISA_Lb1EED5Ev,comdat
	.align 2
	.weak	_ZNSt8_Rb_treeIiSt4pairIKiSt3setIcSt4lessIcESaIcEEESt10_Select1stIS7_ES3_IiESaIS7_EE13_Rb_tree_implISA_Lb1EED2Ev
	.type	_ZNSt8_Rb_treeIiSt4pairIKiSt3setIcSt4lessIcESaIcEEESt10_Select1stIS7_ES3_IiESaIS7_EE13_Rb_tree_implISA_Lb1EED2Ev, @function
_ZNSt8_Rb_treeIiSt4pairIKiSt3setIcSt4lessIcESaIcEEESt10_Select1stIS7_ES3_IiESaIS7_EE13_Rb_tree_implISA_Lb1EED2Ev:
.LFB9727:
	.cfi_startproc
	endbr64
	push	rbp
	.cfi_def_cfa_offset 16
	.cfi_offset 6, -16
	mov	rbp, rsp
	.cfi_def_cfa_register 6
	sub	rsp, 16
	mov	QWORD PTR -8[rbp], rdi
	mov	rax, QWORD PTR -8[rbp]
	mov	rdi, rax
	call	_ZNSaISt13_Rb_tree_nodeISt4pairIKiSt3setIcSt4lessIcESaIcEEEEED2Ev
	nop
	leave
	.cfi_def_cfa 7, 8
	ret
	.cfi_endproc
.LFE9727:
	.size	_ZNSt8_Rb_treeIiSt4pairIKiSt3setIcSt4lessIcESaIcEEESt10_Select1stIS7_ES3_IiESaIS7_EE13_Rb_tree_implISA_Lb1EED2Ev, .-_ZNSt8_Rb_treeIiSt4pairIKiSt3setIcSt4lessIcESaIcEEESt10_Select1stIS7_ES3_IiESaIS7_EE13_Rb_tree_implISA_Lb1EED2Ev
	.weak	_ZNSt8_Rb_treeIiSt4pairIKiSt3setIcSt4lessIcESaIcEEESt10_Select1stIS7_ES3_IiESaIS7_EE13_Rb_tree_implISA_Lb1EED1Ev
	.set	_ZNSt8_Rb_treeIiSt4pairIKiSt3setIcSt4lessIcESaIcEEESt10_Select1stIS7_ES3_IiESaIS7_EE13_Rb_tree_implISA_Lb1EED1Ev,_ZNSt8_Rb_treeIiSt4pairIKiSt3setIcSt4lessIcESaIcEEESt10_Select1stIS7_ES3_IiESaIS7_EE13_Rb_tree_implISA_Lb1EED2Ev
	.section	.text._ZNSt8_Rb_treeIiSt4pairIKiSt3setIcSt4lessIcESaIcEEESt10_Select1stIS7_ES3_IiESaIS7_EEC2Ev,"axG",@progbits,_ZNSt8_Rb_treeIiSt4pairIKiSt3setIcSt4lessIcESaIcEEESt10_Select1stIS7_ES3_IiESaIS7_EEC5Ev,comdat
	.align 2
	.weak	_ZNSt8_Rb_treeIiSt4pairIKiSt3setIcSt4lessIcESaIcEEESt10_Select1stIS7_ES3_IiESaIS7_EEC2Ev
	.type	_ZNSt8_Rb_treeIiSt4pairIKiSt3setIcSt4lessIcESaIcEEESt10_Select1stIS7_ES3_IiESaIS7_EEC2Ev, @function
_ZNSt8_Rb_treeIiSt4pairIKiSt3setIcSt4lessIcESaIcEEESt10_Select1stIS7_ES3_IiESaIS7_EEC2Ev:
.LFB9729:
	.cfi_startproc
	endbr64
	push	rbp
	.cfi_def_cfa_offset 16
	.cfi_offset 6, -16
	mov	rbp, rsp
	.cfi_def_cfa_register 6
	sub	rsp, 16
	mov	QWORD PTR -8[rbp], rdi
	mov	rax, QWORD PTR -8[rbp]
	mov	rdi, rax
	call	_ZNSt8_Rb_treeIiSt4pairIKiSt3setIcSt4lessIcESaIcEEESt10_Select1stIS7_ES3_IiESaIS7_EE13_Rb_tree_implISA_Lb1EEC1Ev
	nop
	leave
	.cfi_def_cfa 7, 8
	ret
	.cfi_endproc
.LFE9729:
	.size	_ZNSt8_Rb_treeIiSt4pairIKiSt3setIcSt4lessIcESaIcEEESt10_Select1stIS7_ES3_IiESaIS7_EEC2Ev, .-_ZNSt8_Rb_treeIiSt4pairIKiSt3setIcSt4lessIcESaIcEEESt10_Select1stIS7_ES3_IiESaIS7_EEC2Ev
	.weak	_ZNSt8_Rb_treeIiSt4pairIKiSt3setIcSt4lessIcESaIcEEESt10_Select1stIS7_ES3_IiESaIS7_EEC1Ev
	.set	_ZNSt8_Rb_treeIiSt4pairIKiSt3setIcSt4lessIcESaIcEEESt10_Select1stIS7_ES3_IiESaIS7_EEC1Ev,_ZNSt8_Rb_treeIiSt4pairIKiSt3setIcSt4lessIcESaIcEEESt10_Select1stIS7_ES3_IiESaIS7_EEC2Ev
	.section	.text._ZNSt3mapIiSt3setIcSt4lessIcESaIcEES1_IiESaISt4pairIKiS4_EEEC2Ev,"axG",@progbits,_ZNSt3mapIiSt3setIcSt4lessIcESaIcEES1_IiESaISt4pairIKiS4_EEEC5Ev,comdat
	.align 2
	.weak	_ZNSt3mapIiSt3setIcSt4lessIcESaIcEES1_IiESaISt4pairIKiS4_EEEC2Ev
	.type	_ZNSt3mapIiSt3setIcSt4lessIcESaIcEES1_IiESaISt4pairIKiS4_EEEC2Ev, @function
_ZNSt3mapIiSt3setIcSt4lessIcESaIcEES1_IiESaISt4pairIKiS4_EEEC2Ev:
.LFB9731:
	.cfi_startproc
	endbr64
	push	rbp
	.cfi_def_cfa_offset 16
	.cfi_offset 6, -16
	mov	rbp, rsp
	.cfi_def_cfa_register 6
	sub	rsp, 16
	mov	QWORD PTR -8[rbp], rdi
	mov	rax, QWORD PTR -8[rbp]
	mov	rdi, rax
	call	_ZNSt8_Rb_treeIiSt4pairIKiSt3setIcSt4lessIcESaIcEEESt10_Select1stIS7_ES3_IiESaIS7_EEC1Ev
	nop
	leave
	.cfi_def_cfa 7, 8
	ret
	.cfi_endproc
.LFE9731:
	.size	_ZNSt3mapIiSt3setIcSt4lessIcESaIcEES1_IiESaISt4pairIKiS4_EEEC2Ev, .-_ZNSt3mapIiSt3setIcSt4lessIcESaIcEES1_IiESaISt4pairIKiS4_EEEC2Ev
	.weak	_ZNSt3mapIiSt3setIcSt4lessIcESaIcEES1_IiESaISt4pairIKiS4_EEEC1Ev
	.set	_ZNSt3mapIiSt3setIcSt4lessIcESaIcEES1_IiESaISt4pairIKiS4_EEEC1Ev,_ZNSt3mapIiSt3setIcSt4lessIcESaIcEES1_IiESaISt4pairIKiS4_EEEC2Ev
	.section	.text._ZNSt3mapIiSt3setIcSt4lessIcESaIcEES1_IiESaISt4pairIKiS4_EEED2Ev,"axG",@progbits,_ZNSt3mapIiSt3setIcSt4lessIcESaIcEES1_IiESaISt4pairIKiS4_EEED5Ev,comdat
	.align 2
	.weak	_ZNSt3mapIiSt3setIcSt4lessIcESaIcEES1_IiESaISt4pairIKiS4_EEED2Ev
	.type	_ZNSt3mapIiSt3setIcSt4lessIcESaIcEES1_IiESaISt4pairIKiS4_EEED2Ev, @function
_ZNSt3mapIiSt3setIcSt4lessIcESaIcEES1_IiESaISt4pairIKiS4_EEED2Ev:
.LFB9734:
	.cfi_startproc
	endbr64
	push	rbp
	.cfi_def_cfa_offset 16
	.cfi_offset 6, -16
	mov	rbp, rsp
	.cfi_def_cfa_register 6
	sub	rsp, 16
	mov	QWORD PTR -8[rbp], rdi
	mov	rax, QWORD PTR -8[rbp]
	mov	rdi, rax
	call	_ZNSt8_Rb_treeIiSt4pairIKiSt3setIcSt4lessIcESaIcEEESt10_Select1stIS7_ES3_IiESaIS7_EED1Ev
	nop
	leave
	.cfi_def_cfa 7, 8
	ret
	.cfi_endproc
.LFE9734:
	.size	_ZNSt3mapIiSt3setIcSt4lessIcESaIcEES1_IiESaISt4pairIKiS4_EEED2Ev, .-_ZNSt3mapIiSt3setIcSt4lessIcESaIcEES1_IiESaISt4pairIKiS4_EEED2Ev
	.weak	_ZNSt3mapIiSt3setIcSt4lessIcESaIcEES1_IiESaISt4pairIKiS4_EEED1Ev
	.set	_ZNSt3mapIiSt3setIcSt4lessIcESaIcEES1_IiESaISt4pairIKiS4_EEED1Ev,_ZNSt3mapIiSt3setIcSt4lessIcESaIcEES1_IiESaISt4pairIKiS4_EEED2Ev
	.section	.rodata
.LC4:
	.string	"NO"
.LC5:
	.string	"YES"
	.text
	.globl	main
	.type	main, @function
main:
.LFB9705:
	.cfi_startproc
	.cfi_personality 0x9b,DW.ref.__gxx_personality_v0
	.cfi_lsda 0x1b,.LLSDA9705
	endbr64
	push	rbp
	.cfi_def_cfa_offset 16
	.cfi_offset 6, -16
	mov	rbp, rsp
	.cfi_def_cfa_register 6
	push	rbx
	sub	rsp, 216
	.cfi_offset 3, -24
	mov	rax, QWORD PTR fs:40
	mov	QWORD PTR -24[rbp], rax
	xor	eax, eax
.LEHB0:
	call	_Z5setupv
	lea	rax, -212[rbp]
	mov	rsi, rax
	lea	rax, _ZSt3cin[rip]
	mov	rdi, rax
	call	_ZNSirsERi@PLT
	jmp	.L21
.L37:
	lea	rax, -208[rbp]
	mov	rsi, rax
	lea	rax, _ZSt3cin[rip]
	mov	rdi, rax
	call	_ZNSirsERi@PLT
.LEHE0:
	lea	rax, -112[rbp]
	mov	rdi, rax
	call	_ZNSaIiEC1Ev
	mov	eax, DWORD PTR -208[rbp]
	movsx	rcx, eax
	lea	rdx, -112[rbp]
	lea	rax, -192[rbp]
	mov	rsi, rcx
	mov	rdi, rax
.LEHB1:
	call	_ZNSt6vectorIiSaIiEEC1EmRKS0_
.LEHE1:
	lea	rax, -112[rbp]
	mov	rdi, rax
	call	_ZNSaIiED1Ev
	mov	DWORD PTR -200[rbp], 0
	jmp	.L22
.L23:
	mov	eax, DWORD PTR -200[rbp]
	movsx	rdx, eax
	lea	rax, -192[rbp]
	mov	rsi, rdx
	mov	rdi, rax
	call	_ZNSt6vectorIiSaIiEEixEm
	mov	rsi, rax
	lea	rax, _ZSt3cin[rip]
	mov	rdi, rax
.LEHB2:
	call	_ZNSirsERi@PLT
	add	DWORD PTR -200[rbp], 1
.L22:
	mov	eax, DWORD PTR -208[rbp]
	cmp	DWORD PTR -200[rbp], eax
	jl	.L23
	lea	rax, -204[rbp]
	mov	rsi, rax
	lea	rax, _ZSt3cin[rip]
	mov	rdi, rax
	call	_ZNSirsERi@PLT
.LEHE2:
	jmp	.L24
.L36:
	lea	rax, -64[rbp]
	mov	rdi, rax
	call	_ZNSt7__cxx1112basic_stringIcSt11char_traitsIcESaIcEEC1Ev@PLT
	lea	rax, -64[rbp]
	mov	rsi, rax
	lea	rax, _ZSt3cin[rip]
	mov	rdi, rax
.LEHB3:
	call	_ZStrsIcSt11char_traitsIcESaIcEERSt13basic_istreamIT_T0_ES7_RNSt7__cxx1112basic_stringIS4_S5_T1_EE@PLT
	mov	eax, DWORD PTR -208[rbp]
	movsx	rbx, eax
	lea	rax, -64[rbp]
	mov	rdi, rax
	call	_ZNKSt7__cxx1112basic_stringIcSt11char_traitsIcESaIcEE4sizeEv@PLT
	cmp	rbx, rax
	setne	al
	test	al, al
	je	.L25
	lea	rax, .LC4[rip]
	mov	rsi, rax
	lea	rax, _ZSt4cout[rip]
	mov	rdi, rax
	call	_ZStlsISt11char_traitsIcEERSt13basic_ostreamIcT_ES5_PKc@PLT
	mov	esi, 10
	mov	rdi, rax
	call	_ZStlsISt11char_traitsIcEERSt13basic_ostreamIcT_ES5_c@PLT
.LEHE3:
	mov	ebx, 0
	jmp	.L26
.L25:
	lea	rax, -160[rbp]
	mov	rdi, rax
	call	_ZNSt3mapIcSt3setIiSt4lessIiESaIiEES1_IcESaISt4pairIKcS4_EEEC1Ev
	lea	rax, -112[rbp]
	mov	rdi, rax
	call	_ZNSt3mapIiSt3setIcSt4lessIcESaIcEES1_IiESaISt4pairIKiS4_EEEC1Ev
	mov	BYTE PTR -213[rbp], 1
	mov	DWORD PTR -196[rbp], 0
	jmp	.L27
.L32:
	mov	eax, DWORD PTR -196[rbp]
	movsx	rdx, eax
	lea	rax, -192[rbp]
	mov	rsi, rdx
	mov	rdi, rax
	call	_ZNSt6vectorIiSaIiEEixEm
	mov	rdx, rax
	lea	rax, -112[rbp]
	mov	rsi, rdx
	mov	rdi, rax
.LEHB4:
	call	_ZNSt3mapIiSt3setIcSt4lessIcESaIcEES1_IiESaISt4pairIKiS4_EEEixERS7_
	mov	rbx, rax
	mov	eax, DWORD PTR -196[rbp]
	movsx	rdx, eax
	lea	rax, -64[rbp]
	mov	rsi, rdx
	mov	rdi, rax
	call	_ZNSt7__cxx1112basic_stringIcSt11char_traitsIcESaIcEEixEm@PLT
	mov	rsi, rax
	mov	rdi, rbx
	call	_ZNSt3setIcSt4lessIcESaIcEE6insertERKc
	mov	eax, DWORD PTR -196[rbp]
	movsx	rdx, eax
	lea	rax, -64[rbp]
	mov	rsi, rdx
	mov	rdi, rax
	call	_ZNSt7__cxx1112basic_stringIcSt11char_traitsIcESaIcEEixEm@PLT
	mov	rdx, rax
	lea	rax, -160[rbp]
	mov	rsi, rdx
	mov	rdi, rax
	call	_ZNSt3mapIcSt3setIiSt4lessIiESaIiEES1_IcESaISt4pairIKcS4_EEEixERS7_
	mov	rbx, rax
	mov	eax, DWORD PTR -196[rbp]
	movsx	rdx, eax
	lea	rax, -192[rbp]
	mov	rsi, rdx
	mov	rdi, rax
	call	_ZNSt6vectorIiSaIiEEixEm
	mov	rsi, rax
	mov	rdi, rbx
	call	_ZNSt3setIiSt4lessIiESaIiEE6insertERKi
	mov	eax, DWORD PTR -196[rbp]
	movsx	rdx, eax
	lea	rax, -192[rbp]
	mov	rsi, rdx
	mov	rdi, rax
	call	_ZNSt6vectorIiSaIiEEixEm
	mov	rdx, rax
	lea	rax, -112[rbp]
	mov	rsi, rdx
	mov	rdi, rax
	call	_ZNSt3mapIiSt3setIcSt4lessIcESaIcEES1_IiESaISt4pairIKiS4_EEEixERS7_
	mov	rdi, rax
	call	_ZNKSt3setIcSt4lessIcESaIcEE4sizeEv
	cmp	rax, 1
	ja	.L28
	mov	eax, DWORD PTR -196[rbp]
	movsx	rdx, eax
	lea	rax, -64[rbp]
	mov	rsi, rdx
	mov	rdi, rax
	call	_ZNSt7__cxx1112basic_stringIcSt11char_traitsIcESaIcEEixEm@PLT
	mov	rdx, rax
	lea	rax, -160[rbp]
	mov	rsi, rdx
	mov	rdi, rax
	call	_ZNSt3mapIcSt3setIiSt4lessIiESaIiEES1_IcESaISt4pairIKcS4_EEEixERS7_
	mov	rdi, rax
	call	_ZNKSt3setIiSt4lessIiESaIiEE4sizeEv
	cmp	rax, 1
	jbe	.L29
.L28:
	mov	eax, 1
	jmp	.L30
.L29:
	mov	eax, 0
.L30:
	test	al, al
	je	.L31
	mov	BYTE PTR -213[rbp], 0
.L31:
	add	DWORD PTR -196[rbp], 1
.L27:
	mov	eax, DWORD PTR -208[rbp]
	cmp	DWORD PTR -196[rbp], eax
	jl	.L32
	cmp	BYTE PTR -213[rbp], 0
	je	.L33
	lea	rax, .LC5[rip]
	mov	rsi, rax
	lea	rax, _ZSt4cout[rip]
	mov	rdi, rax
	call	_ZStlsISt11char_traitsIcEERSt13basic_ostreamIcT_ES5_PKc@PLT
	mov	esi, 10
	mov	rdi, rax
	call	_ZStlsISt11char_traitsIcEERSt13basic_ostreamIcT_ES5_c@PLT
	jmp	.L34
.L33:
	lea	rax, .LC4[rip]
	mov	rsi, rax
	lea	rax, _ZSt4cout[rip]
	mov	rdi, rax
	call	_ZStlsISt11char_traitsIcEERSt13basic_ostreamIcT_ES5_PKc@PLT
	mov	esi, 10
	mov	rdi, rax
	call	_ZStlsISt11char_traitsIcEERSt13basic_ostreamIcT_ES5_c@PLT
.LEHE4:
.L34:
	lea	rax, -112[rbp]
	mov	rdi, rax
	call	_ZNSt3mapIiSt3setIcSt4lessIcESaIcEES1_IiESaISt4pairIKiS4_EEED1Ev
	lea	rax, -160[rbp]
	mov	rdi, rax
	call	_ZNSt3mapIcSt3setIiSt4lessIiESaIiEES1_IcESaISt4pairIKcS4_EEED1Ev
	mov	ebx, 1
.L26:
	lea	rax, -64[rbp]
	mov	rdi, rax
	call	_ZNSt7__cxx1112basic_stringIcSt11char_traitsIcESaIcEED1Ev@PLT
	cmp	ebx, 1
	jne	.L24
	nop
.L24:
	mov	eax, DWORD PTR -204[rbp]
	lea	edx, -1[rax]
	mov	DWORD PTR -204[rbp], edx
	test	eax, eax
	setne	al
	test	al, al
	jne	.L36
	lea	rax, -192[rbp]
	mov	rdi, rax
	call	_ZNSt6vectorIiSaIiEED1Ev
.L21:
	mov	eax, DWORD PTR -212[rbp]
	lea	edx, -1[rax]
	mov	DWORD PTR -212[rbp], edx
	test	eax, eax
	setne	al
	test	al, al
	jne	.L37
	mov	eax, 0
	mov	rdx, QWORD PTR -24[rbp]
	sub	rdx, QWORD PTR fs:40
	je	.L43
	jmp	.L48
.L44:
	endbr64
	mov	rbx, rax
	lea	rax, -112[rbp]
	mov	rdi, rax
	call	_ZNSaIiED1Ev
	mov	rax, rbx
	mov	rdi, rax
.LEHB5:
	call	_Unwind_Resume@PLT
.L47:
	endbr64
	mov	rbx, rax
	lea	rax, -112[rbp]
	mov	rdi, rax
	call	_ZNSt3mapIiSt3setIcSt4lessIcESaIcEES1_IiESaISt4pairIKiS4_EEED1Ev
	lea	rax, -160[rbp]
	mov	rdi, rax
	call	_ZNSt3mapIcSt3setIiSt4lessIiESaIiEES1_IcESaISt4pairIKcS4_EEED1Ev
	jmp	.L41
.L46:
	endbr64
	mov	rbx, rax
.L41:
	lea	rax, -64[rbp]
	mov	rdi, rax
	call	_ZNSt7__cxx1112basic_stringIcSt11char_traitsIcESaIcEED1Ev@PLT
	jmp	.L42
.L45:
	endbr64
	mov	rbx, rax
.L42:
	lea	rax, -192[rbp]
	mov	rdi, rax
	call	_ZNSt6vectorIiSaIiEED1Ev
	mov	rax, rbx
	mov	rdi, rax
	call	_Unwind_Resume@PLT
.LEHE5:
.L48:
	call	__stack_chk_fail@PLT
.L43:
	mov	rbx, QWORD PTR -8[rbp]
	leave
	.cfi_def_cfa 7, 8
	ret
	.cfi_endproc
.LFE9705:
	.globl	__gxx_personality_v0
	.section	.gcc_except_table,"a",@progbits
.LLSDA9705:
	.byte	0xff
	.byte	0xff
	.byte	0x1
	.uleb128 .LLSDACSE9705-.LLSDACSB9705
.LLSDACSB9705:
	.uleb128 .LEHB0-.LFB9705
	.uleb128 .LEHE0-.LEHB0
	.uleb128 0
	.uleb128 0
	.uleb128 .LEHB1-.LFB9705
	.uleb128 .LEHE1-.LEHB1
	.uleb128 .L44-.LFB9705
	.uleb128 0
	.uleb128 .LEHB2-.LFB9705
	.uleb128 .LEHE2-.LEHB2
	.uleb128 .L45-.LFB9705
	.uleb128 0
	.uleb128 .LEHB3-.LFB9705
	.uleb128 .LEHE3-.LEHB3
	.uleb128 .L46-.LFB9705
	.uleb128 0
	.uleb128 .LEHB4-.LFB9705
	.uleb128 .LEHE4-.LEHB4
	.uleb128 .L47-.LFB9705
	.uleb128 0
	.uleb128 .LEHB5-.LFB9705
	.uleb128 .LEHE5-.LEHB5
	.uleb128 0
	.uleb128 0
.LLSDACSE9705:
	.text
	.size	main, .-main
	.section	.text._ZNSaIiEC2Ev,"axG",@progbits,_ZNSaIiEC5Ev,comdat
	.align 2
	.weak	_ZNSaIiEC2Ev
	.type	_ZNSaIiEC2Ev, @function
_ZNSaIiEC2Ev:
.LFB10427:
	.cfi_startproc
	endbr64
	push	rbp
	.cfi_def_cfa_offset 16
	.cfi_offset 6, -16
	mov	rbp, rsp
	.cfi_def_cfa_register 6
	sub	rsp, 16
	mov	QWORD PTR -8[rbp], rdi
	mov	rax, QWORD PTR -8[rbp]
	mov	rdi, rax
	call	_ZN9__gnu_cxx13new_allocatorIiEC2Ev
	nop
	leave
	.cfi_def_cfa 7, 8
	ret
	.cfi_endproc
.LFE10427:
	.size	_ZNSaIiEC2Ev, .-_ZNSaIiEC2Ev
	.weak	_ZNSaIiEC1Ev
	.set	_ZNSaIiEC1Ev,_ZNSaIiEC2Ev
	.section	.text._ZNSaIiED2Ev,"axG",@progbits,_ZNSaIiED5Ev,comdat
	.align 2
	.weak	_ZNSaIiED2Ev
	.type	_ZNSaIiED2Ev, @function
_ZNSaIiED2Ev:
.LFB10430:
	.cfi_startproc
	endbr64
	push	rbp
	.cfi_def_cfa_offset 16
	.cfi_offset 6, -16
	mov	rbp, rsp
	.cfi_def_cfa_register 6
	sub	rsp, 16
	mov	QWORD PTR -8[rbp], rdi
	mov	rax, QWORD PTR -8[rbp]
	mov	rdi, rax
	call	_ZN9__gnu_cxx13new_allocatorIiED2Ev
	nop
	leave
	.cfi_def_cfa 7, 8
	ret
	.cfi_endproc
.LFE10430:
	.size	_ZNSaIiED2Ev, .-_ZNSaIiED2Ev
	.weak	_ZNSaIiED1Ev
	.set	_ZNSaIiED1Ev,_ZNSaIiED2Ev
	.section	.text._ZNSt6vectorIiSaIiEEC2EmRKS0_,"axG",@progbits,_ZNSt6vectorIiSaIiEEC5EmRKS0_,comdat
	.align 2
	.weak	_ZNSt6vectorIiSaIiEEC2EmRKS0_
	.type	_ZNSt6vectorIiSaIiEEC2EmRKS0_, @function
_ZNSt6vectorIiSaIiEEC2EmRKS0_:
.LFB10433:
	.cfi_startproc
	.cfi_personality 0x9b,DW.ref.__gxx_personality_v0
	.cfi_lsda 0x1b,.LLSDA10433
	endbr64
	push	rbp
	.cfi_def_cfa_offset 16
	.cfi_offset 6, -16
	mov	rbp, rsp
	.cfi_def_cfa_register 6
	push	rbx
	sub	rsp, 40
	.cfi_offset 3, -24
	mov	QWORD PTR -24[rbp], rdi
	mov	QWORD PTR -32[rbp], rsi
	mov	QWORD PTR -40[rbp], rdx
	mov	rbx, QWORD PTR -24[rbp]
	mov	rdx, QWORD PTR -40[rbp]
	mov	rax, QWORD PTR -32[rbp]
	mov	rsi, rdx
	mov	rdi, rax
.LEHB6:
	call	_ZNSt6vectorIiSaIiEE17_S_check_init_lenEmRKS0_
	mov	rcx, rax
	mov	rax, QWORD PTR -40[rbp]
	mov	rdx, rax
	mov	rsi, rcx
	mov	rdi, rbx
	call	_ZNSt12_Vector_baseIiSaIiEEC2EmRKS0_
.LEHE6:
	mov	rdx, QWORD PTR -32[rbp]
	mov	rax, QWORD PTR -24[rbp]
	mov	rsi, rdx
	mov	rdi, rax
.LEHB7:
	call	_ZNSt6vectorIiSaIiEE21_M_default_initializeEm
.LEHE7:
	jmp	.L54
.L53:
	endbr64
	mov	rbx, rax
	mov	rax, QWORD PTR -24[rbp]
	mov	rdi, rax
	call	_ZNSt12_Vector_baseIiSaIiEED2Ev
	mov	rax, rbx
	mov	rdi, rax
.LEHB8:
	call	_Unwind_Resume@PLT
.LEHE8:
.L54:
	mov	rbx, QWORD PTR -8[rbp]
	leave
	.cfi_def_cfa 7, 8
	ret
	.cfi_endproc
.LFE10433:
	.section	.gcc_except_table
.LLSDA10433:
	.byte	0xff
	.byte	0xff
	.byte	0x1
	.uleb128 .LLSDACSE10433-.LLSDACSB10433
.LLSDACSB10433:
	.uleb128 .LEHB6-.LFB10433
	.uleb128 .LEHE6-.LEHB6
	.uleb128 0
	.uleb128 0
	.uleb128 .LEHB7-.LFB10433
	.uleb128 .LEHE7-.LEHB7
	.uleb128 .L53-.LFB10433
	.uleb128 0
	.uleb128 .LEHB8-.LFB10433
	.uleb128 .LEHE8-.LEHB8
	.uleb128 0
	.uleb128 0
.LLSDACSE10433:
	.section	.text._ZNSt6vectorIiSaIiEEC2EmRKS0_,"axG",@progbits,_ZNSt6vectorIiSaIiEEC5EmRKS0_,comdat
	.size	_ZNSt6vectorIiSaIiEEC2EmRKS0_, .-_ZNSt6vectorIiSaIiEEC2EmRKS0_
	.weak	_ZNSt6vectorIiSaIiEEC1EmRKS0_
	.set	_ZNSt6vectorIiSaIiEEC1EmRKS0_,_ZNSt6vectorIiSaIiEEC2EmRKS0_
	.section	.text._ZNSt6vectorIiSaIiEED2Ev,"axG",@progbits,_ZNSt6vectorIiSaIiEED5Ev,comdat
	.align 2
	.weak	_ZNSt6vectorIiSaIiEED2Ev
	.type	_ZNSt6vectorIiSaIiEED2Ev, @function
_ZNSt6vectorIiSaIiEED2Ev:
.LFB10436:
	.cfi_startproc
	.cfi_personality 0x9b,DW.ref.__gxx_personality_v0
	.cfi_lsda 0x1b,.LLSDA10436
	endbr64
	push	rbp
	.cfi_def_cfa_offset 16
	.cfi_offset 6, -16
	mov	rbp, rsp
	.cfi_def_cfa_register 6
	sub	rsp, 16
	mov	QWORD PTR -8[rbp], rdi
	mov	rax, QWORD PTR -8[rbp]
	mov	rdi, rax
	call	_ZNSt12_Vector_baseIiSaIiEE19_M_get_Tp_allocatorEv
	mov	rdx, rax
	mov	rax, QWORD PTR -8[rbp]
	mov	rcx, QWORD PTR 8[rax]
	mov	rax, QWORD PTR -8[rbp]
	mov	rax, QWORD PTR [rax]
	mov	rsi, rcx
	mov	rdi, rax
	call	_ZSt8_DestroyIPiiEvT_S1_RSaIT0_E
	mov	rax, QWORD PTR -8[rbp]
	mov	rdi, rax
	call	_ZNSt12_Vector_baseIiSaIiEED2Ev
	nop
	leave
	.cfi_def_cfa 7, 8
	ret
	.cfi_endproc
.LFE10436:
	.section	.gcc_except_table
.LLSDA10436:
	.byte	0xff
	.byte	0xff
	.byte	0x1
	.uleb128 .LLSDACSE10436-.LLSDACSB10436
.LLSDACSB10436:
.LLSDACSE10436:
	.section	.text._ZNSt6vectorIiSaIiEED2Ev,"axG",@progbits,_ZNSt6vectorIiSaIiEED5Ev,comdat
	.size	_ZNSt6vectorIiSaIiEED2Ev, .-_ZNSt6vectorIiSaIiEED2Ev
	.weak	_ZNSt6vectorIiSaIiEED1Ev
	.set	_ZNSt6vectorIiSaIiEED1Ev,_ZNSt6vectorIiSaIiEED2Ev
	.section	.text._ZNSt6vectorIiSaIiEEixEm,"axG",@progbits,_ZNSt6vectorIiSaIiEEixEm,comdat
	.align 2
	.weak	_ZNSt6vectorIiSaIiEEixEm
	.type	_ZNSt6vectorIiSaIiEEixEm, @function
_ZNSt6vectorIiSaIiEEixEm:
.LFB10438:
	.cfi_startproc
	endbr64
	push	rbp
	.cfi_def_cfa_offset 16
	.cfi_offset 6, -16
	mov	rbp, rsp
	.cfi_def_cfa_register 6
	mov	QWORD PTR -8[rbp], rdi
	mov	QWORD PTR -16[rbp], rsi
	mov	rax, QWORD PTR -8[rbp]
	mov	rdx, QWORD PTR [rax]
	mov	rax, QWORD PTR -16[rbp]
	sal	rax, 2
	add	rax, rdx
	pop	rbp
	.cfi_def_cfa 7, 8
	ret
	.cfi_endproc
.LFE10438:
	.size	_ZNSt6vectorIiSaIiEEixEm, .-_ZNSt6vectorIiSaIiEEixEm
	.section	.text._ZNSt8_Rb_treeIcSt4pairIKcSt3setIiSt4lessIiESaIiEEESt10_Select1stIS7_ES3_IcESaIS7_EE13_Rb_tree_implISA_Lb1EEC2Ev,"axG",@progbits,_ZNSt8_Rb_treeIcSt4pairIKcSt3setIiSt4lessIiESaIiEEESt10_Select1stIS7_ES3_IcESaIS7_EE13_Rb_tree_implISA_Lb1EEC5Ev,comdat
	.align 2
	.weak	_ZNSt8_Rb_treeIcSt4pairIKcSt3setIiSt4lessIiESaIiEEESt10_Select1stIS7_ES3_IcESaIS7_EE13_Rb_tree_implISA_Lb1EEC2Ev
	.type	_ZNSt8_Rb_treeIcSt4pairIKcSt3setIiSt4lessIiESaIiEEESt10_Select1stIS7_ES3_IcESaIS7_EE13_Rb_tree_implISA_Lb1EEC2Ev, @function
_ZNSt8_Rb_treeIcSt4pairIKcSt3setIiSt4lessIiESaIiEEESt10_Select1stIS7_ES3_IcESaIS7_EE13_Rb_tree_implISA_Lb1EEC2Ev:
.LFB10442:
	.cfi_startproc
	endbr64
	push	rbp
	.cfi_def_cfa_offset 16
	.cfi_offset 6, -16
	mov	rbp, rsp
	.cfi_def_cfa_register 6
	sub	rsp, 16
	mov	QWORD PTR -8[rbp], rdi
	mov	rax, QWORD PTR -8[rbp]
	mov	rdi, rax
	call	_ZNSaISt13_Rb_tree_nodeISt4pairIKcSt3setIiSt4lessIiESaIiEEEEEC2Ev
	mov	rax, QWORD PTR -8[rbp]
	mov	rdi, rax
	call	_ZNSt20_Rb_tree_key_compareISt4lessIcEEC2Ev
	mov	rax, QWORD PTR -8[rbp]
	add	rax, 8
	mov	rdi, rax
	call	_ZNSt15_Rb_tree_headerC2Ev
	nop
	leave
	.cfi_def_cfa 7, 8
	ret
	.cfi_endproc
.LFE10442:
	.size	_ZNSt8_Rb_treeIcSt4pairIKcSt3setIiSt4lessIiESaIiEEESt10_Select1stIS7_ES3_IcESaIS7_EE13_Rb_tree_implISA_Lb1EEC2Ev, .-_ZNSt8_Rb_treeIcSt4pairIKcSt3setIiSt4lessIiESaIiEEESt10_Select1stIS7_ES3_IcESaIS7_EE13_Rb_tree_implISA_Lb1EEC2Ev
	.weak	_ZNSt8_Rb_treeIcSt4pairIKcSt3setIiSt4lessIiESaIiEEESt10_Select1stIS7_ES3_IcESaIS7_EE13_Rb_tree_implISA_Lb1EEC1Ev
	.set	_ZNSt8_Rb_treeIcSt4pairIKcSt3setIiSt4lessIiESaIiEEESt10_Select1stIS7_ES3_IcESaIS7_EE13_Rb_tree_implISA_Lb1EEC1Ev,_ZNSt8_Rb_treeIcSt4pairIKcSt3setIiSt4lessIiESaIiEEESt10_Select1stIS7_ES3_IcESaIS7_EE13_Rb_tree_implISA_Lb1EEC2Ev
	.section	.text._ZNSaISt13_Rb_tree_nodeISt4pairIKcSt3setIiSt4lessIiESaIiEEEEED2Ev,"axG",@progbits,_ZNSaISt13_Rb_tree_nodeISt4pairIKcSt3setIiSt4lessIiESaIiEEEEED5Ev,comdat
	.align 2
	.weak	_ZNSaISt13_Rb_tree_nodeISt4pairIKcSt3setIiSt4lessIiESaIiEEEEED2Ev
	.type	_ZNSaISt13_Rb_tree_nodeISt4pairIKcSt3setIiSt4lessIiESaIiEEEEED2Ev, @function
_ZNSaISt13_Rb_tree_nodeISt4pairIKcSt3setIiSt4lessIiESaIiEEEEED2Ev:
.LFB10445:
	.cfi_startproc
	endbr64
	push	rbp
	.cfi_def_cfa_offset 16
	.cfi_offset 6, -16
	mov	rbp, rsp
	.cfi_def_cfa_register 6
	sub	rsp, 16
	mov	QWORD PTR -8[rbp], rdi
	mov	rax, QWORD PTR -8[rbp]
	mov	rdi, rax
	call	_ZN9__gnu_cxx13new_allocatorISt13_Rb_tree_nodeISt4pairIKcSt3setIiSt4lessIiESaIiEEEEED2Ev
	nop
	leave
	.cfi_def_cfa 7, 8
	ret
	.cfi_endproc
.LFE10445:
	.size	_ZNSaISt13_Rb_tree_nodeISt4pairIKcSt3setIiSt4lessIiESaIiEEEEED2Ev, .-_ZNSaISt13_Rb_tree_nodeISt4pairIKcSt3setIiSt4lessIiESaIiEEEEED2Ev
	.weak	_ZNSaISt13_Rb_tree_nodeISt4pairIKcSt3setIiSt4lessIiESaIiEEEEED1Ev
	.set	_ZNSaISt13_Rb_tree_nodeISt4pairIKcSt3setIiSt4lessIiESaIiEEEEED1Ev,_ZNSaISt13_Rb_tree_nodeISt4pairIKcSt3setIiSt4lessIiESaIiEEEEED2Ev
	.section	.text._ZNSt8_Rb_treeIcSt4pairIKcSt3setIiSt4lessIiESaIiEEESt10_Select1stIS7_ES3_IcESaIS7_EED2Ev,"axG",@progbits,_ZNSt8_Rb_treeIcSt4pairIKcSt3setIiSt4lessIiESaIiEEESt10_Select1stIS7_ES3_IcESaIS7_EED5Ev,comdat
	.align 2
	.weak	_ZNSt8_Rb_treeIcSt4pairIKcSt3setIiSt4lessIiESaIiEEESt10_Select1stIS7_ES3_IcESaIS7_EED2Ev
	.type	_ZNSt8_Rb_treeIcSt4pairIKcSt3setIiSt4lessIiESaIiEEESt10_Select1stIS7_ES3_IcESaIS7_EED2Ev, @function
_ZNSt8_Rb_treeIcSt4pairIKcSt3setIiSt4lessIiESaIiEEESt10_Select1stIS7_ES3_IcESaIS7_EED2Ev:
.LFB10448:
	.cfi_startproc
	.cfi_personality 0x9b,DW.ref.__gxx_personality_v0
	.cfi_lsda 0x1b,.LLSDA10448
	endbr64
	push	rbp
	.cfi_def_cfa_offset 16
	.cfi_offset 6, -16
	mov	rbp, rsp
	.cfi_def_cfa_register 6
	sub	rsp, 16
	mov	QWORD PTR -8[rbp], rdi
	mov	rax, QWORD PTR -8[rbp]
	mov	rdi, rax
	call	_ZNSt8_Rb_treeIcSt4pairIKcSt3setIiSt4lessIiESaIiEEESt10_Select1stIS7_ES3_IcESaIS7_EE8_M_beginEv
	mov	rdx, rax
	mov	rax, QWORD PTR -8[rbp]
	mov	rsi, rdx
	mov	rdi, rax
	call	_ZNSt8_Rb_treeIcSt4pairIKcSt3setIiSt4lessIiESaIiEEESt10_Select1stIS7_ES3_IcESaIS7_EE8_M_eraseEPSt13_Rb_tree_nodeIS7_E
	mov	rax, QWORD PTR -8[rbp]
	mov	rdi, rax
	call	_ZNSt8_Rb_treeIcSt4pairIKcSt3setIiSt4lessIiESaIiEEESt10_Select1stIS7_ES3_IcESaIS7_EE13_Rb_tree_implISA_Lb1EED1Ev
	nop
	leave
	.cfi_def_cfa 7, 8
	ret
	.cfi_endproc
.LFE10448:
	.section	.gcc_except_table
.LLSDA10448:
	.byte	0xff
	.byte	0xff
	.byte	0x1
	.uleb128 .LLSDACSE10448-.LLSDACSB10448
.LLSDACSB10448:
.LLSDACSE10448:
	.section	.text._ZNSt8_Rb_treeIcSt4pairIKcSt3setIiSt4lessIiESaIiEEESt10_Select1stIS7_ES3_IcESaIS7_EED2Ev,"axG",@progbits,_ZNSt8_Rb_treeIcSt4pairIKcSt3setIiSt4lessIiESaIiEEESt10_Select1stIS7_ES3_IcESaIS7_EED5Ev,comdat
	.size	_ZNSt8_Rb_treeIcSt4pairIKcSt3setIiSt4lessIiESaIiEEESt10_Select1stIS7_ES3_IcESaIS7_EED2Ev, .-_ZNSt8_Rb_treeIcSt4pairIKcSt3setIiSt4lessIiESaIiEEESt10_Select1stIS7_ES3_IcESaIS7_EED2Ev
	.weak	_ZNSt8_Rb_treeIcSt4pairIKcSt3setIiSt4lessIiESaIiEEESt10_Select1stIS7_ES3_IcESaIS7_EED1Ev
	.set	_ZNSt8_Rb_treeIcSt4pairIKcSt3setIiSt4lessIiESaIiEEESt10_Select1stIS7_ES3_IcESaIS7_EED1Ev,_ZNSt8_Rb_treeIcSt4pairIKcSt3setIiSt4lessIiESaIiEEESt10_Select1stIS7_ES3_IcESaIS7_EED2Ev
	.section	.text._ZNSt8_Rb_treeIiSt4pairIKiSt3setIcSt4lessIcESaIcEEESt10_Select1stIS7_ES3_IiESaIS7_EE13_Rb_tree_implISA_Lb1EEC2Ev,"axG",@progbits,_ZNSt8_Rb_treeIiSt4pairIKiSt3setIcSt4lessIcESaIcEEESt10_Select1stIS7_ES3_IiESaIS7_EE13_Rb_tree_implISA_Lb1EEC5Ev,comdat
	.align 2
	.weak	_ZNSt8_Rb_treeIiSt4pairIKiSt3setIcSt4lessIcESaIcEEESt10_Select1stIS7_ES3_IiESaIS7_EE13_Rb_tree_implISA_Lb1EEC2Ev
	.type	_ZNSt8_Rb_treeIiSt4pairIKiSt3setIcSt4lessIcESaIcEEESt10_Select1stIS7_ES3_IiESaIS7_EE13_Rb_tree_implISA_Lb1EEC2Ev, @function
_ZNSt8_Rb_treeIiSt4pairIKiSt3setIcSt4lessIcESaIcEEESt10_Select1stIS7_ES3_IiESaIS7_EE13_Rb_tree_implISA_Lb1EEC2Ev:
.LFB10451:
	.cfi_startproc
	endbr64
	push	rbp
	.cfi_def_cfa_offset 16
	.cfi_offset 6, -16
	mov	rbp, rsp
	.cfi_def_cfa_register 6
	sub	rsp, 16
	mov	QWORD PTR -8[rbp], rdi
	mov	rax, QWORD PTR -8[rbp]
	mov	rdi, rax
	call	_ZNSaISt13_Rb_tree_nodeISt4pairIKiSt3setIcSt4lessIcESaIcEEEEEC2Ev
	mov	rax, QWORD PTR -8[rbp]
	mov	rdi, rax
	call	_ZNSt20_Rb_tree_key_compareISt4lessIiEEC2Ev
	mov	rax, QWORD PTR -8[rbp]
	add	rax, 8
	mov	rdi, rax
	call	_ZNSt15_Rb_tree_headerC2Ev
	nop
	leave
	.cfi_def_cfa 7, 8
	ret
	.cfi_endproc
.LFE10451:
	.size	_ZNSt8_Rb_treeIiSt4pairIKiSt3setIcSt4lessIcESaIcEEESt10_Select1stIS7_ES3_IiESaIS7_EE13_Rb_tree_implISA_Lb1EEC2Ev, .-_ZNSt8_Rb_treeIiSt4pairIKiSt3setIcSt4lessIcESaIcEEESt10_Select1stIS7_ES3_IiESaIS7_EE13_Rb_tree_implISA_Lb1EEC2Ev
	.weak	_ZNSt8_Rb_treeIiSt4pairIKiSt3setIcSt4lessIcESaIcEEESt10_Select1stIS7_ES3_IiESaIS7_EE13_Rb_tree_implISA_Lb1EEC1Ev
	.set	_ZNSt8_Rb_treeIiSt4pairIKiSt3setIcSt4lessIcESaIcEEESt10_Select1stIS7_ES3_IiESaIS7_EE13_Rb_tree_implISA_Lb1EEC1Ev,_ZNSt8_Rb_treeIiSt4pairIKiSt3setIcSt4lessIcESaIcEEESt10_Select1stIS7_ES3_IiESaIS7_EE13_Rb_tree_implISA_Lb1EEC2Ev
	.section	.text._ZNSaISt13_Rb_tree_nodeISt4pairIKiSt3setIcSt4lessIcESaIcEEEEED2Ev,"axG",@progbits,_ZNSaISt13_Rb_tree_nodeISt4pairIKiSt3setIcSt4lessIcESaIcEEEEED5Ev,comdat
	.align 2
	.weak	_ZNSaISt13_Rb_tree_nodeISt4pairIKiSt3setIcSt4lessIcESaIcEEEEED2Ev
	.type	_ZNSaISt13_Rb_tree_nodeISt4pairIKiSt3setIcSt4lessIcESaIcEEEEED2Ev, @function
_ZNSaISt13_Rb_tree_nodeISt4pairIKiSt3setIcSt4lessIcESaIcEEEEED2Ev:
.LFB10454:
	.cfi_startproc
	endbr64
	push	rbp
	.cfi_def_cfa_offset 16
	.cfi_offset 6, -16
	mov	rbp, rsp
	.cfi_def_cfa_register 6
	sub	rsp, 16
	mov	QWORD PTR -8[rbp], rdi
	mov	rax, QWORD PTR -8[rbp]
	mov	rdi, rax
	call	_ZN9__gnu_cxx13new_allocatorISt13_Rb_tree_nodeISt4pairIKiSt3setIcSt4lessIcESaIcEEEEED2Ev
	nop
	leave
	.cfi_def_cfa 7, 8
	ret
	.cfi_endproc
.LFE10454:
	.size	_ZNSaISt13_Rb_tree_nodeISt4pairIKiSt3setIcSt4lessIcESaIcEEEEED2Ev, .-_ZNSaISt13_Rb_tree_nodeISt4pairIKiSt3setIcSt4lessIcESaIcEEEEED2Ev
	.weak	_ZNSaISt13_Rb_tree_nodeISt4pairIKiSt3setIcSt4lessIcESaIcEEEEED1Ev
	.set	_ZNSaISt13_Rb_tree_nodeISt4pairIKiSt3setIcSt4lessIcESaIcEEEEED1Ev,_ZNSaISt13_Rb_tree_nodeISt4pairIKiSt3setIcSt4lessIcESaIcEEEEED2Ev
	.section	.text._ZNSt8_Rb_treeIiSt4pairIKiSt3setIcSt4lessIcESaIcEEESt10_Select1stIS7_ES3_IiESaIS7_EED2Ev,"axG",@progbits,_ZNSt8_Rb_treeIiSt4pairIKiSt3setIcSt4lessIcESaIcEEESt10_Select1stIS7_ES3_IiESaIS7_EED5Ev,comdat
	.align 2
	.weak	_ZNSt8_Rb_treeIiSt4pairIKiSt3setIcSt4lessIcESaIcEEESt10_Select1stIS7_ES3_IiESaIS7_EED2Ev
	.type	_ZNSt8_Rb_treeIiSt4pairIKiSt3setIcSt4lessIcESaIcEEESt10_Select1stIS7_ES3_IiESaIS7_EED2Ev, @function
_ZNSt8_Rb_treeIiSt4pairIKiSt3setIcSt4lessIcESaIcEEESt10_Select1stIS7_ES3_IiESaIS7_EED2Ev:
.LFB10457:
	.cfi_startproc
	.cfi_personality 0x9b,DW.ref.__gxx_personality_v0
	.cfi_lsda 0x1b,.LLSDA10457
	endbr64
	push	rbp
	.cfi_def_cfa_offset 16
	.cfi_offset 6, -16
	mov	rbp, rsp
	.cfi_def_cfa_register 6
	sub	rsp, 16
	mov	QWORD PTR -8[rbp], rdi
	mov	rax, QWORD PTR -8[rbp]
	mov	rdi, rax
	call	_ZNSt8_Rb_treeIiSt4pairIKiSt3setIcSt4lessIcESaIcEEESt10_Select1stIS7_ES3_IiESaIS7_EE8_M_beginEv
	mov	rdx, rax
	mov	rax, QWORD PTR -8[rbp]
	mov	rsi, rdx
	mov	rdi, rax
	call	_ZNSt8_Rb_treeIiSt4pairIKiSt3setIcSt4lessIcESaIcEEESt10_Select1stIS7_ES3_IiESaIS7_EE8_M_eraseEPSt13_Rb_tree_nodeIS7_E
	mov	rax, QWORD PTR -8[rbp]
	mov	rdi, rax
	call	_ZNSt8_Rb_treeIiSt4pairIKiSt3setIcSt4lessIcESaIcEEESt10_Select1stIS7_ES3_IiESaIS7_EE13_Rb_tree_implISA_Lb1EED1Ev
	nop
	leave
	.cfi_def_cfa 7, 8
	ret
	.cfi_endproc
.LFE10457:
	.section	.gcc_except_table
.LLSDA10457:
	.byte	0xff
	.byte	0xff
	.byte	0x1
	.uleb128 .LLSDACSE10457-.LLSDACSB10457
.LLSDACSB10457:
.LLSDACSE10457:
	.section	.text._ZNSt8_Rb_treeIiSt4pairIKiSt3setIcSt4lessIcESaIcEEESt10_Select1stIS7_ES3_IiESaIS7_EED2Ev,"axG",@progbits,_ZNSt8_Rb_treeIiSt4pairIKiSt3setIcSt4lessIcESaIcEEESt10_Select1stIS7_ES3_IiESaIS7_EED5Ev,comdat
	.size	_ZNSt8_Rb_treeIiSt4pairIKiSt3setIcSt4lessIcESaIcEEESt10_Select1stIS7_ES3_IiESaIS7_EED2Ev, .-_ZNSt8_Rb_treeIiSt4pairIKiSt3setIcSt4lessIcESaIcEEESt10_Select1stIS7_ES3_IiESaIS7_EED2Ev
	.weak	_ZNSt8_Rb_treeIiSt4pairIKiSt3setIcSt4lessIcESaIcEEESt10_Select1stIS7_ES3_IiESaIS7_EED1Ev
	.set	_ZNSt8_Rb_treeIiSt4pairIKiSt3setIcSt4lessIcESaIcEEESt10_Select1stIS7_ES3_IiESaIS7_EED1Ev,_ZNSt8_Rb_treeIiSt4pairIKiSt3setIcSt4lessIcESaIcEEESt10_Select1stIS7_ES3_IiESaIS7_EED2Ev
	.section	.text._ZNSt3mapIiSt3setIcSt4lessIcESaIcEES1_IiESaISt4pairIKiS4_EEEixERS7_,"axG",@progbits,_ZNSt3mapIiSt3setIcSt4lessIcESaIcEES1_IiESaISt4pairIKiS4_EEEixERS7_,comdat
	.align 2
	.weak	_ZNSt3mapIiSt3setIcSt4lessIcESaIcEES1_IiESaISt4pairIKiS4_EEEixERS7_
	.type	_ZNSt3mapIiSt3setIcSt4lessIcESaIcEES1_IiESaISt4pairIKiS4_EEEixERS7_, @function
_ZNSt3mapIiSt3setIcSt4lessIcESaIcEES1_IiESaISt4pairIKiS4_EEEixERS7_:
.LFB10459:
	.cfi_startproc
	endbr64
	push	rbp
	.cfi_def_cfa_offset 16
	.cfi_offset 6, -16
	mov	rbp, rsp
	.cfi_def_cfa_register 6
	push	rbx
	sub	rsp, 72
	.cfi_offset 3, -24
	mov	QWORD PTR -72[rbp], rdi
	mov	QWORD PTR -80[rbp], rsi
	mov	rax, QWORD PTR fs:40
	mov	QWORD PTR -24[rbp], rax
	xor	eax, eax
	mov	rdx, QWORD PTR -80[rbp]
	mov	rax, QWORD PTR -72[rbp]
	mov	rsi, rdx
	mov	rdi, rax
	call	_ZNSt3mapIiSt3setIcSt4lessIcESaIcEES1_IiESaISt4pairIKiS4_EEE11lower_boundERS7_
	mov	QWORD PTR -48[rbp], rax
	mov	rax, QWORD PTR -72[rbp]
	mov	rdi, rax
	call	_ZNSt3mapIiSt3setIcSt4lessIcESaIcEES1_IiESaISt4pairIKiS4_EEE3endEv
	mov	QWORD PTR -32[rbp], rax
	lea	rdx, -32[rbp]
	lea	rax, -48[rbp]
	mov	rsi, rdx
	mov	rdi, rax
	call	_ZSteqRKSt17_Rb_tree_iteratorISt4pairIKiSt3setIcSt4lessIcESaIcEEEESA_
	test	al, al
	jne	.L65
	mov	rax, QWORD PTR -72[rbp]
	mov	rdi, rax
	call	_ZNKSt3mapIiSt3setIcSt4lessIcESaIcEES1_IiESaISt4pairIKiS4_EEE8key_compEv
	lea	rax, -48[rbp]
	mov	rdi, rax
	call	_ZNKSt17_Rb_tree_iteratorISt4pairIKiSt3setIcSt4lessIcESaIcEEEEdeEv
	mov	rdx, rax
	mov	rcx, QWORD PTR -80[rbp]
	lea	rax, -40[rbp]
	mov	rsi, rcx
	mov	rdi, rax
	call	_ZNKSt4lessIiEclERKiS2_
	test	al, al
	je	.L66
.L65:
	mov	eax, 1
	jmp	.L67
.L66:
	mov	eax, 0
.L67:
	test	al, al
	je	.L68
	mov	rbx, QWORD PTR -72[rbp]
	mov	rdx, QWORD PTR -80[rbp]
	lea	rax, -40[rbp]
	mov	rsi, rdx
	mov	rdi, rax
	call	_ZNSt5tupleIJRKiEEC1ILb1ELb1EEES1_
	lea	rdx, -48[rbp]
	lea	rax, -32[rbp]
	mov	rsi, rdx
	mov	rdi, rax
	call	_ZNSt23_Rb_tree_const_iteratorISt4pairIKiSt3setIcSt4lessIcESaIcEEEEC1ERKSt17_Rb_tree_iteratorIS7_E
	lea	rcx, -49[rbp]
	lea	rdx, -40[rbp]
	mov	rax, QWORD PTR -32[rbp]
	mov	r8, rcx
	mov	rcx, rdx
	lea	rdx, _ZSt19piecewise_construct[rip]
	mov	rsi, rax
	mov	rdi, rbx
	call	_ZNSt8_Rb_treeIiSt4pairIKiSt3setIcSt4lessIcESaIcEEESt10_Select1stIS7_ES3_IiESaIS7_EE22_M_emplace_hint_uniqueIJRKSt21piecewise_construct_tSt5tupleIJRS1_EESH_IJEEEEESt17_Rb_tree_iteratorIS7_ESt23_Rb_tree_const_iteratorIS7_EDpOT_
	mov	QWORD PTR -48[rbp], rax
.L68:
	lea	rax, -48[rbp]
	mov	rdi, rax
	call	_ZNKSt17_Rb_tree_iteratorISt4pairIKiSt3setIcSt4lessIcESaIcEEEEdeEv
	add	rax, 8
	mov	rdx, QWORD PTR -24[rbp]
	sub	rdx, QWORD PTR fs:40
	je	.L70
	call	__stack_chk_fail@PLT
.L70:
	mov	rbx, QWORD PTR -8[rbp]
	leave
	.cfi_def_cfa 7, 8
	ret
	.cfi_endproc
.LFE10459:
	.size	_ZNSt3mapIiSt3setIcSt4lessIcESaIcEES1_IiESaISt4pairIKiS4_EEEixERS7_, .-_ZNSt3mapIiSt3setIcSt4lessIcESaIcEES1_IiESaISt4pairIKiS4_EEEixERS7_
	.section	.text._ZNSt3setIcSt4lessIcESaIcEE6insertERKc,"axG",@progbits,_ZNSt3setIcSt4lessIcESaIcEE6insertERKc,comdat
	.align 2
	.weak	_ZNSt3setIcSt4lessIcESaIcEE6insertERKc
	.type	_ZNSt3setIcSt4lessIcESaIcEE6insertERKc, @function
_ZNSt3setIcSt4lessIcESaIcEE6insertERKc:
.LFB10466:
	.cfi_startproc
	endbr64
	push	rbp
	.cfi_def_cfa_offset 16
	.cfi_offset 6, -16
	mov	rbp, rsp
	.cfi_def_cfa_register 6
	sub	rsp, 64
	mov	QWORD PTR -56[rbp], rdi
	mov	QWORD PTR -64[rbp], rsi
	mov	rax, QWORD PTR fs:40
	mov	QWORD PTR -8[rbp], rax
	xor	eax, eax
	mov	rax, QWORD PTR -56[rbp]
	mov	rdx, QWORD PTR -64[rbp]
	mov	rsi, rdx
	mov	rdi, rax
	call	_ZNSt8_Rb_treeIccSt9_IdentityIcESt4lessIcESaIcEE16_M_insert_uniqueIRKcEESt4pairISt17_Rb_tree_iteratorIcEbEOT_
	mov	QWORD PTR -48[rbp], rax
	mov	QWORD PTR -40[rbp], rdx
	lea	rax, -48[rbp]
	lea	rdx, 8[rax]
	lea	rcx, -48[rbp]
	lea	rax, -32[rbp]
	mov	rsi, rcx
	mov	rdi, rax
	call	_ZNSt4pairISt23_Rb_tree_const_iteratorIcEbEC1IRSt17_Rb_tree_iteratorIcERbLb1EEEOT_OT0_
	mov	rax, QWORD PTR -32[rbp]
	mov	rdx, QWORD PTR -24[rbp]
	mov	rcx, QWORD PTR -8[rbp]
	sub	rcx, QWORD PTR fs:40
	je	.L73
	call	__stack_chk_fail@PLT
.L73:
	leave
	.cfi_def_cfa 7, 8
	ret
	.cfi_endproc
.LFE10466:
	.size	_ZNSt3setIcSt4lessIcESaIcEE6insertERKc, .-_ZNSt3setIcSt4lessIcESaIcEE6insertERKc
	.section	.text._ZNSt3mapIcSt3setIiSt4lessIiESaIiEES1_IcESaISt4pairIKcS4_EEEixERS7_,"axG",@progbits,_ZNSt3mapIcSt3setIiSt4lessIiESaIiEES1_IcESaISt4pairIKcS4_EEEixERS7_,comdat
	.align 2
	.weak	_ZNSt3mapIcSt3setIiSt4lessIiESaIiEES1_IcESaISt4pairIKcS4_EEEixERS7_
	.type	_ZNSt3mapIcSt3setIiSt4lessIiESaIiEES1_IcESaISt4pairIKcS4_EEEixERS7_, @function
_ZNSt3mapIcSt3setIiSt4lessIiESaIiEES1_IcESaISt4pairIKcS4_EEEixERS7_:
.LFB10476:
	.cfi_startproc
	endbr64
	push	rbp
	.cfi_def_cfa_offset 16
	.cfi_offset 6, -16
	mov	rbp, rsp
	.cfi_def_cfa_register 6
	push	rbx
	sub	rsp, 72
	.cfi_offset 3, -24
	mov	QWORD PTR -72[rbp], rdi
	mov	QWORD PTR -80[rbp], rsi
	mov	rax, QWORD PTR fs:40
	mov	QWORD PTR -24[rbp], rax
	xor	eax, eax
	mov	rdx, QWORD PTR -80[rbp]
	mov	rax, QWORD PTR -72[rbp]
	mov	rsi, rdx
	mov	rdi, rax
	call	_ZNSt3mapIcSt3setIiSt4lessIiESaIiEES1_IcESaISt4pairIKcS4_EEE11lower_boundERS7_
	mov	QWORD PTR -48[rbp], rax
	mov	rax, QWORD PTR -72[rbp]
	mov	rdi, rax
	call	_ZNSt3mapIcSt3setIiSt4lessIiESaIiEES1_IcESaISt4pairIKcS4_EEE3endEv
	mov	QWORD PTR -32[rbp], rax
	lea	rdx, -32[rbp]
	lea	rax, -48[rbp]
	mov	rsi, rdx
	mov	rdi, rax
	call	_ZSteqRKSt17_Rb_tree_iteratorISt4pairIKcSt3setIiSt4lessIiESaIiEEEESA_
	test	al, al
	jne	.L75
	mov	rax, QWORD PTR -72[rbp]
	mov	rdi, rax
	call	_ZNKSt3mapIcSt3setIiSt4lessIiESaIiEES1_IcESaISt4pairIKcS4_EEE8key_compEv
	lea	rax, -48[rbp]
	mov	rdi, rax
	call	_ZNKSt17_Rb_tree_iteratorISt4pairIKcSt3setIiSt4lessIiESaIiEEEEdeEv
	mov	rdx, rax
	mov	rcx, QWORD PTR -80[rbp]
	lea	rax, -40[rbp]
	mov	rsi, rcx
	mov	rdi, rax
	call	_ZNKSt4lessIcEclERKcS2_
	test	al, al
	je	.L76
.L75:
	mov	eax, 1
	jmp	.L77
.L76:
	mov	eax, 0
.L77:
	test	al, al
	je	.L78
	mov	rbx, QWORD PTR -72[rbp]
	mov	rdx, QWORD PTR -80[rbp]
	lea	rax, -40[rbp]
	mov	rsi, rdx
	mov	rdi, rax
	call	_ZNSt5tupleIJRKcEEC1ILb1ELb1EEES1_
	lea	rdx, -48[rbp]
	lea	rax, -32[rbp]
	mov	rsi, rdx
	mov	rdi, rax
	call	_ZNSt23_Rb_tree_const_iteratorISt4pairIKcSt3setIiSt4lessIiESaIiEEEEC1ERKSt17_Rb_tree_iteratorIS7_E
	lea	rcx, -49[rbp]
	lea	rdx, -40[rbp]
	mov	rax, QWORD PTR -32[rbp]
	mov	r8, rcx
	mov	rcx, rdx
	lea	rdx, _ZSt19piecewise_construct[rip]
	mov	rsi, rax
	mov	rdi, rbx
	call	_ZNSt8_Rb_treeIcSt4pairIKcSt3setIiSt4lessIiESaIiEEESt10_Select1stIS7_ES3_IcESaIS7_EE22_M_emplace_hint_uniqueIJRKSt21piecewise_construct_tSt5tupleIJRS1_EESH_IJEEEEESt17_Rb_tree_iteratorIS7_ESt23_Rb_tree_const_iteratorIS7_EDpOT_
	mov	QWORD PTR -48[rbp], rax
.L78:
	lea	rax, -48[rbp]
	mov	rdi, rax
	call	_ZNKSt17_Rb_tree_iteratorISt4pairIKcSt3setIiSt4lessIiESaIiEEEEdeEv
	add	rax, 8
	mov	rdx, QWORD PTR -24[rbp]
	sub	rdx, QWORD PTR fs:40
	je	.L80
	call	__stack_chk_fail@PLT
.L80:
	mov	rbx, QWORD PTR -8[rbp]
	leave
	.cfi_def_cfa 7, 8
	ret
	.cfi_endproc
.LFE10476:
	.size	_ZNSt3mapIcSt3setIiSt4lessIiESaIiEES1_IcESaISt4pairIKcS4_EEEixERS7_, .-_ZNSt3mapIcSt3setIiSt4lessIiESaIiEES1_IcESaISt4pairIKcS4_EEEixERS7_
	.section	.text._ZNSt3setIiSt4lessIiESaIiEE6insertERKi,"axG",@progbits,_ZNSt3setIiSt4lessIiESaIiEE6insertERKi,comdat
	.align 2
	.weak	_ZNSt3setIiSt4lessIiESaIiEE6insertERKi
	.type	_ZNSt3setIiSt4lessIiESaIiEE6insertERKi, @function
_ZNSt3setIiSt4lessIiESaIiEE6insertERKi:
.LFB10484:
	.cfi_startproc
	endbr64
	push	rbp
	.cfi_def_cfa_offset 16
	.cfi_offset 6, -16
	mov	rbp, rsp
	.cfi_def_cfa_register 6
	sub	rsp, 64
	mov	QWORD PTR -56[rbp], rdi
	mov	QWORD PTR -64[rbp], rsi
	mov	rax, QWORD PTR fs:40
	mov	QWORD PTR -8[rbp], rax
	xor	eax, eax
	mov	rax, QWORD PTR -56[rbp]
	mov	rdx, QWORD PTR -64[rbp]
	mov	rsi, rdx
	mov	rdi, rax
	call	_ZNSt8_Rb_treeIiiSt9_IdentityIiESt4lessIiESaIiEE16_M_insert_uniqueIRKiEESt4pairISt17_Rb_tree_iteratorIiEbEOT_
	mov	QWORD PTR -48[rbp], rax
	mov	QWORD PTR -40[rbp], rdx
	lea	rax, -48[rbp]
	lea	rdx, 8[rax]
	lea	rcx, -48[rbp]
	lea	rax, -32[rbp]
	mov	rsi, rcx
	mov	rdi, rax
	call	_ZNSt4pairISt23_Rb_tree_const_iteratorIiEbEC1IRSt17_Rb_tree_iteratorIiERbLb1EEEOT_OT0_
	mov	rax, QWORD PTR -32[rbp]
	mov	rdx, QWORD PTR -24[rbp]
	mov	rcx, QWORD PTR -8[rbp]
	sub	rcx, QWORD PTR fs:40
	je	.L83
	call	__stack_chk_fail@PLT
.L83:
	leave
	.cfi_def_cfa 7, 8
	ret
	.cfi_endproc
.LFE10484:
	.size	_ZNSt3setIiSt4lessIiESaIiEE6insertERKi, .-_ZNSt3setIiSt4lessIiESaIiEE6insertERKi
	.section	.text._ZNKSt3setIcSt4lessIcESaIcEE4sizeEv,"axG",@progbits,_ZNKSt3setIcSt4lessIcESaIcEE4sizeEv,comdat
	.align 2
	.weak	_ZNKSt3setIcSt4lessIcESaIcEE4sizeEv
	.type	_ZNKSt3setIcSt4lessIcESaIcEE4sizeEv, @function
_ZNKSt3setIcSt4lessIcESaIcEE4sizeEv:
.LFB10494:
	.cfi_startproc
	endbr64
	push	rbp
	.cfi_def_cfa_offset 16
	.cfi_offset 6, -16
	mov	rbp, rsp
	.cfi_def_cfa_register 6
	sub	rsp, 16
	mov	QWORD PTR -8[rbp], rdi
	mov	rax, QWORD PTR -8[rbp]
	mov	rdi, rax
	call	_ZNKSt8_Rb_treeIccSt9_IdentityIcESt4lessIcESaIcEE4sizeEv
	leave
	.cfi_def_cfa 7, 8
	ret
	.cfi_endproc
.LFE10494:
	.size	_ZNKSt3setIcSt4lessIcESaIcEE4sizeEv, .-_ZNKSt3setIcSt4lessIcESaIcEE4sizeEv
	.section	.text._ZNKSt3setIiSt4lessIiESaIiEE4sizeEv,"axG",@progbits,_ZNKSt3setIiSt4lessIiESaIiEE4sizeEv,comdat
	.align 2
	.weak	_ZNKSt3setIiSt4lessIiESaIiEE4sizeEv
	.type	_ZNKSt3setIiSt4lessIiESaIiEE4sizeEv, @function
_ZNKSt3setIiSt4lessIiESaIiEE4sizeEv:
.LFB10495:
	.cfi_startproc
	endbr64
	push	rbp
	.cfi_def_cfa_offset 16
	.cfi_offset 6, -16
	mov	rbp, rsp
	.cfi_def_cfa_register 6
	sub	rsp, 16
	mov	QWORD PTR -8[rbp], rdi
	mov	rax, QWORD PTR -8[rbp]
	mov	rdi, rax
	call	_ZNKSt8_Rb_treeIiiSt9_IdentityIiESt4lessIiESaIiEE4sizeEv
	leave
	.cfi_def_cfa 7, 8
	ret
	.cfi_endproc
.LFE10495:
	.size	_ZNKSt3setIiSt4lessIiESaIiEE4sizeEv, .-_ZNKSt3setIiSt4lessIiESaIiEE4sizeEv
	.section	.text._ZSt7forwardIbEOT_RNSt16remove_referenceIS0_E4typeE,"axG",@progbits,_ZSt7forwardIbEOT_RNSt16remove_referenceIS0_E4typeE,comdat
	.weak	_ZSt7forwardIbEOT_RNSt16remove_referenceIS0_E4typeE
	.type	_ZSt7forwardIbEOT_RNSt16remove_referenceIS0_E4typeE, @function
_ZSt7forwardIbEOT_RNSt16remove_referenceIS0_E4typeE:
.LFB10619:
	.cfi_startproc
	endbr64
	push	rbp
	.cfi_def_cfa_offset 16
	.cfi_offset 6, -16
	mov	rbp, rsp
	.cfi_def_cfa_register 6
	mov	QWORD PTR -8[rbp], rdi
	mov	rax, QWORD PTR -8[rbp]
	pop	rbp
	.cfi_def_cfa 7, 8
	ret
	.cfi_endproc
.LFE10619:
	.size	_ZSt7forwardIbEOT_RNSt16remove_referenceIS0_E4typeE, .-_ZSt7forwardIbEOT_RNSt16remove_referenceIS0_E4typeE
	.section	.text._ZN9__gnu_cxx13new_allocatorIiEC2Ev,"axG",@progbits,_ZN9__gnu_cxx13new_allocatorIiEC5Ev,comdat
	.align 2
	.weak	_ZN9__gnu_cxx13new_allocatorIiEC2Ev
	.type	_ZN9__gnu_cxx13new_allocatorIiEC2Ev, @function
_ZN9__gnu_cxx13new_allocatorIiEC2Ev:
.LFB10888:
	.cfi_startproc
	endbr64
	push	rbp
	.cfi_def_cfa_offset 16
	.cfi_offset 6, -16
	mov	rbp, rsp
	.cfi_def_cfa_register 6
	mov	QWORD PTR -8[rbp], rdi
	nop
	pop	rbp
	.cfi_def_cfa 7, 8
	ret
	.cfi_endproc
.LFE10888:
	.size	_ZN9__gnu_cxx13new_allocatorIiEC2Ev, .-_ZN9__gnu_cxx13new_allocatorIiEC2Ev
	.weak	_ZN9__gnu_cxx13new_allocatorIiEC1Ev
	.set	_ZN9__gnu_cxx13new_allocatorIiEC1Ev,_ZN9__gnu_cxx13new_allocatorIiEC2Ev
	.section	.text._ZN9__gnu_cxx13new_allocatorIiED2Ev,"axG",@progbits,_ZN9__gnu_cxx13new_allocatorIiED5Ev,comdat
	.align 2
	.weak	_ZN9__gnu_cxx13new_allocatorIiED2Ev
	.type	_ZN9__gnu_cxx13new_allocatorIiED2Ev, @function
_ZN9__gnu_cxx13new_allocatorIiED2Ev:
.LFB10891:
	.cfi_startproc
	endbr64
	push	rbp
	.cfi_def_cfa_offset 16
	.cfi_offset 6, -16
	mov	rbp, rsp
	.cfi_def_cfa_register 6
	mov	QWORD PTR -8[rbp], rdi
	nop
	pop	rbp
	.cfi_def_cfa 7, 8
	ret
	.cfi_endproc
.LFE10891:
	.size	_ZN9__gnu_cxx13new_allocatorIiED2Ev, .-_ZN9__gnu_cxx13new_allocatorIiED2Ev
	.weak	_ZN9__gnu_cxx13new_allocatorIiED1Ev
	.set	_ZN9__gnu_cxx13new_allocatorIiED1Ev,_ZN9__gnu_cxx13new_allocatorIiED2Ev
	.section	.rodata
	.align 8
.LC6:
	.string	"cannot create std::vector larger than max_size()"
	.section	.text._ZNSt6vectorIiSaIiEE17_S_check_init_lenEmRKS0_,"axG",@progbits,_ZNSt6vectorIiSaIiEE17_S_check_init_lenEmRKS0_,comdat
	.weak	_ZNSt6vectorIiSaIiEE17_S_check_init_lenEmRKS0_
	.type	_ZNSt6vectorIiSaIiEE17_S_check_init_lenEmRKS0_, @function
_ZNSt6vectorIiSaIiEE17_S_check_init_lenEmRKS0_:
.LFB10893:
	.cfi_startproc
	endbr64
	push	rbp
	.cfi_def_cfa_offset 16
	.cfi_offset 6, -16
	mov	rbp, rsp
	.cfi_def_cfa_register 6
	push	rbx
	sub	rsp, 40
	.cfi_offset 3, -24
	mov	QWORD PTR -40[rbp], rdi
	mov	QWORD PTR -48[rbp], rsi
	mov	rax, QWORD PTR fs:40
	mov	QWORD PTR -24[rbp], rax
	xor	eax, eax
	mov	rdx, QWORD PTR -48[rbp]
	lea	rax, -25[rbp]
	mov	rsi, rdx
	mov	rdi, rax
	call	_ZNSaIiEC1ERKS_
	lea	rax, -25[rbp]
	mov	rdi, rax
	call	_ZNSt6vectorIiSaIiEE11_S_max_sizeERKS0_
	cmp	QWORD PTR -40[rbp], rax
	seta	bl
	lea	rax, -25[rbp]
	mov	rdi, rax
	call	_ZNSaIiED1Ev
	test	bl, bl
	je	.L93
	lea	rax, .LC6[rip]
	mov	rdi, rax
	call	_ZSt20__throw_length_errorPKc@PLT
.L93:
	mov	rax, QWORD PTR -40[rbp]
	mov	rdx, QWORD PTR -24[rbp]
	sub	rdx, QWORD PTR fs:40
	je	.L95
	call	__stack_chk_fail@PLT
.L95:
	mov	rbx, QWORD PTR -8[rbp]
	leave
	.cfi_def_cfa 7, 8
	ret
	.cfi_endproc
.LFE10893:
	.size	_ZNSt6vectorIiSaIiEE17_S_check_init_lenEmRKS0_, .-_ZNSt6vectorIiSaIiEE17_S_check_init_lenEmRKS0_
	.section	.text._ZNSt12_Vector_baseIiSaIiEE12_Vector_implD2Ev,"axG",@progbits,_ZNSt12_Vector_baseIiSaIiEE12_Vector_implD5Ev,comdat
	.align 2
	.weak	_ZNSt12_Vector_baseIiSaIiEE12_Vector_implD2Ev
	.type	_ZNSt12_Vector_baseIiSaIiEE12_Vector_implD2Ev, @function
_ZNSt12_Vector_baseIiSaIiEE12_Vector_implD2Ev:
.LFB10896:
	.cfi_startproc
	endbr64
	push	rbp
	.cfi_def_cfa_offset 16
	.cfi_offset 6, -16
	mov	rbp, rsp
	.cfi_def_cfa_register 6
	sub	rsp, 16
	mov	QWORD PTR -8[rbp], rdi
	mov	rax, QWORD PTR -8[rbp]
	mov	rdi, rax
	call	_ZNSaIiED2Ev
	nop
	leave
	.cfi_def_cfa 7, 8
	ret
	.cfi_endproc
.LFE10896:
	.size	_ZNSt12_Vector_baseIiSaIiEE12_Vector_implD2Ev, .-_ZNSt12_Vector_baseIiSaIiEE12_Vector_implD2Ev
	.weak	_ZNSt12_Vector_baseIiSaIiEE12_Vector_implD1Ev
	.set	_ZNSt12_Vector_baseIiSaIiEE12_Vector_implD1Ev,_ZNSt12_Vector_baseIiSaIiEE12_Vector_implD2Ev
	.section	.text._ZNSt12_Vector_baseIiSaIiEEC2EmRKS0_,"axG",@progbits,_ZNSt12_Vector_baseIiSaIiEEC5EmRKS0_,comdat
	.align 2
	.weak	_ZNSt12_Vector_baseIiSaIiEEC2EmRKS0_
	.type	_ZNSt12_Vector_baseIiSaIiEEC2EmRKS0_, @function
_ZNSt12_Vector_baseIiSaIiEEC2EmRKS0_:
.LFB10898:
	.cfi_startproc
	.cfi_personality 0x9b,DW.ref.__gxx_personality_v0
	.cfi_lsda 0x1b,.LLSDA10898
	endbr64
	push	rbp
	.cfi_def_cfa_offset 16
	.cfi_offset 6, -16
	mov	rbp, rsp
	.cfi_def_cfa_register 6
	push	rbx
	sub	rsp, 40
	.cfi_offset 3, -24
	mov	QWORD PTR -24[rbp], rdi
	mov	QWORD PTR -32[rbp], rsi
	mov	QWORD PTR -40[rbp], rdx
	mov	rax, QWORD PTR -24[rbp]
	mov	rdx, QWORD PTR -40[rbp]
	mov	rsi, rdx
	mov	rdi, rax
	call	_ZNSt12_Vector_baseIiSaIiEE12_Vector_implC1ERKS0_
	mov	rdx, QWORD PTR -32[rbp]
	mov	rax, QWORD PTR -24[rbp]
	mov	rsi, rdx
	mov	rdi, rax
.LEHB9:
	call	_ZNSt12_Vector_baseIiSaIiEE17_M_create_storageEm
.LEHE9:
	jmp	.L100
.L99:
	endbr64
	mov	rbx, rax
	mov	rax, QWORD PTR -24[rbp]
	mov	rdi, rax
	call	_ZNSt12_Vector_baseIiSaIiEE12_Vector_implD1Ev
	mov	rax, rbx
	mov	rdi, rax
.LEHB10:
	call	_Unwind_Resume@PLT
.LEHE10:
.L100:
	mov	rbx, QWORD PTR -8[rbp]
	leave
	.cfi_def_cfa 7, 8
	ret
	.cfi_endproc
.LFE10898:
	.section	.gcc_except_table
.LLSDA10898:
	.byte	0xff
	.byte	0xff
	.byte	0x1
	.uleb128 .LLSDACSE10898-.LLSDACSB10898
.LLSDACSB10898:
	.uleb128 .LEHB9-.LFB10898
	.uleb128 .LEHE9-.LEHB9
	.uleb128 .L99-.LFB10898
	.uleb128 0
	.uleb128 .LEHB10-.LFB10898
	.uleb128 .LEHE10-.LEHB10
	.uleb128 0
	.uleb128 0
.LLSDACSE10898:
	.section	.text._ZNSt12_Vector_baseIiSaIiEEC2EmRKS0_,"axG",@progbits,_ZNSt12_Vector_baseIiSaIiEEC5EmRKS0_,comdat
	.size	_ZNSt12_Vector_baseIiSaIiEEC2EmRKS0_, .-_ZNSt12_Vector_baseIiSaIiEEC2EmRKS0_
	.weak	_ZNSt12_Vector_baseIiSaIiEEC1EmRKS0_
	.set	_ZNSt12_Vector_baseIiSaIiEEC1EmRKS0_,_ZNSt12_Vector_baseIiSaIiEEC2EmRKS0_
	.section	.text._ZNSt12_Vector_baseIiSaIiEED2Ev,"axG",@progbits,_ZNSt12_Vector_baseIiSaIiEED5Ev,comdat
	.align 2
	.weak	_ZNSt12_Vector_baseIiSaIiEED2Ev
	.type	_ZNSt12_Vector_baseIiSaIiEED2Ev, @function
_ZNSt12_Vector_baseIiSaIiEED2Ev:
.LFB10901:
	.cfi_startproc
	.cfi_personality 0x9b,DW.ref.__gxx_personality_v0
	.cfi_lsda 0x1b,.LLSDA10901
	endbr64
	push	rbp
	.cfi_def_cfa_offset 16
	.cfi_offset 6, -16
	mov	rbp, rsp
	.cfi_def_cfa_register 6
	sub	rsp, 16
	mov	QWORD PTR -8[rbp], rdi
	mov	rax, QWORD PTR -8[rbp]
	mov	rdx, QWORD PTR 16[rax]
	mov	rax, QWORD PTR -8[rbp]
	mov	rcx, QWORD PTR [rax]
	mov	rax, rdx
	sub	rax, rcx
	sar	rax, 2
	mov	rdx, rax
	mov	rax, QWORD PTR -8[rbp]
	mov	rcx, QWORD PTR [rax]
	mov	rax, QWORD PTR -8[rbp]
	mov	rsi, rcx
	mov	rdi, rax
	call	_ZNSt12_Vector_baseIiSaIiEE13_M_deallocateEPim
	mov	rax, QWORD PTR -8[rbp]
	mov	rdi, rax
	call	_ZNSt12_Vector_baseIiSaIiEE12_Vector_implD1Ev
	nop
	leave
	.cfi_def_cfa 7, 8
	ret
	.cfi_endproc
.LFE10901:
	.section	.gcc_except_table
.LLSDA10901:
	.byte	0xff
	.byte	0xff
	.byte	0x1
	.uleb128 .LLSDACSE10901-.LLSDACSB10901
.LLSDACSB10901:
.LLSDACSE10901:
	.section	.text._ZNSt12_Vector_baseIiSaIiEED2Ev,"axG",@progbits,_ZNSt12_Vector_baseIiSaIiEED5Ev,comdat
	.size	_ZNSt12_Vector_baseIiSaIiEED2Ev, .-_ZNSt12_Vector_baseIiSaIiEED2Ev
	.weak	_ZNSt12_Vector_baseIiSaIiEED1Ev
	.set	_ZNSt12_Vector_baseIiSaIiEED1Ev,_ZNSt12_Vector_baseIiSaIiEED2Ev
	.section	.text._ZNSt6vectorIiSaIiEE21_M_default_initializeEm,"axG",@progbits,_ZNSt6vectorIiSaIiEE21_M_default_initializeEm,comdat
	.align 2
	.weak	_ZNSt6vectorIiSaIiEE21_M_default_initializeEm
	.type	_ZNSt6vectorIiSaIiEE21_M_default_initializeEm, @function
_ZNSt6vectorIiSaIiEE21_M_default_initializeEm:
.LFB10903:
	.cfi_startproc
	endbr64
	push	rbp
	.cfi_def_cfa_offset 16
	.cfi_offset 6, -16
	mov	rbp, rsp
	.cfi_def_cfa_register 6
	sub	rsp, 16
	mov	QWORD PTR -8[rbp], rdi
	mov	QWORD PTR -16[rbp], rsi
	mov	rax, QWORD PTR -8[rbp]
	mov	rdi, rax
	call	_ZNSt12_Vector_baseIiSaIiEE19_M_get_Tp_allocatorEv
	mov	rdx, rax
	mov	rax, QWORD PTR -8[rbp]
	mov	rax, QWORD PTR [rax]
	mov	rcx, QWORD PTR -16[rbp]
	mov	rsi, rcx
	mov	rdi, rax
	call	_ZSt27__uninitialized_default_n_aIPimiET_S1_T0_RSaIT1_E
	mov	rdx, QWORD PTR -8[rbp]
	mov	QWORD PTR 8[rdx], rax
	nop
	leave
	.cfi_def_cfa 7, 8
	ret
	.cfi_endproc
.LFE10903:
	.size	_ZNSt6vectorIiSaIiEE21_M_default_initializeEm, .-_ZNSt6vectorIiSaIiEE21_M_default_initializeEm
	.section	.text._ZNSt12_Vector_baseIiSaIiEE19_M_get_Tp_allocatorEv,"axG",@progbits,_ZNSt12_Vector_baseIiSaIiEE19_M_get_Tp_allocatorEv,comdat
	.align 2
	.weak	_ZNSt12_Vector_baseIiSaIiEE19_M_get_Tp_allocatorEv
	.type	_ZNSt12_Vector_baseIiSaIiEE19_M_get_Tp_allocatorEv, @function
_ZNSt12_Vector_baseIiSaIiEE19_M_get_Tp_allocatorEv:
.LFB10904:
	.cfi_startproc
	endbr64
	push	rbp
	.cfi_def_cfa_offset 16
	.cfi_offset 6, -16
	mov	rbp, rsp
	.cfi_def_cfa_register 6
	mov	QWORD PTR -8[rbp], rdi
	mov	rax, QWORD PTR -8[rbp]
	pop	rbp
	.cfi_def_cfa 7, 8
	ret
	.cfi_endproc
.LFE10904:
	.size	_ZNSt12_Vector_baseIiSaIiEE19_M_get_Tp_allocatorEv, .-_ZNSt12_Vector_baseIiSaIiEE19_M_get_Tp_allocatorEv
	.section	.text._ZSt8_DestroyIPiiEvT_S1_RSaIT0_E,"axG",@progbits,_ZSt8_DestroyIPiiEvT_S1_RSaIT0_E,comdat
	.weak	_ZSt8_DestroyIPiiEvT_S1_RSaIT0_E
	.type	_ZSt8_DestroyIPiiEvT_S1_RSaIT0_E, @function
_ZSt8_DestroyIPiiEvT_S1_RSaIT0_E:
.LFB10905:
	.cfi_startproc
	endbr64
	push	rbp
	.cfi_def_cfa_offset 16
	.cfi_offset 6, -16
	mov	rbp, rsp
	.cfi_def_cfa_register 6
	sub	rsp, 32
	mov	QWORD PTR -8[rbp], rdi
	mov	QWORD PTR -16[rbp], rsi
	mov	QWORD PTR -24[rbp], rdx
	mov	rdx, QWORD PTR -16[rbp]
	mov	rax, QWORD PTR -8[rbp]
	mov	rsi, rdx
	mov	rdi, rax
	call	_ZSt8_DestroyIPiEvT_S1_
	nop
	leave
	.cfi_def_cfa 7, 8
	ret
	.cfi_endproc
.LFE10905:
	.size	_ZSt8_DestroyIPiiEvT_S1_RSaIT0_E, .-_ZSt8_DestroyIPiiEvT_S1_RSaIT0_E
	.section	.text._ZNSaISt13_Rb_tree_nodeISt4pairIKcSt3setIiSt4lessIiESaIiEEEEEC2Ev,"axG",@progbits,_ZNSaISt13_Rb_tree_nodeISt4pairIKcSt3setIiSt4lessIiESaIiEEEEEC5Ev,comdat
	.align 2
	.weak	_ZNSaISt13_Rb_tree_nodeISt4pairIKcSt3setIiSt4lessIiESaIiEEEEEC2Ev
	.type	_ZNSaISt13_Rb_tree_nodeISt4pairIKcSt3setIiSt4lessIiESaIiEEEEEC2Ev, @function
_ZNSaISt13_Rb_tree_nodeISt4pairIKcSt3setIiSt4lessIiESaIiEEEEEC2Ev:
.LFB10908:
	.cfi_startproc
	endbr64
	push	rbp
	.cfi_def_cfa_offset 16
	.cfi_offset 6, -16
	mov	rbp, rsp
	.cfi_def_cfa_register 6
	sub	rsp, 16
	mov	QWORD PTR -8[rbp], rdi
	mov	rax, QWORD PTR -8[rbp]
	mov	rdi, rax
	call	_ZN9__gnu_cxx13new_allocatorISt13_Rb_tree_nodeISt4pairIKcSt3setIiSt4lessIiESaIiEEEEEC2Ev
	nop
	leave
	.cfi_def_cfa 7, 8
	ret
	.cfi_endproc
.LFE10908:
	.size	_ZNSaISt13_Rb_tree_nodeISt4pairIKcSt3setIiSt4lessIiESaIiEEEEEC2Ev, .-_ZNSaISt13_Rb_tree_nodeISt4pairIKcSt3setIiSt4lessIiESaIiEEEEEC2Ev
	.weak	_ZNSaISt13_Rb_tree_nodeISt4pairIKcSt3setIiSt4lessIiESaIiEEEEEC1Ev
	.set	_ZNSaISt13_Rb_tree_nodeISt4pairIKcSt3setIiSt4lessIiESaIiEEEEEC1Ev,_ZNSaISt13_Rb_tree_nodeISt4pairIKcSt3setIiSt4lessIiESaIiEEEEEC2Ev
	.section	.text._ZNSt20_Rb_tree_key_compareISt4lessIcEEC2Ev,"axG",@progbits,_ZNSt20_Rb_tree_key_compareISt4lessIcEEC5Ev,comdat
	.align 2
	.weak	_ZNSt20_Rb_tree_key_compareISt4lessIcEEC2Ev
	.type	_ZNSt20_Rb_tree_key_compareISt4lessIcEEC2Ev, @function
_ZNSt20_Rb_tree_key_compareISt4lessIcEEC2Ev:
.LFB10911:
	.cfi_startproc
	endbr64
	push	rbp
	.cfi_def_cfa_offset 16
	.cfi_offset 6, -16
	mov	rbp, rsp
	.cfi_def_cfa_register 6
	mov	QWORD PTR -8[rbp], rdi
	nop
	pop	rbp
	.cfi_def_cfa 7, 8
	ret
	.cfi_endproc
.LFE10911:
	.size	_ZNSt20_Rb_tree_key_compareISt4lessIcEEC2Ev, .-_ZNSt20_Rb_tree_key_compareISt4lessIcEEC2Ev
	.weak	_ZNSt20_Rb_tree_key_compareISt4lessIcEEC1Ev
	.set	_ZNSt20_Rb_tree_key_compareISt4lessIcEEC1Ev,_ZNSt20_Rb_tree_key_compareISt4lessIcEEC2Ev
	.section	.text._ZN9__gnu_cxx13new_allocatorISt13_Rb_tree_nodeISt4pairIKcSt3setIiSt4lessIiESaIiEEEEED2Ev,"axG",@progbits,_ZN9__gnu_cxx13new_allocatorISt13_Rb_tree_nodeISt4pairIKcSt3setIiSt4lessIiESaIiEEEEED5Ev,comdat
	.align 2
	.weak	_ZN9__gnu_cxx13new_allocatorISt13_Rb_tree_nodeISt4pairIKcSt3setIiSt4lessIiESaIiEEEEED2Ev
	.type	_ZN9__gnu_cxx13new_allocatorISt13_Rb_tree_nodeISt4pairIKcSt3setIiSt4lessIiESaIiEEEEED2Ev, @function
_ZN9__gnu_cxx13new_allocatorISt13_Rb_tree_nodeISt4pairIKcSt3setIiSt4lessIiESaIiEEEEED2Ev:
.LFB10914:
	.cfi_startproc
	endbr64
	push	rbp
	.cfi_def_cfa_offset 16
	.cfi_offset 6, -16
	mov	rbp, rsp
	.cfi_def_cfa_register 6
	mov	QWORD PTR -8[rbp], rdi
	nop
	pop	rbp
	.cfi_def_cfa 7, 8
	ret
	.cfi_endproc
.LFE10914:
	.size	_ZN9__gnu_cxx13new_allocatorISt13_Rb_tree_nodeISt4pairIKcSt3setIiSt4lessIiESaIiEEEEED2Ev, .-_ZN9__gnu_cxx13new_allocatorISt13_Rb_tree_nodeISt4pairIKcSt3setIiSt4lessIiESaIiEEEEED2Ev
	.weak	_ZN9__gnu_cxx13new_allocatorISt13_Rb_tree_nodeISt4pairIKcSt3setIiSt4lessIiESaIiEEEEED1Ev
	.set	_ZN9__gnu_cxx13new_allocatorISt13_Rb_tree_nodeISt4pairIKcSt3setIiSt4lessIiESaIiEEEEED1Ev,_ZN9__gnu_cxx13new_allocatorISt13_Rb_tree_nodeISt4pairIKcSt3setIiSt4lessIiESaIiEEEEED2Ev
	.section	.text._ZNSt8_Rb_treeIcSt4pairIKcSt3setIiSt4lessIiESaIiEEESt10_Select1stIS7_ES3_IcESaIS7_EE8_M_eraseEPSt13_Rb_tree_nodeIS7_E,"axG",@progbits,_ZNSt8_Rb_treeIcSt4pairIKcSt3setIiSt4lessIiESaIiEEESt10_Select1stIS7_ES3_IcESaIS7_EE8_M_eraseEPSt13_Rb_tree_nodeIS7_E,comdat
	.align 2
	.weak	_ZNSt8_Rb_treeIcSt4pairIKcSt3setIiSt4lessIiESaIiEEESt10_Select1stIS7_ES3_IcESaIS7_EE8_M_eraseEPSt13_Rb_tree_nodeIS7_E
	.type	_ZNSt8_Rb_treeIcSt4pairIKcSt3setIiSt4lessIiESaIiEEESt10_Select1stIS7_ES3_IcESaIS7_EE8_M_eraseEPSt13_Rb_tree_nodeIS7_E, @function
_ZNSt8_Rb_treeIcSt4pairIKcSt3setIiSt4lessIiESaIiEEESt10_Select1stIS7_ES3_IcESaIS7_EE8_M_eraseEPSt13_Rb_tree_nodeIS7_E:
.LFB10916:
	.cfi_startproc
	endbr64
	push	rbp
	.cfi_def_cfa_offset 16
	.cfi_offset 6, -16
	mov	rbp, rsp
	.cfi_def_cfa_register 6
	sub	rsp, 32
	mov	QWORD PTR -24[rbp], rdi
	mov	QWORD PTR -32[rbp], rsi
	jmp	.L110
.L111:
	mov	rax, QWORD PTR -32[rbp]
	mov	rdi, rax
	call	_ZNSt8_Rb_treeIcSt4pairIKcSt3setIiSt4lessIiESaIiEEESt10_Select1stIS7_ES3_IcESaIS7_EE8_S_rightEPSt18_Rb_tree_node_base
	mov	rdx, rax
	mov	rax, QWORD PTR -24[rbp]
	mov	rsi, rdx
	mov	rdi, rax
	call	_ZNSt8_Rb_treeIcSt4pairIKcSt3setIiSt4lessIiESaIiEEESt10_Select1stIS7_ES3_IcESaIS7_EE8_M_eraseEPSt13_Rb_tree_nodeIS7_E
	mov	rax, QWORD PTR -32[rbp]
	mov	rdi, rax
	call	_ZNSt8_Rb_treeIcSt4pairIKcSt3setIiSt4lessIiESaIiEEESt10_Select1stIS7_ES3_IcESaIS7_EE7_S_leftEPSt18_Rb_tree_node_base
	mov	QWORD PTR -8[rbp], rax
	mov	rdx, QWORD PTR -32[rbp]
	mov	rax, QWORD PTR -24[rbp]
	mov	rsi, rdx
	mov	rdi, rax
	call	_ZNSt8_Rb_treeIcSt4pairIKcSt3setIiSt4lessIiESaIiEEESt10_Select1stIS7_ES3_IcESaIS7_EE12_M_drop_nodeEPSt13_Rb_tree_nodeIS7_E
	mov	rax, QWORD PTR -8[rbp]
	mov	QWORD PTR -32[rbp], rax
.L110:
	cmp	QWORD PTR -32[rbp], 0
	jne	.L111
	nop
	nop
	leave
	.cfi_def_cfa 7, 8
	ret
	.cfi_endproc
.LFE10916:
	.size	_ZNSt8_Rb_treeIcSt4pairIKcSt3setIiSt4lessIiESaIiEEESt10_Select1stIS7_ES3_IcESaIS7_EE8_M_eraseEPSt13_Rb_tree_nodeIS7_E, .-_ZNSt8_Rb_treeIcSt4pairIKcSt3setIiSt4lessIiESaIiEEESt10_Select1stIS7_ES3_IcESaIS7_EE8_M_eraseEPSt13_Rb_tree_nodeIS7_E
	.section	.text._ZNSt8_Rb_treeIcSt4pairIKcSt3setIiSt4lessIiESaIiEEESt10_Select1stIS7_ES3_IcESaIS7_EE8_M_beginEv,"axG",@progbits,_ZNSt8_Rb_treeIcSt4pairIKcSt3setIiSt4lessIiESaIiEEESt10_Select1stIS7_ES3_IcESaIS7_EE8_M_beginEv,comdat
	.align 2
	.weak	_ZNSt8_Rb_treeIcSt4pairIKcSt3setIiSt4lessIiESaIiEEESt10_Select1stIS7_ES3_IcESaIS7_EE8_M_beginEv
	.type	_ZNSt8_Rb_treeIcSt4pairIKcSt3setIiSt4lessIiESaIiEEESt10_Select1stIS7_ES3_IcESaIS7_EE8_M_beginEv, @function
_ZNSt8_Rb_treeIcSt4pairIKcSt3setIiSt4lessIiESaIiEEESt10_Select1stIS7_ES3_IcESaIS7_EE8_M_beginEv:
.LFB10917:
	.cfi_startproc
	endbr64
	push	rbp
	.cfi_def_cfa_offset 16
	.cfi_offset 6, -16
	mov	rbp, rsp
	.cfi_def_cfa_register 6
	sub	rsp, 16
	mov	QWORD PTR -8[rbp], rdi
	mov	rax, QWORD PTR -8[rbp]
	mov	rdi, rax
	call	_ZNKSt8_Rb_treeIcSt4pairIKcSt3setIiSt4lessIiESaIiEEESt10_Select1stIS7_ES3_IcESaIS7_EE9_M_mbeginEv
	leave
	.cfi_def_cfa 7, 8
	ret
	.cfi_endproc
.LFE10917:
	.size	_ZNSt8_Rb_treeIcSt4pairIKcSt3setIiSt4lessIiESaIiEEESt10_Select1stIS7_ES3_IcESaIS7_EE8_M_beginEv, .-_ZNSt8_Rb_treeIcSt4pairIKcSt3setIiSt4lessIiESaIiEEESt10_Select1stIS7_ES3_IcESaIS7_EE8_M_beginEv
	.section	.text._ZNSaISt13_Rb_tree_nodeISt4pairIKiSt3setIcSt4lessIcESaIcEEEEEC2Ev,"axG",@progbits,_ZNSaISt13_Rb_tree_nodeISt4pairIKiSt3setIcSt4lessIcESaIcEEEEEC5Ev,comdat
	.align 2
	.weak	_ZNSaISt13_Rb_tree_nodeISt4pairIKiSt3setIcSt4lessIcESaIcEEEEEC2Ev
	.type	_ZNSaISt13_Rb_tree_nodeISt4pairIKiSt3setIcSt4lessIcESaIcEEEEEC2Ev, @function
_ZNSaISt13_Rb_tree_nodeISt4pairIKiSt3setIcSt4lessIcESaIcEEEEEC2Ev:
.LFB10919:
	.cfi_startproc
	endbr64
	push	rbp
	.cfi_def_cfa_offset 16
	.cfi_offset 6, -16
	mov	rbp, rsp
	.cfi_def_cfa_register 6
	sub	rsp, 16
	mov	QWORD PTR -8[rbp], rdi
	mov	rax, QWORD PTR -8[rbp]
	mov	rdi, rax
	call	_ZN9__gnu_cxx13new_allocatorISt13_Rb_tree_nodeISt4pairIKiSt3setIcSt4lessIcESaIcEEEEEC2Ev
	nop
	leave
	.cfi_def_cfa 7, 8
	ret
	.cfi_endproc
.LFE10919:
	.size	_ZNSaISt13_Rb_tree_nodeISt4pairIKiSt3setIcSt4lessIcESaIcEEEEEC2Ev, .-_ZNSaISt13_Rb_tree_nodeISt4pairIKiSt3setIcSt4lessIcESaIcEEEEEC2Ev
	.weak	_ZNSaISt13_Rb_tree_nodeISt4pairIKiSt3setIcSt4lessIcESaIcEEEEEC1Ev
	.set	_ZNSaISt13_Rb_tree_nodeISt4pairIKiSt3setIcSt4lessIcESaIcEEEEEC1Ev,_ZNSaISt13_Rb_tree_nodeISt4pairIKiSt3setIcSt4lessIcESaIcEEEEEC2Ev
	.section	.text._ZNSt20_Rb_tree_key_compareISt4lessIiEEC2Ev,"axG",@progbits,_ZNSt20_Rb_tree_key_compareISt4lessIiEEC5Ev,comdat
	.align 2
	.weak	_ZNSt20_Rb_tree_key_compareISt4lessIiEEC2Ev
	.type	_ZNSt20_Rb_tree_key_compareISt4lessIiEEC2Ev, @function
_ZNSt20_Rb_tree_key_compareISt4lessIiEEC2Ev:
.LFB10922:
	.cfi_startproc
	endbr64
	push	rbp
	.cfi_def_cfa_offset 16
	.cfi_offset 6, -16
	mov	rbp, rsp
	.cfi_def_cfa_register 6
	mov	QWORD PTR -8[rbp], rdi
	nop
	pop	rbp
	.cfi_def_cfa 7, 8
	ret
	.cfi_endproc
.LFE10922:
	.size	_ZNSt20_Rb_tree_key_compareISt4lessIiEEC2Ev, .-_ZNSt20_Rb_tree_key_compareISt4lessIiEEC2Ev
	.weak	_ZNSt20_Rb_tree_key_compareISt4lessIiEEC1Ev
	.set	_ZNSt20_Rb_tree_key_compareISt4lessIiEEC1Ev,_ZNSt20_Rb_tree_key_compareISt4lessIiEEC2Ev
	.section	.text._ZN9__gnu_cxx13new_allocatorISt13_Rb_tree_nodeISt4pairIKiSt3setIcSt4lessIcESaIcEEEEED2Ev,"axG",@progbits,_ZN9__gnu_cxx13new_allocatorISt13_Rb_tree_nodeISt4pairIKiSt3setIcSt4lessIcESaIcEEEEED5Ev,comdat
	.align 2
	.weak	_ZN9__gnu_cxx13new_allocatorISt13_Rb_tree_nodeISt4pairIKiSt3setIcSt4lessIcESaIcEEEEED2Ev
	.type	_ZN9__gnu_cxx13new_allocatorISt13_Rb_tree_nodeISt4pairIKiSt3setIcSt4lessIcESaIcEEEEED2Ev, @function
_ZN9__gnu_cxx13new_allocatorISt13_Rb_tree_nodeISt4pairIKiSt3setIcSt4lessIcESaIcEEEEED2Ev:
.LFB10925:
	.cfi_startproc
	endbr64
	push	rbp
	.cfi_def_cfa_offset 16
	.cfi_offset 6, -16
	mov	rbp, rsp
	.cfi_def_cfa_register 6
	mov	QWORD PTR -8[rbp], rdi
	nop
	pop	rbp
	.cfi_def_cfa 7, 8
	ret
	.cfi_endproc
.LFE10925:
	.size	_ZN9__gnu_cxx13new_allocatorISt13_Rb_tree_nodeISt4pairIKiSt3setIcSt4lessIcESaIcEEEEED2Ev, .-_ZN9__gnu_cxx13new_allocatorISt13_Rb_tree_nodeISt4pairIKiSt3setIcSt4lessIcESaIcEEEEED2Ev
	.weak	_ZN9__gnu_cxx13new_allocatorISt13_Rb_tree_nodeISt4pairIKiSt3setIcSt4lessIcESaIcEEEEED1Ev
	.set	_ZN9__gnu_cxx13new_allocatorISt13_Rb_tree_nodeISt4pairIKiSt3setIcSt4lessIcESaIcEEEEED1Ev,_ZN9__gnu_cxx13new_allocatorISt13_Rb_tree_nodeISt4pairIKiSt3setIcSt4lessIcESaIcEEEEED2Ev
	.section	.text._ZNSt8_Rb_treeIiSt4pairIKiSt3setIcSt4lessIcESaIcEEESt10_Select1stIS7_ES3_IiESaIS7_EE8_M_eraseEPSt13_Rb_tree_nodeIS7_E,"axG",@progbits,_ZNSt8_Rb_treeIiSt4pairIKiSt3setIcSt4lessIcESaIcEEESt10_Select1stIS7_ES3_IiESaIS7_EE8_M_eraseEPSt13_Rb_tree_nodeIS7_E,comdat
	.align 2
	.weak	_ZNSt8_Rb_treeIiSt4pairIKiSt3setIcSt4lessIcESaIcEEESt10_Select1stIS7_ES3_IiESaIS7_EE8_M_eraseEPSt13_Rb_tree_nodeIS7_E
	.type	_ZNSt8_Rb_treeIiSt4pairIKiSt3setIcSt4lessIcESaIcEEESt10_Select1stIS7_ES3_IiESaIS7_EE8_M_eraseEPSt13_Rb_tree_nodeIS7_E, @function
_ZNSt8_Rb_treeIiSt4pairIKiSt3setIcSt4lessIcESaIcEEESt10_Select1stIS7_ES3_IiESaIS7_EE8_M_eraseEPSt13_Rb_tree_nodeIS7_E:
.LFB10927:
	.cfi_startproc
	endbr64
	push	rbp
	.cfi_def_cfa_offset 16
	.cfi_offset 6, -16
	mov	rbp, rsp
	.cfi_def_cfa_register 6
	sub	rsp, 32
	mov	QWORD PTR -24[rbp], rdi
	mov	QWORD PTR -32[rbp], rsi
	jmp	.L118
.L119:
	mov	rax, QWORD PTR -32[rbp]
	mov	rdi, rax
	call	_ZNSt8_Rb_treeIiSt4pairIKiSt3setIcSt4lessIcESaIcEEESt10_Select1stIS7_ES3_IiESaIS7_EE8_S_rightEPSt18_Rb_tree_node_base
	mov	rdx, rax
	mov	rax, QWORD PTR -24[rbp]
	mov	rsi, rdx
	mov	rdi, rax
	call	_ZNSt8_Rb_treeIiSt4pairIKiSt3setIcSt4lessIcESaIcEEESt10_Select1stIS7_ES3_IiESaIS7_EE8_M_eraseEPSt13_Rb_tree_nodeIS7_E
	mov	rax, QWORD PTR -32[rbp]
	mov	rdi, rax
	call	_ZNSt8_Rb_treeIiSt4pairIKiSt3setIcSt4lessIcESaIcEEESt10_Select1stIS7_ES3_IiESaIS7_EE7_S_leftEPSt18_Rb_tree_node_base
	mov	QWORD PTR -8[rbp], rax
	mov	rdx, QWORD PTR -32[rbp]
	mov	rax, QWORD PTR -24[rbp]
	mov	rsi, rdx
	mov	rdi, rax
	call	_ZNSt8_Rb_treeIiSt4pairIKiSt3setIcSt4lessIcESaIcEEESt10_Select1stIS7_ES3_IiESaIS7_EE12_M_drop_nodeEPSt13_Rb_tree_nodeIS7_E
	mov	rax, QWORD PTR -8[rbp]
	mov	QWORD PTR -32[rbp], rax
.L118:
	cmp	QWORD PTR -32[rbp], 0
	jne	.L119
	nop
	nop
	leave
	.cfi_def_cfa 7, 8
	ret
	.cfi_endproc
.LFE10927:
	.size	_ZNSt8_Rb_treeIiSt4pairIKiSt3setIcSt4lessIcESaIcEEESt10_Select1stIS7_ES3_IiESaIS7_EE8_M_eraseEPSt13_Rb_tree_nodeIS7_E, .-_ZNSt8_Rb_treeIiSt4pairIKiSt3setIcSt4lessIcESaIcEEESt10_Select1stIS7_ES3_IiESaIS7_EE8_M_eraseEPSt13_Rb_tree_nodeIS7_E
	.section	.text._ZNSt8_Rb_treeIiSt4pairIKiSt3setIcSt4lessIcESaIcEEESt10_Select1stIS7_ES3_IiESaIS7_EE8_M_beginEv,"axG",@progbits,_ZNSt8_Rb_treeIiSt4pairIKiSt3setIcSt4lessIcESaIcEEESt10_Select1stIS7_ES3_IiESaIS7_EE8_M_beginEv,comdat
	.align 2
	.weak	_ZNSt8_Rb_treeIiSt4pairIKiSt3setIcSt4lessIcESaIcEEESt10_Select1stIS7_ES3_IiESaIS7_EE8_M_beginEv
	.type	_ZNSt8_Rb_treeIiSt4pairIKiSt3setIcSt4lessIcESaIcEEESt10_Select1stIS7_ES3_IiESaIS7_EE8_M_beginEv, @function
_ZNSt8_Rb_treeIiSt4pairIKiSt3setIcSt4lessIcESaIcEEESt10_Select1stIS7_ES3_IiESaIS7_EE8_M_beginEv:
.LFB10928:
	.cfi_startproc
	endbr64
	push	rbp
	.cfi_def_cfa_offset 16
	.cfi_offset 6, -16
	mov	rbp, rsp
	.cfi_def_cfa_register 6
	sub	rsp, 16
	mov	QWORD PTR -8[rbp], rdi
	mov	rax, QWORD PTR -8[rbp]
	mov	rdi, rax
	call	_ZNKSt8_Rb_treeIiSt4pairIKiSt3setIcSt4lessIcESaIcEEESt10_Select1stIS7_ES3_IiESaIS7_EE9_M_mbeginEv
	leave
	.cfi_def_cfa 7, 8
	ret
	.cfi_endproc
.LFE10928:
	.size	_ZNSt8_Rb_treeIiSt4pairIKiSt3setIcSt4lessIcESaIcEEESt10_Select1stIS7_ES3_IiESaIS7_EE8_M_beginEv, .-_ZNSt8_Rb_treeIiSt4pairIKiSt3setIcSt4lessIcESaIcEEESt10_Select1stIS7_ES3_IiESaIS7_EE8_M_beginEv
	.section	.text._ZNSt3mapIiSt3setIcSt4lessIcESaIcEES1_IiESaISt4pairIKiS4_EEE11lower_boundERS7_,"axG",@progbits,_ZNSt3mapIiSt3setIcSt4lessIcESaIcEES1_IiESaISt4pairIKiS4_EEE11lower_boundERS7_,comdat
	.align 2
	.weak	_ZNSt3mapIiSt3setIcSt4lessIcESaIcEES1_IiESaISt4pairIKiS4_EEE11lower_boundERS7_
	.type	_ZNSt3mapIiSt3setIcSt4lessIcESaIcEES1_IiESaISt4pairIKiS4_EEE11lower_boundERS7_, @function
_ZNSt3mapIiSt3setIcSt4lessIcESaIcEES1_IiESaISt4pairIKiS4_EEE11lower_boundERS7_:
.LFB10929:
	.cfi_startproc
	endbr64
	push	rbp
	.cfi_def_cfa_offset 16
	.cfi_offset 6, -16
	mov	rbp, rsp
	.cfi_def_cfa_register 6
	sub	rsp, 16
	mov	QWORD PTR -8[rbp], rdi
	mov	QWORD PTR -16[rbp], rsi
	mov	rax, QWORD PTR -8[rbp]
	mov	rdx, QWORD PTR -16[rbp]
	mov	rsi, rdx
	mov	rdi, rax
	call	_ZNSt8_Rb_treeIiSt4pairIKiSt3setIcSt4lessIcESaIcEEESt10_Select1stIS7_ES3_IiESaIS7_EE11lower_boundERS1_
	leave
	.cfi_def_cfa 7, 8
	ret
	.cfi_endproc
.LFE10929:
	.size	_ZNSt3mapIiSt3setIcSt4lessIcESaIcEES1_IiESaISt4pairIKiS4_EEE11lower_boundERS7_, .-_ZNSt3mapIiSt3setIcSt4lessIcESaIcEES1_IiESaISt4pairIKiS4_EEE11lower_boundERS7_
	.section	.text._ZNSt3mapIiSt3setIcSt4lessIcESaIcEES1_IiESaISt4pairIKiS4_EEE3endEv,"axG",@progbits,_ZNSt3mapIiSt3setIcSt4lessIcESaIcEES1_IiESaISt4pairIKiS4_EEE3endEv,comdat
	.align 2
	.weak	_ZNSt3mapIiSt3setIcSt4lessIcESaIcEES1_IiESaISt4pairIKiS4_EEE3endEv
	.type	_ZNSt3mapIiSt3setIcSt4lessIcESaIcEES1_IiESaISt4pairIKiS4_EEE3endEv, @function
_ZNSt3mapIiSt3setIcSt4lessIcESaIcEES1_IiESaISt4pairIKiS4_EEE3endEv:
.LFB10930:
	.cfi_startproc
	endbr64
	push	rbp
	.cfi_def_cfa_offset 16
	.cfi_offset 6, -16
	mov	rbp, rsp
	.cfi_def_cfa_register 6
	sub	rsp, 16
	mov	QWORD PTR -8[rbp], rdi
	mov	rax, QWORD PTR -8[rbp]
	mov	rdi, rax
	call	_ZNSt8_Rb_treeIiSt4pairIKiSt3setIcSt4lessIcESaIcEEESt10_Select1stIS7_ES3_IiESaIS7_EE3endEv
	leave
	.cfi_def_cfa 7, 8
	ret
	.cfi_endproc
.LFE10930:
	.size	_ZNSt3mapIiSt3setIcSt4lessIcESaIcEES1_IiESaISt4pairIKiS4_EEE3endEv, .-_ZNSt3mapIiSt3setIcSt4lessIcESaIcEES1_IiESaISt4pairIKiS4_EEE3endEv
	.section	.text._ZSteqRKSt17_Rb_tree_iteratorISt4pairIKiSt3setIcSt4lessIcESaIcEEEESA_,"axG",@progbits,_ZSteqRKSt17_Rb_tree_iteratorISt4pairIKiSt3setIcSt4lessIcESaIcEEEESA_,comdat
	.weak	_ZSteqRKSt17_Rb_tree_iteratorISt4pairIKiSt3setIcSt4lessIcESaIcEEEESA_
	.type	_ZSteqRKSt17_Rb_tree_iteratorISt4pairIKiSt3setIcSt4lessIcESaIcEEEESA_, @function
_ZSteqRKSt17_Rb_tree_iteratorISt4pairIKiSt3setIcSt4lessIcESaIcEEEESA_:
.LFB10931:
	.cfi_startproc
	endbr64
	push	rbp
	.cfi_def_cfa_offset 16
	.cfi_offset 6, -16
	mov	rbp, rsp
	.cfi_def_cfa_register 6
	mov	QWORD PTR -8[rbp], rdi
	mov	QWORD PTR -16[rbp], rsi
	mov	rax, QWORD PTR -8[rbp]
	mov	rdx, QWORD PTR [rax]
	mov	rax, QWORD PTR -16[rbp]
	mov	rax, QWORD PTR [rax]
	cmp	rdx, rax
	sete	al
	pop	rbp
	.cfi_def_cfa 7, 8
	ret
	.cfi_endproc
.LFE10931:
	.size	_ZSteqRKSt17_Rb_tree_iteratorISt4pairIKiSt3setIcSt4lessIcESaIcEEEESA_, .-_ZSteqRKSt17_Rb_tree_iteratorISt4pairIKiSt3setIcSt4lessIcESaIcEEEESA_
	.section	.text._ZNKSt3mapIiSt3setIcSt4lessIcESaIcEES1_IiESaISt4pairIKiS4_EEE8key_compEv,"axG",@progbits,_ZNKSt3mapIiSt3setIcSt4lessIcESaIcEES1_IiESaISt4pairIKiS4_EEE8key_compEv,comdat
	.align 2
	.weak	_ZNKSt3mapIiSt3setIcSt4lessIcESaIcEES1_IiESaISt4pairIKiS4_EEE8key_compEv
	.type	_ZNKSt3mapIiSt3setIcSt4lessIcESaIcEES1_IiESaISt4pairIKiS4_EEE8key_compEv, @function
_ZNKSt3mapIiSt3setIcSt4lessIcESaIcEES1_IiESaISt4pairIKiS4_EEE8key_compEv:
.LFB10932:
	.cfi_startproc
	endbr64
	push	rbp
	.cfi_def_cfa_offset 16
	.cfi_offset 6, -16
	mov	rbp, rsp
	.cfi_def_cfa_register 6
	push	rbx
	sub	rsp, 24
	.cfi_offset 3, -24
	mov	QWORD PTR -24[rbp], rdi
	mov	rax, QWORD PTR -24[rbp]
	mov	rdi, rax
	call	_ZNKSt8_Rb_treeIiSt4pairIKiSt3setIcSt4lessIcESaIcEEESt10_Select1stIS7_ES3_IiESaIS7_EE8key_compEv
	nop
	mov	eax, ebx
	mov	rbx, QWORD PTR -8[rbp]
	leave
	.cfi_def_cfa 7, 8
	ret
	.cfi_endproc
.LFE10932:
	.size	_ZNKSt3mapIiSt3setIcSt4lessIcESaIcEES1_IiESaISt4pairIKiS4_EEE8key_compEv, .-_ZNKSt3mapIiSt3setIcSt4lessIcESaIcEES1_IiESaISt4pairIKiS4_EEE8key_compEv
	.section	.text._ZNKSt17_Rb_tree_iteratorISt4pairIKiSt3setIcSt4lessIcESaIcEEEEdeEv,"axG",@progbits,_ZNKSt17_Rb_tree_iteratorISt4pairIKiSt3setIcSt4lessIcESaIcEEEEdeEv,comdat
	.align 2
	.weak	_ZNKSt17_Rb_tree_iteratorISt4pairIKiSt3setIcSt4lessIcESaIcEEEEdeEv
	.type	_ZNKSt17_Rb_tree_iteratorISt4pairIKiSt3setIcSt4lessIcESaIcEEEEdeEv, @function
_ZNKSt17_Rb_tree_iteratorISt4pairIKiSt3setIcSt4lessIcESaIcEEEEdeEv:
.LFB10933:
	.cfi_startproc
	endbr64
	push	rbp
	.cfi_def_cfa_offset 16
	.cfi_offset 6, -16
	mov	rbp, rsp
	.cfi_def_cfa_register 6
	sub	rsp, 16
	mov	QWORD PTR -8[rbp], rdi
	mov	rax, QWORD PTR -8[rbp]
	mov	rax, QWORD PTR [rax]
	mov	rdi, rax
	call	_ZNSt13_Rb_tree_nodeISt4pairIKiSt3setIcSt4lessIcESaIcEEEE9_M_valptrEv
	leave
	.cfi_def_cfa 7, 8
	ret
	.cfi_endproc
.LFE10933:
	.size	_ZNKSt17_Rb_tree_iteratorISt4pairIKiSt3setIcSt4lessIcESaIcEEEEdeEv, .-_ZNKSt17_Rb_tree_iteratorISt4pairIKiSt3setIcSt4lessIcESaIcEEEEdeEv
	.section	.text._ZNKSt4lessIiEclERKiS2_,"axG",@progbits,_ZNKSt4lessIiEclERKiS2_,comdat
	.align 2
	.weak	_ZNKSt4lessIiEclERKiS2_
	.type	_ZNKSt4lessIiEclERKiS2_, @function
_ZNKSt4lessIiEclERKiS2_:
.LFB10934:
	.cfi_startproc
	endbr64
	push	rbp
	.cfi_def_cfa_offset 16
	.cfi_offset 6, -16
	mov	rbp, rsp
	.cfi_def_cfa_register 6
	mov	QWORD PTR -8[rbp], rdi
	mov	QWORD PTR -16[rbp], rsi
	mov	QWORD PTR -24[rbp], rdx
	mov	rax, QWORD PTR -16[rbp]
	mov	edx, DWORD PTR [rax]
	mov	rax, QWORD PTR -24[rbp]
	mov	eax, DWORD PTR [rax]
	cmp	edx, eax
	setl	al
	pop	rbp
	.cfi_def_cfa 7, 8
	ret
	.cfi_endproc
.LFE10934:
	.size	_ZNKSt4lessIiEclERKiS2_, .-_ZNKSt4lessIiEclERKiS2_
	.section	.text._ZNSt5tupleIJRKiEEC2ILb1ELb1EEES1_,"axG",@progbits,_ZNSt5tupleIJRKiEEC5ILb1ELb1EEES1_,comdat
	.align 2
	.weak	_ZNSt5tupleIJRKiEEC2ILb1ELb1EEES1_
	.type	_ZNSt5tupleIJRKiEEC2ILb1ELb1EEES1_, @function
_ZNSt5tupleIJRKiEEC2ILb1ELb1EEES1_:
.LFB10936:
	.cfi_startproc
	.cfi_personality 0x9b,DW.ref.__gxx_personality_v0
	.cfi_lsda 0x1b,.LLSDA10936
	endbr64
	push	rbp
	.cfi_def_cfa_offset 16
	.cfi_offset 6, -16
	mov	rbp, rsp
	.cfi_def_cfa_register 6
	sub	rsp, 16
	mov	QWORD PTR -8[rbp], rdi
	mov	QWORD PTR -16[rbp], rsi
	mov	rax, QWORD PTR -8[rbp]
	mov	rdx, QWORD PTR -16[rbp]
	mov	rsi, rdx
	mov	rdi, rax
	call	_ZNSt11_Tuple_implILm0EJRKiEEC2ES1_
	nop
	leave
	.cfi_def_cfa 7, 8
	ret
	.cfi_endproc
.LFE10936:
	.section	.gcc_except_table
.LLSDA10936:
	.byte	0xff
	.byte	0xff
	.byte	0x1
	.uleb128 .LLSDACSE10936-.LLSDACSB10936
.LLSDACSB10936:
.LLSDACSE10936:
	.section	.text._ZNSt5tupleIJRKiEEC2ILb1ELb1EEES1_,"axG",@progbits,_ZNSt5tupleIJRKiEEC5ILb1ELb1EEES1_,comdat
	.size	_ZNSt5tupleIJRKiEEC2ILb1ELb1EEES1_, .-_ZNSt5tupleIJRKiEEC2ILb1ELb1EEES1_
	.weak	_ZNSt5tupleIJRKiEEC1ILb1ELb1EEES1_
	.set	_ZNSt5tupleIJRKiEEC1ILb1ELb1EEES1_,_ZNSt5tupleIJRKiEEC2ILb1ELb1EEES1_
	.section	.text._ZNSt23_Rb_tree_const_iteratorISt4pairIKiSt3setIcSt4lessIcESaIcEEEEC2ERKSt17_Rb_tree_iteratorIS7_E,"axG",@progbits,_ZNSt23_Rb_tree_const_iteratorISt4pairIKiSt3setIcSt4lessIcESaIcEEEEC5ERKSt17_Rb_tree_iteratorIS7_E,comdat
	.align 2
	.weak	_ZNSt23_Rb_tree_const_iteratorISt4pairIKiSt3setIcSt4lessIcESaIcEEEEC2ERKSt17_Rb_tree_iteratorIS7_E
	.type	_ZNSt23_Rb_tree_const_iteratorISt4pairIKiSt3setIcSt4lessIcESaIcEEEEC2ERKSt17_Rb_tree_iteratorIS7_E, @function
_ZNSt23_Rb_tree_const_iteratorISt4pairIKiSt3setIcSt4lessIcESaIcEEEEC2ERKSt17_Rb_tree_iteratorIS7_E:
.LFB10939:
	.cfi_startproc
	endbr64
	push	rbp
	.cfi_def_cfa_offset 16
	.cfi_offset 6, -16
	mov	rbp, rsp
	.cfi_def_cfa_register 6
	mov	QWORD PTR -8[rbp], rdi
	mov	QWORD PTR -16[rbp], rsi
	mov	rax, QWORD PTR -16[rbp]
	mov	rdx, QWORD PTR [rax]
	mov	rax, QWORD PTR -8[rbp]
	mov	QWORD PTR [rax], rdx
	nop
	pop	rbp
	.cfi_def_cfa 7, 8
	ret
	.cfi_endproc
.LFE10939:
	.size	_ZNSt23_Rb_tree_const_iteratorISt4pairIKiSt3setIcSt4lessIcESaIcEEEEC2ERKSt17_Rb_tree_iteratorIS7_E, .-_ZNSt23_Rb_tree_const_iteratorISt4pairIKiSt3setIcSt4lessIcESaIcEEEEC2ERKSt17_Rb_tree_iteratorIS7_E
	.weak	_ZNSt23_Rb_tree_const_iteratorISt4pairIKiSt3setIcSt4lessIcESaIcEEEEC1ERKSt17_Rb_tree_iteratorIS7_E
	.set	_ZNSt23_Rb_tree_const_iteratorISt4pairIKiSt3setIcSt4lessIcESaIcEEEEC1ERKSt17_Rb_tree_iteratorIS7_E,_ZNSt23_Rb_tree_const_iteratorISt4pairIKiSt3setIcSt4lessIcESaIcEEEEC2ERKSt17_Rb_tree_iteratorIS7_E
	.section	.text._ZNSt8_Rb_treeIiSt4pairIKiSt3setIcSt4lessIcESaIcEEESt10_Select1stIS7_ES3_IiESaIS7_EE22_M_emplace_hint_uniqueIJRKSt21piecewise_construct_tSt5tupleIJRS1_EESH_IJEEEEESt17_Rb_tree_iteratorIS7_ESt23_Rb_tree_const_iteratorIS7_EDpOT_,"axG",@progbits,_ZNSt8_Rb_treeIiSt4pairIKiSt3setIcSt4lessIcESaIcEEESt10_Select1stIS7_ES3_IiESaIS7_EE22_M_emplace_hint_uniqueIJRKSt21piecewise_construct_tSt5tupleIJRS1_EESH_IJEEEEESt17_Rb_tree_iteratorIS7_ESt23_Rb_tree_const_iteratorIS7_EDpOT_,comdat
	.align 2
	.weak	_ZNSt8_Rb_treeIiSt4pairIKiSt3setIcSt4lessIcESaIcEEESt10_Select1stIS7_ES3_IiESaIS7_EE22_M_emplace_hint_uniqueIJRKSt21piecewise_construct_tSt5tupleIJRS1_EESH_IJEEEEESt17_Rb_tree_iteratorIS7_ESt23_Rb_tree_const_iteratorIS7_EDpOT_
	.type	_ZNSt8_Rb_treeIiSt4pairIKiSt3setIcSt4lessIcESaIcEEESt10_Select1stIS7_ES3_IiESaIS7_EE22_M_emplace_hint_uniqueIJRKSt21piecewise_construct_tSt5tupleIJRS1_EESH_IJEEEEESt17_Rb_tree_iteratorIS7_ESt23_Rb_tree_const_iteratorIS7_EDpOT_, @function
_ZNSt8_Rb_treeIiSt4pairIKiSt3setIcSt4lessIcESaIcEEESt10_Select1stIS7_ES3_IiESaIS7_EE22_M_emplace_hint_uniqueIJRKSt21piecewise_construct_tSt5tupleIJRS1_EESH_IJEEEEESt17_Rb_tree_iteratorIS7_ESt23_Rb_tree_const_iteratorIS7_EDpOT_:
.LFB10941:
	.cfi_startproc
	.cfi_personality 0x9b,DW.ref.__gxx_personality_v0
	.cfi_lsda 0x1b,.LLSDA10941
	endbr64
	push	rbp
	.cfi_def_cfa_offset 16
	.cfi_offset 6, -16
	mov	rbp, rsp
	.cfi_def_cfa_register 6
	push	r12
	push	rbx
	sub	rsp, 96
	.cfi_offset 12, -24
	.cfi_offset 3, -32
	mov	QWORD PTR -72[rbp], rdi
	mov	QWORD PTR -80[rbp], rsi
	mov	QWORD PTR -88[rbp], rdx
	mov	QWORD PTR -96[rbp], rcx
	mov	QWORD PTR -104[rbp], r8
	mov	rax, QWORD PTR fs:40
	mov	QWORD PTR -24[rbp], rax
	xor	eax, eax
	mov	rax, QWORD PTR -104[rbp]
	mov	rdi, rax
	call	_ZSt7forwardISt5tupleIJEEEOT_RNSt16remove_referenceIS2_E4typeE
	mov	r12, rax
	mov	rax, QWORD PTR -96[rbp]
	mov	rdi, rax
	call	_ZSt7forwardISt5tupleIJRKiEEEOT_RNSt16remove_referenceIS4_E4typeE
	mov	rbx, rax
	mov	rax, QWORD PTR -88[rbp]
	mov	rdi, rax
	call	_ZSt7forwardIRKSt21piecewise_construct_tEOT_RNSt16remove_referenceIS3_E4typeE
	mov	rsi, rax
	mov	rax, QWORD PTR -72[rbp]
	mov	rcx, r12
	mov	rdx, rbx
	mov	rdi, rax
.LEHB11:
	call	_ZNSt8_Rb_treeIiSt4pairIKiSt3setIcSt4lessIcESaIcEEESt10_Select1stIS7_ES3_IiESaIS7_EE14_M_create_nodeIJRKSt21piecewise_construct_tSt5tupleIJRS1_EESH_IJEEEEEPSt13_Rb_tree_nodeIS7_EDpOT_
.LEHE11:
	mov	QWORD PTR -56[rbp], rax
	mov	rax, QWORD PTR -56[rbp]
	mov	rdi, rax
.LEHB12:
	call	_ZNSt8_Rb_treeIiSt4pairIKiSt3setIcSt4lessIcESaIcEEESt10_Select1stIS7_ES3_IiESaIS7_EE6_S_keyEPKSt13_Rb_tree_nodeIS7_E
	mov	rdx, rax
	mov	rcx, QWORD PTR -80[rbp]
	mov	rax, QWORD PTR -72[rbp]
	mov	rsi, rcx
	mov	rdi, rax
	call	_ZNSt8_Rb_treeIiSt4pairIKiSt3setIcSt4lessIcESaIcEEESt10_Select1stIS7_ES3_IiESaIS7_EE29_M_get_insert_hint_unique_posESt23_Rb_tree_const_iteratorIS7_ERS1_
	mov	QWORD PTR -48[rbp], rax
	mov	QWORD PTR -40[rbp], rdx
	mov	rax, QWORD PTR -40[rbp]
	test	rax, rax
	je	.L137
	mov	rdx, QWORD PTR -40[rbp]
	mov	rsi, QWORD PTR -48[rbp]
	mov	rcx, QWORD PTR -56[rbp]
	mov	rax, QWORD PTR -72[rbp]
	mov	rdi, rax
	call	_ZNSt8_Rb_treeIiSt4pairIKiSt3setIcSt4lessIcESaIcEEESt10_Select1stIS7_ES3_IiESaIS7_EE14_M_insert_nodeEPSt18_Rb_tree_node_baseSE_PSt13_Rb_tree_nodeIS7_E
.LEHE12:
	jmp	.L139
.L137:
	mov	rdx, QWORD PTR -56[rbp]
	mov	rax, QWORD PTR -72[rbp]
	mov	rsi, rdx
	mov	rdi, rax
	call	_ZNSt8_Rb_treeIiSt4pairIKiSt3setIcSt4lessIcESaIcEEESt10_Select1stIS7_ES3_IiESaIS7_EE12_M_drop_nodeEPSt13_Rb_tree_nodeIS7_E
	mov	rdx, QWORD PTR -48[rbp]
	lea	rax, -64[rbp]
	mov	rsi, rdx
	mov	rdi, rax
	call	_ZNSt17_Rb_tree_iteratorISt4pairIKiSt3setIcSt4lessIcESaIcEEEEC1EPSt18_Rb_tree_node_base
	mov	rax, QWORD PTR -64[rbp]
.L139:
	mov	rdx, QWORD PTR -24[rbp]
	sub	rdx, QWORD PTR fs:40
	je	.L142
	jmp	.L145
.L143:
	endbr64
	mov	rdi, rax
	call	__cxa_begin_catch@PLT
	mov	rdx, QWORD PTR -56[rbp]
	mov	rax, QWORD PTR -72[rbp]
	mov	rsi, rdx
	mov	rdi, rax
	call	_ZNSt8_Rb_treeIiSt4pairIKiSt3setIcSt4lessIcESaIcEEESt10_Select1stIS7_ES3_IiESaIS7_EE12_M_drop_nodeEPSt13_Rb_tree_nodeIS7_E
.LEHB13:
	call	__cxa_rethrow@PLT
.LEHE13:
.L144:
	endbr64
	mov	rbx, rax
	call	__cxa_end_catch@PLT
	mov	rax, rbx
	mov	rdi, rax
.LEHB14:
	call	_Unwind_Resume@PLT
.LEHE14:
.L145:
	call	__stack_chk_fail@PLT
.L142:
	add	rsp, 96
	pop	rbx
	pop	r12
	pop	rbp
	.cfi_def_cfa 7, 8
	ret
	.cfi_endproc
.LFE10941:
	.section	.gcc_except_table
	.align 4
.LLSDA10941:
	.byte	0xff
	.byte	0x9b
	.uleb128 .LLSDATT10941-.LLSDATTD10941
.LLSDATTD10941:
	.byte	0x1
	.uleb128 .LLSDACSE10941-.LLSDACSB10941
.LLSDACSB10941:
	.uleb128 .LEHB11-.LFB10941
	.uleb128 .LEHE11-.LEHB11
	.uleb128 0
	.uleb128 0
	.uleb128 .LEHB12-.LFB10941
	.uleb128 .LEHE12-.LEHB12
	.uleb128 .L143-.LFB10941
	.uleb128 0x1
	.uleb128 .LEHB13-.LFB10941
	.uleb128 .LEHE13-.LEHB13
	.uleb128 .L144-.LFB10941
	.uleb128 0
	.uleb128 .LEHB14-.LFB10941
	.uleb128 .LEHE14-.LEHB14
	.uleb128 0
	.uleb128 0
.LLSDACSE10941:
	.byte	0x1
	.byte	0
	.align 4
	.long	0

.LLSDATT10941:
	.section	.text._ZNSt8_Rb_treeIiSt4pairIKiSt3setIcSt4lessIcESaIcEEESt10_Select1stIS7_ES3_IiESaIS7_EE22_M_emplace_hint_uniqueIJRKSt21piecewise_construct_tSt5tupleIJRS1_EESH_IJEEEEESt17_Rb_tree_iteratorIS7_ESt23_Rb_tree_const_iteratorIS7_EDpOT_,"axG",@progbits,_ZNSt8_Rb_treeIiSt4pairIKiSt3setIcSt4lessIcESaIcEEESt10_Select1stIS7_ES3_IiESaIS7_EE22_M_emplace_hint_uniqueIJRKSt21piecewise_construct_tSt5tupleIJRS1_EESH_IJEEEEESt17_Rb_tree_iteratorIS7_ESt23_Rb_tree_const_iteratorIS7_EDpOT_,comdat
	.size	_ZNSt8_Rb_treeIiSt4pairIKiSt3setIcSt4lessIcESaIcEEESt10_Select1stIS7_ES3_IiESaIS7_EE22_M_emplace_hint_uniqueIJRKSt21piecewise_construct_tSt5tupleIJRS1_EESH_IJEEEEESt17_Rb_tree_iteratorIS7_ESt23_Rb_tree_const_iteratorIS7_EDpOT_, .-_ZNSt8_Rb_treeIiSt4pairIKiSt3setIcSt4lessIcESaIcEEESt10_Select1stIS7_ES3_IiESaIS7_EE22_M_emplace_hint_uniqueIJRKSt21piecewise_construct_tSt5tupleIJRS1_EESH_IJEEEEESt17_Rb_tree_iteratorIS7_ESt23_Rb_tree_const_iteratorIS7_EDpOT_
	.section	.text._ZNSt8_Rb_treeIccSt9_IdentityIcESt4lessIcESaIcEE16_M_insert_uniqueIRKcEESt4pairISt17_Rb_tree_iteratorIcEbEOT_,"axG",@progbits,_ZNSt8_Rb_treeIccSt9_IdentityIcESt4lessIcESaIcEE16_M_insert_uniqueIRKcEESt4pairISt17_Rb_tree_iteratorIcEbEOT_,comdat
	.align 2
	.weak	_ZNSt8_Rb_treeIccSt9_IdentityIcESt4lessIcESaIcEE16_M_insert_uniqueIRKcEESt4pairISt17_Rb_tree_iteratorIcEbEOT_
	.type	_ZNSt8_Rb_treeIccSt9_IdentityIcESt4lessIcESaIcEE16_M_insert_uniqueIRKcEESt4pairISt17_Rb_tree_iteratorIcEbEOT_, @function
_ZNSt8_Rb_treeIccSt9_IdentityIcESt4lessIcESaIcEE16_M_insert_uniqueIRKcEESt4pairISt17_Rb_tree_iteratorIcEbEOT_:
.LFB10942:
	.cfi_startproc
	endbr64
	push	rbp
	.cfi_def_cfa_offset 16
	.cfi_offset 6, -16
	mov	rbp, rsp
	.cfi_def_cfa_register 6
	sub	rsp, 96
	mov	QWORD PTR -88[rbp], rdi
	mov	QWORD PTR -96[rbp], rsi
	mov	rax, QWORD PTR fs:40
	mov	QWORD PTR -8[rbp], rax
	xor	eax, eax
	mov	rdx, QWORD PTR -96[rbp]
	lea	rax, -32[rbp]
	mov	rsi, rdx
	mov	rdi, rax
	call	_ZNKSt9_IdentityIcEclERKc
	mov	rdx, rax
	mov	rax, QWORD PTR -88[rbp]
	mov	rsi, rdx
	mov	rdi, rax
	call	_ZNSt8_Rb_treeIccSt9_IdentityIcESt4lessIcESaIcEE24_M_get_insert_unique_posERKc
	mov	QWORD PTR -48[rbp], rax
	mov	QWORD PTR -40[rbp], rdx
	mov	rax, QWORD PTR -40[rbp]
	test	rax, rax
	je	.L147
	mov	rdx, QWORD PTR -88[rbp]
	lea	rax, -64[rbp]
	mov	rsi, rdx
	mov	rdi, rax
	call	_ZNSt8_Rb_treeIccSt9_IdentityIcESt4lessIcESaIcEE11_Alloc_nodeC1ERS5_
	mov	BYTE PTR -65[rbp], 1
	mov	rax, QWORD PTR -96[rbp]
	mov	rdi, rax
	call	_ZSt7forwardIRKcEOT_RNSt16remove_referenceIS2_E4typeE
	mov	rcx, rax
	mov	rdx, QWORD PTR -40[rbp]
	mov	rsi, QWORD PTR -48[rbp]
	lea	rdi, -64[rbp]
	mov	rax, QWORD PTR -88[rbp]
	mov	r8, rdi
	mov	rdi, rax
	call	_ZNSt8_Rb_treeIccSt9_IdentityIcESt4lessIcESaIcEE10_M_insert_IRKcNS5_11_Alloc_nodeEEESt17_Rb_tree_iteratorIcEPSt18_Rb_tree_node_baseSD_OT_RT0_
	mov	QWORD PTR -56[rbp], rax
	lea	rdx, -65[rbp]
	lea	rcx, -56[rbp]
	lea	rax, -32[rbp]
	mov	rsi, rcx
	mov	rdi, rax
	call	_ZNSt4pairISt17_Rb_tree_iteratorIcEbEC1IS1_bLb1EEEOT_OT0_
	mov	rax, QWORD PTR -32[rbp]
	mov	rdx, QWORD PTR -24[rbp]
	jmp	.L149
.L147:
	mov	BYTE PTR -64[rbp], 0
	mov	rdx, QWORD PTR -48[rbp]
	lea	rax, -56[rbp]
	mov	rsi, rdx
	mov	rdi, rax
	call	_ZNSt17_Rb_tree_iteratorIcEC1EPSt18_Rb_tree_node_base
	lea	rdx, -64[rbp]
	lea	rcx, -56[rbp]
	lea	rax, -32[rbp]
	mov	rsi, rcx
	mov	rdi, rax
	call	_ZNSt4pairISt17_Rb_tree_iteratorIcEbEC1IS1_bLb1EEEOT_OT0_
	mov	rax, QWORD PTR -32[rbp]
	mov	rdx, QWORD PTR -24[rbp]
.L149:
	mov	rcx, QWORD PTR -8[rbp]
	sub	rcx, QWORD PTR fs:40
	je	.L150
	call	__stack_chk_fail@PLT
.L150:
	leave
	.cfi_def_cfa 7, 8
	ret
	.cfi_endproc
.LFE10942:
	.size	_ZNSt8_Rb_treeIccSt9_IdentityIcESt4lessIcESaIcEE16_M_insert_uniqueIRKcEESt4pairISt17_Rb_tree_iteratorIcEbEOT_, .-_ZNSt8_Rb_treeIccSt9_IdentityIcESt4lessIcESaIcEE16_M_insert_uniqueIRKcEESt4pairISt17_Rb_tree_iteratorIcEbEOT_
	.section	.text._ZNSt4pairISt23_Rb_tree_const_iteratorIcEbEC2IRSt17_Rb_tree_iteratorIcERbLb1EEEOT_OT0_,"axG",@progbits,_ZNSt4pairISt23_Rb_tree_const_iteratorIcEbEC5IRSt17_Rb_tree_iteratorIcERbLb1EEEOT_OT0_,comdat
	.align 2
	.weak	_ZNSt4pairISt23_Rb_tree_const_iteratorIcEbEC2IRSt17_Rb_tree_iteratorIcERbLb1EEEOT_OT0_
	.type	_ZNSt4pairISt23_Rb_tree_const_iteratorIcEbEC2IRSt17_Rb_tree_iteratorIcERbLb1EEEOT_OT0_, @function
_ZNSt4pairISt23_Rb_tree_const_iteratorIcEbEC2IRSt17_Rb_tree_iteratorIcERbLb1EEEOT_OT0_:
.LFB10952:
	.cfi_startproc
	endbr64
	push	rbp
	.cfi_def_cfa_offset 16
	.cfi_offset 6, -16
	mov	rbp, rsp
	.cfi_def_cfa_register 6
	push	rbx
	sub	rsp, 40
	.cfi_offset 3, -24
	mov	QWORD PTR -24[rbp], rdi
	mov	QWORD PTR -32[rbp], rsi
	mov	QWORD PTR -40[rbp], rdx
	mov	rbx, QWORD PTR -24[rbp]
	mov	rax, QWORD PTR -32[rbp]
	mov	rdi, rax
	call	_ZSt7forwardIRSt17_Rb_tree_iteratorIcEEOT_RNSt16remove_referenceIS3_E4typeE
	mov	rsi, rax
	mov	rdi, rbx
	call	_ZNSt23_Rb_tree_const_iteratorIcEC1ERKSt17_Rb_tree_iteratorIcE
	mov	rax, QWORD PTR -40[rbp]
	mov	rdi, rax
	call	_ZSt7forwardIRbEOT_RNSt16remove_referenceIS1_E4typeE
	movzx	edx, BYTE PTR [rax]
	mov	rax, QWORD PTR -24[rbp]
	mov	BYTE PTR 8[rax], dl
	nop
	mov	rbx, QWORD PTR -8[rbp]
	leave
	.cfi_def_cfa 7, 8
	ret
	.cfi_endproc
.LFE10952:
	.size	_ZNSt4pairISt23_Rb_tree_const_iteratorIcEbEC2IRSt17_Rb_tree_iteratorIcERbLb1EEEOT_OT0_, .-_ZNSt4pairISt23_Rb_tree_const_iteratorIcEbEC2IRSt17_Rb_tree_iteratorIcERbLb1EEEOT_OT0_
	.weak	_ZNSt4pairISt23_Rb_tree_const_iteratorIcEbEC1IRSt17_Rb_tree_iteratorIcERbLb1EEEOT_OT0_
	.set	_ZNSt4pairISt23_Rb_tree_const_iteratorIcEbEC1IRSt17_Rb_tree_iteratorIcERbLb1EEEOT_OT0_,_ZNSt4pairISt23_Rb_tree_const_iteratorIcEbEC2IRSt17_Rb_tree_iteratorIcERbLb1EEEOT_OT0_
	.section	.text._ZNSt3mapIcSt3setIiSt4lessIiESaIiEES1_IcESaISt4pairIKcS4_EEE11lower_boundERS7_,"axG",@progbits,_ZNSt3mapIcSt3setIiSt4lessIiESaIiEES1_IcESaISt4pairIKcS4_EEE11lower_boundERS7_,comdat
	.align 2
	.weak	_ZNSt3mapIcSt3setIiSt4lessIiESaIiEES1_IcESaISt4pairIKcS4_EEE11lower_boundERS7_
	.type	_ZNSt3mapIcSt3setIiSt4lessIiESaIiEES1_IcESaISt4pairIKcS4_EEE11lower_boundERS7_, @function
_ZNSt3mapIcSt3setIiSt4lessIiESaIiEES1_IcESaISt4pairIKcS4_EEE11lower_boundERS7_:
.LFB10954:
	.cfi_startproc
	endbr64
	push	rbp
	.cfi_def_cfa_offset 16
	.cfi_offset 6, -16
	mov	rbp, rsp
	.cfi_def_cfa_register 6
	sub	rsp, 16
	mov	QWORD PTR -8[rbp], rdi
	mov	QWORD PTR -16[rbp], rsi
	mov	rax, QWORD PTR -8[rbp]
	mov	rdx, QWORD PTR -16[rbp]
	mov	rsi, rdx
	mov	rdi, rax
	call	_ZNSt8_Rb_treeIcSt4pairIKcSt3setIiSt4lessIiESaIiEEESt10_Select1stIS7_ES3_IcESaIS7_EE11lower_boundERS1_
	leave
	.cfi_def_cfa 7, 8
	ret
	.cfi_endproc
.LFE10954:
	.size	_ZNSt3mapIcSt3setIiSt4lessIiESaIiEES1_IcESaISt4pairIKcS4_EEE11lower_boundERS7_, .-_ZNSt3mapIcSt3setIiSt4lessIiESaIiEES1_IcESaISt4pairIKcS4_EEE11lower_boundERS7_
	.section	.text._ZNSt3mapIcSt3setIiSt4lessIiESaIiEES1_IcESaISt4pairIKcS4_EEE3endEv,"axG",@progbits,_ZNSt3mapIcSt3setIiSt4lessIiESaIiEES1_IcESaISt4pairIKcS4_EEE3endEv,comdat
	.align 2
	.weak	_ZNSt3mapIcSt3setIiSt4lessIiESaIiEES1_IcESaISt4pairIKcS4_EEE3endEv
	.type	_ZNSt3mapIcSt3setIiSt4lessIiESaIiEES1_IcESaISt4pairIKcS4_EEE3endEv, @function
_ZNSt3mapIcSt3setIiSt4lessIiESaIiEES1_IcESaISt4pairIKcS4_EEE3endEv:
.LFB10955:
	.cfi_startproc
	endbr64
	push	rbp
	.cfi_def_cfa_offset 16
	.cfi_offset 6, -16
	mov	rbp, rsp
	.cfi_def_cfa_register 6
	sub	rsp, 16
	mov	QWORD PTR -8[rbp], rdi
	mov	rax, QWORD PTR -8[rbp]
	mov	rdi, rax
	call	_ZNSt8_Rb_treeIcSt4pairIKcSt3setIiSt4lessIiESaIiEEESt10_Select1stIS7_ES3_IcESaIS7_EE3endEv
	leave
	.cfi_def_cfa 7, 8
	ret
	.cfi_endproc
.LFE10955:
	.size	_ZNSt3mapIcSt3setIiSt4lessIiESaIiEES1_IcESaISt4pairIKcS4_EEE3endEv, .-_ZNSt3mapIcSt3setIiSt4lessIiESaIiEES1_IcESaISt4pairIKcS4_EEE3endEv
	.section	.text._ZSteqRKSt17_Rb_tree_iteratorISt4pairIKcSt3setIiSt4lessIiESaIiEEEESA_,"axG",@progbits,_ZSteqRKSt17_Rb_tree_iteratorISt4pairIKcSt3setIiSt4lessIiESaIiEEEESA_,comdat
	.weak	_ZSteqRKSt17_Rb_tree_iteratorISt4pairIKcSt3setIiSt4lessIiESaIiEEEESA_
	.type	_ZSteqRKSt17_Rb_tree_iteratorISt4pairIKcSt3setIiSt4lessIiESaIiEEEESA_, @function
_ZSteqRKSt17_Rb_tree_iteratorISt4pairIKcSt3setIiSt4lessIiESaIiEEEESA_:
.LFB10956:
	.cfi_startproc
	endbr64
	push	rbp
	.cfi_def_cfa_offset 16
	.cfi_offset 6, -16
	mov	rbp, rsp
	.cfi_def_cfa_register 6
	mov	QWORD PTR -8[rbp], rdi
	mov	QWORD PTR -16[rbp], rsi
	mov	rax, QWORD PTR -8[rbp]
	mov	rdx, QWORD PTR [rax]
	mov	rax, QWORD PTR -16[rbp]
	mov	rax, QWORD PTR [rax]
	cmp	rdx, rax
	sete	al
	pop	rbp
	.cfi_def_cfa 7, 8
	ret
	.cfi_endproc
.LFE10956:
	.size	_ZSteqRKSt17_Rb_tree_iteratorISt4pairIKcSt3setIiSt4lessIiESaIiEEEESA_, .-_ZSteqRKSt17_Rb_tree_iteratorISt4pairIKcSt3setIiSt4lessIiESaIiEEEESA_
	.section	.text._ZNKSt3mapIcSt3setIiSt4lessIiESaIiEES1_IcESaISt4pairIKcS4_EEE8key_compEv,"axG",@progbits,_ZNKSt3mapIcSt3setIiSt4lessIiESaIiEES1_IcESaISt4pairIKcS4_EEE8key_compEv,comdat
	.align 2
	.weak	_ZNKSt3mapIcSt3setIiSt4lessIiESaIiEES1_IcESaISt4pairIKcS4_EEE8key_compEv
	.type	_ZNKSt3mapIcSt3setIiSt4lessIiESaIiEES1_IcESaISt4pairIKcS4_EEE8key_compEv, @function
_ZNKSt3mapIcSt3setIiSt4lessIiESaIiEES1_IcESaISt4pairIKcS4_EEE8key_compEv:
.LFB10957:
	.cfi_startproc
	endbr64
	push	rbp
	.cfi_def_cfa_offset 16
	.cfi_offset 6, -16
	mov	rbp, rsp
	.cfi_def_cfa_register 6
	push	rbx
	sub	rsp, 24
	.cfi_offset 3, -24
	mov	QWORD PTR -24[rbp], rdi
	mov	rax, QWORD PTR -24[rbp]
	mov	rdi, rax
	call	_ZNKSt8_Rb_treeIcSt4pairIKcSt3setIiSt4lessIiESaIiEEESt10_Select1stIS7_ES3_IcESaIS7_EE8key_compEv
	nop
	mov	eax, ebx
	mov	rbx, QWORD PTR -8[rbp]
	leave
	.cfi_def_cfa 7, 8
	ret
	.cfi_endproc
.LFE10957:
	.size	_ZNKSt3mapIcSt3setIiSt4lessIiESaIiEES1_IcESaISt4pairIKcS4_EEE8key_compEv, .-_ZNKSt3mapIcSt3setIiSt4lessIiESaIiEES1_IcESaISt4pairIKcS4_EEE8key_compEv
	.section	.text._ZNKSt17_Rb_tree_iteratorISt4pairIKcSt3setIiSt4lessIiESaIiEEEEdeEv,"axG",@progbits,_ZNKSt17_Rb_tree_iteratorISt4pairIKcSt3setIiSt4lessIiESaIiEEEEdeEv,comdat
	.align 2
	.weak	_ZNKSt17_Rb_tree_iteratorISt4pairIKcSt3setIiSt4lessIiESaIiEEEEdeEv
	.type	_ZNKSt17_Rb_tree_iteratorISt4pairIKcSt3setIiSt4lessIiESaIiEEEEdeEv, @function
_ZNKSt17_Rb_tree_iteratorISt4pairIKcSt3setIiSt4lessIiESaIiEEEEdeEv:
.LFB10958:
	.cfi_startproc
	endbr64
	push	rbp
	.cfi_def_cfa_offset 16
	.cfi_offset 6, -16
	mov	rbp, rsp
	.cfi_def_cfa_register 6
	sub	rsp, 16
	mov	QWORD PTR -8[rbp], rdi
	mov	rax, QWORD PTR -8[rbp]
	mov	rax, QWORD PTR [rax]
	mov	rdi, rax
	call	_ZNSt13_Rb_tree_nodeISt4pairIKcSt3setIiSt4lessIiESaIiEEEE9_M_valptrEv
	leave
	.cfi_def_cfa 7, 8
	ret
	.cfi_endproc
.LFE10958:
	.size	_ZNKSt17_Rb_tree_iteratorISt4pairIKcSt3setIiSt4lessIiESaIiEEEEdeEv, .-_ZNKSt17_Rb_tree_iteratorISt4pairIKcSt3setIiSt4lessIiESaIiEEEEdeEv
	.section	.text._ZNKSt4lessIcEclERKcS2_,"axG",@progbits,_ZNKSt4lessIcEclERKcS2_,comdat
	.align 2
	.weak	_ZNKSt4lessIcEclERKcS2_
	.type	_ZNKSt4lessIcEclERKcS2_, @function
_ZNKSt4lessIcEclERKcS2_:
.LFB10959:
	.cfi_startproc
	endbr64
	push	rbp
	.cfi_def_cfa_offset 16
	.cfi_offset 6, -16
	mov	rbp, rsp
	.cfi_def_cfa_register 6
	mov	QWORD PTR -8[rbp], rdi
	mov	QWORD PTR -16[rbp], rsi
	mov	QWORD PTR -24[rbp], rdx
	mov	rax, QWORD PTR -16[rbp]
	movzx	edx, BYTE PTR [rax]
	mov	rax, QWORD PTR -24[rbp]
	movzx	eax, BYTE PTR [rax]
	cmp	dl, al
	setl	al
	pop	rbp
	.cfi_def_cfa 7, 8
	ret
	.cfi_endproc
.LFE10959:
	.size	_ZNKSt4lessIcEclERKcS2_, .-_ZNKSt4lessIcEclERKcS2_
	.section	.text._ZNSt5tupleIJRKcEEC2ILb1ELb1EEES1_,"axG",@progbits,_ZNSt5tupleIJRKcEEC5ILb1ELb1EEES1_,comdat
	.align 2
	.weak	_ZNSt5tupleIJRKcEEC2ILb1ELb1EEES1_
	.type	_ZNSt5tupleIJRKcEEC2ILb1ELb1EEES1_, @function
_ZNSt5tupleIJRKcEEC2ILb1ELb1EEES1_:
.LFB10961:
	.cfi_startproc
	.cfi_personality 0x9b,DW.ref.__gxx_personality_v0
	.cfi_lsda 0x1b,.LLSDA10961
	endbr64
	push	rbp
	.cfi_def_cfa_offset 16
	.cfi_offset 6, -16
	mov	rbp, rsp
	.cfi_def_cfa_register 6
	sub	rsp, 16
	mov	QWORD PTR -8[rbp], rdi
	mov	QWORD PTR -16[rbp], rsi
	mov	rax, QWORD PTR -8[rbp]
	mov	rdx, QWORD PTR -16[rbp]
	mov	rsi, rdx
	mov	rdi, rax
	call	_ZNSt11_Tuple_implILm0EJRKcEEC2ES1_
	nop
	leave
	.cfi_def_cfa 7, 8
	ret
	.cfi_endproc
.LFE10961:
	.section	.gcc_except_table
.LLSDA10961:
	.byte	0xff
	.byte	0xff
	.byte	0x1
	.uleb128 .LLSDACSE10961-.LLSDACSB10961
.LLSDACSB10961:
.LLSDACSE10961:
	.section	.text._ZNSt5tupleIJRKcEEC2ILb1ELb1EEES1_,"axG",@progbits,_ZNSt5tupleIJRKcEEC5ILb1ELb1EEES1_,comdat
	.size	_ZNSt5tupleIJRKcEEC2ILb1ELb1EEES1_, .-_ZNSt5tupleIJRKcEEC2ILb1ELb1EEES1_
	.weak	_ZNSt5tupleIJRKcEEC1ILb1ELb1EEES1_
	.set	_ZNSt5tupleIJRKcEEC1ILb1ELb1EEES1_,_ZNSt5tupleIJRKcEEC2ILb1ELb1EEES1_
	.section	.text._ZNSt23_Rb_tree_const_iteratorISt4pairIKcSt3setIiSt4lessIiESaIiEEEEC2ERKSt17_Rb_tree_iteratorIS7_E,"axG",@progbits,_ZNSt23_Rb_tree_const_iteratorISt4pairIKcSt3setIiSt4lessIiESaIiEEEEC5ERKSt17_Rb_tree_iteratorIS7_E,comdat
	.align 2
	.weak	_ZNSt23_Rb_tree_const_iteratorISt4pairIKcSt3setIiSt4lessIiESaIiEEEEC2ERKSt17_Rb_tree_iteratorIS7_E
	.type	_ZNSt23_Rb_tree_const_iteratorISt4pairIKcSt3setIiSt4lessIiESaIiEEEEC2ERKSt17_Rb_tree_iteratorIS7_E, @function
_ZNSt23_Rb_tree_const_iteratorISt4pairIKcSt3setIiSt4lessIiESaIiEEEEC2ERKSt17_Rb_tree_iteratorIS7_E:
.LFB10964:
	.cfi_startproc
	endbr64
	push	rbp
	.cfi_def_cfa_offset 16
	.cfi_offset 6, -16
	mov	rbp, rsp
	.cfi_def_cfa_register 6
	mov	QWORD PTR -8[rbp], rdi
	mov	QWORD PTR -16[rbp], rsi
	mov	rax, QWORD PTR -16[rbp]
	mov	rdx, QWORD PTR [rax]
	mov	rax, QWORD PTR -8[rbp]
	mov	QWORD PTR [rax], rdx
	nop
	pop	rbp
	.cfi_def_cfa 7, 8
	ret
	.cfi_endproc
.LFE10964:
	.size	_ZNSt23_Rb_tree_const_iteratorISt4pairIKcSt3setIiSt4lessIiESaIiEEEEC2ERKSt17_Rb_tree_iteratorIS7_E, .-_ZNSt23_Rb_tree_const_iteratorISt4pairIKcSt3setIiSt4lessIiESaIiEEEEC2ERKSt17_Rb_tree_iteratorIS7_E
	.weak	_ZNSt23_Rb_tree_const_iteratorISt4pairIKcSt3setIiSt4lessIiESaIiEEEEC1ERKSt17_Rb_tree_iteratorIS7_E
	.set	_ZNSt23_Rb_tree_const_iteratorISt4pairIKcSt3setIiSt4lessIiESaIiEEEEC1ERKSt17_Rb_tree_iteratorIS7_E,_ZNSt23_Rb_tree_const_iteratorISt4pairIKcSt3setIiSt4lessIiESaIiEEEEC2ERKSt17_Rb_tree_iteratorIS7_E
	.section	.text._ZNSt8_Rb_treeIcSt4pairIKcSt3setIiSt4lessIiESaIiEEESt10_Select1stIS7_ES3_IcESaIS7_EE22_M_emplace_hint_uniqueIJRKSt21piecewise_construct_tSt5tupleIJRS1_EESH_IJEEEEESt17_Rb_tree_iteratorIS7_ESt23_Rb_tree_const_iteratorIS7_EDpOT_,"axG",@progbits,_ZNSt8_Rb_treeIcSt4pairIKcSt3setIiSt4lessIiESaIiEEESt10_Select1stIS7_ES3_IcESaIS7_EE22_M_emplace_hint_uniqueIJRKSt21piecewise_construct_tSt5tupleIJRS1_EESH_IJEEEEESt17_Rb_tree_iteratorIS7_ESt23_Rb_tree_const_iteratorIS7_EDpOT_,comdat
	.align 2
	.weak	_ZNSt8_Rb_treeIcSt4pairIKcSt3setIiSt4lessIiESaIiEEESt10_Select1stIS7_ES3_IcESaIS7_EE22_M_emplace_hint_uniqueIJRKSt21piecewise_construct_tSt5tupleIJRS1_EESH_IJEEEEESt17_Rb_tree_iteratorIS7_ESt23_Rb_tree_const_iteratorIS7_EDpOT_
	.type	_ZNSt8_Rb_treeIcSt4pairIKcSt3setIiSt4lessIiESaIiEEESt10_Select1stIS7_ES3_IcESaIS7_EE22_M_emplace_hint_uniqueIJRKSt21piecewise_construct_tSt5tupleIJRS1_EESH_IJEEEEESt17_Rb_tree_iteratorIS7_ESt23_Rb_tree_const_iteratorIS7_EDpOT_, @function
_ZNSt8_Rb_treeIcSt4pairIKcSt3setIiSt4lessIiESaIiEEESt10_Select1stIS7_ES3_IcESaIS7_EE22_M_emplace_hint_uniqueIJRKSt21piecewise_construct_tSt5tupleIJRS1_EESH_IJEEEEESt17_Rb_tree_iteratorIS7_ESt23_Rb_tree_const_iteratorIS7_EDpOT_:
.LFB10966:
	.cfi_startproc
	.cfi_personality 0x9b,DW.ref.__gxx_personality_v0
	.cfi_lsda 0x1b,.LLSDA10966
	endbr64
	push	rbp
	.cfi_def_cfa_offset 16
	.cfi_offset 6, -16
	mov	rbp, rsp
	.cfi_def_cfa_register 6
	push	r12
	push	rbx
	sub	rsp, 96
	.cfi_offset 12, -24
	.cfi_offset 3, -32
	mov	QWORD PTR -72[rbp], rdi
	mov	QWORD PTR -80[rbp], rsi
	mov	QWORD PTR -88[rbp], rdx
	mov	QWORD PTR -96[rbp], rcx
	mov	QWORD PTR -104[rbp], r8
	mov	rax, QWORD PTR fs:40
	mov	QWORD PTR -24[rbp], rax
	xor	eax, eax
	mov	rax, QWORD PTR -104[rbp]
	mov	rdi, rax
	call	_ZSt7forwardISt5tupleIJEEEOT_RNSt16remove_referenceIS2_E4typeE
	mov	r12, rax
	mov	rax, QWORD PTR -96[rbp]
	mov	rdi, rax
	call	_ZSt7forwardISt5tupleIJRKcEEEOT_RNSt16remove_referenceIS4_E4typeE
	mov	rbx, rax
	mov	rax, QWORD PTR -88[rbp]
	mov	rdi, rax
	call	_ZSt7forwardIRKSt21piecewise_construct_tEOT_RNSt16remove_referenceIS3_E4typeE
	mov	rsi, rax
	mov	rax, QWORD PTR -72[rbp]
	mov	rcx, r12
	mov	rdx, rbx
	mov	rdi, rax
.LEHB15:
	call	_ZNSt8_Rb_treeIcSt4pairIKcSt3setIiSt4lessIiESaIiEEESt10_Select1stIS7_ES3_IcESaIS7_EE14_M_create_nodeIJRKSt21piecewise_construct_tSt5tupleIJRS1_EESH_IJEEEEEPSt13_Rb_tree_nodeIS7_EDpOT_
.LEHE15:
	mov	QWORD PTR -56[rbp], rax
	mov	rax, QWORD PTR -56[rbp]
	mov	rdi, rax
.LEHB16:
	call	_ZNSt8_Rb_treeIcSt4pairIKcSt3setIiSt4lessIiESaIiEEESt10_Select1stIS7_ES3_IcESaIS7_EE6_S_keyEPKSt13_Rb_tree_nodeIS7_E
	mov	rdx, rax
	mov	rcx, QWORD PTR -80[rbp]
	mov	rax, QWORD PTR -72[rbp]
	mov	rsi, rcx
	mov	rdi, rax
	call	_ZNSt8_Rb_treeIcSt4pairIKcSt3setIiSt4lessIiESaIiEEESt10_Select1stIS7_ES3_IcESaIS7_EE29_M_get_insert_hint_unique_posESt23_Rb_tree_const_iteratorIS7_ERS1_
	mov	QWORD PTR -48[rbp], rax
	mov	QWORD PTR -40[rbp], rdx
	mov	rax, QWORD PTR -40[rbp]
	test	rax, rax
	je	.L167
	mov	rdx, QWORD PTR -40[rbp]
	mov	rsi, QWORD PTR -48[rbp]
	mov	rcx, QWORD PTR -56[rbp]
	mov	rax, QWORD PTR -72[rbp]
	mov	rdi, rax
	call	_ZNSt8_Rb_treeIcSt4pairIKcSt3setIiSt4lessIiESaIiEEESt10_Select1stIS7_ES3_IcESaIS7_EE14_M_insert_nodeEPSt18_Rb_tree_node_baseSE_PSt13_Rb_tree_nodeIS7_E
.LEHE16:
	jmp	.L169
.L167:
	mov	rdx, QWORD PTR -56[rbp]
	mov	rax, QWORD PTR -72[rbp]
	mov	rsi, rdx
	mov	rdi, rax
	call	_ZNSt8_Rb_treeIcSt4pairIKcSt3setIiSt4lessIiESaIiEEESt10_Select1stIS7_ES3_IcESaIS7_EE12_M_drop_nodeEPSt13_Rb_tree_nodeIS7_E
	mov	rdx, QWORD PTR -48[rbp]
	lea	rax, -64[rbp]
	mov	rsi, rdx
	mov	rdi, rax
	call	_ZNSt17_Rb_tree_iteratorISt4pairIKcSt3setIiSt4lessIiESaIiEEEEC1EPSt18_Rb_tree_node_base
	mov	rax, QWORD PTR -64[rbp]
.L169:
	mov	rdx, QWORD PTR -24[rbp]
	sub	rdx, QWORD PTR fs:40
	je	.L172
	jmp	.L175
.L173:
	endbr64
	mov	rdi, rax
	call	__cxa_begin_catch@PLT
	mov	rdx, QWORD PTR -56[rbp]
	mov	rax, QWORD PTR -72[rbp]
	mov	rsi, rdx
	mov	rdi, rax
	call	_ZNSt8_Rb_treeIcSt4pairIKcSt3setIiSt4lessIiESaIiEEESt10_Select1stIS7_ES3_IcESaIS7_EE12_M_drop_nodeEPSt13_Rb_tree_nodeIS7_E
.LEHB17:
	call	__cxa_rethrow@PLT
.LEHE17:
.L174:
	endbr64
	mov	rbx, rax
	call	__cxa_end_catch@PLT
	mov	rax, rbx
	mov	rdi, rax
.LEHB18:
	call	_Unwind_Resume@PLT
.LEHE18:
.L175:
	call	__stack_chk_fail@PLT
.L172:
	add	rsp, 96
	pop	rbx
	pop	r12
	pop	rbp
	.cfi_def_cfa 7, 8
	ret
	.cfi_endproc
.LFE10966:
	.section	.gcc_except_table
	.align 4
.LLSDA10966:
	.byte	0xff
	.byte	0x9b
	.uleb128 .LLSDATT10966-.LLSDATTD10966
.LLSDATTD10966:
	.byte	0x1
	.uleb128 .LLSDACSE10966-.LLSDACSB10966
.LLSDACSB10966:
	.uleb128 .LEHB15-.LFB10966
	.uleb128 .LEHE15-.LEHB15
	.uleb128 0
	.uleb128 0
	.uleb128 .LEHB16-.LFB10966
	.uleb128 .LEHE16-.LEHB16
	.uleb128 .L173-.LFB10966
	.uleb128 0x1
	.uleb128 .LEHB17-.LFB10966
	.uleb128 .LEHE17-.LEHB17
	.uleb128 .L174-.LFB10966
	.uleb128 0
	.uleb128 .LEHB18-.LFB10966
	.uleb128 .LEHE18-.LEHB18
	.uleb128 0
	.uleb128 0
.LLSDACSE10966:
	.byte	0x1
	.byte	0
	.align 4
	.long	0

.LLSDATT10966:
	.section	.text._ZNSt8_Rb_treeIcSt4pairIKcSt3setIiSt4lessIiESaIiEEESt10_Select1stIS7_ES3_IcESaIS7_EE22_M_emplace_hint_uniqueIJRKSt21piecewise_construct_tSt5tupleIJRS1_EESH_IJEEEEESt17_Rb_tree_iteratorIS7_ESt23_Rb_tree_const_iteratorIS7_EDpOT_,"axG",@progbits,_ZNSt8_Rb_treeIcSt4pairIKcSt3setIiSt4lessIiESaIiEEESt10_Select1stIS7_ES3_IcESaIS7_EE22_M_emplace_hint_uniqueIJRKSt21piecewise_construct_tSt5tupleIJRS1_EESH_IJEEEEESt17_Rb_tree_iteratorIS7_ESt23_Rb_tree_const_iteratorIS7_EDpOT_,comdat
	.size	_ZNSt8_Rb_treeIcSt4pairIKcSt3setIiSt4lessIiESaIiEEESt10_Select1stIS7_ES3_IcESaIS7_EE22_M_emplace_hint_uniqueIJRKSt21piecewise_construct_tSt5tupleIJRS1_EESH_IJEEEEESt17_Rb_tree_iteratorIS7_ESt23_Rb_tree_const_iteratorIS7_EDpOT_, .-_ZNSt8_Rb_treeIcSt4pairIKcSt3setIiSt4lessIiESaIiEEESt10_Select1stIS7_ES3_IcESaIS7_EE22_M_emplace_hint_uniqueIJRKSt21piecewise_construct_tSt5tupleIJRS1_EESH_IJEEEEESt17_Rb_tree_iteratorIS7_ESt23_Rb_tree_const_iteratorIS7_EDpOT_
	.section	.text._ZNSt8_Rb_treeIiiSt9_IdentityIiESt4lessIiESaIiEE16_M_insert_uniqueIRKiEESt4pairISt17_Rb_tree_iteratorIiEbEOT_,"axG",@progbits,_ZNSt8_Rb_treeIiiSt9_IdentityIiESt4lessIiESaIiEE16_M_insert_uniqueIRKiEESt4pairISt17_Rb_tree_iteratorIiEbEOT_,comdat
	.align 2
	.weak	_ZNSt8_Rb_treeIiiSt9_IdentityIiESt4lessIiESaIiEE16_M_insert_uniqueIRKiEESt4pairISt17_Rb_tree_iteratorIiEbEOT_
	.type	_ZNSt8_Rb_treeIiiSt9_IdentityIiESt4lessIiESaIiEE16_M_insert_uniqueIRKiEESt4pairISt17_Rb_tree_iteratorIiEbEOT_, @function
_ZNSt8_Rb_treeIiiSt9_IdentityIiESt4lessIiESaIiEE16_M_insert_uniqueIRKiEESt4pairISt17_Rb_tree_iteratorIiEbEOT_:
.LFB10967:
	.cfi_startproc
	endbr64
	push	rbp
	.cfi_def_cfa_offset 16
	.cfi_offset 6, -16
	mov	rbp, rsp
	.cfi_def_cfa_register 6
	sub	rsp, 96
	mov	QWORD PTR -88[rbp], rdi
	mov	QWORD PTR -96[rbp], rsi
	mov	rax, QWORD PTR fs:40
	mov	QWORD PTR -8[rbp], rax
	xor	eax, eax
	mov	rdx, QWORD PTR -96[rbp]
	lea	rax, -32[rbp]
	mov	rsi, rdx
	mov	rdi, rax
	call	_ZNKSt9_IdentityIiEclERKi
	mov	rdx, rax
	mov	rax, QWORD PTR -88[rbp]
	mov	rsi, rdx
	mov	rdi, rax
	call	_ZNSt8_Rb_treeIiiSt9_IdentityIiESt4lessIiESaIiEE24_M_get_insert_unique_posERKi
	mov	QWORD PTR -48[rbp], rax
	mov	QWORD PTR -40[rbp], rdx
	mov	rax, QWORD PTR -40[rbp]
	test	rax, rax
	je	.L177
	mov	rdx, QWORD PTR -88[rbp]
	lea	rax, -64[rbp]
	mov	rsi, rdx
	mov	rdi, rax
	call	_ZNSt8_Rb_treeIiiSt9_IdentityIiESt4lessIiESaIiEE11_Alloc_nodeC1ERS5_
	mov	BYTE PTR -65[rbp], 1
	mov	rax, QWORD PTR -96[rbp]
	mov	rdi, rax
	call	_ZSt7forwardIRKiEOT_RNSt16remove_referenceIS2_E4typeE
	mov	rcx, rax
	mov	rdx, QWORD PTR -40[rbp]
	mov	rsi, QWORD PTR -48[rbp]
	lea	rdi, -64[rbp]
	mov	rax, QWORD PTR -88[rbp]
	mov	r8, rdi
	mov	rdi, rax
	call	_ZNSt8_Rb_treeIiiSt9_IdentityIiESt4lessIiESaIiEE10_M_insert_IRKiNS5_11_Alloc_nodeEEESt17_Rb_tree_iteratorIiEPSt18_Rb_tree_node_baseSD_OT_RT0_
	mov	QWORD PTR -56[rbp], rax
	lea	rdx, -65[rbp]
	lea	rcx, -56[rbp]
	lea	rax, -32[rbp]
	mov	rsi, rcx
	mov	rdi, rax
	call	_ZNSt4pairISt17_Rb_tree_iteratorIiEbEC1IS1_bLb1EEEOT_OT0_
	mov	rax, QWORD PTR -32[rbp]
	mov	rdx, QWORD PTR -24[rbp]
	jmp	.L179
.L177:
	mov	BYTE PTR -64[rbp], 0
	mov	rdx, QWORD PTR -48[rbp]
	lea	rax, -56[rbp]
	mov	rsi, rdx
	mov	rdi, rax
	call	_ZNSt17_Rb_tree_iteratorIiEC1EPSt18_Rb_tree_node_base
	lea	rdx, -64[rbp]
	lea	rcx, -56[rbp]
	lea	rax, -32[rbp]
	mov	rsi, rcx
	mov	rdi, rax
	call	_ZNSt4pairISt17_Rb_tree_iteratorIiEbEC1IS1_bLb1EEEOT_OT0_
	mov	rax, QWORD PTR -32[rbp]
	mov	rdx, QWORD PTR -24[rbp]
.L179:
	mov	rcx, QWORD PTR -8[rbp]
	sub	rcx, QWORD PTR fs:40
	je	.L180
	call	__stack_chk_fail@PLT
.L180:
	leave
	.cfi_def_cfa 7, 8
	ret
	.cfi_endproc
.LFE10967:
	.size	_ZNSt8_Rb_treeIiiSt9_IdentityIiESt4lessIiESaIiEE16_M_insert_uniqueIRKiEESt4pairISt17_Rb_tree_iteratorIiEbEOT_, .-_ZNSt8_Rb_treeIiiSt9_IdentityIiESt4lessIiESaIiEE16_M_insert_uniqueIRKiEESt4pairISt17_Rb_tree_iteratorIiEbEOT_
	.section	.text._ZNSt4pairISt23_Rb_tree_const_iteratorIiEbEC2IRSt17_Rb_tree_iteratorIiERbLb1EEEOT_OT0_,"axG",@progbits,_ZNSt4pairISt23_Rb_tree_const_iteratorIiEbEC5IRSt17_Rb_tree_iteratorIiERbLb1EEEOT_OT0_,comdat
	.align 2
	.weak	_ZNSt4pairISt23_Rb_tree_const_iteratorIiEbEC2IRSt17_Rb_tree_iteratorIiERbLb1EEEOT_OT0_
	.type	_ZNSt4pairISt23_Rb_tree_const_iteratorIiEbEC2IRSt17_Rb_tree_iteratorIiERbLb1EEEOT_OT0_, @function
_ZNSt4pairISt23_Rb_tree_const_iteratorIiEbEC2IRSt17_Rb_tree_iteratorIiERbLb1EEEOT_OT0_:
.LFB10977:
	.cfi_startproc
	endbr64
	push	rbp
	.cfi_def_cfa_offset 16
	.cfi_offset 6, -16
	mov	rbp, rsp
	.cfi_def_cfa_register 6
	push	rbx
	sub	rsp, 40
	.cfi_offset 3, -24
	mov	QWORD PTR -24[rbp], rdi
	mov	QWORD PTR -32[rbp], rsi
	mov	QWORD PTR -40[rbp], rdx
	mov	rbx, QWORD PTR -24[rbp]
	mov	rax, QWORD PTR -32[rbp]
	mov	rdi, rax
	call	_ZSt7forwardIRSt17_Rb_tree_iteratorIiEEOT_RNSt16remove_referenceIS3_E4typeE
	mov	rsi, rax
	mov	rdi, rbx
	call	_ZNSt23_Rb_tree_const_iteratorIiEC1ERKSt17_Rb_tree_iteratorIiE
	mov	rax, QWORD PTR -40[rbp]
	mov	rdi, rax
	call	_ZSt7forwardIRbEOT_RNSt16remove_referenceIS1_E4typeE
	movzx	edx, BYTE PTR [rax]
	mov	rax, QWORD PTR -24[rbp]
	mov	BYTE PTR 8[rax], dl
	nop
	mov	rbx, QWORD PTR -8[rbp]
	leave
	.cfi_def_cfa 7, 8
	ret
	.cfi_endproc
.LFE10977:
	.size	_ZNSt4pairISt23_Rb_tree_const_iteratorIiEbEC2IRSt17_Rb_tree_iteratorIiERbLb1EEEOT_OT0_, .-_ZNSt4pairISt23_Rb_tree_const_iteratorIiEbEC2IRSt17_Rb_tree_iteratorIiERbLb1EEEOT_OT0_
	.weak	_ZNSt4pairISt23_Rb_tree_const_iteratorIiEbEC1IRSt17_Rb_tree_iteratorIiERbLb1EEEOT_OT0_
	.set	_ZNSt4pairISt23_Rb_tree_const_iteratorIiEbEC1IRSt17_Rb_tree_iteratorIiERbLb1EEEOT_OT0_,_ZNSt4pairISt23_Rb_tree_const_iteratorIiEbEC2IRSt17_Rb_tree_iteratorIiERbLb1EEEOT_OT0_
	.section	.text._ZNKSt8_Rb_treeIccSt9_IdentityIcESt4lessIcESaIcEE4sizeEv,"axG",@progbits,_ZNKSt8_Rb_treeIccSt9_IdentityIcESt4lessIcESaIcEE4sizeEv,comdat
	.align 2
	.weak	_ZNKSt8_Rb_treeIccSt9_IdentityIcESt4lessIcESaIcEE4sizeEv
	.type	_ZNKSt8_Rb_treeIccSt9_IdentityIcESt4lessIcESaIcEE4sizeEv, @function
_ZNKSt8_Rb_treeIccSt9_IdentityIcESt4lessIcESaIcEE4sizeEv:
.LFB10979:
	.cfi_startproc
	endbr64
	push	rbp
	.cfi_def_cfa_offset 16
	.cfi_offset 6, -16
	mov	rbp, rsp
	.cfi_def_cfa_register 6
	mov	QWORD PTR -8[rbp], rdi
	mov	rax, QWORD PTR -8[rbp]
	mov	rax, QWORD PTR 40[rax]
	pop	rbp
	.cfi_def_cfa 7, 8
	ret
	.cfi_endproc
.LFE10979:
	.size	_ZNKSt8_Rb_treeIccSt9_IdentityIcESt4lessIcESaIcEE4sizeEv, .-_ZNKSt8_Rb_treeIccSt9_IdentityIcESt4lessIcESaIcEE4sizeEv
	.section	.text._ZNKSt8_Rb_treeIiiSt9_IdentityIiESt4lessIiESaIiEE4sizeEv,"axG",@progbits,_ZNKSt8_Rb_treeIiiSt9_IdentityIiESt4lessIiESaIiEE4sizeEv,comdat
	.align 2
	.weak	_ZNKSt8_Rb_treeIiiSt9_IdentityIiESt4lessIiESaIiEE4sizeEv
	.type	_ZNKSt8_Rb_treeIiiSt9_IdentityIiESt4lessIiESaIiEE4sizeEv, @function
_ZNKSt8_Rb_treeIiiSt9_IdentityIiESt4lessIiESaIiEE4sizeEv:
.LFB10980:
	.cfi_startproc
	endbr64
	push	rbp
	.cfi_def_cfa_offset 16
	.cfi_offset 6, -16
	mov	rbp, rsp
	.cfi_def_cfa_register 6
	mov	QWORD PTR -8[rbp], rdi
	mov	rax, QWORD PTR -8[rbp]
	mov	rax, QWORD PTR 40[rax]
	pop	rbp
	.cfi_def_cfa 7, 8
	ret
	.cfi_endproc
.LFE10980:
	.size	_ZNKSt8_Rb_treeIiiSt9_IdentityIiESt4lessIiESaIiEE4sizeEv, .-_ZNKSt8_Rb_treeIiiSt9_IdentityIiESt4lessIiESaIiEE4sizeEv
	.section	.text._ZNSt6vectorIiSaIiEE11_S_max_sizeERKS0_,"axG",@progbits,_ZNSt6vectorIiSaIiEE11_S_max_sizeERKS0_,comdat
	.weak	_ZNSt6vectorIiSaIiEE11_S_max_sizeERKS0_
	.type	_ZNSt6vectorIiSaIiEE11_S_max_sizeERKS0_, @function
_ZNSt6vectorIiSaIiEE11_S_max_sizeERKS0_:
.LFB11177:
	.cfi_startproc
	endbr64
	push	rbp
	.cfi_def_cfa_offset 16
	.cfi_offset 6, -16
	mov	rbp, rsp
	.cfi_def_cfa_register 6
	sub	rsp, 48
	mov	QWORD PTR -40[rbp], rdi
	mov	rax, QWORD PTR fs:40
	mov	QWORD PTR -8[rbp], rax
	xor	eax, eax
	movabs	rax, 2305843009213693951
	mov	QWORD PTR -24[rbp], rax
	mov	rax, QWORD PTR -40[rbp]
	mov	rdi, rax
	call	_ZNSt16allocator_traitsISaIiEE8max_sizeERKS0_
	mov	QWORD PTR -16[rbp], rax
	lea	rdx, -16[rbp]
	lea	rax, -24[rbp]
	mov	rsi, rdx
	mov	rdi, rax
	call	_ZSt3minImERKT_S2_S2_
	mov	rax, QWORD PTR [rax]
	mov	rdx, QWORD PTR -8[rbp]
	sub	rdx, QWORD PTR fs:40
	je	.L188
	call	__stack_chk_fail@PLT
.L188:
	leave
	.cfi_def_cfa 7, 8
	ret
	.cfi_endproc
.LFE11177:
	.size	_ZNSt6vectorIiSaIiEE11_S_max_sizeERKS0_, .-_ZNSt6vectorIiSaIiEE11_S_max_sizeERKS0_
	.section	.text._ZNSaIiEC2ERKS_,"axG",@progbits,_ZNSaIiEC5ERKS_,comdat
	.align 2
	.weak	_ZNSaIiEC2ERKS_
	.type	_ZNSaIiEC2ERKS_, @function
_ZNSaIiEC2ERKS_:
.LFB11179:
	.cfi_startproc
	endbr64
	push	rbp
	.cfi_def_cfa_offset 16
	.cfi_offset 6, -16
	mov	rbp, rsp
	.cfi_def_cfa_register 6
	sub	rsp, 16
	mov	QWORD PTR -8[rbp], rdi
	mov	QWORD PTR -16[rbp], rsi
	mov	rdx, QWORD PTR -16[rbp]
	mov	rax, QWORD PTR -8[rbp]
	mov	rsi, rdx
	mov	rdi, rax
	call	_ZN9__gnu_cxx13new_allocatorIiEC2ERKS1_
	nop
	leave
	.cfi_def_cfa 7, 8
	ret
	.cfi_endproc
.LFE11179:
	.size	_ZNSaIiEC2ERKS_, .-_ZNSaIiEC2ERKS_
	.weak	_ZNSaIiEC1ERKS_
	.set	_ZNSaIiEC1ERKS_,_ZNSaIiEC2ERKS_
	.section	.text._ZNSt12_Vector_baseIiSaIiEE12_Vector_implC2ERKS0_,"axG",@progbits,_ZNSt12_Vector_baseIiSaIiEE12_Vector_implC5ERKS0_,comdat
	.align 2
	.weak	_ZNSt12_Vector_baseIiSaIiEE12_Vector_implC2ERKS0_
	.type	_ZNSt12_Vector_baseIiSaIiEE12_Vector_implC2ERKS0_, @function
_ZNSt12_Vector_baseIiSaIiEE12_Vector_implC2ERKS0_:
.LFB11182:
	.cfi_startproc
	endbr64
	push	rbp
	.cfi_def_cfa_offset 16
	.cfi_offset 6, -16
	mov	rbp, rsp
	.cfi_def_cfa_register 6
	sub	rsp, 16
	mov	QWORD PTR -8[rbp], rdi
	mov	QWORD PTR -16[rbp], rsi
	mov	rdx, QWORD PTR -16[rbp]
	mov	rax, QWORD PTR -8[rbp]
	mov	rsi, rdx
	mov	rdi, rax
	call	_ZNSaIiEC2ERKS_
	mov	rax, QWORD PTR -8[rbp]
	mov	rdi, rax
	call	_ZNSt12_Vector_baseIiSaIiEE17_Vector_impl_dataC2Ev
	nop
	leave
	.cfi_def_cfa 7, 8
	ret
	.cfi_endproc
.LFE11182:
	.size	_ZNSt12_Vector_baseIiSaIiEE12_Vector_implC2ERKS0_, .-_ZNSt12_Vector_baseIiSaIiEE12_Vector_implC2ERKS0_
	.weak	_ZNSt12_Vector_baseIiSaIiEE12_Vector_implC1ERKS0_
	.set	_ZNSt12_Vector_baseIiSaIiEE12_Vector_implC1ERKS0_,_ZNSt12_Vector_baseIiSaIiEE12_Vector_implC2ERKS0_
	.section	.text._ZNSt12_Vector_baseIiSaIiEE17_M_create_storageEm,"axG",@progbits,_ZNSt12_Vector_baseIiSaIiEE17_M_create_storageEm,comdat
	.align 2
	.weak	_ZNSt12_Vector_baseIiSaIiEE17_M_create_storageEm
	.type	_ZNSt12_Vector_baseIiSaIiEE17_M_create_storageEm, @function
_ZNSt12_Vector_baseIiSaIiEE17_M_create_storageEm:
.LFB11184:
	.cfi_startproc
	endbr64
	push	rbp
	.cfi_def_cfa_offset 16
	.cfi_offset 6, -16
	mov	rbp, rsp
	.cfi_def_cfa_register 6
	sub	rsp, 16
	mov	QWORD PTR -8[rbp], rdi
	mov	QWORD PTR -16[rbp], rsi
	mov	rdx, QWORD PTR -16[rbp]
	mov	rax, QWORD PTR -8[rbp]
	mov	rsi, rdx
	mov	rdi, rax
	call	_ZNSt12_Vector_baseIiSaIiEE11_M_allocateEm
	mov	rdx, QWORD PTR -8[rbp]
	mov	QWORD PTR [rdx], rax
	mov	rax, QWORD PTR -8[rbp]
	mov	rdx, QWORD PTR [rax]
	mov	rax, QWORD PTR -8[rbp]
	mov	QWORD PTR 8[rax], rdx
	mov	rax, QWORD PTR -8[rbp]
	mov	rdx, QWORD PTR [rax]
	mov	rax, QWORD PTR -16[rbp]
	sal	rax, 2
	add	rdx, rax
	mov	rax, QWORD PTR -8[rbp]
	mov	QWORD PTR 16[rax], rdx
	nop
	leave
	.cfi_def_cfa 7, 8
	ret
	.cfi_endproc
.LFE11184:
	.size	_ZNSt12_Vector_baseIiSaIiEE17_M_create_storageEm, .-_ZNSt12_Vector_baseIiSaIiEE17_M_create_storageEm
	.section	.text._ZNSt12_Vector_baseIiSaIiEE13_M_deallocateEPim,"axG",@progbits,_ZNSt12_Vector_baseIiSaIiEE13_M_deallocateEPim,comdat
	.align 2
	.weak	_ZNSt12_Vector_baseIiSaIiEE13_M_deallocateEPim
	.type	_ZNSt12_Vector_baseIiSaIiEE13_M_deallocateEPim, @function
_ZNSt12_Vector_baseIiSaIiEE13_M_deallocateEPim:
.LFB11185:
	.cfi_startproc
	endbr64
	push	rbp
	.cfi_def_cfa_offset 16
	.cfi_offset 6, -16
	mov	rbp, rsp
	.cfi_def_cfa_register 6
	sub	rsp, 32
	mov	QWORD PTR -8[rbp], rdi
	mov	QWORD PTR -16[rbp], rsi
	mov	QWORD PTR -24[rbp], rdx
	cmp	QWORD PTR -16[rbp], 0
	je	.L194
	mov	rax, QWORD PTR -8[rbp]
	mov	rdx, QWORD PTR -24[rbp]
	mov	rcx, QWORD PTR -16[rbp]
	mov	rsi, rcx
	mov	rdi, rax
	call	_ZNSt16allocator_traitsISaIiEE10deallocateERS0_Pim
.L194:
	nop
	leave
	.cfi_def_cfa 7, 8
	ret
	.cfi_endproc
.LFE11185:
	.size	_ZNSt12_Vector_baseIiSaIiEE13_M_deallocateEPim, .-_ZNSt12_Vector_baseIiSaIiEE13_M_deallocateEPim
	.section	.text._ZSt27__uninitialized_default_n_aIPimiET_S1_T0_RSaIT1_E,"axG",@progbits,_ZSt27__uninitialized_default_n_aIPimiET_S1_T0_RSaIT1_E,comdat
	.weak	_ZSt27__uninitialized_default_n_aIPimiET_S1_T0_RSaIT1_E
	.type	_ZSt27__uninitialized_default_n_aIPimiET_S1_T0_RSaIT1_E, @function
_ZSt27__uninitialized_default_n_aIPimiET_S1_T0_RSaIT1_E:
.LFB11186:
	.cfi_startproc
	endbr64
	push	rbp
	.cfi_def_cfa_offset 16
	.cfi_offset 6, -16
	mov	rbp, rsp
	.cfi_def_cfa_register 6
	sub	rsp, 32
	mov	QWORD PTR -8[rbp], rdi
	mov	QWORD PTR -16[rbp], rsi
	mov	QWORD PTR -24[rbp], rdx
	mov	rdx, QWORD PTR -16[rbp]
	mov	rax, QWORD PTR -8[rbp]
	mov	rsi, rdx
	mov	rdi, rax
	call	_ZSt25__uninitialized_default_nIPimET_S1_T0_
	leave
	.cfi_def_cfa 7, 8
	ret
	.cfi_endproc
.LFE11186:
	.size	_ZSt27__uninitialized_default_n_aIPimiET_S1_T0_RSaIT1_E, .-_ZSt27__uninitialized_default_n_aIPimiET_S1_T0_RSaIT1_E
	.section	.text._ZSt8_DestroyIPiEvT_S1_,"axG",@progbits,_ZSt8_DestroyIPiEvT_S1_,comdat
	.weak	_ZSt8_DestroyIPiEvT_S1_
	.type	_ZSt8_DestroyIPiEvT_S1_, @function
_ZSt8_DestroyIPiEvT_S1_:
.LFB11187:
	.cfi_startproc
	endbr64
	push	rbp
	.cfi_def_cfa_offset 16
	.cfi_offset 6, -16
	mov	rbp, rsp
	.cfi_def_cfa_register 6
	sub	rsp, 16
	mov	QWORD PTR -8[rbp], rdi
	mov	QWORD PTR -16[rbp], rsi
	mov	rdx, QWORD PTR -16[rbp]
	mov	rax, QWORD PTR -8[rbp]
	mov	rsi, rdx
	mov	rdi, rax
	call	_ZNSt12_Destroy_auxILb1EE9__destroyIPiEEvT_S3_
	nop
	leave
	.cfi_def_cfa 7, 8
	ret
	.cfi_endproc
.LFE11187:
	.size	_ZSt8_DestroyIPiEvT_S1_, .-_ZSt8_DestroyIPiEvT_S1_
	.section	.text._ZN9__gnu_cxx13new_allocatorISt13_Rb_tree_nodeISt4pairIKcSt3setIiSt4lessIiESaIiEEEEEC2Ev,"axG",@progbits,_ZN9__gnu_cxx13new_allocatorISt13_Rb_tree_nodeISt4pairIKcSt3setIiSt4lessIiESaIiEEEEEC5Ev,comdat
	.align 2
	.weak	_ZN9__gnu_cxx13new_allocatorISt13_Rb_tree_nodeISt4pairIKcSt3setIiSt4lessIiESaIiEEEEEC2Ev
	.type	_ZN9__gnu_cxx13new_allocatorISt13_Rb_tree_nodeISt4pairIKcSt3setIiSt4lessIiESaIiEEEEEC2Ev, @function
_ZN9__gnu_cxx13new_allocatorISt13_Rb_tree_nodeISt4pairIKcSt3setIiSt4lessIiESaIiEEEEEC2Ev:
.LFB11191:
	.cfi_startproc
	endbr64
	push	rbp
	.cfi_def_cfa_offset 16
	.cfi_offset 6, -16
	mov	rbp, rsp
	.cfi_def_cfa_register 6
	mov	QWORD PTR -8[rbp], rdi
	nop
	pop	rbp
	.cfi_def_cfa 7, 8
	ret
	.cfi_endproc
.LFE11191:
	.size	_ZN9__gnu_cxx13new_allocatorISt13_Rb_tree_nodeISt4pairIKcSt3setIiSt4lessIiESaIiEEEEEC2Ev, .-_ZN9__gnu_cxx13new_allocatorISt13_Rb_tree_nodeISt4pairIKcSt3setIiSt4lessIiESaIiEEEEEC2Ev
	.weak	_ZN9__gnu_cxx13new_allocatorISt13_Rb_tree_nodeISt4pairIKcSt3setIiSt4lessIiESaIiEEEEEC1Ev
	.set	_ZN9__gnu_cxx13new_allocatorISt13_Rb_tree_nodeISt4pairIKcSt3setIiSt4lessIiESaIiEEEEEC1Ev,_ZN9__gnu_cxx13new_allocatorISt13_Rb_tree_nodeISt4pairIKcSt3setIiSt4lessIiESaIiEEEEEC2Ev
	.section	.text._ZNSt8_Rb_treeIcSt4pairIKcSt3setIiSt4lessIiESaIiEEESt10_Select1stIS7_ES3_IcESaIS7_EE8_S_rightEPSt18_Rb_tree_node_base,"axG",@progbits,_ZNSt8_Rb_treeIcSt4pairIKcSt3setIiSt4lessIiESaIiEEESt10_Select1stIS7_ES3_IcESaIS7_EE8_S_rightEPSt18_Rb_tree_node_base,comdat
	.weak	_ZNSt8_Rb_treeIcSt4pairIKcSt3setIiSt4lessIiESaIiEEESt10_Select1stIS7_ES3_IcESaIS7_EE8_S_rightEPSt18_Rb_tree_node_base
	.type	_ZNSt8_Rb_treeIcSt4pairIKcSt3setIiSt4lessIiESaIiEEESt10_Select1stIS7_ES3_IcESaIS7_EE8_S_rightEPSt18_Rb_tree_node_base, @function
_ZNSt8_Rb_treeIcSt4pairIKcSt3setIiSt4lessIiESaIiEEESt10_Select1stIS7_ES3_IcESaIS7_EE8_S_rightEPSt18_Rb_tree_node_base:
.LFB11193:
	.cfi_startproc
	endbr64
	push	rbp
	.cfi_def_cfa_offset 16
	.cfi_offset 6, -16
	mov	rbp, rsp
	.cfi_def_cfa_register 6
	mov	QWORD PTR -8[rbp], rdi
	mov	rax, QWORD PTR -8[rbp]
	mov	rax, QWORD PTR 24[rax]
	pop	rbp
	.cfi_def_cfa 7, 8
	ret
	.cfi_endproc
.LFE11193:
	.size	_ZNSt8_Rb_treeIcSt4pairIKcSt3setIiSt4lessIiESaIiEEESt10_Select1stIS7_ES3_IcESaIS7_EE8_S_rightEPSt18_Rb_tree_node_base, .-_ZNSt8_Rb_treeIcSt4pairIKcSt3setIiSt4lessIiESaIiEEESt10_Select1stIS7_ES3_IcESaIS7_EE8_S_rightEPSt18_Rb_tree_node_base
	.section	.text._ZNSt8_Rb_treeIcSt4pairIKcSt3setIiSt4lessIiESaIiEEESt10_Select1stIS7_ES3_IcESaIS7_EE7_S_leftEPSt18_Rb_tree_node_base,"axG",@progbits,_ZNSt8_Rb_treeIcSt4pairIKcSt3setIiSt4lessIiESaIiEEESt10_Select1stIS7_ES3_IcESaIS7_EE7_S_leftEPSt18_Rb_tree_node_base,comdat
	.weak	_ZNSt8_Rb_treeIcSt4pairIKcSt3setIiSt4lessIiESaIiEEESt10_Select1stIS7_ES3_IcESaIS7_EE7_S_leftEPSt18_Rb_tree_node_base
	.type	_ZNSt8_Rb_treeIcSt4pairIKcSt3setIiSt4lessIiESaIiEEESt10_Select1stIS7_ES3_IcESaIS7_EE7_S_leftEPSt18_Rb_tree_node_base, @function
_ZNSt8_Rb_treeIcSt4pairIKcSt3setIiSt4lessIiESaIiEEESt10_Select1stIS7_ES3_IcESaIS7_EE7_S_leftEPSt18_Rb_tree_node_base:
.LFB11194:
	.cfi_startproc
	endbr64
	push	rbp
	.cfi_def_cfa_offset 16
	.cfi_offset 6, -16
	mov	rbp, rsp
	.cfi_def_cfa_register 6
	mov	QWORD PTR -8[rbp], rdi
	mov	rax, QWORD PTR -8[rbp]
	mov	rax, QWORD PTR 16[rax]
	pop	rbp
	.cfi_def_cfa 7, 8
	ret
	.cfi_endproc
.LFE11194:
	.size	_ZNSt8_Rb_treeIcSt4pairIKcSt3setIiSt4lessIiESaIiEEESt10_Select1stIS7_ES3_IcESaIS7_EE7_S_leftEPSt18_Rb_tree_node_base, .-_ZNSt8_Rb_treeIcSt4pairIKcSt3setIiSt4lessIiESaIiEEESt10_Select1stIS7_ES3_IcESaIS7_EE7_S_leftEPSt18_Rb_tree_node_base
	.section	.text._ZNSt8_Rb_treeIcSt4pairIKcSt3setIiSt4lessIiESaIiEEESt10_Select1stIS7_ES3_IcESaIS7_EE12_M_drop_nodeEPSt13_Rb_tree_nodeIS7_E,"axG",@progbits,_ZNSt8_Rb_treeIcSt4pairIKcSt3setIiSt4lessIiESaIiEEESt10_Select1stIS7_ES3_IcESaIS7_EE12_M_drop_nodeEPSt13_Rb_tree_nodeIS7_E,comdat
	.align 2
	.weak	_ZNSt8_Rb_treeIcSt4pairIKcSt3setIiSt4lessIiESaIiEEESt10_Select1stIS7_ES3_IcESaIS7_EE12_M_drop_nodeEPSt13_Rb_tree_nodeIS7_E
	.type	_ZNSt8_Rb_treeIcSt4pairIKcSt3setIiSt4lessIiESaIiEEESt10_Select1stIS7_ES3_IcESaIS7_EE12_M_drop_nodeEPSt13_Rb_tree_nodeIS7_E, @function
_ZNSt8_Rb_treeIcSt4pairIKcSt3setIiSt4lessIiESaIiEEESt10_Select1stIS7_ES3_IcESaIS7_EE12_M_drop_nodeEPSt13_Rb_tree_nodeIS7_E:
.LFB11195:
	.cfi_startproc
	endbr64
	push	rbp
	.cfi_def_cfa_offset 16
	.cfi_offset 6, -16
	mov	rbp, rsp
	.cfi_def_cfa_register 6
	sub	rsp, 16
	mov	QWORD PTR -8[rbp], rdi
	mov	QWORD PTR -16[rbp], rsi
	mov	rdx, QWORD PTR -16[rbp]
	mov	rax, QWORD PTR -8[rbp]
	mov	rsi, rdx
	mov	rdi, rax
	call	_ZNSt8_Rb_treeIcSt4pairIKcSt3setIiSt4lessIiESaIiEEESt10_Select1stIS7_ES3_IcESaIS7_EE15_M_destroy_nodeEPSt13_Rb_tree_nodeIS7_E
	mov	rdx, QWORD PTR -16[rbp]
	mov	rax, QWORD PTR -8[rbp]
	mov	rsi, rdx
	mov	rdi, rax
	call	_ZNSt8_Rb_treeIcSt4pairIKcSt3setIiSt4lessIiESaIiEEESt10_Select1stIS7_ES3_IcESaIS7_EE11_M_put_nodeEPSt13_Rb_tree_nodeIS7_E
	nop
	leave
	.cfi_def_cfa 7, 8
	ret
	.cfi_endproc
.LFE11195:
	.size	_ZNSt8_Rb_treeIcSt4pairIKcSt3setIiSt4lessIiESaIiEEESt10_Select1stIS7_ES3_IcESaIS7_EE12_M_drop_nodeEPSt13_Rb_tree_nodeIS7_E, .-_ZNSt8_Rb_treeIcSt4pairIKcSt3setIiSt4lessIiESaIiEEESt10_Select1stIS7_ES3_IcESaIS7_EE12_M_drop_nodeEPSt13_Rb_tree_nodeIS7_E
	.section	.text._ZNKSt8_Rb_treeIcSt4pairIKcSt3setIiSt4lessIiESaIiEEESt10_Select1stIS7_ES3_IcESaIS7_EE9_M_mbeginEv,"axG",@progbits,_ZNKSt8_Rb_treeIcSt4pairIKcSt3setIiSt4lessIiESaIiEEESt10_Select1stIS7_ES3_IcESaIS7_EE9_M_mbeginEv,comdat
	.align 2
	.weak	_ZNKSt8_Rb_treeIcSt4pairIKcSt3setIiSt4lessIiESaIiEEESt10_Select1stIS7_ES3_IcESaIS7_EE9_M_mbeginEv
	.type	_ZNKSt8_Rb_treeIcSt4pairIKcSt3setIiSt4lessIiESaIiEEESt10_Select1stIS7_ES3_IcESaIS7_EE9_M_mbeginEv, @function
_ZNKSt8_Rb_treeIcSt4pairIKcSt3setIiSt4lessIiESaIiEEESt10_Select1stIS7_ES3_IcESaIS7_EE9_M_mbeginEv:
.LFB11196:
	.cfi_startproc
	endbr64
	push	rbp
	.cfi_def_cfa_offset 16
	.cfi_offset 6, -16
	mov	rbp, rsp
	.cfi_def_cfa_register 6
	mov	QWORD PTR -8[rbp], rdi
	mov	rax, QWORD PTR -8[rbp]
	mov	rax, QWORD PTR 16[rax]
	pop	rbp
	.cfi_def_cfa 7, 8
	ret
	.cfi_endproc
.LFE11196:
	.size	_ZNKSt8_Rb_treeIcSt4pairIKcSt3setIiSt4lessIiESaIiEEESt10_Select1stIS7_ES3_IcESaIS7_EE9_M_mbeginEv, .-_ZNKSt8_Rb_treeIcSt4pairIKcSt3setIiSt4lessIiESaIiEEESt10_Select1stIS7_ES3_IcESaIS7_EE9_M_mbeginEv
	.section	.text._ZN9__gnu_cxx13new_allocatorISt13_Rb_tree_nodeISt4pairIKiSt3setIcSt4lessIcESaIcEEEEEC2Ev,"axG",@progbits,_ZN9__gnu_cxx13new_allocatorISt13_Rb_tree_nodeISt4pairIKiSt3setIcSt4lessIcESaIcEEEEEC5Ev,comdat
	.align 2
	.weak	_ZN9__gnu_cxx13new_allocatorISt13_Rb_tree_nodeISt4pairIKiSt3setIcSt4lessIcESaIcEEEEEC2Ev
	.type	_ZN9__gnu_cxx13new_allocatorISt13_Rb_tree_nodeISt4pairIKiSt3setIcSt4lessIcESaIcEEEEEC2Ev, @function
_ZN9__gnu_cxx13new_allocatorISt13_Rb_tree_nodeISt4pairIKiSt3setIcSt4lessIcESaIcEEEEEC2Ev:
.LFB11198:
	.cfi_startproc
	endbr64
	push	rbp
	.cfi_def_cfa_offset 16
	.cfi_offset 6, -16
	mov	rbp, rsp
	.cfi_def_cfa_register 6
	mov	QWORD PTR -8[rbp], rdi
	nop
	pop	rbp
	.cfi_def_cfa 7, 8
	ret
	.cfi_endproc
.LFE11198:
	.size	_ZN9__gnu_cxx13new_allocatorISt13_Rb_tree_nodeISt4pairIKiSt3setIcSt4lessIcESaIcEEEEEC2Ev, .-_ZN9__gnu_cxx13new_allocatorISt13_Rb_tree_nodeISt4pairIKiSt3setIcSt4lessIcESaIcEEEEEC2Ev
	.weak	_ZN9__gnu_cxx13new_allocatorISt13_Rb_tree_nodeISt4pairIKiSt3setIcSt4lessIcESaIcEEEEEC1Ev
	.set	_ZN9__gnu_cxx13new_allocatorISt13_Rb_tree_nodeISt4pairIKiSt3setIcSt4lessIcESaIcEEEEEC1Ev,_ZN9__gnu_cxx13new_allocatorISt13_Rb_tree_nodeISt4pairIKiSt3setIcSt4lessIcESaIcEEEEEC2Ev
	.section	.text._ZNSt8_Rb_treeIiSt4pairIKiSt3setIcSt4lessIcESaIcEEESt10_Select1stIS7_ES3_IiESaIS7_EE8_S_rightEPSt18_Rb_tree_node_base,"axG",@progbits,_ZNSt8_Rb_treeIiSt4pairIKiSt3setIcSt4lessIcESaIcEEESt10_Select1stIS7_ES3_IiESaIS7_EE8_S_rightEPSt18_Rb_tree_node_base,comdat
	.weak	_ZNSt8_Rb_treeIiSt4pairIKiSt3setIcSt4lessIcESaIcEEESt10_Select1stIS7_ES3_IiESaIS7_EE8_S_rightEPSt18_Rb_tree_node_base
	.type	_ZNSt8_Rb_treeIiSt4pairIKiSt3setIcSt4lessIcESaIcEEESt10_Select1stIS7_ES3_IiESaIS7_EE8_S_rightEPSt18_Rb_tree_node_base, @function
_ZNSt8_Rb_treeIiSt4pairIKiSt3setIcSt4lessIcESaIcEEESt10_Select1stIS7_ES3_IiESaIS7_EE8_S_rightEPSt18_Rb_tree_node_base:
.LFB11200:
	.cfi_startproc
	endbr64
	push	rbp
	.cfi_def_cfa_offset 16
	.cfi_offset 6, -16
	mov	rbp, rsp
	.cfi_def_cfa_register 6
	mov	QWORD PTR -8[rbp], rdi
	mov	rax, QWORD PTR -8[rbp]
	mov	rax, QWORD PTR 24[rax]
	pop	rbp
	.cfi_def_cfa 7, 8
	ret
	.cfi_endproc
.LFE11200:
	.size	_ZNSt8_Rb_treeIiSt4pairIKiSt3setIcSt4lessIcESaIcEEESt10_Select1stIS7_ES3_IiESaIS7_EE8_S_rightEPSt18_Rb_tree_node_base, .-_ZNSt8_Rb_treeIiSt4pairIKiSt3setIcSt4lessIcESaIcEEESt10_Select1stIS7_ES3_IiESaIS7_EE8_S_rightEPSt18_Rb_tree_node_base
	.section	.text._ZNSt8_Rb_treeIiSt4pairIKiSt3setIcSt4lessIcESaIcEEESt10_Select1stIS7_ES3_IiESaIS7_EE7_S_leftEPSt18_Rb_tree_node_base,"axG",@progbits,_ZNSt8_Rb_treeIiSt4pairIKiSt3setIcSt4lessIcESaIcEEESt10_Select1stIS7_ES3_IiESaIS7_EE7_S_leftEPSt18_Rb_tree_node_base,comdat
	.weak	_ZNSt8_Rb_treeIiSt4pairIKiSt3setIcSt4lessIcESaIcEEESt10_Select1stIS7_ES3_IiESaIS7_EE7_S_leftEPSt18_Rb_tree_node_base
	.type	_ZNSt8_Rb_treeIiSt4pairIKiSt3setIcSt4lessIcESaIcEEESt10_Select1stIS7_ES3_IiESaIS7_EE7_S_leftEPSt18_Rb_tree_node_base, @function
_ZNSt8_Rb_treeIiSt4pairIKiSt3setIcSt4lessIcESaIcEEESt10_Select1stIS7_ES3_IiESaIS7_EE7_S_leftEPSt18_Rb_tree_node_base:
.LFB11201:
	.cfi_startproc
	endbr64
	push	rbp
	.cfi_def_cfa_offset 16
	.cfi_offset 6, -16
	mov	rbp, rsp
	.cfi_def_cfa_register 6
	mov	QWORD PTR -8[rbp], rdi
	mov	rax, QWORD PTR -8[rbp]
	mov	rax, QWORD PTR 16[rax]
	pop	rbp
	.cfi_def_cfa 7, 8
	ret
	.cfi_endproc
.LFE11201:
	.size	_ZNSt8_Rb_treeIiSt4pairIKiSt3setIcSt4lessIcESaIcEEESt10_Select1stIS7_ES3_IiESaIS7_EE7_S_leftEPSt18_Rb_tree_node_base, .-_ZNSt8_Rb_treeIiSt4pairIKiSt3setIcSt4lessIcESaIcEEESt10_Select1stIS7_ES3_IiESaIS7_EE7_S_leftEPSt18_Rb_tree_node_base
	.section	.text._ZNSt8_Rb_treeIiSt4pairIKiSt3setIcSt4lessIcESaIcEEESt10_Select1stIS7_ES3_IiESaIS7_EE12_M_drop_nodeEPSt13_Rb_tree_nodeIS7_E,"axG",@progbits,_ZNSt8_Rb_treeIiSt4pairIKiSt3setIcSt4lessIcESaIcEEESt10_Select1stIS7_ES3_IiESaIS7_EE12_M_drop_nodeEPSt13_Rb_tree_nodeIS7_E,comdat
	.align 2
	.weak	_ZNSt8_Rb_treeIiSt4pairIKiSt3setIcSt4lessIcESaIcEEESt10_Select1stIS7_ES3_IiESaIS7_EE12_M_drop_nodeEPSt13_Rb_tree_nodeIS7_E
	.type	_ZNSt8_Rb_treeIiSt4pairIKiSt3setIcSt4lessIcESaIcEEESt10_Select1stIS7_ES3_IiESaIS7_EE12_M_drop_nodeEPSt13_Rb_tree_nodeIS7_E, @function
_ZNSt8_Rb_treeIiSt4pairIKiSt3setIcSt4lessIcESaIcEEESt10_Select1stIS7_ES3_IiESaIS7_EE12_M_drop_nodeEPSt13_Rb_tree_nodeIS7_E:
.LFB11202:
	.cfi_startproc
	endbr64
	push	rbp
	.cfi_def_cfa_offset 16
	.cfi_offset 6, -16
	mov	rbp, rsp
	.cfi_def_cfa_register 6
	sub	rsp, 16
	mov	QWORD PTR -8[rbp], rdi
	mov	QWORD PTR -16[rbp], rsi
	mov	rdx, QWORD PTR -16[rbp]
	mov	rax, QWORD PTR -8[rbp]
	mov	rsi, rdx
	mov	rdi, rax
	call	_ZNSt8_Rb_treeIiSt4pairIKiSt3setIcSt4lessIcESaIcEEESt10_Select1stIS7_ES3_IiESaIS7_EE15_M_destroy_nodeEPSt13_Rb_tree_nodeIS7_E
	mov	rdx, QWORD PTR -16[rbp]
	mov	rax, QWORD PTR -8[rbp]
	mov	rsi, rdx
	mov	rdi, rax
	call	_ZNSt8_Rb_treeIiSt4pairIKiSt3setIcSt4lessIcESaIcEEESt10_Select1stIS7_ES3_IiESaIS7_EE11_M_put_nodeEPSt13_Rb_tree_nodeIS7_E
	nop
	leave
	.cfi_def_cfa 7, 8
	ret
	.cfi_endproc
.LFE11202:
	.size	_ZNSt8_Rb_treeIiSt4pairIKiSt3setIcSt4lessIcESaIcEEESt10_Select1stIS7_ES3_IiESaIS7_EE12_M_drop_nodeEPSt13_Rb_tree_nodeIS7_E, .-_ZNSt8_Rb_treeIiSt4pairIKiSt3setIcSt4lessIcESaIcEEESt10_Select1stIS7_ES3_IiESaIS7_EE12_M_drop_nodeEPSt13_Rb_tree_nodeIS7_E
	.section	.text._ZNKSt8_Rb_treeIiSt4pairIKiSt3setIcSt4lessIcESaIcEEESt10_Select1stIS7_ES3_IiESaIS7_EE9_M_mbeginEv,"axG",@progbits,_ZNKSt8_Rb_treeIiSt4pairIKiSt3setIcSt4lessIcESaIcEEESt10_Select1stIS7_ES3_IiESaIS7_EE9_M_mbeginEv,comdat
	.align 2
	.weak	_ZNKSt8_Rb_treeIiSt4pairIKiSt3setIcSt4lessIcESaIcEEESt10_Select1stIS7_ES3_IiESaIS7_EE9_M_mbeginEv
	.type	_ZNKSt8_Rb_treeIiSt4pairIKiSt3setIcSt4lessIcESaIcEEESt10_Select1stIS7_ES3_IiESaIS7_EE9_M_mbeginEv, @function
_ZNKSt8_Rb_treeIiSt4pairIKiSt3setIcSt4lessIcESaIcEEESt10_Select1stIS7_ES3_IiESaIS7_EE9_M_mbeginEv:
.LFB11203:
	.cfi_startproc
	endbr64
	push	rbp
	.cfi_def_cfa_offset 16
	.cfi_offset 6, -16
	mov	rbp, rsp
	.cfi_def_cfa_register 6
	mov	QWORD PTR -8[rbp], rdi
	mov	rax, QWORD PTR -8[rbp]
	mov	rax, QWORD PTR 16[rax]
	pop	rbp
	.cfi_def_cfa 7, 8
	ret
	.cfi_endproc
.LFE11203:
	.size	_ZNKSt8_Rb_treeIiSt4pairIKiSt3setIcSt4lessIcESaIcEEESt10_Select1stIS7_ES3_IiESaIS7_EE9_M_mbeginEv, .-_ZNKSt8_Rb_treeIiSt4pairIKiSt3setIcSt4lessIcESaIcEEESt10_Select1stIS7_ES3_IiESaIS7_EE9_M_mbeginEv
	.section	.text._ZNSt8_Rb_treeIiSt4pairIKiSt3setIcSt4lessIcESaIcEEESt10_Select1stIS7_ES3_IiESaIS7_EE11lower_boundERS1_,"axG",@progbits,_ZNSt8_Rb_treeIiSt4pairIKiSt3setIcSt4lessIcESaIcEEESt10_Select1stIS7_ES3_IiESaIS7_EE11lower_boundERS1_,comdat
	.align 2
	.weak	_ZNSt8_Rb_treeIiSt4pairIKiSt3setIcSt4lessIcESaIcEEESt10_Select1stIS7_ES3_IiESaIS7_EE11lower_boundERS1_
	.type	_ZNSt8_Rb_treeIiSt4pairIKiSt3setIcSt4lessIcESaIcEEESt10_Select1stIS7_ES3_IiESaIS7_EE11lower_boundERS1_, @function
_ZNSt8_Rb_treeIiSt4pairIKiSt3setIcSt4lessIcESaIcEEESt10_Select1stIS7_ES3_IiESaIS7_EE11lower_boundERS1_:
.LFB11204:
	.cfi_startproc
	endbr64
	push	rbp
	.cfi_def_cfa_offset 16
	.cfi_offset 6, -16
	mov	rbp, rsp
	.cfi_def_cfa_register 6
	push	rbx
	sub	rsp, 24
	.cfi_offset 3, -24
	mov	QWORD PTR -24[rbp], rdi
	mov	QWORD PTR -32[rbp], rsi
	mov	rax, QWORD PTR -24[rbp]
	mov	rdi, rax
	call	_ZNSt8_Rb_treeIiSt4pairIKiSt3setIcSt4lessIcESaIcEEESt10_Select1stIS7_ES3_IiESaIS7_EE6_M_endEv
	mov	rbx, rax
	mov	rax, QWORD PTR -24[rbp]
	mov	rdi, rax
	call	_ZNSt8_Rb_treeIiSt4pairIKiSt3setIcSt4lessIcESaIcEEESt10_Select1stIS7_ES3_IiESaIS7_EE8_M_beginEv
	mov	rsi, rax
	mov	rdx, QWORD PTR -32[rbp]
	mov	rax, QWORD PTR -24[rbp]
	mov	rcx, rdx
	mov	rdx, rbx
	mov	rdi, rax
	call	_ZNSt8_Rb_treeIiSt4pairIKiSt3setIcSt4lessIcESaIcEEESt10_Select1stIS7_ES3_IiESaIS7_EE14_M_lower_boundEPSt13_Rb_tree_nodeIS7_EPSt18_Rb_tree_node_baseRS1_
	mov	rbx, QWORD PTR -8[rbp]
	leave
	.cfi_def_cfa 7, 8
	ret
	.cfi_endproc
.LFE11204:
	.size	_ZNSt8_Rb_treeIiSt4pairIKiSt3setIcSt4lessIcESaIcEEESt10_Select1stIS7_ES3_IiESaIS7_EE11lower_boundERS1_, .-_ZNSt8_Rb_treeIiSt4pairIKiSt3setIcSt4lessIcESaIcEEESt10_Select1stIS7_ES3_IiESaIS7_EE11lower_boundERS1_
	.section	.text._ZNSt8_Rb_treeIiSt4pairIKiSt3setIcSt4lessIcESaIcEEESt10_Select1stIS7_ES3_IiESaIS7_EE3endEv,"axG",@progbits,_ZNSt8_Rb_treeIiSt4pairIKiSt3setIcSt4lessIcESaIcEEESt10_Select1stIS7_ES3_IiESaIS7_EE3endEv,comdat
	.align 2
	.weak	_ZNSt8_Rb_treeIiSt4pairIKiSt3setIcSt4lessIcESaIcEEESt10_Select1stIS7_ES3_IiESaIS7_EE3endEv
	.type	_ZNSt8_Rb_treeIiSt4pairIKiSt3setIcSt4lessIcESaIcEEESt10_Select1stIS7_ES3_IiESaIS7_EE3endEv, @function
_ZNSt8_Rb_treeIiSt4pairIKiSt3setIcSt4lessIcESaIcEEESt10_Select1stIS7_ES3_IiESaIS7_EE3endEv:
.LFB11205:
	.cfi_startproc
	endbr64
	push	rbp
	.cfi_def_cfa_offset 16
	.cfi_offset 6, -16
	mov	rbp, rsp
	.cfi_def_cfa_register 6
	sub	rsp, 32
	mov	QWORD PTR -24[rbp], rdi
	mov	rax, QWORD PTR fs:40
	mov	QWORD PTR -8[rbp], rax
	xor	eax, eax
	mov	rax, QWORD PTR -24[rbp]
	lea	rdx, 8[rax]
	lea	rax, -16[rbp]
	mov	rsi, rdx
	mov	rdi, rax
	call	_ZNSt17_Rb_tree_iteratorISt4pairIKiSt3setIcSt4lessIcESaIcEEEEC1EPSt18_Rb_tree_node_base
	mov	rax, QWORD PTR -16[rbp]
	mov	rdx, QWORD PTR -8[rbp]
	sub	rdx, QWORD PTR fs:40
	je	.L218
	call	__stack_chk_fail@PLT
.L218:
	leave
	.cfi_def_cfa 7, 8
	ret
	.cfi_endproc
.LFE11205:
	.size	_ZNSt8_Rb_treeIiSt4pairIKiSt3setIcSt4lessIcESaIcEEESt10_Select1stIS7_ES3_IiESaIS7_EE3endEv, .-_ZNSt8_Rb_treeIiSt4pairIKiSt3setIcSt4lessIcESaIcEEESt10_Select1stIS7_ES3_IiESaIS7_EE3endEv
	.section	.text._ZNKSt8_Rb_treeIiSt4pairIKiSt3setIcSt4lessIcESaIcEEESt10_Select1stIS7_ES3_IiESaIS7_EE8key_compEv,"axG",@progbits,_ZNKSt8_Rb_treeIiSt4pairIKiSt3setIcSt4lessIcESaIcEEESt10_Select1stIS7_ES3_IiESaIS7_EE8key_compEv,comdat
	.align 2
	.weak	_ZNKSt8_Rb_treeIiSt4pairIKiSt3setIcSt4lessIcESaIcEEESt10_Select1stIS7_ES3_IiESaIS7_EE8key_compEv
	.type	_ZNKSt8_Rb_treeIiSt4pairIKiSt3setIcSt4lessIcESaIcEEESt10_Select1stIS7_ES3_IiESaIS7_EE8key_compEv, @function
_ZNKSt8_Rb_treeIiSt4pairIKiSt3setIcSt4lessIcESaIcEEESt10_Select1stIS7_ES3_IiESaIS7_EE8key_compEv:
.LFB11206:
	.cfi_startproc
	endbr64
	push	rbp
	.cfi_def_cfa_offset 16
	.cfi_offset 6, -16
	mov	rbp, rsp
	.cfi_def_cfa_register 6
	mov	QWORD PTR -8[rbp], rdi
	nop
	pop	rbp
	.cfi_def_cfa 7, 8
	ret
	.cfi_endproc
.LFE11206:
	.size	_ZNKSt8_Rb_treeIiSt4pairIKiSt3setIcSt4lessIcESaIcEEESt10_Select1stIS7_ES3_IiESaIS7_EE8key_compEv, .-_ZNKSt8_Rb_treeIiSt4pairIKiSt3setIcSt4lessIcESaIcEEESt10_Select1stIS7_ES3_IiESaIS7_EE8key_compEv
	.section	.text._ZNSt13_Rb_tree_nodeISt4pairIKiSt3setIcSt4lessIcESaIcEEEE9_M_valptrEv,"axG",@progbits,_ZNSt13_Rb_tree_nodeISt4pairIKiSt3setIcSt4lessIcESaIcEEEE9_M_valptrEv,comdat
	.align 2
	.weak	_ZNSt13_Rb_tree_nodeISt4pairIKiSt3setIcSt4lessIcESaIcEEEE9_M_valptrEv
	.type	_ZNSt13_Rb_tree_nodeISt4pairIKiSt3setIcSt4lessIcESaIcEEEE9_M_valptrEv, @function
_ZNSt13_Rb_tree_nodeISt4pairIKiSt3setIcSt4lessIcESaIcEEEE9_M_valptrEv:
.LFB11207:
	.cfi_startproc
	endbr64
	push	rbp
	.cfi_def_cfa_offset 16
	.cfi_offset 6, -16
	mov	rbp, rsp
	.cfi_def_cfa_register 6
	sub	rsp, 16
	mov	QWORD PTR -8[rbp], rdi
	mov	rax, QWORD PTR -8[rbp]
	add	rax, 32
	mov	rdi, rax
	call	_ZN9__gnu_cxx16__aligned_membufISt4pairIKiSt3setIcSt4lessIcESaIcEEEE6_M_ptrEv
	leave
	.cfi_def_cfa 7, 8
	ret
	.cfi_endproc
.LFE11207:
	.size	_ZNSt13_Rb_tree_nodeISt4pairIKiSt3setIcSt4lessIcESaIcEEEE9_M_valptrEv, .-_ZNSt13_Rb_tree_nodeISt4pairIKiSt3setIcSt4lessIcESaIcEEEE9_M_valptrEv
	.section	.text._ZNSt11_Tuple_implILm0EJRKiEEC2ES1_,"axG",@progbits,_ZNSt11_Tuple_implILm0EJRKiEEC5ES1_,comdat
	.align 2
	.weak	_ZNSt11_Tuple_implILm0EJRKiEEC2ES1_
	.type	_ZNSt11_Tuple_implILm0EJRKiEEC2ES1_, @function
_ZNSt11_Tuple_implILm0EJRKiEEC2ES1_:
.LFB11209:
	.cfi_startproc
	endbr64
	push	rbp
	.cfi_def_cfa_offset 16
	.cfi_offset 6, -16
	mov	rbp, rsp
	.cfi_def_cfa_register 6
	sub	rsp, 16
	mov	QWORD PTR -8[rbp], rdi
	mov	QWORD PTR -16[rbp], rsi
	mov	rax, QWORD PTR -8[rbp]
	mov	rdx, QWORD PTR -16[rbp]
	mov	rsi, rdx
	mov	rdi, rax
	call	_ZNSt10_Head_baseILm0ERKiLb0EEC2ES1_
	nop
	leave
	.cfi_def_cfa 7, 8
	ret
	.cfi_endproc
.LFE11209:
	.size	_ZNSt11_Tuple_implILm0EJRKiEEC2ES1_, .-_ZNSt11_Tuple_implILm0EJRKiEEC2ES1_
	.weak	_ZNSt11_Tuple_implILm0EJRKiEEC1ES1_
	.set	_ZNSt11_Tuple_implILm0EJRKiEEC1ES1_,_ZNSt11_Tuple_implILm0EJRKiEEC2ES1_
	.section	.text._ZSt7forwardIRKSt21piecewise_construct_tEOT_RNSt16remove_referenceIS3_E4typeE,"axG",@progbits,_ZSt7forwardIRKSt21piecewise_construct_tEOT_RNSt16remove_referenceIS3_E4typeE,comdat
	.weak	_ZSt7forwardIRKSt21piecewise_construct_tEOT_RNSt16remove_referenceIS3_E4typeE
	.type	_ZSt7forwardIRKSt21piecewise_construct_tEOT_RNSt16remove_referenceIS3_E4typeE, @function
_ZSt7forwardIRKSt21piecewise_construct_tEOT_RNSt16remove_referenceIS3_E4typeE:
.LFB11211:
	.cfi_startproc
	endbr64
	push	rbp
	.cfi_def_cfa_offset 16
	.cfi_offset 6, -16
	mov	rbp, rsp
	.cfi_def_cfa_register 6
	mov	QWORD PTR -8[rbp], rdi
	mov	rax, QWORD PTR -8[rbp]
	pop	rbp
	.cfi_def_cfa 7, 8
	ret
	.cfi_endproc
.LFE11211:
	.size	_ZSt7forwardIRKSt21piecewise_construct_tEOT_RNSt16remove_referenceIS3_E4typeE, .-_ZSt7forwardIRKSt21piecewise_construct_tEOT_RNSt16remove_referenceIS3_E4typeE
	.section	.text._ZSt7forwardISt5tupleIJRKiEEEOT_RNSt16remove_referenceIS4_E4typeE,"axG",@progbits,_ZSt7forwardISt5tupleIJRKiEEEOT_RNSt16remove_referenceIS4_E4typeE,comdat
	.weak	_ZSt7forwardISt5tupleIJRKiEEEOT_RNSt16remove_referenceIS4_E4typeE
	.type	_ZSt7forwardISt5tupleIJRKiEEEOT_RNSt16remove_referenceIS4_E4typeE, @function
_ZSt7forwardISt5tupleIJRKiEEEOT_RNSt16remove_referenceIS4_E4typeE:
.LFB11212:
	.cfi_startproc
	endbr64
	push	rbp
	.cfi_def_cfa_offset 16
	.cfi_offset 6, -16
	mov	rbp, rsp
	.cfi_def_cfa_register 6
	mov	QWORD PTR -8[rbp], rdi
	mov	rax, QWORD PTR -8[rbp]
	pop	rbp
	.cfi_def_cfa 7, 8
	ret
	.cfi_endproc
.LFE11212:
	.size	_ZSt7forwardISt5tupleIJRKiEEEOT_RNSt16remove_referenceIS4_E4typeE, .-_ZSt7forwardISt5tupleIJRKiEEEOT_RNSt16remove_referenceIS4_E4typeE
	.section	.text._ZSt7forwardISt5tupleIJEEEOT_RNSt16remove_referenceIS2_E4typeE,"axG",@progbits,_ZSt7forwardISt5tupleIJEEEOT_RNSt16remove_referenceIS2_E4typeE,comdat
	.weak	_ZSt7forwardISt5tupleIJEEEOT_RNSt16remove_referenceIS2_E4typeE
	.type	_ZSt7forwardISt5tupleIJEEEOT_RNSt16remove_referenceIS2_E4typeE, @function
_ZSt7forwardISt5tupleIJEEEOT_RNSt16remove_referenceIS2_E4typeE:
.LFB11213:
	.cfi_startproc
	endbr64
	push	rbp
	.cfi_def_cfa_offset 16
	.cfi_offset 6, -16
	mov	rbp, rsp
	.cfi_def_cfa_register 6
	mov	QWORD PTR -8[rbp], rdi
	mov	rax, QWORD PTR -8[rbp]
	pop	rbp
	.cfi_def_cfa 7, 8
	ret
	.cfi_endproc
.LFE11213:
	.size	_ZSt7forwardISt5tupleIJEEEOT_RNSt16remove_referenceIS2_E4typeE, .-_ZSt7forwardISt5tupleIJEEEOT_RNSt16remove_referenceIS2_E4typeE
	.section	.text._ZNSt8_Rb_treeIiSt4pairIKiSt3setIcSt4lessIcESaIcEEESt10_Select1stIS7_ES3_IiESaIS7_EE14_M_create_nodeIJRKSt21piecewise_construct_tSt5tupleIJRS1_EESH_IJEEEEEPSt13_Rb_tree_nodeIS7_EDpOT_,"axG",@progbits,_ZNSt8_Rb_treeIiSt4pairIKiSt3setIcSt4lessIcESaIcEEESt10_Select1stIS7_ES3_IiESaIS7_EE14_M_create_nodeIJRKSt21piecewise_construct_tSt5tupleIJRS1_EESH_IJEEEEEPSt13_Rb_tree_nodeIS7_EDpOT_,comdat
	.align 2
	.weak	_ZNSt8_Rb_treeIiSt4pairIKiSt3setIcSt4lessIcESaIcEEESt10_Select1stIS7_ES3_IiESaIS7_EE14_M_create_nodeIJRKSt21piecewise_construct_tSt5tupleIJRS1_EESH_IJEEEEEPSt13_Rb_tree_nodeIS7_EDpOT_
	.type	_ZNSt8_Rb_treeIiSt4pairIKiSt3setIcSt4lessIcESaIcEEESt10_Select1stIS7_ES3_IiESaIS7_EE14_M_create_nodeIJRKSt21piecewise_construct_tSt5tupleIJRS1_EESH_IJEEEEEPSt13_Rb_tree_nodeIS7_EDpOT_, @function
_ZNSt8_Rb_treeIiSt4pairIKiSt3setIcSt4lessIcESaIcEEESt10_Select1stIS7_ES3_IiESaIS7_EE14_M_create_nodeIJRKSt21piecewise_construct_tSt5tupleIJRS1_EESH_IJEEEEEPSt13_Rb_tree_nodeIS7_EDpOT_:
.LFB11214:
	.cfi_startproc
	endbr64
	push	rbp
	.cfi_def_cfa_offset 16
	.cfi_offset 6, -16
	mov	rbp, rsp
	.cfi_def_cfa_register 6
	push	r12
	push	rbx
	sub	rsp, 48
	.cfi_offset 12, -24
	.cfi_offset 3, -32
	mov	QWORD PTR -40[rbp], rdi
	mov	QWORD PTR -48[rbp], rsi
	mov	QWORD PTR -56[rbp], rdx
	mov	QWORD PTR -64[rbp], rcx
	mov	rax, QWORD PTR -40[rbp]
	mov	rdi, rax
	call	_ZNSt8_Rb_treeIiSt4pairIKiSt3setIcSt4lessIcESaIcEEESt10_Select1stIS7_ES3_IiESaIS7_EE11_M_get_nodeEv
	mov	QWORD PTR -24[rbp], rax
	mov	rax, QWORD PTR -64[rbp]
	mov	rdi, rax
	call	_ZSt7forwardISt5tupleIJEEEOT_RNSt16remove_referenceIS2_E4typeE
	mov	r12, rax
	mov	rax, QWORD PTR -56[rbp]
	mov	rdi, rax
	call	_ZSt7forwardISt5tupleIJRKiEEEOT_RNSt16remove_referenceIS4_E4typeE
	mov	rbx, rax
	mov	rax, QWORD PTR -48[rbp]
	mov	rdi, rax
	call	_ZSt7forwardIRKSt21piecewise_construct_tEOT_RNSt16remove_referenceIS3_E4typeE
	mov	rdx, rax
	mov	rsi, QWORD PTR -24[rbp]
	mov	rax, QWORD PTR -40[rbp]
	mov	r8, r12
	mov	rcx, rbx
	mov	rdi, rax
	call	_ZNSt8_Rb_treeIiSt4pairIKiSt3setIcSt4lessIcESaIcEEESt10_Select1stIS7_ES3_IiESaIS7_EE17_M_construct_nodeIJRKSt21piecewise_construct_tSt5tupleIJRS1_EESH_IJEEEEEvPSt13_Rb_tree_nodeIS7_EDpOT_
	mov	rax, QWORD PTR -24[rbp]
	add	rsp, 48
	pop	rbx
	pop	r12
	pop	rbp
	.cfi_def_cfa 7, 8
	ret
	.cfi_endproc
.LFE11214:
	.size	_ZNSt8_Rb_treeIiSt4pairIKiSt3setIcSt4lessIcESaIcEEESt10_Select1stIS7_ES3_IiESaIS7_EE14_M_create_nodeIJRKSt21piecewise_construct_tSt5tupleIJRS1_EESH_IJEEEEEPSt13_Rb_tree_nodeIS7_EDpOT_, .-_ZNSt8_Rb_treeIiSt4pairIKiSt3setIcSt4lessIcESaIcEEESt10_Select1stIS7_ES3_IiESaIS7_EE14_M_create_nodeIJRKSt21piecewise_construct_tSt5tupleIJRS1_EESH_IJEEEEEPSt13_Rb_tree_nodeIS7_EDpOT_
	.section	.text._ZNSt8_Rb_treeIiSt4pairIKiSt3setIcSt4lessIcESaIcEEESt10_Select1stIS7_ES3_IiESaIS7_EE29_M_get_insert_hint_unique_posESt23_Rb_tree_const_iteratorIS7_ERS1_,"axG",@progbits,_ZNSt8_Rb_treeIiSt4pairIKiSt3setIcSt4lessIcESaIcEEESt10_Select1stIS7_ES3_IiESaIS7_EE29_M_get_insert_hint_unique_posESt23_Rb_tree_const_iteratorIS7_ERS1_,comdat
	.align 2
	.weak	_ZNSt8_Rb_treeIiSt4pairIKiSt3setIcSt4lessIcESaIcEEESt10_Select1stIS7_ES3_IiESaIS7_EE29_M_get_insert_hint_unique_posESt23_Rb_tree_const_iteratorIS7_ERS1_
	.type	_ZNSt8_Rb_treeIiSt4pairIKiSt3setIcSt4lessIcESaIcEEESt10_Select1stIS7_ES3_IiESaIS7_EE29_M_get_insert_hint_unique_posESt23_Rb_tree_const_iteratorIS7_ERS1_, @function
_ZNSt8_Rb_treeIiSt4pairIKiSt3setIcSt4lessIcESaIcEEESt10_Select1stIS7_ES3_IiESaIS7_EE29_M_get_insert_hint_unique_posESt23_Rb_tree_const_iteratorIS7_ERS1_:
.LFB11215:
	.cfi_startproc
	endbr64
	push	rbp
	.cfi_def_cfa_offset 16
	.cfi_offset 6, -16
	mov	rbp, rsp
	.cfi_def_cfa_register 6
	push	rbx
	sub	rsp, 104
	.cfi_offset 3, -24
	mov	QWORD PTR -88[rbp], rdi
	mov	QWORD PTR -96[rbp], rsi
	mov	QWORD PTR -104[rbp], rdx
	mov	rax, QWORD PTR fs:40
	mov	QWORD PTR -24[rbp], rax
	xor	eax, eax
	lea	rax, -96[rbp]
	mov	rdi, rax
	call	_ZNKSt23_Rb_tree_const_iteratorISt4pairIKiSt3setIcSt4lessIcESaIcEEEE13_M_const_castEv
	mov	QWORD PTR -72[rbp], rax
	mov	rbx, QWORD PTR -72[rbp]
	mov	rax, QWORD PTR -88[rbp]
	mov	rdi, rax
	call	_ZNSt8_Rb_treeIiSt4pairIKiSt3setIcSt4lessIcESaIcEEESt10_Select1stIS7_ES3_IiESaIS7_EE6_M_endEv
	cmp	rbx, rax
	sete	al
	test	al, al
	je	.L233
	mov	rax, QWORD PTR -88[rbp]
	mov	rdi, rax
	call	_ZNKSt8_Rb_treeIiSt4pairIKiSt3setIcSt4lessIcESaIcEEESt10_Select1stIS7_ES3_IiESaIS7_EE4sizeEv
	test	rax, rax
	je	.L234
	mov	rbx, QWORD PTR -88[rbp]
	mov	rax, QWORD PTR -88[rbp]
	mov	rdi, rax
	call	_ZNSt8_Rb_treeIiSt4pairIKiSt3setIcSt4lessIcESaIcEEESt10_Select1stIS7_ES3_IiESaIS7_EE12_M_rightmostEv
	mov	rax, QWORD PTR [rax]
	mov	rdi, rax
	call	_ZNSt8_Rb_treeIiSt4pairIKiSt3setIcSt4lessIcESaIcEEESt10_Select1stIS7_ES3_IiESaIS7_EE6_S_keyEPKSt18_Rb_tree_node_base
	mov	rcx, rax
	mov	rax, QWORD PTR -104[rbp]
	mov	rdx, rax
	mov	rsi, rcx
	mov	rdi, rbx
	call	_ZNKSt4lessIiEclERKiS2_
	test	al, al
	je	.L234
	mov	eax, 1
	jmp	.L235
.L234:
	mov	eax, 0
.L235:
	test	al, al
	je	.L236
	mov	rax, QWORD PTR -88[rbp]
	mov	rdi, rax
	call	_ZNSt8_Rb_treeIiSt4pairIKiSt3setIcSt4lessIcESaIcEEESt10_Select1stIS7_ES3_IiESaIS7_EE12_M_rightmostEv
	mov	rdx, rax
	mov	QWORD PTR -56[rbp], 0
	lea	rcx, -56[rbp]
	lea	rax, -48[rbp]
	mov	rsi, rcx
	mov	rdi, rax
	call	_ZNSt4pairIPSt18_Rb_tree_node_baseS1_EC1IRS1_Lb1EEERKS1_OT_
	mov	rax, QWORD PTR -48[rbp]
	mov	rdx, QWORD PTR -40[rbp]
	jmp	.L248
.L236:
	mov	rdx, QWORD PTR -104[rbp]
	mov	rax, QWORD PTR -88[rbp]
	mov	rsi, rdx
	mov	rdi, rax
	call	_ZNSt8_Rb_treeIiSt4pairIKiSt3setIcSt4lessIcESaIcEEESt10_Select1stIS7_ES3_IiESaIS7_EE24_M_get_insert_unique_posERS1_
	jmp	.L248
.L233:
	mov	rbx, QWORD PTR -88[rbp]
	mov	rax, QWORD PTR -72[rbp]
	mov	rdi, rax
	call	_ZNSt8_Rb_treeIiSt4pairIKiSt3setIcSt4lessIcESaIcEEESt10_Select1stIS7_ES3_IiESaIS7_EE6_S_keyEPKSt18_Rb_tree_node_base
	mov	rdx, rax
	mov	rax, QWORD PTR -104[rbp]
	mov	rsi, rax
	mov	rdi, rbx
	call	_ZNKSt4lessIiEclERKiS2_
	test	al, al
	je	.L238
	mov	rax, QWORD PTR -72[rbp]
	mov	QWORD PTR -64[rbp], rax
	mov	rbx, QWORD PTR -72[rbp]
	mov	rax, QWORD PTR -88[rbp]
	mov	rdi, rax
	call	_ZNSt8_Rb_treeIiSt4pairIKiSt3setIcSt4lessIcESaIcEEESt10_Select1stIS7_ES3_IiESaIS7_EE11_M_leftmostEv
	mov	rax, QWORD PTR [rax]
	cmp	rbx, rax
	sete	al
	test	al, al
	je	.L239
	mov	rax, QWORD PTR -88[rbp]
	mov	rdi, rax
	call	_ZNSt8_Rb_treeIiSt4pairIKiSt3setIcSt4lessIcESaIcEEESt10_Select1stIS7_ES3_IiESaIS7_EE11_M_leftmostEv
	mov	rbx, rax
	mov	rax, QWORD PTR -88[rbp]
	mov	rdi, rax
	call	_ZNSt8_Rb_treeIiSt4pairIKiSt3setIcSt4lessIcESaIcEEESt10_Select1stIS7_ES3_IiESaIS7_EE11_M_leftmostEv
	mov	rcx, rax
	lea	rax, -48[rbp]
	mov	rdx, rbx
	mov	rsi, rcx
	mov	rdi, rax
	call	_ZNSt4pairIPSt18_Rb_tree_node_baseS1_EC1IRS1_S4_Lb1EEEOT_OT0_
	mov	rax, QWORD PTR -48[rbp]
	mov	rdx, QWORD PTR -40[rbp]
	jmp	.L248
.L239:
	mov	rbx, QWORD PTR -88[rbp]
	lea	rax, -64[rbp]
	mov	rdi, rax
	call	_ZNSt17_Rb_tree_iteratorISt4pairIKiSt3setIcSt4lessIcESaIcEEEEmmEv
	mov	rax, QWORD PTR [rax]
	mov	rdi, rax
	call	_ZNSt8_Rb_treeIiSt4pairIKiSt3setIcSt4lessIcESaIcEEESt10_Select1stIS7_ES3_IiESaIS7_EE6_S_keyEPKSt18_Rb_tree_node_base
	mov	rcx, rax
	mov	rax, QWORD PTR -104[rbp]
	mov	rdx, rax
	mov	rsi, rcx
	mov	rdi, rbx
	call	_ZNKSt4lessIiEclERKiS2_
	test	al, al
	je	.L241
	mov	rax, QWORD PTR -64[rbp]
	mov	rdi, rax
	call	_ZNSt8_Rb_treeIiSt4pairIKiSt3setIcSt4lessIcESaIcEEESt10_Select1stIS7_ES3_IiESaIS7_EE8_S_rightEPSt18_Rb_tree_node_base
	test	rax, rax
	sete	al
	test	al, al
	je	.L242
	mov	QWORD PTR -56[rbp], 0
	lea	rdx, -64[rbp]
	lea	rcx, -56[rbp]
	lea	rax, -48[rbp]
	mov	rsi, rcx
	mov	rdi, rax
	call	_ZNSt4pairIPSt18_Rb_tree_node_baseS1_EC1IRS1_Lb1EEERKS1_OT_
	mov	rax, QWORD PTR -48[rbp]
	mov	rdx, QWORD PTR -40[rbp]
	jmp	.L248
.L242:
	lea	rdx, -72[rbp]
	lea	rcx, -72[rbp]
	lea	rax, -48[rbp]
	mov	rsi, rcx
	mov	rdi, rax
	call	_ZNSt4pairIPSt18_Rb_tree_node_baseS1_EC1IRS1_S4_Lb1EEEOT_OT0_
	mov	rax, QWORD PTR -48[rbp]
	mov	rdx, QWORD PTR -40[rbp]
	jmp	.L248
.L241:
	mov	rdx, QWORD PTR -104[rbp]
	mov	rax, QWORD PTR -88[rbp]
	mov	rsi, rdx
	mov	rdi, rax
	call	_ZNSt8_Rb_treeIiSt4pairIKiSt3setIcSt4lessIcESaIcEEESt10_Select1stIS7_ES3_IiESaIS7_EE24_M_get_insert_unique_posERS1_
	jmp	.L248
.L238:
	mov	rbx, QWORD PTR -88[rbp]
	mov	rax, QWORD PTR -72[rbp]
	mov	rdi, rax
	call	_ZNSt8_Rb_treeIiSt4pairIKiSt3setIcSt4lessIcESaIcEEESt10_Select1stIS7_ES3_IiESaIS7_EE6_S_keyEPKSt18_Rb_tree_node_base
	mov	rcx, rax
	mov	rax, QWORD PTR -104[rbp]
	mov	rdx, rax
	mov	rsi, rcx
	mov	rdi, rbx
	call	_ZNKSt4lessIiEclERKiS2_
	test	al, al
	je	.L243
	mov	rax, QWORD PTR -72[rbp]
	mov	QWORD PTR -64[rbp], rax
	mov	rbx, QWORD PTR -72[rbp]
	mov	rax, QWORD PTR -88[rbp]
	mov	rdi, rax
	call	_ZNSt8_Rb_treeIiSt4pairIKiSt3setIcSt4lessIcESaIcEEESt10_Select1stIS7_ES3_IiESaIS7_EE12_M_rightmostEv
	mov	rax, QWORD PTR [rax]
	cmp	rbx, rax
	sete	al
	test	al, al
	je	.L244
	mov	rax, QWORD PTR -88[rbp]
	mov	rdi, rax
	call	_ZNSt8_Rb_treeIiSt4pairIKiSt3setIcSt4lessIcESaIcEEESt10_Select1stIS7_ES3_IiESaIS7_EE12_M_rightmostEv
	mov	rdx, rax
	mov	QWORD PTR -56[rbp], 0
	lea	rcx, -56[rbp]
	lea	rax, -48[rbp]
	mov	rsi, rcx
	mov	rdi, rax
	call	_ZNSt4pairIPSt18_Rb_tree_node_baseS1_EC1IRS1_Lb1EEERKS1_OT_
	mov	rax, QWORD PTR -48[rbp]
	mov	rdx, QWORD PTR -40[rbp]
	jmp	.L248
.L244:
	mov	rbx, QWORD PTR -88[rbp]
	lea	rax, -64[rbp]
	mov	rdi, rax
	call	_ZNSt17_Rb_tree_iteratorISt4pairIKiSt3setIcSt4lessIcESaIcEEEEppEv
	mov	rax, QWORD PTR [rax]
	mov	rdi, rax
	call	_ZNSt8_Rb_treeIiSt4pairIKiSt3setIcSt4lessIcESaIcEEESt10_Select1stIS7_ES3_IiESaIS7_EE6_S_keyEPKSt18_Rb_tree_node_base
	mov	rdx, rax
	mov	rax, QWORD PTR -104[rbp]
	mov	rsi, rax
	mov	rdi, rbx
	call	_ZNKSt4lessIiEclERKiS2_
	test	al, al
	je	.L246
	mov	rax, QWORD PTR -72[rbp]
	mov	rdi, rax
	call	_ZNSt8_Rb_treeIiSt4pairIKiSt3setIcSt4lessIcESaIcEEESt10_Select1stIS7_ES3_IiESaIS7_EE8_S_rightEPSt18_Rb_tree_node_base
	test	rax, rax
	sete	al
	test	al, al
	je	.L247
	mov	QWORD PTR -56[rbp], 0
	lea	rdx, -72[rbp]
	lea	rcx, -56[rbp]
	lea	rax, -48[rbp]
	mov	rsi, rcx
	mov	rdi, rax
	call	_ZNSt4pairIPSt18_Rb_tree_node_baseS1_EC1IRS1_Lb1EEERKS1_OT_
	mov	rax, QWORD PTR -48[rbp]
	mov	rdx, QWORD PTR -40[rbp]
	jmp	.L248
.L247:
	lea	rdx, -64[rbp]
	lea	rcx, -64[rbp]
	lea	rax, -48[rbp]
	mov	rsi, rcx
	mov	rdi, rax
	call	_ZNSt4pairIPSt18_Rb_tree_node_baseS1_EC1IRS1_S4_Lb1EEEOT_OT0_
	mov	rax, QWORD PTR -48[rbp]
	mov	rdx, QWORD PTR -40[rbp]
	jmp	.L248
.L246:
	mov	rdx, QWORD PTR -104[rbp]
	mov	rax, QWORD PTR -88[rbp]
	mov	rsi, rdx
	mov	rdi, rax
	call	_ZNSt8_Rb_treeIiSt4pairIKiSt3setIcSt4lessIcESaIcEEESt10_Select1stIS7_ES3_IiESaIS7_EE24_M_get_insert_unique_posERS1_
	jmp	.L248
.L243:
	mov	QWORD PTR -56[rbp], 0
	lea	rdx, -56[rbp]
	lea	rcx, -72[rbp]
	lea	rax, -48[rbp]
	mov	rsi, rcx
	mov	rdi, rax
	call	_ZNSt4pairIPSt18_Rb_tree_node_baseS1_EC1IRS1_Lb1EEEOT_RKS1_
	mov	rax, QWORD PTR -48[rbp]
	mov	rdx, QWORD PTR -40[rbp]
.L248:
	mov	rcx, QWORD PTR -24[rbp]
	sub	rcx, QWORD PTR fs:40
	je	.L249
	call	__stack_chk_fail@PLT
.L249:
	mov	rbx, QWORD PTR -8[rbp]
	leave
	.cfi_def_cfa 7, 8
	ret
	.cfi_endproc
.LFE11215:
	.size	_ZNSt8_Rb_treeIiSt4pairIKiSt3setIcSt4lessIcESaIcEEESt10_Select1stIS7_ES3_IiESaIS7_EE29_M_get_insert_hint_unique_posESt23_Rb_tree_const_iteratorIS7_ERS1_, .-_ZNSt8_Rb_treeIiSt4pairIKiSt3setIcSt4lessIcESaIcEEESt10_Select1stIS7_ES3_IiESaIS7_EE29_M_get_insert_hint_unique_posESt23_Rb_tree_const_iteratorIS7_ERS1_
	.section	.text._ZNSt8_Rb_treeIiSt4pairIKiSt3setIcSt4lessIcESaIcEEESt10_Select1stIS7_ES3_IiESaIS7_EE6_S_keyEPKSt13_Rb_tree_nodeIS7_E,"axG",@progbits,_ZNSt8_Rb_treeIiSt4pairIKiSt3setIcSt4lessIcESaIcEEESt10_Select1stIS7_ES3_IiESaIS7_EE6_S_keyEPKSt13_Rb_tree_nodeIS7_E,comdat
	.weak	_ZNSt8_Rb_treeIiSt4pairIKiSt3setIcSt4lessIcESaIcEEESt10_Select1stIS7_ES3_IiESaIS7_EE6_S_keyEPKSt13_Rb_tree_nodeIS7_E
	.type	_ZNSt8_Rb_treeIiSt4pairIKiSt3setIcSt4lessIcESaIcEEESt10_Select1stIS7_ES3_IiESaIS7_EE6_S_keyEPKSt13_Rb_tree_nodeIS7_E, @function
_ZNSt8_Rb_treeIiSt4pairIKiSt3setIcSt4lessIcESaIcEEESt10_Select1stIS7_ES3_IiESaIS7_EE6_S_keyEPKSt13_Rb_tree_nodeIS7_E:
.LFB11232:
	.cfi_startproc
	endbr64
	push	rbp
	.cfi_def_cfa_offset 16
	.cfi_offset 6, -16
	mov	rbp, rsp
	.cfi_def_cfa_register 6
	sub	rsp, 32
	mov	QWORD PTR -24[rbp], rdi
	mov	rax, QWORD PTR fs:40
	mov	QWORD PTR -8[rbp], rax
	xor	eax, eax
	mov	rax, QWORD PTR -24[rbp]
	mov	rdi, rax
	call	_ZNKSt13_Rb_tree_nodeISt4pairIKiSt3setIcSt4lessIcESaIcEEEE9_M_valptrEv
	mov	rdx, rax
	lea	rax, -9[rbp]
	mov	rsi, rdx
	mov	rdi, rax
	call	_ZNKSt10_Select1stISt4pairIKiSt3setIcSt4lessIcESaIcEEEEclERKS7_
	mov	rdx, QWORD PTR -8[rbp]
	sub	rdx, QWORD PTR fs:40
	je	.L252
	call	__stack_chk_fail@PLT
.L252:
	leave
	.cfi_def_cfa 7, 8
	ret
	.cfi_endproc
.LFE11232:
	.size	_ZNSt8_Rb_treeIiSt4pairIKiSt3setIcSt4lessIcESaIcEEESt10_Select1stIS7_ES3_IiESaIS7_EE6_S_keyEPKSt13_Rb_tree_nodeIS7_E, .-_ZNSt8_Rb_treeIiSt4pairIKiSt3setIcSt4lessIcESaIcEEESt10_Select1stIS7_ES3_IiESaIS7_EE6_S_keyEPKSt13_Rb_tree_nodeIS7_E
	.section	.text._ZNSt8_Rb_treeIiSt4pairIKiSt3setIcSt4lessIcESaIcEEESt10_Select1stIS7_ES3_IiESaIS7_EE14_M_insert_nodeEPSt18_Rb_tree_node_baseSE_PSt13_Rb_tree_nodeIS7_E,"axG",@progbits,_ZNSt8_Rb_treeIiSt4pairIKiSt3setIcSt4lessIcESaIcEEESt10_Select1stIS7_ES3_IiESaIS7_EE14_M_insert_nodeEPSt18_Rb_tree_node_baseSE_PSt13_Rb_tree_nodeIS7_E,comdat
	.align 2
	.weak	_ZNSt8_Rb_treeIiSt4pairIKiSt3setIcSt4lessIcESaIcEEESt10_Select1stIS7_ES3_IiESaIS7_EE14_M_insert_nodeEPSt18_Rb_tree_node_baseSE_PSt13_Rb_tree_nodeIS7_E
	.type	_ZNSt8_Rb_treeIiSt4pairIKiSt3setIcSt4lessIcESaIcEEESt10_Select1stIS7_ES3_IiESaIS7_EE14_M_insert_nodeEPSt18_Rb_tree_node_baseSE_PSt13_Rb_tree_nodeIS7_E, @function
_ZNSt8_Rb_treeIiSt4pairIKiSt3setIcSt4lessIcESaIcEEESt10_Select1stIS7_ES3_IiESaIS7_EE14_M_insert_nodeEPSt18_Rb_tree_node_baseSE_PSt13_Rb_tree_nodeIS7_E:
.LFB11234:
	.cfi_startproc
	endbr64
	push	rbp
	.cfi_def_cfa_offset 16
	.cfi_offset 6, -16
	mov	rbp, rsp
	.cfi_def_cfa_register 6
	push	r12
	push	rbx
	sub	rsp, 64
	.cfi_offset 12, -24
	.cfi_offset 3, -32
	mov	QWORD PTR -56[rbp], rdi
	mov	QWORD PTR -64[rbp], rsi
	mov	QWORD PTR -72[rbp], rdx
	mov	QWORD PTR -80[rbp], rcx
	mov	rax, QWORD PTR fs:40
	mov	QWORD PTR -24[rbp], rax
	xor	eax, eax
	cmp	QWORD PTR -64[rbp], 0
	jne	.L254
	mov	rax, QWORD PTR -56[rbp]
	mov	rdi, rax
	call	_ZNSt8_Rb_treeIiSt4pairIKiSt3setIcSt4lessIcESaIcEEESt10_Select1stIS7_ES3_IiESaIS7_EE6_M_endEv
	cmp	QWORD PTR -72[rbp], rax
	je	.L254
	mov	rbx, QWORD PTR -56[rbp]
	mov	rax, QWORD PTR -72[rbp]
	mov	rdi, rax
	call	_ZNSt8_Rb_treeIiSt4pairIKiSt3setIcSt4lessIcESaIcEEESt10_Select1stIS7_ES3_IiESaIS7_EE6_S_keyEPKSt18_Rb_tree_node_base
	mov	r12, rax
	mov	rax, QWORD PTR -80[rbp]
	mov	rdi, rax
	call	_ZNSt8_Rb_treeIiSt4pairIKiSt3setIcSt4lessIcESaIcEEESt10_Select1stIS7_ES3_IiESaIS7_EE6_S_keyEPKSt13_Rb_tree_nodeIS7_E
	mov	rdx, r12
	mov	rsi, rax
	mov	rdi, rbx
	call	_ZNKSt4lessIiEclERKiS2_
	test	al, al
	je	.L255
.L254:
	mov	eax, 1
	jmp	.L256
.L255:
	mov	eax, 0
.L256:
	mov	BYTE PTR -33[rbp], al
	mov	rax, QWORD PTR -56[rbp]
	lea	rcx, 8[rax]
	movzx	eax, BYTE PTR -33[rbp]
	mov	rdx, QWORD PTR -72[rbp]
	mov	rsi, QWORD PTR -80[rbp]
	mov	edi, eax
	call	_ZSt29_Rb_tree_insert_and_rebalancebPSt18_Rb_tree_node_baseS0_RS_@PLT
	mov	rax, QWORD PTR -56[rbp]
	mov	rax, QWORD PTR 40[rax]
	lea	rdx, 1[rax]
	mov	rax, QWORD PTR -56[rbp]
	mov	QWORD PTR 40[rax], rdx
	mov	rdx, QWORD PTR -80[rbp]
	lea	rax, -32[rbp]
	mov	rsi, rdx
	mov	rdi, rax
	call	_ZNSt17_Rb_tree_iteratorISt4pairIKiSt3setIcSt4lessIcESaIcEEEEC1EPSt18_Rb_tree_node_base
	mov	rax, QWORD PTR -32[rbp]
	mov	rdx, QWORD PTR -24[rbp]
	sub	rdx, QWORD PTR fs:40
	je	.L258
	call	__stack_chk_fail@PLT
.L258:
	add	rsp, 64
	pop	rbx
	pop	r12
	pop	rbp
	.cfi_def_cfa 7, 8
	ret
	.cfi_endproc
.LFE11234:
	.size	_ZNSt8_Rb_treeIiSt4pairIKiSt3setIcSt4lessIcESaIcEEESt10_Select1stIS7_ES3_IiESaIS7_EE14_M_insert_nodeEPSt18_Rb_tree_node_baseSE_PSt13_Rb_tree_nodeIS7_E, .-_ZNSt8_Rb_treeIiSt4pairIKiSt3setIcSt4lessIcESaIcEEESt10_Select1stIS7_ES3_IiESaIS7_EE14_M_insert_nodeEPSt18_Rb_tree_node_baseSE_PSt13_Rb_tree_nodeIS7_E
	.section	.text._ZNSt17_Rb_tree_iteratorISt4pairIKiSt3setIcSt4lessIcESaIcEEEEC2EPSt18_Rb_tree_node_base,"axG",@progbits,_ZNSt17_Rb_tree_iteratorISt4pairIKiSt3setIcSt4lessIcESaIcEEEEC5EPSt18_Rb_tree_node_base,comdat
	.align 2
	.weak	_ZNSt17_Rb_tree_iteratorISt4pairIKiSt3setIcSt4lessIcESaIcEEEEC2EPSt18_Rb_tree_node_base
	.type	_ZNSt17_Rb_tree_iteratorISt4pairIKiSt3setIcSt4lessIcESaIcEEEEC2EPSt18_Rb_tree_node_base, @function
_ZNSt17_Rb_tree_iteratorISt4pairIKiSt3setIcSt4lessIcESaIcEEEEC2EPSt18_Rb_tree_node_base:
.LFB11236:
	.cfi_startproc
	endbr64
	push	rbp
	.cfi_def_cfa_offset 16
	.cfi_offset 6, -16
	mov	rbp, rsp
	.cfi_def_cfa_register 6
	mov	QWORD PTR -8[rbp], rdi
	mov	QWORD PTR -16[rbp], rsi
	mov	rax, QWORD PTR -8[rbp]
	mov	rdx, QWORD PTR -16[rbp]
	mov	QWORD PTR [rax], rdx
	nop
	pop	rbp
	.cfi_def_cfa 7, 8
	ret
	.cfi_endproc
.LFE11236:
	.size	_ZNSt17_Rb_tree_iteratorISt4pairIKiSt3setIcSt4lessIcESaIcEEEEC2EPSt18_Rb_tree_node_base, .-_ZNSt17_Rb_tree_iteratorISt4pairIKiSt3setIcSt4lessIcESaIcEEEEC2EPSt18_Rb_tree_node_base
	.weak	_ZNSt17_Rb_tree_iteratorISt4pairIKiSt3setIcSt4lessIcESaIcEEEEC1EPSt18_Rb_tree_node_base
	.set	_ZNSt17_Rb_tree_iteratorISt4pairIKiSt3setIcSt4lessIcESaIcEEEEC1EPSt18_Rb_tree_node_base,_ZNSt17_Rb_tree_iteratorISt4pairIKiSt3setIcSt4lessIcESaIcEEEEC2EPSt18_Rb_tree_node_base
	.section	.text._ZNSt8_Rb_treeIccSt9_IdentityIcESt4lessIcESaIcEE24_M_get_insert_unique_posERKc,"axG",@progbits,_ZNSt8_Rb_treeIccSt9_IdentityIcESt4lessIcESaIcEE24_M_get_insert_unique_posERKc,comdat
	.align 2
	.weak	_ZNSt8_Rb_treeIccSt9_IdentityIcESt4lessIcESaIcEE24_M_get_insert_unique_posERKc
	.type	_ZNSt8_Rb_treeIccSt9_IdentityIcESt4lessIcESaIcEE24_M_get_insert_unique_posERKc, @function
_ZNSt8_Rb_treeIccSt9_IdentityIcESt4lessIcESaIcEE24_M_get_insert_unique_posERKc:
.LFB11238:
	.cfi_startproc
	endbr64
	push	rbp
	.cfi_def_cfa_offset 16
	.cfi_offset 6, -16
	mov	rbp, rsp
	.cfi_def_cfa_register 6
	push	rbx
	sub	rsp, 104
	.cfi_offset 3, -24
	mov	QWORD PTR -104[rbp], rdi
	mov	QWORD PTR -112[rbp], rsi
	mov	rax, QWORD PTR fs:40
	mov	QWORD PTR -24[rbp], rax
	xor	eax, eax
	mov	rax, QWORD PTR -104[rbp]
	mov	rdi, rax
	call	_ZNSt8_Rb_treeIccSt9_IdentityIcESt4lessIcESaIcEE8_M_beginEv
	mov	QWORD PTR -80[rbp], rax
	mov	rax, QWORD PTR -104[rbp]
	mov	rdi, rax
	call	_ZNSt8_Rb_treeIccSt9_IdentityIcESt4lessIcESaIcEE6_M_endEv
	mov	QWORD PTR -72[rbp], rax
	mov	BYTE PTR -81[rbp], 1
	jmp	.L261
.L264:
	mov	rax, QWORD PTR -80[rbp]
	mov	QWORD PTR -72[rbp], rax
	mov	rbx, QWORD PTR -104[rbp]
	mov	rax, QWORD PTR -80[rbp]
	mov	rdi, rax
	call	_ZNSt8_Rb_treeIccSt9_IdentityIcESt4lessIcESaIcEE6_S_keyEPKSt13_Rb_tree_nodeIcE
	mov	rdx, rax
	mov	rax, QWORD PTR -112[rbp]
	mov	rsi, rax
	mov	rdi, rbx
	call	_ZNKSt4lessIcEclERKcS2_
	mov	BYTE PTR -81[rbp], al
	cmp	BYTE PTR -81[rbp], 0
	je	.L262
	mov	rax, QWORD PTR -80[rbp]
	mov	rdi, rax
	call	_ZNSt8_Rb_treeIccSt9_IdentityIcESt4lessIcESaIcEE7_S_leftEPSt18_Rb_tree_node_base
	jmp	.L263
.L262:
	mov	rax, QWORD PTR -80[rbp]
	mov	rdi, rax
	call	_ZNSt8_Rb_treeIccSt9_IdentityIcESt4lessIcESaIcEE8_S_rightEPSt18_Rb_tree_node_base
.L263:
	mov	QWORD PTR -80[rbp], rax
.L261:
	mov	rax, QWORD PTR -80[rbp]
	test	rax, rax
	jne	.L264
	mov	rdx, QWORD PTR -72[rbp]
	lea	rax, -64[rbp]
	mov	rsi, rdx
	mov	rdi, rax
	call	_ZNSt17_Rb_tree_iteratorIcEC1EPSt18_Rb_tree_node_base
	cmp	BYTE PTR -81[rbp], 0
	je	.L265
	mov	rax, QWORD PTR -104[rbp]
	mov	rdi, rax
	call	_ZNSt8_Rb_treeIccSt9_IdentityIcESt4lessIcESaIcEE5beginEv
	mov	QWORD PTR -48[rbp], rax
	lea	rdx, -48[rbp]
	lea	rax, -64[rbp]
	mov	rsi, rdx
	mov	rdi, rax
	call	_ZSteqRKSt17_Rb_tree_iteratorIcES2_
	test	al, al
	je	.L266
	lea	rdx, -72[rbp]
	lea	rcx, -80[rbp]
	lea	rax, -48[rbp]
	mov	rsi, rcx
	mov	rdi, rax
	call	_ZNSt4pairIPSt18_Rb_tree_node_baseS1_EC1IRPSt13_Rb_tree_nodeIcERS1_Lb1EEEOT_OT0_
	mov	rax, QWORD PTR -48[rbp]
	mov	rdx, QWORD PTR -40[rbp]
	jmp	.L269
.L266:
	lea	rax, -64[rbp]
	mov	rdi, rax
	call	_ZNSt17_Rb_tree_iteratorIcEmmEv
.L265:
	mov	rbx, QWORD PTR -104[rbp]
	mov	rax, QWORD PTR -64[rbp]
	mov	rdi, rax
	call	_ZNSt8_Rb_treeIccSt9_IdentityIcESt4lessIcESaIcEE6_S_keyEPKSt18_Rb_tree_node_base
	mov	rcx, rax
	mov	rax, QWORD PTR -112[rbp]
	mov	rdx, rax
	mov	rsi, rcx
	mov	rdi, rbx
	call	_ZNKSt4lessIcEclERKcS2_
	test	al, al
	je	.L268
	lea	rdx, -72[rbp]
	lea	rcx, -80[rbp]
	lea	rax, -48[rbp]
	mov	rsi, rcx
	mov	rdi, rax
	call	_ZNSt4pairIPSt18_Rb_tree_node_baseS1_EC1IRPSt13_Rb_tree_nodeIcERS1_Lb1EEEOT_OT0_
	mov	rax, QWORD PTR -48[rbp]
	mov	rdx, QWORD PTR -40[rbp]
	jmp	.L269
.L268:
	mov	QWORD PTR -56[rbp], 0
	lea	rdx, -56[rbp]
	lea	rcx, -64[rbp]
	lea	rax, -48[rbp]
	mov	rsi, rcx
	mov	rdi, rax
	call	_ZNSt4pairIPSt18_Rb_tree_node_baseS1_EC1IRS1_Lb1EEEOT_RKS1_
	mov	rax, QWORD PTR -48[rbp]
	mov	rdx, QWORD PTR -40[rbp]
.L269:
	mov	rcx, QWORD PTR -24[rbp]
	sub	rcx, QWORD PTR fs:40
	je	.L270
	call	__stack_chk_fail@PLT
.L270:
	mov	rbx, QWORD PTR -8[rbp]
	leave
	.cfi_def_cfa 7, 8
	ret
	.cfi_endproc
.LFE11238:
	.size	_ZNSt8_Rb_treeIccSt9_IdentityIcESt4lessIcESaIcEE24_M_get_insert_unique_posERKc, .-_ZNSt8_Rb_treeIccSt9_IdentityIcESt4lessIcESaIcEE24_M_get_insert_unique_posERKc
	.section	.text._ZNKSt9_IdentityIcEclERKc,"axG",@progbits,_ZNKSt9_IdentityIcEclERKc,comdat
	.align 2
	.weak	_ZNKSt9_IdentityIcEclERKc
	.type	_ZNKSt9_IdentityIcEclERKc, @function
_ZNKSt9_IdentityIcEclERKc:
.LFB11243:
	.cfi_startproc
	endbr64
	push	rbp
	.cfi_def_cfa_offset 16
	.cfi_offset 6, -16
	mov	rbp, rsp
	.cfi_def_cfa_register 6
	mov	QWORD PTR -8[rbp], rdi
	mov	QWORD PTR -16[rbp], rsi
	mov	rax, QWORD PTR -16[rbp]
	pop	rbp
	.cfi_def_cfa 7, 8
	ret
	.cfi_endproc
.LFE11243:
	.size	_ZNKSt9_IdentityIcEclERKc, .-_ZNKSt9_IdentityIcEclERKc
	.section	.text._ZNSt8_Rb_treeIccSt9_IdentityIcESt4lessIcESaIcEE11_Alloc_nodeC2ERS5_,"axG",@progbits,_ZNSt8_Rb_treeIccSt9_IdentityIcESt4lessIcESaIcEE11_Alloc_nodeC5ERS5_,comdat
	.align 2
	.weak	_ZNSt8_Rb_treeIccSt9_IdentityIcESt4lessIcESaIcEE11_Alloc_nodeC2ERS5_
	.type	_ZNSt8_Rb_treeIccSt9_IdentityIcESt4lessIcESaIcEE11_Alloc_nodeC2ERS5_, @function
_ZNSt8_Rb_treeIccSt9_IdentityIcESt4lessIcESaIcEE11_Alloc_nodeC2ERS5_:
.LFB11245:
	.cfi_startproc
	endbr64
	push	rbp
	.cfi_def_cfa_offset 16
	.cfi_offset 6, -16
	mov	rbp, rsp
	.cfi_def_cfa_register 6
	mov	QWORD PTR -8[rbp], rdi
	mov	QWORD PTR -16[rbp], rsi
	mov	rax, QWORD PTR -8[rbp]
	mov	rdx, QWORD PTR -16[rbp]
	mov	QWORD PTR [rax], rdx
	nop
	pop	rbp
	.cfi_def_cfa 7, 8
	ret
	.cfi_endproc
.LFE11245:
	.size	_ZNSt8_Rb_treeIccSt9_IdentityIcESt4lessIcESaIcEE11_Alloc_nodeC2ERS5_, .-_ZNSt8_Rb_treeIccSt9_IdentityIcESt4lessIcESaIcEE11_Alloc_nodeC2ERS5_
	.weak	_ZNSt8_Rb_treeIccSt9_IdentityIcESt4lessIcESaIcEE11_Alloc_nodeC1ERS5_
	.set	_ZNSt8_Rb_treeIccSt9_IdentityIcESt4lessIcESaIcEE11_Alloc_nodeC1ERS5_,_ZNSt8_Rb_treeIccSt9_IdentityIcESt4lessIcESaIcEE11_Alloc_nodeC2ERS5_
	.section	.text._ZSt7forwardIRKcEOT_RNSt16remove_referenceIS2_E4typeE,"axG",@progbits,_ZSt7forwardIRKcEOT_RNSt16remove_referenceIS2_E4typeE,comdat
	.weak	_ZSt7forwardIRKcEOT_RNSt16remove_referenceIS2_E4typeE
	.type	_ZSt7forwardIRKcEOT_RNSt16remove_referenceIS2_E4typeE, @function
_ZSt7forwardIRKcEOT_RNSt16remove_referenceIS2_E4typeE:
.LFB11247:
	.cfi_startproc
	endbr64
	push	rbp
	.cfi_def_cfa_offset 16
	.cfi_offset 6, -16
	mov	rbp, rsp
	.cfi_def_cfa_register 6
	mov	QWORD PTR -8[rbp], rdi
	mov	rax, QWORD PTR -8[rbp]
	pop	rbp
	.cfi_def_cfa 7, 8
	ret
	.cfi_endproc
.LFE11247:
	.size	_ZSt7forwardIRKcEOT_RNSt16remove_referenceIS2_E4typeE, .-_ZSt7forwardIRKcEOT_RNSt16remove_referenceIS2_E4typeE
	.section	.text._ZNSt8_Rb_treeIccSt9_IdentityIcESt4lessIcESaIcEE10_M_insert_IRKcNS5_11_Alloc_nodeEEESt17_Rb_tree_iteratorIcEPSt18_Rb_tree_node_baseSD_OT_RT0_,"axG",@progbits,_ZNSt8_Rb_treeIccSt9_IdentityIcESt4lessIcESaIcEE10_M_insert_IRKcNS5_11_Alloc_nodeEEESt17_Rb_tree_iteratorIcEPSt18_Rb_tree_node_baseSD_OT_RT0_,comdat
	.align 2
	.weak	_ZNSt8_Rb_treeIccSt9_IdentityIcESt4lessIcESaIcEE10_M_insert_IRKcNS5_11_Alloc_nodeEEESt17_Rb_tree_iteratorIcEPSt18_Rb_tree_node_baseSD_OT_RT0_
	.type	_ZNSt8_Rb_treeIccSt9_IdentityIcESt4lessIcESaIcEE10_M_insert_IRKcNS5_11_Alloc_nodeEEESt17_Rb_tree_iteratorIcEPSt18_Rb_tree_node_baseSD_OT_RT0_, @function
_ZNSt8_Rb_treeIccSt9_IdentityIcESt4lessIcESaIcEE10_M_insert_IRKcNS5_11_Alloc_nodeEEESt17_Rb_tree_iteratorIcEPSt18_Rb_tree_node_baseSD_OT_RT0_:
.LFB11248:
	.cfi_startproc
	endbr64
	push	rbp
	.cfi_def_cfa_offset 16
	.cfi_offset 6, -16
	mov	rbp, rsp
	.cfi_def_cfa_register 6
	push	r12
	push	rbx
	sub	rsp, 80
	.cfi_offset 12, -24
	.cfi_offset 3, -32
	mov	QWORD PTR -56[rbp], rdi
	mov	QWORD PTR -64[rbp], rsi
	mov	QWORD PTR -72[rbp], rdx
	mov	QWORD PTR -80[rbp], rcx
	mov	QWORD PTR -88[rbp], r8
	mov	rax, QWORD PTR fs:40
	mov	QWORD PTR -24[rbp], rax
	xor	eax, eax
	cmp	QWORD PTR -64[rbp], 0
	jne	.L277
	mov	rax, QWORD PTR -56[rbp]
	mov	rdi, rax
	call	_ZNSt8_Rb_treeIccSt9_IdentityIcESt4lessIcESaIcEE6_M_endEv
	cmp	QWORD PTR -72[rbp], rax
	je	.L277
	mov	rbx, QWORD PTR -56[rbp]
	mov	rax, QWORD PTR -72[rbp]
	mov	rdi, rax
	call	_ZNSt8_Rb_treeIccSt9_IdentityIcESt4lessIcESaIcEE6_S_keyEPKSt18_Rb_tree_node_base
	mov	r12, rax
	mov	rdx, QWORD PTR -80[rbp]
	lea	rax, -40[rbp]
	mov	rsi, rdx
	mov	rdi, rax
	call	_ZNKSt9_IdentityIcEclERKc
	mov	rdx, r12
	mov	rsi, rax
	mov	rdi, rbx
	call	_ZNKSt4lessIcEclERKcS2_
	test	al, al
	je	.L278
.L277:
	mov	eax, 1
	jmp	.L279
.L278:
	mov	eax, 0
.L279:
	mov	BYTE PTR -41[rbp], al
	mov	rax, QWORD PTR -80[rbp]
	mov	rdi, rax
	call	_ZSt7forwardIRKcEOT_RNSt16remove_referenceIS2_E4typeE
	mov	rdx, rax
	mov	rax, QWORD PTR -88[rbp]
	mov	rsi, rdx
	mov	rdi, rax
	call	_ZNKSt8_Rb_treeIccSt9_IdentityIcESt4lessIcESaIcEE11_Alloc_nodeclIRKcEEPSt13_Rb_tree_nodeIcEOT_
	mov	QWORD PTR -32[rbp], rax
	mov	rax, QWORD PTR -56[rbp]
	lea	rcx, 8[rax]
	movzx	eax, BYTE PTR -41[rbp]
	mov	rdx, QWORD PTR -72[rbp]
	mov	rsi, QWORD PTR -32[rbp]
	mov	edi, eax
	call	_ZSt29_Rb_tree_insert_and_rebalancebPSt18_Rb_tree_node_baseS0_RS_@PLT
	mov	rax, QWORD PTR -56[rbp]
	mov	rax, QWORD PTR 40[rax]
	lea	rdx, 1[rax]
	mov	rax, QWORD PTR -56[rbp]
	mov	QWORD PTR 40[rax], rdx
	mov	rdx, QWORD PTR -32[rbp]
	lea	rax, -40[rbp]
	mov	rsi, rdx
	mov	rdi, rax
	call	_ZNSt17_Rb_tree_iteratorIcEC1EPSt18_Rb_tree_node_base
	mov	rax, QWORD PTR -40[rbp]
	mov	rdx, QWORD PTR -24[rbp]
	sub	rdx, QWORD PTR fs:40
	je	.L281
	call	__stack_chk_fail@PLT
.L281:
	add	rsp, 80
	pop	rbx
	pop	r12
	pop	rbp
	.cfi_def_cfa 7, 8
	ret
	.cfi_endproc
.LFE11248:
	.size	_ZNSt8_Rb_treeIccSt9_IdentityIcESt4lessIcESaIcEE10_M_insert_IRKcNS5_11_Alloc_nodeEEESt17_Rb_tree_iteratorIcEPSt18_Rb_tree_node_baseSD_OT_RT0_, .-_ZNSt8_Rb_treeIccSt9_IdentityIcESt4lessIcESaIcEE10_M_insert_IRKcNS5_11_Alloc_nodeEEESt17_Rb_tree_iteratorIcEPSt18_Rb_tree_node_baseSD_OT_RT0_
	.section	.text._ZNSt4pairISt17_Rb_tree_iteratorIcEbEC2IS1_bLb1EEEOT_OT0_,"axG",@progbits,_ZNSt4pairISt17_Rb_tree_iteratorIcEbEC5IS1_bLb1EEEOT_OT0_,comdat
	.align 2
	.weak	_ZNSt4pairISt17_Rb_tree_iteratorIcEbEC2IS1_bLb1EEEOT_OT0_
	.type	_ZNSt4pairISt17_Rb_tree_iteratorIcEbEC2IS1_bLb1EEEOT_OT0_, @function
_ZNSt4pairISt17_Rb_tree_iteratorIcEbEC2IS1_bLb1EEEOT_OT0_:
.LFB11250:
	.cfi_startproc
	endbr64
	push	rbp
	.cfi_def_cfa_offset 16
	.cfi_offset 6, -16
	mov	rbp, rsp
	.cfi_def_cfa_register 6
	sub	rsp, 32
	mov	QWORD PTR -8[rbp], rdi
	mov	QWORD PTR -16[rbp], rsi
	mov	QWORD PTR -24[rbp], rdx
	mov	rax, QWORD PTR -16[rbp]
	mov	rdi, rax
	call	_ZSt7forwardISt17_Rb_tree_iteratorIcEEOT_RNSt16remove_referenceIS2_E4typeE
	mov	rdx, QWORD PTR -8[rbp]
	mov	rax, QWORD PTR [rax]
	mov	QWORD PTR [rdx], rax
	mov	rax, QWORD PTR -24[rbp]
	mov	rdi, rax
	call	_ZSt7forwardIbEOT_RNSt16remove_referenceIS0_E4typeE
	movzx	edx, BYTE PTR [rax]
	mov	rax, QWORD PTR -8[rbp]
	mov	BYTE PTR 8[rax], dl
	nop
	leave
	.cfi_def_cfa 7, 8
	ret
	.cfi_endproc
.LFE11250:
	.size	_ZNSt4pairISt17_Rb_tree_iteratorIcEbEC2IS1_bLb1EEEOT_OT0_, .-_ZNSt4pairISt17_Rb_tree_iteratorIcEbEC2IS1_bLb1EEEOT_OT0_
	.weak	_ZNSt4pairISt17_Rb_tree_iteratorIcEbEC1IS1_bLb1EEEOT_OT0_
	.set	_ZNSt4pairISt17_Rb_tree_iteratorIcEbEC1IS1_bLb1EEEOT_OT0_,_ZNSt4pairISt17_Rb_tree_iteratorIcEbEC2IS1_bLb1EEEOT_OT0_
	.section	.text._ZNSt17_Rb_tree_iteratorIcEC2EPSt18_Rb_tree_node_base,"axG",@progbits,_ZNSt17_Rb_tree_iteratorIcEC5EPSt18_Rb_tree_node_base,comdat
	.align 2
	.weak	_ZNSt17_Rb_tree_iteratorIcEC2EPSt18_Rb_tree_node_base
	.type	_ZNSt17_Rb_tree_iteratorIcEC2EPSt18_Rb_tree_node_base, @function
_ZNSt17_Rb_tree_iteratorIcEC2EPSt18_Rb_tree_node_base:
.LFB11253:
	.cfi_startproc
	endbr64
	push	rbp
	.cfi_def_cfa_offset 16
	.cfi_offset 6, -16
	mov	rbp, rsp
	.cfi_def_cfa_register 6
	mov	QWORD PTR -8[rbp], rdi
	mov	QWORD PTR -16[rbp], rsi
	mov	rax, QWORD PTR -8[rbp]
	mov	rdx, QWORD PTR -16[rbp]
	mov	QWORD PTR [rax], rdx
	nop
	pop	rbp
	.cfi_def_cfa 7, 8
	ret
	.cfi_endproc
.LFE11253:
	.size	_ZNSt17_Rb_tree_iteratorIcEC2EPSt18_Rb_tree_node_base, .-_ZNSt17_Rb_tree_iteratorIcEC2EPSt18_Rb_tree_node_base
	.weak	_ZNSt17_Rb_tree_iteratorIcEC1EPSt18_Rb_tree_node_base
	.set	_ZNSt17_Rb_tree_iteratorIcEC1EPSt18_Rb_tree_node_base,_ZNSt17_Rb_tree_iteratorIcEC2EPSt18_Rb_tree_node_base
	.section	.text._ZSt7forwardIRSt17_Rb_tree_iteratorIcEEOT_RNSt16remove_referenceIS3_E4typeE,"axG",@progbits,_ZSt7forwardIRSt17_Rb_tree_iteratorIcEEOT_RNSt16remove_referenceIS3_E4typeE,comdat
	.weak	_ZSt7forwardIRSt17_Rb_tree_iteratorIcEEOT_RNSt16remove_referenceIS3_E4typeE
	.type	_ZSt7forwardIRSt17_Rb_tree_iteratorIcEEOT_RNSt16remove_referenceIS3_E4typeE, @function
_ZSt7forwardIRSt17_Rb_tree_iteratorIcEEOT_RNSt16remove_referenceIS3_E4typeE:
.LFB11255:
	.cfi_startproc
	endbr64
	push	rbp
	.cfi_def_cfa_offset 16
	.cfi_offset 6, -16
	mov	rbp, rsp
	.cfi_def_cfa_register 6
	mov	QWORD PTR -8[rbp], rdi
	mov	rax, QWORD PTR -8[rbp]
	pop	rbp
	.cfi_def_cfa 7, 8
	ret
	.cfi_endproc
.LFE11255:
	.size	_ZSt7forwardIRSt17_Rb_tree_iteratorIcEEOT_RNSt16remove_referenceIS3_E4typeE, .-_ZSt7forwardIRSt17_Rb_tree_iteratorIcEEOT_RNSt16remove_referenceIS3_E4typeE
	.section	.text._ZSt7forwardIRbEOT_RNSt16remove_referenceIS1_E4typeE,"axG",@progbits,_ZSt7forwardIRbEOT_RNSt16remove_referenceIS1_E4typeE,comdat
	.weak	_ZSt7forwardIRbEOT_RNSt16remove_referenceIS1_E4typeE
	.type	_ZSt7forwardIRbEOT_RNSt16remove_referenceIS1_E4typeE, @function
_ZSt7forwardIRbEOT_RNSt16remove_referenceIS1_E4typeE:
.LFB11256:
	.cfi_startproc
	endbr64
	push	rbp
	.cfi_def_cfa_offset 16
	.cfi_offset 6, -16
	mov	rbp, rsp
	.cfi_def_cfa_register 6
	mov	QWORD PTR -8[rbp], rdi
	mov	rax, QWORD PTR -8[rbp]
	pop	rbp
	.cfi_def_cfa 7, 8
	ret
	.cfi_endproc
.LFE11256:
	.size	_ZSt7forwardIRbEOT_RNSt16remove_referenceIS1_E4typeE, .-_ZSt7forwardIRbEOT_RNSt16remove_referenceIS1_E4typeE
	.section	.text._ZNSt23_Rb_tree_const_iteratorIcEC2ERKSt17_Rb_tree_iteratorIcE,"axG",@progbits,_ZNSt23_Rb_tree_const_iteratorIcEC5ERKSt17_Rb_tree_iteratorIcE,comdat
	.align 2
	.weak	_ZNSt23_Rb_tree_const_iteratorIcEC2ERKSt17_Rb_tree_iteratorIcE
	.type	_ZNSt23_Rb_tree_const_iteratorIcEC2ERKSt17_Rb_tree_iteratorIcE, @function
_ZNSt23_Rb_tree_const_iteratorIcEC2ERKSt17_Rb_tree_iteratorIcE:
.LFB11258:
	.cfi_startproc
	endbr64
	push	rbp
	.cfi_def_cfa_offset 16
	.cfi_offset 6, -16
	mov	rbp, rsp
	.cfi_def_cfa_register 6
	mov	QWORD PTR -8[rbp], rdi
	mov	QWORD PTR -16[rbp], rsi
	mov	rax, QWORD PTR -16[rbp]
	mov	rdx, QWORD PTR [rax]
	mov	rax, QWORD PTR -8[rbp]
	mov	QWORD PTR [rax], rdx
	nop
	pop	rbp
	.cfi_def_cfa 7, 8
	ret
	.cfi_endproc
.LFE11258:
	.size	_ZNSt23_Rb_tree_const_iteratorIcEC2ERKSt17_Rb_tree_iteratorIcE, .-_ZNSt23_Rb_tree_const_iteratorIcEC2ERKSt17_Rb_tree_iteratorIcE
	.weak	_ZNSt23_Rb_tree_const_iteratorIcEC1ERKSt17_Rb_tree_iteratorIcE
	.set	_ZNSt23_Rb_tree_const_iteratorIcEC1ERKSt17_Rb_tree_iteratorIcE,_ZNSt23_Rb_tree_const_iteratorIcEC2ERKSt17_Rb_tree_iteratorIcE
	.section	.text._ZNSt8_Rb_treeIcSt4pairIKcSt3setIiSt4lessIiESaIiEEESt10_Select1stIS7_ES3_IcESaIS7_EE11lower_boundERS1_,"axG",@progbits,_ZNSt8_Rb_treeIcSt4pairIKcSt3setIiSt4lessIiESaIiEEESt10_Select1stIS7_ES3_IcESaIS7_EE11lower_boundERS1_,comdat
	.align 2
	.weak	_ZNSt8_Rb_treeIcSt4pairIKcSt3setIiSt4lessIiESaIiEEESt10_Select1stIS7_ES3_IcESaIS7_EE11lower_boundERS1_
	.type	_ZNSt8_Rb_treeIcSt4pairIKcSt3setIiSt4lessIiESaIiEEESt10_Select1stIS7_ES3_IcESaIS7_EE11lower_boundERS1_, @function
_ZNSt8_Rb_treeIcSt4pairIKcSt3setIiSt4lessIiESaIiEEESt10_Select1stIS7_ES3_IcESaIS7_EE11lower_boundERS1_:
.LFB11260:
	.cfi_startproc
	endbr64
	push	rbp
	.cfi_def_cfa_offset 16
	.cfi_offset 6, -16
	mov	rbp, rsp
	.cfi_def_cfa_register 6
	push	rbx
	sub	rsp, 24
	.cfi_offset 3, -24
	mov	QWORD PTR -24[rbp], rdi
	mov	QWORD PTR -32[rbp], rsi
	mov	rax, QWORD PTR -24[rbp]
	mov	rdi, rax
	call	_ZNSt8_Rb_treeIcSt4pairIKcSt3setIiSt4lessIiESaIiEEESt10_Select1stIS7_ES3_IcESaIS7_EE6_M_endEv
	mov	rbx, rax
	mov	rax, QWORD PTR -24[rbp]
	mov	rdi, rax
	call	_ZNSt8_Rb_treeIcSt4pairIKcSt3setIiSt4lessIiESaIiEEESt10_Select1stIS7_ES3_IcESaIS7_EE8_M_beginEv
	mov	rsi, rax
	mov	rdx, QWORD PTR -32[rbp]
	mov	rax, QWORD PTR -24[rbp]
	mov	rcx, rdx
	mov	rdx, rbx
	mov	rdi, rax
	call	_ZNSt8_Rb_treeIcSt4pairIKcSt3setIiSt4lessIiESaIiEEESt10_Select1stIS7_ES3_IcESaIS7_EE14_M_lower_boundEPSt13_Rb_tree_nodeIS7_EPSt18_Rb_tree_node_baseRS1_
	mov	rbx, QWORD PTR -8[rbp]
	leave
	.cfi_def_cfa 7, 8
	ret
	.cfi_endproc
.LFE11260:
	.size	_ZNSt8_Rb_treeIcSt4pairIKcSt3setIiSt4lessIiESaIiEEESt10_Select1stIS7_ES3_IcESaIS7_EE11lower_boundERS1_, .-_ZNSt8_Rb_treeIcSt4pairIKcSt3setIiSt4lessIiESaIiEEESt10_Select1stIS7_ES3_IcESaIS7_EE11lower_boundERS1_
	.section	.text._ZNSt8_Rb_treeIcSt4pairIKcSt3setIiSt4lessIiESaIiEEESt10_Select1stIS7_ES3_IcESaIS7_EE3endEv,"axG",@progbits,_ZNSt8_Rb_treeIcSt4pairIKcSt3setIiSt4lessIiESaIiEEESt10_Select1stIS7_ES3_IcESaIS7_EE3endEv,comdat
	.align 2
	.weak	_ZNSt8_Rb_treeIcSt4pairIKcSt3setIiSt4lessIiESaIiEEESt10_Select1stIS7_ES3_IcESaIS7_EE3endEv
	.type	_ZNSt8_Rb_treeIcSt4pairIKcSt3setIiSt4lessIiESaIiEEESt10_Select1stIS7_ES3_IcESaIS7_EE3endEv, @function
_ZNSt8_Rb_treeIcSt4pairIKcSt3setIiSt4lessIiESaIiEEESt10_Select1stIS7_ES3_IcESaIS7_EE3endEv:
.LFB11261:
	.cfi_startproc
	endbr64
	push	rbp
	.cfi_def_cfa_offset 16
	.cfi_offset 6, -16
	mov	rbp, rsp
	.cfi_def_cfa_register 6
	sub	rsp, 32
	mov	QWORD PTR -24[rbp], rdi
	mov	rax, QWORD PTR fs:40
	mov	QWORD PTR -8[rbp], rax
	xor	eax, eax
	mov	rax, QWORD PTR -24[rbp]
	lea	rdx, 8[rax]
	lea	rax, -16[rbp]
	mov	rsi, rdx
	mov	rdi, rax
	call	_ZNSt17_Rb_tree_iteratorISt4pairIKcSt3setIiSt4lessIiESaIiEEEEC1EPSt18_Rb_tree_node_base
	mov	rax, QWORD PTR -16[rbp]
	mov	rdx, QWORD PTR -8[rbp]
	sub	rdx, QWORD PTR fs:40
	je	.L293
	call	__stack_chk_fail@PLT
.L293:
	leave
	.cfi_def_cfa 7, 8
	ret
	.cfi_endproc
.LFE11261:
	.size	_ZNSt8_Rb_treeIcSt4pairIKcSt3setIiSt4lessIiESaIiEEESt10_Select1stIS7_ES3_IcESaIS7_EE3endEv, .-_ZNSt8_Rb_treeIcSt4pairIKcSt3setIiSt4lessIiESaIiEEESt10_Select1stIS7_ES3_IcESaIS7_EE3endEv
	.section	.text._ZNKSt8_Rb_treeIcSt4pairIKcSt3setIiSt4lessIiESaIiEEESt10_Select1stIS7_ES3_IcESaIS7_EE8key_compEv,"axG",@progbits,_ZNKSt8_Rb_treeIcSt4pairIKcSt3setIiSt4lessIiESaIiEEESt10_Select1stIS7_ES3_IcESaIS7_EE8key_compEv,comdat
	.align 2
	.weak	_ZNKSt8_Rb_treeIcSt4pairIKcSt3setIiSt4lessIiESaIiEEESt10_Select1stIS7_ES3_IcESaIS7_EE8key_compEv
	.type	_ZNKSt8_Rb_treeIcSt4pairIKcSt3setIiSt4lessIiESaIiEEESt10_Select1stIS7_ES3_IcESaIS7_EE8key_compEv, @function
_ZNKSt8_Rb_treeIcSt4pairIKcSt3setIiSt4lessIiESaIiEEESt10_Select1stIS7_ES3_IcESaIS7_EE8key_compEv:
.LFB11262:
	.cfi_startproc
	endbr64
	push	rbp
	.cfi_def_cfa_offset 16
	.cfi_offset 6, -16
	mov	rbp, rsp
	.cfi_def_cfa_register 6
	mov	QWORD PTR -8[rbp], rdi
	nop
	pop	rbp
	.cfi_def_cfa 7, 8
	ret
	.cfi_endproc
.LFE11262:
	.size	_ZNKSt8_Rb_treeIcSt4pairIKcSt3setIiSt4lessIiESaIiEEESt10_Select1stIS7_ES3_IcESaIS7_EE8key_compEv, .-_ZNKSt8_Rb_treeIcSt4pairIKcSt3setIiSt4lessIiESaIiEEESt10_Select1stIS7_ES3_IcESaIS7_EE8key_compEv
	.section	.text._ZNSt13_Rb_tree_nodeISt4pairIKcSt3setIiSt4lessIiESaIiEEEE9_M_valptrEv,"axG",@progbits,_ZNSt13_Rb_tree_nodeISt4pairIKcSt3setIiSt4lessIiESaIiEEEE9_M_valptrEv,comdat
	.align 2
	.weak	_ZNSt13_Rb_tree_nodeISt4pairIKcSt3setIiSt4lessIiESaIiEEEE9_M_valptrEv
	.type	_ZNSt13_Rb_tree_nodeISt4pairIKcSt3setIiSt4lessIiESaIiEEEE9_M_valptrEv, @function
_ZNSt13_Rb_tree_nodeISt4pairIKcSt3setIiSt4lessIiESaIiEEEE9_M_valptrEv:
.LFB11263:
	.cfi_startproc
	endbr64
	push	rbp
	.cfi_def_cfa_offset 16
	.cfi_offset 6, -16
	mov	rbp, rsp
	.cfi_def_cfa_register 6
	sub	rsp, 16
	mov	QWORD PTR -8[rbp], rdi
	mov	rax, QWORD PTR -8[rbp]
	add	rax, 32
	mov	rdi, rax
	call	_ZN9__gnu_cxx16__aligned_membufISt4pairIKcSt3setIiSt4lessIiESaIiEEEE6_M_ptrEv
	leave
	.cfi_def_cfa 7, 8
	ret
	.cfi_endproc
.LFE11263:
	.size	_ZNSt13_Rb_tree_nodeISt4pairIKcSt3setIiSt4lessIiESaIiEEEE9_M_valptrEv, .-_ZNSt13_Rb_tree_nodeISt4pairIKcSt3setIiSt4lessIiESaIiEEEE9_M_valptrEv
	.section	.text._ZNSt11_Tuple_implILm0EJRKcEEC2ES1_,"axG",@progbits,_ZNSt11_Tuple_implILm0EJRKcEEC5ES1_,comdat
	.align 2
	.weak	_ZNSt11_Tuple_implILm0EJRKcEEC2ES1_
	.type	_ZNSt11_Tuple_implILm0EJRKcEEC2ES1_, @function
_ZNSt11_Tuple_implILm0EJRKcEEC2ES1_:
.LFB11265:
	.cfi_startproc
	endbr64
	push	rbp
	.cfi_def_cfa_offset 16
	.cfi_offset 6, -16
	mov	rbp, rsp
	.cfi_def_cfa_register 6
	sub	rsp, 16
	mov	QWORD PTR -8[rbp], rdi
	mov	QWORD PTR -16[rbp], rsi
	mov	rax, QWORD PTR -8[rbp]
	mov	rdx, QWORD PTR -16[rbp]
	mov	rsi, rdx
	mov	rdi, rax
	call	_ZNSt10_Head_baseILm0ERKcLb0EEC2ES1_
	nop
	leave
	.cfi_def_cfa 7, 8
	ret
	.cfi_endproc
.LFE11265:
	.size	_ZNSt11_Tuple_implILm0EJRKcEEC2ES1_, .-_ZNSt11_Tuple_implILm0EJRKcEEC2ES1_
	.weak	_ZNSt11_Tuple_implILm0EJRKcEEC1ES1_
	.set	_ZNSt11_Tuple_implILm0EJRKcEEC1ES1_,_ZNSt11_Tuple_implILm0EJRKcEEC2ES1_
	.section	.text._ZSt7forwardISt5tupleIJRKcEEEOT_RNSt16remove_referenceIS4_E4typeE,"axG",@progbits,_ZSt7forwardISt5tupleIJRKcEEEOT_RNSt16remove_referenceIS4_E4typeE,comdat
	.weak	_ZSt7forwardISt5tupleIJRKcEEEOT_RNSt16remove_referenceIS4_E4typeE
	.type	_ZSt7forwardISt5tupleIJRKcEEEOT_RNSt16remove_referenceIS4_E4typeE, @function
_ZSt7forwardISt5tupleIJRKcEEEOT_RNSt16remove_referenceIS4_E4typeE:
.LFB11267:
	.cfi_startproc
	endbr64
	push	rbp
	.cfi_def_cfa_offset 16
	.cfi_offset 6, -16
	mov	rbp, rsp
	.cfi_def_cfa_register 6
	mov	QWORD PTR -8[rbp], rdi
	mov	rax, QWORD PTR -8[rbp]
	pop	rbp
	.cfi_def_cfa 7, 8
	ret
	.cfi_endproc
.LFE11267:
	.size	_ZSt7forwardISt5tupleIJRKcEEEOT_RNSt16remove_referenceIS4_E4typeE, .-_ZSt7forwardISt5tupleIJRKcEEEOT_RNSt16remove_referenceIS4_E4typeE
	.section	.text._ZNSt8_Rb_treeIcSt4pairIKcSt3setIiSt4lessIiESaIiEEESt10_Select1stIS7_ES3_IcESaIS7_EE14_M_create_nodeIJRKSt21piecewise_construct_tSt5tupleIJRS1_EESH_IJEEEEEPSt13_Rb_tree_nodeIS7_EDpOT_,"axG",@progbits,_ZNSt8_Rb_treeIcSt4pairIKcSt3setIiSt4lessIiESaIiEEESt10_Select1stIS7_ES3_IcESaIS7_EE14_M_create_nodeIJRKSt21piecewise_construct_tSt5tupleIJRS1_EESH_IJEEEEEPSt13_Rb_tree_nodeIS7_EDpOT_,comdat
	.align 2
	.weak	_ZNSt8_Rb_treeIcSt4pairIKcSt3setIiSt4lessIiESaIiEEESt10_Select1stIS7_ES3_IcESaIS7_EE14_M_create_nodeIJRKSt21piecewise_construct_tSt5tupleIJRS1_EESH_IJEEEEEPSt13_Rb_tree_nodeIS7_EDpOT_
	.type	_ZNSt8_Rb_treeIcSt4pairIKcSt3setIiSt4lessIiESaIiEEESt10_Select1stIS7_ES3_IcESaIS7_EE14_M_create_nodeIJRKSt21piecewise_construct_tSt5tupleIJRS1_EESH_IJEEEEEPSt13_Rb_tree_nodeIS7_EDpOT_, @function
_ZNSt8_Rb_treeIcSt4pairIKcSt3setIiSt4lessIiESaIiEEESt10_Select1stIS7_ES3_IcESaIS7_EE14_M_create_nodeIJRKSt21piecewise_construct_tSt5tupleIJRS1_EESH_IJEEEEEPSt13_Rb_tree_nodeIS7_EDpOT_:
.LFB11268:
	.cfi_startproc
	endbr64
	push	rbp
	.cfi_def_cfa_offset 16
	.cfi_offset 6, -16
	mov	rbp, rsp
	.cfi_def_cfa_register 6
	push	r12
	push	rbx
	sub	rsp, 48
	.cfi_offset 12, -24
	.cfi_offset 3, -32
	mov	QWORD PTR -40[rbp], rdi
	mov	QWORD PTR -48[rbp], rsi
	mov	QWORD PTR -56[rbp], rdx
	mov	QWORD PTR -64[rbp], rcx
	mov	rax, QWORD PTR -40[rbp]
	mov	rdi, rax
	call	_ZNSt8_Rb_treeIcSt4pairIKcSt3setIiSt4lessIiESaIiEEESt10_Select1stIS7_ES3_IcESaIS7_EE11_M_get_nodeEv
	mov	QWORD PTR -24[rbp], rax
	mov	rax, QWORD PTR -64[rbp]
	mov	rdi, rax
	call	_ZSt7forwardISt5tupleIJEEEOT_RNSt16remove_referenceIS2_E4typeE
	mov	r12, rax
	mov	rax, QWORD PTR -56[rbp]
	mov	rdi, rax
	call	_ZSt7forwardISt5tupleIJRKcEEEOT_RNSt16remove_referenceIS4_E4typeE
	mov	rbx, rax
	mov	rax, QWORD PTR -48[rbp]
	mov	rdi, rax
	call	_ZSt7forwardIRKSt21piecewise_construct_tEOT_RNSt16remove_referenceIS3_E4typeE
	mov	rdx, rax
	mov	rsi, QWORD PTR -24[rbp]
	mov	rax, QWORD PTR -40[rbp]
	mov	r8, r12
	mov	rcx, rbx
	mov	rdi, rax
	call	_ZNSt8_Rb_treeIcSt4pairIKcSt3setIiSt4lessIiESaIiEEESt10_Select1stIS7_ES3_IcESaIS7_EE17_M_construct_nodeIJRKSt21piecewise_construct_tSt5tupleIJRS1_EESH_IJEEEEEvPSt13_Rb_tree_nodeIS7_EDpOT_
	mov	rax, QWORD PTR -24[rbp]
	add	rsp, 48
	pop	rbx
	pop	r12
	pop	rbp
	.cfi_def_cfa 7, 8
	ret
	.cfi_endproc
.LFE11268:
	.size	_ZNSt8_Rb_treeIcSt4pairIKcSt3setIiSt4lessIiESaIiEEESt10_Select1stIS7_ES3_IcESaIS7_EE14_M_create_nodeIJRKSt21piecewise_construct_tSt5tupleIJRS1_EESH_IJEEEEEPSt13_Rb_tree_nodeIS7_EDpOT_, .-_ZNSt8_Rb_treeIcSt4pairIKcSt3setIiSt4lessIiESaIiEEESt10_Select1stIS7_ES3_IcESaIS7_EE14_M_create_nodeIJRKSt21piecewise_construct_tSt5tupleIJRS1_EESH_IJEEEEEPSt13_Rb_tree_nodeIS7_EDpOT_
	.section	.text._ZNSt8_Rb_treeIcSt4pairIKcSt3setIiSt4lessIiESaIiEEESt10_Select1stIS7_ES3_IcESaIS7_EE29_M_get_insert_hint_unique_posESt23_Rb_tree_const_iteratorIS7_ERS1_,"axG",@progbits,_ZNSt8_Rb_treeIcSt4pairIKcSt3setIiSt4lessIiESaIiEEESt10_Select1stIS7_ES3_IcESaIS7_EE29_M_get_insert_hint_unique_posESt23_Rb_tree_const_iteratorIS7_ERS1_,comdat
	.align 2
	.weak	_ZNSt8_Rb_treeIcSt4pairIKcSt3setIiSt4lessIiESaIiEEESt10_Select1stIS7_ES3_IcESaIS7_EE29_M_get_insert_hint_unique_posESt23_Rb_tree_const_iteratorIS7_ERS1_
	.type	_ZNSt8_Rb_treeIcSt4pairIKcSt3setIiSt4lessIiESaIiEEESt10_Select1stIS7_ES3_IcESaIS7_EE29_M_get_insert_hint_unique_posESt23_Rb_tree_const_iteratorIS7_ERS1_, @function
_ZNSt8_Rb_treeIcSt4pairIKcSt3setIiSt4lessIiESaIiEEESt10_Select1stIS7_ES3_IcESaIS7_EE29_M_get_insert_hint_unique_posESt23_Rb_tree_const_iteratorIS7_ERS1_:
.LFB11269:
	.cfi_startproc
	endbr64
	push	rbp
	.cfi_def_cfa_offset 16
	.cfi_offset 6, -16
	mov	rbp, rsp
	.cfi_def_cfa_register 6
	push	rbx
	sub	rsp, 104
	.cfi_offset 3, -24
	mov	QWORD PTR -88[rbp], rdi
	mov	QWORD PTR -96[rbp], rsi
	mov	QWORD PTR -104[rbp], rdx
	mov	rax, QWORD PTR fs:40
	mov	QWORD PTR -24[rbp], rax
	xor	eax, eax
	lea	rax, -96[rbp]
	mov	rdi, rax
	call	_ZNKSt23_Rb_tree_const_iteratorISt4pairIKcSt3setIiSt4lessIiESaIiEEEE13_M_const_castEv
	mov	QWORD PTR -72[rbp], rax
	mov	rbx, QWORD PTR -72[rbp]
	mov	rax, QWORD PTR -88[rbp]
	mov	rdi, rax
	call	_ZNSt8_Rb_treeIcSt4pairIKcSt3setIiSt4lessIiESaIiEEESt10_Select1stIS7_ES3_IcESaIS7_EE6_M_endEv
	cmp	rbx, rax
	sete	al
	test	al, al
	je	.L304
	mov	rax, QWORD PTR -88[rbp]
	mov	rdi, rax
	call	_ZNKSt8_Rb_treeIcSt4pairIKcSt3setIiSt4lessIiESaIiEEESt10_Select1stIS7_ES3_IcESaIS7_EE4sizeEv
	test	rax, rax
	je	.L305
	mov	rbx, QWORD PTR -88[rbp]
	mov	rax, QWORD PTR -88[rbp]
	mov	rdi, rax
	call	_ZNSt8_Rb_treeIcSt4pairIKcSt3setIiSt4lessIiESaIiEEESt10_Select1stIS7_ES3_IcESaIS7_EE12_M_rightmostEv
	mov	rax, QWORD PTR [rax]
	mov	rdi, rax
	call	_ZNSt8_Rb_treeIcSt4pairIKcSt3setIiSt4lessIiESaIiEEESt10_Select1stIS7_ES3_IcESaIS7_EE6_S_keyEPKSt18_Rb_tree_node_base
	mov	rcx, rax
	mov	rax, QWORD PTR -104[rbp]
	mov	rdx, rax
	mov	rsi, rcx
	mov	rdi, rbx
	call	_ZNKSt4lessIcEclERKcS2_
	test	al, al
	je	.L305
	mov	eax, 1
	jmp	.L306
.L305:
	mov	eax, 0
.L306:
	test	al, al
	je	.L307
	mov	rax, QWORD PTR -88[rbp]
	mov	rdi, rax
	call	_ZNSt8_Rb_treeIcSt4pairIKcSt3setIiSt4lessIiESaIiEEESt10_Select1stIS7_ES3_IcESaIS7_EE12_M_rightmostEv
	mov	rdx, rax
	mov	QWORD PTR -56[rbp], 0
	lea	rcx, -56[rbp]
	lea	rax, -48[rbp]
	mov	rsi, rcx
	mov	rdi, rax
	call	_ZNSt4pairIPSt18_Rb_tree_node_baseS1_EC1IRS1_Lb1EEERKS1_OT_
	mov	rax, QWORD PTR -48[rbp]
	mov	rdx, QWORD PTR -40[rbp]
	jmp	.L319
.L307:
	mov	rdx, QWORD PTR -104[rbp]
	mov	rax, QWORD PTR -88[rbp]
	mov	rsi, rdx
	mov	rdi, rax
	call	_ZNSt8_Rb_treeIcSt4pairIKcSt3setIiSt4lessIiESaIiEEESt10_Select1stIS7_ES3_IcESaIS7_EE24_M_get_insert_unique_posERS1_
	jmp	.L319
.L304:
	mov	rbx, QWORD PTR -88[rbp]
	mov	rax, QWORD PTR -72[rbp]
	mov	rdi, rax
	call	_ZNSt8_Rb_treeIcSt4pairIKcSt3setIiSt4lessIiESaIiEEESt10_Select1stIS7_ES3_IcESaIS7_EE6_S_keyEPKSt18_Rb_tree_node_base
	mov	rdx, rax
	mov	rax, QWORD PTR -104[rbp]
	mov	rsi, rax
	mov	rdi, rbx
	call	_ZNKSt4lessIcEclERKcS2_
	test	al, al
	je	.L309
	mov	rax, QWORD PTR -72[rbp]
	mov	QWORD PTR -64[rbp], rax
	mov	rbx, QWORD PTR -72[rbp]
	mov	rax, QWORD PTR -88[rbp]
	mov	rdi, rax
	call	_ZNSt8_Rb_treeIcSt4pairIKcSt3setIiSt4lessIiESaIiEEESt10_Select1stIS7_ES3_IcESaIS7_EE11_M_leftmostEv
	mov	rax, QWORD PTR [rax]
	cmp	rbx, rax
	sete	al
	test	al, al
	je	.L310
	mov	rax, QWORD PTR -88[rbp]
	mov	rdi, rax
	call	_ZNSt8_Rb_treeIcSt4pairIKcSt3setIiSt4lessIiESaIiEEESt10_Select1stIS7_ES3_IcESaIS7_EE11_M_leftmostEv
	mov	rbx, rax
	mov	rax, QWORD PTR -88[rbp]
	mov	rdi, rax
	call	_ZNSt8_Rb_treeIcSt4pairIKcSt3setIiSt4lessIiESaIiEEESt10_Select1stIS7_ES3_IcESaIS7_EE11_M_leftmostEv
	mov	rcx, rax
	lea	rax, -48[rbp]
	mov	rdx, rbx
	mov	rsi, rcx
	mov	rdi, rax
	call	_ZNSt4pairIPSt18_Rb_tree_node_baseS1_EC1IRS1_S4_Lb1EEEOT_OT0_
	mov	rax, QWORD PTR -48[rbp]
	mov	rdx, QWORD PTR -40[rbp]
	jmp	.L319
.L310:
	mov	rbx, QWORD PTR -88[rbp]
	lea	rax, -64[rbp]
	mov	rdi, rax
	call	_ZNSt17_Rb_tree_iteratorISt4pairIKcSt3setIiSt4lessIiESaIiEEEEmmEv
	mov	rax, QWORD PTR [rax]
	mov	rdi, rax
	call	_ZNSt8_Rb_treeIcSt4pairIKcSt3setIiSt4lessIiESaIiEEESt10_Select1stIS7_ES3_IcESaIS7_EE6_S_keyEPKSt18_Rb_tree_node_base
	mov	rcx, rax
	mov	rax, QWORD PTR -104[rbp]
	mov	rdx, rax
	mov	rsi, rcx
	mov	rdi, rbx
	call	_ZNKSt4lessIcEclERKcS2_
	test	al, al
	je	.L312
	mov	rax, QWORD PTR -64[rbp]
	mov	rdi, rax
	call	_ZNSt8_Rb_treeIcSt4pairIKcSt3setIiSt4lessIiESaIiEEESt10_Select1stIS7_ES3_IcESaIS7_EE8_S_rightEPSt18_Rb_tree_node_base
	test	rax, rax
	sete	al
	test	al, al
	je	.L313
	mov	QWORD PTR -56[rbp], 0
	lea	rdx, -64[rbp]
	lea	rcx, -56[rbp]
	lea	rax, -48[rbp]
	mov	rsi, rcx
	mov	rdi, rax
	call	_ZNSt4pairIPSt18_Rb_tree_node_baseS1_EC1IRS1_Lb1EEERKS1_OT_
	mov	rax, QWORD PTR -48[rbp]
	mov	rdx, QWORD PTR -40[rbp]
	jmp	.L319
.L313:
	lea	rdx, -72[rbp]
	lea	rcx, -72[rbp]
	lea	rax, -48[rbp]
	mov	rsi, rcx
	mov	rdi, rax
	call	_ZNSt4pairIPSt18_Rb_tree_node_baseS1_EC1IRS1_S4_Lb1EEEOT_OT0_
	mov	rax, QWORD PTR -48[rbp]
	mov	rdx, QWORD PTR -40[rbp]
	jmp	.L319
.L312:
	mov	rdx, QWORD PTR -104[rbp]
	mov	rax, QWORD PTR -88[rbp]
	mov	rsi, rdx
	mov	rdi, rax
	call	_ZNSt8_Rb_treeIcSt4pairIKcSt3setIiSt4lessIiESaIiEEESt10_Select1stIS7_ES3_IcESaIS7_EE24_M_get_insert_unique_posERS1_
	jmp	.L319
.L309:
	mov	rbx, QWORD PTR -88[rbp]
	mov	rax, QWORD PTR -72[rbp]
	mov	rdi, rax
	call	_ZNSt8_Rb_treeIcSt4pairIKcSt3setIiSt4lessIiESaIiEEESt10_Select1stIS7_ES3_IcESaIS7_EE6_S_keyEPKSt18_Rb_tree_node_base
	mov	rcx, rax
	mov	rax, QWORD PTR -104[rbp]
	mov	rdx, rax
	mov	rsi, rcx
	mov	rdi, rbx
	call	_ZNKSt4lessIcEclERKcS2_
	test	al, al
	je	.L314
	mov	rax, QWORD PTR -72[rbp]
	mov	QWORD PTR -64[rbp], rax
	mov	rbx, QWORD PTR -72[rbp]
	mov	rax, QWORD PTR -88[rbp]
	mov	rdi, rax
	call	_ZNSt8_Rb_treeIcSt4pairIKcSt3setIiSt4lessIiESaIiEEESt10_Select1stIS7_ES3_IcESaIS7_EE12_M_rightmostEv
	mov	rax, QWORD PTR [rax]
	cmp	rbx, rax
	sete	al
	test	al, al
	je	.L315
	mov	rax, QWORD PTR -88[rbp]
	mov	rdi, rax
	call	_ZNSt8_Rb_treeIcSt4pairIKcSt3setIiSt4lessIiESaIiEEESt10_Select1stIS7_ES3_IcESaIS7_EE12_M_rightmostEv
	mov	rdx, rax
	mov	QWORD PTR -56[rbp], 0
	lea	rcx, -56[rbp]
	lea	rax, -48[rbp]
	mov	rsi, rcx
	mov	rdi, rax
	call	_ZNSt4pairIPSt18_Rb_tree_node_baseS1_EC1IRS1_Lb1EEERKS1_OT_
	mov	rax, QWORD PTR -48[rbp]
	mov	rdx, QWORD PTR -40[rbp]
	jmp	.L319
.L315:
	mov	rbx, QWORD PTR -88[rbp]
	lea	rax, -64[rbp]
	mov	rdi, rax
	call	_ZNSt17_Rb_tree_iteratorISt4pairIKcSt3setIiSt4lessIiESaIiEEEEppEv
	mov	rax, QWORD PTR [rax]
	mov	rdi, rax
	call	_ZNSt8_Rb_treeIcSt4pairIKcSt3setIiSt4lessIiESaIiEEESt10_Select1stIS7_ES3_IcESaIS7_EE6_S_keyEPKSt18_Rb_tree_node_base
	mov	rdx, rax
	mov	rax, QWORD PTR -104[rbp]
	mov	rsi, rax
	mov	rdi, rbx
	call	_ZNKSt4lessIcEclERKcS2_
	test	al, al
	je	.L317
	mov	rax, QWORD PTR -72[rbp]
	mov	rdi, rax
	call	_ZNSt8_Rb_treeIcSt4pairIKcSt3setIiSt4lessIiESaIiEEESt10_Select1stIS7_ES3_IcESaIS7_EE8_S_rightEPSt18_Rb_tree_node_base
	test	rax, rax
	sete	al
	test	al, al
	je	.L318
	mov	QWORD PTR -56[rbp], 0
	lea	rdx, -72[rbp]
	lea	rcx, -56[rbp]
	lea	rax, -48[rbp]
	mov	rsi, rcx
	mov	rdi, rax
	call	_ZNSt4pairIPSt18_Rb_tree_node_baseS1_EC1IRS1_Lb1EEERKS1_OT_
	mov	rax, QWORD PTR -48[rbp]
	mov	rdx, QWORD PTR -40[rbp]
	jmp	.L319
.L318:
	lea	rdx, -64[rbp]
	lea	rcx, -64[rbp]
	lea	rax, -48[rbp]
	mov	rsi, rcx
	mov	rdi, rax
	call	_ZNSt4pairIPSt18_Rb_tree_node_baseS1_EC1IRS1_S4_Lb1EEEOT_OT0_
	mov	rax, QWORD PTR -48[rbp]
	mov	rdx, QWORD PTR -40[rbp]
	jmp	.L319
.L317:
	mov	rdx, QWORD PTR -104[rbp]
	mov	rax, QWORD PTR -88[rbp]
	mov	rsi, rdx
	mov	rdi, rax
	call	_ZNSt8_Rb_treeIcSt4pairIKcSt3setIiSt4lessIiESaIiEEESt10_Select1stIS7_ES3_IcESaIS7_EE24_M_get_insert_unique_posERS1_
	jmp	.L319
.L314:
	mov	QWORD PTR -56[rbp], 0
	lea	rdx, -56[rbp]
	lea	rcx, -72[rbp]
	lea	rax, -48[rbp]
	mov	rsi, rcx
	mov	rdi, rax
	call	_ZNSt4pairIPSt18_Rb_tree_node_baseS1_EC1IRS1_Lb1EEEOT_RKS1_
	mov	rax, QWORD PTR -48[rbp]
	mov	rdx, QWORD PTR -40[rbp]
.L319:
	mov	rcx, QWORD PTR -24[rbp]
	sub	rcx, QWORD PTR fs:40
	je	.L320
	call	__stack_chk_fail@PLT
.L320:
	mov	rbx, QWORD PTR -8[rbp]
	leave
	.cfi_def_cfa 7, 8
	ret
	.cfi_endproc
.LFE11269:
	.size	_ZNSt8_Rb_treeIcSt4pairIKcSt3setIiSt4lessIiESaIiEEESt10_Select1stIS7_ES3_IcESaIS7_EE29_M_get_insert_hint_unique_posESt23_Rb_tree_const_iteratorIS7_ERS1_, .-_ZNSt8_Rb_treeIcSt4pairIKcSt3setIiSt4lessIiESaIiEEESt10_Select1stIS7_ES3_IcESaIS7_EE29_M_get_insert_hint_unique_posESt23_Rb_tree_const_iteratorIS7_ERS1_
	.section	.text._ZNSt8_Rb_treeIcSt4pairIKcSt3setIiSt4lessIiESaIiEEESt10_Select1stIS7_ES3_IcESaIS7_EE6_S_keyEPKSt13_Rb_tree_nodeIS7_E,"axG",@progbits,_ZNSt8_Rb_treeIcSt4pairIKcSt3setIiSt4lessIiESaIiEEESt10_Select1stIS7_ES3_IcESaIS7_EE6_S_keyEPKSt13_Rb_tree_nodeIS7_E,comdat
	.weak	_ZNSt8_Rb_treeIcSt4pairIKcSt3setIiSt4lessIiESaIiEEESt10_Select1stIS7_ES3_IcESaIS7_EE6_S_keyEPKSt13_Rb_tree_nodeIS7_E
	.type	_ZNSt8_Rb_treeIcSt4pairIKcSt3setIiSt4lessIiESaIiEEESt10_Select1stIS7_ES3_IcESaIS7_EE6_S_keyEPKSt13_Rb_tree_nodeIS7_E, @function
_ZNSt8_Rb_treeIcSt4pairIKcSt3setIiSt4lessIiESaIiEEESt10_Select1stIS7_ES3_IcESaIS7_EE6_S_keyEPKSt13_Rb_tree_nodeIS7_E:
.LFB11270:
	.cfi_startproc
	endbr64
	push	rbp
	.cfi_def_cfa_offset 16
	.cfi_offset 6, -16
	mov	rbp, rsp
	.cfi_def_cfa_register 6
	sub	rsp, 32
	mov	QWORD PTR -24[rbp], rdi
	mov	rax, QWORD PTR fs:40
	mov	QWORD PTR -8[rbp], rax
	xor	eax, eax
	mov	rax, QWORD PTR -24[rbp]
	mov	rdi, rax
	call	_ZNKSt13_Rb_tree_nodeISt4pairIKcSt3setIiSt4lessIiESaIiEEEE9_M_valptrEv
	mov	rdx, rax
	lea	rax, -9[rbp]
	mov	rsi, rdx
	mov	rdi, rax
	call	_ZNKSt10_Select1stISt4pairIKcSt3setIiSt4lessIiESaIiEEEEclERKS7_
	mov	rdx, QWORD PTR -8[rbp]
	sub	rdx, QWORD PTR fs:40
	je	.L323
	call	__stack_chk_fail@PLT
.L323:
	leave
	.cfi_def_cfa 7, 8
	ret
	.cfi_endproc
.LFE11270:
	.size	_ZNSt8_Rb_treeIcSt4pairIKcSt3setIiSt4lessIiESaIiEEESt10_Select1stIS7_ES3_IcESaIS7_EE6_S_keyEPKSt13_Rb_tree_nodeIS7_E, .-_ZNSt8_Rb_treeIcSt4pairIKcSt3setIiSt4lessIiESaIiEEESt10_Select1stIS7_ES3_IcESaIS7_EE6_S_keyEPKSt13_Rb_tree_nodeIS7_E
	.section	.text._ZNSt8_Rb_treeIcSt4pairIKcSt3setIiSt4lessIiESaIiEEESt10_Select1stIS7_ES3_IcESaIS7_EE14_M_insert_nodeEPSt18_Rb_tree_node_baseSE_PSt13_Rb_tree_nodeIS7_E,"axG",@progbits,_ZNSt8_Rb_treeIcSt4pairIKcSt3setIiSt4lessIiESaIiEEESt10_Select1stIS7_ES3_IcESaIS7_EE14_M_insert_nodeEPSt18_Rb_tree_node_baseSE_PSt13_Rb_tree_nodeIS7_E,comdat
	.align 2
	.weak	_ZNSt8_Rb_treeIcSt4pairIKcSt3setIiSt4lessIiESaIiEEESt10_Select1stIS7_ES3_IcESaIS7_EE14_M_insert_nodeEPSt18_Rb_tree_node_baseSE_PSt13_Rb_tree_nodeIS7_E
	.type	_ZNSt8_Rb_treeIcSt4pairIKcSt3setIiSt4lessIiESaIiEEESt10_Select1stIS7_ES3_IcESaIS7_EE14_M_insert_nodeEPSt18_Rb_tree_node_baseSE_PSt13_Rb_tree_nodeIS7_E, @function
_ZNSt8_Rb_treeIcSt4pairIKcSt3setIiSt4lessIiESaIiEEESt10_Select1stIS7_ES3_IcESaIS7_EE14_M_insert_nodeEPSt18_Rb_tree_node_baseSE_PSt13_Rb_tree_nodeIS7_E:
.LFB11272:
	.cfi_startproc
	endbr64
	push	rbp
	.cfi_def_cfa_offset 16
	.cfi_offset 6, -16
	mov	rbp, rsp
	.cfi_def_cfa_register 6
	push	r12
	push	rbx
	sub	rsp, 64
	.cfi_offset 12, -24
	.cfi_offset 3, -32
	mov	QWORD PTR -56[rbp], rdi
	mov	QWORD PTR -64[rbp], rsi
	mov	QWORD PTR -72[rbp], rdx
	mov	QWORD PTR -80[rbp], rcx
	mov	rax, QWORD PTR fs:40
	mov	QWORD PTR -24[rbp], rax
	xor	eax, eax
	cmp	QWORD PTR -64[rbp], 0
	jne	.L325
	mov	rax, QWORD PTR -56[rbp]
	mov	rdi, rax
	call	_ZNSt8_Rb_treeIcSt4pairIKcSt3setIiSt4lessIiESaIiEEESt10_Select1stIS7_ES3_IcESaIS7_EE6_M_endEv
	cmp	QWORD PTR -72[rbp], rax
	je	.L325
	mov	rbx, QWORD PTR -56[rbp]
	mov	rax, QWORD PTR -72[rbp]
	mov	rdi, rax
	call	_ZNSt8_Rb_treeIcSt4pairIKcSt3setIiSt4lessIiESaIiEEESt10_Select1stIS7_ES3_IcESaIS7_EE6_S_keyEPKSt18_Rb_tree_node_base
	mov	r12, rax
	mov	rax, QWORD PTR -80[rbp]
	mov	rdi, rax
	call	_ZNSt8_Rb_treeIcSt4pairIKcSt3setIiSt4lessIiESaIiEEESt10_Select1stIS7_ES3_IcESaIS7_EE6_S_keyEPKSt13_Rb_tree_nodeIS7_E
	mov	rdx, r12
	mov	rsi, rax
	mov	rdi, rbx
	call	_ZNKSt4lessIcEclERKcS2_
	test	al, al
	je	.L326
.L325:
	mov	eax, 1
	jmp	.L327
.L326:
	mov	eax, 0
.L327:
	mov	BYTE PTR -33[rbp], al
	mov	rax, QWORD PTR -56[rbp]
	lea	rcx, 8[rax]
	movzx	eax, BYTE PTR -33[rbp]
	mov	rdx, QWORD PTR -72[rbp]
	mov	rsi, QWORD PTR -80[rbp]
	mov	edi, eax
	call	_ZSt29_Rb_tree_insert_and_rebalancebPSt18_Rb_tree_node_baseS0_RS_@PLT
	mov	rax, QWORD PTR -56[rbp]
	mov	rax, QWORD PTR 40[rax]
	lea	rdx, 1[rax]
	mov	rax, QWORD PTR -56[rbp]
	mov	QWORD PTR 40[rax], rdx
	mov	rdx, QWORD PTR -80[rbp]
	lea	rax, -32[rbp]
	mov	rsi, rdx
	mov	rdi, rax
	call	_ZNSt17_Rb_tree_iteratorISt4pairIKcSt3setIiSt4lessIiESaIiEEEEC1EPSt18_Rb_tree_node_base
	mov	rax, QWORD PTR -32[rbp]
	mov	rdx, QWORD PTR -24[rbp]
	sub	rdx, QWORD PTR fs:40
	je	.L329
	call	__stack_chk_fail@PLT
.L329:
	add	rsp, 64
	pop	rbx
	pop	r12
	pop	rbp
	.cfi_def_cfa 7, 8
	ret
	.cfi_endproc
.LFE11272:
	.size	_ZNSt8_Rb_treeIcSt4pairIKcSt3setIiSt4lessIiESaIiEEESt10_Select1stIS7_ES3_IcESaIS7_EE14_M_insert_nodeEPSt18_Rb_tree_node_baseSE_PSt13_Rb_tree_nodeIS7_E, .-_ZNSt8_Rb_treeIcSt4pairIKcSt3setIiSt4lessIiESaIiEEESt10_Select1stIS7_ES3_IcESaIS7_EE14_M_insert_nodeEPSt18_Rb_tree_node_baseSE_PSt13_Rb_tree_nodeIS7_E
	.section	.text._ZNSt17_Rb_tree_iteratorISt4pairIKcSt3setIiSt4lessIiESaIiEEEEC2EPSt18_Rb_tree_node_base,"axG",@progbits,_ZNSt17_Rb_tree_iteratorISt4pairIKcSt3setIiSt4lessIiESaIiEEEEC5EPSt18_Rb_tree_node_base,comdat
	.align 2
	.weak	_ZNSt17_Rb_tree_iteratorISt4pairIKcSt3setIiSt4lessIiESaIiEEEEC2EPSt18_Rb_tree_node_base
	.type	_ZNSt17_Rb_tree_iteratorISt4pairIKcSt3setIiSt4lessIiESaIiEEEEC2EPSt18_Rb_tree_node_base, @function
_ZNSt17_Rb_tree_iteratorISt4pairIKcSt3setIiSt4lessIiESaIiEEEEC2EPSt18_Rb_tree_node_base:
.LFB11274:
	.cfi_startproc
	endbr64
	push	rbp
	.cfi_def_cfa_offset 16
	.cfi_offset 6, -16
	mov	rbp, rsp
	.cfi_def_cfa_register 6
	mov	QWORD PTR -8[rbp], rdi
	mov	QWORD PTR -16[rbp], rsi
	mov	rax, QWORD PTR -8[rbp]
	mov	rdx, QWORD PTR -16[rbp]
	mov	QWORD PTR [rax], rdx
	nop
	pop	rbp
	.cfi_def_cfa 7, 8
	ret
	.cfi_endproc
.LFE11274:
	.size	_ZNSt17_Rb_tree_iteratorISt4pairIKcSt3setIiSt4lessIiESaIiEEEEC2EPSt18_Rb_tree_node_base, .-_ZNSt17_Rb_tree_iteratorISt4pairIKcSt3setIiSt4lessIiESaIiEEEEC2EPSt18_Rb_tree_node_base
	.weak	_ZNSt17_Rb_tree_iteratorISt4pairIKcSt3setIiSt4lessIiESaIiEEEEC1EPSt18_Rb_tree_node_base
	.set	_ZNSt17_Rb_tree_iteratorISt4pairIKcSt3setIiSt4lessIiESaIiEEEEC1EPSt18_Rb_tree_node_base,_ZNSt17_Rb_tree_iteratorISt4pairIKcSt3setIiSt4lessIiESaIiEEEEC2EPSt18_Rb_tree_node_base
	.section	.text._ZNSt8_Rb_treeIiiSt9_IdentityIiESt4lessIiESaIiEE24_M_get_insert_unique_posERKi,"axG",@progbits,_ZNSt8_Rb_treeIiiSt9_IdentityIiESt4lessIiESaIiEE24_M_get_insert_unique_posERKi,comdat
	.align 2
	.weak	_ZNSt8_Rb_treeIiiSt9_IdentityIiESt4lessIiESaIiEE24_M_get_insert_unique_posERKi
	.type	_ZNSt8_Rb_treeIiiSt9_IdentityIiESt4lessIiESaIiEE24_M_get_insert_unique_posERKi, @function
_ZNSt8_Rb_treeIiiSt9_IdentityIiESt4lessIiESaIiEE24_M_get_insert_unique_posERKi:
.LFB11276:
	.cfi_startproc
	endbr64
	push	rbp
	.cfi_def_cfa_offset 16
	.cfi_offset 6, -16
	mov	rbp, rsp
	.cfi_def_cfa_register 6
	push	rbx
	sub	rsp, 104
	.cfi_offset 3, -24
	mov	QWORD PTR -104[rbp], rdi
	mov	QWORD PTR -112[rbp], rsi
	mov	rax, QWORD PTR fs:40
	mov	QWORD PTR -24[rbp], rax
	xor	eax, eax
	mov	rax, QWORD PTR -104[rbp]
	mov	rdi, rax
	call	_ZNSt8_Rb_treeIiiSt9_IdentityIiESt4lessIiESaIiEE8_M_beginEv
	mov	QWORD PTR -80[rbp], rax
	mov	rax, QWORD PTR -104[rbp]
	mov	rdi, rax
	call	_ZNSt8_Rb_treeIiiSt9_IdentityIiESt4lessIiESaIiEE6_M_endEv
	mov	QWORD PTR -72[rbp], rax
	mov	BYTE PTR -81[rbp], 1
	jmp	.L332
.L335:
	mov	rax, QWORD PTR -80[rbp]
	mov	QWORD PTR -72[rbp], rax
	mov	rbx, QWORD PTR -104[rbp]
	mov	rax, QWORD PTR -80[rbp]
	mov	rdi, rax
	call	_ZNSt8_Rb_treeIiiSt9_IdentityIiESt4lessIiESaIiEE6_S_keyEPKSt13_Rb_tree_nodeIiE
	mov	rdx, rax
	mov	rax, QWORD PTR -112[rbp]
	mov	rsi, rax
	mov	rdi, rbx
	call	_ZNKSt4lessIiEclERKiS2_
	mov	BYTE PTR -81[rbp], al
	cmp	BYTE PTR -81[rbp], 0
	je	.L333
	mov	rax, QWORD PTR -80[rbp]
	mov	rdi, rax
	call	_ZNSt8_Rb_treeIiiSt9_IdentityIiESt4lessIiESaIiEE7_S_leftEPSt18_Rb_tree_node_base
	jmp	.L334
.L333:
	mov	rax, QWORD PTR -80[rbp]
	mov	rdi, rax
	call	_ZNSt8_Rb_treeIiiSt9_IdentityIiESt4lessIiESaIiEE8_S_rightEPSt18_Rb_tree_node_base
.L334:
	mov	QWORD PTR -80[rbp], rax
.L332:
	mov	rax, QWORD PTR -80[rbp]
	test	rax, rax
	jne	.L335
	mov	rdx, QWORD PTR -72[rbp]
	lea	rax, -64[rbp]
	mov	rsi, rdx
	mov	rdi, rax
	call	_ZNSt17_Rb_tree_iteratorIiEC1EPSt18_Rb_tree_node_base
	cmp	BYTE PTR -81[rbp], 0
	je	.L336
	mov	rax, QWORD PTR -104[rbp]
	mov	rdi, rax
	call	_ZNSt8_Rb_treeIiiSt9_IdentityIiESt4lessIiESaIiEE5beginEv
	mov	QWORD PTR -48[rbp], rax
	lea	rdx, -48[rbp]
	lea	rax, -64[rbp]
	mov	rsi, rdx
	mov	rdi, rax
	call	_ZSteqRKSt17_Rb_tree_iteratorIiES2_
	test	al, al
	je	.L337
	lea	rdx, -72[rbp]
	lea	rcx, -80[rbp]
	lea	rax, -48[rbp]
	mov	rsi, rcx
	mov	rdi, rax
	call	_ZNSt4pairIPSt18_Rb_tree_node_baseS1_EC1IRPSt13_Rb_tree_nodeIiERS1_Lb1EEEOT_OT0_
	mov	rax, QWORD PTR -48[rbp]
	mov	rdx, QWORD PTR -40[rbp]
	jmp	.L340
.L337:
	lea	rax, -64[rbp]
	mov	rdi, rax
	call	_ZNSt17_Rb_tree_iteratorIiEmmEv
.L336:
	mov	rbx, QWORD PTR -104[rbp]
	mov	rax, QWORD PTR -64[rbp]
	mov	rdi, rax
	call	_ZNSt8_Rb_treeIiiSt9_IdentityIiESt4lessIiESaIiEE6_S_keyEPKSt18_Rb_tree_node_base
	mov	rcx, rax
	mov	rax, QWORD PTR -112[rbp]
	mov	rdx, rax
	mov	rsi, rcx
	mov	rdi, rbx
	call	_ZNKSt4lessIiEclERKiS2_
	test	al, al
	je	.L339
	lea	rdx, -72[rbp]
	lea	rcx, -80[rbp]
	lea	rax, -48[rbp]
	mov	rsi, rcx
	mov	rdi, rax
	call	_ZNSt4pairIPSt18_Rb_tree_node_baseS1_EC1IRPSt13_Rb_tree_nodeIiERS1_Lb1EEEOT_OT0_
	mov	rax, QWORD PTR -48[rbp]
	mov	rdx, QWORD PTR -40[rbp]
	jmp	.L340
.L339:
	mov	QWORD PTR -56[rbp], 0
	lea	rdx, -56[rbp]
	lea	rcx, -64[rbp]
	lea	rax, -48[rbp]
	mov	rsi, rcx
	mov	rdi, rax
	call	_ZNSt4pairIPSt18_Rb_tree_node_baseS1_EC1IRS1_Lb1EEEOT_RKS1_
	mov	rax, QWORD PTR -48[rbp]
	mov	rdx, QWORD PTR -40[rbp]
.L340:
	mov	rcx, QWORD PTR -24[rbp]
	sub	rcx, QWORD PTR fs:40
	je	.L341
	call	__stack_chk_fail@PLT
.L341:
	mov	rbx, QWORD PTR -8[rbp]
	leave
	.cfi_def_cfa 7, 8
	ret
	.cfi_endproc
.LFE11276:
	.size	_ZNSt8_Rb_treeIiiSt9_IdentityIiESt4lessIiESaIiEE24_M_get_insert_unique_posERKi, .-_ZNSt8_Rb_treeIiiSt9_IdentityIiESt4lessIiESaIiEE24_M_get_insert_unique_posERKi
	.section	.text._ZNKSt9_IdentityIiEclERKi,"axG",@progbits,_ZNKSt9_IdentityIiEclERKi,comdat
	.align 2
	.weak	_ZNKSt9_IdentityIiEclERKi
	.type	_ZNKSt9_IdentityIiEclERKi, @function
_ZNKSt9_IdentityIiEclERKi:
.LFB11281:
	.cfi_startproc
	endbr64
	push	rbp
	.cfi_def_cfa_offset 16
	.cfi_offset 6, -16
	mov	rbp, rsp
	.cfi_def_cfa_register 6
	mov	QWORD PTR -8[rbp], rdi
	mov	QWORD PTR -16[rbp], rsi
	mov	rax, QWORD PTR -16[rbp]
	pop	rbp
	.cfi_def_cfa 7, 8
	ret
	.cfi_endproc
.LFE11281:
	.size	_ZNKSt9_IdentityIiEclERKi, .-_ZNKSt9_IdentityIiEclERKi
	.section	.text._ZNSt8_Rb_treeIiiSt9_IdentityIiESt4lessIiESaIiEE11_Alloc_nodeC2ERS5_,"axG",@progbits,_ZNSt8_Rb_treeIiiSt9_IdentityIiESt4lessIiESaIiEE11_Alloc_nodeC5ERS5_,comdat
	.align 2
	.weak	_ZNSt8_Rb_treeIiiSt9_IdentityIiESt4lessIiESaIiEE11_Alloc_nodeC2ERS5_
	.type	_ZNSt8_Rb_treeIiiSt9_IdentityIiESt4lessIiESaIiEE11_Alloc_nodeC2ERS5_, @function
_ZNSt8_Rb_treeIiiSt9_IdentityIiESt4lessIiESaIiEE11_Alloc_nodeC2ERS5_:
.LFB11283:
	.cfi_startproc
	endbr64
	push	rbp
	.cfi_def_cfa_offset 16
	.cfi_offset 6, -16
	mov	rbp, rsp
	.cfi_def_cfa_register 6
	mov	QWORD PTR -8[rbp], rdi
	mov	QWORD PTR -16[rbp], rsi
	mov	rax, QWORD PTR -8[rbp]
	mov	rdx, QWORD PTR -16[rbp]
	mov	QWORD PTR [rax], rdx
	nop
	pop	rbp
	.cfi_def_cfa 7, 8
	ret
	.cfi_endproc
.LFE11283:
	.size	_ZNSt8_Rb_treeIiiSt9_IdentityIiESt4lessIiESaIiEE11_Alloc_nodeC2ERS5_, .-_ZNSt8_Rb_treeIiiSt9_IdentityIiESt4lessIiESaIiEE11_Alloc_nodeC2ERS5_
	.weak	_ZNSt8_Rb_treeIiiSt9_IdentityIiESt4lessIiESaIiEE11_Alloc_nodeC1ERS5_
	.set	_ZNSt8_Rb_treeIiiSt9_IdentityIiESt4lessIiESaIiEE11_Alloc_nodeC1ERS5_,_ZNSt8_Rb_treeIiiSt9_IdentityIiESt4lessIiESaIiEE11_Alloc_nodeC2ERS5_
	.section	.text._ZSt7forwardIRKiEOT_RNSt16remove_referenceIS2_E4typeE,"axG",@progbits,_ZSt7forwardIRKiEOT_RNSt16remove_referenceIS2_E4typeE,comdat
	.weak	_ZSt7forwardIRKiEOT_RNSt16remove_referenceIS2_E4typeE
	.type	_ZSt7forwardIRKiEOT_RNSt16remove_referenceIS2_E4typeE, @function
_ZSt7forwardIRKiEOT_RNSt16remove_referenceIS2_E4typeE:
.LFB11285:
	.cfi_startproc
	endbr64
	push	rbp
	.cfi_def_cfa_offset 16
	.cfi_offset 6, -16
	mov	rbp, rsp
	.cfi_def_cfa_register 6
	mov	QWORD PTR -8[rbp], rdi
	mov	rax, QWORD PTR -8[rbp]
	pop	rbp
	.cfi_def_cfa 7, 8
	ret
	.cfi_endproc
.LFE11285:
	.size	_ZSt7forwardIRKiEOT_RNSt16remove_referenceIS2_E4typeE, .-_ZSt7forwardIRKiEOT_RNSt16remove_referenceIS2_E4typeE
	.section	.text._ZNSt8_Rb_treeIiiSt9_IdentityIiESt4lessIiESaIiEE10_M_insert_IRKiNS5_11_Alloc_nodeEEESt17_Rb_tree_iteratorIiEPSt18_Rb_tree_node_baseSD_OT_RT0_,"axG",@progbits,_ZNSt8_Rb_treeIiiSt9_IdentityIiESt4lessIiESaIiEE10_M_insert_IRKiNS5_11_Alloc_nodeEEESt17_Rb_tree_iteratorIiEPSt18_Rb_tree_node_baseSD_OT_RT0_,comdat
	.align 2
	.weak	_ZNSt8_Rb_treeIiiSt9_IdentityIiESt4lessIiESaIiEE10_M_insert_IRKiNS5_11_Alloc_nodeEEESt17_Rb_tree_iteratorIiEPSt18_Rb_tree_node_baseSD_OT_RT0_
	.type	_ZNSt8_Rb_treeIiiSt9_IdentityIiESt4lessIiESaIiEE10_M_insert_IRKiNS5_11_Alloc_nodeEEESt17_Rb_tree_iteratorIiEPSt18_Rb_tree_node_baseSD_OT_RT0_, @function
_ZNSt8_Rb_treeIiiSt9_IdentityIiESt4lessIiESaIiEE10_M_insert_IRKiNS5_11_Alloc_nodeEEESt17_Rb_tree_iteratorIiEPSt18_Rb_tree_node_baseSD_OT_RT0_:
.LFB11286:
	.cfi_startproc
	endbr64
	push	rbp
	.cfi_def_cfa_offset 16
	.cfi_offset 6, -16
	mov	rbp, rsp
	.cfi_def_cfa_register 6
	push	r12
	push	rbx
	sub	rsp, 80
	.cfi_offset 12, -24
	.cfi_offset 3, -32
	mov	QWORD PTR -56[rbp], rdi
	mov	QWORD PTR -64[rbp], rsi
	mov	QWORD PTR -72[rbp], rdx
	mov	QWORD PTR -80[rbp], rcx
	mov	QWORD PTR -88[rbp], r8
	mov	rax, QWORD PTR fs:40
	mov	QWORD PTR -24[rbp], rax
	xor	eax, eax
	cmp	QWORD PTR -64[rbp], 0
	jne	.L348
	mov	rax, QWORD PTR -56[rbp]
	mov	rdi, rax
	call	_ZNSt8_Rb_treeIiiSt9_IdentityIiESt4lessIiESaIiEE6_M_endEv
	cmp	QWORD PTR -72[rbp], rax
	je	.L348
	mov	rbx, QWORD PTR -56[rbp]
	mov	rax, QWORD PTR -72[rbp]
	mov	rdi, rax
	call	_ZNSt8_Rb_treeIiiSt9_IdentityIiESt4lessIiESaIiEE6_S_keyEPKSt18_Rb_tree_node_base
	mov	r12, rax
	mov	rdx, QWORD PTR -80[rbp]
	lea	rax, -40[rbp]
	mov	rsi, rdx
	mov	rdi, rax
	call	_ZNKSt9_IdentityIiEclERKi
	mov	rdx, r12
	mov	rsi, rax
	mov	rdi, rbx
	call	_ZNKSt4lessIiEclERKiS2_
	test	al, al
	je	.L349
.L348:
	mov	eax, 1
	jmp	.L350
.L349:
	mov	eax, 0
.L350:
	mov	BYTE PTR -41[rbp], al
	mov	rax, QWORD PTR -80[rbp]
	mov	rdi, rax
	call	_ZSt7forwardIRKiEOT_RNSt16remove_referenceIS2_E4typeE
	mov	rdx, rax
	mov	rax, QWORD PTR -88[rbp]
	mov	rsi, rdx
	mov	rdi, rax
	call	_ZNKSt8_Rb_treeIiiSt9_IdentityIiESt4lessIiESaIiEE11_Alloc_nodeclIRKiEEPSt13_Rb_tree_nodeIiEOT_
	mov	QWORD PTR -32[rbp], rax
	mov	rax, QWORD PTR -56[rbp]
	lea	rcx, 8[rax]
	movzx	eax, BYTE PTR -41[rbp]
	mov	rdx, QWORD PTR -72[rbp]
	mov	rsi, QWORD PTR -32[rbp]
	mov	edi, eax
	call	_ZSt29_Rb_tree_insert_and_rebalancebPSt18_Rb_tree_node_baseS0_RS_@PLT
	mov	rax, QWORD PTR -56[rbp]
	mov	rax, QWORD PTR 40[rax]
	lea	rdx, 1[rax]
	mov	rax, QWORD PTR -56[rbp]
	mov	QWORD PTR 40[rax], rdx
	mov	rdx, QWORD PTR -32[rbp]
	lea	rax, -40[rbp]
	mov	rsi, rdx
	mov	rdi, rax
	call	_ZNSt17_Rb_tree_iteratorIiEC1EPSt18_Rb_tree_node_base
	mov	rax, QWORD PTR -40[rbp]
	mov	rdx, QWORD PTR -24[rbp]
	sub	rdx, QWORD PTR fs:40
	je	.L352
	call	__stack_chk_fail@PLT
.L352:
	add	rsp, 80
	pop	rbx
	pop	r12
	pop	rbp
	.cfi_def_cfa 7, 8
	ret
	.cfi_endproc
.LFE11286:
	.size	_ZNSt8_Rb_treeIiiSt9_IdentityIiESt4lessIiESaIiEE10_M_insert_IRKiNS5_11_Alloc_nodeEEESt17_Rb_tree_iteratorIiEPSt18_Rb_tree_node_baseSD_OT_RT0_, .-_ZNSt8_Rb_treeIiiSt9_IdentityIiESt4lessIiESaIiEE10_M_insert_IRKiNS5_11_Alloc_nodeEEESt17_Rb_tree_iteratorIiEPSt18_Rb_tree_node_baseSD_OT_RT0_
	.section	.text._ZNSt4pairISt17_Rb_tree_iteratorIiEbEC2IS1_bLb1EEEOT_OT0_,"axG",@progbits,_ZNSt4pairISt17_Rb_tree_iteratorIiEbEC5IS1_bLb1EEEOT_OT0_,comdat
	.align 2
	.weak	_ZNSt4pairISt17_Rb_tree_iteratorIiEbEC2IS1_bLb1EEEOT_OT0_
	.type	_ZNSt4pairISt17_Rb_tree_iteratorIiEbEC2IS1_bLb1EEEOT_OT0_, @function
_ZNSt4pairISt17_Rb_tree_iteratorIiEbEC2IS1_bLb1EEEOT_OT0_:
.LFB11288:
	.cfi_startproc
	endbr64
	push	rbp
	.cfi_def_cfa_offset 16
	.cfi_offset 6, -16
	mov	rbp, rsp
	.cfi_def_cfa_register 6
	sub	rsp, 32
	mov	QWORD PTR -8[rbp], rdi
	mov	QWORD PTR -16[rbp], rsi
	mov	QWORD PTR -24[rbp], rdx
	mov	rax, QWORD PTR -16[rbp]
	mov	rdi, rax
	call	_ZSt7forwardISt17_Rb_tree_iteratorIiEEOT_RNSt16remove_referenceIS2_E4typeE
	mov	rdx, QWORD PTR -8[rbp]
	mov	rax, QWORD PTR [rax]
	mov	QWORD PTR [rdx], rax
	mov	rax, QWORD PTR -24[rbp]
	mov	rdi, rax
	call	_ZSt7forwardIbEOT_RNSt16remove_referenceIS0_E4typeE
	movzx	edx, BYTE PTR [rax]
	mov	rax, QWORD PTR -8[rbp]
	mov	BYTE PTR 8[rax], dl
	nop
	leave
	.cfi_def_cfa 7, 8
	ret
	.cfi_endproc
.LFE11288:
	.size	_ZNSt4pairISt17_Rb_tree_iteratorIiEbEC2IS1_bLb1EEEOT_OT0_, .-_ZNSt4pairISt17_Rb_tree_iteratorIiEbEC2IS1_bLb1EEEOT_OT0_
	.weak	_ZNSt4pairISt17_Rb_tree_iteratorIiEbEC1IS1_bLb1EEEOT_OT0_
	.set	_ZNSt4pairISt17_Rb_tree_iteratorIiEbEC1IS1_bLb1EEEOT_OT0_,_ZNSt4pairISt17_Rb_tree_iteratorIiEbEC2IS1_bLb1EEEOT_OT0_
	.section	.text._ZNSt17_Rb_tree_iteratorIiEC2EPSt18_Rb_tree_node_base,"axG",@progbits,_ZNSt17_Rb_tree_iteratorIiEC5EPSt18_Rb_tree_node_base,comdat
	.align 2
	.weak	_ZNSt17_Rb_tree_iteratorIiEC2EPSt18_Rb_tree_node_base
	.type	_ZNSt17_Rb_tree_iteratorIiEC2EPSt18_Rb_tree_node_base, @function
_ZNSt17_Rb_tree_iteratorIiEC2EPSt18_Rb_tree_node_base:
.LFB11291:
	.cfi_startproc
	endbr64
	push	rbp
	.cfi_def_cfa_offset 16
	.cfi_offset 6, -16
	mov	rbp, rsp
	.cfi_def_cfa_register 6
	mov	QWORD PTR -8[rbp], rdi
	mov	QWORD PTR -16[rbp], rsi
	mov	rax, QWORD PTR -8[rbp]
	mov	rdx, QWORD PTR -16[rbp]
	mov	QWORD PTR [rax], rdx
	nop
	pop	rbp
	.cfi_def_cfa 7, 8
	ret
	.cfi_endproc
.LFE11291:
	.size	_ZNSt17_Rb_tree_iteratorIiEC2EPSt18_Rb_tree_node_base, .-_ZNSt17_Rb_tree_iteratorIiEC2EPSt18_Rb_tree_node_base
	.weak	_ZNSt17_Rb_tree_iteratorIiEC1EPSt18_Rb_tree_node_base
	.set	_ZNSt17_Rb_tree_iteratorIiEC1EPSt18_Rb_tree_node_base,_ZNSt17_Rb_tree_iteratorIiEC2EPSt18_Rb_tree_node_base
	.section	.text._ZSt7forwardIRSt17_Rb_tree_iteratorIiEEOT_RNSt16remove_referenceIS3_E4typeE,"axG",@progbits,_ZSt7forwardIRSt17_Rb_tree_iteratorIiEEOT_RNSt16remove_referenceIS3_E4typeE,comdat
	.weak	_ZSt7forwardIRSt17_Rb_tree_iteratorIiEEOT_RNSt16remove_referenceIS3_E4typeE
	.type	_ZSt7forwardIRSt17_Rb_tree_iteratorIiEEOT_RNSt16remove_referenceIS3_E4typeE, @function
_ZSt7forwardIRSt17_Rb_tree_iteratorIiEEOT_RNSt16remove_referenceIS3_E4typeE:
.LFB11293:
	.cfi_startproc
	endbr64
	push	rbp
	.cfi_def_cfa_offset 16
	.cfi_offset 6, -16
	mov	rbp, rsp
	.cfi_def_cfa_register 6
	mov	QWORD PTR -8[rbp], rdi
	mov	rax, QWORD PTR -8[rbp]
	pop	rbp
	.cfi_def_cfa 7, 8
	ret
	.cfi_endproc
.LFE11293:
	.size	_ZSt7forwardIRSt17_Rb_tree_iteratorIiEEOT_RNSt16remove_referenceIS3_E4typeE, .-_ZSt7forwardIRSt17_Rb_tree_iteratorIiEEOT_RNSt16remove_referenceIS3_E4typeE
	.section	.text._ZNSt23_Rb_tree_const_iteratorIiEC2ERKSt17_Rb_tree_iteratorIiE,"axG",@progbits,_ZNSt23_Rb_tree_const_iteratorIiEC5ERKSt17_Rb_tree_iteratorIiE,comdat
	.align 2
	.weak	_ZNSt23_Rb_tree_const_iteratorIiEC2ERKSt17_Rb_tree_iteratorIiE
	.type	_ZNSt23_Rb_tree_const_iteratorIiEC2ERKSt17_Rb_tree_iteratorIiE, @function
_ZNSt23_Rb_tree_const_iteratorIiEC2ERKSt17_Rb_tree_iteratorIiE:
.LFB11295:
	.cfi_startproc
	endbr64
	push	rbp
	.cfi_def_cfa_offset 16
	.cfi_offset 6, -16
	mov	rbp, rsp
	.cfi_def_cfa_register 6
	mov	QWORD PTR -8[rbp], rdi
	mov	QWORD PTR -16[rbp], rsi
	mov	rax, QWORD PTR -16[rbp]
	mov	rdx, QWORD PTR [rax]
	mov	rax, QWORD PTR -8[rbp]
	mov	QWORD PTR [rax], rdx
	nop
	pop	rbp
	.cfi_def_cfa 7, 8
	ret
	.cfi_endproc
.LFE11295:
	.size	_ZNSt23_Rb_tree_const_iteratorIiEC2ERKSt17_Rb_tree_iteratorIiE, .-_ZNSt23_Rb_tree_const_iteratorIiEC2ERKSt17_Rb_tree_iteratorIiE
	.weak	_ZNSt23_Rb_tree_const_iteratorIiEC1ERKSt17_Rb_tree_iteratorIiE
	.set	_ZNSt23_Rb_tree_const_iteratorIiEC1ERKSt17_Rb_tree_iteratorIiE,_ZNSt23_Rb_tree_const_iteratorIiEC2ERKSt17_Rb_tree_iteratorIiE
	.section	.text._ZNSt16allocator_traitsISaIiEE8max_sizeERKS0_,"axG",@progbits,_ZNSt16allocator_traitsISaIiEE8max_sizeERKS0_,comdat
	.weak	_ZNSt16allocator_traitsISaIiEE8max_sizeERKS0_
	.type	_ZNSt16allocator_traitsISaIiEE8max_sizeERKS0_, @function
_ZNSt16allocator_traitsISaIiEE8max_sizeERKS0_:
.LFB11433:
	.cfi_startproc
	endbr64
	push	rbp
	.cfi_def_cfa_offset 16
	.cfi_offset 6, -16
	mov	rbp, rsp
	.cfi_def_cfa_register 6
	sub	rsp, 16
	mov	QWORD PTR -8[rbp], rdi
	mov	rax, QWORD PTR -8[rbp]
	mov	rdi, rax
	call	_ZNK9__gnu_cxx13new_allocatorIiE8max_sizeEv
	leave
	.cfi_def_cfa 7, 8
	ret
	.cfi_endproc
.LFE11433:
	.size	_ZNSt16allocator_traitsISaIiEE8max_sizeERKS0_, .-_ZNSt16allocator_traitsISaIiEE8max_sizeERKS0_
	.section	.text._ZN9__gnu_cxx13new_allocatorIiEC2ERKS1_,"axG",@progbits,_ZN9__gnu_cxx13new_allocatorIiEC5ERKS1_,comdat
	.align 2
	.weak	_ZN9__gnu_cxx13new_allocatorIiEC2ERKS1_
	.type	_ZN9__gnu_cxx13new_allocatorIiEC2ERKS1_, @function
_ZN9__gnu_cxx13new_allocatorIiEC2ERKS1_:
.LFB11435:
	.cfi_startproc
	endbr64
	push	rbp
	.cfi_def_cfa_offset 16
	.cfi_offset 6, -16
	mov	rbp, rsp
	.cfi_def_cfa_register 6
	mov	QWORD PTR -8[rbp], rdi
	mov	QWORD PTR -16[rbp], rsi
	nop
	pop	rbp
	.cfi_def_cfa 7, 8
	ret
	.cfi_endproc
.LFE11435:
	.size	_ZN9__gnu_cxx13new_allocatorIiEC2ERKS1_, .-_ZN9__gnu_cxx13new_allocatorIiEC2ERKS1_
	.weak	_ZN9__gnu_cxx13new_allocatorIiEC1ERKS1_
	.set	_ZN9__gnu_cxx13new_allocatorIiEC1ERKS1_,_ZN9__gnu_cxx13new_allocatorIiEC2ERKS1_
	.section	.text._ZNSt12_Vector_baseIiSaIiEE17_Vector_impl_dataC2Ev,"axG",@progbits,_ZNSt12_Vector_baseIiSaIiEE17_Vector_impl_dataC5Ev,comdat
	.align 2
	.weak	_ZNSt12_Vector_baseIiSaIiEE17_Vector_impl_dataC2Ev
	.type	_ZNSt12_Vector_baseIiSaIiEE17_Vector_impl_dataC2Ev, @function
_ZNSt12_Vector_baseIiSaIiEE17_Vector_impl_dataC2Ev:
.LFB11438:
	.cfi_startproc
	endbr64
	push	rbp
	.cfi_def_cfa_offset 16
	.cfi_offset 6, -16
	mov	rbp, rsp
	.cfi_def_cfa_register 6
	mov	QWORD PTR -8[rbp], rdi
	mov	rax, QWORD PTR -8[rbp]
	mov	QWORD PTR [rax], 0
	mov	rax, QWORD PTR -8[rbp]
	mov	QWORD PTR 8[rax], 0
	mov	rax, QWORD PTR -8[rbp]
	mov	QWORD PTR 16[rax], 0
	nop
	pop	rbp
	.cfi_def_cfa 7, 8
	ret
	.cfi_endproc
.LFE11438:
	.size	_ZNSt12_Vector_baseIiSaIiEE17_Vector_impl_dataC2Ev, .-_ZNSt12_Vector_baseIiSaIiEE17_Vector_impl_dataC2Ev
	.weak	_ZNSt12_Vector_baseIiSaIiEE17_Vector_impl_dataC1Ev
	.set	_ZNSt12_Vector_baseIiSaIiEE17_Vector_impl_dataC1Ev,_ZNSt12_Vector_baseIiSaIiEE17_Vector_impl_dataC2Ev
	.section	.text._ZNSt12_Vector_baseIiSaIiEE11_M_allocateEm,"axG",@progbits,_ZNSt12_Vector_baseIiSaIiEE11_M_allocateEm,comdat
	.align 2
	.weak	_ZNSt12_Vector_baseIiSaIiEE11_M_allocateEm
	.type	_ZNSt12_Vector_baseIiSaIiEE11_M_allocateEm, @function
_ZNSt12_Vector_baseIiSaIiEE11_M_allocateEm:
.LFB11440:
	.cfi_startproc
	endbr64
	push	rbp
	.cfi_def_cfa_offset 16
	.cfi_offset 6, -16
	mov	rbp, rsp
	.cfi_def_cfa_register 6
	sub	rsp, 16
	mov	QWORD PTR -8[rbp], rdi
	mov	QWORD PTR -16[rbp], rsi
	cmp	QWORD PTR -16[rbp], 0
	je	.L363
	mov	rax, QWORD PTR -8[rbp]
	mov	rdx, QWORD PTR -16[rbp]
	mov	rsi, rdx
	mov	rdi, rax
	call	_ZNSt16allocator_traitsISaIiEE8allocateERS0_m
	jmp	.L365
.L363:
	mov	eax, 0
.L365:
	leave
	.cfi_def_cfa 7, 8
	ret
	.cfi_endproc
.LFE11440:
	.size	_ZNSt12_Vector_baseIiSaIiEE11_M_allocateEm, .-_ZNSt12_Vector_baseIiSaIiEE11_M_allocateEm
	.section	.text._ZNSt16allocator_traitsISaIiEE10deallocateERS0_Pim,"axG",@progbits,_ZNSt16allocator_traitsISaIiEE10deallocateERS0_Pim,comdat
	.weak	_ZNSt16allocator_traitsISaIiEE10deallocateERS0_Pim
	.type	_ZNSt16allocator_traitsISaIiEE10deallocateERS0_Pim, @function
_ZNSt16allocator_traitsISaIiEE10deallocateERS0_Pim:
.LFB11441:
	.cfi_startproc
	endbr64
	push	rbp
	.cfi_def_cfa_offset 16
	.cfi_offset 6, -16
	mov	rbp, rsp
	.cfi_def_cfa_register 6
	sub	rsp, 32
	mov	QWORD PTR -8[rbp], rdi
	mov	QWORD PTR -16[rbp], rsi
	mov	QWORD PTR -24[rbp], rdx
	mov	rdx, QWORD PTR -24[rbp]
	mov	rcx, QWORD PTR -16[rbp]
	mov	rax, QWORD PTR -8[rbp]
	mov	rsi, rcx
	mov	rdi, rax
	call	_ZN9__gnu_cxx13new_allocatorIiE10deallocateEPim
	nop
	leave
	.cfi_def_cfa 7, 8
	ret
	.cfi_endproc
.LFE11441:
	.size	_ZNSt16allocator_traitsISaIiEE10deallocateERS0_Pim, .-_ZNSt16allocator_traitsISaIiEE10deallocateERS0_Pim
	.section	.text._ZSt25__uninitialized_default_nIPimET_S1_T0_,"axG",@progbits,_ZSt25__uninitialized_default_nIPimET_S1_T0_,comdat
	.weak	_ZSt25__uninitialized_default_nIPimET_S1_T0_
	.type	_ZSt25__uninitialized_default_nIPimET_S1_T0_, @function
_ZSt25__uninitialized_default_nIPimET_S1_T0_:
.LFB11442:
	.cfi_startproc
	endbr64
	push	rbp
	.cfi_def_cfa_offset 16
	.cfi_offset 6, -16
	mov	rbp, rsp
	.cfi_def_cfa_register 6
	sub	rsp, 32
	mov	QWORD PTR -24[rbp], rdi
	mov	QWORD PTR -32[rbp], rsi
	mov	BYTE PTR -1[rbp], 1
	mov	rdx, QWORD PTR -32[rbp]
	mov	rax, QWORD PTR -24[rbp]
	mov	rsi, rdx
	mov	rdi, rax
	call	_ZNSt27__uninitialized_default_n_1ILb1EE18__uninit_default_nIPimEET_S3_T0_
	leave
	.cfi_def_cfa 7, 8
	ret
	.cfi_endproc
.LFE11442:
	.size	_ZSt25__uninitialized_default_nIPimET_S1_T0_, .-_ZSt25__uninitialized_default_nIPimET_S1_T0_
	.section	.text._ZNSt12_Destroy_auxILb1EE9__destroyIPiEEvT_S3_,"axG",@progbits,_ZNSt12_Destroy_auxILb1EE9__destroyIPiEEvT_S3_,comdat
	.weak	_ZNSt12_Destroy_auxILb1EE9__destroyIPiEEvT_S3_
	.type	_ZNSt12_Destroy_auxILb1EE9__destroyIPiEEvT_S3_, @function
_ZNSt12_Destroy_auxILb1EE9__destroyIPiEEvT_S3_:
.LFB11443:
	.cfi_startproc
	endbr64
	push	rbp
	.cfi_def_cfa_offset 16
	.cfi_offset 6, -16
	mov	rbp, rsp
	.cfi_def_cfa_register 6
	mov	QWORD PTR -8[rbp], rdi
	mov	QWORD PTR -16[rbp], rsi
	nop
	pop	rbp
	.cfi_def_cfa 7, 8
	ret
	.cfi_endproc
.LFE11443:
	.size	_ZNSt12_Destroy_auxILb1EE9__destroyIPiEEvT_S3_, .-_ZNSt12_Destroy_auxILb1EE9__destroyIPiEEvT_S3_
	.section	.text._ZNSt8_Rb_treeIcSt4pairIKcSt3setIiSt4lessIiESaIiEEESt10_Select1stIS7_ES3_IcESaIS7_EE15_M_destroy_nodeEPSt13_Rb_tree_nodeIS7_E,"axG",@progbits,_ZNSt8_Rb_treeIcSt4pairIKcSt3setIiSt4lessIiESaIiEEESt10_Select1stIS7_ES3_IcESaIS7_EE15_M_destroy_nodeEPSt13_Rb_tree_nodeIS7_E,comdat
	.align 2
	.weak	_ZNSt8_Rb_treeIcSt4pairIKcSt3setIiSt4lessIiESaIiEEESt10_Select1stIS7_ES3_IcESaIS7_EE15_M_destroy_nodeEPSt13_Rb_tree_nodeIS7_E
	.type	_ZNSt8_Rb_treeIcSt4pairIKcSt3setIiSt4lessIiESaIiEEESt10_Select1stIS7_ES3_IcESaIS7_EE15_M_destroy_nodeEPSt13_Rb_tree_nodeIS7_E, @function
_ZNSt8_Rb_treeIcSt4pairIKcSt3setIiSt4lessIiESaIiEEESt10_Select1stIS7_ES3_IcESaIS7_EE15_M_destroy_nodeEPSt13_Rb_tree_nodeIS7_E:
.LFB11444:
	.cfi_startproc
	endbr64
	push	rbp
	.cfi_def_cfa_offset 16
	.cfi_offset 6, -16
	mov	rbp, rsp
	.cfi_def_cfa_register 6
	push	rbx
	sub	rsp, 24
	.cfi_offset 3, -24
	mov	QWORD PTR -24[rbp], rdi
	mov	QWORD PTR -32[rbp], rsi
	mov	rax, QWORD PTR -32[rbp]
	mov	rdi, rax
	call	_ZNSt13_Rb_tree_nodeISt4pairIKcSt3setIiSt4lessIiESaIiEEEE9_M_valptrEv
	mov	rbx, rax
	mov	rax, QWORD PTR -24[rbp]
	mov	rdi, rax
	call	_ZNSt8_Rb_treeIcSt4pairIKcSt3setIiSt4lessIiESaIiEEESt10_Select1stIS7_ES3_IcESaIS7_EE21_M_get_Node_allocatorEv
	mov	rsi, rbx
	mov	rdi, rax
	call	_ZNSt16allocator_traitsISaISt13_Rb_tree_nodeISt4pairIKcSt3setIiSt4lessIiESaIiEEEEEE7destroyIS8_EEvRSA_PT_
	nop
	mov	rbx, QWORD PTR -8[rbp]
	leave
	.cfi_def_cfa 7, 8
	ret
	.cfi_endproc
.LFE11444:
	.size	_ZNSt8_Rb_treeIcSt4pairIKcSt3setIiSt4lessIiESaIiEEESt10_Select1stIS7_ES3_IcESaIS7_EE15_M_destroy_nodeEPSt13_Rb_tree_nodeIS7_E, .-_ZNSt8_Rb_treeIcSt4pairIKcSt3setIiSt4lessIiESaIiEEESt10_Select1stIS7_ES3_IcESaIS7_EE15_M_destroy_nodeEPSt13_Rb_tree_nodeIS7_E
	.section	.text._ZNSt8_Rb_treeIcSt4pairIKcSt3setIiSt4lessIiESaIiEEESt10_Select1stIS7_ES3_IcESaIS7_EE11_M_put_nodeEPSt13_Rb_tree_nodeIS7_E,"axG",@progbits,_ZNSt8_Rb_treeIcSt4pairIKcSt3setIiSt4lessIiESaIiEEESt10_Select1stIS7_ES3_IcESaIS7_EE11_M_put_nodeEPSt13_Rb_tree_nodeIS7_E,comdat
	.align 2
	.weak	_ZNSt8_Rb_treeIcSt4pairIKcSt3setIiSt4lessIiESaIiEEESt10_Select1stIS7_ES3_IcESaIS7_EE11_M_put_nodeEPSt13_Rb_tree_nodeIS7_E
	.type	_ZNSt8_Rb_treeIcSt4pairIKcSt3setIiSt4lessIiESaIiEEESt10_Select1stIS7_ES3_IcESaIS7_EE11_M_put_nodeEPSt13_Rb_tree_nodeIS7_E, @function
_ZNSt8_Rb_treeIcSt4pairIKcSt3setIiSt4lessIiESaIiEEESt10_Select1stIS7_ES3_IcESaIS7_EE11_M_put_nodeEPSt13_Rb_tree_nodeIS7_E:
.LFB11446:
	.cfi_startproc
	.cfi_personality 0x9b,DW.ref.__gxx_personality_v0
	.cfi_lsda 0x1b,.LLSDA11446
	endbr64
	push	rbp
	.cfi_def_cfa_offset 16
	.cfi_offset 6, -16
	mov	rbp, rsp
	.cfi_def_cfa_register 6
	sub	rsp, 16
	mov	QWORD PTR -8[rbp], rdi
	mov	QWORD PTR -16[rbp], rsi
	mov	rax, QWORD PTR -8[rbp]
	mov	rdi, rax
	call	_ZNSt8_Rb_treeIcSt4pairIKcSt3setIiSt4lessIiESaIiEEESt10_Select1stIS7_ES3_IcESaIS7_EE21_M_get_Node_allocatorEv
	mov	rcx, rax
	mov	rax, QWORD PTR -16[rbp]
	mov	edx, 1
	mov	rsi, rax
	mov	rdi, rcx
	call	_ZNSt16allocator_traitsISaISt13_Rb_tree_nodeISt4pairIKcSt3setIiSt4lessIiESaIiEEEEEE10deallocateERSA_PS9_m
	nop
	leave
	.cfi_def_cfa 7, 8
	ret
	.cfi_endproc
.LFE11446:
	.section	.gcc_except_table
.LLSDA11446:
	.byte	0xff
	.byte	0xff
	.byte	0x1
	.uleb128 .LLSDACSE11446-.LLSDACSB11446
.LLSDACSB11446:
.LLSDACSE11446:
	.section	.text._ZNSt8_Rb_treeIcSt4pairIKcSt3setIiSt4lessIiESaIiEEESt10_Select1stIS7_ES3_IcESaIS7_EE11_M_put_nodeEPSt13_Rb_tree_nodeIS7_E,"axG",@progbits,_ZNSt8_Rb_treeIcSt4pairIKcSt3setIiSt4lessIiESaIiEEESt10_Select1stIS7_ES3_IcESaIS7_EE11_M_put_nodeEPSt13_Rb_tree_nodeIS7_E,comdat
	.size	_ZNSt8_Rb_treeIcSt4pairIKcSt3setIiSt4lessIiESaIiEEESt10_Select1stIS7_ES3_IcESaIS7_EE11_M_put_nodeEPSt13_Rb_tree_nodeIS7_E, .-_ZNSt8_Rb_treeIcSt4pairIKcSt3setIiSt4lessIiESaIiEEESt10_Select1stIS7_ES3_IcESaIS7_EE11_M_put_nodeEPSt13_Rb_tree_nodeIS7_E
	.section	.text._ZNSt8_Rb_treeIiSt4pairIKiSt3setIcSt4lessIcESaIcEEESt10_Select1stIS7_ES3_IiESaIS7_EE15_M_destroy_nodeEPSt13_Rb_tree_nodeIS7_E,"axG",@progbits,_ZNSt8_Rb_treeIiSt4pairIKiSt3setIcSt4lessIcESaIcEEESt10_Select1stIS7_ES3_IiESaIS7_EE15_M_destroy_nodeEPSt13_Rb_tree_nodeIS7_E,comdat
	.align 2
	.weak	_ZNSt8_Rb_treeIiSt4pairIKiSt3setIcSt4lessIcESaIcEEESt10_Select1stIS7_ES3_IiESaIS7_EE15_M_destroy_nodeEPSt13_Rb_tree_nodeIS7_E
	.type	_ZNSt8_Rb_treeIiSt4pairIKiSt3setIcSt4lessIcESaIcEEESt10_Select1stIS7_ES3_IiESaIS7_EE15_M_destroy_nodeEPSt13_Rb_tree_nodeIS7_E, @function
_ZNSt8_Rb_treeIiSt4pairIKiSt3setIcSt4lessIcESaIcEEESt10_Select1stIS7_ES3_IiESaIS7_EE15_M_destroy_nodeEPSt13_Rb_tree_nodeIS7_E:
.LFB11447:
	.cfi_startproc
	endbr64
	push	rbp
	.cfi_def_cfa_offset 16
	.cfi_offset 6, -16
	mov	rbp, rsp
	.cfi_def_cfa_register 6
	push	rbx
	sub	rsp, 24
	.cfi_offset 3, -24
	mov	QWORD PTR -24[rbp], rdi
	mov	QWORD PTR -32[rbp], rsi
	mov	rax, QWORD PTR -32[rbp]
	mov	rdi, rax
	call	_ZNSt13_Rb_tree_nodeISt4pairIKiSt3setIcSt4lessIcESaIcEEEE9_M_valptrEv
	mov	rbx, rax
	mov	rax, QWORD PTR -24[rbp]
	mov	rdi, rax
	call	_ZNSt8_Rb_treeIiSt4pairIKiSt3setIcSt4lessIcESaIcEEESt10_Select1stIS7_ES3_IiESaIS7_EE21_M_get_Node_allocatorEv
	mov	rsi, rbx
	mov	rdi, rax
	call	_ZNSt16allocator_traitsISaISt13_Rb_tree_nodeISt4pairIKiSt3setIcSt4lessIcESaIcEEEEEE7destroyIS8_EEvRSA_PT_
	nop
	mov	rbx, QWORD PTR -8[rbp]
	leave
	.cfi_def_cfa 7, 8
	ret
	.cfi_endproc
.LFE11447:
	.size	_ZNSt8_Rb_treeIiSt4pairIKiSt3setIcSt4lessIcESaIcEEESt10_Select1stIS7_ES3_IiESaIS7_EE15_M_destroy_nodeEPSt13_Rb_tree_nodeIS7_E, .-_ZNSt8_Rb_treeIiSt4pairIKiSt3setIcSt4lessIcESaIcEEESt10_Select1stIS7_ES3_IiESaIS7_EE15_M_destroy_nodeEPSt13_Rb_tree_nodeIS7_E
	.section	.text._ZNSt8_Rb_treeIiSt4pairIKiSt3setIcSt4lessIcESaIcEEESt10_Select1stIS7_ES3_IiESaIS7_EE11_M_put_nodeEPSt13_Rb_tree_nodeIS7_E,"axG",@progbits,_ZNSt8_Rb_treeIiSt4pairIKiSt3setIcSt4lessIcESaIcEEESt10_Select1stIS7_ES3_IiESaIS7_EE11_M_put_nodeEPSt13_Rb_tree_nodeIS7_E,comdat
	.align 2
	.weak	_ZNSt8_Rb_treeIiSt4pairIKiSt3setIcSt4lessIcESaIcEEESt10_Select1stIS7_ES3_IiESaIS7_EE11_M_put_nodeEPSt13_Rb_tree_nodeIS7_E
	.type	_ZNSt8_Rb_treeIiSt4pairIKiSt3setIcSt4lessIcESaIcEEESt10_Select1stIS7_ES3_IiESaIS7_EE11_M_put_nodeEPSt13_Rb_tree_nodeIS7_E, @function
_ZNSt8_Rb_treeIiSt4pairIKiSt3setIcSt4lessIcESaIcEEESt10_Select1stIS7_ES3_IiESaIS7_EE11_M_put_nodeEPSt13_Rb_tree_nodeIS7_E:
.LFB11449:
	.cfi_startproc
	.cfi_personality 0x9b,DW.ref.__gxx_personality_v0
	.cfi_lsda 0x1b,.LLSDA11449
	endbr64
	push	rbp
	.cfi_def_cfa_offset 16
	.cfi_offset 6, -16
	mov	rbp, rsp
	.cfi_def_cfa_register 6
	sub	rsp, 16
	mov	QWORD PTR -8[rbp], rdi
	mov	QWORD PTR -16[rbp], rsi
	mov	rax, QWORD PTR -8[rbp]
	mov	rdi, rax
	call	_ZNSt8_Rb_treeIiSt4pairIKiSt3setIcSt4lessIcESaIcEEESt10_Select1stIS7_ES3_IiESaIS7_EE21_M_get_Node_allocatorEv
	mov	rcx, rax
	mov	rax, QWORD PTR -16[rbp]
	mov	edx, 1
	mov	rsi, rax
	mov	rdi, rcx
	call	_ZNSt16allocator_traitsISaISt13_Rb_tree_nodeISt4pairIKiSt3setIcSt4lessIcESaIcEEEEEE10deallocateERSA_PS9_m
	nop
	leave
	.cfi_def_cfa 7, 8
	ret
	.cfi_endproc
.LFE11449:
	.section	.gcc_except_table
.LLSDA11449:
	.byte	0xff
	.byte	0xff
	.byte	0x1
	.uleb128 .LLSDACSE11449-.LLSDACSB11449
.LLSDACSB11449:
.LLSDACSE11449:
	.section	.text._ZNSt8_Rb_treeIiSt4pairIKiSt3setIcSt4lessIcESaIcEEESt10_Select1stIS7_ES3_IiESaIS7_EE11_M_put_nodeEPSt13_Rb_tree_nodeIS7_E,"axG",@progbits,_ZNSt8_Rb_treeIiSt4pairIKiSt3setIcSt4lessIcESaIcEEESt10_Select1stIS7_ES3_IiESaIS7_EE11_M_put_nodeEPSt13_Rb_tree_nodeIS7_E,comdat
	.size	_ZNSt8_Rb_treeIiSt4pairIKiSt3setIcSt4lessIcESaIcEEESt10_Select1stIS7_ES3_IiESaIS7_EE11_M_put_nodeEPSt13_Rb_tree_nodeIS7_E, .-_ZNSt8_Rb_treeIiSt4pairIKiSt3setIcSt4lessIcESaIcEEESt10_Select1stIS7_ES3_IiESaIS7_EE11_M_put_nodeEPSt13_Rb_tree_nodeIS7_E
	.section	.text._ZNSt8_Rb_treeIiSt4pairIKiSt3setIcSt4lessIcESaIcEEESt10_Select1stIS7_ES3_IiESaIS7_EE6_M_endEv,"axG",@progbits,_ZNSt8_Rb_treeIiSt4pairIKiSt3setIcSt4lessIcESaIcEEESt10_Select1stIS7_ES3_IiESaIS7_EE6_M_endEv,comdat
	.align 2
	.weak	_ZNSt8_Rb_treeIiSt4pairIKiSt3setIcSt4lessIcESaIcEEESt10_Select1stIS7_ES3_IiESaIS7_EE6_M_endEv
	.type	_ZNSt8_Rb_treeIiSt4pairIKiSt3setIcSt4lessIcESaIcEEESt10_Select1stIS7_ES3_IiESaIS7_EE6_M_endEv, @function
_ZNSt8_Rb_treeIiSt4pairIKiSt3setIcSt4lessIcESaIcEEESt10_Select1stIS7_ES3_IiESaIS7_EE6_M_endEv:
.LFB11450:
	.cfi_startproc
	endbr64
	push	rbp
	.cfi_def_cfa_offset 16
	.cfi_offset 6, -16
	mov	rbp, rsp
	.cfi_def_cfa_register 6
	mov	QWORD PTR -8[rbp], rdi
	mov	rax, QWORD PTR -8[rbp]
	add	rax, 8
	pop	rbp
	.cfi_def_cfa 7, 8
	ret
	.cfi_endproc
.LFE11450:
	.size	_ZNSt8_Rb_treeIiSt4pairIKiSt3setIcSt4lessIcESaIcEEESt10_Select1stIS7_ES3_IiESaIS7_EE6_M_endEv, .-_ZNSt8_Rb_treeIiSt4pairIKiSt3setIcSt4lessIcESaIcEEESt10_Select1stIS7_ES3_IiESaIS7_EE6_M_endEv
	.section	.text._ZNSt8_Rb_treeIiSt4pairIKiSt3setIcSt4lessIcESaIcEEESt10_Select1stIS7_ES3_IiESaIS7_EE14_M_lower_boundEPSt13_Rb_tree_nodeIS7_EPSt18_Rb_tree_node_baseRS1_,"axG",@progbits,_ZNSt8_Rb_treeIiSt4pairIKiSt3setIcSt4lessIcESaIcEEESt10_Select1stIS7_ES3_IiESaIS7_EE14_M_lower_boundEPSt13_Rb_tree_nodeIS7_EPSt18_Rb_tree_node_baseRS1_,comdat
	.align 2
	.weak	_ZNSt8_Rb_treeIiSt4pairIKiSt3setIcSt4lessIcESaIcEEESt10_Select1stIS7_ES3_IiESaIS7_EE14_M_lower_boundEPSt13_Rb_tree_nodeIS7_EPSt18_Rb_tree_node_baseRS1_
	.type	_ZNSt8_Rb_treeIiSt4pairIKiSt3setIcSt4lessIcESaIcEEESt10_Select1stIS7_ES3_IiESaIS7_EE14_M_lower_boundEPSt13_Rb_tree_nodeIS7_EPSt18_Rb_tree_node_baseRS1_, @function
_ZNSt8_Rb_treeIiSt4pairIKiSt3setIcSt4lessIcESaIcEEESt10_Select1stIS7_ES3_IiESaIS7_EE14_M_lower_boundEPSt13_Rb_tree_nodeIS7_EPSt18_Rb_tree_node_baseRS1_:
.LFB11451:
	.cfi_startproc
	endbr64
	push	rbp
	.cfi_def_cfa_offset 16
	.cfi_offset 6, -16
	mov	rbp, rsp
	.cfi_def_cfa_register 6
	push	rbx
	sub	rsp, 56
	.cfi_offset 3, -24
	mov	QWORD PTR -40[rbp], rdi
	mov	QWORD PTR -48[rbp], rsi
	mov	QWORD PTR -56[rbp], rdx
	mov	QWORD PTR -64[rbp], rcx
	mov	rax, QWORD PTR fs:40
	mov	QWORD PTR -24[rbp], rax
	xor	eax, eax
	jmp	.L377
.L379:
	mov	rbx, QWORD PTR -40[rbp]
	mov	rax, QWORD PTR -48[rbp]
	mov	rdi, rax
	call	_ZNSt8_Rb_treeIiSt4pairIKiSt3setIcSt4lessIcESaIcEEESt10_Select1stIS7_ES3_IiESaIS7_EE6_S_keyEPKSt13_Rb_tree_nodeIS7_E
	mov	rcx, rax
	mov	rax, QWORD PTR -64[rbp]
	mov	rdx, rax
	mov	rsi, rcx
	mov	rdi, rbx
	call	_ZNKSt4lessIiEclERKiS2_
	xor	eax, 1
	test	al, al
	je	.L378
	mov	rax, QWORD PTR -48[rbp]
	mov	QWORD PTR -56[rbp], rax
	mov	rax, QWORD PTR -48[rbp]
	mov	rdi, rax
	call	_ZNSt8_Rb_treeIiSt4pairIKiSt3setIcSt4lessIcESaIcEEESt10_Select1stIS7_ES3_IiESaIS7_EE7_S_leftEPSt18_Rb_tree_node_base
	mov	QWORD PTR -48[rbp], rax
	jmp	.L377
.L378:
	mov	rax, QWORD PTR -48[rbp]
	mov	rdi, rax
	call	_ZNSt8_Rb_treeIiSt4pairIKiSt3setIcSt4lessIcESaIcEEESt10_Select1stIS7_ES3_IiESaIS7_EE8_S_rightEPSt18_Rb_tree_node_base
	mov	QWORD PTR -48[rbp], rax
.L377:
	cmp	QWORD PTR -48[rbp], 0
	jne	.L379
	mov	rdx, QWORD PTR -56[rbp]
	lea	rax, -32[rbp]
	mov	rsi, rdx
	mov	rdi, rax
	call	_ZNSt17_Rb_tree_iteratorISt4pairIKiSt3setIcSt4lessIcESaIcEEEEC1EPSt18_Rb_tree_node_base
	mov	rax, QWORD PTR -32[rbp]
	mov	rdx, QWORD PTR -24[rbp]
	sub	rdx, QWORD PTR fs:40
	je	.L381
	call	__stack_chk_fail@PLT
.L381:
	mov	rbx, QWORD PTR -8[rbp]
	leave
	.cfi_def_cfa 7, 8
	ret
	.cfi_endproc
.LFE11451:
	.size	_ZNSt8_Rb_treeIiSt4pairIKiSt3setIcSt4lessIcESaIcEEESt10_Select1stIS7_ES3_IiESaIS7_EE14_M_lower_boundEPSt13_Rb_tree_nodeIS7_EPSt18_Rb_tree_node_baseRS1_, .-_ZNSt8_Rb_treeIiSt4pairIKiSt3setIcSt4lessIcESaIcEEESt10_Select1stIS7_ES3_IiESaIS7_EE14_M_lower_boundEPSt13_Rb_tree_nodeIS7_EPSt18_Rb_tree_node_baseRS1_
	.section	.text._ZN9__gnu_cxx16__aligned_membufISt4pairIKiSt3setIcSt4lessIcESaIcEEEE6_M_ptrEv,"axG",@progbits,_ZN9__gnu_cxx16__aligned_membufISt4pairIKiSt3setIcSt4lessIcESaIcEEEE6_M_ptrEv,comdat
	.align 2
	.weak	_ZN9__gnu_cxx16__aligned_membufISt4pairIKiSt3setIcSt4lessIcESaIcEEEE6_M_ptrEv
	.type	_ZN9__gnu_cxx16__aligned_membufISt4pairIKiSt3setIcSt4lessIcESaIcEEEE6_M_ptrEv, @function
_ZN9__gnu_cxx16__aligned_membufISt4pairIKiSt3setIcSt4lessIcESaIcEEEE6_M_ptrEv:
.LFB11452:
	.cfi_startproc
	endbr64
	push	rbp
	.cfi_def_cfa_offset 16
	.cfi_offset 6, -16
	mov	rbp, rsp
	.cfi_def_cfa_register 6
	sub	rsp, 16
	mov	QWORD PTR -8[rbp], rdi
	mov	rax, QWORD PTR -8[rbp]
	mov	rdi, rax
	call	_ZN9__gnu_cxx16__aligned_membufISt4pairIKiSt3setIcSt4lessIcESaIcEEEE7_M_addrEv
	leave
	.cfi_def_cfa 7, 8
	ret
	.cfi_endproc
.LFE11452:
	.size	_ZN9__gnu_cxx16__aligned_membufISt4pairIKiSt3setIcSt4lessIcESaIcEEEE6_M_ptrEv, .-_ZN9__gnu_cxx16__aligned_membufISt4pairIKiSt3setIcSt4lessIcESaIcEEEE6_M_ptrEv
	.section	.text._ZNSt10_Head_baseILm0ERKiLb0EEC2ES1_,"axG",@progbits,_ZNSt10_Head_baseILm0ERKiLb0EEC5ES1_,comdat
	.align 2
	.weak	_ZNSt10_Head_baseILm0ERKiLb0EEC2ES1_
	.type	_ZNSt10_Head_baseILm0ERKiLb0EEC2ES1_, @function
_ZNSt10_Head_baseILm0ERKiLb0EEC2ES1_:
.LFB11454:
	.cfi_startproc
	endbr64
	push	rbp
	.cfi_def_cfa_offset 16
	.cfi_offset 6, -16
	mov	rbp, rsp
	.cfi_def_cfa_register 6
	mov	QWORD PTR -8[rbp], rdi
	mov	QWORD PTR -16[rbp], rsi
	mov	rax, QWORD PTR -8[rbp]
	mov	rdx, QWORD PTR -16[rbp]
	mov	QWORD PTR [rax], rdx
	nop
	pop	rbp
	.cfi_def_cfa 7, 8
	ret
	.cfi_endproc
.LFE11454:
	.size	_ZNSt10_Head_baseILm0ERKiLb0EEC2ES1_, .-_ZNSt10_Head_baseILm0ERKiLb0EEC2ES1_
	.weak	_ZNSt10_Head_baseILm0ERKiLb0EEC1ES1_
	.set	_ZNSt10_Head_baseILm0ERKiLb0EEC1ES1_,_ZNSt10_Head_baseILm0ERKiLb0EEC2ES1_
	.section	.text._ZNSt8_Rb_treeIiSt4pairIKiSt3setIcSt4lessIcESaIcEEESt10_Select1stIS7_ES3_IiESaIS7_EE11_M_get_nodeEv,"axG",@progbits,_ZNSt8_Rb_treeIiSt4pairIKiSt3setIcSt4lessIcESaIcEEESt10_Select1stIS7_ES3_IiESaIS7_EE11_M_get_nodeEv,comdat
	.align 2
	.weak	_ZNSt8_Rb_treeIiSt4pairIKiSt3setIcSt4lessIcESaIcEEESt10_Select1stIS7_ES3_IiESaIS7_EE11_M_get_nodeEv
	.type	_ZNSt8_Rb_treeIiSt4pairIKiSt3setIcSt4lessIcESaIcEEESt10_Select1stIS7_ES3_IiESaIS7_EE11_M_get_nodeEv, @function
_ZNSt8_Rb_treeIiSt4pairIKiSt3setIcSt4lessIcESaIcEEESt10_Select1stIS7_ES3_IiESaIS7_EE11_M_get_nodeEv:
.LFB11456:
	.cfi_startproc
	endbr64
	push	rbp
	.cfi_def_cfa_offset 16
	.cfi_offset 6, -16
	mov	rbp, rsp
	.cfi_def_cfa_register 6
	sub	rsp, 16
	mov	QWORD PTR -8[rbp], rdi
	mov	rax, QWORD PTR -8[rbp]
	mov	rdi, rax
	call	_ZNSt8_Rb_treeIiSt4pairIKiSt3setIcSt4lessIcESaIcEEESt10_Select1stIS7_ES3_IiESaIS7_EE21_M_get_Node_allocatorEv
	mov	esi, 1
	mov	rdi, rax
	call	_ZNSt16allocator_traitsISaISt13_Rb_tree_nodeISt4pairIKiSt3setIcSt4lessIcESaIcEEEEEE8allocateERSA_m
	leave
	.cfi_def_cfa 7, 8
	ret
	.cfi_endproc
.LFE11456:
	.size	_ZNSt8_Rb_treeIiSt4pairIKiSt3setIcSt4lessIcESaIcEEESt10_Select1stIS7_ES3_IiESaIS7_EE11_M_get_nodeEv, .-_ZNSt8_Rb_treeIiSt4pairIKiSt3setIcSt4lessIcESaIcEEESt10_Select1stIS7_ES3_IiESaIS7_EE11_M_get_nodeEv
	.section	.text._ZNSt8_Rb_treeIiSt4pairIKiSt3setIcSt4lessIcESaIcEEESt10_Select1stIS7_ES3_IiESaIS7_EE17_M_construct_nodeIJRKSt21piecewise_construct_tSt5tupleIJRS1_EESH_IJEEEEEvPSt13_Rb_tree_nodeIS7_EDpOT_,"axG",@progbits,_ZNSt8_Rb_treeIiSt4pairIKiSt3setIcSt4lessIcESaIcEEESt10_Select1stIS7_ES3_IiESaIS7_EE17_M_construct_nodeIJRKSt21piecewise_construct_tSt5tupleIJRS1_EESH_IJEEEEEvPSt13_Rb_tree_nodeIS7_EDpOT_,comdat
	.align 2
	.weak	_ZNSt8_Rb_treeIiSt4pairIKiSt3setIcSt4lessIcESaIcEEESt10_Select1stIS7_ES3_IiESaIS7_EE17_M_construct_nodeIJRKSt21piecewise_construct_tSt5tupleIJRS1_EESH_IJEEEEEvPSt13_Rb_tree_nodeIS7_EDpOT_
	.type	_ZNSt8_Rb_treeIiSt4pairIKiSt3setIcSt4lessIcESaIcEEESt10_Select1stIS7_ES3_IiESaIS7_EE17_M_construct_nodeIJRKSt21piecewise_construct_tSt5tupleIJRS1_EESH_IJEEEEEvPSt13_Rb_tree_nodeIS7_EDpOT_, @function
_ZNSt8_Rb_treeIiSt4pairIKiSt3setIcSt4lessIcESaIcEEESt10_Select1stIS7_ES3_IiESaIS7_EE17_M_construct_nodeIJRKSt21piecewise_construct_tSt5tupleIJRS1_EESH_IJEEEEEvPSt13_Rb_tree_nodeIS7_EDpOT_:
.LFB11457:
	.cfi_startproc
	.cfi_personality 0x9b,DW.ref.__gxx_personality_v0
	.cfi_lsda 0x1b,.LLSDA11457
	endbr64
	push	rbp
	.cfi_def_cfa_offset 16
	.cfi_offset 6, -16
	mov	rbp, rsp
	.cfi_def_cfa_register 6
	push	r14
	push	r13
	push	r12
	push	rbx
	sub	rsp, 48
	.cfi_offset 14, -24
	.cfi_offset 13, -32
	.cfi_offset 12, -40
	.cfi_offset 3, -48
	mov	QWORD PTR -40[rbp], rdi
	mov	QWORD PTR -48[rbp], rsi
	mov	QWORD PTR -56[rbp], rdx
	mov	QWORD PTR -64[rbp], rcx
	mov	QWORD PTR -72[rbp], r8
	mov	rax, QWORD PTR -48[rbp]
	mov	rsi, rax
	mov	edi, 88
	call	_ZnwmPv
	mov	rax, QWORD PTR -72[rbp]
	mov	rdi, rax
	call	_ZSt7forwardISt5tupleIJEEEOT_RNSt16remove_referenceIS2_E4typeE
	mov	r14, rax
	mov	rax, QWORD PTR -64[rbp]
	mov	rdi, rax
	call	_ZSt7forwardISt5tupleIJRKiEEEOT_RNSt16remove_referenceIS4_E4typeE
	mov	r13, rax
	mov	rax, QWORD PTR -56[rbp]
	mov	rdi, rax
	call	_ZSt7forwardIRKSt21piecewise_construct_tEOT_RNSt16remove_referenceIS3_E4typeE
	mov	r12, rax
	mov	rax, QWORD PTR -48[rbp]
	mov	rdi, rax
	call	_ZNSt13_Rb_tree_nodeISt4pairIKiSt3setIcSt4lessIcESaIcEEEE9_M_valptrEv
	mov	rbx, rax
	mov	rax, QWORD PTR -40[rbp]
	mov	rdi, rax
	call	_ZNSt8_Rb_treeIiSt4pairIKiSt3setIcSt4lessIcESaIcEEESt10_Select1stIS7_ES3_IiESaIS7_EE21_M_get_Node_allocatorEv
	mov	r8, r14
	mov	rcx, r13
	mov	rdx, r12
	mov	rsi, rbx
	mov	rdi, rax
.LEHB19:
	call	_ZNSt16allocator_traitsISaISt13_Rb_tree_nodeISt4pairIKiSt3setIcSt4lessIcESaIcEEEEEE9constructIS8_JRKSt21piecewise_construct_tSt5tupleIJRS2_EESG_IJEEEEEvRSA_PT_DpOT0_
.LEHE19:
	jmp	.L392
.L390:
	endbr64
	mov	rdi, rax
	call	__cxa_begin_catch@PLT
	mov	rdx, QWORD PTR -48[rbp]
	mov	rax, QWORD PTR -40[rbp]
	mov	rsi, rdx
	mov	rdi, rax
	call	_ZNSt8_Rb_treeIiSt4pairIKiSt3setIcSt4lessIcESaIcEEESt10_Select1stIS7_ES3_IiESaIS7_EE11_M_put_nodeEPSt13_Rb_tree_nodeIS7_E
.LEHB20:
	call	__cxa_rethrow@PLT
.LEHE20:
.L391:
	endbr64
	mov	rbx, rax
	call	__cxa_end_catch@PLT
	mov	rax, rbx
	mov	rdi, rax
.LEHB21:
	call	_Unwind_Resume@PLT
.LEHE21:
.L392:
	add	rsp, 48
	pop	rbx
	pop	r12
	pop	r13
	pop	r14
	pop	rbp
	.cfi_def_cfa 7, 8
	ret
	.cfi_endproc
.LFE11457:
	.section	.gcc_except_table
	.align 4
.LLSDA11457:
	.byte	0xff
	.byte	0x9b
	.uleb128 .LLSDATT11457-.LLSDATTD11457
.LLSDATTD11457:
	.byte	0x1
	.uleb128 .LLSDACSE11457-.LLSDACSB11457
.LLSDACSB11457:
	.uleb128 .LEHB19-.LFB11457
	.uleb128 .LEHE19-.LEHB19
	.uleb128 .L390-.LFB11457
	.uleb128 0x1
	.uleb128 .LEHB20-.LFB11457
	.uleb128 .LEHE20-.LEHB20
	.uleb128 .L391-.LFB11457
	.uleb128 0
	.uleb128 .LEHB21-.LFB11457
	.uleb128 .LEHE21-.LEHB21
	.uleb128 0
	.uleb128 0
.LLSDACSE11457:
	.byte	0x1
	.byte	0
	.align 4
	.long	0

.LLSDATT11457:
	.section	.text._ZNSt8_Rb_treeIiSt4pairIKiSt3setIcSt4lessIcESaIcEEESt10_Select1stIS7_ES3_IiESaIS7_EE17_M_construct_nodeIJRKSt21piecewise_construct_tSt5tupleIJRS1_EESH_IJEEEEEvPSt13_Rb_tree_nodeIS7_EDpOT_,"axG",@progbits,_ZNSt8_Rb_treeIiSt4pairIKiSt3setIcSt4lessIcESaIcEEESt10_Select1stIS7_ES3_IiESaIS7_EE17_M_construct_nodeIJRKSt21piecewise_construct_tSt5tupleIJRS1_EESH_IJEEEEEvPSt13_Rb_tree_nodeIS7_EDpOT_,comdat
	.size	_ZNSt8_Rb_treeIiSt4pairIKiSt3setIcSt4lessIcESaIcEEESt10_Select1stIS7_ES3_IiESaIS7_EE17_M_construct_nodeIJRKSt21piecewise_construct_tSt5tupleIJRS1_EESH_IJEEEEEvPSt13_Rb_tree_nodeIS7_EDpOT_, .-_ZNSt8_Rb_treeIiSt4pairIKiSt3setIcSt4lessIcESaIcEEESt10_Select1stIS7_ES3_IiESaIS7_EE17_M_construct_nodeIJRKSt21piecewise_construct_tSt5tupleIJRS1_EESH_IJEEEEEvPSt13_Rb_tree_nodeIS7_EDpOT_
	.section	.text._ZNKSt23_Rb_tree_const_iteratorISt4pairIKiSt3setIcSt4lessIcESaIcEEEE13_M_const_castEv,"axG",@progbits,_ZNKSt23_Rb_tree_const_iteratorISt4pairIKiSt3setIcSt4lessIcESaIcEEEE13_M_const_castEv,comdat
	.align 2
	.weak	_ZNKSt23_Rb_tree_const_iteratorISt4pairIKiSt3setIcSt4lessIcESaIcEEEE13_M_const_castEv
	.type	_ZNKSt23_Rb_tree_const_iteratorISt4pairIKiSt3setIcSt4lessIcESaIcEEEE13_M_const_castEv, @function
_ZNKSt23_Rb_tree_const_iteratorISt4pairIKiSt3setIcSt4lessIcESaIcEEEE13_M_const_castEv:
.LFB11458:
	.cfi_startproc
	endbr64
	push	rbp
	.cfi_def_cfa_offset 16
	.cfi_offset 6, -16
	mov	rbp, rsp
	.cfi_def_cfa_register 6
	sub	rsp, 32
	mov	QWORD PTR -24[rbp], rdi
	mov	rax, QWORD PTR fs:40
	mov	QWORD PTR -8[rbp], rax
	xor	eax, eax
	mov	rax, QWORD PTR -24[rbp]
	mov	rdx, QWORD PTR [rax]
	lea	rax, -16[rbp]
	mov	rsi, rdx
	mov	rdi, rax
	call	_ZNSt17_Rb_tree_iteratorISt4pairIKiSt3setIcSt4lessIcESaIcEEEEC1EPSt18_Rb_tree_node_base
	mov	rax, QWORD PTR -16[rbp]
	mov	rdx, QWORD PTR -8[rbp]
	sub	rdx, QWORD PTR fs:40
	je	.L395
	call	__stack_chk_fail@PLT
.L395:
	leave
	.cfi_def_cfa 7, 8
	ret
	.cfi_endproc
.LFE11458:
	.size	_ZNKSt23_Rb_tree_const_iteratorISt4pairIKiSt3setIcSt4lessIcESaIcEEEE13_M_const_castEv, .-_ZNKSt23_Rb_tree_const_iteratorISt4pairIKiSt3setIcSt4lessIcESaIcEEEE13_M_const_castEv
	.section	.text._ZNKSt8_Rb_treeIiSt4pairIKiSt3setIcSt4lessIcESaIcEEESt10_Select1stIS7_ES3_IiESaIS7_EE4sizeEv,"axG",@progbits,_ZNKSt8_Rb_treeIiSt4pairIKiSt3setIcSt4lessIcESaIcEEESt10_Select1stIS7_ES3_IiESaIS7_EE4sizeEv,comdat
	.align 2
	.weak	_ZNKSt8_Rb_treeIiSt4pairIKiSt3setIcSt4lessIcESaIcEEESt10_Select1stIS7_ES3_IiESaIS7_EE4sizeEv
	.type	_ZNKSt8_Rb_treeIiSt4pairIKiSt3setIcSt4lessIcESaIcEEESt10_Select1stIS7_ES3_IiESaIS7_EE4sizeEv, @function
_ZNKSt8_Rb_treeIiSt4pairIKiSt3setIcSt4lessIcESaIcEEESt10_Select1stIS7_ES3_IiESaIS7_EE4sizeEv:
.LFB11459:
	.cfi_startproc
	endbr64
	push	rbp
	.cfi_def_cfa_offset 16
	.cfi_offset 6, -16
	mov	rbp, rsp
	.cfi_def_cfa_register 6
	mov	QWORD PTR -8[rbp], rdi
	mov	rax, QWORD PTR -8[rbp]
	mov	rax, QWORD PTR 40[rax]
	pop	rbp
	.cfi_def_cfa 7, 8
	ret
	.cfi_endproc
.LFE11459:
	.size	_ZNKSt8_Rb_treeIiSt4pairIKiSt3setIcSt4lessIcESaIcEEESt10_Select1stIS7_ES3_IiESaIS7_EE4sizeEv, .-_ZNKSt8_Rb_treeIiSt4pairIKiSt3setIcSt4lessIcESaIcEEESt10_Select1stIS7_ES3_IiESaIS7_EE4sizeEv
	.section	.text._ZNSt8_Rb_treeIiSt4pairIKiSt3setIcSt4lessIcESaIcEEESt10_Select1stIS7_ES3_IiESaIS7_EE12_M_rightmostEv,"axG",@progbits,_ZNSt8_Rb_treeIiSt4pairIKiSt3setIcSt4lessIcESaIcEEESt10_Select1stIS7_ES3_IiESaIS7_EE12_M_rightmostEv,comdat
	.align 2
	.weak	_ZNSt8_Rb_treeIiSt4pairIKiSt3setIcSt4lessIcESaIcEEESt10_Select1stIS7_ES3_IiESaIS7_EE12_M_rightmostEv
	.type	_ZNSt8_Rb_treeIiSt4pairIKiSt3setIcSt4lessIcESaIcEEESt10_Select1stIS7_ES3_IiESaIS7_EE12_M_rightmostEv, @function
_ZNSt8_Rb_treeIiSt4pairIKiSt3setIcSt4lessIcESaIcEEESt10_Select1stIS7_ES3_IiESaIS7_EE12_M_rightmostEv:
.LFB11460:
	.cfi_startproc
	endbr64
	push	rbp
	.cfi_def_cfa_offset 16
	.cfi_offset 6, -16
	mov	rbp, rsp
	.cfi_def_cfa_register 6
	mov	QWORD PTR -8[rbp], rdi
	mov	rax, QWORD PTR -8[rbp]
	add	rax, 32
	pop	rbp
	.cfi_def_cfa 7, 8
	ret
	.cfi_endproc
.LFE11460:
	.size	_ZNSt8_Rb_treeIiSt4pairIKiSt3setIcSt4lessIcESaIcEEESt10_Select1stIS7_ES3_IiESaIS7_EE12_M_rightmostEv, .-_ZNSt8_Rb_treeIiSt4pairIKiSt3setIcSt4lessIcESaIcEEESt10_Select1stIS7_ES3_IiESaIS7_EE12_M_rightmostEv
	.section	.text._ZNSt8_Rb_treeIiSt4pairIKiSt3setIcSt4lessIcESaIcEEESt10_Select1stIS7_ES3_IiESaIS7_EE6_S_keyEPKSt18_Rb_tree_node_base,"axG",@progbits,_ZNSt8_Rb_treeIiSt4pairIKiSt3setIcSt4lessIcESaIcEEESt10_Select1stIS7_ES3_IiESaIS7_EE6_S_keyEPKSt18_Rb_tree_node_base,comdat
	.weak	_ZNSt8_Rb_treeIiSt4pairIKiSt3setIcSt4lessIcESaIcEEESt10_Select1stIS7_ES3_IiESaIS7_EE6_S_keyEPKSt18_Rb_tree_node_base
	.type	_ZNSt8_Rb_treeIiSt4pairIKiSt3setIcSt4lessIcESaIcEEESt10_Select1stIS7_ES3_IiESaIS7_EE6_S_keyEPKSt18_Rb_tree_node_base, @function
_ZNSt8_Rb_treeIiSt4pairIKiSt3setIcSt4lessIcESaIcEEESt10_Select1stIS7_ES3_IiESaIS7_EE6_S_keyEPKSt18_Rb_tree_node_base:
.LFB11461:
	.cfi_startproc
	endbr64
	push	rbp
	.cfi_def_cfa_offset 16
	.cfi_offset 6, -16
	mov	rbp, rsp
	.cfi_def_cfa_register 6
	sub	rsp, 16
	mov	QWORD PTR -8[rbp], rdi
	mov	rax, QWORD PTR -8[rbp]
	mov	rdi, rax
	call	_ZNSt8_Rb_treeIiSt4pairIKiSt3setIcSt4lessIcESaIcEEESt10_Select1stIS7_ES3_IiESaIS7_EE6_S_keyEPKSt13_Rb_tree_nodeIS7_E
	leave
	.cfi_def_cfa 7, 8
	ret
	.cfi_endproc
.LFE11461:
	.size	_ZNSt8_Rb_treeIiSt4pairIKiSt3setIcSt4lessIcESaIcEEESt10_Select1stIS7_ES3_IiESaIS7_EE6_S_keyEPKSt18_Rb_tree_node_base, .-_ZNSt8_Rb_treeIiSt4pairIKiSt3setIcSt4lessIcESaIcEEESt10_Select1stIS7_ES3_IiESaIS7_EE6_S_keyEPKSt18_Rb_tree_node_base
	.section	.text._ZNSt4pairIPSt18_Rb_tree_node_baseS1_EC2IRS1_Lb1EEERKS1_OT_,"axG",@progbits,_ZNSt4pairIPSt18_Rb_tree_node_baseS1_EC5IRS1_Lb1EEERKS1_OT_,comdat
	.align 2
	.weak	_ZNSt4pairIPSt18_Rb_tree_node_baseS1_EC2IRS1_Lb1EEERKS1_OT_
	.type	_ZNSt4pairIPSt18_Rb_tree_node_baseS1_EC2IRS1_Lb1EEERKS1_OT_, @function
_ZNSt4pairIPSt18_Rb_tree_node_baseS1_EC2IRS1_Lb1EEERKS1_OT_:
.LFB11463:
	.cfi_startproc
	endbr64
	push	rbp
	.cfi_def_cfa_offset 16
	.cfi_offset 6, -16
	mov	rbp, rsp
	.cfi_def_cfa_register 6
	sub	rsp, 32
	mov	QWORD PTR -8[rbp], rdi
	mov	QWORD PTR -16[rbp], rsi
	mov	QWORD PTR -24[rbp], rdx
	mov	rax, QWORD PTR -16[rbp]
	mov	rdx, QWORD PTR [rax]
	mov	rax, QWORD PTR -8[rbp]
	mov	QWORD PTR [rax], rdx
	mov	rax, QWORD PTR -24[rbp]
	mov	rdi, rax
	call	_ZSt7forwardIRPSt18_Rb_tree_node_baseEOT_RNSt16remove_referenceIS3_E4typeE
	mov	rdx, QWORD PTR [rax]
	mov	rax, QWORD PTR -8[rbp]
	mov	QWORD PTR 8[rax], rdx
	nop
	leave
	.cfi_def_cfa 7, 8
	ret
	.cfi_endproc
.LFE11463:
	.size	_ZNSt4pairIPSt18_Rb_tree_node_baseS1_EC2IRS1_Lb1EEERKS1_OT_, .-_ZNSt4pairIPSt18_Rb_tree_node_baseS1_EC2IRS1_Lb1EEERKS1_OT_
	.weak	_ZNSt4pairIPSt18_Rb_tree_node_baseS1_EC1IRS1_Lb1EEERKS1_OT_
	.set	_ZNSt4pairIPSt18_Rb_tree_node_baseS1_EC1IRS1_Lb1EEERKS1_OT_,_ZNSt4pairIPSt18_Rb_tree_node_baseS1_EC2IRS1_Lb1EEERKS1_OT_
	.section	.text._ZNSt8_Rb_treeIiSt4pairIKiSt3setIcSt4lessIcESaIcEEESt10_Select1stIS7_ES3_IiESaIS7_EE24_M_get_insert_unique_posERS1_,"axG",@progbits,_ZNSt8_Rb_treeIiSt4pairIKiSt3setIcSt4lessIcESaIcEEESt10_Select1stIS7_ES3_IiESaIS7_EE24_M_get_insert_unique_posERS1_,comdat
	.align 2
	.weak	_ZNSt8_Rb_treeIiSt4pairIKiSt3setIcSt4lessIcESaIcEEESt10_Select1stIS7_ES3_IiESaIS7_EE24_M_get_insert_unique_posERS1_
	.type	_ZNSt8_Rb_treeIiSt4pairIKiSt3setIcSt4lessIcESaIcEEESt10_Select1stIS7_ES3_IiESaIS7_EE24_M_get_insert_unique_posERS1_, @function
_ZNSt8_Rb_treeIiSt4pairIKiSt3setIcSt4lessIcESaIcEEESt10_Select1stIS7_ES3_IiESaIS7_EE24_M_get_insert_unique_posERS1_:
.LFB11465:
	.cfi_startproc
	endbr64
	push	rbp
	.cfi_def_cfa_offset 16
	.cfi_offset 6, -16
	mov	rbp, rsp
	.cfi_def_cfa_register 6
	push	rbx
	sub	rsp, 104
	.cfi_offset 3, -24
	mov	QWORD PTR -104[rbp], rdi
	mov	QWORD PTR -112[rbp], rsi
	mov	rax, QWORD PTR fs:40
	mov	QWORD PTR -24[rbp], rax
	xor	eax, eax
	mov	rax, QWORD PTR -104[rbp]
	mov	rdi, rax
	call	_ZNSt8_Rb_treeIiSt4pairIKiSt3setIcSt4lessIcESaIcEEESt10_Select1stIS7_ES3_IiESaIS7_EE8_M_beginEv
	mov	QWORD PTR -80[rbp], rax
	mov	rax, QWORD PTR -104[rbp]
	mov	rdi, rax
	call	_ZNSt8_Rb_treeIiSt4pairIKiSt3setIcSt4lessIcESaIcEEESt10_Select1stIS7_ES3_IiESaIS7_EE6_M_endEv
	mov	QWORD PTR -72[rbp], rax
	mov	BYTE PTR -81[rbp], 1
	jmp	.L404
.L407:
	mov	rax, QWORD PTR -80[rbp]
	mov	QWORD PTR -72[rbp], rax
	mov	rbx, QWORD PTR -104[rbp]
	mov	rax, QWORD PTR -80[rbp]
	mov	rdi, rax
	call	_ZNSt8_Rb_treeIiSt4pairIKiSt3setIcSt4lessIcESaIcEEESt10_Select1stIS7_ES3_IiESaIS7_EE6_S_keyEPKSt13_Rb_tree_nodeIS7_E
	mov	rdx, rax
	mov	rax, QWORD PTR -112[rbp]
	mov	rsi, rax
	mov	rdi, rbx
	call	_ZNKSt4lessIiEclERKiS2_
	mov	BYTE PTR -81[rbp], al
	cmp	BYTE PTR -81[rbp], 0
	je	.L405
	mov	rax, QWORD PTR -80[rbp]
	mov	rdi, rax
	call	_ZNSt8_Rb_treeIiSt4pairIKiSt3setIcSt4lessIcESaIcEEESt10_Select1stIS7_ES3_IiESaIS7_EE7_S_leftEPSt18_Rb_tree_node_base
	jmp	.L406
.L405:
	mov	rax, QWORD PTR -80[rbp]
	mov	rdi, rax
	call	_ZNSt8_Rb_treeIiSt4pairIKiSt3setIcSt4lessIcESaIcEEESt10_Select1stIS7_ES3_IiESaIS7_EE8_S_rightEPSt18_Rb_tree_node_base
.L406:
	mov	QWORD PTR -80[rbp], rax
.L404:
	mov	rax, QWORD PTR -80[rbp]
	test	rax, rax
	jne	.L407
	mov	rdx, QWORD PTR -72[rbp]
	lea	rax, -64[rbp]
	mov	rsi, rdx
	mov	rdi, rax
	call	_ZNSt17_Rb_tree_iteratorISt4pairIKiSt3setIcSt4lessIcESaIcEEEEC1EPSt18_Rb_tree_node_base
	cmp	BYTE PTR -81[rbp], 0
	je	.L408
	mov	rax, QWORD PTR -104[rbp]
	mov	rdi, rax
	call	_ZNSt8_Rb_treeIiSt4pairIKiSt3setIcSt4lessIcESaIcEEESt10_Select1stIS7_ES3_IiESaIS7_EE5beginEv
	mov	QWORD PTR -48[rbp], rax
	lea	rdx, -48[rbp]
	lea	rax, -64[rbp]
	mov	rsi, rdx
	mov	rdi, rax
	call	_ZSteqRKSt17_Rb_tree_iteratorISt4pairIKiSt3setIcSt4lessIcESaIcEEEESA_
	test	al, al
	je	.L409
	lea	rdx, -72[rbp]
	lea	rcx, -80[rbp]
	lea	rax, -48[rbp]
	mov	rsi, rcx
	mov	rdi, rax
	call	_ZNSt4pairIPSt18_Rb_tree_node_baseS1_EC1IRPSt13_Rb_tree_nodeIS_IKiSt3setIcSt4lessIcESaIcEEEERS1_Lb1EEEOT_OT0_
	mov	rax, QWORD PTR -48[rbp]
	mov	rdx, QWORD PTR -40[rbp]
	jmp	.L412
.L409:
	lea	rax, -64[rbp]
	mov	rdi, rax
	call	_ZNSt17_Rb_tree_iteratorISt4pairIKiSt3setIcSt4lessIcESaIcEEEEmmEv
.L408:
	mov	rbx, QWORD PTR -104[rbp]
	mov	rax, QWORD PTR -64[rbp]
	mov	rdi, rax
	call	_ZNSt8_Rb_treeIiSt4pairIKiSt3setIcSt4lessIcESaIcEEESt10_Select1stIS7_ES3_IiESaIS7_EE6_S_keyEPKSt18_Rb_tree_node_base
	mov	rcx, rax
	mov	rax, QWORD PTR -112[rbp]
	mov	rdx, rax
	mov	rsi, rcx
	mov	rdi, rbx
	call	_ZNKSt4lessIiEclERKiS2_
	test	al, al
	je	.L411
	lea	rdx, -72[rbp]
	lea	rcx, -80[rbp]
	lea	rax, -48[rbp]
	mov	rsi, rcx
	mov	rdi, rax
	call	_ZNSt4pairIPSt18_Rb_tree_node_baseS1_EC1IRPSt13_Rb_tree_nodeIS_IKiSt3setIcSt4lessIcESaIcEEEERS1_Lb1EEEOT_OT0_
	mov	rax, QWORD PTR -48[rbp]
	mov	rdx, QWORD PTR -40[rbp]
	jmp	.L412
.L411:
	mov	QWORD PTR -56[rbp], 0
	lea	rdx, -56[rbp]
	lea	rcx, -64[rbp]
	lea	rax, -48[rbp]
	mov	rsi, rcx
	mov	rdi, rax
	call	_ZNSt4pairIPSt18_Rb_tree_node_baseS1_EC1IRS1_Lb1EEEOT_RKS1_
	mov	rax, QWORD PTR -48[rbp]
	mov	rdx, QWORD PTR -40[rbp]
.L412:
	mov	rcx, QWORD PTR -24[rbp]
	sub	rcx, QWORD PTR fs:40
	je	.L413
	call	__stack_chk_fail@PLT
.L413:
	mov	rbx, QWORD PTR -8[rbp]
	leave
	.cfi_def_cfa 7, 8
	ret
	.cfi_endproc
.LFE11465:
	.size	_ZNSt8_Rb_treeIiSt4pairIKiSt3setIcSt4lessIcESaIcEEESt10_Select1stIS7_ES3_IiESaIS7_EE24_M_get_insert_unique_posERS1_, .-_ZNSt8_Rb_treeIiSt4pairIKiSt3setIcSt4lessIcESaIcEEESt10_Select1stIS7_ES3_IiESaIS7_EE24_M_get_insert_unique_posERS1_
	.section	.text._ZNSt8_Rb_treeIiSt4pairIKiSt3setIcSt4lessIcESaIcEEESt10_Select1stIS7_ES3_IiESaIS7_EE11_M_leftmostEv,"axG",@progbits,_ZNSt8_Rb_treeIiSt4pairIKiSt3setIcSt4lessIcESaIcEEESt10_Select1stIS7_ES3_IiESaIS7_EE11_M_leftmostEv,comdat
	.align 2
	.weak	_ZNSt8_Rb_treeIiSt4pairIKiSt3setIcSt4lessIcESaIcEEESt10_Select1stIS7_ES3_IiESaIS7_EE11_M_leftmostEv
	.type	_ZNSt8_Rb_treeIiSt4pairIKiSt3setIcSt4lessIcESaIcEEESt10_Select1stIS7_ES3_IiESaIS7_EE11_M_leftmostEv, @function
_ZNSt8_Rb_treeIiSt4pairIKiSt3setIcSt4lessIcESaIcEEESt10_Select1stIS7_ES3_IiESaIS7_EE11_M_leftmostEv:
.LFB11470:
	.cfi_startproc
	endbr64
	push	rbp
	.cfi_def_cfa_offset 16
	.cfi_offset 6, -16
	mov	rbp, rsp
	.cfi_def_cfa_register 6
	mov	QWORD PTR -8[rbp], rdi
	mov	rax, QWORD PTR -8[rbp]
	add	rax, 24
	pop	rbp
	.cfi_def_cfa 7, 8
	ret
	.cfi_endproc
.LFE11470:
	.size	_ZNSt8_Rb_treeIiSt4pairIKiSt3setIcSt4lessIcESaIcEEESt10_Select1stIS7_ES3_IiESaIS7_EE11_M_leftmostEv, .-_ZNSt8_Rb_treeIiSt4pairIKiSt3setIcSt4lessIcESaIcEEESt10_Select1stIS7_ES3_IiESaIS7_EE11_M_leftmostEv
	.section	.text._ZNSt4pairIPSt18_Rb_tree_node_baseS1_EC2IRS1_S4_Lb1EEEOT_OT0_,"axG",@progbits,_ZNSt4pairIPSt18_Rb_tree_node_baseS1_EC5IRS1_S4_Lb1EEEOT_OT0_,comdat
	.align 2
	.weak	_ZNSt4pairIPSt18_Rb_tree_node_baseS1_EC2IRS1_S4_Lb1EEEOT_OT0_
	.type	_ZNSt4pairIPSt18_Rb_tree_node_baseS1_EC2IRS1_S4_Lb1EEEOT_OT0_, @function
_ZNSt4pairIPSt18_Rb_tree_node_baseS1_EC2IRS1_S4_Lb1EEEOT_OT0_:
.LFB11472:
	.cfi_startproc
	endbr64
	push	rbp
	.cfi_def_cfa_offset 16
	.cfi_offset 6, -16
	mov	rbp, rsp
	.cfi_def_cfa_register 6
	sub	rsp, 32
	mov	QWORD PTR -8[rbp], rdi
	mov	QWORD PTR -16[rbp], rsi
	mov	QWORD PTR -24[rbp], rdx
	mov	rax, QWORD PTR -16[rbp]
	mov	rdi, rax
	call	_ZSt7forwardIRPSt18_Rb_tree_node_baseEOT_RNSt16remove_referenceIS3_E4typeE
	mov	rdx, QWORD PTR [rax]
	mov	rax, QWORD PTR -8[rbp]
	mov	QWORD PTR [rax], rdx
	mov	rax, QWORD PTR -24[rbp]
	mov	rdi, rax
	call	_ZSt7forwardIRPSt18_Rb_tree_node_baseEOT_RNSt16remove_referenceIS3_E4typeE
	mov	rdx, QWORD PTR [rax]
	mov	rax, QWORD PTR -8[rbp]
	mov	QWORD PTR 8[rax], rdx
	nop
	leave
	.cfi_def_cfa 7, 8
	ret
	.cfi_endproc
.LFE11472:
	.size	_ZNSt4pairIPSt18_Rb_tree_node_baseS1_EC2IRS1_S4_Lb1EEEOT_OT0_, .-_ZNSt4pairIPSt18_Rb_tree_node_baseS1_EC2IRS1_S4_Lb1EEEOT_OT0_
	.weak	_ZNSt4pairIPSt18_Rb_tree_node_baseS1_EC1IRS1_S4_Lb1EEEOT_OT0_
	.set	_ZNSt4pairIPSt18_Rb_tree_node_baseS1_EC1IRS1_S4_Lb1EEEOT_OT0_,_ZNSt4pairIPSt18_Rb_tree_node_baseS1_EC2IRS1_S4_Lb1EEEOT_OT0_
	.section	.text._ZNSt17_Rb_tree_iteratorISt4pairIKiSt3setIcSt4lessIcESaIcEEEEmmEv,"axG",@progbits,_ZNSt17_Rb_tree_iteratorISt4pairIKiSt3setIcSt4lessIcESaIcEEEEmmEv,comdat
	.align 2
	.weak	_ZNSt17_Rb_tree_iteratorISt4pairIKiSt3setIcSt4lessIcESaIcEEEEmmEv
	.type	_ZNSt17_Rb_tree_iteratorISt4pairIKiSt3setIcSt4lessIcESaIcEEEEmmEv, @function
_ZNSt17_Rb_tree_iteratorISt4pairIKiSt3setIcSt4lessIcESaIcEEEEmmEv:
.LFB11474:
	.cfi_startproc
	endbr64
	push	rbp
	.cfi_def_cfa_offset 16
	.cfi_offset 6, -16
	mov	rbp, rsp
	.cfi_def_cfa_register 6
	sub	rsp, 16
	mov	QWORD PTR -8[rbp], rdi
	mov	rax, QWORD PTR -8[rbp]
	mov	rax, QWORD PTR [rax]
	mov	rdi, rax
	call	_ZSt18_Rb_tree_decrementPSt18_Rb_tree_node_base@PLT
	mov	rdx, QWORD PTR -8[rbp]
	mov	QWORD PTR [rdx], rax
	mov	rax, QWORD PTR -8[rbp]
	leave
	.cfi_def_cfa 7, 8
	ret
	.cfi_endproc
.LFE11474:
	.size	_ZNSt17_Rb_tree_iteratorISt4pairIKiSt3setIcSt4lessIcESaIcEEEEmmEv, .-_ZNSt17_Rb_tree_iteratorISt4pairIKiSt3setIcSt4lessIcESaIcEEEEmmEv
	.section	.text._ZNSt17_Rb_tree_iteratorISt4pairIKiSt3setIcSt4lessIcESaIcEEEEppEv,"axG",@progbits,_ZNSt17_Rb_tree_iteratorISt4pairIKiSt3setIcSt4lessIcESaIcEEEEppEv,comdat
	.align 2
	.weak	_ZNSt17_Rb_tree_iteratorISt4pairIKiSt3setIcSt4lessIcESaIcEEEEppEv
	.type	_ZNSt17_Rb_tree_iteratorISt4pairIKiSt3setIcSt4lessIcESaIcEEEEppEv, @function
_ZNSt17_Rb_tree_iteratorISt4pairIKiSt3setIcSt4lessIcESaIcEEEEppEv:
.LFB11475:
	.cfi_startproc
	endbr64
	push	rbp
	.cfi_def_cfa_offset 16
	.cfi_offset 6, -16
	mov	rbp, rsp
	.cfi_def_cfa_register 6
	sub	rsp, 16
	mov	QWORD PTR -8[rbp], rdi
	mov	rax, QWORD PTR -8[rbp]
	mov	rax, QWORD PTR [rax]
	mov	rdi, rax
	call	_ZSt18_Rb_tree_incrementPSt18_Rb_tree_node_base@PLT
	mov	rdx, QWORD PTR -8[rbp]
	mov	QWORD PTR [rdx], rax
	mov	rax, QWORD PTR -8[rbp]
	leave
	.cfi_def_cfa 7, 8
	ret
	.cfi_endproc
.LFE11475:
	.size	_ZNSt17_Rb_tree_iteratorISt4pairIKiSt3setIcSt4lessIcESaIcEEEEppEv, .-_ZNSt17_Rb_tree_iteratorISt4pairIKiSt3setIcSt4lessIcESaIcEEEEppEv
	.section	.text._ZNSt4pairIPSt18_Rb_tree_node_baseS1_EC2IRS1_Lb1EEEOT_RKS1_,"axG",@progbits,_ZNSt4pairIPSt18_Rb_tree_node_baseS1_EC5IRS1_Lb1EEEOT_RKS1_,comdat
	.align 2
	.weak	_ZNSt4pairIPSt18_Rb_tree_node_baseS1_EC2IRS1_Lb1EEEOT_RKS1_
	.type	_ZNSt4pairIPSt18_Rb_tree_node_baseS1_EC2IRS1_Lb1EEEOT_RKS1_, @function
_ZNSt4pairIPSt18_Rb_tree_node_baseS1_EC2IRS1_Lb1EEEOT_RKS1_:
.LFB11477:
	.cfi_startproc
	endbr64
	push	rbp
	.cfi_def_cfa_offset 16
	.cfi_offset 6, -16
	mov	rbp, rsp
	.cfi_def_cfa_register 6
	sub	rsp, 32
	mov	QWORD PTR -8[rbp], rdi
	mov	QWORD PTR -16[rbp], rsi
	mov	QWORD PTR -24[rbp], rdx
	mov	rax, QWORD PTR -16[rbp]
	mov	rdi, rax
	call	_ZSt7forwardIRPSt18_Rb_tree_node_baseEOT_RNSt16remove_referenceIS3_E4typeE
	mov	rdx, QWORD PTR [rax]
	mov	rax, QWORD PTR -8[rbp]
	mov	QWORD PTR [rax], rdx
	mov	rax, QWORD PTR -24[rbp]
	mov	rdx, QWORD PTR [rax]
	mov	rax, QWORD PTR -8[rbp]
	mov	QWORD PTR 8[rax], rdx
	nop
	leave
	.cfi_def_cfa 7, 8
	ret
	.cfi_endproc
.LFE11477:
	.size	_ZNSt4pairIPSt18_Rb_tree_node_baseS1_EC2IRS1_Lb1EEEOT_RKS1_, .-_ZNSt4pairIPSt18_Rb_tree_node_baseS1_EC2IRS1_Lb1EEEOT_RKS1_
	.weak	_ZNSt4pairIPSt18_Rb_tree_node_baseS1_EC1IRS1_Lb1EEEOT_RKS1_
	.set	_ZNSt4pairIPSt18_Rb_tree_node_baseS1_EC1IRS1_Lb1EEEOT_RKS1_,_ZNSt4pairIPSt18_Rb_tree_node_baseS1_EC2IRS1_Lb1EEEOT_RKS1_
	.section	.text._ZNKSt13_Rb_tree_nodeISt4pairIKiSt3setIcSt4lessIcESaIcEEEE9_M_valptrEv,"axG",@progbits,_ZNKSt13_Rb_tree_nodeISt4pairIKiSt3setIcSt4lessIcESaIcEEEE9_M_valptrEv,comdat
	.align 2
	.weak	_ZNKSt13_Rb_tree_nodeISt4pairIKiSt3setIcSt4lessIcESaIcEEEE9_M_valptrEv
	.type	_ZNKSt13_Rb_tree_nodeISt4pairIKiSt3setIcSt4lessIcESaIcEEEE9_M_valptrEv, @function
_ZNKSt13_Rb_tree_nodeISt4pairIKiSt3setIcSt4lessIcESaIcEEEE9_M_valptrEv:
.LFB11479:
	.cfi_startproc
	endbr64
	push	rbp
	.cfi_def_cfa_offset 16
	.cfi_offset 6, -16
	mov	rbp, rsp
	.cfi_def_cfa_register 6
	sub	rsp, 16
	mov	QWORD PTR -8[rbp], rdi
	mov	rax, QWORD PTR -8[rbp]
	add	rax, 32
	mov	rdi, rax
	call	_ZNK9__gnu_cxx16__aligned_membufISt4pairIKiSt3setIcSt4lessIcESaIcEEEE6_M_ptrEv
	leave
	.cfi_def_cfa 7, 8
	ret
	.cfi_endproc
.LFE11479:
	.size	_ZNKSt13_Rb_tree_nodeISt4pairIKiSt3setIcSt4lessIcESaIcEEEE9_M_valptrEv, .-_ZNKSt13_Rb_tree_nodeISt4pairIKiSt3setIcSt4lessIcESaIcEEEE9_M_valptrEv
	.section	.text._ZNKSt10_Select1stISt4pairIKiSt3setIcSt4lessIcESaIcEEEEclERKS7_,"axG",@progbits,_ZNKSt10_Select1stISt4pairIKiSt3setIcSt4lessIcESaIcEEEEclERKS7_,comdat
	.align 2
	.weak	_ZNKSt10_Select1stISt4pairIKiSt3setIcSt4lessIcESaIcEEEEclERKS7_
	.type	_ZNKSt10_Select1stISt4pairIKiSt3setIcSt4lessIcESaIcEEEEclERKS7_, @function
_ZNKSt10_Select1stISt4pairIKiSt3setIcSt4lessIcESaIcEEEEclERKS7_:
.LFB11480:
	.cfi_startproc
	endbr64
	push	rbp
	.cfi_def_cfa_offset 16
	.cfi_offset 6, -16
	mov	rbp, rsp
	.cfi_def_cfa_register 6
	mov	QWORD PTR -8[rbp], rdi
	mov	QWORD PTR -16[rbp], rsi
	mov	rax, QWORD PTR -16[rbp]
	pop	rbp
	.cfi_def_cfa 7, 8
	ret
	.cfi_endproc
.LFE11480:
	.size	_ZNKSt10_Select1stISt4pairIKiSt3setIcSt4lessIcESaIcEEEEclERKS7_, .-_ZNKSt10_Select1stISt4pairIKiSt3setIcSt4lessIcESaIcEEEEclERKS7_
	.section	.text._ZNSt8_Rb_treeIccSt9_IdentityIcESt4lessIcESaIcEE8_M_beginEv,"axG",@progbits,_ZNSt8_Rb_treeIccSt9_IdentityIcESt4lessIcESaIcEE8_M_beginEv,comdat
	.align 2
	.weak	_ZNSt8_Rb_treeIccSt9_IdentityIcESt4lessIcESaIcEE8_M_beginEv
	.type	_ZNSt8_Rb_treeIccSt9_IdentityIcESt4lessIcESaIcEE8_M_beginEv, @function
_ZNSt8_Rb_treeIccSt9_IdentityIcESt4lessIcESaIcEE8_M_beginEv:
.LFB11481:
	.cfi_startproc
	endbr64
	push	rbp
	.cfi_def_cfa_offset 16
	.cfi_offset 6, -16
	mov	rbp, rsp
	.cfi_def_cfa_register 6
	sub	rsp, 16
	mov	QWORD PTR -8[rbp], rdi
	mov	rax, QWORD PTR -8[rbp]
	mov	rdi, rax
	call	_ZNKSt8_Rb_treeIccSt9_IdentityIcESt4lessIcESaIcEE9_M_mbeginEv
	leave
	.cfi_def_cfa 7, 8
	ret
	.cfi_endproc
