	.file	"Diverse Team.cpp"
	.intel_syntax noprefix
	.text
	.section	.text._ZnwmPv,"axG",@progbits,_ZnwmPv,comdat
	.weak	_ZnwmPv
	.type	_ZnwmPv, @function
_ZnwmPv:
.LFB38:
	.cfi_startproc
	endbr64
	push	rbp
	.cfi_def_cfa_offset 16
	.cfi_offset 6, -16
	mov	rbp, rsp
	.cfi_def_cfa_register 6
	mov	QWORD PTR -8[rbp], rdi
	mov	QWORD PTR -16[rbp], rsi
	mov	rax, QWORD PTR -16[rbp]
	pop	rbp
	.cfi_def_cfa 7, 8
	ret
	.cfi_endproc
.LFE38:
	.size	_ZnwmPv, .-_ZnwmPv
	.section	.text._ZdlPvS_,"axG",@progbits,_ZdlPvS_,comdat
	.weak	_ZdlPvS_
	.type	_ZdlPvS_, @function
_ZdlPvS_:
.LFB40:
	.cfi_startproc
	endbr64
	push	rbp
	.cfi_def_cfa_offset 16
	.cfi_offset 6, -16
	mov	rbp, rsp
	.cfi_def_cfa_register 6
	mov	QWORD PTR -8[rbp], rdi
	mov	QWORD PTR -16[rbp], rsi
	nop
	pop	rbp
	.cfi_def_cfa 7, 8
	ret
	.cfi_endproc
.LFE40:
	.size	_ZdlPvS_, .-_ZdlPvS_
	.weak	_ZSt19piecewise_construct
	.section	.rodata._ZSt19piecewise_construct,"aG",@progbits,_ZSt19piecewise_construct,comdat
	.type	_ZSt19piecewise_construct, @gnu_unique_object
	.size	_ZSt19piecewise_construct, 1
_ZSt19piecewise_construct:
	.zero	1
	.section	.text._ZSt17__size_to_integerm,"axG",@progbits,_ZSt17__size_to_integerm,comdat
	.weak	_ZSt17__size_to_integerm
	.type	_ZSt17__size_to_integerm, @function
_ZSt17__size_to_integerm:
.LFB371:
	.cfi_startproc
	endbr64
	push	rbp
	.cfi_def_cfa_offset 16
	.cfi_offset 6, -16
	mov	rbp, rsp
	.cfi_def_cfa_register 6
	mov	QWORD PTR -8[rbp], rdi
	mov	rax, QWORD PTR -8[rbp]
	pop	rbp
	.cfi_def_cfa 7, 8
	ret
	.cfi_endproc
.LFE371:
	.size	_ZSt17__size_to_integerm, .-_ZSt17__size_to_integerm
	.section	.text._ZNSt11char_traitsIcE2ltERKcS2_,"axG",@progbits,_ZNSt11char_traitsIcE2ltERKcS2_,comdat
	.weak	_ZNSt11char_traitsIcE2ltERKcS2_
	.type	_ZNSt11char_traitsIcE2ltERKcS2_, @function
_ZNSt11char_traitsIcE2ltERKcS2_:
.LFB447:
	.cfi_startproc
	endbr64
	push	rbp
	.cfi_def_cfa_offset 16
	.cfi_offset 6, -16
	mov	rbp, rsp
	.cfi_def_cfa_register 6
	mov	QWORD PTR -8[rbp], rdi
	mov	QWORD PTR -16[rbp], rsi
	mov	rax, QWORD PTR -8[rbp]
	movzx	eax, BYTE PTR [rax]
	mov	edx, eax
	mov	rax, QWORD PTR -16[rbp]
	movzx	eax, BYTE PTR [rax]
	cmp	dl, al
	setb	al
	pop	rbp
	.cfi_def_cfa 7, 8
	ret
	.cfi_endproc
.LFE447:
	.size	_ZNSt11char_traitsIcE2ltERKcS2_, .-_ZNSt11char_traitsIcE2ltERKcS2_
	.section	.text._ZNSt11char_traitsIcE7compareEPKcS2_m,"axG",@progbits,_ZNSt11char_traitsIcE7compareEPKcS2_m,comdat
	.weak	_ZNSt11char_traitsIcE7compareEPKcS2_m
	.type	_ZNSt11char_traitsIcE7compareEPKcS2_m, @function
_ZNSt11char_traitsIcE7compareEPKcS2_m:
.LFB448:
	.cfi_startproc
	endbr64
	push	rbp
	.cfi_def_cfa_offset 16
	.cfi_offset 6, -16
	mov	rbp, rsp
	.cfi_def_cfa_register 6
	sub	rsp, 48
	mov	QWORD PTR -24[rbp], rdi
	mov	QWORD PTR -32[rbp], rsi
	mov	QWORD PTR -40[rbp], rdx
	cmp	QWORD PTR -40[rbp], 0
	jne	.L9
	mov	eax, 0
	jmp	.L10
.L9:
	mov	eax, 0
	test	al, al
	je	.L11
	mov	QWORD PTR -8[rbp], 0
	jmp	.L12
.L15:
	mov	rdx, QWORD PTR -32[rbp]
	mov	rax, QWORD PTR -8[rbp]
	add	rdx, rax
	mov	rcx, QWORD PTR -24[rbp]
	mov	rax, QWORD PTR -8[rbp]
	add	rax, rcx
	mov	rsi, rdx
	mov	rdi, rax
	call	_ZNSt11char_traitsIcE2ltERKcS2_
	test	al, al
	je	.L13
	mov	eax, -1
	jmp	.L10
.L13:
	mov	rdx, QWORD PTR -24[rbp]
	mov	rax, QWORD PTR -8[rbp]
	add	rdx, rax
	mov	rcx, QWORD PTR -32[rbp]
	mov	rax, QWORD PTR -8[rbp]
	add	rax, rcx
	mov	rsi, rdx
	mov	rdi, rax
	call	_ZNSt11char_traitsIcE2ltERKcS2_
	test	al, al
	je	.L14
	mov	eax, 1
	jmp	.L10
.L14:
	add	QWORD PTR -8[rbp], 1
.L12:
	mov	rax, QWORD PTR -8[rbp]
	cmp	rax, QWORD PTR -40[rbp]
	jb	.L15
	mov	eax, 0
	jmp	.L10
.L11:
	mov	rdx, QWORD PTR -40[rbp]
	mov	rcx, QWORD PTR -32[rbp]
	mov	rax, QWORD PTR -24[rbp]
	mov	rsi, rcx
	mov	rdi, rax
	call	memcmp@PLT
	nop
.L10:
	leave
	.cfi_def_cfa 7, 8
	ret
	.cfi_endproc
.LFE448:
	.size	_ZNSt11char_traitsIcE7compareEPKcS2_m, .-_ZNSt11char_traitsIcE7compareEPKcS2_m
	.local	_ZStL8__ioinit
	.comm	_ZStL8__ioinit,1,1
	.section	.text._ZSt3minImERKT_S2_S2_,"axG",@progbits,_ZSt3minImERKT_S2_S2_,comdat
	.weak	_ZSt3minImERKT_S2_S2_
	.type	_ZSt3minImERKT_S2_S2_, @function
_ZSt3minImERKT_S2_S2_:
.LFB3255:
	.cfi_startproc
	endbr64
	push	rbp
	.cfi_def_cfa_offset 16
	.cfi_offset 6, -16
	mov	rbp, rsp
	.cfi_def_cfa_register 6
	mov	QWORD PTR -8[rbp], rdi
	mov	QWORD PTR -16[rbp], rsi
	mov	rax, QWORD PTR -16[rbp]
	mov	rdx, QWORD PTR [rax]
	mov	rax, QWORD PTR -8[rbp]
	mov	rax, QWORD PTR [rax]
	cmp	rdx, rax
	jnb	.L17
	mov	rax, QWORD PTR -16[rbp]
	jmp	.L18
.L17:
	mov	rax, QWORD PTR -8[rbp]
.L18:
	pop	rbp
	.cfi_def_cfa 7, 8
	ret
	.cfi_endproc
.LFE3255:
	.size	_ZSt3minImERKT_S2_S2_, .-_ZSt3minImERKT_S2_S2_
	.section	.rodata
	.type	_ZN6__pstl9execution2v1L3seqE, @object
	.size	_ZN6__pstl9execution2v1L3seqE, 1
_ZN6__pstl9execution2v1L3seqE:
	.zero	1
	.type	_ZN6__pstl9execution2v1L3parE, @object
	.size	_ZN6__pstl9execution2v1L3parE, 1
_ZN6__pstl9execution2v1L3parE:
	.zero	1
	.type	_ZN6__pstl9execution2v1L9par_unseqE, @object
	.size	_ZN6__pstl9execution2v1L9par_unseqE, 1
_ZN6__pstl9execution2v1L9par_unseqE:
	.zero	1
	.type	_ZN6__pstl9execution2v1L5unseqE, @object
	.size	_ZN6__pstl9execution2v1L5unseqE, 1
_ZN6__pstl9execution2v1L5unseqE:
	.zero	1
	.section	.text._ZNSt15_Rb_tree_headerC2Ev,"axG",@progbits,_ZNSt15_Rb_tree_headerC5Ev,comdat
	.align 2
	.weak	_ZNSt15_Rb_tree_headerC2Ev
	.type	_ZNSt15_Rb_tree_headerC2Ev, @function
_ZNSt15_Rb_tree_headerC2Ev:
.LFB5009:
	.cfi_startproc
	endbr64
	push	rbp
	.cfi_def_cfa_offset 16
	.cfi_offset 6, -16
	mov	rbp, rsp
	.cfi_def_cfa_register 6
	sub	rsp, 16
	mov	QWORD PTR -8[rbp], rdi
	mov	rax, QWORD PTR -8[rbp]
	mov	DWORD PTR [rax], 0
	mov	rax, QWORD PTR -8[rbp]
	mov	rdi, rax
	call	_ZNSt15_Rb_tree_header8_M_resetEv
	nop
	leave
	.cfi_def_cfa 7, 8
	ret
	.cfi_endproc
.LFE5009:
	.size	_ZNSt15_Rb_tree_headerC2Ev, .-_ZNSt15_Rb_tree_headerC2Ev
	.weak	_ZNSt15_Rb_tree_headerC1Ev
	.set	_ZNSt15_Rb_tree_headerC1Ev,_ZNSt15_Rb_tree_headerC2Ev
	.section	.text._ZNSt15_Rb_tree_header8_M_resetEv,"axG",@progbits,_ZNSt15_Rb_tree_header8_M_resetEv,comdat
	.align 2
	.weak	_ZNSt15_Rb_tree_header8_M_resetEv
	.type	_ZNSt15_Rb_tree_header8_M_resetEv, @function
_ZNSt15_Rb_tree_header8_M_resetEv:
.LFB5015:
	.cfi_startproc
	endbr64
	push	rbp
	.cfi_def_cfa_offset 16
	.cfi_offset 6, -16
	mov	rbp, rsp
	.cfi_def_cfa_register 6
	mov	QWORD PTR -8[rbp], rdi
	mov	rax, QWORD PTR -8[rbp]
	mov	QWORD PTR 8[rax], 0
	mov	rdx, QWORD PTR -8[rbp]
	mov	rax, QWORD PTR -8[rbp]
	mov	QWORD PTR 16[rax], rdx
	mov	rdx, QWORD PTR -8[rbp]
	mov	rax, QWORD PTR -8[rbp]
	mov	QWORD PTR 24[rax], rdx
	mov	rax, QWORD PTR -8[rbp]
	mov	QWORD PTR 32[rax], 0
	nop
	pop	rbp
	.cfi_def_cfa 7, 8
	ret
	.cfi_endproc
.LFE5015:
	.size	_ZNSt15_Rb_tree_header8_M_resetEv, .-_ZNSt15_Rb_tree_header8_M_resetEv
	.section	.rodata
	.align 4
	.type	_ZN9__gnu_cxxL21__default_lock_policyE, @object
	.size	_ZN9__gnu_cxxL21__default_lock_policyE, 4
_ZN9__gnu_cxxL21__default_lock_policyE:
	.long	2
	.align 4
	.type	_ZNSt15regex_constantsL13error_collateE, @object
	.size	_ZNSt15regex_constantsL13error_collateE, 4
_ZNSt15regex_constantsL13error_collateE:
	.zero	4
	.align 4
	.type	_ZNSt15regex_constantsL11error_ctypeE, @object
	.size	_ZNSt15regex_constantsL11error_ctypeE, 4
_ZNSt15regex_constantsL11error_ctypeE:
	.long	1
	.align 4
	.type	_ZNSt15regex_constantsL12error_escapeE, @object
	.size	_ZNSt15regex_constantsL12error_escapeE, 4
_ZNSt15regex_constantsL12error_escapeE:
	.long	2
	.align 4
	.type	_ZNSt15regex_constantsL13error_backrefE, @object
	.size	_ZNSt15regex_constantsL13error_backrefE, 4
_ZNSt15regex_constantsL13error_backrefE:
	.long	3
	.align 4
	.type	_ZNSt15regex_constantsL11error_brackE, @object
	.size	_ZNSt15regex_constantsL11error_brackE, 4
_ZNSt15regex_constantsL11error_brackE:
	.long	4
	.align 4
	.type	_ZNSt15regex_constantsL11error_parenE, @object
	.size	_ZNSt15regex_constantsL11error_parenE, 4
_ZNSt15regex_constantsL11error_parenE:
	.long	5
	.align 4
	.type	_ZNSt15regex_constantsL11error_braceE, @object
	.size	_ZNSt15regex_constantsL11error_braceE, 4
_ZNSt15regex_constantsL11error_braceE:
	.long	6
	.align 4
	.type	_ZNSt15regex_constantsL14error_badbraceE, @object
	.size	_ZNSt15regex_constantsL14error_badbraceE, 4
_ZNSt15regex_constantsL14error_badbraceE:
	.long	7
	.align 4
	.type	_ZNSt15regex_constantsL11error_rangeE, @object
	.size	_ZNSt15regex_constantsL11error_rangeE, 4
_ZNSt15regex_constantsL11error_rangeE:
	.long	8
	.align 4
	.type	_ZNSt15regex_constantsL11error_spaceE, @object
	.size	_ZNSt15regex_constantsL11error_spaceE, 4
_ZNSt15regex_constantsL11error_spaceE:
	.long	9
	.align 4
	.type	_ZNSt15regex_constantsL15error_badrepeatE, @object
	.size	_ZNSt15regex_constantsL15error_badrepeatE, 4
_ZNSt15regex_constantsL15error_badrepeatE:
	.long	10
	.align 4
	.type	_ZNSt15regex_constantsL16error_complexityE, @object
	.size	_ZNSt15regex_constantsL16error_complexityE, 4
_ZNSt15regex_constantsL16error_complexityE:
	.long	11
	.align 4
	.type	_ZNSt15regex_constantsL11error_stackE, @object
	.size	_ZNSt15regex_constantsL11error_stackE, 4
_ZNSt15regex_constantsL11error_stackE:
	.long	12
	.align 8
	.type	_ZNSt8__detailL19_S_invalid_state_idE, @object
	.size	_ZNSt8__detailL19_S_invalid_state_idE, 8
_ZNSt8__detailL19_S_invalid_state_idE:
	.quad	-1
	.align 4
	.type	_ZL2sz, @object
	.size	_ZL2sz, 4
_ZL2sz:
	.long	1000010
	.globl	composite
	.bss
	.align 32
	.type	composite, @object
	.size	composite, 1000010
composite:
	.zero	1000010
	.section	.text._ZNSt12_Vector_baseIxSaIxEE12_Vector_implD2Ev,"axG",@progbits,_ZNSt12_Vector_baseIxSaIxEE12_Vector_implD5Ev,comdat
	.align 2
	.weak	_ZNSt12_Vector_baseIxSaIxEE12_Vector_implD2Ev
	.type	_ZNSt12_Vector_baseIxSaIxEE12_Vector_implD2Ev, @function
_ZNSt12_Vector_baseIxSaIxEE12_Vector_implD2Ev:
.LFB9708:
	.cfi_startproc
	endbr64
	push	rbp
	.cfi_def_cfa_offset 16
	.cfi_offset 6, -16
	mov	rbp, rsp
	.cfi_def_cfa_register 6
	sub	rsp, 16
	mov	QWORD PTR -8[rbp], rdi
	mov	rax, QWORD PTR -8[rbp]
	mov	rdi, rax
	call	_ZNSaIxED2Ev
	nop
	leave
	.cfi_def_cfa 7, 8
	ret
	.cfi_endproc
.LFE9708:
	.size	_ZNSt12_Vector_baseIxSaIxEE12_Vector_implD2Ev, .-_ZNSt12_Vector_baseIxSaIxEE12_Vector_implD2Ev
	.weak	_ZNSt12_Vector_baseIxSaIxEE12_Vector_implD1Ev
	.set	_ZNSt12_Vector_baseIxSaIxEE12_Vector_implD1Ev,_ZNSt12_Vector_baseIxSaIxEE12_Vector_implD2Ev
	.section	.text._ZNSt12_Vector_baseIxSaIxEEC2Ev,"axG",@progbits,_ZNSt12_Vector_baseIxSaIxEEC5Ev,comdat
	.align 2
	.weak	_ZNSt12_Vector_baseIxSaIxEEC2Ev
	.type	_ZNSt12_Vector_baseIxSaIxEEC2Ev, @function
_ZNSt12_Vector_baseIxSaIxEEC2Ev:
.LFB9710:
	.cfi_startproc
	endbr64
	push	rbp
	.cfi_def_cfa_offset 16
	.cfi_offset 6, -16
	mov	rbp, rsp
	.cfi_def_cfa_register 6
	sub	rsp, 16
	mov	QWORD PTR -8[rbp], rdi
	mov	rax, QWORD PTR -8[rbp]
	mov	rdi, rax
	call	_ZNSt12_Vector_baseIxSaIxEE12_Vector_implC1Ev
	nop
	leave
	.cfi_def_cfa 7, 8
	ret
	.cfi_endproc
.LFE9710:
	.size	_ZNSt12_Vector_baseIxSaIxEEC2Ev, .-_ZNSt12_Vector_baseIxSaIxEEC2Ev
	.weak	_ZNSt12_Vector_baseIxSaIxEEC1Ev
	.set	_ZNSt12_Vector_baseIxSaIxEEC1Ev,_ZNSt12_Vector_baseIxSaIxEEC2Ev
	.section	.text._ZNSt6vectorIxSaIxEEC2Ev,"axG",@progbits,_ZNSt6vectorIxSaIxEEC5Ev,comdat
	.align 2
	.weak	_ZNSt6vectorIxSaIxEEC2Ev
	.type	_ZNSt6vectorIxSaIxEEC2Ev, @function
_ZNSt6vectorIxSaIxEEC2Ev:
.LFB9712:
	.cfi_startproc
	endbr64
	push	rbp
	.cfi_def_cfa_offset 16
	.cfi_offset 6, -16
	mov	rbp, rsp
	.cfi_def_cfa_register 6
	sub	rsp, 16
	mov	QWORD PTR -8[rbp], rdi
	mov	rax, QWORD PTR -8[rbp]
	mov	rdi, rax
	call	_ZNSt12_Vector_baseIxSaIxEEC2Ev
	nop
	leave
	.cfi_def_cfa 7, 8
	ret
	.cfi_endproc
.LFE9712:
	.size	_ZNSt6vectorIxSaIxEEC2Ev, .-_ZNSt6vectorIxSaIxEEC2Ev
	.weak	_ZNSt6vectorIxSaIxEEC1Ev
	.set	_ZNSt6vectorIxSaIxEEC1Ev,_ZNSt6vectorIxSaIxEEC2Ev
	.globl	primes
	.bss
	.align 16
	.type	primes, @object
	.size	primes, 24
primes:
	.zero	24
	.text
	.globl	_Z5sievev
	.type	_Z5sievev, @function
_Z5sievev:
.LFB9714:
	.cfi_startproc
	endbr64
	push	rbp
	.cfi_def_cfa_offset 16
	.cfi_offset 6, -16
	mov	rbp, rsp
	.cfi_def_cfa_register 6
	mov	BYTE PTR composite[rip+1], 1
	movzx	eax, BYTE PTR composite[rip+1]
	mov	BYTE PTR composite[rip], al
	mov	DWORD PTR -8[rbp], 2
	jmp	.L25
.L29:
	mov	eax, DWORD PTR -8[rbp]
	cdqe
	lea	rdx, composite[rip]
	movzx	eax, BYTE PTR [rax+rdx]
	xor	eax, 1
	test	al, al
	je	.L26
	mov	eax, DWORD PTR -8[rbp]
	imul	eax, eax
	mov	DWORD PTR -4[rbp], eax
	jmp	.L27
.L28:
	mov	eax, DWORD PTR -4[rbp]
	cdqe
	lea	rdx, composite[rip]
	mov	BYTE PTR [rax+rdx], 1
	mov	eax, DWORD PTR -8[rbp]
	add	DWORD PTR -4[rbp], eax
.L27:
	cmp	DWORD PTR -4[rbp], 1000010
	jle	.L28
.L26:
	add	DWORD PTR -8[rbp], 1
.L25:
	mov	eax, DWORD PTR -8[rbp]
	imul	eax, eax
	cmp	eax, 1000010
	jle	.L29
	nop
	nop
	pop	rbp
	.cfi_def_cfa 7, 8
	ret
	.cfi_endproc
.LFE9714:
	.size	_Z5sievev, .-_Z5sievev
	.globl	_Z11linearSievei
	.type	_Z11linearSievei, @function
_Z11linearSievei:
.LFB9715:
	.cfi_startproc
	endbr64
	push	rbp
	.cfi_def_cfa_offset 16
	.cfi_offset 6, -16
	mov	rbp, rsp
	.cfi_def_cfa_register 6
	push	rbx
	sub	rsp, 56
	.cfi_offset 3, -24
	mov	DWORD PTR -52[rbp], edi
	mov	rax, QWORD PTR fs:40
	mov	QWORD PTR -24[rbp], rax
	xor	eax, eax
	mov	BYTE PTR composite[rip+1], 1
	movzx	eax, BYTE PTR composite[rip+1]
	mov	BYTE PTR composite[rip], al
	mov	DWORD PTR -40[rbp], 2
	jmp	.L31
.L38:
	mov	eax, DWORD PTR -40[rbp]
	cdqe
	lea	rdx, composite[rip]
	movzx	eax, BYTE PTR [rax+rdx]
	xor	eax, 1
	test	al, al
	je	.L32
	mov	eax, DWORD PTR -40[rbp]
	cdqe
	mov	QWORD PTR -32[rbp], rax
	lea	rax, -32[rbp]
	mov	rsi, rax
	lea	rax, primes[rip]
	mov	rdi, rax
	call	_ZNSt6vectorIxSaIxEE9push_backEOx
.L32:
	mov	DWORD PTR -36[rbp], 0
	jmp	.L33
.L37:
	mov	eax, DWORD PTR -40[rbp]
	movsx	rbx, eax
	mov	eax, DWORD PTR -36[rbp]
	cdqe
	mov	rsi, rax
	lea	rax, primes[rip]
	mov	rdi, rax
	call	_ZNSt6vectorIxSaIxEEixEm
	mov	rax, QWORD PTR [rax]
	mov	rdx, rbx
	imul	rdx, rax
	mov	eax, DWORD PTR -52[rbp]
	cdqe
	cmp	rdx, rax
	setg	al
	test	al, al
	jne	.L40
	mov	eax, DWORD PTR -40[rbp]
	movsx	rbx, eax
	mov	eax, DWORD PTR -36[rbp]
	cdqe
	mov	rsi, rax
	lea	rax, primes[rip]
	mov	rdi, rax
	call	_ZNSt6vectorIxSaIxEEixEm
	mov	rax, QWORD PTR [rax]
	imul	rax, rbx
	lea	rdx, composite[rip]
	mov	BYTE PTR [rax+rdx], 1
	mov	eax, DWORD PTR -40[rbp]
	movsx	rbx, eax
	mov	eax, DWORD PTR -36[rbp]
	cdqe
	mov	rsi, rax
	lea	rax, primes[rip]
	mov	rdi, rax
	call	_ZNSt6vectorIxSaIxEEixEm
	mov	rcx, QWORD PTR [rax]
	mov	rax, rbx
	cqo
	idiv	rcx
	mov	rax, rdx
	test	rax, rax
	sete	al
	test	al, al
	jne	.L41
	add	DWORD PTR -36[rbp], 1
.L33:
	mov	eax, DWORD PTR -36[rbp]
	movsx	rbx, eax
	lea	rax, primes[rip]
	mov	rdi, rax
	call	_ZNKSt6vectorIxSaIxEE4sizeEv
	cmp	rbx, rax
	setb	al
	test	al, al
	jne	.L37
	jmp	.L35
.L40:
	nop
	jmp	.L35
.L41:
	nop
.L35:
	add	DWORD PTR -40[rbp], 1
.L31:
	mov	eax, DWORD PTR -40[rbp]
	cmp	eax, DWORD PTR -52[rbp]
	jle	.L38
	nop
	mov	rax, QWORD PTR -24[rbp]
	sub	rax, QWORD PTR fs:40
	je	.L39
	call	__stack_chk_fail@PLT
.L39:
	mov	rbx, QWORD PTR -8[rbp]
	leave
	.cfi_def_cfa 7, 8
	ret
	.cfi_endproc
.LFE9715:
	.size	_Z11linearSievei, .-_Z11linearSievei
	.globl	_Z3gcdii
	.type	_Z3gcdii, @function
_Z3gcdii:
.LFB9716:
	.cfi_startproc
	endbr64
	push	rbp
	.cfi_def_cfa_offset 16
	.cfi_offset 6, -16
	mov	rbp, rsp
	.cfi_def_cfa_register 6
	sub	rsp, 16
	mov	DWORD PTR -4[rbp], edi
	mov	DWORD PTR -8[rbp], esi
	cmp	DWORD PTR -8[rbp], 0
	jne	.L43
	mov	eax, DWORD PTR -4[rbp]
	jmp	.L44
.L43:
	mov	eax, DWORD PTR -4[rbp]
	cdq
	idiv	DWORD PTR -8[rbp]
	mov	eax, DWORD PTR -8[rbp]
	mov	esi, edx
	mov	edi, eax
	call	_Z3gcdii
	nop
.L44:
	leave
	.cfi_def_cfa 7, 8
	ret
	.cfi_endproc
.LFE9716:
	.size	_Z3gcdii, .-_Z3gcdii
	.globl	_Z7isPrimei
	.type	_Z7isPrimei, @function
_Z7isPrimei:
.LFB9717:
	.cfi_startproc
	endbr64
	push	rbp
	.cfi_def_cfa_offset 16
	.cfi_offset 6, -16
	mov	rbp, rsp
	.cfi_def_cfa_register 6
	sub	rsp, 32
	mov	DWORD PTR -20[rbp], edi
	cmp	DWORD PTR -20[rbp], 1
	jg	.L46
	mov	eax, 0
	jmp	.L47
.L46:
	mov	DWORD PTR -4[rbp], 2
	jmp	.L48
.L50:
	mov	eax, DWORD PTR -20[rbp]
	cdq
	idiv	DWORD PTR -4[rbp]
	mov	eax, edx
	test	eax, eax
	jne	.L49
	mov	eax, 0
	jmp	.L47
.L49:
	add	DWORD PTR -4[rbp], 1
.L48:
	pxor	xmm1, xmm1
	cvtsi2sd	xmm1, DWORD PTR -4[rbp]
	movsd	QWORD PTR -32[rbp], xmm1
	mov	eax, DWORD PTR -20[rbp]
	mov	edi, eax
	call	_ZSt4sqrtIiEN9__gnu_cxx11__enable_ifIXsrSt12__is_integerIT_E7__valueEdE6__typeES3_
	movq	rax, xmm0
	movq	xmm2, rax
	comisd	xmm2, QWORD PTR -32[rbp]
	setnb	al
	test	al, al
	jne	.L50
	mov	eax, 1
.L47:
	leave
	.cfi_def_cfa 7, 8
	ret
	.cfi_endproc
.LFE9717:
	.size	_Z7isPrimei, .-_Z7isPrimei
	.globl	_Z3lcmii
	.type	_Z3lcmii, @function
_Z3lcmii:
.LFB9718:
	.cfi_startproc
	endbr64
	push	rbp
	.cfi_def_cfa_offset 16
	.cfi_offset 6, -16
	mov	rbp, rsp
	.cfi_def_cfa_register 6
	sub	rsp, 16
	mov	DWORD PTR -4[rbp], edi
	mov	DWORD PTR -8[rbp], esi
	mov	edx, DWORD PTR -8[rbp]
	mov	eax, DWORD PTR -4[rbp]
	mov	esi, edx
	mov	edi, eax
	call	_Z3gcdii
	mov	ecx, eax
	mov	eax, DWORD PTR -4[rbp]
	cdq
	idiv	ecx
	imul	eax, DWORD PTR -8[rbp]
	leave
	.cfi_def_cfa 7, 8
	ret
	.cfi_endproc
.LFE9718:
	.size	_Z3lcmii, .-_Z3lcmii
	.globl	_Z5luckyNSt7__cxx1112basic_stringIcSt11char_traitsIcESaIcEEE
	.type	_Z5luckyNSt7__cxx1112basic_stringIcSt11char_traitsIcESaIcEEE, @function
_Z5luckyNSt7__cxx1112basic_stringIcSt11char_traitsIcESaIcEEE:
.LFB9719:
	.cfi_startproc
	endbr64
	push	rbp
	.cfi_def_cfa_offset 16
	.cfi_offset 6, -16
	mov	rbp, rsp
	.cfi_def_cfa_register 6
	push	rbx
	sub	rsp, 40
	.cfi_offset 3, -24
	mov	QWORD PTR -40[rbp], rdi
	mov	DWORD PTR -20[rbp], 0
	jmp	.L54
.L59:
	mov	eax, DWORD PTR -20[rbp]
	movsx	rdx, eax
	mov	rax, QWORD PTR -40[rbp]
	mov	rsi, rdx
	mov	rdi, rax
	call	_ZNSt7__cxx1112basic_stringIcSt11char_traitsIcESaIcEEixEm@PLT
	movzx	eax, BYTE PTR [rax]
	cmp	al, 52
	je	.L55
	mov	eax, DWORD PTR -20[rbp]
	movsx	rdx, eax
	mov	rax, QWORD PTR -40[rbp]
	mov	rsi, rdx
	mov	rdi, rax
	call	_ZNSt7__cxx1112basic_stringIcSt11char_traitsIcESaIcEEixEm@PLT
	movzx	eax, BYTE PTR [rax]
	cmp	al, 55
	je	.L55
	mov	eax, 1
	jmp	.L56
.L55:
	mov	eax, 0
.L56:
	test	al, al
	je	.L57
	mov	eax, 0
	jmp	.L58
.L57:
	add	DWORD PTR -20[rbp], 1
.L54:
	mov	eax, DWORD PTR -20[rbp]
	movsx	rbx, eax
	mov	rax, QWORD PTR -40[rbp]
	mov	rdi, rax
	call	_ZNKSt7__cxx1112basic_stringIcSt11char_traitsIcESaIcEE4sizeEv@PLT
	cmp	rbx, rax
	setb	al
	test	al, al
	jne	.L59
	mov	eax, 1
.L58:
	mov	rbx, QWORD PTR -8[rbp]
	leave
	.cfi_def_cfa 7, 8
	ret
	.cfi_endproc
.LFE9719:
	.size	_Z5luckyNSt7__cxx1112basic_stringIcSt11char_traitsIcESaIcEEE, .-_Z5luckyNSt7__cxx1112basic_stringIcSt11char_traitsIcESaIcEEE
	.globl	_Z12isPalindromeNSt7__cxx1112basic_stringIcSt11char_traitsIcESaIcEEE
	.type	_Z12isPalindromeNSt7__cxx1112basic_stringIcSt11char_traitsIcESaIcEEE, @function
_Z12isPalindromeNSt7__cxx1112basic_stringIcSt11char_traitsIcESaIcEEE:
.LFB9720:
	.cfi_startproc
	.cfi_personality 0x9b,DW.ref.__gxx_personality_v0
	.cfi_lsda 0x1b,.LLSDA9720
	endbr64
	push	rbp
	.cfi_def_cfa_offset 16
	.cfi_offset 6, -16
	mov	rbp, rsp
	.cfi_def_cfa_register 6
	push	rbx
	sub	rsp, 72
	.cfi_offset 3, -24
	mov	QWORD PTR -72[rbp], rdi
	mov	rax, QWORD PTR fs:40
	mov	QWORD PTR -24[rbp], rax
	xor	eax, eax
	mov	rdx, QWORD PTR -72[rbp]
	lea	rax, -64[rbp]
	mov	rsi, rdx
	mov	rdi, rax
.LEHB0:
	call	_ZNSt7__cxx1112basic_stringIcSt11char_traitsIcESaIcEEC1ERKS4_@PLT
.LEHE0:
	lea	rax, -64[rbp]
	mov	rdi, rax
	call	_ZNSt7__cxx1112basic_stringIcSt11char_traitsIcESaIcEE3endEv@PLT
	mov	rbx, rax
	lea	rax, -64[rbp]
	mov	rdi, rax
	call	_ZNSt7__cxx1112basic_stringIcSt11char_traitsIcESaIcEE5beginEv@PLT
	mov	rsi, rbx
	mov	rdi, rax
.LEHB1:
	call	_ZSt7reverseIN9__gnu_cxx17__normal_iteratorIPcNSt7__cxx1112basic_stringIcSt11char_traitsIcESaIcEEEEEEvT_SA_
.LEHE1:
	lea	rdx, -64[rbp]
	mov	rax, QWORD PTR -72[rbp]
	mov	rsi, rdx
	mov	rdi, rax
	call	_ZSteqIcEN9__gnu_cxx11__enable_ifIXsrSt9__is_charIT_E7__valueEbE6__typeERKNSt7__cxx1112basic_stringIS3_St11char_traitsIS3_ESaIS3_EEESE_
	test	al, al
	je	.L61
	mov	ebx, 1
	jmp	.L62
.L61:
	mov	ebx, 0
.L62:
	lea	rax, -64[rbp]
	mov	rdi, rax
	call	_ZNSt7__cxx1112basic_stringIcSt11char_traitsIcESaIcEED1Ev@PLT
	mov	eax, ebx
	mov	rdx, QWORD PTR -24[rbp]
	sub	rdx, QWORD PTR fs:40
	je	.L65
	jmp	.L67
.L66:
	endbr64
	mov	rbx, rax
	lea	rax, -64[rbp]
	mov	rdi, rax
	call	_ZNSt7__cxx1112basic_stringIcSt11char_traitsIcESaIcEED1Ev@PLT
	mov	rax, rbx
	mov	rdi, rax
.LEHB2:
	call	_Unwind_Resume@PLT
.LEHE2:
.L67:
	call	__stack_chk_fail@PLT
.L65:
	mov	rbx, QWORD PTR -8[rbp]
	leave
	.cfi_def_cfa 7, 8
	ret
	.cfi_endproc
.LFE9720:
	.globl	__gxx_personality_v0
	.section	.gcc_except_table,"a",@progbits
.LLSDA9720:
	.byte	0xff
	.byte	0xff
	.byte	0x1
	.uleb128 .LLSDACSE9720-.LLSDACSB9720
.LLSDACSB9720:
	.uleb128 .LEHB0-.LFB9720
	.uleb128 .LEHE0-.LEHB0
	.uleb128 0
	.uleb128 0
	.uleb128 .LEHB1-.LFB9720
	.uleb128 .LEHE1-.LEHB1
	.uleb128 .L66-.LFB9720
	.uleb128 0
	.uleb128 .LEHB2-.LFB9720
	.uleb128 .LEHE2-.LEHB2
	.uleb128 0
	.uleb128 0
.LLSDACSE9720:
	.text
	.size	_Z12isPalindromeNSt7__cxx1112basic_stringIcSt11char_traitsIcESaIcEEE, .-_Z12isPalindromeNSt7__cxx1112basic_stringIcSt11char_traitsIcESaIcEEE
	.globl	_Z12binarySearchSt6vectorIiSaIiEEiii
	.type	_Z12binarySearchSt6vectorIiSaIiEEiii, @function
_Z12binarySearchSt6vectorIiSaIiEEiii:
.LFB9721:
	.cfi_startproc
	endbr64
	push	rbp
	.cfi_def_cfa_offset 16
	.cfi_offset 6, -16
	mov	rbp, rsp
	.cfi_def_cfa_register 6
	sub	rsp, 48
	mov	QWORD PTR -24[rbp], rdi
	mov	DWORD PTR -28[rbp], esi
	mov	DWORD PTR -32[rbp], edx
	mov	DWORD PTR -36[rbp], ecx
	jmp	.L69
.L73:
	mov	eax, DWORD PTR -32[rbp]
	sub	eax, DWORD PTR -28[rbp]
	mov	edx, eax
	shr	edx, 31
	add	eax, edx
	sar	eax
	mov	edx, eax
	mov	eax, DWORD PTR -28[rbp]
	add	eax, edx
	mov	DWORD PTR -4[rbp], eax
	mov	eax, DWORD PTR -4[rbp]
	movsx	rdx, eax
	mov	rax, QWORD PTR -24[rbp]
	mov	rsi, rdx
	mov	rdi, rax
	call	_ZNSt6vectorIiSaIiEEixEm
	mov	eax, DWORD PTR [rax]
	cmp	DWORD PTR -36[rbp], eax
	sete	al
	test	al, al
	je	.L70
	mov	eax, DWORD PTR -4[rbp]
	jmp	.L71
.L70:
	mov	eax, DWORD PTR -4[rbp]
	movsx	rdx, eax
	mov	rax, QWORD PTR -24[rbp]
	mov	rsi, rdx
	mov	rdi, rax
	call	_ZNSt6vectorIiSaIiEEixEm
	mov	eax, DWORD PTR [rax]
	cmp	DWORD PTR -36[rbp], eax
	setg	al
	test	al, al
	je	.L72
	mov	eax, DWORD PTR -4[rbp]
	add	eax, 1
	mov	DWORD PTR -28[rbp], eax
	jmp	.L69
.L72:
	mov	eax, DWORD PTR -4[rbp]
	sub	eax, 1
	mov	DWORD PTR -32[rbp], eax
.L69:
	mov	eax, DWORD PTR -28[rbp]
	cmp	eax, DWORD PTR -32[rbp]
	jle	.L73
	mov	eax, -1
.L71:
	leave
	.cfi_def_cfa 7, 8
	ret
	.cfi_endproc
.LFE9721:
	.size	_Z12binarySearchSt6vectorIiSaIiEEiii, .-_Z12binarySearchSt6vectorIiSaIiEEiii
	.globl	_Z11printBinaryi
	.type	_Z11printBinaryi, @function
_Z11printBinaryi:
.LFB9722:
	.cfi_startproc
	endbr64
	push	rbp
	.cfi_def_cfa_offset 16
	.cfi_offset 6, -16
	mov	rbp, rsp
	.cfi_def_cfa_register 6
	sub	rsp, 16
	mov	DWORD PTR -4[rbp], edi
	cmp	DWORD PTR -4[rbp], 1
	jg	.L75
	mov	eax, DWORD PTR -4[rbp]
	mov	esi, eax
	lea	rax, _ZSt4cout[rip]
	mov	rdi, rax
	call	_ZNSolsEi@PLT
	jmp	.L74
.L75:
	mov	eax, DWORD PTR -4[rbp]
	sar	eax
	mov	edi, eax
	call	_Z11printBinaryi
	mov	eax, DWORD PTR -4[rbp]
	and	eax, 1
	mov	esi, eax
	lea	rax, _ZSt4cout[rip]
	mov	rdi, rax
	call	_ZNSolsEi@PLT
.L74:
	leave
	.cfi_def_cfa 7, 8
	ret
	.cfi_endproc
.LFE9722:
	.size	_Z11printBinaryi, .-_Z11printBinaryi
	.globl	_Z10countBits1i
	.type	_Z10countBits1i, @function
_Z10countBits1i:
.LFB9723:
	.cfi_startproc
	endbr64
	push	rbp
	.cfi_def_cfa_offset 16
	.cfi_offset 6, -16
	mov	rbp, rsp
	.cfi_def_cfa_register 6
	mov	DWORD PTR -20[rbp], edi
	mov	DWORD PTR -4[rbp], 0
	jmp	.L78
.L79:
	add	DWORD PTR -4[rbp], 1
	mov	eax, DWORD PTR -20[rbp]
	sub	eax, 1
	and	DWORD PTR -20[rbp], eax
.L78:
	cmp	DWORD PTR -20[rbp], 0
	jne	.L79
	mov	eax, DWORD PTR -4[rbp]
	pop	rbp
	.cfi_def_cfa 7, 8
	ret
	.cfi_endproc
.LFE9723:
	.size	_Z10countBits1i, .-_Z10countBits1i
	.globl	_Z10countBits0i
	.type	_Z10countBits0i, @function
_Z10countBits0i:
.LFB9724:
	.cfi_startproc
	endbr64
	push	rbp
	.cfi_def_cfa_offset 16
	.cfi_offset 6, -16
	mov	rbp, rsp
	.cfi_def_cfa_register 6
	mov	DWORD PTR -20[rbp], edi
	mov	DWORD PTR -8[rbp], 0
	mov	DWORD PTR -4[rbp], 32
	jmp	.L82
.L83:
	add	DWORD PTR -8[rbp], 1
	mov	eax, DWORD PTR -20[rbp]
	sub	eax, 1
	and	DWORD PTR -20[rbp], eax
.L82:
	cmp	DWORD PTR -20[rbp], 0
	jne	.L83
	mov	eax, DWORD PTR -4[rbp]
	sub	eax, DWORD PTR -8[rbp]
	pop	rbp
	.cfi_def_cfa 7, 8
	ret
	.cfi_endproc
.LFE9724:
	.size	_Z10countBits0i, .-_Z10countBits0i
	.globl	_Z6getBitii
	.type	_Z6getBitii, @function
_Z6getBitii:
.LFB9725:
	.cfi_startproc
	endbr64
	push	rbp
	.cfi_def_cfa_offset 16
	.cfi_offset 6, -16
	mov	rbp, rsp
	.cfi_def_cfa_register 6
	mov	DWORD PTR -4[rbp], edi
	mov	DWORD PTR -8[rbp], esi
	mov	eax, DWORD PTR -8[rbp]
	mov	edx, DWORD PTR -4[rbp]
	mov	ecx, eax
	sar	edx, cl
	mov	eax, edx
	and	eax, 1
	pop	rbp
	.cfi_def_cfa 7, 8
	ret
	.cfi_endproc
.LFE9725:
	.size	_Z6getBitii, .-_Z6getBitii
	.globl	_Z7setBit1ii
	.type	_Z7setBit1ii, @function
_Z7setBit1ii:
.LFB9726:
	.cfi_startproc
	endbr64
	push	rbp
	.cfi_def_cfa_offset 16
	.cfi_offset 6, -16
	mov	rbp, rsp
	.cfi_def_cfa_register 6
	mov	DWORD PTR -4[rbp], edi
	mov	DWORD PTR -8[rbp], esi
	mov	eax, DWORD PTR -8[rbp]
	mov	edx, 1
	mov	ecx, eax
	sal	edx, cl
	mov	eax, edx
	or	eax, DWORD PTR -4[rbp]
	pop	rbp
	.cfi_def_cfa 7, 8
	ret
	.cfi_endproc
.LFE9726:
	.size	_Z7setBit1ii, .-_Z7setBit1ii
	.globl	_Z7setBit0ii
	.type	_Z7setBit0ii, @function
_Z7setBit0ii:
.LFB9727:
	.cfi_startproc
	endbr64
	push	rbp
	.cfi_def_cfa_offset 16
	.cfi_offset 6, -16
	mov	rbp, rsp
	.cfi_def_cfa_register 6
	mov	DWORD PTR -4[rbp], edi
	mov	DWORD PTR -8[rbp], esi
	mov	eax, DWORD PTR -8[rbp]
	mov	edx, 1
	mov	ecx, eax
	sal	edx, cl
	mov	eax, edx
	not	eax
	and	eax, DWORD PTR -4[rbp]
	pop	rbp
	.cfi_def_cfa 7, 8
	ret
	.cfi_endproc
.LFE9727:
	.size	_Z7setBit0ii, .-_Z7setBit0ii
	.globl	_Z7flipBitii
	.type	_Z7flipBitii, @function
_Z7flipBitii:
.LFB9728:
	.cfi_startproc
	endbr64
	push	rbp
	.cfi_def_cfa_offset 16
	.cfi_offset 6, -16
	mov	rbp, rsp
	.cfi_def_cfa_register 6
	mov	DWORD PTR -4[rbp], edi
	mov	DWORD PTR -8[rbp], esi
	mov	eax, DWORD PTR -8[rbp]
	mov	edx, 1
	mov	ecx, eax
	sal	edx, cl
	mov	eax, edx
	xor	eax, DWORD PTR -4[rbp]
	pop	rbp
	.cfi_def_cfa 7, 8
	ret
	.cfi_endproc
.LFE9728:
	.size	_Z7flipBitii, .-_Z7flipBitii
	.globl	_Z8powerOf2i
	.type	_Z8powerOf2i, @function
_Z8powerOf2i:
.LFB9729:
	.cfi_startproc
	endbr64
	push	rbp
	.cfi_def_cfa_offset 16
	.cfi_offset 6, -16
	mov	rbp, rsp
	.cfi_def_cfa_register 6
	mov	DWORD PTR -4[rbp], edi
	mov	eax, DWORD PTR -4[rbp]
	sub	eax, 1
	and	eax, DWORD PTR -4[rbp]
	test	eax, eax
	sete	al
	pop	rbp
	.cfi_def_cfa 7, 8
	ret
	.cfi_endproc
.LFE9729:
	.size	_Z8powerOf2i, .-_Z8powerOf2i
	.globl	_Z12lastBitValuei
	.type	_Z12lastBitValuei, @function
_Z12lastBitValuei:
.LFB9730:
	.cfi_startproc
	endbr64
	push	rbp
	.cfi_def_cfa_offset 16
	.cfi_offset 6, -16
	mov	rbp, rsp
	.cfi_def_cfa_register 6
	mov	DWORD PTR -4[rbp], edi
	mov	eax, DWORD PTR -4[rbp]
	neg	eax
	and	eax, DWORD PTR -4[rbp]
	pop	rbp
	.cfi_def_cfa 7, 8
	ret
	.cfi_endproc
.LFE9730:
	.size	_Z12lastBitValuei, .-_Z12lastBitValuei
	.globl	_Z16setBitsTo1Until0i
	.type	_Z16setBitsTo1Until0i, @function
_Z16setBitsTo1Until0i:
.LFB9731:
	.cfi_startproc
	endbr64
	push	rbp
	.cfi_def_cfa_offset 16
	.cfi_offset 6, -16
	mov	rbp, rsp
	.cfi_def_cfa_register 6
	sub	rsp, 24
	mov	DWORD PTR -20[rbp], edi
	cmp	DWORD PTR -20[rbp], 0
	jne	.L98
	mov	eax, -1
	jmp	.L99
.L98:
	mov	DWORD PTR -4[rbp], 0
	jmp	.L100
.L101:
	mov	edx, DWORD PTR -4[rbp]
	mov	eax, DWORD PTR -20[rbp]
	mov	esi, edx
	mov	edi, eax
	call	_Z7setBit1ii
	mov	DWORD PTR -20[rbp], eax
	add	DWORD PTR -4[rbp], 1
.L100:
	mov	eax, DWORD PTR -4[rbp]
	mov	edx, DWORD PTR -20[rbp]
	mov	ecx, eax
	sar	edx, cl
	mov	eax, edx
	and	eax, 1
	test	eax, eax
	je	.L101
	mov	eax, DWORD PTR -20[rbp]
.L99:
	leave
	.cfi_def_cfa 7, 8
	ret
	.cfi_endproc
.LFE9731:
	.size	_Z16setBitsTo1Until0i, .-_Z16setBitsTo1Until0i
	.globl	_Z16setBitsTo0Until1i
	.type	_Z16setBitsTo0Until1i, @function
_Z16setBitsTo0Until1i:
.LFB9732:
	.cfi_startproc
	endbr64
	push	rbp
	.cfi_def_cfa_offset 16
	.cfi_offset 6, -16
	mov	rbp, rsp
	.cfi_def_cfa_register 6
	sub	rsp, 24
	mov	DWORD PTR -20[rbp], edi
	mov	DWORD PTR -4[rbp], 0
	jmp	.L103
.L104:
	mov	edx, DWORD PTR -4[rbp]
	mov	eax, DWORD PTR -20[rbp]
	mov	esi, edx
	mov	edi, eax
	call	_Z7setBit0ii
	mov	DWORD PTR -20[rbp], eax
	add	DWORD PTR -4[rbp], 1
.L103:
	mov	eax, DWORD PTR -4[rbp]
	mov	edx, DWORD PTR -20[rbp]
	mov	ecx, eax
	sar	edx, cl
	mov	eax, edx
	and	eax, 1
	test	eax, eax
	jne	.L104
	mov	eax, DWORD PTR -20[rbp]
	leave
	.cfi_def_cfa 7, 8
	ret
	.cfi_endproc
.LFE9732:
	.size	_Z16setBitsTo0Until1i, .-_Z16setBitsTo0Until1i
	.globl	_Z13findFirstBit0i
	.type	_Z13findFirstBit0i, @function
_Z13findFirstBit0i:
.LFB9733:
	.cfi_startproc
	endbr64
	push	rbp
	.cfi_def_cfa_offset 16
	.cfi_offset 6, -16
	mov	rbp, rsp
	.cfi_def_cfa_register 6
	sub	rsp, 24
	mov	DWORD PTR -20[rbp], edi
	mov	DWORD PTR -4[rbp], 0
	jmp	.L107
.L108:
	add	DWORD PTR -4[rbp], 1
.L107:
	mov	edx, DWORD PTR -4[rbp]
	mov	eax, DWORD PTR -20[rbp]
	mov	esi, edx
	mov	edi, eax
	call	_Z6getBitii
	test	eax, eax
	setne	al
	test	al, al
	jne	.L108
	mov	eax, DWORD PTR -4[rbp]
	leave
	.cfi_def_cfa 7, 8
	ret
	.cfi_endproc
.LFE9733:
	.size	_Z13findFirstBit0i, .-_Z13findFirstBit0i
	.globl	_Z13findFirstBit1i
	.type	_Z13findFirstBit1i, @function
_Z13findFirstBit1i:
.LFB9734:
	.cfi_startproc
	endbr64
	push	rbp
	.cfi_def_cfa_offset 16
	.cfi_offset 6, -16
	mov	rbp, rsp
	.cfi_def_cfa_register 6
	sub	rsp, 24
	mov	DWORD PTR -20[rbp], edi
	mov	DWORD PTR -4[rbp], 0
	jmp	.L111
.L112:
	add	DWORD PTR -4[rbp], 1
.L111:
	mov	edx, DWORD PTR -4[rbp]
	mov	eax, DWORD PTR -20[rbp]
	mov	esi, edx
	mov	edi, eax
	call	_Z6getBitii
	test	eax, eax
	sete	al
	test	al, al
	jne	.L112
	mov	eax, DWORD PTR -4[rbp]
	leave
	.cfi_def_cfa 7, 8
	ret
	.cfi_endproc
.LFE9734:
	.size	_Z13findFirstBit1i, .-_Z13findFirstBit1i
	.section	.text._ZNSt12_Vector_baseISt4pairIiiESaIS1_EE12_Vector_implD2Ev,"axG",@progbits,_ZNSt12_Vector_baseISt4pairIiiESaIS1_EE12_Vector_implD5Ev,comdat
	.align 2
	.weak	_ZNSt12_Vector_baseISt4pairIiiESaIS1_EE12_Vector_implD2Ev
	.type	_ZNSt12_Vector_baseISt4pairIiiESaIS1_EE12_Vector_implD2Ev, @function
_ZNSt12_Vector_baseISt4pairIiiESaIS1_EE12_Vector_implD2Ev:
.LFB9740:
	.cfi_startproc
	endbr64
	push	rbp
	.cfi_def_cfa_offset 16
	.cfi_offset 6, -16
	mov	rbp, rsp
	.cfi_def_cfa_register 6
	sub	rsp, 16
	mov	QWORD PTR -8[rbp], rdi
	mov	rax, QWORD PTR -8[rbp]
	mov	rdi, rax
	call	_ZNSaISt4pairIiiEED2Ev
	nop
	leave
	.cfi_def_cfa 7, 8
	ret
	.cfi_endproc
.LFE9740:
	.size	_ZNSt12_Vector_baseISt4pairIiiESaIS1_EE12_Vector_implD2Ev, .-_ZNSt12_Vector_baseISt4pairIiiESaIS1_EE12_Vector_implD2Ev
	.weak	_ZNSt12_Vector_baseISt4pairIiiESaIS1_EE12_Vector_implD1Ev
	.set	_ZNSt12_Vector_baseISt4pairIiiESaIS1_EE12_Vector_implD1Ev,_ZNSt12_Vector_baseISt4pairIiiESaIS1_EE12_Vector_implD2Ev
	.section	.text._ZNSt12_Vector_baseISt4pairIiiESaIS1_EEC2Ev,"axG",@progbits,_ZNSt12_Vector_baseISt4pairIiiESaIS1_EEC5Ev,comdat
	.align 2
	.weak	_ZNSt12_Vector_baseISt4pairIiiESaIS1_EEC2Ev
	.type	_ZNSt12_Vector_baseISt4pairIiiESaIS1_EEC2Ev, @function
_ZNSt12_Vector_baseISt4pairIiiESaIS1_EEC2Ev:
.LFB9742:
	.cfi_startproc
	endbr64
	push	rbp
	.cfi_def_cfa_offset 16
	.cfi_offset 6, -16
	mov	rbp, rsp
	.cfi_def_cfa_register 6
	sub	rsp, 16
	mov	QWORD PTR -8[rbp], rdi
	mov	rax, QWORD PTR -8[rbp]
	mov	rdi, rax
	call	_ZNSt12_Vector_baseISt4pairIiiESaIS1_EE12_Vector_implC1Ev
	nop
	leave
	.cfi_def_cfa 7, 8
	ret
	.cfi_endproc
.LFE9742:
	.size	_ZNSt12_Vector_baseISt4pairIiiESaIS1_EEC2Ev, .-_ZNSt12_Vector_baseISt4pairIiiESaIS1_EEC2Ev
	.weak	_ZNSt12_Vector_baseISt4pairIiiESaIS1_EEC1Ev
	.set	_ZNSt12_Vector_baseISt4pairIiiESaIS1_EEC1Ev,_ZNSt12_Vector_baseISt4pairIiiESaIS1_EEC2Ev
	.section	.text._ZNSt6vectorISt4pairIiiESaIS1_EEC2Ev,"axG",@progbits,_ZNSt6vectorISt4pairIiiESaIS1_EEC5Ev,comdat
	.align 2
	.weak	_ZNSt6vectorISt4pairIiiESaIS1_EEC2Ev
	.type	_ZNSt6vectorISt4pairIiiESaIS1_EEC2Ev, @function
_ZNSt6vectorISt4pairIiiESaIS1_EEC2Ev:
.LFB9744:
	.cfi_startproc
	endbr64
	push	rbp
	.cfi_def_cfa_offset 16
	.cfi_offset 6, -16
	mov	rbp, rsp
	.cfi_def_cfa_register 6
	sub	rsp, 16
	mov	QWORD PTR -8[rbp], rdi
	mov	rax, QWORD PTR -8[rbp]
	mov	rdi, rax
	call	_ZNSt12_Vector_baseISt4pairIiiESaIS1_EEC2Ev
	nop
	leave
	.cfi_def_cfa 7, 8
	ret
	.cfi_endproc
.LFE9744:
	.size	_ZNSt6vectorISt4pairIiiESaIS1_EEC2Ev, .-_ZNSt6vectorISt4pairIiiESaIS1_EEC2Ev
	.weak	_ZNSt6vectorISt4pairIiiESaIS1_EEC1Ev
	.set	_ZNSt6vectorISt4pairIiiESaIS1_EEC1Ev,_ZNSt6vectorISt4pairIiiESaIS1_EEC2Ev
	.section	.text._ZNSt8_Rb_treeIiSt4pairIKiiESt10_Select1stIS2_ESt4lessIiESaIS2_EE13_Rb_tree_implIS6_Lb1EED2Ev,"axG",@progbits,_ZNSt8_Rb_treeIiSt4pairIKiiESt10_Select1stIS2_ESt4lessIiESaIS2_EE13_Rb_tree_implIS6_Lb1EED5Ev,comdat
	.align 2
	.weak	_ZNSt8_Rb_treeIiSt4pairIKiiESt10_Select1stIS2_ESt4lessIiESaIS2_EE13_Rb_tree_implIS6_Lb1EED2Ev
	.type	_ZNSt8_Rb_treeIiSt4pairIKiiESt10_Select1stIS2_ESt4lessIiESaIS2_EE13_Rb_tree_implIS6_Lb1EED2Ev, @function
_ZNSt8_Rb_treeIiSt4pairIKiiESt10_Select1stIS2_ESt4lessIiESaIS2_EE13_Rb_tree_implIS6_Lb1EED2Ev:
.LFB9752:
	.cfi_startproc
	endbr64
	push	rbp
	.cfi_def_cfa_offset 16
	.cfi_offset 6, -16
	mov	rbp, rsp
	.cfi_def_cfa_register 6
	sub	rsp, 16
	mov	QWORD PTR -8[rbp], rdi
	mov	rax, QWORD PTR -8[rbp]
	mov	rdi, rax
	call	_ZNSaISt13_Rb_tree_nodeISt4pairIKiiEEED2Ev
	nop
	leave
	.cfi_def_cfa 7, 8
	ret
	.cfi_endproc
.LFE9752:
	.size	_ZNSt8_Rb_treeIiSt4pairIKiiESt10_Select1stIS2_ESt4lessIiESaIS2_EE13_Rb_tree_implIS6_Lb1EED2Ev, .-_ZNSt8_Rb_treeIiSt4pairIKiiESt10_Select1stIS2_ESt4lessIiESaIS2_EE13_Rb_tree_implIS6_Lb1EED2Ev
	.weak	_ZNSt8_Rb_treeIiSt4pairIKiiESt10_Select1stIS2_ESt4lessIiESaIS2_EE13_Rb_tree_implIS6_Lb1EED1Ev
	.set	_ZNSt8_Rb_treeIiSt4pairIKiiESt10_Select1stIS2_ESt4lessIiESaIS2_EE13_Rb_tree_implIS6_Lb1EED1Ev,_ZNSt8_Rb_treeIiSt4pairIKiiESt10_Select1stIS2_ESt4lessIiESaIS2_EE13_Rb_tree_implIS6_Lb1EED2Ev
	.section	.text._ZNSt8_Rb_treeIiSt4pairIKiiESt10_Select1stIS2_ESt4lessIiESaIS2_EEC2Ev,"axG",@progbits,_ZNSt8_Rb_treeIiSt4pairIKiiESt10_Select1stIS2_ESt4lessIiESaIS2_EEC5Ev,comdat
	.align 2
	.weak	_ZNSt8_Rb_treeIiSt4pairIKiiESt10_Select1stIS2_ESt4lessIiESaIS2_EEC2Ev
	.type	_ZNSt8_Rb_treeIiSt4pairIKiiESt10_Select1stIS2_ESt4lessIiESaIS2_EEC2Ev, @function
_ZNSt8_Rb_treeIiSt4pairIKiiESt10_Select1stIS2_ESt4lessIiESaIS2_EEC2Ev:
.LFB9754:
	.cfi_startproc
	endbr64
	push	rbp
	.cfi_def_cfa_offset 16
	.cfi_offset 6, -16
	mov	rbp, rsp
	.cfi_def_cfa_register 6
	sub	rsp, 16
	mov	QWORD PTR -8[rbp], rdi
	mov	rax, QWORD PTR -8[rbp]
	mov	rdi, rax
	call	_ZNSt8_Rb_treeIiSt4pairIKiiESt10_Select1stIS2_ESt4lessIiESaIS2_EE13_Rb_tree_implIS6_Lb1EEC1Ev
	nop
	leave
	.cfi_def_cfa 7, 8
	ret
	.cfi_endproc
.LFE9754:
	.size	_ZNSt8_Rb_treeIiSt4pairIKiiESt10_Select1stIS2_ESt4lessIiESaIS2_EEC2Ev, .-_ZNSt8_Rb_treeIiSt4pairIKiiESt10_Select1stIS2_ESt4lessIiESaIS2_EEC2Ev
	.weak	_ZNSt8_Rb_treeIiSt4pairIKiiESt10_Select1stIS2_ESt4lessIiESaIS2_EEC1Ev
	.set	_ZNSt8_Rb_treeIiSt4pairIKiiESt10_Select1stIS2_ESt4lessIiESaIS2_EEC1Ev,_ZNSt8_Rb_treeIiSt4pairIKiiESt10_Select1stIS2_ESt4lessIiESaIS2_EEC2Ev
	.section	.text._ZNSt3mapIiiSt4lessIiESaISt4pairIKiiEEEC2Ev,"axG",@progbits,_ZNSt3mapIiiSt4lessIiESaISt4pairIKiiEEEC5Ev,comdat
	.align 2
	.weak	_ZNSt3mapIiiSt4lessIiESaISt4pairIKiiEEEC2Ev
	.type	_ZNSt3mapIiiSt4lessIiESaISt4pairIKiiEEEC2Ev, @function
_ZNSt3mapIiiSt4lessIiESaISt4pairIKiiEEEC2Ev:
.LFB9756:
	.cfi_startproc
	endbr64
	push	rbp
	.cfi_def_cfa_offset 16
	.cfi_offset 6, -16
	mov	rbp, rsp
	.cfi_def_cfa_register 6
	sub	rsp, 16
	mov	QWORD PTR -8[rbp], rdi
	mov	rax, QWORD PTR -8[rbp]
	mov	rdi, rax
	call	_ZNSt8_Rb_treeIiSt4pairIKiiESt10_Select1stIS2_ESt4lessIiESaIS2_EEC1Ev
	nop
	leave
	.cfi_def_cfa 7, 8
	ret
	.cfi_endproc
.LFE9756:
	.size	_ZNSt3mapIiiSt4lessIiESaISt4pairIKiiEEEC2Ev, .-_ZNSt3mapIiiSt4lessIiESaISt4pairIKiiEEEC2Ev
	.weak	_ZNSt3mapIiiSt4lessIiESaISt4pairIKiiEEEC1Ev
	.set	_ZNSt3mapIiiSt4lessIiESaISt4pairIKiiEEEC1Ev,_ZNSt3mapIiiSt4lessIiESaISt4pairIKiiEEEC2Ev
	.section	.text._ZNSt3mapIiiSt4lessIiESaISt4pairIKiiEEED2Ev,"axG",@progbits,_ZNSt3mapIiiSt4lessIiESaISt4pairIKiiEEED5Ev,comdat
	.align 2
	.weak	_ZNSt3mapIiiSt4lessIiESaISt4pairIKiiEEED2Ev
	.type	_ZNSt3mapIiiSt4lessIiESaISt4pairIKiiEEED2Ev, @function
_ZNSt3mapIiiSt4lessIiESaISt4pairIKiiEEED2Ev:
.LFB9759:
	.cfi_startproc
	endbr64
	push	rbp
	.cfi_def_cfa_offset 16
	.cfi_offset 6, -16
	mov	rbp, rsp
	.cfi_def_cfa_register 6
	sub	rsp, 16
	mov	QWORD PTR -8[rbp], rdi
	mov	rax, QWORD PTR -8[rbp]
	mov	rdi, rax
	call	_ZNSt8_Rb_treeIiSt4pairIKiiESt10_Select1stIS2_ESt4lessIiESaIS2_EED1Ev
	nop
	leave
	.cfi_def_cfa 7, 8
	ret
	.cfi_endproc
.LFE9759:
	.size	_ZNSt3mapIiiSt4lessIiESaISt4pairIKiiEEED2Ev, .-_ZNSt3mapIiiSt4lessIiESaISt4pairIKiiEEED2Ev
	.weak	_ZNSt3mapIiiSt4lessIiESaISt4pairIKiiEEED1Ev
	.set	_ZNSt3mapIiiSt4lessIiESaISt4pairIKiiEEED1Ev,_ZNSt3mapIiiSt4lessIiESaISt4pairIKiiEEED2Ev
	.section	.rodata
.LC0:
	.string	"NO"
.LC1:
	.string	"YES"
.LC2:
	.string	"\n"
.LC3:
	.string	" "
	.text
	.globl	main
	.type	main, @function
main:
.LFB9735:
	.cfi_startproc
	.cfi_personality 0x9b,DW.ref.__gxx_personality_v0
	.cfi_lsda 0x1b,.LLSDA9735
	endbr64
	push	rbp
	.cfi_def_cfa_offset 16
	.cfi_offset 6, -16
	mov	rbp, rsp
	.cfi_def_cfa_register 6
	push	rbx
	sub	rsp, 168
	.cfi_offset 3, -24
	mov	rax, QWORD PTR fs:40
	mov	QWORD PTR -24[rbp], rax
	xor	eax, eax
	mov	edi, 0
.LEHB3:
	call	_ZNSt8ios_base15sync_with_stdioEb@PLT
	mov	esi, 0
	lea	rax, _ZSt3cin[rip+16]
	mov	rdi, rax
	call	_ZNSt9basic_iosIcSt11char_traitsIcEE3tieEPSo@PLT
	mov	esi, 0
	lea	rax, _ZSt4cout[rip+8]
	mov	rdi, rax
	call	_ZNSt9basic_iosIcSt11char_traitsIcEE3tieEPSo@PLT
	lea	rax, -176[rbp]
	mov	rsi, rax
	lea	rax, _ZSt3cin[rip]
	mov	rdi, rax
	call	_ZNSirsERi@PLT
	mov	rdx, rax
	lea	rax, -172[rbp]
	mov	rsi, rax
	mov	rdi, rdx
	call	_ZNSirsERi@PLT
.LEHE3:
	lea	rax, -80[rbp]
	mov	rdi, rax
	call	_ZNSaIiEC1Ev
	mov	eax, DWORD PTR -176[rbp]
	movsx	rcx, eax
	lea	rdx, -80[rbp]
	lea	rax, -144[rbp]
	mov	rsi, rcx
	mov	rdi, rax
.LEHB4:
	call	_ZNSt6vectorIiSaIiEEC1EmRKS0_
.LEHE4:
	lea	rax, -80[rbp]
	mov	rdi, rax
	call	_ZNSaIiED1Ev
	lea	rax, -112[rbp]
	mov	rdi, rax
	call	_ZNSt6vectorISt4pairIiiESaIS1_EEC1Ev
	lea	rax, -80[rbp]
	mov	rdi, rax
	call	_ZNSt3mapIiiSt4lessIiESaISt4pairIKiiEEEC1Ev
	mov	DWORD PTR -164[rbp], 0
	jmp	.L122
.L123:
	mov	eax, DWORD PTR -164[rbp]
	movsx	rdx, eax
	lea	rax, -144[rbp]
	mov	rsi, rdx
	mov	rdi, rax
	call	_ZNSt6vectorIiSaIiEEixEm
	mov	rsi, rax
	lea	rax, _ZSt3cin[rip]
	mov	rdi, rax
.LEHB5:
	call	_ZNSirsERi@PLT
	add	DWORD PTR -164[rbp], 1
.L122:
	mov	eax, DWORD PTR -176[rbp]
	cmp	DWORD PTR -164[rbp], eax
	jl	.L123
	mov	DWORD PTR -160[rbp], 0
	jmp	.L124
.L126:
	mov	eax, DWORD PTR -160[rbp]
	movsx	rdx, eax
	lea	rax, -144[rbp]
	mov	rsi, rdx
	mov	rdi, rax
	call	_ZNSt6vectorIiSaIiEEixEm
	mov	rdx, rax
	lea	rax, -80[rbp]
	mov	rsi, rdx
	mov	rdi, rax
	call	_ZNSt3mapIiiSt4lessIiESaISt4pairIKiiEEEixERS3_
	mov	eax, DWORD PTR [rax]
	test	eax, eax
	sete	al
	test	al, al
	je	.L125
	mov	eax, DWORD PTR -160[rbp]
	movsx	rdx, eax
	lea	rax, -144[rbp]
	mov	rsi, rdx
	mov	rdi, rax
	call	_ZNSt6vectorIiSaIiEEixEm
	mov	rdx, rax
	lea	rax, -80[rbp]
	mov	rsi, rdx
	mov	rdi, rax
	call	_ZNSt3mapIiiSt4lessIiESaISt4pairIKiiEEEixERS3_
	mov	edx, DWORD PTR [rax]
	add	edx, 1
	mov	DWORD PTR [rax], edx
	mov	eax, DWORD PTR -160[rbp]
	movsx	rdx, eax
	lea	rax, -144[rbp]
	mov	rsi, rdx
	mov	rdi, rax
	call	_ZNSt6vectorIiSaIiEEixEm
	mov	rcx, rax
	mov	eax, DWORD PTR -160[rbp]
	add	eax, 1
	mov	DWORD PTR -168[rbp], eax
	lea	rdx, -168[rbp]
	lea	rax, -152[rbp]
	mov	rsi, rcx
	mov	rdi, rax
	call	_ZNSt4pairIiiEC1IRiiLb1EEEOT_OT0_
	lea	rdx, -152[rbp]
	lea	rax, -112[rbp]
	mov	rsi, rdx
	mov	rdi, rax
	call	_ZNSt6vectorISt4pairIiiESaIS1_EE9push_backEOS1_
.L125:
	add	DWORD PTR -160[rbp], 1
.L124:
	mov	eax, DWORD PTR -176[rbp]
	cmp	DWORD PTR -160[rbp], eax
	jl	.L126
	lea	rax, -112[rbp]
	mov	rdi, rax
	call	_ZNKSt6vectorISt4pairIiiESaIS1_EE4sizeEv
	mov	edx, DWORD PTR -172[rbp]
	movsx	rdx, edx
	cmp	rax, rdx
	setb	al
	test	al, al
	je	.L127
	lea	rax, .LC0[rip]
	mov	rsi, rax
	lea	rax, _ZSt4cout[rip]
	mov	rdi, rax
	call	_ZStlsISt11char_traitsIcEERSt13basic_ostreamIcT_ES5_PKc@PLT
	jmp	.L128
.L127:
	lea	rax, .LC1[rip]
	mov	rsi, rax
	lea	rax, _ZSt4cout[rip]
	mov	rdi, rax
	call	_ZStlsISt11char_traitsIcEERSt13basic_ostreamIcT_ES5_PKc@PLT
	mov	rdx, rax
	lea	rax, .LC2[rip]
	mov	rsi, rax
	mov	rdi, rdx
	call	_ZStlsISt11char_traitsIcEERSt13basic_ostreamIcT_ES5_PKc@PLT
	mov	DWORD PTR -156[rbp], 0
	jmp	.L129
.L130:
	mov	eax, DWORD PTR -156[rbp]
	movsx	rdx, eax
	lea	rax, -112[rbp]
	mov	rsi, rdx
	mov	rdi, rax
	call	_ZNSt6vectorISt4pairIiiESaIS1_EEixEm
	mov	eax, DWORD PTR 4[rax]
	mov	esi, eax
	lea	rax, _ZSt4cout[rip]
	mov	rdi, rax
	call	_ZNSolsEi@PLT
	mov	rdx, rax
	lea	rax, .LC3[rip]
	mov	rsi, rax
	mov	rdi, rdx
	call	_ZStlsISt11char_traitsIcEERSt13basic_ostreamIcT_ES5_PKc@PLT
.LEHE5:
	add	DWORD PTR -156[rbp], 1
.L129:
	mov	eax, DWORD PTR -172[rbp]
	cmp	DWORD PTR -156[rbp], eax
	jl	.L130
.L128:
	lea	rax, -80[rbp]
	mov	rdi, rax
	call	_ZNSt3mapIiiSt4lessIiESaISt4pairIKiiEEED1Ev
	lea	rax, -112[rbp]
	mov	rdi, rax
	call	_ZNSt6vectorISt4pairIiiESaIS1_EED1Ev
	lea	rax, -144[rbp]
	mov	rdi, rax
	call	_ZNSt6vectorIiSaIiEED1Ev
	mov	eax, 0
	mov	rdx, QWORD PTR -24[rbp]
	sub	rdx, QWORD PTR fs:40
	je	.L134
	jmp	.L137
.L135:
	endbr64
	mov	rbx, rax
	lea	rax, -80[rbp]
	mov	rdi, rax
	call	_ZNSaIiED1Ev
	mov	rax, rbx
	mov	rdi, rax
.LEHB6:
	call	_Unwind_Resume@PLT
.L136:
	endbr64
	mov	rbx, rax
	lea	rax, -80[rbp]
	mov	rdi, rax
	call	_ZNSt3mapIiiSt4lessIiESaISt4pairIKiiEEED1Ev
	lea	rax, -112[rbp]
	mov	rdi, rax
	call	_ZNSt6vectorISt4pairIiiESaIS1_EED1Ev
	lea	rax, -144[rbp]
	mov	rdi, rax
	call	_ZNSt6vectorIiSaIiEED1Ev
	mov	rax, rbx
	mov	rdi, rax
	call	_Unwind_Resume@PLT
.LEHE6:
.L137:
	call	__stack_chk_fail@PLT
.L134:
	mov	rbx, QWORD PTR -8[rbp]
	leave
	.cfi_def_cfa 7, 8
	ret
	.cfi_endproc
.LFE9735:
	.section	.gcc_except_table
.LLSDA9735:
	.byte	0xff
	.byte	0xff
	.byte	0x1
	.uleb128 .LLSDACSE9735-.LLSDACSB9735
.LLSDACSB9735:
	.uleb128 .LEHB3-.LFB9735
	.uleb128 .LEHE3-.LEHB3
	.uleb128 0
	.uleb128 0
	.uleb128 .LEHB4-.LFB9735
	.uleb128 .LEHE4-.LEHB4
	.uleb128 .L135-.LFB9735
	.uleb128 0
	.uleb128 .LEHB5-.LFB9735
	.uleb128 .LEHE5-.LEHB5
	.uleb128 .L136-.LFB9735
	.uleb128 0
	.uleb128 .LEHB6-.LFB9735
	.uleb128 .LEHE6-.LEHB6
	.uleb128 0
	.uleb128 0
.LLSDACSE9735:
	.text
	.size	main, .-main
	.section	.text._ZSt3maxImERKT_S2_S2_,"axG",@progbits,_ZSt3maxImERKT_S2_S2_,comdat
	.weak	_ZSt3maxImERKT_S2_S2_
	.type	_ZSt3maxImERKT_S2_S2_, @function
_ZSt3maxImERKT_S2_S2_:
.LFB10081:
	.cfi_startproc
	endbr64
	push	rbp
	.cfi_def_cfa_offset 16
	.cfi_offset 6, -16
	mov	rbp, rsp
	.cfi_def_cfa_register 6
	mov	QWORD PTR -8[rbp], rdi
	mov	QWORD PTR -16[rbp], rsi
	mov	rax, QWORD PTR -8[rbp]
	mov	rdx, QWORD PTR [rax]
	mov	rax, QWORD PTR -16[rbp]
	mov	rax, QWORD PTR [rax]
	cmp	rdx, rax
	jnb	.L139
	mov	rax, QWORD PTR -16[rbp]
	jmp	.L140
.L139:
	mov	rax, QWORD PTR -8[rbp]
.L140:
	pop	rbp
	.cfi_def_cfa 7, 8
	ret
	.cfi_endproc
.LFE10081:
	.size	_ZSt3maxImERKT_S2_S2_, .-_ZSt3maxImERKT_S2_S2_
	.section	.text._ZSt7forwardIiEOT_RNSt16remove_referenceIS0_E4typeE,"axG",@progbits,_ZSt7forwardIiEOT_RNSt16remove_referenceIS0_E4typeE,comdat
	.weak	_ZSt7forwardIiEOT_RNSt16remove_referenceIS0_E4typeE
	.type	_ZSt7forwardIiEOT_RNSt16remove_referenceIS0_E4typeE, @function
_ZSt7forwardIiEOT_RNSt16remove_referenceIS0_E4typeE:
.LFB10086:
	.cfi_startproc
	endbr64
	push	rbp
	.cfi_def_cfa_offset 16
	.cfi_offset 6, -16
	mov	rbp, rsp
	.cfi_def_cfa_register 6
	mov	QWORD PTR -8[rbp], rdi
	mov	rax, QWORD PTR -8[rbp]
	pop	rbp
	.cfi_def_cfa 7, 8
	ret
	.cfi_endproc
.LFE10086:
	.size	_ZSt7forwardIiEOT_RNSt16remove_referenceIS0_E4typeE, .-_ZSt7forwardIiEOT_RNSt16remove_referenceIS0_E4typeE
	.section	.text._ZNSt12_Vector_baseIxSaIxEE12_Vector_implC2Ev,"axG",@progbits,_ZNSt12_Vector_baseIxSaIxEE12_Vector_implC5Ev,comdat
	.align 2
	.weak	_ZNSt12_Vector_baseIxSaIxEE12_Vector_implC2Ev
	.type	_ZNSt12_Vector_baseIxSaIxEE12_Vector_implC2Ev, @function
_ZNSt12_Vector_baseIxSaIxEE12_Vector_implC2Ev:
.LFB10458:
	.cfi_startproc
	endbr64
	push	rbp
	.cfi_def_cfa_offset 16
	.cfi_offset 6, -16
	mov	rbp, rsp
	.cfi_def_cfa_register 6
	sub	rsp, 16
	mov	QWORD PTR -8[rbp], rdi
	mov	rax, QWORD PTR -8[rbp]
	mov	rdi, rax
	call	_ZNSaIxEC2Ev
	mov	rax, QWORD PTR -8[rbp]
	mov	rdi, rax
	call	_ZNSt12_Vector_baseIxSaIxEE17_Vector_impl_dataC2Ev
	nop
	leave
	.cfi_def_cfa 7, 8
	ret
	.cfi_endproc
.LFE10458:
	.size	_ZNSt12_Vector_baseIxSaIxEE12_Vector_implC2Ev, .-_ZNSt12_Vector_baseIxSaIxEE12_Vector_implC2Ev
	.weak	_ZNSt12_Vector_baseIxSaIxEE12_Vector_implC1Ev
	.set	_ZNSt12_Vector_baseIxSaIxEE12_Vector_implC1Ev,_ZNSt12_Vector_baseIxSaIxEE12_Vector_implC2Ev
	.section	.text._ZNSaIxED2Ev,"axG",@progbits,_ZNSaIxED5Ev,comdat
	.align 2
	.weak	_ZNSaIxED2Ev
	.type	_ZNSaIxED2Ev, @function
_ZNSaIxED2Ev:
.LFB10461:
	.cfi_startproc
	endbr64
	push	rbp
	.cfi_def_cfa_offset 16
	.cfi_offset 6, -16
	mov	rbp, rsp
	.cfi_def_cfa_register 6
	sub	rsp, 16
	mov	QWORD PTR -8[rbp], rdi
	mov	rax, QWORD PTR -8[rbp]
	mov	rdi, rax
	call	_ZN9__gnu_cxx13new_allocatorIxED2Ev
	nop
	leave
	.cfi_def_cfa 7, 8
	ret
	.cfi_endproc
.LFE10461:
	.size	_ZNSaIxED2Ev, .-_ZNSaIxED2Ev
	.weak	_ZNSaIxED1Ev
	.set	_ZNSaIxED1Ev,_ZNSaIxED2Ev
	.section	.text._ZNSt12_Vector_baseIxSaIxEED2Ev,"axG",@progbits,_ZNSt12_Vector_baseIxSaIxEED5Ev,comdat
	.align 2
	.weak	_ZNSt12_Vector_baseIxSaIxEED2Ev
	.type	_ZNSt12_Vector_baseIxSaIxEED2Ev, @function
_ZNSt12_Vector_baseIxSaIxEED2Ev:
.LFB10464:
	.cfi_startproc
	.cfi_personality 0x9b,DW.ref.__gxx_personality_v0
	.cfi_lsda 0x1b,.LLSDA10464
	endbr64
	push	rbp
	.cfi_def_cfa_offset 16
	.cfi_offset 6, -16
	mov	rbp, rsp
	.cfi_def_cfa_register 6
	sub	rsp, 16
	mov	QWORD PTR -8[rbp], rdi
	mov	rax, QWORD PTR -8[rbp]
	mov	rdx, QWORD PTR 16[rax]
	mov	rax, QWORD PTR -8[rbp]
	mov	rcx, QWORD PTR [rax]
	mov	rax, rdx
	sub	rax, rcx
	sar	rax, 3
	mov	rdx, rax
	mov	rax, QWORD PTR -8[rbp]
	mov	rcx, QWORD PTR [rax]
	mov	rax, QWORD PTR -8[rbp]
	mov	rsi, rcx
	mov	rdi, rax
	call	_ZNSt12_Vector_baseIxSaIxEE13_M_deallocateEPxm
	mov	rax, QWORD PTR -8[rbp]
	mov	rdi, rax
	call	_ZNSt12_Vector_baseIxSaIxEE12_Vector_implD1Ev
	nop
	leave
	.cfi_def_cfa 7, 8
	ret
	.cfi_endproc
.LFE10464:
	.section	.gcc_except_table
.LLSDA10464:
	.byte	0xff
	.byte	0xff
	.byte	0x1
	.uleb128 .LLSDACSE10464-.LLSDACSB10464
.LLSDACSB10464:
.LLSDACSE10464:
	.section	.text._ZNSt12_Vector_baseIxSaIxEED2Ev,"axG",@progbits,_ZNSt12_Vector_baseIxSaIxEED5Ev,comdat
	.size	_ZNSt12_Vector_baseIxSaIxEED2Ev, .-_ZNSt12_Vector_baseIxSaIxEED2Ev
	.weak	_ZNSt12_Vector_baseIxSaIxEED1Ev
	.set	_ZNSt12_Vector_baseIxSaIxEED1Ev,_ZNSt12_Vector_baseIxSaIxEED2Ev
	.section	.text._ZNSt6vectorIxSaIxEE9push_backEOx,"axG",@progbits,_ZNSt6vectorIxSaIxEE9push_backEOx,comdat
	.align 2
	.weak	_ZNSt6vectorIxSaIxEE9push_backEOx
	.type	_ZNSt6vectorIxSaIxEE9push_backEOx, @function
_ZNSt6vectorIxSaIxEE9push_backEOx:
.LFB10466:
	.cfi_startproc
	endbr64
	push	rbp
	.cfi_def_cfa_offset 16
	.cfi_offset 6, -16
	mov	rbp, rsp
	.cfi_def_cfa_register 6
	sub	rsp, 16
	mov	QWORD PTR -8[rbp], rdi
	mov	QWORD PTR -16[rbp], rsi
	mov	rax, QWORD PTR -16[rbp]
	mov	rdi, rax
	call	_ZSt4moveIRxEONSt16remove_referenceIT_E4typeEOS2_
	mov	rdx, rax
	mov	rax, QWORD PTR -8[rbp]
	mov	rsi, rdx
	mov	rdi, rax
	call	_ZNSt6vectorIxSaIxEE12emplace_backIJxEEERxDpOT_
	nop
	leave
	.cfi_def_cfa 7, 8
	ret
	.cfi_endproc
.LFE10466:
	.size	_ZNSt6vectorIxSaIxEE9push_backEOx, .-_ZNSt6vectorIxSaIxEE9push_backEOx
	.section	.text._ZNKSt6vectorIxSaIxEE4sizeEv,"axG",@progbits,_ZNKSt6vectorIxSaIxEE4sizeEv,comdat
	.align 2
	.weak	_ZNKSt6vectorIxSaIxEE4sizeEv
	.type	_ZNKSt6vectorIxSaIxEE4sizeEv, @function
_ZNKSt6vectorIxSaIxEE4sizeEv:
.LFB10467:
	.cfi_startproc
	endbr64
	push	rbp
	.cfi_def_cfa_offset 16
	.cfi_offset 6, -16
	mov	rbp, rsp
	.cfi_def_cfa_register 6
	mov	QWORD PTR -8[rbp], rdi
	mov	rax, QWORD PTR -8[rbp]
	mov	rdx, QWORD PTR 8[rax]
	mov	rax, QWORD PTR -8[rbp]
	mov	rcx, QWORD PTR [rax]
	mov	rax, rdx
	sub	rax, rcx
	sar	rax, 3
	pop	rbp
	.cfi_def_cfa 7, 8
	ret
	.cfi_endproc
.LFE10467:
	.size	_ZNKSt6vectorIxSaIxEE4sizeEv, .-_ZNKSt6vectorIxSaIxEE4sizeEv
	.section	.text._ZNSt6vectorIxSaIxEEixEm,"axG",@progbits,_ZNSt6vectorIxSaIxEEixEm,comdat
	.align 2
	.weak	_ZNSt6vectorIxSaIxEEixEm
	.type	_ZNSt6vectorIxSaIxEEixEm, @function
_ZNSt6vectorIxSaIxEEixEm:
.LFB10468:
	.cfi_startproc
	endbr64
	push	rbp
	.cfi_def_cfa_offset 16
	.cfi_offset 6, -16
	mov	rbp, rsp
	.cfi_def_cfa_register 6
	mov	QWORD PTR -8[rbp], rdi
	mov	QWORD PTR -16[rbp], rsi
	mov	rax, QWORD PTR -8[rbp]
	mov	rdx, QWORD PTR [rax]
	mov	rax, QWORD PTR -16[rbp]
	sal	rax, 3
	add	rax, rdx
	pop	rbp
	.cfi_def_cfa 7, 8
	ret
	.cfi_endproc
.LFE10468:
	.size	_ZNSt6vectorIxSaIxEEixEm, .-_ZNSt6vectorIxSaIxEEixEm
	.section	.text._ZSt4sqrtIiEN9__gnu_cxx11__enable_ifIXsrSt12__is_integerIT_E7__valueEdE6__typeES3_,"axG",@progbits,_ZSt4sqrtIiEN9__gnu_cxx11__enable_ifIXsrSt12__is_integerIT_E7__valueEdE6__typeES3_,comdat
	.weak	_ZSt4sqrtIiEN9__gnu_cxx11__enable_ifIXsrSt12__is_integerIT_E7__valueEdE6__typeES3_
	.type	_ZSt4sqrtIiEN9__gnu_cxx11__enable_ifIXsrSt12__is_integerIT_E7__valueEdE6__typeES3_, @function
_ZSt4sqrtIiEN9__gnu_cxx11__enable_ifIXsrSt12__is_integerIT_E7__valueEdE6__typeES3_:
.LFB10469:
	.cfi_startproc
	endbr64
	push	rbp
	.cfi_def_cfa_offset 16
	.cfi_offset 6, -16
	mov	rbp, rsp
	.cfi_def_cfa_register 6
	sub	rsp, 16
	mov	DWORD PTR -4[rbp], edi
	pxor	xmm1, xmm1
	cvtsi2sd	xmm1, DWORD PTR -4[rbp]
	movq	rax, xmm1
	movq	xmm0, rax
	call	sqrt@PLT
	movq	rax, xmm0
	movq	xmm0, rax
	leave
	.cfi_def_cfa 7, 8
	ret
	.cfi_endproc
.LFE10469:
	.size	_ZSt4sqrtIiEN9__gnu_cxx11__enable_ifIXsrSt12__is_integerIT_E7__valueEdE6__typeES3_, .-_ZSt4sqrtIiEN9__gnu_cxx11__enable_ifIXsrSt12__is_integerIT_E7__valueEdE6__typeES3_
	.section	.text._ZSt7reverseIN9__gnu_cxx17__normal_iteratorIPcNSt7__cxx1112basic_stringIcSt11char_traitsIcESaIcEEEEEEvT_SA_,"axG",@progbits,_ZSt7reverseIN9__gnu_cxx17__normal_iteratorIPcNSt7__cxx1112basic_stringIcSt11char_traitsIcESaIcEEEEEEvT_SA_,comdat
	.weak	_ZSt7reverseIN9__gnu_cxx17__normal_iteratorIPcNSt7__cxx1112basic_stringIcSt11char_traitsIcESaIcEEEEEEvT_SA_
	.type	_ZSt7reverseIN9__gnu_cxx17__normal_iteratorIPcNSt7__cxx1112basic_stringIcSt11char_traitsIcESaIcEEEEEEvT_SA_, @function
_ZSt7reverseIN9__gnu_cxx17__normal_iteratorIPcNSt7__cxx1112basic_stringIcSt11char_traitsIcESaIcEEEEEEvT_SA_:
.LFB10472:
	.cfi_startproc
	endbr64
	push	rbp
	.cfi_def_cfa_offset 16
	.cfi_offset 6, -16
	mov	rbp, rsp
	.cfi_def_cfa_register 6
	sub	rsp, 16
	mov	QWORD PTR -8[rbp], rdi
	mov	QWORD PTR -16[rbp], rsi
	lea	rax, -8[rbp]
	mov	rdi, rax
	call	_ZSt19__iterator_categoryIN9__gnu_cxx17__normal_iteratorIPcNSt7__cxx1112basic_stringIcSt11char_traitsIcESaIcEEEEEENSt15iterator_traitsIT_E17iterator_categoryERKSB_
	mov	rdx, QWORD PTR -16[rbp]
	mov	rax, QWORD PTR -8[rbp]
	mov	rsi, rdx
	mov	rdi, rax
	call	_ZSt9__reverseIN9__gnu_cxx17__normal_iteratorIPcNSt7__cxx1112basic_stringIcSt11char_traitsIcESaIcEEEEEEvT_SA_St26random_access_iterator_tag
	nop
	leave
	.cfi_def_cfa 7, 8
	ret
	.cfi_endproc
.LFE10472:
	.size	_ZSt7reverseIN9__gnu_cxx17__normal_iteratorIPcNSt7__cxx1112basic_stringIcSt11char_traitsIcESaIcEEEEEEvT_SA_, .-_ZSt7reverseIN9__gnu_cxx17__normal_iteratorIPcNSt7__cxx1112basic_stringIcSt11char_traitsIcESaIcEEEEEEvT_SA_
	.section	.text._ZSteqIcEN9__gnu_cxx11__enable_ifIXsrSt9__is_charIT_E7__valueEbE6__typeERKNSt7__cxx1112basic_stringIS3_St11char_traitsIS3_ESaIS3_EEESE_,"axG",@progbits,_ZSteqIcEN9__gnu_cxx11__enable_ifIXsrSt9__is_charIT_E7__valueEbE6__typeERKNSt7__cxx1112basic_stringIS3_St11char_traitsIS3_ESaIS3_EEESE_,comdat
	.weak	_ZSteqIcEN9__gnu_cxx11__enable_ifIXsrSt9__is_charIT_E7__valueEbE6__typeERKNSt7__cxx1112basic_stringIS3_St11char_traitsIS3_ESaIS3_EEESE_
	.type	_ZSteqIcEN9__gnu_cxx11__enable_ifIXsrSt9__is_charIT_E7__valueEbE6__typeERKNSt7__cxx1112basic_stringIS3_St11char_traitsIS3_ESaIS3_EEESE_, @function
_ZSteqIcEN9__gnu_cxx11__enable_ifIXsrSt9__is_charIT_E7__valueEbE6__typeERKNSt7__cxx1112basic_stringIS3_St11char_traitsIS3_ESaIS3_EEESE_:
.LFB10473:
	.cfi_startproc
	endbr64
	push	rbp
	.cfi_def_cfa_offset 16
	.cfi_offset 6, -16
	mov	rbp, rsp
	.cfi_def_cfa_register 6
	push	r12
	push	rbx
	sub	rsp, 16
	.cfi_offset 12, -24
	.cfi_offset 3, -32
	mov	QWORD PTR -24[rbp], rdi
	mov	QWORD PTR -32[rbp], rsi
	mov	rax, QWORD PTR -24[rbp]
	mov	rdi, rax
	call	_ZNKSt7__cxx1112basic_stringIcSt11char_traitsIcESaIcEE4sizeEv@PLT
	mov	rbx, rax
	mov	rax, QWORD PTR -32[rbp]
	mov	rdi, rax
	call	_ZNKSt7__cxx1112basic_stringIcSt11char_traitsIcESaIcEE4sizeEv@PLT
	cmp	rbx, rax
	jne	.L155
	mov	rax, QWORD PTR -24[rbp]
	mov	rdi, rax
	call	_ZNKSt7__cxx1112basic_stringIcSt11char_traitsIcESaIcEE4sizeEv@PLT
	mov	r12, rax
	mov	rax, QWORD PTR -32[rbp]
	mov	rdi, rax
	call	_ZNKSt7__cxx1112basic_stringIcSt11char_traitsIcESaIcEE4dataEv@PLT
	mov	rbx, rax
	mov	rax, QWORD PTR -24[rbp]
	mov	rdi, rax
	call	_ZNKSt7__cxx1112basic_stringIcSt11char_traitsIcESaIcEE4dataEv@PLT
	mov	rdx, r12
	mov	rsi, rbx
	mov	rdi, rax
	call	_ZNSt11char_traitsIcE7compareEPKcS2_m
	test	eax, eax
	jne	.L155
	mov	eax, 1
	jmp	.L156
.L155:
	mov	eax, 0
.L156:
	add	rsp, 16
	pop	rbx
	pop	r12
	pop	rbp
	.cfi_def_cfa 7, 8
	ret
	.cfi_endproc
.LFE10473:
	.size	_ZSteqIcEN9__gnu_cxx11__enable_ifIXsrSt9__is_charIT_E7__valueEbE6__typeERKNSt7__cxx1112basic_stringIS3_St11char_traitsIS3_ESaIS3_EEESE_, .-_ZSteqIcEN9__gnu_cxx11__enable_ifIXsrSt9__is_charIT_E7__valueEbE6__typeERKNSt7__cxx1112basic_stringIS3_St11char_traitsIS3_ESaIS3_EEESE_
	.section	.text._ZNSt6vectorIiSaIiEEixEm,"axG",@progbits,_ZNSt6vectorIiSaIiEEixEm,comdat
	.align 2
	.weak	_ZNSt6vectorIiSaIiEEixEm
	.type	_ZNSt6vectorIiSaIiEEixEm, @function
_ZNSt6vectorIiSaIiEEixEm:
.LFB10474:
	.cfi_startproc
	endbr64
	push	rbp
	.cfi_def_cfa_offset 16
	.cfi_offset 6, -16
	mov	rbp, rsp
	.cfi_def_cfa_register 6
	mov	QWORD PTR -8[rbp], rdi
	mov	QWORD PTR -16[rbp], rsi
	mov	rax, QWORD PTR -8[rbp]
	mov	rdx, QWORD PTR [rax]
	mov	rax, QWORD PTR -16[rbp]
	sal	rax, 2
	add	rax, rdx
	pop	rbp
	.cfi_def_cfa 7, 8
	ret
	.cfi_endproc
.LFE10474:
	.size	_ZNSt6vectorIiSaIiEEixEm, .-_ZNSt6vectorIiSaIiEEixEm
	.section	.text._ZNSaIiEC2Ev,"axG",@progbits,_ZNSaIiEC5Ev,comdat
	.align 2
	.weak	_ZNSaIiEC2Ev
	.type	_ZNSaIiEC2Ev, @function
_ZNSaIiEC2Ev:
.LFB10477:
	.cfi_startproc
	endbr64
	push	rbp
	.cfi_def_cfa_offset 16
	.cfi_offset 6, -16
	mov	rbp, rsp
	.cfi_def_cfa_register 6
	sub	rsp, 16
	mov	QWORD PTR -8[rbp], rdi
	mov	rax, QWORD PTR -8[rbp]
	mov	rdi, rax
	call	_ZN9__gnu_cxx13new_allocatorIiEC2Ev
	nop
	leave
	.cfi_def_cfa 7, 8
	ret
	.cfi_endproc
.LFE10477:
	.size	_ZNSaIiEC2Ev, .-_ZNSaIiEC2Ev
	.weak	_ZNSaIiEC1Ev
	.set	_ZNSaIiEC1Ev,_ZNSaIiEC2Ev
	.section	.text._ZNSaIiED2Ev,"axG",@progbits,_ZNSaIiED5Ev,comdat
	.align 2
	.weak	_ZNSaIiED2Ev
	.type	_ZNSaIiED2Ev, @function
_ZNSaIiED2Ev:
.LFB10480:
	.cfi_startproc
	endbr64
	push	rbp
	.cfi_def_cfa_offset 16
	.cfi_offset 6, -16
	mov	rbp, rsp
	.cfi_def_cfa_register 6
	sub	rsp, 16
	mov	QWORD PTR -8[rbp], rdi
	mov	rax, QWORD PTR -8[rbp]
	mov	rdi, rax
	call	_ZN9__gnu_cxx13new_allocatorIiED2Ev
	nop
	leave
	.cfi_def_cfa 7, 8
	ret
	.cfi_endproc
.LFE10480:
	.size	_ZNSaIiED2Ev, .-_ZNSaIiED2Ev
	.weak	_ZNSaIiED1Ev
	.set	_ZNSaIiED1Ev,_ZNSaIiED2Ev
	.section	.text._ZNSt6vectorIiSaIiEEC2EmRKS0_,"axG",@progbits,_ZNSt6vectorIiSaIiEEC5EmRKS0_,comdat
	.align 2
	.weak	_ZNSt6vectorIiSaIiEEC2EmRKS0_
	.type	_ZNSt6vectorIiSaIiEEC2EmRKS0_, @function
_ZNSt6vectorIiSaIiEEC2EmRKS0_:
.LFB10483:
	.cfi_startproc
	.cfi_personality 0x9b,DW.ref.__gxx_personality_v0
	.cfi_lsda 0x1b,.LLSDA10483
	endbr64
	push	rbp
	.cfi_def_cfa_offset 16
	.cfi_offset 6, -16
	mov	rbp, rsp
	.cfi_def_cfa_register 6
	push	rbx
	sub	rsp, 40
	.cfi_offset 3, -24
	mov	QWORD PTR -24[rbp], rdi
	mov	QWORD PTR -32[rbp], rsi
	mov	QWORD PTR -40[rbp], rdx
	mov	rbx, QWORD PTR -24[rbp]
	mov	rdx, QWORD PTR -40[rbp]
	mov	rax, QWORD PTR -32[rbp]
	mov	rsi, rdx
	mov	rdi, rax
.LEHB7:
	call	_ZNSt6vectorIiSaIiEE17_S_check_init_lenEmRKS0_
	mov	rcx, rax
	mov	rax, QWORD PTR -40[rbp]
	mov	rdx, rax
	mov	rsi, rcx
	mov	rdi, rbx
	call	_ZNSt12_Vector_baseIiSaIiEEC2EmRKS0_
.LEHE7:
	mov	rdx, QWORD PTR -32[rbp]
	mov	rax, QWORD PTR -24[rbp]
	mov	rsi, rdx
	mov	rdi, rax
.LEHB8:
	call	_ZNSt6vectorIiSaIiEE21_M_default_initializeEm
.LEHE8:
	jmp	.L165
.L164:
	endbr64
	mov	rbx, rax
	mov	rax, QWORD PTR -24[rbp]
	mov	rdi, rax
	call	_ZNSt12_Vector_baseIiSaIiEED2Ev
	mov	rax, rbx
	mov	rdi, rax
.LEHB9:
	call	_Unwind_Resume@PLT
.LEHE9:
.L165:
	mov	rbx, QWORD PTR -8[rbp]
	leave
	.cfi_def_cfa 7, 8
	ret
	.cfi_endproc
.LFE10483:
	.section	.gcc_except_table
.LLSDA10483:
	.byte	0xff
	.byte	0xff
	.byte	0x1
	.uleb128 .LLSDACSE10483-.LLSDACSB10483
.LLSDACSB10483:
	.uleb128 .LEHB7-.LFB10483
	.uleb128 .LEHE7-.LEHB7
	.uleb128 0
	.uleb128 0
	.uleb128 .LEHB8-.LFB10483
	.uleb128 .LEHE8-.LEHB8
	.uleb128 .L164-.LFB10483
	.uleb128 0
	.uleb128 .LEHB9-.LFB10483
	.uleb128 .LEHE9-.LEHB9
	.uleb128 0
	.uleb128 0
.LLSDACSE10483:
	.section	.text._ZNSt6vectorIiSaIiEEC2EmRKS0_,"axG",@progbits,_ZNSt6vectorIiSaIiEEC5EmRKS0_,comdat
	.size	_ZNSt6vectorIiSaIiEEC2EmRKS0_, .-_ZNSt6vectorIiSaIiEEC2EmRKS0_
	.weak	_ZNSt6vectorIiSaIiEEC1EmRKS0_
	.set	_ZNSt6vectorIiSaIiEEC1EmRKS0_,_ZNSt6vectorIiSaIiEEC2EmRKS0_
	.section	.text._ZNSt6vectorIiSaIiEED2Ev,"axG",@progbits,_ZNSt6vectorIiSaIiEED5Ev,comdat
	.align 2
	.weak	_ZNSt6vectorIiSaIiEED2Ev
	.type	_ZNSt6vectorIiSaIiEED2Ev, @function
_ZNSt6vectorIiSaIiEED2Ev:
.LFB10486:
	.cfi_startproc
	.cfi_personality 0x9b,DW.ref.__gxx_personality_v0
	.cfi_lsda 0x1b,.LLSDA10486
	endbr64
	push	rbp
	.cfi_def_cfa_offset 16
	.cfi_offset 6, -16
	mov	rbp, rsp
	.cfi_def_cfa_register 6
	sub	rsp, 16
	mov	QWORD PTR -8[rbp], rdi
	mov	rax, QWORD PTR -8[rbp]
	mov	rdi, rax
	call	_ZNSt12_Vector_baseIiSaIiEE19_M_get_Tp_allocatorEv
	mov	rdx, rax
	mov	rax, QWORD PTR -8[rbp]
	mov	rcx, QWORD PTR 8[rax]
	mov	rax, QWORD PTR -8[rbp]
	mov	rax, QWORD PTR [rax]
	mov	rsi, rcx
	mov	rdi, rax
	call	_ZSt8_DestroyIPiiEvT_S1_RSaIT0_E
	mov	rax, QWORD PTR -8[rbp]
	mov	rdi, rax
	call	_ZNSt12_Vector_baseIiSaIiEED2Ev
	nop
	leave
	.cfi_def_cfa 7, 8
	ret
	.cfi_endproc
.LFE10486:
	.section	.gcc_except_table
.LLSDA10486:
	.byte	0xff
	.byte	0xff
	.byte	0x1
	.uleb128 .LLSDACSE10486-.LLSDACSB10486
.LLSDACSB10486:
.LLSDACSE10486:
	.section	.text._ZNSt6vectorIiSaIiEED2Ev,"axG",@progbits,_ZNSt6vectorIiSaIiEED5Ev,comdat
	.size	_ZNSt6vectorIiSaIiEED2Ev, .-_ZNSt6vectorIiSaIiEED2Ev
	.weak	_ZNSt6vectorIiSaIiEED1Ev
	.set	_ZNSt6vectorIiSaIiEED1Ev,_ZNSt6vectorIiSaIiEED2Ev
	.section	.text._ZNSt12_Vector_baseISt4pairIiiESaIS1_EE12_Vector_implC2Ev,"axG",@progbits,_ZNSt12_Vector_baseISt4pairIiiESaIS1_EE12_Vector_implC5Ev,comdat
	.align 2
	.weak	_ZNSt12_Vector_baseISt4pairIiiESaIS1_EE12_Vector_implC2Ev
	.type	_ZNSt12_Vector_baseISt4pairIiiESaIS1_EE12_Vector_implC2Ev, @function
_ZNSt12_Vector_baseISt4pairIiiESaIS1_EE12_Vector_implC2Ev:
.LFB10489:
	.cfi_startproc
	endbr64
	push	rbp
	.cfi_def_cfa_offset 16
	.cfi_offset 6, -16
	mov	rbp, rsp
	.cfi_def_cfa_register 6
	sub	rsp, 16
	mov	QWORD PTR -8[rbp], rdi
	mov	rax, QWORD PTR -8[rbp]
	mov	rdi, rax
	call	_ZNSaISt4pairIiiEEC2Ev
	mov	rax, QWORD PTR -8[rbp]
	mov	rdi, rax
	call	_ZNSt12_Vector_baseISt4pairIiiESaIS1_EE17_Vector_impl_dataC2Ev
	nop
	leave
	.cfi_def_cfa 7, 8
	ret
	.cfi_endproc
.LFE10489:
	.size	_ZNSt12_Vector_baseISt4pairIiiESaIS1_EE12_Vector_implC2Ev, .-_ZNSt12_Vector_baseISt4pairIiiESaIS1_EE12_Vector_implC2Ev
	.weak	_ZNSt12_Vector_baseISt4pairIiiESaIS1_EE12_Vector_implC1Ev
	.set	_ZNSt12_Vector_baseISt4pairIiiESaIS1_EE12_Vector_implC1Ev,_ZNSt12_Vector_baseISt4pairIiiESaIS1_EE12_Vector_implC2Ev
	.section	.text._ZNSaISt4pairIiiEED2Ev,"axG",@progbits,_ZNSaISt4pairIiiEED5Ev,comdat
	.align 2
	.weak	_ZNSaISt4pairIiiEED2Ev
	.type	_ZNSaISt4pairIiiEED2Ev, @function
_ZNSaISt4pairIiiEED2Ev:
.LFB10492:
	.cfi_startproc
	endbr64
	push	rbp
	.cfi_def_cfa_offset 16
	.cfi_offset 6, -16
	mov	rbp, rsp
	.cfi_def_cfa_register 6
	sub	rsp, 16
	mov	QWORD PTR -8[rbp], rdi
	mov	rax, QWORD PTR -8[rbp]
	mov	rdi, rax
	call	_ZN9__gnu_cxx13new_allocatorISt4pairIiiEED2Ev
	nop
	leave
	.cfi_def_cfa 7, 8
	ret
	.cfi_endproc
.LFE10492:
	.size	_ZNSaISt4pairIiiEED2Ev, .-_ZNSaISt4pairIiiEED2Ev
	.weak	_ZNSaISt4pairIiiEED1Ev
	.set	_ZNSaISt4pairIiiEED1Ev,_ZNSaISt4pairIiiEED2Ev
	.section	.text._ZNSt12_Vector_baseISt4pairIiiESaIS1_EED2Ev,"axG",@progbits,_ZNSt12_Vector_baseISt4pairIiiESaIS1_EED5Ev,comdat
	.align 2
	.weak	_ZNSt12_Vector_baseISt4pairIiiESaIS1_EED2Ev
	.type	_ZNSt12_Vector_baseISt4pairIiiESaIS1_EED2Ev, @function
_ZNSt12_Vector_baseISt4pairIiiESaIS1_EED2Ev:
.LFB10495:
	.cfi_startproc
	.cfi_personality 0x9b,DW.ref.__gxx_personality_v0
	.cfi_lsda 0x1b,.LLSDA10495
	endbr64
	push	rbp
	.cfi_def_cfa_offset 16
	.cfi_offset 6, -16
	mov	rbp, rsp
	.cfi_def_cfa_register 6
	sub	rsp, 16
	mov	QWORD PTR -8[rbp], rdi
	mov	rax, QWORD PTR -8[rbp]
	mov	rdx, QWORD PTR 16[rax]
	mov	rax, QWORD PTR -8[rbp]
	mov	rcx, QWORD PTR [rax]
	mov	rax, rdx
	sub	rax, rcx
	sar	rax, 3
	mov	rdx, rax
	mov	rax, QWORD PTR -8[rbp]
	mov	rcx, QWORD PTR [rax]
	mov	rax, QWORD PTR -8[rbp]
	mov	rsi, rcx
	mov	rdi, rax
	call	_ZNSt12_Vector_baseISt4pairIiiESaIS1_EE13_M_deallocateEPS1_m
	mov	rax, QWORD PTR -8[rbp]
	mov	rdi, rax
	call	_ZNSt12_Vector_baseISt4pairIiiESaIS1_EE12_Vector_implD1Ev
	nop
	leave
	.cfi_def_cfa 7, 8
	ret
	.cfi_endproc
.LFE10495:
	.section	.gcc_except_table
.LLSDA10495:
	.byte	0xff
	.byte	0xff
	.byte	0x1
	.uleb128 .LLSDACSE10495-.LLSDACSB10495
.LLSDACSB10495:
.LLSDACSE10495:
	.section	.text._ZNSt12_Vector_baseISt4pairIiiESaIS1_EED2Ev,"axG",@progbits,_ZNSt12_Vector_baseISt4pairIiiESaIS1_EED5Ev,comdat
	.size	_ZNSt12_Vector_baseISt4pairIiiESaIS1_EED2Ev, .-_ZNSt12_Vector_baseISt4pairIiiESaIS1_EED2Ev
	.weak	_ZNSt12_Vector_baseISt4pairIiiESaIS1_EED1Ev
	.set	_ZNSt12_Vector_baseISt4pairIiiESaIS1_EED1Ev,_ZNSt12_Vector_baseISt4pairIiiESaIS1_EED2Ev
	.section	.text._ZNSt6vectorISt4pairIiiESaIS1_EED2Ev,"axG",@progbits,_ZNSt6vectorISt4pairIiiESaIS1_EED5Ev,comdat
	.align 2
	.weak	_ZNSt6vectorISt4pairIiiESaIS1_EED2Ev
	.type	_ZNSt6vectorISt4pairIiiESaIS1_EED2Ev, @function
_ZNSt6vectorISt4pairIiiESaIS1_EED2Ev:
.LFB10498:
	.cfi_startproc
	.cfi_personality 0x9b,DW.ref.__gxx_personality_v0
	.cfi_lsda 0x1b,.LLSDA10498
	endbr64
	push	rbp
	.cfi_def_cfa_offset 16
	.cfi_offset 6, -16
	mov	rbp, rsp
	.cfi_def_cfa_register 6
	sub	rsp, 16
	mov	QWORD PTR -8[rbp], rdi
	mov	rax, QWORD PTR -8[rbp]
	mov	rdi, rax
	call	_ZNSt12_Vector_baseISt4pairIiiESaIS1_EE19_M_get_Tp_allocatorEv
	mov	rdx, rax
	mov	rax, QWORD PTR -8[rbp]
	mov	rcx, QWORD PTR 8[rax]
	mov	rax, QWORD PTR -8[rbp]
	mov	rax, QWORD PTR [rax]
	mov	rsi, rcx
	mov	rdi, rax
	call	_ZSt8_DestroyIPSt4pairIiiES1_EvT_S3_RSaIT0_E
	mov	rax, QWORD PTR -8[rbp]
	mov	rdi, rax
	call	_ZNSt12_Vector_baseISt4pairIiiESaIS1_EED2Ev
	nop
	leave
	.cfi_def_cfa 7, 8
	ret
	.cfi_endproc
.LFE10498:
	.section	.gcc_except_table
.LLSDA10498:
	.byte	0xff
	.byte	0xff
	.byte	0x1
	.uleb128 .LLSDACSE10498-.LLSDACSB10498
.LLSDACSB10498:
.LLSDACSE10498:
	.section	.text._ZNSt6vectorISt4pairIiiESaIS1_EED2Ev,"axG",@progbits,_ZNSt6vectorISt4pairIiiESaIS1_EED5Ev,comdat
	.size	_ZNSt6vectorISt4pairIiiESaIS1_EED2Ev, .-_ZNSt6vectorISt4pairIiiESaIS1_EED2Ev
	.weak	_ZNSt6vectorISt4pairIiiESaIS1_EED1Ev
	.set	_ZNSt6vectorISt4pairIiiESaIS1_EED1Ev,_ZNSt6vectorISt4pairIiiESaIS1_EED2Ev
	.section	.text._ZNSt8_Rb_treeIiSt4pairIKiiESt10_Select1stIS2_ESt4lessIiESaIS2_EE13_Rb_tree_implIS6_Lb1EEC2Ev,"axG",@progbits,_ZNSt8_Rb_treeIiSt4pairIKiiESt10_Select1stIS2_ESt4lessIiESaIS2_EE13_Rb_tree_implIS6_Lb1EEC5Ev,comdat
	.align 2
	.weak	_ZNSt8_Rb_treeIiSt4pairIKiiESt10_Select1stIS2_ESt4lessIiESaIS2_EE13_Rb_tree_implIS6_Lb1EEC2Ev
	.type	_ZNSt8_Rb_treeIiSt4pairIKiiESt10_Select1stIS2_ESt4lessIiESaIS2_EE13_Rb_tree_implIS6_Lb1EEC2Ev, @function
_ZNSt8_Rb_treeIiSt4pairIKiiESt10_Select1stIS2_ESt4lessIiESaIS2_EE13_Rb_tree_implIS6_Lb1EEC2Ev:
.LFB10501:
	.cfi_startproc
	endbr64
	push	rbp
	.cfi_def_cfa_offset 16
	.cfi_offset 6, -16
	mov	rbp, rsp
	.cfi_def_cfa_register 6
	sub	rsp, 16
	mov	QWORD PTR -8[rbp], rdi
	mov	rax, QWORD PTR -8[rbp]
	mov	rdi, rax
	call	_ZNSaISt13_Rb_tree_nodeISt4pairIKiiEEEC2Ev
	mov	rax, QWORD PTR -8[rbp]
	mov	rdi, rax
	call	_ZNSt20_Rb_tree_key_compareISt4lessIiEEC2Ev
	mov	rax, QWORD PTR -8[rbp]
	add	rax, 8
	mov	rdi, rax
	call	_ZNSt15_Rb_tree_headerC2Ev
	nop
	leave
	.cfi_def_cfa 7, 8
	ret
	.cfi_endproc
.LFE10501:
	.size	_ZNSt8_Rb_treeIiSt4pairIKiiESt10_Select1stIS2_ESt4lessIiESaIS2_EE13_Rb_tree_implIS6_Lb1EEC2Ev, .-_ZNSt8_Rb_treeIiSt4pairIKiiESt10_Select1stIS2_ESt4lessIiESaIS2_EE13_Rb_tree_implIS6_Lb1EEC2Ev
	.weak	_ZNSt8_Rb_treeIiSt4pairIKiiESt10_Select1stIS2_ESt4lessIiESaIS2_EE13_Rb_tree_implIS6_Lb1EEC1Ev
	.set	_ZNSt8_Rb_treeIiSt4pairIKiiESt10_Select1stIS2_ESt4lessIiESaIS2_EE13_Rb_tree_implIS6_Lb1EEC1Ev,_ZNSt8_Rb_treeIiSt4pairIKiiESt10_Select1stIS2_ESt4lessIiESaIS2_EE13_Rb_tree_implIS6_Lb1EEC2Ev
	.section	.text._ZNSaISt13_Rb_tree_nodeISt4pairIKiiEEED2Ev,"axG",@progbits,_ZNSaISt13_Rb_tree_nodeISt4pairIKiiEEED5Ev,comdat
	.align 2
	.weak	_ZNSaISt13_Rb_tree_nodeISt4pairIKiiEEED2Ev
	.type	_ZNSaISt13_Rb_tree_nodeISt4pairIKiiEEED2Ev, @function
_ZNSaISt13_Rb_tree_nodeISt4pairIKiiEEED2Ev:
.LFB10504:
	.cfi_startproc
	endbr64
	push	rbp
	.cfi_def_cfa_offset 16
	.cfi_offset 6, -16
	mov	rbp, rsp
	.cfi_def_cfa_register 6
	sub	rsp, 16
	mov	QWORD PTR -8[rbp], rdi
	mov	rax, QWORD PTR -8[rbp]
	mov	rdi, rax
	call	_ZN9__gnu_cxx13new_allocatorISt13_Rb_tree_nodeISt4pairIKiiEEED2Ev
	nop
	leave
	.cfi_def_cfa 7, 8
	ret
	.cfi_endproc
.LFE10504:
	.size	_ZNSaISt13_Rb_tree_nodeISt4pairIKiiEEED2Ev, .-_ZNSaISt13_Rb_tree_nodeISt4pairIKiiEEED2Ev
	.weak	_ZNSaISt13_Rb_tree_nodeISt4pairIKiiEEED1Ev
	.set	_ZNSaISt13_Rb_tree_nodeISt4pairIKiiEEED1Ev,_ZNSaISt13_Rb_tree_nodeISt4pairIKiiEEED2Ev
	.section	.text._ZNSt8_Rb_treeIiSt4pairIKiiESt10_Select1stIS2_ESt4lessIiESaIS2_EED2Ev,"axG",@progbits,_ZNSt8_Rb_treeIiSt4pairIKiiESt10_Select1stIS2_ESt4lessIiESaIS2_EED5Ev,comdat
	.align 2
	.weak	_ZNSt8_Rb_treeIiSt4pairIKiiESt10_Select1stIS2_ESt4lessIiESaIS2_EED2Ev
	.type	_ZNSt8_Rb_treeIiSt4pairIKiiESt10_Select1stIS2_ESt4lessIiESaIS2_EED2Ev, @function
_ZNSt8_Rb_treeIiSt4pairIKiiESt10_Select1stIS2_ESt4lessIiESaIS2_EED2Ev:
.LFB10507:
	.cfi_startproc
	.cfi_personality 0x9b,DW.ref.__gxx_personality_v0
	.cfi_lsda 0x1b,.LLSDA10507
	endbr64
	push	rbp
	.cfi_def_cfa_offset 16
	.cfi_offset 6, -16
	mov	rbp, rsp
	.cfi_def_cfa_register 6
	sub	rsp, 16
	mov	QWORD PTR -8[rbp], rdi
	mov	rax, QWORD PTR -8[rbp]
	mov	rdi, rax
	call	_ZNSt8_Rb_treeIiSt4pairIKiiESt10_Select1stIS2_ESt4lessIiESaIS2_EE8_M_beginEv
	mov	rdx, rax
	mov	rax, QWORD PTR -8[rbp]
	mov	rsi, rdx
	mov	rdi, rax
	call	_ZNSt8_Rb_treeIiSt4pairIKiiESt10_Select1stIS2_ESt4lessIiESaIS2_EE8_M_eraseEPSt13_Rb_tree_nodeIS2_E
	mov	rax, QWORD PTR -8[rbp]
	mov	rdi, rax
	call	_ZNSt8_Rb_treeIiSt4pairIKiiESt10_Select1stIS2_ESt4lessIiESaIS2_EE13_Rb_tree_implIS6_Lb1EED1Ev
	nop
	leave
	.cfi_def_cfa 7, 8
	ret
	.cfi_endproc
.LFE10507:
	.section	.gcc_except_table
.LLSDA10507:
	.byte	0xff
	.byte	0xff
	.byte	0x1
	.uleb128 .LLSDACSE10507-.LLSDACSB10507
.LLSDACSB10507:
.LLSDACSE10507:
	.section	.text._ZNSt8_Rb_treeIiSt4pairIKiiESt10_Select1stIS2_ESt4lessIiESaIS2_EED2Ev,"axG",@progbits,_ZNSt8_Rb_treeIiSt4pairIKiiESt10_Select1stIS2_ESt4lessIiESaIS2_EED5Ev,comdat
	.size	_ZNSt8_Rb_treeIiSt4pairIKiiESt10_Select1stIS2_ESt4lessIiESaIS2_EED2Ev, .-_ZNSt8_Rb_treeIiSt4pairIKiiESt10_Select1stIS2_ESt4lessIiESaIS2_EED2Ev
	.weak	_ZNSt8_Rb_treeIiSt4pairIKiiESt10_Select1stIS2_ESt4lessIiESaIS2_EED1Ev
	.set	_ZNSt8_Rb_treeIiSt4pairIKiiESt10_Select1stIS2_ESt4lessIiESaIS2_EED1Ev,_ZNSt8_Rb_treeIiSt4pairIKiiESt10_Select1stIS2_ESt4lessIiESaIS2_EED2Ev
	.section	.text._ZNSt3mapIiiSt4lessIiESaISt4pairIKiiEEEixERS3_,"axG",@progbits,_ZNSt3mapIiiSt4lessIiESaISt4pairIKiiEEEixERS3_,comdat
	.align 2
	.weak	_ZNSt3mapIiiSt4lessIiESaISt4pairIKiiEEEixERS3_
	.type	_ZNSt3mapIiiSt4lessIiESaISt4pairIKiiEEEixERS3_, @function
_ZNSt3mapIiiSt4lessIiESaISt4pairIKiiEEEixERS3_:
.LFB10509:
	.cfi_startproc
	endbr64
	push	rbp
	.cfi_def_cfa_offset 16
	.cfi_offset 6, -16
	mov	rbp, rsp
	.cfi_def_cfa_register 6
	push	rbx
	sub	rsp, 72
	.cfi_offset 3, -24
	mov	QWORD PTR -72[rbp], rdi
	mov	QWORD PTR -80[rbp], rsi
	mov	rax, QWORD PTR fs:40
	mov	QWORD PTR -24[rbp], rax
	xor	eax, eax
	mov	rdx, QWORD PTR -80[rbp]
	mov	rax, QWORD PTR -72[rbp]
	mov	rsi, rdx
	mov	rdi, rax
	call	_ZNSt3mapIiiSt4lessIiESaISt4pairIKiiEEE11lower_boundERS3_
	mov	QWORD PTR -48[rbp], rax
	mov	rax, QWORD PTR -72[rbp]
	mov	rdi, rax
	call	_ZNSt3mapIiiSt4lessIiESaISt4pairIKiiEEE3endEv
	mov	QWORD PTR -32[rbp], rax
	lea	rdx, -32[rbp]
	lea	rax, -48[rbp]
	mov	rsi, rdx
	mov	rdi, rax
	call	_ZSteqRKSt17_Rb_tree_iteratorISt4pairIKiiEES5_
	test	al, al
	jne	.L175
	mov	rax, QWORD PTR -72[rbp]
	mov	rdi, rax
	call	_ZNKSt3mapIiiSt4lessIiESaISt4pairIKiiEEE8key_compEv
	lea	rax, -48[rbp]
	mov	rdi, rax
	call	_ZNKSt17_Rb_tree_iteratorISt4pairIKiiEEdeEv
	mov	rdx, rax
	mov	rcx, QWORD PTR -80[rbp]
	lea	rax, -40[rbp]
	mov	rsi, rcx
	mov	rdi, rax
	call	_ZNKSt4lessIiEclERKiS2_
	test	al, al
	je	.L176
.L175:
	mov	eax, 1
	jmp	.L177
.L176:
	mov	eax, 0
.L177:
	test	al, al
	je	.L178
	mov	rbx, QWORD PTR -72[rbp]
	mov	rdx, QWORD PTR -80[rbp]
	lea	rax, -40[rbp]
	mov	rsi, rdx
	mov	rdi, rax
	call	_ZNSt5tupleIJRKiEEC1ILb1ELb1EEES1_
	lea	rdx, -48[rbp]
	lea	rax, -32[rbp]
	mov	rsi, rdx
	mov	rdi, rax
	call	_ZNSt23_Rb_tree_const_iteratorISt4pairIKiiEEC1ERKSt17_Rb_tree_iteratorIS2_E
	lea	rcx, -49[rbp]
	lea	rdx, -40[rbp]
	mov	rax, QWORD PTR -32[rbp]
	mov	r8, rcx
	mov	rcx, rdx
	lea	rdx, _ZSt19piecewise_construct[rip]
	mov	rsi, rax
	mov	rdi, rbx
	call	_ZNSt8_Rb_treeIiSt4pairIKiiESt10_Select1stIS2_ESt4lessIiESaIS2_EE22_M_emplace_hint_uniqueIJRKSt21piecewise_construct_tSt5tupleIJRS1_EESD_IJEEEEESt17_Rb_tree_iteratorIS2_ESt23_Rb_tree_const_iteratorIS2_EDpOT_
	mov	QWORD PTR -48[rbp], rax
.L178:
	lea	rax, -48[rbp]
	mov	rdi, rax
	call	_ZNKSt17_Rb_tree_iteratorISt4pairIKiiEEdeEv
	add	rax, 4
	mov	rdx, QWORD PTR -24[rbp]
	sub	rdx, QWORD PTR fs:40
	je	.L180
	call	__stack_chk_fail@PLT
.L180:
	mov	rbx, QWORD PTR -8[rbp]
	leave
	.cfi_def_cfa 7, 8
	ret
	.cfi_endproc
.LFE10509:
	.size	_ZNSt3mapIiiSt4lessIiESaISt4pairIKiiEEEixERS3_, .-_ZNSt3mapIiiSt4lessIiESaISt4pairIKiiEEEixERS3_
	.section	.text._ZNSt4pairIiiEC2IRiiLb1EEEOT_OT0_,"axG",@progbits,_ZNSt4pairIiiEC5IRiiLb1EEEOT_OT0_,comdat
	.align 2
	.weak	_ZNSt4pairIiiEC2IRiiLb1EEEOT_OT0_
	.type	_ZNSt4pairIiiEC2IRiiLb1EEEOT_OT0_, @function
_ZNSt4pairIiiEC2IRiiLb1EEEOT_OT0_:
.LFB10517:
	.cfi_startproc
	endbr64
	push	rbp
	.cfi_def_cfa_offset 16
	.cfi_offset 6, -16
	mov	rbp, rsp
	.cfi_def_cfa_register 6
	sub	rsp, 32
	mov	QWORD PTR -8[rbp], rdi
	mov	QWORD PTR -16[rbp], rsi
	mov	QWORD PTR -24[rbp], rdx
	mov	rax, QWORD PTR -16[rbp]
	mov	rdi, rax
	call	_ZSt7forwardIRiEOT_RNSt16remove_referenceIS1_E4typeE
	mov	edx, DWORD PTR [rax]
	mov	rax, QWORD PTR -8[rbp]
	mov	DWORD PTR [rax], edx
	mov	rax, QWORD PTR -24[rbp]
	mov	rdi, rax
	call	_ZSt7forwardIiEOT_RNSt16remove_referenceIS0_E4typeE
	mov	edx, DWORD PTR [rax]
	mov	rax, QWORD PTR -8[rbp]
	mov	DWORD PTR 4[rax], edx
	nop
	leave
	.cfi_def_cfa 7, 8
	ret
	.cfi_endproc
.LFE10517:
	.size	_ZNSt4pairIiiEC2IRiiLb1EEEOT_OT0_, .-_ZNSt4pairIiiEC2IRiiLb1EEEOT_OT0_
	.weak	_ZNSt4pairIiiEC1IRiiLb1EEEOT_OT0_
	.set	_ZNSt4pairIiiEC1IRiiLb1EEEOT_OT0_,_ZNSt4pairIiiEC2IRiiLb1EEEOT_OT0_
	.section	.text._ZNSt6vectorISt4pairIiiESaIS1_EE9push_backEOS1_,"axG",@progbits,_ZNSt6vectorISt4pairIiiESaIS1_EE9push_backEOS1_,comdat
	.align 2
	.weak	_ZNSt6vectorISt4pairIiiESaIS1_EE9push_backEOS1_
	.type	_ZNSt6vectorISt4pairIiiESaIS1_EE9push_backEOS1_, @function
_ZNSt6vectorISt4pairIiiESaIS1_EE9push_backEOS1_:
.LFB10519:
	.cfi_startproc
	endbr64
	push	rbp
	.cfi_def_cfa_offset 16
	.cfi_offset 6, -16
	mov	rbp, rsp
	.cfi_def_cfa_register 6
	sub	rsp, 16
	mov	QWORD PTR -8[rbp], rdi
	mov	QWORD PTR -16[rbp], rsi
	mov	rax, QWORD PTR -16[rbp]
	mov	rdi, rax
	call	_ZSt4moveIRSt4pairIiiEEONSt16remove_referenceIT_E4typeEOS4_
	mov	rdx, rax
	mov	rax, QWORD PTR -8[rbp]
	mov	rsi, rdx
	mov	rdi, rax
	call	_ZNSt6vectorISt4pairIiiESaIS1_EE12emplace_backIJS1_EEERS1_DpOT_
	nop
	leave
	.cfi_def_cfa 7, 8
	ret
	.cfi_endproc
.LFE10519:
	.size	_ZNSt6vectorISt4pairIiiESaIS1_EE9push_backEOS1_, .-_ZNSt6vectorISt4pairIiiESaIS1_EE9push_backEOS1_
	.section	.text._ZNKSt6vectorISt4pairIiiESaIS1_EE4sizeEv,"axG",@progbits,_ZNKSt6vectorISt4pairIiiESaIS1_EE4sizeEv,comdat
	.align 2
	.weak	_ZNKSt6vectorISt4pairIiiESaIS1_EE4sizeEv
	.type	_ZNKSt6vectorISt4pairIiiESaIS1_EE4sizeEv, @function
_ZNKSt6vectorISt4pairIiiESaIS1_EE4sizeEv:
.LFB10520:
	.cfi_startproc
	endbr64
	push	rbp
	.cfi_def_cfa_offset 16
	.cfi_offset 6, -16
	mov	rbp, rsp
	.cfi_def_cfa_register 6
	mov	QWORD PTR -8[rbp], rdi
	mov	rax, QWORD PTR -8[rbp]
	mov	rdx, QWORD PTR 8[rax]
	mov	rax, QWORD PTR -8[rbp]
	mov	rcx, QWORD PTR [rax]
	mov	rax, rdx
	sub	rax, rcx
	sar	rax, 3
	pop	rbp
	.cfi_def_cfa 7, 8
	ret
	.cfi_endproc
.LFE10520:
	.size	_ZNKSt6vectorISt4pairIiiESaIS1_EE4sizeEv, .-_ZNKSt6vectorISt4pairIiiESaIS1_EE4sizeEv
	.section	.text._ZNSt6vectorISt4pairIiiESaIS1_EEixEm,"axG",@progbits,_ZNSt6vectorISt4pairIiiESaIS1_EEixEm,comdat
	.align 2
	.weak	_ZNSt6vectorISt4pairIiiESaIS1_EEixEm
	.type	_ZNSt6vectorISt4pairIiiESaIS1_EEixEm, @function
_ZNSt6vectorISt4pairIiiESaIS1_EEixEm:
.LFB10522:
	.cfi_startproc
	endbr64
	push	rbp
	.cfi_def_cfa_offset 16
	.cfi_offset 6, -16
	mov	rbp, rsp
	.cfi_def_cfa_register 6
	mov	QWORD PTR -8[rbp], rdi
	mov	QWORD PTR -16[rbp], rsi
	mov	rax, QWORD PTR -8[rbp]
	mov	rdx, QWORD PTR [rax]
	mov	rax, QWORD PTR -16[rbp]
	sal	rax, 3
	add	rax, rdx
	pop	rbp
	.cfi_def_cfa 7, 8
	ret
	.cfi_endproc
.LFE10522:
	.size	_ZNSt6vectorISt4pairIiiESaIS1_EEixEm, .-_ZNSt6vectorISt4pairIiiESaIS1_EEixEm
	.section	.text._ZNSaIxEC2Ev,"axG",@progbits,_ZNSaIxEC5Ev,comdat
	.align 2
	.weak	_ZNSaIxEC2Ev
	.type	_ZNSaIxEC2Ev, @function
_ZNSaIxEC2Ev:
.LFB10915:
	.cfi_startproc
	endbr64
	push	rbp
	.cfi_def_cfa_offset 16
	.cfi_offset 6, -16
	mov	rbp, rsp
	.cfi_def_cfa_register 6
	sub	rsp, 16
	mov	QWORD PTR -8[rbp], rdi
	mov	rax, QWORD PTR -8[rbp]
	mov	rdi, rax
	call	_ZN9__gnu_cxx13new_allocatorIxEC2Ev
	nop
	leave
	.cfi_def_cfa 7, 8
	ret
	.cfi_endproc
.LFE10915:
	.size	_ZNSaIxEC2Ev, .-_ZNSaIxEC2Ev
	.weak	_ZNSaIxEC1Ev
	.set	_ZNSaIxEC1Ev,_ZNSaIxEC2Ev
	.section	.text._ZNSt12_Vector_baseIxSaIxEE17_Vector_impl_dataC2Ev,"axG",@progbits,_ZNSt12_Vector_baseIxSaIxEE17_Vector_impl_dataC5Ev,comdat
	.align 2
	.weak	_ZNSt12_Vector_baseIxSaIxEE17_Vector_impl_dataC2Ev
	.type	_ZNSt12_Vector_baseIxSaIxEE17_Vector_impl_dataC2Ev, @function
_ZNSt12_Vector_baseIxSaIxEE17_Vector_impl_dataC2Ev:
.LFB10918:
	.cfi_startproc
	endbr64
	push	rbp
	.cfi_def_cfa_offset 16
	.cfi_offset 6, -16
	mov	rbp, rsp
	.cfi_def_cfa_register 6
	mov	QWORD PTR -8[rbp], rdi
	mov	rax, QWORD PTR -8[rbp]
	mov	QWORD PTR [rax], 0
	mov	rax, QWORD PTR -8[rbp]
	mov	QWORD PTR 8[rax], 0
	mov	rax, QWORD PTR -8[rbp]
	mov	QWORD PTR 16[rax], 0
	nop
	pop	rbp
	.cfi_def_cfa 7, 8
	ret
	.cfi_endproc
.LFE10918:
	.size	_ZNSt12_Vector_baseIxSaIxEE17_Vector_impl_dataC2Ev, .-_ZNSt12_Vector_baseIxSaIxEE17_Vector_impl_dataC2Ev
	.weak	_ZNSt12_Vector_baseIxSaIxEE17_Vector_impl_dataC1Ev
	.set	_ZNSt12_Vector_baseIxSaIxEE17_Vector_impl_dataC1Ev,_ZNSt12_Vector_baseIxSaIxEE17_Vector_impl_dataC2Ev
	.section	.text._ZN9__gnu_cxx13new_allocatorIxED2Ev,"axG",@progbits,_ZN9__gnu_cxx13new_allocatorIxED5Ev,comdat
	.align 2
	.weak	_ZN9__gnu_cxx13new_allocatorIxED2Ev
	.type	_ZN9__gnu_cxx13new_allocatorIxED2Ev, @function
_ZN9__gnu_cxx13new_allocatorIxED2Ev:
.LFB10921:
	.cfi_startproc
	endbr64
	push	rbp
	.cfi_def_cfa_offset 16
	.cfi_offset 6, -16
	mov	rbp, rsp
	.cfi_def_cfa_register 6
	mov	QWORD PTR -8[rbp], rdi
	nop
	pop	rbp
	.cfi_def_cfa 7, 8
	ret
	.cfi_endproc
.LFE10921:
	.size	_ZN9__gnu_cxx13new_allocatorIxED2Ev, .-_ZN9__gnu_cxx13new_allocatorIxED2Ev
	.weak	_ZN9__gnu_cxx13new_allocatorIxED1Ev
	.set	_ZN9__gnu_cxx13new_allocatorIxED1Ev,_ZN9__gnu_cxx13new_allocatorIxED2Ev
	.section	.text._ZNSt12_Vector_baseIxSaIxEE13_M_deallocateEPxm,"axG",@progbits,_ZNSt12_Vector_baseIxSaIxEE13_M_deallocateEPxm,comdat
	.align 2
	.weak	_ZNSt12_Vector_baseIxSaIxEE13_M_deallocateEPxm
	.type	_ZNSt12_Vector_baseIxSaIxEE13_M_deallocateEPxm, @function
_ZNSt12_Vector_baseIxSaIxEE13_M_deallocateEPxm:
.LFB10923:
	.cfi_startproc
	endbr64
	push	rbp
	.cfi_def_cfa_offset 16
	.cfi_offset 6, -16
	mov	rbp, rsp
	.cfi_def_cfa_register 6
	sub	rsp, 32
	mov	QWORD PTR -8[rbp], rdi
	mov	QWORD PTR -16[rbp], rsi
	mov	QWORD PTR -24[rbp], rdx
	cmp	QWORD PTR -16[rbp], 0
	je	.L192
	mov	rax, QWORD PTR -8[rbp]
	mov	rdx, QWORD PTR -24[rbp]
	mov	rcx, QWORD PTR -16[rbp]
	mov	rsi, rcx
	mov	rdi, rax
	call	_ZNSt16allocator_traitsISaIxEE10deallocateERS0_Pxm
.L192:
	nop
	leave
	.cfi_def_cfa 7, 8
	ret
	.cfi_endproc
.LFE10923:
	.size	_ZNSt12_Vector_baseIxSaIxEE13_M_deallocateEPxm, .-_ZNSt12_Vector_baseIxSaIxEE13_M_deallocateEPxm
	.section	.text._ZSt4moveIRxEONSt16remove_referenceIT_E4typeEOS2_,"axG",@progbits,_ZSt4moveIRxEONSt16remove_referenceIT_E4typeEOS2_,comdat
	.weak	_ZSt4moveIRxEONSt16remove_referenceIT_E4typeEOS2_
	.type	_ZSt4moveIRxEONSt16remove_referenceIT_E4typeEOS2_, @function
_ZSt4moveIRxEONSt16remove_referenceIT_E4typeEOS2_:
.LFB10924:
	.cfi_startproc
	endbr64
	push	rbp
	.cfi_def_cfa_offset 16
	.cfi_offset 6, -16
	mov	rbp, rsp
	.cfi_def_cfa_register 6
	mov	QWORD PTR -8[rbp], rdi
	mov	rax, QWORD PTR -8[rbp]
	pop	rbp
	.cfi_def_cfa 7, 8
	ret
	.cfi_endproc
.LFE10924:
	.size	_ZSt4moveIRxEONSt16remove_referenceIT_E4typeEOS2_, .-_ZSt4moveIRxEONSt16remove_referenceIT_E4typeEOS2_
	.section	.text._ZNSt6vectorIxSaIxEE12emplace_backIJxEEERxDpOT_,"axG",@progbits,_ZNSt6vectorIxSaIxEE12emplace_backIJxEEERxDpOT_,comdat
	.align 2
	.weak	_ZNSt6vectorIxSaIxEE12emplace_backIJxEEERxDpOT_
	.type	_ZNSt6vectorIxSaIxEE12emplace_backIJxEEERxDpOT_, @function
_ZNSt6vectorIxSaIxEE12emplace_backIJxEEERxDpOT_:
.LFB10925:
	.cfi_startproc
	endbr64
	push	rbp
	.cfi_def_cfa_offset 16
	.cfi_offset 6, -16
	mov	rbp, rsp
	.cfi_def_cfa_register 6
	push	rbx
	sub	rsp, 24
	.cfi_offset 3, -24
	mov	QWORD PTR -24[rbp], rdi
	mov	QWORD PTR -32[rbp], rsi
	mov	rax, QWORD PTR -24[rbp]
	mov	rdx, QWORD PTR 8[rax]
	mov	rax, QWORD PTR -24[rbp]
	mov	rax, QWORD PTR 16[rax]
	cmp	rdx, rax
	je	.L196
	mov	rax, QWORD PTR -32[rbp]
	mov	rdi, rax
	call	_ZSt7forwardIxEOT_RNSt16remove_referenceIS0_E4typeE
	mov	rdx, rax
	mov	rax, QWORD PTR -24[rbp]
	mov	rcx, QWORD PTR 8[rax]
	mov	rax, QWORD PTR -24[rbp]
	mov	rsi, rcx
	mov	rdi, rax
	call	_ZNSt16allocator_traitsISaIxEE9constructIxJxEEEvRS0_PT_DpOT0_
	mov	rax, QWORD PTR -24[rbp]
	mov	rax, QWORD PTR 8[rax]
	lea	rdx, 8[rax]
	mov	rax, QWORD PTR -24[rbp]
	mov	QWORD PTR 8[rax], rdx
	jmp	.L197
.L196:
	mov	rax, QWORD PTR -32[rbp]
	mov	rdi, rax
	call	_ZSt7forwardIxEOT_RNSt16remove_referenceIS0_E4typeE
	mov	rbx, rax
	mov	rax, QWORD PTR -24[rbp]
	mov	rdi, rax
	call	_ZNSt6vectorIxSaIxEE3endEv
	mov	rcx, rax
	mov	rax, QWORD PTR -24[rbp]
	mov	rdx, rbx
	mov	rsi, rcx
	mov	rdi, rax
	call	_ZNSt6vectorIxSaIxEE17_M_realloc_insertIJxEEEvN9__gnu_cxx17__normal_iteratorIPxS1_EEDpOT_
.L197:
	mov	rax, QWORD PTR -24[rbp]
	mov	rdi, rax
	call	_ZNSt6vectorIxSaIxEE4backEv
	mov	rbx, QWORD PTR -8[rbp]
	leave
	.cfi_def_cfa 7, 8
	ret
	.cfi_endproc
.LFE10925:
	.size	_ZNSt6vectorIxSaIxEE12emplace_backIJxEEERxDpOT_, .-_ZNSt6vectorIxSaIxEE12emplace_backIJxEEERxDpOT_
	.section	.text._ZSt19__iterator_categoryIN9__gnu_cxx17__normal_iteratorIPcNSt7__cxx1112basic_stringIcSt11char_traitsIcESaIcEEEEEENSt15iterator_traitsIT_E17iterator_categoryERKSB_,"axG",@progbits,_ZSt19__iterator_categoryIN9__gnu_cxx17__normal_iteratorIPcNSt7__cxx1112basic_stringIcSt11char_traitsIcESaIcEEEEEENSt15iterator_traitsIT_E17iterator_categoryERKSB_,comdat
	.weak	_ZSt19__iterator_categoryIN9__gnu_cxx17__normal_iteratorIPcNSt7__cxx1112basic_stringIcSt11char_traitsIcESaIcEEEEEENSt15iterator_traitsIT_E17iterator_categoryERKSB_
	.type	_ZSt19__iterator_categoryIN9__gnu_cxx17__normal_iteratorIPcNSt7__cxx1112basic_stringIcSt11char_traitsIcESaIcEEEEEENSt15iterator_traitsIT_E17iterator_categoryERKSB_, @function
_ZSt19__iterator_categoryIN9__gnu_cxx17__normal_iteratorIPcNSt7__cxx1112basic_stringIcSt11char_traitsIcESaIcEEEEEENSt15iterator_traitsIT_E17iterator_categoryERKSB_:
.LFB10930:
	.cfi_startproc
	endbr64
	push	rbp
	.cfi_def_cfa_offset 16
	.cfi_offset 6, -16
	mov	rbp, rsp
	.cfi_def_cfa_register 6
	mov	QWORD PTR -8[rbp], rdi
	pop	rbp
	.cfi_def_cfa 7, 8
	ret
	.cfi_endproc
.LFE10930:
	.size	_ZSt19__iterator_categoryIN9__gnu_cxx17__normal_iteratorIPcNSt7__cxx1112basic_stringIcSt11char_traitsIcESaIcEEEEEENSt15iterator_traitsIT_E17iterator_categoryERKSB_, .-_ZSt19__iterator_categoryIN9__gnu_cxx17__normal_iteratorIPcNSt7__cxx1112basic_stringIcSt11char_traitsIcESaIcEEEEEENSt15iterator_traitsIT_E17iterator_categoryERKSB_
	.section	.text._ZSt9__reverseIN9__gnu_cxx17__normal_iteratorIPcNSt7__cxx1112basic_stringIcSt11char_traitsIcESaIcEEEEEEvT_SA_St26random_access_iterator_tag,"axG",@progbits,_ZSt9__reverseIN9__gnu_cxx17__normal_iteratorIPcNSt7__cxx1112basic_stringIcSt11char_traitsIcESaIcEEEEEEvT_SA_St26random_access_iterator_tag,comdat
	.weak	_ZSt9__reverseIN9__gnu_cxx17__normal_iteratorIPcNSt7__cxx1112basic_stringIcSt11char_traitsIcESaIcEEEEEEvT_SA_St26random_access_iterator_tag
	.type	_ZSt9__reverseIN9__gnu_cxx17__normal_iteratorIPcNSt7__cxx1112basic_stringIcSt11char_traitsIcESaIcEEEEEEvT_SA_St26random_access_iterator_tag, @function
_ZSt9__reverseIN9__gnu_cxx17__normal_iteratorIPcNSt7__cxx1112basic_stringIcSt11char_traitsIcESaIcEEEEEEvT_SA_St26random_access_iterator_tag:
.LFB10931:
	.cfi_startproc
	endbr64
	push	rbp
	.cfi_def_cfa_offset 16
	.cfi_offset 6, -16
	mov	rbp, rsp
	.cfi_def_cfa_register 6
	sub	rsp, 16
	mov	QWORD PTR -8[rbp], rdi
	mov	QWORD PTR -16[rbp], rsi
	lea	rdx, -16[rbp]
	lea	rax, -8[rbp]
	mov	rsi, rdx
	mov	rdi, rax
	call	_ZN9__gnu_cxxeqIPcNSt7__cxx1112basic_stringIcSt11char_traitsIcESaIcEEEEEbRKNS_17__normal_iteratorIT_T0_EESD_
	test	al, al
	jne	.L206
	lea	rax, -16[rbp]
	mov	rdi, rax
	call	_ZN9__gnu_cxx17__normal_iteratorIPcNSt7__cxx1112basic_stringIcSt11char_traitsIcESaIcEEEEmmEv
	jmp	.L204
.L205:
	mov	rdx, QWORD PTR -16[rbp]
	mov	rax, QWORD PTR -8[rbp]
	mov	rsi, rdx
	mov	rdi, rax
	call	_ZSt9iter_swapIN9__gnu_cxx17__normal_iteratorIPcNSt7__cxx1112basic_stringIcSt11char_traitsIcESaIcEEEEES9_EvT_T0_
	lea	rax, -8[rbp]
	mov	rdi, rax
	call	_ZN9__gnu_cxx17__normal_iteratorIPcNSt7__cxx1112basic_stringIcSt11char_traitsIcESaIcEEEEppEv
	lea	rax, -16[rbp]
	mov	rdi, rax
	call	_ZN9__gnu_cxx17__normal_iteratorIPcNSt7__cxx1112basic_stringIcSt11char_traitsIcESaIcEEEEmmEv
.L204:
	lea	rdx, -16[rbp]
	lea	rax, -8[rbp]
	mov	rsi, rdx
	mov	rdi, rax
	call	_ZN9__gnu_cxxltIPcNSt7__cxx1112basic_stringIcSt11char_traitsIcESaIcEEEEEbRKNS_17__normal_iteratorIT_T0_EESD_
	test	al, al
	jne	.L205
	jmp	.L201
.L206:
	nop
.L201:
	leave
	.cfi_def_cfa 7, 8
	ret
	.cfi_endproc
.LFE10931:
	.size	_ZSt9__reverseIN9__gnu_cxx17__normal_iteratorIPcNSt7__cxx1112basic_stringIcSt11char_traitsIcESaIcEEEEEEvT_SA_St26random_access_iterator_tag, .-_ZSt9__reverseIN9__gnu_cxx17__normal_iteratorIPcNSt7__cxx1112basic_stringIcSt11char_traitsIcESaIcEEEEEEvT_SA_St26random_access_iterator_tag
	.section	.text._ZN9__gnu_cxx13new_allocatorIiEC2Ev,"axG",@progbits,_ZN9__gnu_cxx13new_allocatorIiEC5Ev,comdat
	.align 2
	.weak	_ZN9__gnu_cxx13new_allocatorIiEC2Ev
	.type	_ZN9__gnu_cxx13new_allocatorIiEC2Ev, @function
_ZN9__gnu_cxx13new_allocatorIiEC2Ev:
.LFB10933:
	.cfi_startproc
	endbr64
	push	rbp
	.cfi_def_cfa_offset 16
	.cfi_offset 6, -16
	mov	rbp, rsp
	.cfi_def_cfa_register 6
	mov	QWORD PTR -8[rbp], rdi
	nop
	pop	rbp
	.cfi_def_cfa 7, 8
	ret
	.cfi_endproc
.LFE10933:
	.size	_ZN9__gnu_cxx13new_allocatorIiEC2Ev, .-_ZN9__gnu_cxx13new_allocatorIiEC2Ev
	.weak	_ZN9__gnu_cxx13new_allocatorIiEC1Ev
	.set	_ZN9__gnu_cxx13new_allocatorIiEC1Ev,_ZN9__gnu_cxx13new_allocatorIiEC2Ev
	.section	.text._ZN9__gnu_cxx13new_allocatorIiED2Ev,"axG",@progbits,_ZN9__gnu_cxx13new_allocatorIiED5Ev,comdat
	.align 2
	.weak	_ZN9__gnu_cxx13new_allocatorIiED2Ev
	.type	_ZN9__gnu_cxx13new_allocatorIiED2Ev, @function
_ZN9__gnu_cxx13new_allocatorIiED2Ev:
.LFB10936:
	.cfi_startproc
	endbr64
	push	rbp
	.cfi_def_cfa_offset 16
	.cfi_offset 6, -16
	mov	rbp, rsp
	.cfi_def_cfa_register 6
	mov	QWORD PTR -8[rbp], rdi
	nop
	pop	rbp
	.cfi_def_cfa 7, 8
	ret
	.cfi_endproc
.LFE10936:
	.size	_ZN9__gnu_cxx13new_allocatorIiED2Ev, .-_ZN9__gnu_cxx13new_allocatorIiED2Ev
	.weak	_ZN9__gnu_cxx13new_allocatorIiED1Ev
	.set	_ZN9__gnu_cxx13new_allocatorIiED1Ev,_ZN9__gnu_cxx13new_allocatorIiED2Ev
	.section	.rodata
	.align 8
.LC4:
	.string	"cannot create std::vector larger than max_size()"
	.section	.text._ZNSt6vectorIiSaIiEE17_S_check_init_lenEmRKS0_,"axG",@progbits,_ZNSt6vectorIiSaIiEE17_S_check_init_lenEmRKS0_,comdat
	.weak	_ZNSt6vectorIiSaIiEE17_S_check_init_lenEmRKS0_
	.type	_ZNSt6vectorIiSaIiEE17_S_check_init_lenEmRKS0_, @function
_ZNSt6vectorIiSaIiEE17_S_check_init_lenEmRKS0_:
.LFB10938:
	.cfi_startproc
	endbr64
	push	rbp
	.cfi_def_cfa_offset 16
	.cfi_offset 6, -16
	mov	rbp, rsp
	.cfi_def_cfa_register 6
	push	rbx
	sub	rsp, 40
	.cfi_offset 3, -24
	mov	QWORD PTR -40[rbp], rdi
	mov	QWORD PTR -48[rbp], rsi
	mov	rax, QWORD PTR fs:40
	mov	QWORD PTR -24[rbp], rax
	xor	eax, eax
	mov	rdx, QWORD PTR -48[rbp]
	lea	rax, -25[rbp]
	mov	rsi, rdx
	mov	rdi, rax
	call	_ZNSaIiEC1ERKS_
	lea	rax, -25[rbp]
	mov	rdi, rax
	call	_ZNSt6vectorIiSaIiEE11_S_max_sizeERKS0_
	cmp	QWORD PTR -40[rbp], rax
	seta	bl
	lea	rax, -25[rbp]
	mov	rdi, rax
	call	_ZNSaIiED1Ev
	test	bl, bl
	je	.L210
	lea	rax, .LC4[rip]
	mov	rdi, rax
	call	_ZSt20__throw_length_errorPKc@PLT
.L210:
	mov	rax, QWORD PTR -40[rbp]
	mov	rdx, QWORD PTR -24[rbp]
	sub	rdx, QWORD PTR fs:40
	je	.L212
	call	__stack_chk_fail@PLT
.L212:
	mov	rbx, QWORD PTR -8[rbp]
	leave
	.cfi_def_cfa 7, 8
	ret
	.cfi_endproc
.LFE10938:
	.size	_ZNSt6vectorIiSaIiEE17_S_check_init_lenEmRKS0_, .-_ZNSt6vectorIiSaIiEE17_S_check_init_lenEmRKS0_
	.section	.text._ZNSt12_Vector_baseIiSaIiEE12_Vector_implD2Ev,"axG",@progbits,_ZNSt12_Vector_baseIiSaIiEE12_Vector_implD5Ev,comdat
	.align 2
	.weak	_ZNSt12_Vector_baseIiSaIiEE12_Vector_implD2Ev
	.type	_ZNSt12_Vector_baseIiSaIiEE12_Vector_implD2Ev, @function
_ZNSt12_Vector_baseIiSaIiEE12_Vector_implD2Ev:
.LFB10941:
	.cfi_startproc
	endbr64
	push	rbp
	.cfi_def_cfa_offset 16
	.cfi_offset 6, -16
	mov	rbp, rsp
	.cfi_def_cfa_register 6
	sub	rsp, 16
	mov	QWORD PTR -8[rbp], rdi
	mov	rax, QWORD PTR -8[rbp]
	mov	rdi, rax
	call	_ZNSaIiED2Ev
	nop
	leave
	.cfi_def_cfa 7, 8
	ret
	.cfi_endproc
.LFE10941:
	.size	_ZNSt12_Vector_baseIiSaIiEE12_Vector_implD2Ev, .-_ZNSt12_Vector_baseIiSaIiEE12_Vector_implD2Ev
	.weak	_ZNSt12_Vector_baseIiSaIiEE12_Vector_implD1Ev
	.set	_ZNSt12_Vector_baseIiSaIiEE12_Vector_implD1Ev,_ZNSt12_Vector_baseIiSaIiEE12_Vector_implD2Ev
	.section	.text._ZNSt12_Vector_baseIiSaIiEEC2EmRKS0_,"axG",@progbits,_ZNSt12_Vector_baseIiSaIiEEC5EmRKS0_,comdat
	.align 2
	.weak	_ZNSt12_Vector_baseIiSaIiEEC2EmRKS0_
	.type	_ZNSt12_Vector_baseIiSaIiEEC2EmRKS0_, @function
_ZNSt12_Vector_baseIiSaIiEEC2EmRKS0_:
.LFB10943:
	.cfi_startproc
	.cfi_personality 0x9b,DW.ref.__gxx_personality_v0
	.cfi_lsda 0x1b,.LLSDA10943
	endbr64
	push	rbp
	.cfi_def_cfa_offset 16
	.cfi_offset 6, -16
	mov	rbp, rsp
	.cfi_def_cfa_register 6
	push	rbx
	sub	rsp, 40
	.cfi_offset 3, -24
	mov	QWORD PTR -24[rbp], rdi
	mov	QWORD PTR -32[rbp], rsi
	mov	QWORD PTR -40[rbp], rdx
	mov	rax, QWORD PTR -24[rbp]
	mov	rdx, QWORD PTR -40[rbp]
	mov	rsi, rdx
	mov	rdi, rax
	call	_ZNSt12_Vector_baseIiSaIiEE12_Vector_implC1ERKS0_
	mov	rdx, QWORD PTR -32[rbp]
	mov	rax, QWORD PTR -24[rbp]
	mov	rsi, rdx
	mov	rdi, rax
.LEHB10:
	call	_ZNSt12_Vector_baseIiSaIiEE17_M_create_storageEm
.LEHE10:
	jmp	.L217
.L216:
	endbr64
	mov	rbx, rax
	mov	rax, QWORD PTR -24[rbp]
	mov	rdi, rax
	call	_ZNSt12_Vector_baseIiSaIiEE12_Vector_implD1Ev
	mov	rax, rbx
	mov	rdi, rax
.LEHB11:
	call	_Unwind_Resume@PLT
.LEHE11:
.L217:
	mov	rbx, QWORD PTR -8[rbp]
	leave
	.cfi_def_cfa 7, 8
	ret
	.cfi_endproc
.LFE10943:
	.section	.gcc_except_table
.LLSDA10943:
	.byte	0xff
	.byte	0xff
	.byte	0x1
	.uleb128 .LLSDACSE10943-.LLSDACSB10943
.LLSDACSB10943:
	.uleb128 .LEHB10-.LFB10943
	.uleb128 .LEHE10-.LEHB10
	.uleb128 .L216-.LFB10943
	.uleb128 0
	.uleb128 .LEHB11-.LFB10943
	.uleb128 .LEHE11-.LEHB11
	.uleb128 0
	.uleb128 0
.LLSDACSE10943:
	.section	.text._ZNSt12_Vector_baseIiSaIiEEC2EmRKS0_,"axG",@progbits,_ZNSt12_Vector_baseIiSaIiEEC5EmRKS0_,comdat
	.size	_ZNSt12_Vector_baseIiSaIiEEC2EmRKS0_, .-_ZNSt12_Vector_baseIiSaIiEEC2EmRKS0_
	.weak	_ZNSt12_Vector_baseIiSaIiEEC1EmRKS0_
	.set	_ZNSt12_Vector_baseIiSaIiEEC1EmRKS0_,_ZNSt12_Vector_baseIiSaIiEEC2EmRKS0_
	.section	.text._ZNSt12_Vector_baseIiSaIiEED2Ev,"axG",@progbits,_ZNSt12_Vector_baseIiSaIiEED5Ev,comdat
	.align 2
	.weak	_ZNSt12_Vector_baseIiSaIiEED2Ev
	.type	_ZNSt12_Vector_baseIiSaIiEED2Ev, @function
_ZNSt12_Vector_baseIiSaIiEED2Ev:
.LFB10946:
	.cfi_startproc
	.cfi_personality 0x9b,DW.ref.__gxx_personality_v0
	.cfi_lsda 0x1b,.LLSDA10946
	endbr64
	push	rbp
	.cfi_def_cfa_offset 16
	.cfi_offset 6, -16
	mov	rbp, rsp
	.cfi_def_cfa_register 6
	sub	rsp, 16
	mov	QWORD PTR -8[rbp], rdi
	mov	rax, QWORD PTR -8[rbp]
	mov	rdx, QWORD PTR 16[rax]
	mov	rax, QWORD PTR -8[rbp]
	mov	rcx, QWORD PTR [rax]
	mov	rax, rdx
	sub	rax, rcx
	sar	rax, 2
	mov	rdx, rax
	mov	rax, QWORD PTR -8[rbp]
	mov	rcx, QWORD PTR [rax]
	mov	rax, QWORD PTR -8[rbp]
	mov	rsi, rcx
	mov	rdi, rax
	call	_ZNSt12_Vector_baseIiSaIiEE13_M_deallocateEPim
	mov	rax, QWORD PTR -8[rbp]
	mov	rdi, rax
	call	_ZNSt12_Vector_baseIiSaIiEE12_Vector_implD1Ev
	nop
	leave
	.cfi_def_cfa 7, 8
	ret
	.cfi_endproc
.LFE10946:
	.section	.gcc_except_table
.LLSDA10946:
	.byte	0xff
	.byte	0xff
	.byte	0x1
	.uleb128 .LLSDACSE10946-.LLSDACSB10946
.LLSDACSB10946:
.LLSDACSE10946:
	.section	.text._ZNSt12_Vector_baseIiSaIiEED2Ev,"axG",@progbits,_ZNSt12_Vector_baseIiSaIiEED5Ev,comdat
	.size	_ZNSt12_Vector_baseIiSaIiEED2Ev, .-_ZNSt12_Vector_baseIiSaIiEED2Ev
	.weak	_ZNSt12_Vector_baseIiSaIiEED1Ev
	.set	_ZNSt12_Vector_baseIiSaIiEED1Ev,_ZNSt12_Vector_baseIiSaIiEED2Ev
	.section	.text._ZNSt6vectorIiSaIiEE21_M_default_initializeEm,"axG",@progbits,_ZNSt6vectorIiSaIiEE21_M_default_initializeEm,comdat
	.align 2
	.weak	_ZNSt6vectorIiSaIiEE21_M_default_initializeEm
	.type	_ZNSt6vectorIiSaIiEE21_M_default_initializeEm, @function
_ZNSt6vectorIiSaIiEE21_M_default_initializeEm:
.LFB10948:
	.cfi_startproc
	endbr64
	push	rbp
	.cfi_def_cfa_offset 16
	.cfi_offset 6, -16
	mov	rbp, rsp
	.cfi_def_cfa_register 6
	sub	rsp, 16
	mov	QWORD PTR -8[rbp], rdi
	mov	QWORD PTR -16[rbp], rsi
	mov	rax, QWORD PTR -8[rbp]
	mov	rdi, rax
	call	_ZNSt12_Vector_baseIiSaIiEE19_M_get_Tp_allocatorEv
	mov	rdx, rax
	mov	rax, QWORD PTR -8[rbp]
	mov	rax, QWORD PTR [rax]
	mov	rcx, QWORD PTR -16[rbp]
	mov	rsi, rcx
	mov	rdi, rax
	call	_ZSt27__uninitialized_default_n_aIPimiET_S1_T0_RSaIT1_E
	mov	rdx, QWORD PTR -8[rbp]
	mov	QWORD PTR 8[rdx], rax
	nop
	leave
	.cfi_def_cfa 7, 8
	ret
	.cfi_endproc
.LFE10948:
	.size	_ZNSt6vectorIiSaIiEE21_M_default_initializeEm, .-_ZNSt6vectorIiSaIiEE21_M_default_initializeEm
	.section	.text._ZNSt12_Vector_baseIiSaIiEE19_M_get_Tp_allocatorEv,"axG",@progbits,_ZNSt12_Vector_baseIiSaIiEE19_M_get_Tp_allocatorEv,comdat
	.align 2
	.weak	_ZNSt12_Vector_baseIiSaIiEE19_M_get_Tp_allocatorEv
	.type	_ZNSt12_Vector_baseIiSaIiEE19_M_get_Tp_allocatorEv, @function
_ZNSt12_Vector_baseIiSaIiEE19_M_get_Tp_allocatorEv:
.LFB10949:
	.cfi_startproc
	endbr64
	push	rbp
	.cfi_def_cfa_offset 16
	.cfi_offset 6, -16
	mov	rbp, rsp
	.cfi_def_cfa_register 6
	mov	QWORD PTR -8[rbp], rdi
	mov	rax, QWORD PTR -8[rbp]
	pop	rbp
	.cfi_def_cfa 7, 8
	ret
	.cfi_endproc
.LFE10949:
	.size	_ZNSt12_Vector_baseIiSaIiEE19_M_get_Tp_allocatorEv, .-_ZNSt12_Vector_baseIiSaIiEE19_M_get_Tp_allocatorEv
	.section	.text._ZSt8_DestroyIPiiEvT_S1_RSaIT0_E,"axG",@progbits,_ZSt8_DestroyIPiiEvT_S1_RSaIT0_E,comdat
	.weak	_ZSt8_DestroyIPiiEvT_S1_RSaIT0_E
	.type	_ZSt8_DestroyIPiiEvT_S1_RSaIT0_E, @function
_ZSt8_DestroyIPiiEvT_S1_RSaIT0_E:
.LFB10950:
	.cfi_startproc
	endbr64
	push	rbp
	.cfi_def_cfa_offset 16
	.cfi_offset 6, -16
	mov	rbp, rsp
	.cfi_def_cfa_register 6
	sub	rsp, 32
	mov	QWORD PTR -8[rbp], rdi
	mov	QWORD PTR -16[rbp], rsi
	mov	QWORD PTR -24[rbp], rdx
	mov	rdx, QWORD PTR -16[rbp]
	mov	rax, QWORD PTR -8[rbp]
	mov	rsi, rdx
	mov	rdi, rax
	call	_ZSt8_DestroyIPiEvT_S1_
	nop
	leave
	.cfi_def_cfa 7, 8
	ret
	.cfi_endproc
.LFE10950:
	.size	_ZSt8_DestroyIPiiEvT_S1_RSaIT0_E, .-_ZSt8_DestroyIPiiEvT_S1_RSaIT0_E
	.section	.text._ZNSaISt4pairIiiEEC2Ev,"axG",@progbits,_ZNSaISt4pairIiiEEC5Ev,comdat
	.align 2
	.weak	_ZNSaISt4pairIiiEEC2Ev
	.type	_ZNSaISt4pairIiiEEC2Ev, @function
_ZNSaISt4pairIiiEEC2Ev:
.LFB10952:
	.cfi_startproc
	endbr64
	push	rbp
	.cfi_def_cfa_offset 16
	.cfi_offset 6, -16
	mov	rbp, rsp
	.cfi_def_cfa_register 6
	sub	rsp, 16
	mov	QWORD PTR -8[rbp], rdi
	mov	rax, QWORD PTR -8[rbp]
	mov	rdi, rax
	call	_ZN9__gnu_cxx13new_allocatorISt4pairIiiEEC2Ev
	nop
	leave
	.cfi_def_cfa 7, 8
	ret
	.cfi_endproc
.LFE10952:
	.size	_ZNSaISt4pairIiiEEC2Ev, .-_ZNSaISt4pairIiiEEC2Ev
	.weak	_ZNSaISt4pairIiiEEC1Ev
	.set	_ZNSaISt4pairIiiEEC1Ev,_ZNSaISt4pairIiiEEC2Ev
	.section	.text._ZNSt12_Vector_baseISt4pairIiiESaIS1_EE17_Vector_impl_dataC2Ev,"axG",@progbits,_ZNSt12_Vector_baseISt4pairIiiESaIS1_EE17_Vector_impl_dataC5Ev,comdat
	.align 2
	.weak	_ZNSt12_Vector_baseISt4pairIiiESaIS1_EE17_Vector_impl_dataC2Ev
	.type	_ZNSt12_Vector_baseISt4pairIiiESaIS1_EE17_Vector_impl_dataC2Ev, @function
_ZNSt12_Vector_baseISt4pairIiiESaIS1_EE17_Vector_impl_dataC2Ev:
.LFB10955:
	.cfi_startproc
	endbr64
	push	rbp
	.cfi_def_cfa_offset 16
	.cfi_offset 6, -16
	mov	rbp, rsp
	.cfi_def_cfa_register 6
	mov	QWORD PTR -8[rbp], rdi
	mov	rax, QWORD PTR -8[rbp]
	mov	QWORD PTR [rax], 0
	mov	rax, QWORD PTR -8[rbp]
	mov	QWORD PTR 8[rax], 0
	mov	rax, QWORD PTR -8[rbp]
	mov	QWORD PTR 16[rax], 0
	nop
	pop	rbp
	.cfi_def_cfa 7, 8
	ret
	.cfi_endproc
.LFE10955:
	.size	_ZNSt12_Vector_baseISt4pairIiiESaIS1_EE17_Vector_impl_dataC2Ev, .-_ZNSt12_Vector_baseISt4pairIiiESaIS1_EE17_Vector_impl_dataC2Ev
	.weak	_ZNSt12_Vector_baseISt4pairIiiESaIS1_EE17_Vector_impl_dataC1Ev
	.set	_ZNSt12_Vector_baseISt4pairIiiESaIS1_EE17_Vector_impl_dataC1Ev,_ZNSt12_Vector_baseISt4pairIiiESaIS1_EE17_Vector_impl_dataC2Ev
	.section	.text._ZN9__gnu_cxx13new_allocatorISt4pairIiiEED2Ev,"axG",@progbits,_ZN9__gnu_cxx13new_allocatorISt4pairIiiEED5Ev,comdat
	.align 2
	.weak	_ZN9__gnu_cxx13new_allocatorISt4pairIiiEED2Ev
	.type	_ZN9__gnu_cxx13new_allocatorISt4pairIiiEED2Ev, @function
_ZN9__gnu_cxx13new_allocatorISt4pairIiiEED2Ev:
.LFB10958:
	.cfi_startproc
	endbr64
	push	rbp
	.cfi_def_cfa_offset 16
	.cfi_offset 6, -16
	mov	rbp, rsp
	.cfi_def_cfa_register 6
	mov	QWORD PTR -8[rbp], rdi
	nop
	pop	rbp
	.cfi_def_cfa 7, 8
	ret
	.cfi_endproc
.LFE10958:
	.size	_ZN9__gnu_cxx13new_allocatorISt4pairIiiEED2Ev, .-_ZN9__gnu_cxx13new_allocatorISt4pairIiiEED2Ev
	.weak	_ZN9__gnu_cxx13new_allocatorISt4pairIiiEED1Ev
	.set	_ZN9__gnu_cxx13new_allocatorISt4pairIiiEED1Ev,_ZN9__gnu_cxx13new_allocatorISt4pairIiiEED2Ev
	.section	.text._ZNSt12_Vector_baseISt4pairIiiESaIS1_EE13_M_deallocateEPS1_m,"axG",@progbits,_ZNSt12_Vector_baseISt4pairIiiESaIS1_EE13_M_deallocateEPS1_m,comdat
	.align 2
	.weak	_ZNSt12_Vector_baseISt4pairIiiESaIS1_EE13_M_deallocateEPS1_m
	.type	_ZNSt12_Vector_baseISt4pairIiiESaIS1_EE13_M_deallocateEPS1_m, @function
_ZNSt12_Vector_baseISt4pairIiiESaIS1_EE13_M_deallocateEPS1_m:
.LFB10960:
	.cfi_startproc
	endbr64
	push	rbp
	.cfi_def_cfa_offset 16
	.cfi_offset 6, -16
	mov	rbp, rsp
	.cfi_def_cfa_register 6
	sub	rsp, 32
	mov	QWORD PTR -8[rbp], rdi
	mov	QWORD PTR -16[rbp], rsi
	mov	QWORD PTR -24[rbp], rdx
	cmp	QWORD PTR -16[rbp], 0
	je	.L228
	mov	rax, QWORD PTR -8[rbp]
	mov	rdx, QWORD PTR -24[rbp]
	mov	rcx, QWORD PTR -16[rbp]
	mov	rsi, rcx
	mov	rdi, rax
	call	_ZNSt16allocator_traitsISaISt4pairIiiEEE10deallocateERS2_PS1_m
.L228:
	nop
	leave
	.cfi_def_cfa 7, 8
	ret
	.cfi_endproc
.LFE10960:
	.size	_ZNSt12_Vector_baseISt4pairIiiESaIS1_EE13_M_deallocateEPS1_m, .-_ZNSt12_Vector_baseISt4pairIiiESaIS1_EE13_M_deallocateEPS1_m
	.section	.text._ZNSt12_Vector_baseISt4pairIiiESaIS1_EE19_M_get_Tp_allocatorEv,"axG",@progbits,_ZNSt12_Vector_baseISt4pairIiiESaIS1_EE19_M_get_Tp_allocatorEv,comdat
	.align 2
	.weak	_ZNSt12_Vector_baseISt4pairIiiESaIS1_EE19_M_get_Tp_allocatorEv
	.type	_ZNSt12_Vector_baseISt4pairIiiESaIS1_EE19_M_get_Tp_allocatorEv, @function
_ZNSt12_Vector_baseISt4pairIiiESaIS1_EE19_M_get_Tp_allocatorEv:
.LFB10961:
	.cfi_startproc
	endbr64
	push	rbp
	.cfi_def_cfa_offset 16
	.cfi_offset 6, -16
	mov	rbp, rsp
	.cfi_def_cfa_register 6
	mov	QWORD PTR -8[rbp], rdi
	mov	rax, QWORD PTR -8[rbp]
	pop	rbp
	.cfi_def_cfa 7, 8
	ret
	.cfi_endproc
.LFE10961:
	.size	_ZNSt12_Vector_baseISt4pairIiiESaIS1_EE19_M_get_Tp_allocatorEv, .-_ZNSt12_Vector_baseISt4pairIiiESaIS1_EE19_M_get_Tp_allocatorEv
	.section	.text._ZSt8_DestroyIPSt4pairIiiES1_EvT_S3_RSaIT0_E,"axG",@progbits,_ZSt8_DestroyIPSt4pairIiiES1_EvT_S3_RSaIT0_E,comdat
	.weak	_ZSt8_DestroyIPSt4pairIiiES1_EvT_S3_RSaIT0_E
	.type	_ZSt8_DestroyIPSt4pairIiiES1_EvT_S3_RSaIT0_E, @function
_ZSt8_DestroyIPSt4pairIiiES1_EvT_S3_RSaIT0_E:
.LFB10962:
	.cfi_startproc
	endbr64
	push	rbp
	.cfi_def_cfa_offset 16
	.cfi_offset 6, -16
	mov	rbp, rsp
	.cfi_def_cfa_register 6
	sub	rsp, 32
	mov	QWORD PTR -8[rbp], rdi
	mov	QWORD PTR -16[rbp], rsi
	mov	QWORD PTR -24[rbp], rdx
	mov	rdx, QWORD PTR -16[rbp]
	mov	rax, QWORD PTR -8[rbp]
	mov	rsi, rdx
	mov	rdi, rax
	call	_ZSt8_DestroyIPSt4pairIiiEEvT_S3_
	nop
	leave
	.cfi_def_cfa 7, 8
	ret
	.cfi_endproc
.LFE10962:
	.size	_ZSt8_DestroyIPSt4pairIiiES1_EvT_S3_RSaIT0_E, .-_ZSt8_DestroyIPSt4pairIiiES1_EvT_S3_RSaIT0_E
	.section	.text._ZNSaISt13_Rb_tree_nodeISt4pairIKiiEEEC2Ev,"axG",@progbits,_ZNSaISt13_Rb_tree_nodeISt4pairIKiiEEEC5Ev,comdat
	.align 2
	.weak	_ZNSaISt13_Rb_tree_nodeISt4pairIKiiEEEC2Ev
	.type	_ZNSaISt13_Rb_tree_nodeISt4pairIKiiEEEC2Ev, @function
_ZNSaISt13_Rb_tree_nodeISt4pairIKiiEEEC2Ev:
.LFB10964:
	.cfi_startproc
	endbr64
	push	rbp
	.cfi_def_cfa_offset 16
	.cfi_offset 6, -16
	mov	rbp, rsp
	.cfi_def_cfa_register 6
	sub	rsp, 16
	mov	QWORD PTR -8[rbp], rdi
	mov	rax, QWORD PTR -8[rbp]
	mov	rdi, rax
	call	_ZN9__gnu_cxx13new_allocatorISt13_Rb_tree_nodeISt4pairIKiiEEEC2Ev
	nop
	leave
	.cfi_def_cfa 7, 8
	ret
	.cfi_endproc
.LFE10964:
	.size	_ZNSaISt13_Rb_tree_nodeISt4pairIKiiEEEC2Ev, .-_ZNSaISt13_Rb_tree_nodeISt4pairIKiiEEEC2Ev
	.weak	_ZNSaISt13_Rb_tree_nodeISt4pairIKiiEEEC1Ev
	.set	_ZNSaISt13_Rb_tree_nodeISt4pairIKiiEEEC1Ev,_ZNSaISt13_Rb_tree_nodeISt4pairIKiiEEEC2Ev
	.section	.text._ZNSt20_Rb_tree_key_compareISt4lessIiEEC2Ev,"axG",@progbits,_ZNSt20_Rb_tree_key_compareISt4lessIiEEC5Ev,comdat
	.align 2
	.weak	_ZNSt20_Rb_tree_key_compareISt4lessIiEEC2Ev
	.type	_ZNSt20_Rb_tree_key_compareISt4lessIiEEC2Ev, @function
_ZNSt20_Rb_tree_key_compareISt4lessIiEEC2Ev:
.LFB10967:
	.cfi_startproc
	endbr64
	push	rbp
	.cfi_def_cfa_offset 16
	.cfi_offset 6, -16
	mov	rbp, rsp
	.cfi_def_cfa_register 6
	mov	QWORD PTR -8[rbp], rdi
	nop
	pop	rbp
	.cfi_def_cfa 7, 8
	ret
	.cfi_endproc
.LFE10967:
	.size	_ZNSt20_Rb_tree_key_compareISt4lessIiEEC2Ev, .-_ZNSt20_Rb_tree_key_compareISt4lessIiEEC2Ev
	.weak	_ZNSt20_Rb_tree_key_compareISt4lessIiEEC1Ev
	.set	_ZNSt20_Rb_tree_key_compareISt4lessIiEEC1Ev,_ZNSt20_Rb_tree_key_compareISt4lessIiEEC2Ev
	.section	.text._ZN9__gnu_cxx13new_allocatorISt13_Rb_tree_nodeISt4pairIKiiEEED2Ev,"axG",@progbits,_ZN9__gnu_cxx13new_allocatorISt13_Rb_tree_nodeISt4pairIKiiEEED5Ev,comdat
	.align 2
	.weak	_ZN9__gnu_cxx13new_allocatorISt13_Rb_tree_nodeISt4pairIKiiEEED2Ev
	.type	_ZN9__gnu_cxx13new_allocatorISt13_Rb_tree_nodeISt4pairIKiiEEED2Ev, @function
_ZN9__gnu_cxx13new_allocatorISt13_Rb_tree_nodeISt4pairIKiiEEED2Ev:
.LFB10970:
	.cfi_startproc
	endbr64
	push	rbp
	.cfi_def_cfa_offset 16
	.cfi_offset 6, -16
	mov	rbp, rsp
	.cfi_def_cfa_register 6
	mov	QWORD PTR -8[rbp], rdi
	nop
	pop	rbp
	.cfi_def_cfa 7, 8
	ret
	.cfi_endproc
.LFE10970:
	.size	_ZN9__gnu_cxx13new_allocatorISt13_Rb_tree_nodeISt4pairIKiiEEED2Ev, .-_ZN9__gnu_cxx13new_allocatorISt13_Rb_tree_nodeISt4pairIKiiEEED2Ev
	.weak	_ZN9__gnu_cxx13new_allocatorISt13_Rb_tree_nodeISt4pairIKiiEEED1Ev
	.set	_ZN9__gnu_cxx13new_allocatorISt13_Rb_tree_nodeISt4pairIKiiEEED1Ev,_ZN9__gnu_cxx13new_allocatorISt13_Rb_tree_nodeISt4pairIKiiEEED2Ev
	.section	.text._ZNSt8_Rb_treeIiSt4pairIKiiESt10_Select1stIS2_ESt4lessIiESaIS2_EE8_M_eraseEPSt13_Rb_tree_nodeIS2_E,"axG",@progbits,_ZNSt8_Rb_treeIiSt4pairIKiiESt10_Select1stIS2_ESt4lessIiESaIS2_EE8_M_eraseEPSt13_Rb_tree_nodeIS2_E,comdat
	.align 2
	.weak	_ZNSt8_Rb_treeIiSt4pairIKiiESt10_Select1stIS2_ESt4lessIiESaIS2_EE8_M_eraseEPSt13_Rb_tree_nodeIS2_E
	.type	_ZNSt8_Rb_treeIiSt4pairIKiiESt10_Select1stIS2_ESt4lessIiESaIS2_EE8_M_eraseEPSt13_Rb_tree_nodeIS2_E, @function
_ZNSt8_Rb_treeIiSt4pairIKiiESt10_Select1stIS2_ESt4lessIiESaIS2_EE8_M_eraseEPSt13_Rb_tree_nodeIS2_E:
.LFB10972:
	.cfi_startproc
	endbr64
	push	rbp
	.cfi_def_cfa_offset 16
	.cfi_offset 6, -16
	mov	rbp, rsp
	.cfi_def_cfa_register 6
	sub	rsp, 32
	mov	QWORD PTR -24[rbp], rdi
	mov	QWORD PTR -32[rbp], rsi
	jmp	.L236
.L237:
	mov	rax, QWORD PTR -32[rbp]
	mov	rdi, rax
	call	_ZNSt8_Rb_treeIiSt4pairIKiiESt10_Select1stIS2_ESt4lessIiESaIS2_EE8_S_rightEPSt18_Rb_tree_node_base
	mov	rdx, rax
	mov	rax, QWORD PTR -24[rbp]
	mov	rsi, rdx
	mov	rdi, rax
	call	_ZNSt8_Rb_treeIiSt4pairIKiiESt10_Select1stIS2_ESt4lessIiESaIS2_EE8_M_eraseEPSt13_Rb_tree_nodeIS2_E
	mov	rax, QWORD PTR -32[rbp]
	mov	rdi, rax
	call	_ZNSt8_Rb_treeIiSt4pairIKiiESt10_Select1stIS2_ESt4lessIiESaIS2_EE7_S_leftEPSt18_Rb_tree_node_base
	mov	QWORD PTR -8[rbp], rax
	mov	rdx, QWORD PTR -32[rbp]
	mov	rax, QWORD PTR -24[rbp]
	mov	rsi, rdx
	mov	rdi, rax
	call	_ZNSt8_Rb_treeIiSt4pairIKiiESt10_Select1stIS2_ESt4lessIiESaIS2_EE12_M_drop_nodeEPSt13_Rb_tree_nodeIS2_E
	mov	rax, QWORD PTR -8[rbp]
	mov	QWORD PTR -32[rbp], rax
.L236:
	cmp	QWORD PTR -32[rbp], 0
	jne	.L237
	nop
	nop
	leave
	.cfi_def_cfa 7, 8
	ret
	.cfi_endproc
.LFE10972:
	.size	_ZNSt8_Rb_treeIiSt4pairIKiiESt10_Select1stIS2_ESt4lessIiESaIS2_EE8_M_eraseEPSt13_Rb_tree_nodeIS2_E, .-_ZNSt8_Rb_treeIiSt4pairIKiiESt10_Select1stIS2_ESt4lessIiESaIS2_EE8_M_eraseEPSt13_Rb_tree_nodeIS2_E
	.section	.text._ZNSt8_Rb_treeIiSt4pairIKiiESt10_Select1stIS2_ESt4lessIiESaIS2_EE8_M_beginEv,"axG",@progbits,_ZNSt8_Rb_treeIiSt4pairIKiiESt10_Select1stIS2_ESt4lessIiESaIS2_EE8_M_beginEv,comdat
	.align 2
	.weak	_ZNSt8_Rb_treeIiSt4pairIKiiESt10_Select1stIS2_ESt4lessIiESaIS2_EE8_M_beginEv
	.type	_ZNSt8_Rb_treeIiSt4pairIKiiESt10_Select1stIS2_ESt4lessIiESaIS2_EE8_M_beginEv, @function
_ZNSt8_Rb_treeIiSt4pairIKiiESt10_Select1stIS2_ESt4lessIiESaIS2_EE8_M_beginEv:
.LFB10973:
	.cfi_startproc
	endbr64
	push	rbp
	.cfi_def_cfa_offset 16
	.cfi_offset 6, -16
	mov	rbp, rsp
	.cfi_def_cfa_register 6
	sub	rsp, 16
	mov	QWORD PTR -8[rbp], rdi
	mov	rax, QWORD PTR -8[rbp]
	mov	rdi, rax
	call	_ZNKSt8_Rb_treeIiSt4pairIKiiESt10_Select1stIS2_ESt4lessIiESaIS2_EE9_M_mbeginEv
	leave
	.cfi_def_cfa 7, 8
	ret
	.cfi_endproc
.LFE10973:
	.size	_ZNSt8_Rb_treeIiSt4pairIKiiESt10_Select1stIS2_ESt4lessIiESaIS2_EE8_M_beginEv, .-_ZNSt8_Rb_treeIiSt4pairIKiiESt10_Select1stIS2_ESt4lessIiESaIS2_EE8_M_beginEv
	.section	.text._ZNSt3mapIiiSt4lessIiESaISt4pairIKiiEEE11lower_boundERS3_,"axG",@progbits,_ZNSt3mapIiiSt4lessIiESaISt4pairIKiiEEE11lower_boundERS3_,comdat
	.align 2
	.weak	_ZNSt3mapIiiSt4lessIiESaISt4pairIKiiEEE11lower_boundERS3_
	.type	_ZNSt3mapIiiSt4lessIiESaISt4pairIKiiEEE11lower_boundERS3_, @function
_ZNSt3mapIiiSt4lessIiESaISt4pairIKiiEEE11lower_boundERS3_:
.LFB10974:
	.cfi_startproc
	endbr64
	push	rbp
	.cfi_def_cfa_offset 16
	.cfi_offset 6, -16
	mov	rbp, rsp
	.cfi_def_cfa_register 6
	sub	rsp, 16
	mov	QWORD PTR -8[rbp], rdi
	mov	QWORD PTR -16[rbp], rsi
	mov	rax, QWORD PTR -8[rbp]
	mov	rdx, QWORD PTR -16[rbp]
	mov	rsi, rdx
	mov	rdi, rax
	call	_ZNSt8_Rb_treeIiSt4pairIKiiESt10_Select1stIS2_ESt4lessIiESaIS2_EE11lower_boundERS1_
	leave
	.cfi_def_cfa 7, 8
	ret
	.cfi_endproc
.LFE10974:
	.size	_ZNSt3mapIiiSt4lessIiESaISt4pairIKiiEEE11lower_boundERS3_, .-_ZNSt3mapIiiSt4lessIiESaISt4pairIKiiEEE11lower_boundERS3_
	.section	.text._ZNSt3mapIiiSt4lessIiESaISt4pairIKiiEEE3endEv,"axG",@progbits,_ZNSt3mapIiiSt4lessIiESaISt4pairIKiiEEE3endEv,comdat
	.align 2
	.weak	_ZNSt3mapIiiSt4lessIiESaISt4pairIKiiEEE3endEv
	.type	_ZNSt3mapIiiSt4lessIiESaISt4pairIKiiEEE3endEv, @function
_ZNSt3mapIiiSt4lessIiESaISt4pairIKiiEEE3endEv:
.LFB10975:
	.cfi_startproc
	endbr64
	push	rbp
	.cfi_def_cfa_offset 16
	.cfi_offset 6, -16
	mov	rbp, rsp
	.cfi_def_cfa_register 6
	sub	rsp, 16
	mov	QWORD PTR -8[rbp], rdi
	mov	rax, QWORD PTR -8[rbp]
	mov	rdi, rax
	call	_ZNSt8_Rb_treeIiSt4pairIKiiESt10_Select1stIS2_ESt4lessIiESaIS2_EE3endEv
	leave
	.cfi_def_cfa 7, 8
	ret
	.cfi_endproc
.LFE10975:
	.size	_ZNSt3mapIiiSt4lessIiESaISt4pairIKiiEEE3endEv, .-_ZNSt3mapIiiSt4lessIiESaISt4pairIKiiEEE3endEv
	.section	.text._ZSteqRKSt17_Rb_tree_iteratorISt4pairIKiiEES5_,"axG",@progbits,_ZSteqRKSt17_Rb_tree_iteratorISt4pairIKiiEES5_,comdat
	.weak	_ZSteqRKSt17_Rb_tree_iteratorISt4pairIKiiEES5_
	.type	_ZSteqRKSt17_Rb_tree_iteratorISt4pairIKiiEES5_, @function
_ZSteqRKSt17_Rb_tree_iteratorISt4pairIKiiEES5_:
.LFB10976:
	.cfi_startproc
	endbr64
	push	rbp
	.cfi_def_cfa_offset 16
	.cfi_offset 6, -16
	mov	rbp, rsp
	.cfi_def_cfa_register 6
	mov	QWORD PTR -8[rbp], rdi
	mov	QWORD PTR -16[rbp], rsi
	mov	rax, QWORD PTR -8[rbp]
	mov	rdx, QWORD PTR [rax]
	mov	rax, QWORD PTR -16[rbp]
	mov	rax, QWORD PTR [rax]
	cmp	rdx, rax
	sete	al
	pop	rbp
	.cfi_def_cfa 7, 8
	ret
	.cfi_endproc
.LFE10976:
	.size	_ZSteqRKSt17_Rb_tree_iteratorISt4pairIKiiEES5_, .-_ZSteqRKSt17_Rb_tree_iteratorISt4pairIKiiEES5_
	.section	.text._ZNKSt3mapIiiSt4lessIiESaISt4pairIKiiEEE8key_compEv,"axG",@progbits,_ZNKSt3mapIiiSt4lessIiESaISt4pairIKiiEEE8key_compEv,comdat
	.align 2
	.weak	_ZNKSt3mapIiiSt4lessIiESaISt4pairIKiiEEE8key_compEv
	.type	_ZNKSt3mapIiiSt4lessIiESaISt4pairIKiiEEE8key_compEv, @function
_ZNKSt3mapIiiSt4lessIiESaISt4pairIKiiEEE8key_compEv:
.LFB10977:
	.cfi_startproc
	endbr64
	push	rbp
	.cfi_def_cfa_offset 16
	.cfi_offset 6, -16
	mov	rbp, rsp
	.cfi_def_cfa_register 6
	push	rbx
	sub	rsp, 24
	.cfi_offset 3, -24
	mov	QWORD PTR -24[rbp], rdi
	mov	rax, QWORD PTR -24[rbp]
	mov	rdi, rax
	call	_ZNKSt8_Rb_treeIiSt4pairIKiiESt10_Select1stIS2_ESt4lessIiESaIS2_EE8key_compEv
	nop
	mov	eax, ebx
	mov	rbx, QWORD PTR -8[rbp]
	leave
	.cfi_def_cfa 7, 8
	ret
	.cfi_endproc
.LFE10977:
	.size	_ZNKSt3mapIiiSt4lessIiESaISt4pairIKiiEEE8key_compEv, .-_ZNKSt3mapIiiSt4lessIiESaISt4pairIKiiEEE8key_compEv
	.section	.text._ZNKSt17_Rb_tree_iteratorISt4pairIKiiEEdeEv,"axG",@progbits,_ZNKSt17_Rb_tree_iteratorISt4pairIKiiEEdeEv,comdat
	.align 2
	.weak	_ZNKSt17_Rb_tree_iteratorISt4pairIKiiEEdeEv
	.type	_ZNKSt17_Rb_tree_iteratorISt4pairIKiiEEdeEv, @function
_ZNKSt17_Rb_tree_iteratorISt4pairIKiiEEdeEv:
.LFB10978:
	.cfi_startproc
	endbr64
	push	rbp
	.cfi_def_cfa_offset 16
	.cfi_offset 6, -16
	mov	rbp, rsp
	.cfi_def_cfa_register 6
	sub	rsp, 16
	mov	QWORD PTR -8[rbp], rdi
	mov	rax, QWORD PTR -8[rbp]
	mov	rax, QWORD PTR [rax]
	mov	rdi, rax
	call	_ZNSt13_Rb_tree_nodeISt4pairIKiiEE9_M_valptrEv
	leave
	.cfi_def_cfa 7, 8
	ret
	.cfi_endproc
.LFE10978:
	.size	_ZNKSt17_Rb_tree_iteratorISt4pairIKiiEEdeEv, .-_ZNKSt17_Rb_tree_iteratorISt4pairIKiiEEdeEv
	.section	.text._ZNKSt4lessIiEclERKiS2_,"axG",@progbits,_ZNKSt4lessIiEclERKiS2_,comdat
	.align 2
	.weak	_ZNKSt4lessIiEclERKiS2_
	.type	_ZNKSt4lessIiEclERKiS2_, @function
_ZNKSt4lessIiEclERKiS2_:
.LFB10979:
	.cfi_startproc
	endbr64
	push	rbp
	.cfi_def_cfa_offset 16
	.cfi_offset 6, -16
	mov	rbp, rsp
	.cfi_def_cfa_register 6
	mov	QWORD PTR -8[rbp], rdi
	mov	QWORD PTR -16[rbp], rsi
	mov	QWORD PTR -24[rbp], rdx
	mov	rax, QWORD PTR -16[rbp]
	mov	edx, DWORD PTR [rax]
	mov	rax, QWORD PTR -24[rbp]
	mov	eax, DWORD PTR [rax]
	cmp	edx, eax
	setl	al
	pop	rbp
	.cfi_def_cfa 7, 8
	ret
	.cfi_endproc
.LFE10979:
	.size	_ZNKSt4lessIiEclERKiS2_, .-_ZNKSt4lessIiEclERKiS2_
	.section	.text._ZNSt5tupleIJRKiEEC2ILb1ELb1EEES1_,"axG",@progbits,_ZNSt5tupleIJRKiEEC5ILb1ELb1EEES1_,comdat
	.align 2
	.weak	_ZNSt5tupleIJRKiEEC2ILb1ELb1EEES1_
	.type	_ZNSt5tupleIJRKiEEC2ILb1ELb1EEES1_, @function
_ZNSt5tupleIJRKiEEC2ILb1ELb1EEES1_:
.LFB10981:
	.cfi_startproc
	.cfi_personality 0x9b,DW.ref.__gxx_personality_v0
	.cfi_lsda 0x1b,.LLSDA10981
	endbr64
	push	rbp
	.cfi_def_cfa_offset 16
	.cfi_offset 6, -16
	mov	rbp, rsp
	.cfi_def_cfa_register 6
	sub	rsp, 16
	mov	QWORD PTR -8[rbp], rdi
	mov	QWORD PTR -16[rbp], rsi
	mov	rax, QWORD PTR -8[rbp]
	mov	rdx, QWORD PTR -16[rbp]
	mov	rsi, rdx
	mov	rdi, rax
	call	_ZNSt11_Tuple_implILm0EJRKiEEC2ES1_
	nop
	leave
	.cfi_def_cfa 7, 8
	ret
	.cfi_endproc
.LFE10981:
	.section	.gcc_except_table
.LLSDA10981:
	.byte	0xff
	.byte	0xff
	.byte	0x1
	.uleb128 .LLSDACSE10981-.LLSDACSB10981
.LLSDACSB10981:
.LLSDACSE10981:
	.section	.text._ZNSt5tupleIJRKiEEC2ILb1ELb1EEES1_,"axG",@progbits,_ZNSt5tupleIJRKiEEC5ILb1ELb1EEES1_,comdat
	.size	_ZNSt5tupleIJRKiEEC2ILb1ELb1EEES1_, .-_ZNSt5tupleIJRKiEEC2ILb1ELb1EEES1_
	.weak	_ZNSt5tupleIJRKiEEC1ILb1ELb1EEES1_
	.set	_ZNSt5tupleIJRKiEEC1ILb1ELb1EEES1_,_ZNSt5tupleIJRKiEEC2ILb1ELb1EEES1_
	.section	.text._ZNSt23_Rb_tree_const_iteratorISt4pairIKiiEEC2ERKSt17_Rb_tree_iteratorIS2_E,"axG",@progbits,_ZNSt23_Rb_tree_const_iteratorISt4pairIKiiEEC5ERKSt17_Rb_tree_iteratorIS2_E,comdat
	.align 2
	.weak	_ZNSt23_Rb_tree_const_iteratorISt4pairIKiiEEC2ERKSt17_Rb_tree_iteratorIS2_E
	.type	_ZNSt23_Rb_tree_const_iteratorISt4pairIKiiEEC2ERKSt17_Rb_tree_iteratorIS2_E, @function
_ZNSt23_Rb_tree_const_iteratorISt4pairIKiiEEC2ERKSt17_Rb_tree_iteratorIS2_E:
.LFB10984:
	.cfi_startproc
	endbr64
	push	rbp
	.cfi_def_cfa_offset 16
	.cfi_offset 6, -16
	mov	rbp, rsp
	.cfi_def_cfa_register 6
	mov	QWORD PTR -8[rbp], rdi
	mov	QWORD PTR -16[rbp], rsi
	mov	rax, QWORD PTR -16[rbp]
	mov	rdx, QWORD PTR [rax]
	mov	rax, QWORD PTR -8[rbp]
	mov	QWORD PTR [rax], rdx
	nop
	pop	rbp
	.cfi_def_cfa 7, 8
	ret
	.cfi_endproc
.LFE10984:
	.size	_ZNSt23_Rb_tree_const_iteratorISt4pairIKiiEEC2ERKSt17_Rb_tree_iteratorIS2_E, .-_ZNSt23_Rb_tree_const_iteratorISt4pairIKiiEEC2ERKSt17_Rb_tree_iteratorIS2_E
	.weak	_ZNSt23_Rb_tree_const_iteratorISt4pairIKiiEEC1ERKSt17_Rb_tree_iteratorIS2_E
	.set	_ZNSt23_Rb_tree_const_iteratorISt4pairIKiiEEC1ERKSt17_Rb_tree_iteratorIS2_E,_ZNSt23_Rb_tree_const_iteratorISt4pairIKiiEEC2ERKSt17_Rb_tree_iteratorIS2_E
	.section	.text._ZNSt8_Rb_treeIiSt4pairIKiiESt10_Select1stIS2_ESt4lessIiESaIS2_EE22_M_emplace_hint_uniqueIJRKSt21piecewise_construct_tSt5tupleIJRS1_EESD_IJEEEEESt17_Rb_tree_iteratorIS2_ESt23_Rb_tree_const_iteratorIS2_EDpOT_,"axG",@progbits,_ZNSt8_Rb_treeIiSt4pairIKiiESt10_Select1stIS2_ESt4lessIiESaIS2_EE22_M_emplace_hint_uniqueIJRKSt21piecewise_construct_tSt5tupleIJRS1_EESD_IJEEEEESt17_Rb_tree_iteratorIS2_ESt23_Rb_tree_const_iteratorIS2_EDpOT_,comdat
	.align 2
	.weak	_ZNSt8_Rb_treeIiSt4pairIKiiESt10_Select1stIS2_ESt4lessIiESaIS2_EE22_M_emplace_hint_uniqueIJRKSt21piecewise_construct_tSt5tupleIJRS1_EESD_IJEEEEESt17_Rb_tree_iteratorIS2_ESt23_Rb_tree_const_iteratorIS2_EDpOT_
	.type	_ZNSt8_Rb_treeIiSt4pairIKiiESt10_Select1stIS2_ESt4lessIiESaIS2_EE22_M_emplace_hint_uniqueIJRKSt21piecewise_construct_tSt5tupleIJRS1_EESD_IJEEEEESt17_Rb_tree_iteratorIS2_ESt23_Rb_tree_const_iteratorIS2_EDpOT_, @function
_ZNSt8_Rb_treeIiSt4pairIKiiESt10_Select1stIS2_ESt4lessIiESaIS2_EE22_M_emplace_hint_uniqueIJRKSt21piecewise_construct_tSt5tupleIJRS1_EESD_IJEEEEESt17_Rb_tree_iteratorIS2_ESt23_Rb_tree_const_iteratorIS2_EDpOT_:
.LFB10986:
	.cfi_startproc
	.cfi_personality 0x9b,DW.ref.__gxx_personality_v0
	.cfi_lsda 0x1b,.LLSDA10986
	endbr64
	push	rbp
	.cfi_def_cfa_offset 16
	.cfi_offset 6, -16
	mov	rbp, rsp
	.cfi_def_cfa_register 6
	push	r12
	push	rbx
	sub	rsp, 96
	.cfi_offset 12, -24
	.cfi_offset 3, -32
	mov	QWORD PTR -72[rbp], rdi
	mov	QWORD PTR -80[rbp], rsi
	mov	QWORD PTR -88[rbp], rdx
	mov	QWORD PTR -96[rbp], rcx
	mov	QWORD PTR -104[rbp], r8
	mov	rax, QWORD PTR fs:40
	mov	QWORD PTR -24[rbp], rax
	xor	eax, eax
	mov	rax, QWORD PTR -104[rbp]
	mov	rdi, rax
	call	_ZSt7forwardISt5tupleIJEEEOT_RNSt16remove_referenceIS2_E4typeE
	mov	r12, rax
	mov	rax, QWORD PTR -96[rbp]
	mov	rdi, rax
	call	_ZSt7forwardISt5tupleIJRKiEEEOT_RNSt16remove_referenceIS4_E4typeE
	mov	rbx, rax
	mov	rax, QWORD PTR -88[rbp]
	mov	rdi, rax
	call	_ZSt7forwardIRKSt21piecewise_construct_tEOT_RNSt16remove_referenceIS3_E4typeE
	mov	rsi, rax
	mov	rax, QWORD PTR -72[rbp]
	mov	rcx, r12
	mov	rdx, rbx
	mov	rdi, rax
.LEHB12:
	call	_ZNSt8_Rb_treeIiSt4pairIKiiESt10_Select1stIS2_ESt4lessIiESaIS2_EE14_M_create_nodeIJRKSt21piecewise_construct_tSt5tupleIJRS1_EESD_IJEEEEEPSt13_Rb_tree_nodeIS2_EDpOT_
.LEHE12:
	mov	QWORD PTR -56[rbp], rax
	mov	rax, QWORD PTR -56[rbp]
	mov	rdi, rax
.LEHB13:
	call	_ZNSt8_Rb_treeIiSt4pairIKiiESt10_Select1stIS2_ESt4lessIiESaIS2_EE6_S_keyEPKSt13_Rb_tree_nodeIS2_E
	mov	rdx, rax
	mov	rcx, QWORD PTR -80[rbp]
	mov	rax, QWORD PTR -72[rbp]
	mov	rsi, rcx
	mov	rdi, rax
	call	_ZNSt8_Rb_treeIiSt4pairIKiiESt10_Select1stIS2_ESt4lessIiESaIS2_EE29_M_get_insert_hint_unique_posESt23_Rb_tree_const_iteratorIS2_ERS1_
	mov	QWORD PTR -48[rbp], rax
	mov	QWORD PTR -40[rbp], rdx
	mov	rax, QWORD PTR -40[rbp]
	test	rax, rax
	je	.L255
	mov	rdx, QWORD PTR -40[rbp]
	mov	rsi, QWORD PTR -48[rbp]
	mov	rcx, QWORD PTR -56[rbp]
	mov	rax, QWORD PTR -72[rbp]
	mov	rdi, rax
	call	_ZNSt8_Rb_treeIiSt4pairIKiiESt10_Select1stIS2_ESt4lessIiESaIS2_EE14_M_insert_nodeEPSt18_Rb_tree_node_baseSA_PSt13_Rb_tree_nodeIS2_E
.LEHE13:
	jmp	.L257
.L255:
	mov	rdx, QWORD PTR -56[rbp]
	mov	rax, QWORD PTR -72[rbp]
	mov	rsi, rdx
	mov	rdi, rax
	call	_ZNSt8_Rb_treeIiSt4pairIKiiESt10_Select1stIS2_ESt4lessIiESaIS2_EE12_M_drop_nodeEPSt13_Rb_tree_nodeIS2_E
	mov	rdx, QWORD PTR -48[rbp]
	lea	rax, -64[rbp]
	mov	rsi, rdx
	mov	rdi, rax
	call	_ZNSt17_Rb_tree_iteratorISt4pairIKiiEEC1EPSt18_Rb_tree_node_base
	mov	rax, QWORD PTR -64[rbp]
.L257:
	mov	rdx, QWORD PTR -24[rbp]
	sub	rdx, QWORD PTR fs:40
	je	.L260
	jmp	.L263
.L261:
	endbr64
	mov	rdi, rax
	call	__cxa_begin_catch@PLT
	mov	rdx, QWORD PTR -56[rbp]
	mov	rax, QWORD PTR -72[rbp]
	mov	rsi, rdx
	mov	rdi, rax
	call	_ZNSt8_Rb_treeIiSt4pairIKiiESt10_Select1stIS2_ESt4lessIiESaIS2_EE12_M_drop_nodeEPSt13_Rb_tree_nodeIS2_E
.LEHB14:
	call	__cxa_rethrow@PLT
.LEHE14:
.L262:
	endbr64
	mov	rbx, rax
	call	__cxa_end_catch@PLT
	mov	rax, rbx
	mov	rdi, rax
.LEHB15:
	call	_Unwind_Resume@PLT
.LEHE15:
.L263:
	call	__stack_chk_fail@PLT
.L260:
	add	rsp, 96
	pop	rbx
	pop	r12
	pop	rbp
	.cfi_def_cfa 7, 8
	ret
	.cfi_endproc
.LFE10986:
	.section	.gcc_except_table
	.align 4
.LLSDA10986:
	.byte	0xff
	.byte	0x9b
	.uleb128 .LLSDATT10986-.LLSDATTD10986
.LLSDATTD10986:
	.byte	0x1
	.uleb128 .LLSDACSE10986-.LLSDACSB10986
.LLSDACSB10986:
	.uleb128 .LEHB12-.LFB10986
	.uleb128 .LEHE12-.LEHB12
	.uleb128 0
	.uleb128 0
	.uleb128 .LEHB13-.LFB10986
	.uleb128 .LEHE13-.LEHB13
	.uleb128 .L261-.LFB10986
	.uleb128 0x1
	.uleb128 .LEHB14-.LFB10986
	.uleb128 .LEHE14-.LEHB14
	.uleb128 .L262-.LFB10986
	.uleb128 0
	.uleb128 .LEHB15-.LFB10986
	.uleb128 .LEHE15-.LEHB15
	.uleb128 0
	.uleb128 0
.LLSDACSE10986:
	.byte	0x1
	.byte	0
	.align 4
	.long	0

.LLSDATT10986:
	.section	.text._ZNSt8_Rb_treeIiSt4pairIKiiESt10_Select1stIS2_ESt4lessIiESaIS2_EE22_M_emplace_hint_uniqueIJRKSt21piecewise_construct_tSt5tupleIJRS1_EESD_IJEEEEESt17_Rb_tree_iteratorIS2_ESt23_Rb_tree_const_iteratorIS2_EDpOT_,"axG",@progbits,_ZNSt8_Rb_treeIiSt4pairIKiiESt10_Select1stIS2_ESt4lessIiESaIS2_EE22_M_emplace_hint_uniqueIJRKSt21piecewise_construct_tSt5tupleIJRS1_EESD_IJEEEEESt17_Rb_tree_iteratorIS2_ESt23_Rb_tree_const_iteratorIS2_EDpOT_,comdat
	.size	_ZNSt8_Rb_treeIiSt4pairIKiiESt10_Select1stIS2_ESt4lessIiESaIS2_EE22_M_emplace_hint_uniqueIJRKSt21piecewise_construct_tSt5tupleIJRS1_EESD_IJEEEEESt17_Rb_tree_iteratorIS2_ESt23_Rb_tree_const_iteratorIS2_EDpOT_, .-_ZNSt8_Rb_treeIiSt4pairIKiiESt10_Select1stIS2_ESt4lessIiESaIS2_EE22_M_emplace_hint_uniqueIJRKSt21piecewise_construct_tSt5tupleIJRS1_EESD_IJEEEEESt17_Rb_tree_iteratorIS2_ESt23_Rb_tree_const_iteratorIS2_EDpOT_
	.section	.text._ZSt7forwardIRiEOT_RNSt16remove_referenceIS1_E4typeE,"axG",@progbits,_ZSt7forwardIRiEOT_RNSt16remove_referenceIS1_E4typeE,comdat
	.weak	_ZSt7forwardIRiEOT_RNSt16remove_referenceIS1_E4typeE
	.type	_ZSt7forwardIRiEOT_RNSt16remove_referenceIS1_E4typeE, @function
_ZSt7forwardIRiEOT_RNSt16remove_referenceIS1_E4typeE:
.LFB10987:
	.cfi_startproc
	endbr64
	push	rbp
	.cfi_def_cfa_offset 16
	.cfi_offset 6, -16
	mov	rbp, rsp
	.cfi_def_cfa_register 6
	mov	QWORD PTR -8[rbp], rdi
	mov	rax, QWORD PTR -8[rbp]
	pop	rbp
	.cfi_def_cfa 7, 8
	ret
	.cfi_endproc
.LFE10987:
	.size	_ZSt7forwardIRiEOT_RNSt16remove_referenceIS1_E4typeE, .-_ZSt7forwardIRiEOT_RNSt16remove_referenceIS1_E4typeE
	.section	.text._ZSt4moveIRSt4pairIiiEEONSt16remove_referenceIT_E4typeEOS4_,"axG",@progbits,_ZSt4moveIRSt4pairIiiEEONSt16remove_referenceIT_E4typeEOS4_,comdat
	.weak	_ZSt4moveIRSt4pairIiiEEONSt16remove_referenceIT_E4typeEOS4_
	.type	_ZSt4moveIRSt4pairIiiEEONSt16remove_referenceIT_E4typeEOS4_, @function
_ZSt4moveIRSt4pairIiiEEONSt16remove_referenceIT_E4typeEOS4_:
.LFB10988:
	.cfi_startproc
	endbr64
	push	rbp
	.cfi_def_cfa_offset 16
	.cfi_offset 6, -16
	mov	rbp, rsp
	.cfi_def_cfa_register 6
	mov	QWORD PTR -8[rbp], rdi
	mov	rax, QWORD PTR -8[rbp]
	pop	rbp
	.cfi_def_cfa 7, 8
	ret
	.cfi_endproc
.LFE10988:
	.size	_ZSt4moveIRSt4pairIiiEEONSt16remove_referenceIT_E4typeEOS4_, .-_ZSt4moveIRSt4pairIiiEEONSt16remove_referenceIT_E4typeEOS4_
	.section	.text._ZNSt6vectorISt4pairIiiESaIS1_EE12emplace_backIJS1_EEERS1_DpOT_,"axG",@progbits,_ZNSt6vectorISt4pairIiiESaIS1_EE12emplace_backIJS1_EEERS1_DpOT_,comdat
	.align 2
	.weak	_ZNSt6vectorISt4pairIiiESaIS1_EE12emplace_backIJS1_EEERS1_DpOT_
	.type	_ZNSt6vectorISt4pairIiiESaIS1_EE12emplace_backIJS1_EEERS1_DpOT_, @function
_ZNSt6vectorISt4pairIiiESaIS1_EE12emplace_backIJS1_EEERS1_DpOT_:
.LFB10989:
	.cfi_startproc
	endbr64
	push	rbp
	.cfi_def_cfa_offset 16
	.cfi_offset 6, -16
	mov	rbp, rsp
	.cfi_def_cfa_register 6
	push	rbx
	sub	rsp, 24
	.cfi_offset 3, -24
	mov	QWORD PTR -24[rbp], rdi
	mov	QWORD PTR -32[rbp], rsi
	mov	rax, QWORD PTR -24[rbp]
	mov	rdx, QWORD PTR 8[rax]
	mov	rax, QWORD PTR -24[rbp]
	mov	rax, QWORD PTR 16[rax]
	cmp	rdx, rax
	je	.L269
	mov	rax, QWORD PTR -32[rbp]
	mov	rdi, rax
	call	_ZSt7forwardISt4pairIiiEEOT_RNSt16remove_referenceIS2_E4typeE
	mov	rdx, rax
	mov	rax, QWORD PTR -24[rbp]
	mov	rcx, QWORD PTR 8[rax]
	mov	rax, QWORD PTR -24[rbp]
	mov	rsi, rcx
	mov	rdi, rax
	call	_ZNSt16allocator_traitsISaISt4pairIiiEEE9constructIS1_JS1_EEEvRS2_PT_DpOT0_
	mov	rax, QWORD PTR -24[rbp]
	mov	rax, QWORD PTR 8[rax]
	lea	rdx, 8[rax]
	mov	rax, QWORD PTR -24[rbp]
	mov	QWORD PTR 8[rax], rdx
	jmp	.L270
.L269:
	mov	rax, QWORD PTR -32[rbp]
	mov	rdi, rax
	call	_ZSt7forwardISt4pairIiiEEOT_RNSt16remove_referenceIS2_E4typeE
	mov	rbx, rax
	mov	rax, QWORD PTR -24[rbp]
	mov	rdi, rax
	call	_ZNSt6vectorISt4pairIiiESaIS1_EE3endEv
	mov	rcx, rax
	mov	rax, QWORD PTR -24[rbp]
	mov	rdx, rbx
	mov	rsi, rcx
	mov	rdi, rax
	call	_ZNSt6vectorISt4pairIiiESaIS1_EE17_M_realloc_insertIJS1_EEEvN9__gnu_cxx17__normal_iteratorIPS1_S3_EEDpOT_
.L270:
	mov	rax, QWORD PTR -24[rbp]
	mov	rdi, rax
	call	_ZNSt6vectorISt4pairIiiESaIS1_EE4backEv
	mov	rbx, QWORD PTR -8[rbp]
	leave
	.cfi_def_cfa 7, 8
	ret
	.cfi_endproc
.LFE10989:
	.size	_ZNSt6vectorISt4pairIiiESaIS1_EE12emplace_backIJS1_EEERS1_DpOT_, .-_ZNSt6vectorISt4pairIiiESaIS1_EE12emplace_backIJS1_EEERS1_DpOT_
	.section	.text._ZN9__gnu_cxx13new_allocatorIxEC2Ev,"axG",@progbits,_ZN9__gnu_cxx13new_allocatorIxEC5Ev,comdat
	.align 2
	.weak	_ZN9__gnu_cxx13new_allocatorIxEC2Ev
	.type	_ZN9__gnu_cxx13new_allocatorIxEC2Ev, @function
_ZN9__gnu_cxx13new_allocatorIxEC2Ev:
.LFB11189:
	.cfi_startproc
	endbr64
	push	rbp
	.cfi_def_cfa_offset 16
	.cfi_offset 6, -16
	mov	rbp, rsp
	.cfi_def_cfa_register 6
	mov	QWORD PTR -8[rbp], rdi
	nop
	pop	rbp
	.cfi_def_cfa 7, 8
	ret
	.cfi_endproc
.LFE11189:
	.size	_ZN9__gnu_cxx13new_allocatorIxEC2Ev, .-_ZN9__gnu_cxx13new_allocatorIxEC2Ev
	.weak	_ZN9__gnu_cxx13new_allocatorIxEC1Ev
	.set	_ZN9__gnu_cxx13new_allocatorIxEC1Ev,_ZN9__gnu_cxx13new_allocatorIxEC2Ev
	.section	.text._ZNSt16allocator_traitsISaIxEE10deallocateERS0_Pxm,"axG",@progbits,_ZNSt16allocator_traitsISaIxEE10deallocateERS0_Pxm,comdat
	.weak	_ZNSt16allocator_traitsISaIxEE10deallocateERS0_Pxm
	.type	_ZNSt16allocator_traitsISaIxEE10deallocateERS0_Pxm, @function
_ZNSt16allocator_traitsISaIxEE10deallocateERS0_Pxm:
.LFB11191:
	.cfi_startproc
	endbr64
	push	rbp
	.cfi_def_cfa_offset 16
	.cfi_offset 6, -16
	mov	rbp, rsp
	.cfi_def_cfa_register 6
	sub	rsp, 32
	mov	QWORD PTR -8[rbp], rdi
	mov	QWORD PTR -16[rbp], rsi
	mov	QWORD PTR -24[rbp], rdx
	mov	rdx, QWORD PTR -24[rbp]
	mov	rcx, QWORD PTR -16[rbp]
	mov	rax, QWORD PTR -8[rbp]
	mov	rsi, rcx
	mov	rdi, rax
	call	_ZN9__gnu_cxx13new_allocatorIxE10deallocateEPxm
	nop
	leave
	.cfi_def_cfa 7, 8
	ret
	.cfi_endproc
.LFE11191:
	.size	_ZNSt16allocator_traitsISaIxEE10deallocateERS0_Pxm, .-_ZNSt16allocator_traitsISaIxEE10deallocateERS0_Pxm
	.section	.text._ZSt7forwardIxEOT_RNSt16remove_referenceIS0_E4typeE,"axG",@progbits,_ZSt7forwardIxEOT_RNSt16remove_referenceIS0_E4typeE,comdat
	.weak	_ZSt7forwardIxEOT_RNSt16remove_referenceIS0_E4typeE
	.type	_ZSt7forwardIxEOT_RNSt16remove_referenceIS0_E4typeE, @function
_ZSt7forwardIxEOT_RNSt16remove_referenceIS0_E4typeE:
.LFB11192:
	.cfi_startproc
	endbr64
	push	rbp
	.cfi_def_cfa_offset 16
	.cfi_offset 6, -16
	mov	rbp, rsp
	.cfi_def_cfa_register 6
	mov	QWORD PTR -8[rbp], rdi
	mov	rax, QWORD PTR -8[rbp]
	pop	rbp
	.cfi_def_cfa 7, 8
	ret
	.cfi_endproc
.LFE11192:
	.size	_ZSt7forwardIxEOT_RNSt16remove_referenceIS0_E4typeE, .-_ZSt7forwardIxEOT_RNSt16remove_referenceIS0_E4typeE
	.section	.text._ZNSt16allocator_traitsISaIxEE9constructIxJxEEEvRS0_PT_DpOT0_,"axG",@progbits,_ZNSt16allocator_traitsISaIxEE9constructIxJxEEEvRS0_PT_DpOT0_,comdat
	.weak	_ZNSt16allocator_traitsISaIxEE9constructIxJxEEEvRS0_PT_DpOT0_
	.type	_ZNSt16allocator_traitsISaIxEE9constructIxJxEEEvRS0_PT_DpOT0_, @function
_ZNSt16allocator_traitsISaIxEE9constructIxJxEEEvRS0_PT_DpOT0_:
.LFB11193:
	.cfi_startproc
	endbr64
	push	rbp
	.cfi_def_cfa_offset 16
	.cfi_offset 6, -16
	mov	rbp, rsp
	.cfi_def_cfa_register 6
	sub	rsp, 32
	mov	QWORD PTR -8[rbp], rdi
	mov	QWORD PTR -16[rbp], rsi
	mov	QWORD PTR -24[rbp], rdx
	mov	rax, QWORD PTR -24[rbp]
	mov	rdi, rax
	call	_ZSt7forwardIxEOT_RNSt16remove_referenceIS0_E4typeE
	mov	rdx, rax
	mov	rcx, QWORD PTR -16[rbp]
	mov	rax, QWORD PTR -8[rbp]
	mov	rsi, rcx
	mov	rdi, rax
	call	_ZN9__gnu_cxx13new_allocatorIxE9constructIxJxEEEvPT_DpOT0_
	nop
	leave
	.cfi_def_cfa 7, 8
	ret
	.cfi_endproc
.LFE11193:
	.size	_ZNSt16allocator_traitsISaIxEE9constructIxJxEEEvRS0_PT_DpOT0_, .-_ZNSt16allocator_traitsISaIxEE9constructIxJxEEEvRS0_PT_DpOT0_
	.section	.text._ZNSt6vectorIxSaIxEE3endEv,"axG",@progbits,_ZNSt6vectorIxSaIxEE3endEv,comdat
	.align 2
	.weak	_ZNSt6vectorIxSaIxEE3endEv
	.type	_ZNSt6vectorIxSaIxEE3endEv, @function
_ZNSt6vectorIxSaIxEE3endEv:
.LFB11194:
	.cfi_startproc
	endbr64
	push	rbp
	.cfi_def_cfa_offset 16
	.cfi_offset 6, -16
	mov	rbp, rsp
	.cfi_def_cfa_register 6
	sub	rsp, 32
	mov	QWORD PTR -24[rbp], rdi
	mov	rax, QWORD PTR fs:40
	mov	QWORD PTR -8[rbp], rax
	xor	eax, eax
	mov	rax, QWORD PTR -24[rbp]
	lea	rdx, 8[rax]
	lea	rax, -16[rbp]
	mov	rsi, rdx
	mov	rdi, rax
	call	_ZN9__gnu_cxx17__normal_iteratorIPxSt6vectorIxSaIxEEEC1ERKS1_
	mov	rax, QWORD PTR -16[rbp]
	mov	rdx, QWORD PTR -8[rbp]
	sub	rdx, QWORD PTR fs:40
	je	.L279
	call	__stack_chk_fail@PLT
.L279:
	leave
	.cfi_def_cfa 7, 8
	ret
	.cfi_endproc
.LFE11194:
	.size	_ZNSt6vectorIxSaIxEE3endEv, .-_ZNSt6vectorIxSaIxEE3endEv
	.section	.rodata
.LC5:
	.string	"vector::_M_realloc_insert"
	.section	.text._ZNSt6vectorIxSaIxEE17_M_realloc_insertIJxEEEvN9__gnu_cxx17__normal_iteratorIPxS1_EEDpOT_,"axG",@progbits,_ZNSt6vectorIxSaIxEE17_M_realloc_insertIJxEEEvN9__gnu_cxx17__normal_iteratorIPxS1_EEDpOT_,comdat
	.align 2
	.weak	_ZNSt6vectorIxSaIxEE17_M_realloc_insertIJxEEEvN9__gnu_cxx17__normal_iteratorIPxS1_EEDpOT_
	.type	_ZNSt6vectorIxSaIxEE17_M_realloc_insertIJxEEEvN9__gnu_cxx17__normal_iteratorIPxS1_EEDpOT_, @function
_ZNSt6vectorIxSaIxEE17_M_realloc_insertIJxEEEvN9__gnu_cxx17__normal_iteratorIPxS1_EEDpOT_:
.LFB11195:
	.cfi_startproc
	endbr64
	push	rbp
	.cfi_def_cfa_offset 16
	.cfi_offset 6, -16
	mov	rbp, rsp
	.cfi_def_cfa_register 6
	push	rbx
	sub	rsp, 104
	.cfi_offset 3, -24
	mov	QWORD PTR -88[rbp], rdi
	mov	QWORD PTR -96[rbp], rsi
	mov	QWORD PTR -104[rbp], rdx
	mov	rax, QWORD PTR fs:40
	mov	QWORD PTR -24[rbp], rax
	xor	eax, eax
	mov	rax, QWORD PTR -88[rbp]
	lea	rdx, .LC5[rip]
	mov	esi, 1
	mov	rdi, rax
	call	_ZNKSt6vectorIxSaIxEE12_M_check_lenEmPKc
	mov	QWORD PTR -72[rbp], rax
	mov	rax, QWORD PTR -88[rbp]
	mov	rax, QWORD PTR [rax]
	mov	QWORD PTR -64[rbp], rax
	mov	rax, QWORD PTR -88[rbp]
	mov	rax, QWORD PTR 8[rax]
	mov	QWORD PTR -56[rbp], rax
	mov	rax, QWORD PTR -88[rbp]
	mov	rdi, rax
	call	_ZNSt6vectorIxSaIxEE5beginEv
	mov	QWORD PTR -80[rbp], rax
	lea	rdx, -80[rbp]
	lea	rax, -96[rbp]
	mov	rsi, rdx
	mov	rdi, rax
	call	_ZN9__gnu_cxxmiIPxSt6vectorIxSaIxEEEENS_17__normal_iteratorIT_T0_E15difference_typeERKS8_SB_
	mov	QWORD PTR -48[rbp], rax
	mov	rax, QWORD PTR -88[rbp]
	mov	rdx, QWORD PTR -72[rbp]
	mov	rsi, rdx
	mov	rdi, rax
	call	_ZNSt12_Vector_baseIxSaIxEE11_M_allocateEm
	mov	QWORD PTR -40[rbp], rax
	mov	rax, QWORD PTR -40[rbp]
	mov	QWORD PTR -32[rbp], rax
	mov	rax, QWORD PTR -104[rbp]
	mov	rdi, rax
	call	_ZSt7forwardIxEOT_RNSt16remove_referenceIS0_E4typeE
	mov	rdx, rax
	mov	rax, QWORD PTR -48[rbp]
	lea	rcx, 0[0+rax*8]
	mov	rax, QWORD PTR -40[rbp]
	add	rcx, rax
	mov	rax, QWORD PTR -88[rbp]
	mov	rsi, rcx
	mov	rdi, rax
	call	_ZNSt16allocator_traitsISaIxEE9constructIxJxEEEvRS0_PT_DpOT0_
	mov	QWORD PTR -32[rbp], 0
	mov	rax, QWORD PTR -88[rbp]
	mov	rdi, rax
	call	_ZNSt12_Vector_baseIxSaIxEE19_M_get_Tp_allocatorEv
	mov	rbx, rax
	lea	rax, -96[rbp]
	mov	rdi, rax
	call	_ZNK9__gnu_cxx17__normal_iteratorIPxSt6vectorIxSaIxEEE4baseEv
	mov	rsi, QWORD PTR [rax]
	mov	rdx, QWORD PTR -40[rbp]
	mov	rax, QWORD PTR -64[rbp]
	mov	rcx, rbx
	mov	rdi, rax
	call	_ZNSt6vectorIxSaIxEE11_S_relocateEPxS2_S2_RS0_
	mov	QWORD PTR -32[rbp], rax
	add	QWORD PTR -32[rbp], 8
	mov	rax, QWORD PTR -88[rbp]
	mov	rdi, rax
	call	_ZNSt12_Vector_baseIxSaIxEE19_M_get_Tp_allocatorEv
	mov	rbx, rax
	lea	rax, -96[rbp]
	mov	rdi, rax
	call	_ZNK9__gnu_cxx17__normal_iteratorIPxSt6vectorIxSaIxEEE4baseEv
	mov	rax, QWORD PTR [rax]
	mov	rdx, QWORD PTR -32[rbp]
	mov	rsi, QWORD PTR -56[rbp]
	mov	rcx, rbx
	mov	rdi, rax
	call	_ZNSt6vectorIxSaIxEE11_S_relocateEPxS2_S2_RS0_
	mov	QWORD PTR -32[rbp], rax
	mov	rax, QWORD PTR -88[rbp]
	mov	rdx, QWORD PTR -88[rbp]
	mov	rdx, QWORD PTR 16[rdx]
	sub	rdx, QWORD PTR -64[rbp]
	sar	rdx, 3
	mov	rcx, QWORD PTR -64[rbp]
	mov	rsi, rcx
	mov	rdi, rax
	call	_ZNSt12_Vector_baseIxSaIxEE13_M_deallocateEPxm
	mov	rax, QWORD PTR -88[rbp]
	mov	rdx, QWORD PTR -40[rbp]
	mov	QWORD PTR [rax], rdx
	mov	rax, QWORD PTR -88[rbp]
	mov	rdx, QWORD PTR -32[rbp]
	mov	QWORD PTR 8[rax], rdx
	mov	rax, QWORD PTR -72[rbp]
	lea	rdx, 0[0+rax*8]
	mov	rax, QWORD PTR -40[rbp]
	add	rdx, rax
	mov	rax, QWORD PTR -88[rbp]
	mov	QWORD PTR 16[rax], rdx
	nop
	mov	rax, QWORD PTR -24[rbp]
	sub	rax, QWORD PTR fs:40
	je	.L281
	call	__stack_chk_fail@PLT
.L281:
	mov	rbx, QWORD PTR -8[rbp]
	leave
	.cfi_def_cfa 7, 8
	ret
	.cfi_endproc
.LFE11195:
	.size	_ZNSt6vectorIxSaIxEE17_M_realloc_insertIJxEEEvN9__gnu_cxx17__normal_iteratorIPxS1_EEDpOT_, .-_ZNSt6vectorIxSaIxEE17_M_realloc_insertIJxEEEvN9__gnu_cxx17__normal_iteratorIPxS1_EEDpOT_
	.section	.text._ZNSt6vectorIxSaIxEE4backEv,"axG",@progbits,_ZNSt6vectorIxSaIxEE4backEv,comdat
	.align 2
	.weak	_ZNSt6vectorIxSaIxEE4backEv
	.type	_ZNSt6vectorIxSaIxEE4backEv, @function
_ZNSt6vectorIxSaIxEE4backEv:
.LFB11199:
	.cfi_startproc
	endbr64
	push	rbp
	.cfi_def_cfa_offset 16
	.cfi_offset 6, -16
	mov	rbp, rsp
	.cfi_def_cfa_register 6
	sub	rsp, 48
	mov	QWORD PTR -40[rbp], rdi
	mov	rax, QWORD PTR fs:40
	mov	QWORD PTR -8[rbp], rax
	xor	eax, eax
	mov	rax, QWORD PTR -40[rbp]
	mov	rdi, rax
	call	_ZNSt6vectorIxSaIxEE3endEv
	mov	QWORD PTR -24[rbp], rax
	lea	rax, -24[rbp]
	mov	esi, 1
	mov	rdi, rax
	call	_ZNK9__gnu_cxx17__normal_iteratorIPxSt6vectorIxSaIxEEEmiEl
	mov	QWORD PTR -16[rbp], rax
	lea	rax, -16[rbp]
	mov	rdi, rax
	call	_ZNK9__gnu_cxx17__normal_iteratorIPxSt6vectorIxSaIxEEEdeEv
	mov	rdx, QWORD PTR -8[rbp]
	sub	rdx, QWORD PTR fs:40
	je	.L284
	call	__stack_chk_fail@PLT
.L284:
	leave
	.cfi_def_cfa 7, 8
	ret
	.cfi_endproc
.LFE11199:
	.size	_ZNSt6vectorIxSaIxEE4backEv, .-_ZNSt6vectorIxSaIxEE4backEv
	.section	.text._ZN9__gnu_cxxeqIPcNSt7__cxx1112basic_stringIcSt11char_traitsIcESaIcEEEEEbRKNS_17__normal_iteratorIT_T0_EESD_,"axG",@progbits,_ZN9__gnu_cxxeqIPcNSt7__cxx1112basic_stringIcSt11char_traitsIcESaIcEEEEEbRKNS_17__normal_iteratorIT_T0_EESD_,comdat
	.weak	_ZN9__gnu_cxxeqIPcNSt7__cxx1112basic_stringIcSt11char_traitsIcESaIcEEEEEbRKNS_17__normal_iteratorIT_T0_EESD_
	.type	_ZN9__gnu_cxxeqIPcNSt7__cxx1112basic_stringIcSt11char_traitsIcESaIcEEEEEbRKNS_17__normal_iteratorIT_T0_EESD_, @function
_ZN9__gnu_cxxeqIPcNSt7__cxx1112basic_stringIcSt11char_traitsIcESaIcEEEEEbRKNS_17__normal_iteratorIT_T0_EESD_:
.LFB11200:
	.cfi_startproc
	endbr64
	push	rbp
	.cfi_def_cfa_offset 16
	.cfi_offset 6, -16
	mov	rbp, rsp
	.cfi_def_cfa_register 6
	push	rbx
	sub	rsp, 24
	.cfi_offset 3, -24
	mov	QWORD PTR -24[rbp], rdi
	mov	QWORD PTR -32[rbp], rsi
	mov	rax, QWORD PTR -24[rbp]
	mov	rdi, rax
	call	_ZNK9__gnu_cxx17__normal_iteratorIPcNSt7__cxx1112basic_stringIcSt11char_traitsIcESaIcEEEE4baseEv
	mov	rbx, QWORD PTR [rax]
	mov	rax, QWORD PTR -32[rbp]
	mov	rdi, rax
	call	_ZNK9__gnu_cxx17__normal_iteratorIPcNSt7__cxx1112basic_stringIcSt11char_traitsIcESaIcEEEE4baseEv
	mov	rax, QWORD PTR [rax]
	cmp	rbx, rax
	sete	al
	mov	rbx, QWORD PTR -8[rbp]
	leave
	.cfi_def_cfa 7, 8
	ret
	.cfi_endproc
.LFE11200:
	.size	_ZN9__gnu_cxxeqIPcNSt7__cxx1112basic_stringIcSt11char_traitsIcESaIcEEEEEbRKNS_17__normal_iteratorIT_T0_EESD_, .-_ZN9__gnu_cxxeqIPcNSt7__cxx1112basic_stringIcSt11char_traitsIcESaIcEEEEEbRKNS_17__normal_iteratorIT_T0_EESD_
	.section	.text._ZN9__gnu_cxx17__normal_iteratorIPcNSt7__cxx1112basic_stringIcSt11char_traitsIcESaIcEEEEmmEv,"axG",@progbits,_ZN9__gnu_cxx17__normal_iteratorIPcNSt7__cxx1112basic_stringIcSt11char_traitsIcESaIcEEEEmmEv,comdat
	.align 2
	.weak	_ZN9__gnu_cxx17__normal_iteratorIPcNSt7__cxx1112basic_stringIcSt11char_traitsIcESaIcEEEEmmEv
	.type	_ZN9__gnu_cxx17__normal_iteratorIPcNSt7__cxx1112basic_stringIcSt11char_traitsIcESaIcEEEEmmEv, @function
_ZN9__gnu_cxx17__normal_iteratorIPcNSt7__cxx1112basic_stringIcSt11char_traitsIcESaIcEEEEmmEv:
.LFB11201:
	.cfi_startproc
	endbr64
	push	rbp
	.cfi_def_cfa_offset 16
	.cfi_offset 6, -16
	mov	rbp, rsp
	.cfi_def_cfa_register 6
	mov	QWORD PTR -8[rbp], rdi
	mov	rax, QWORD PTR -8[rbp]
	mov	rax, QWORD PTR [rax]
	lea	rdx, -1[rax]
	mov	rax, QWORD PTR -8[rbp]
	mov	QWORD PTR [rax], rdx
	mov	rax, QWORD PTR -8[rbp]
	pop	rbp
	.cfi_def_cfa 7, 8
	ret
	.cfi_endproc
.LFE11201:
	.size	_ZN9__gnu_cxx17__normal_iteratorIPcNSt7__cxx1112basic_stringIcSt11char_traitsIcESaIcEEEEmmEv, .-_ZN9__gnu_cxx17__normal_iteratorIPcNSt7__cxx1112basic_stringIcSt11char_traitsIcESaIcEEEEmmEv
	.section	.text._ZN9__gnu_cxxltIPcNSt7__cxx1112basic_stringIcSt11char_traitsIcESaIcEEEEEbRKNS_17__normal_iteratorIT_T0_EESD_,"axG",@progbits,_ZN9__gnu_cxxltIPcNSt7__cxx1112basic_stringIcSt11char_traitsIcESaIcEEEEEbRKNS_17__normal_iteratorIT_T0_EESD_,comdat
	.weak	_ZN9__gnu_cxxltIPcNSt7__cxx1112basic_stringIcSt11char_traitsIcESaIcEEEEEbRKNS_17__normal_iteratorIT_T0_EESD_
	.type	_ZN9__gnu_cxxltIPcNSt7__cxx1112basic_stringIcSt11char_traitsIcESaIcEEEEEbRKNS_17__normal_iteratorIT_T0_EESD_, @function
_ZN9__gnu_cxxltIPcNSt7__cxx1112basic_stringIcSt11char_traitsIcESaIcEEEEEbRKNS_17__normal_iteratorIT_T0_EESD_:
.LFB11202:
	.cfi_startproc
	endbr64
	push	rbp
	.cfi_def_cfa_offset 16
	.cfi_offset 6, -16
	mov	rbp, rsp
	.cfi_def_cfa_register 6
	push	rbx
	sub	rsp, 24
	.cfi_offset 3, -24
	mov	QWORD PTR -24[rbp], rdi
	mov	QWORD PTR -32[rbp], rsi
	mov	rax, QWORD PTR -24[rbp]
	mov	rdi, rax
	call	_ZNK9__gnu_cxx17__normal_iteratorIPcNSt7__cxx1112basic_stringIcSt11char_traitsIcESaIcEEEE4baseEv
	mov	rbx, QWORD PTR [rax]
	mov	rax, QWORD PTR -32[rbp]
	mov	rdi, rax
	call	_ZNK9__gnu_cxx17__normal_iteratorIPcNSt7__cxx1112basic_stringIcSt11char_traitsIcESaIcEEEE4baseEv
	mov	rax, QWORD PTR [rax]
	cmp	rbx, rax
	setb	al
	mov	rbx, QWORD PTR -8[rbp]
	leave
	.cfi_def_cfa 7, 8
	ret
	.cfi_endproc
.LFE11202:
	.size	_ZN9__gnu_cxxltIPcNSt7__cxx1112basic_stringIcSt11char_traitsIcESaIcEEEEEbRKNS_17__normal_iteratorIT_T0_EESD_, .-_ZN9__gnu_cxxltIPcNSt7__cxx1112basic_stringIcSt11char_traitsIcESaIcEEEEEbRKNS_17__normal_iteratorIT_T0_EESD_
	.section	.text._ZSt9iter_swapIN9__gnu_cxx17__normal_iteratorIPcNSt7__cxx1112basic_stringIcSt11char_traitsIcESaIcEEEEES9_EvT_T0_,"axG",@progbits,_ZSt9iter_swapIN9__gnu_cxx17__normal_iteratorIPcNSt7__cxx1112basic_stringIcSt11char_traitsIcESaIcEEEEES9_EvT_T0_,comdat
	.weak	_ZSt9iter_swapIN9__gnu_cxx17__normal_iteratorIPcNSt7__cxx1112basic_stringIcSt11char_traitsIcESaIcEEEEES9_EvT_T0_
	.type	_ZSt9iter_swapIN9__gnu_cxx17__normal_iteratorIPcNSt7__cxx1112basic_stringIcSt11char_traitsIcESaIcEEEEES9_EvT_T0_, @function
_ZSt9iter_swapIN9__gnu_cxx17__normal_iteratorIPcNSt7__cxx1112basic_stringIcSt11char_traitsIcESaIcEEEEES9_EvT_T0_:
.LFB11203:
	.cfi_startproc
	endbr64
	push	rbp
	.cfi_def_cfa_offset 16
	.cfi_offset 6, -16
	mov	rbp, rsp
	.cfi_def_cfa_register 6
	push	rbx
	sub	rsp, 24
	.cfi_offset 3, -24
	mov	QWORD PTR -24[rbp], rdi
	mov	QWORD PTR -32[rbp], rsi
	lea	rax, -32[rbp]
	mov	rdi, rax
	call	_ZNK9__gnu_cxx17__normal_iteratorIPcNSt7__cxx1112basic_stringIcSt11char_traitsIcESaIcEEEEdeEv
	mov	rbx, rax
	lea	rax, -24[rbp]
	mov	rdi, rax
	call	_ZNK9__gnu_cxx17__normal_iteratorIPcNSt7__cxx1112basic_stringIcSt11char_traitsIcESaIcEEEEdeEv
	mov	rsi, rbx
	mov	rdi, rax
	call	_ZSt4swapIcENSt9enable_ifIXsrSt6__and_IJSt6__not_ISt15__is_tuple_likeIT_EESt21is_move_constructibleIS4_ESt18is_move_assignableIS4_EEE5valueEvE4typeERS4_SE_
	nop
	mov	rbx, QWORD PTR -8[rbp]
	leave
	.cfi_def_cfa 7, 8
	ret
	.cfi_endproc
.LFE11203:
	.size	_ZSt9iter_swapIN9__gnu_cxx17__normal_iteratorIPcNSt7__cxx1112basic_stringIcSt11char_traitsIcESaIcEEEEES9_EvT_T0_, .-_ZSt9iter_swapIN9__gnu_cxx17__normal_iteratorIPcNSt7__cxx1112basic_stringIcSt11char_traitsIcESaIcEEEEES9_EvT_T0_
	.section	.text._ZN9__gnu_cxx17__normal_iteratorIPcNSt7__cxx1112basic_stringIcSt11char_traitsIcESaIcEEEEppEv,"axG",@progbits,_ZN9__gnu_cxx17__normal_iteratorIPcNSt7__cxx1112basic_stringIcSt11char_traitsIcESaIcEEEEppEv,comdat
	.align 2
	.weak	_ZN9__gnu_cxx17__normal_iteratorIPcNSt7__cxx1112basic_stringIcSt11char_traitsIcESaIcEEEEppEv
	.type	_ZN9__gnu_cxx17__normal_iteratorIPcNSt7__cxx1112basic_stringIcSt11char_traitsIcESaIcEEEEppEv, @function
_ZN9__gnu_cxx17__normal_iteratorIPcNSt7__cxx1112basic_stringIcSt11char_traitsIcESaIcEEEEppEv:
.LFB11204:
	.cfi_startproc
	endbr64
	push	rbp
	.cfi_def_cfa_offset 16
	.cfi_offset 6, -16
	mov	rbp, rsp
	.cfi_def_cfa_register 6
	mov	QWORD PTR -8[rbp], rdi
	mov	rax, QWORD PTR -8[rbp]
	mov	rax, QWORD PTR [rax]
	lea	rdx, 1[rax]
	mov	rax, QWORD PTR -8[rbp]
	mov	QWORD PTR [rax], rdx
	mov	rax, QWORD PTR -8[rbp]
	pop	rbp
	.cfi_def_cfa 7, 8
	ret
	.cfi_endproc
.LFE11204:
	.size	_ZN9__gnu_cxx17__normal_iteratorIPcNSt7__cxx1112basic_stringIcSt11char_traitsIcESaIcEEEEppEv, .-_ZN9__gnu_cxx17__normal_iteratorIPcNSt7__cxx1112basic_stringIcSt11char_traitsIcESaIcEEEEppEv
	.section	.text._ZNSt6vectorIiSaIiEE11_S_max_sizeERKS0_,"axG",@progbits,_ZNSt6vectorIiSaIiEE11_S_max_sizeERKS0_,comdat
	.weak	_ZNSt6vectorIiSaIiEE11_S_max_sizeERKS0_
	.type	_ZNSt6vectorIiSaIiEE11_S_max_sizeERKS0_, @function
_ZNSt6vectorIiSaIiEE11_S_max_sizeERKS0_:
.LFB11205:
	.cfi_startproc
	endbr64
	push	rbp
	.cfi_def_cfa_offset 16
	.cfi_offset 6, -16
	mov	rbp, rsp
	.cfi_def_cfa_register 6
	sub	rsp, 48
	mov	QWORD PTR -40[rbp], rdi
	mov	rax, QWORD PTR fs:40
	mov	QWORD PTR -8[rbp], rax
	xor	eax, eax
	movabs	rax, 2305843009213693951
	mov	QWORD PTR -24[rbp], rax
	mov	rax, QWORD PTR -40[rbp]
	mov	rdi, rax
	call	_ZNSt16allocator_traitsISaIiEE8max_sizeERKS0_
	mov	QWORD PTR -16[rbp], rax
	lea	rdx, -16[rbp]
	lea	rax, -24[rbp]
	mov	rsi, rdx
	mov	rdi, rax
	call	_ZSt3minImERKT_S2_S2_
	mov	rax, QWORD PTR [rax]
	mov	rdx, QWORD PTR -8[rbp]
	sub	rdx, QWORD PTR fs:40
	je	.L296
	call	__stack_chk_fail@PLT
.L296:
	leave
	.cfi_def_cfa 7, 8
	ret
	.cfi_endproc
.LFE11205:
	.size	_ZNSt6vectorIiSaIiEE11_S_max_sizeERKS0_, .-_ZNSt6vectorIiSaIiEE11_S_max_sizeERKS0_
	.section	.text._ZNSaIiEC2ERKS_,"axG",@progbits,_ZNSaIiEC5ERKS_,comdat
	.align 2
	.weak	_ZNSaIiEC2ERKS_
	.type	_ZNSaIiEC2ERKS_, @function
_ZNSaIiEC2ERKS_:
.LFB11207:
	.cfi_startproc
	endbr64
	push	rbp
	.cfi_def_cfa_offset 16
	.cfi_offset 6, -16
	mov	rbp, rsp
	.cfi_def_cfa_register 6
	sub	rsp, 16
	mov	QWORD PTR -8[rbp], rdi
	mov	QWORD PTR -16[rbp], rsi
	mov	rdx, QWORD PTR -16[rbp]
	mov	rax, QWORD PTR -8[rbp]
	mov	rsi, rdx
	mov	rdi, rax
	call	_ZN9__gnu_cxx13new_allocatorIiEC2ERKS1_
	nop
	leave
	.cfi_def_cfa 7, 8
	ret
	.cfi_endproc
.LFE11207:
	.size	_ZNSaIiEC2ERKS_, .-_ZNSaIiEC2ERKS_
	.weak	_ZNSaIiEC1ERKS_
	.set	_ZNSaIiEC1ERKS_,_ZNSaIiEC2ERKS_
	.section	.text._ZNSt12_Vector_baseIiSaIiEE12_Vector_implC2ERKS0_,"axG",@progbits,_ZNSt12_Vector_baseIiSaIiEE12_Vector_implC5ERKS0_,comdat
	.align 2
	.weak	_ZNSt12_Vector_baseIiSaIiEE12_Vector_implC2ERKS0_
	.type	_ZNSt12_Vector_baseIiSaIiEE12_Vector_implC2ERKS0_, @function
_ZNSt12_Vector_baseIiSaIiEE12_Vector_implC2ERKS0_:
.LFB11210:
	.cfi_startproc
	endbr64
	push	rbp
	.cfi_def_cfa_offset 16
	.cfi_offset 6, -16
	mov	rbp, rsp
	.cfi_def_cfa_register 6
	sub	rsp, 16
	mov	QWORD PTR -8[rbp], rdi
	mov	QWORD PTR -16[rbp], rsi
	mov	rdx, QWORD PTR -16[rbp]
	mov	rax, QWORD PTR -8[rbp]
	mov	rsi, rdx
	mov	rdi, rax
	call	_ZNSaIiEC2ERKS_
	mov	rax, QWORD PTR -8[rbp]
	mov	rdi, rax
	call	_ZNSt12_Vector_baseIiSaIiEE17_Vector_impl_dataC2Ev
	nop
	leave
	.cfi_def_cfa 7, 8
	ret
	.cfi_endproc
.LFE11210:
	.size	_ZNSt12_Vector_baseIiSaIiEE12_Vector_implC2ERKS0_, .-_ZNSt12_Vector_baseIiSaIiEE12_Vector_implC2ERKS0_
	.weak	_ZNSt12_Vector_baseIiSaIiEE12_Vector_implC1ERKS0_
	.set	_ZNSt12_Vector_baseIiSaIiEE12_Vector_implC1ERKS0_,_ZNSt12_Vector_baseIiSaIiEE12_Vector_implC2ERKS0_
	.section	.text._ZNSt12_Vector_baseIiSaIiEE17_M_create_storageEm,"axG",@progbits,_ZNSt12_Vector_baseIiSaIiEE17_M_create_storageEm,comdat
	.align 2
	.weak	_ZNSt12_Vector_baseIiSaIiEE17_M_create_storageEm
	.type	_ZNSt12_Vector_baseIiSaIiEE17_M_create_storageEm, @function
_ZNSt12_Vector_baseIiSaIiEE17_M_create_storageEm:
.LFB11212:
	.cfi_startproc
	endbr64
	push	rbp
	.cfi_def_cfa_offset 16
	.cfi_offset 6, -16
	mov	rbp, rsp
	.cfi_def_cfa_register 6
	sub	rsp, 16
	mov	QWORD PTR -8[rbp], rdi
	mov	QWORD PTR -16[rbp], rsi
	mov	rdx, QWORD PTR -16[rbp]
	mov	rax, QWORD PTR -8[rbp]
	mov	rsi, rdx
	mov	rdi, rax
	call	_ZNSt12_Vector_baseIiSaIiEE11_M_allocateEm
	mov	rdx, QWORD PTR -8[rbp]
	mov	QWORD PTR [rdx], rax
	mov	rax, QWORD PTR -8[rbp]
	mov	rdx, QWORD PTR [rax]
	mov	rax, QWORD PTR -8[rbp]
	mov	QWORD PTR 8[rax], rdx
	mov	rax, QWORD PTR -8[rbp]
	mov	rdx, QWORD PTR [rax]
	mov	rax, QWORD PTR -16[rbp]
	sal	rax, 2
	add	rdx, rax
	mov	rax, QWORD PTR -8[rbp]
	mov	QWORD PTR 16[rax], rdx
	nop
	leave
	.cfi_def_cfa 7, 8
	ret
	.cfi_endproc
.LFE11212:
	.size	_ZNSt12_Vector_baseIiSaIiEE17_M_create_storageEm, .-_ZNSt12_Vector_baseIiSaIiEE17_M_create_storageEm
	.section	.text._ZNSt12_Vector_baseIiSaIiEE13_M_deallocateEPim,"axG",@progbits,_ZNSt12_Vector_baseIiSaIiEE13_M_deallocateEPim,comdat
	.align 2
	.weak	_ZNSt12_Vector_baseIiSaIiEE13_M_deallocateEPim
	.type	_ZNSt12_Vector_baseIiSaIiEE13_M_deallocateEPim, @function
_ZNSt12_Vector_baseIiSaIiEE13_M_deallocateEPim:
.LFB11213:
	.cfi_startproc
	endbr64
	push	rbp
	.cfi_def_cfa_offset 16
	.cfi_offset 6, -16
	mov	rbp, rsp
	.cfi_def_cfa_register 6
	sub	rsp, 32
	mov	QWORD PTR -8[rbp], rdi
	mov	QWORD PTR -16[rbp], rsi
	mov	QWORD PTR -24[rbp], rdx
	cmp	QWORD PTR -16[rbp], 0
	je	.L302
	mov	rax, QWORD PTR -8[rbp]
	mov	rdx, QWORD PTR -24[rbp]
	mov	rcx, QWORD PTR -16[rbp]
	mov	rsi, rcx
	mov	rdi, rax
	call	_ZNSt16allocator_traitsISaIiEE10deallocateERS0_Pim
.L302:
	nop
	leave
	.cfi_def_cfa 7, 8
	ret
	.cfi_endproc
.LFE11213:
	.size	_ZNSt12_Vector_baseIiSaIiEE13_M_deallocateEPim, .-_ZNSt12_Vector_baseIiSaIiEE13_M_deallocateEPim
	.section	.text._ZSt27__uninitialized_default_n_aIPimiET_S1_T0_RSaIT1_E,"axG",@progbits,_ZSt27__uninitialized_default_n_aIPimiET_S1_T0_RSaIT1_E,comdat
	.weak	_ZSt27__uninitialized_default_n_aIPimiET_S1_T0_RSaIT1_E
	.type	_ZSt27__uninitialized_default_n_aIPimiET_S1_T0_RSaIT1_E, @function
_ZSt27__uninitialized_default_n_aIPimiET_S1_T0_RSaIT1_E:
.LFB11214:
	.cfi_startproc
	endbr64
	push	rbp
	.cfi_def_cfa_offset 16
	.cfi_offset 6, -16
	mov	rbp, rsp
	.cfi_def_cfa_register 6
	sub	rsp, 32
	mov	QWORD PTR -8[rbp], rdi
	mov	QWORD PTR -16[rbp], rsi
	mov	QWORD PTR -24[rbp], rdx
	mov	rdx, QWORD PTR -16[rbp]
	mov	rax, QWORD PTR -8[rbp]
	mov	rsi, rdx
	mov	rdi, rax
	call	_ZSt25__uninitialized_default_nIPimET_S1_T0_
	leave
	.cfi_def_cfa 7, 8
	ret
	.cfi_endproc
.LFE11214:
	.size	_ZSt27__uninitialized_default_n_aIPimiET_S1_T0_RSaIT1_E, .-_ZSt27__uninitialized_default_n_aIPimiET_S1_T0_RSaIT1_E
	.section	.text._ZSt8_DestroyIPiEvT_S1_,"axG",@progbits,_ZSt8_DestroyIPiEvT_S1_,comdat
	.weak	_ZSt8_DestroyIPiEvT_S1_
	.type	_ZSt8_DestroyIPiEvT_S1_, @function
_ZSt8_DestroyIPiEvT_S1_:
.LFB11215:
	.cfi_startproc
	endbr64
	push	rbp
	.cfi_def_cfa_offset 16
	.cfi_offset 6, -16
	mov	rbp, rsp
	.cfi_def_cfa_register 6
	sub	rsp, 16
	mov	QWORD PTR -8[rbp], rdi
	mov	QWORD PTR -16[rbp], rsi
	mov	rdx, QWORD PTR -16[rbp]
	mov	rax, QWORD PTR -8[rbp]
	mov	rsi, rdx
	mov	rdi, rax
	call	_ZNSt12_Destroy_auxILb1EE9__destroyIPiEEvT_S3_
	nop
	leave
	.cfi_def_cfa 7, 8
	ret
	.cfi_endproc
.LFE11215:
	.size	_ZSt8_DestroyIPiEvT_S1_, .-_ZSt8_DestroyIPiEvT_S1_
	.section	.text._ZN9__gnu_cxx13new_allocatorISt4pairIiiEEC2Ev,"axG",@progbits,_ZN9__gnu_cxx13new_allocatorISt4pairIiiEEC5Ev,comdat
	.align 2
	.weak	_ZN9__gnu_cxx13new_allocatorISt4pairIiiEEC2Ev
	.type	_ZN9__gnu_cxx13new_allocatorISt4pairIiiEEC2Ev, @function
_ZN9__gnu_cxx13new_allocatorISt4pairIiiEEC2Ev:
.LFB11217:
	.cfi_startproc
	endbr64
	push	rbp
	.cfi_def_cfa_offset 16
	.cfi_offset 6, -16
	mov	rbp, rsp
	.cfi_def_cfa_register 6
	mov	QWORD PTR -8[rbp], rdi
	nop
	pop	rbp
	.cfi_def_cfa 7, 8
	ret
	.cfi_endproc
.LFE11217:
	.size	_ZN9__gnu_cxx13new_allocatorISt4pairIiiEEC2Ev, .-_ZN9__gnu_cxx13new_allocatorISt4pairIiiEEC2Ev
	.weak	_ZN9__gnu_cxx13new_allocatorISt4pairIiiEEC1Ev
	.set	_ZN9__gnu_cxx13new_allocatorISt4pairIiiEEC1Ev,_ZN9__gnu_cxx13new_allocatorISt4pairIiiEEC2Ev
	.section	.text._ZNSt16allocator_traitsISaISt4pairIiiEEE10deallocateERS2_PS1_m,"axG",@progbits,_ZNSt16allocator_traitsISaISt4pairIiiEEE10deallocateERS2_PS1_m,comdat
	.weak	_ZNSt16allocator_traitsISaISt4pairIiiEEE10deallocateERS2_PS1_m
	.type	_ZNSt16allocator_traitsISaISt4pairIiiEEE10deallocateERS2_PS1_m, @function
_ZNSt16allocator_traitsISaISt4pairIiiEEE10deallocateERS2_PS1_m:
.LFB11219:
	.cfi_startproc
	endbr64
	push	rbp
	.cfi_def_cfa_offset 16
	.cfi_offset 6, -16
	mov	rbp, rsp
	.cfi_def_cfa_register 6
	sub	rsp, 32
	mov	QWORD PTR -8[rbp], rdi
	mov	QWORD PTR -16[rbp], rsi
	mov	QWORD PTR -24[rbp], rdx
	mov	rdx, QWORD PTR -24[rbp]
	mov	rcx, QWORD PTR -16[rbp]
	mov	rax, QWORD PTR -8[rbp]
	mov	rsi, rcx
	mov	rdi, rax
	call	_ZN9__gnu_cxx13new_allocatorISt4pairIiiEE10deallocateEPS2_m
	nop
	leave
	.cfi_def_cfa 7, 8
	ret
	.cfi_endproc
.LFE11219:
	.size	_ZNSt16allocator_traitsISaISt4pairIiiEEE10deallocateERS2_PS1_m, .-_ZNSt16allocator_traitsISaISt4pairIiiEEE10deallocateERS2_PS1_m
	.section	.text._ZSt8_DestroyIPSt4pairIiiEEvT_S3_,"axG",@progbits,_ZSt8_DestroyIPSt4pairIiiEEvT_S3_,comdat
	.weak	_ZSt8_DestroyIPSt4pairIiiEEvT_S3_
	.type	_ZSt8_DestroyIPSt4pairIiiEEvT_S3_, @function
_ZSt8_DestroyIPSt4pairIiiEEvT_S3_:
.LFB11220:
	.cfi_startproc
	endbr64
	push	rbp
	.cfi_def_cfa_offset 16
	.cfi_offset 6, -16
	mov	rbp, rsp
	.cfi_def_cfa_register 6
	sub	rsp, 16
	mov	QWORD PTR -8[rbp], rdi
	mov	QWORD PTR -16[rbp], rsi
	mov	rdx, QWORD PTR -16[rbp]
	mov	rax, QWORD PTR -8[rbp]
	mov	rsi, rdx
	mov	rdi, rax
	call	_ZNSt12_Destroy_auxILb1EE9__destroyIPSt4pairIiiEEEvT_S5_
	nop
	leave
	.cfi_def_cfa 7, 8
	ret
	.cfi_endproc
.LFE11220:
	.size	_ZSt8_DestroyIPSt4pairIiiEEvT_S3_, .-_ZSt8_DestroyIPSt4pairIiiEEvT_S3_
	.section	.text._ZN9__gnu_cxx13new_allocatorISt13_Rb_tree_nodeISt4pairIKiiEEEC2Ev,"axG",@progbits,_ZN9__gnu_cxx13new_allocatorISt13_Rb_tree_nodeISt4pairIKiiEEEC5Ev,comdat
	.align 2
	.weak	_ZN9__gnu_cxx13new_allocatorISt13_Rb_tree_nodeISt4pairIKiiEEEC2Ev
	.type	_ZN9__gnu_cxx13new_allocatorISt13_Rb_tree_nodeISt4pairIKiiEEEC2Ev, @function
_ZN9__gnu_cxx13new_allocatorISt13_Rb_tree_nodeISt4pairIKiiEEEC2Ev:
.LFB11222:
	.cfi_startproc
	endbr64
	push	rbp
	.cfi_def_cfa_offset 16
	.cfi_offset 6, -16
	mov	rbp, rsp
	.cfi_def_cfa_register 6
	mov	QWORD PTR -8[rbp], rdi
	nop
	pop	rbp
	.cfi_def_cfa 7, 8
	ret
	.cfi_endproc
.LFE11222:
	.size	_ZN9__gnu_cxx13new_allocatorISt13_Rb_tree_nodeISt4pairIKiiEEEC2Ev, .-_ZN9__gnu_cxx13new_allocatorISt13_Rb_tree_nodeISt4pairIKiiEEEC2Ev
	.weak	_ZN9__gnu_cxx13new_allocatorISt13_Rb_tree_nodeISt4pairIKiiEEEC1Ev
	.set	_ZN9__gnu_cxx13new_allocatorISt13_Rb_tree_nodeISt4pairIKiiEEEC1Ev,_ZN9__gnu_cxx13new_allocatorISt13_Rb_tree_nodeISt4pairIKiiEEEC2Ev
	.section	.text._ZNSt8_Rb_treeIiSt4pairIKiiESt10_Select1stIS2_ESt4lessIiESaIS2_EE8_S_rightEPSt18_Rb_tree_node_base,"axG",@progbits,_ZNSt8_Rb_treeIiSt4pairIKiiESt10_Select1stIS2_ESt4lessIiESaIS2_EE8_S_rightEPSt18_Rb_tree_node_base,comdat
	.weak	_ZNSt8_Rb_treeIiSt4pairIKiiESt10_Select1stIS2_ESt4lessIiESaIS2_EE8_S_rightEPSt18_Rb_tree_node_base
	.type	_ZNSt8_Rb_treeIiSt4pairIKiiESt10_Select1stIS2_ESt4lessIiESaIS2_EE8_S_rightEPSt18_Rb_tree_node_base, @function
_ZNSt8_Rb_treeIiSt4pairIKiiESt10_Select1stIS2_ESt4lessIiESaIS2_EE8_S_rightEPSt18_Rb_tree_node_base:
.LFB11224:
	.cfi_startproc
	endbr64
	push	rbp
	.cfi_def_cfa_offset 16
	.cfi_offset 6, -16
	mov	rbp, rsp
	.cfi_def_cfa_register 6
	mov	QWORD PTR -8[rbp], rdi
	mov	rax, QWORD PTR -8[rbp]
	mov	rax, QWORD PTR 24[rax]
	pop	rbp
	.cfi_def_cfa 7, 8
	ret
	.cfi_endproc
.LFE11224:
	.size	_ZNSt8_Rb_treeIiSt4pairIKiiESt10_Select1stIS2_ESt4lessIiESaIS2_EE8_S_rightEPSt18_Rb_tree_node_base, .-_ZNSt8_Rb_treeIiSt4pairIKiiESt10_Select1stIS2_ESt4lessIiESaIS2_EE8_S_rightEPSt18_Rb_tree_node_base
	.section	.text._ZNSt8_Rb_treeIiSt4pairIKiiESt10_Select1stIS2_ESt4lessIiESaIS2_EE7_S_leftEPSt18_Rb_tree_node_base,"axG",@progbits,_ZNSt8_Rb_treeIiSt4pairIKiiESt10_Select1stIS2_ESt4lessIiESaIS2_EE7_S_leftEPSt18_Rb_tree_node_base,comdat
	.weak	_ZNSt8_Rb_treeIiSt4pairIKiiESt10_Select1stIS2_ESt4lessIiESaIS2_EE7_S_leftEPSt18_Rb_tree_node_base
	.type	_ZNSt8_Rb_treeIiSt4pairIKiiESt10_Select1stIS2_ESt4lessIiESaIS2_EE7_S_leftEPSt18_Rb_tree_node_base, @function
_ZNSt8_Rb_treeIiSt4pairIKiiESt10_Select1stIS2_ESt4lessIiESaIS2_EE7_S_leftEPSt18_Rb_tree_node_base:
.LFB11225:
	.cfi_startproc
	endbr64
	push	rbp
	.cfi_def_cfa_offset 16
	.cfi_offset 6, -16
	mov	rbp, rsp
	.cfi_def_cfa_register 6
	mov	QWORD PTR -8[rbp], rdi
	mov	rax, QWORD PTR -8[rbp]
	mov	rax, QWORD PTR 16[rax]
	pop	rbp
	.cfi_def_cfa 7, 8
	ret
	.cfi_endproc
.LFE11225:
	.size	_ZNSt8_Rb_treeIiSt4pairIKiiESt10_Select1stIS2_ESt4lessIiESaIS2_EE7_S_leftEPSt18_Rb_tree_node_base, .-_ZNSt8_Rb_treeIiSt4pairIKiiESt10_Select1stIS2_ESt4lessIiESaIS2_EE7_S_leftEPSt18_Rb_tree_node_base
	.section	.text._ZNSt8_Rb_treeIiSt4pairIKiiESt10_Select1stIS2_ESt4lessIiESaIS2_EE12_M_drop_nodeEPSt13_Rb_tree_nodeIS2_E,"axG",@progbits,_ZNSt8_Rb_treeIiSt4pairIKiiESt10_Select1stIS2_ESt4lessIiESaIS2_EE12_M_drop_nodeEPSt13_Rb_tree_nodeIS2_E,comdat
	.align 2
	.weak	_ZNSt8_Rb_treeIiSt4pairIKiiESt10_Select1stIS2_ESt4lessIiESaIS2_EE12_M_drop_nodeEPSt13_Rb_tree_nodeIS2_E
	.type	_ZNSt8_Rb_treeIiSt4pairIKiiESt10_Select1stIS2_ESt4lessIiESaIS2_EE12_M_drop_nodeEPSt13_Rb_tree_nodeIS2_E, @function
_ZNSt8_Rb_treeIiSt4pairIKiiESt10_Select1stIS2_ESt4lessIiESaIS2_EE12_M_drop_nodeEPSt13_Rb_tree_nodeIS2_E:
.LFB11226:
	.cfi_startproc
	endbr64
	push	rbp
	.cfi_def_cfa_offset 16
	.cfi_offset 6, -16
	mov	rbp, rsp
	.cfi_def_cfa_register 6
	sub	rsp, 16
	mov	QWORD PTR -8[rbp], rdi
	mov	QWORD PTR -16[rbp], rsi
	mov	rdx, QWORD PTR -16[rbp]
	mov	rax, QWORD PTR -8[rbp]
	mov	rsi, rdx
	mov	rdi, rax
	call	_ZNSt8_Rb_treeIiSt4pairIKiiESt10_Select1stIS2_ESt4lessIiESaIS2_EE15_M_destroy_nodeEPSt13_Rb_tree_nodeIS2_E
	mov	rdx, QWORD PTR -16[rbp]
	mov	rax, QWORD PTR -8[rbp]
	mov	rsi, rdx
	mov	rdi, rax
	call	_ZNSt8_Rb_treeIiSt4pairIKiiESt10_Select1stIS2_ESt4lessIiESaIS2_EE11_M_put_nodeEPSt13_Rb_tree_nodeIS2_E
	nop
	leave
	.cfi_def_cfa 7, 8
	ret
	.cfi_endproc
.LFE11226:
	.size	_ZNSt8_Rb_treeIiSt4pairIKiiESt10_Select1stIS2_ESt4lessIiESaIS2_EE12_M_drop_nodeEPSt13_Rb_tree_nodeIS2_E, .-_ZNSt8_Rb_treeIiSt4pairIKiiESt10_Select1stIS2_ESt4lessIiESaIS2_EE12_M_drop_nodeEPSt13_Rb_tree_nodeIS2_E
	.section	.text._ZNKSt8_Rb_treeIiSt4pairIKiiESt10_Select1stIS2_ESt4lessIiESaIS2_EE9_M_mbeginEv,"axG",@progbits,_ZNKSt8_Rb_treeIiSt4pairIKiiESt10_Select1stIS2_ESt4lessIiESaIS2_EE9_M_mbeginEv,comdat
	.align 2
	.weak	_ZNKSt8_Rb_treeIiSt4pairIKiiESt10_Select1stIS2_ESt4lessIiESaIS2_EE9_M_mbeginEv
	.type	_ZNKSt8_Rb_treeIiSt4pairIKiiESt10_Select1stIS2_ESt4lessIiESaIS2_EE9_M_mbeginEv, @function
_ZNKSt8_Rb_treeIiSt4pairIKiiESt10_Select1stIS2_ESt4lessIiESaIS2_EE9_M_mbeginEv:
.LFB11227:
	.cfi_startproc
	endbr64
	push	rbp
	.cfi_def_cfa_offset 16
	.cfi_offset 6, -16
	mov	rbp, rsp
	.cfi_def_cfa_register 6
	mov	QWORD PTR -8[rbp], rdi
	mov	rax, QWORD PTR -8[rbp]
	mov	rax, QWORD PTR 16[rax]
	pop	rbp
	.cfi_def_cfa 7, 8
	ret
	.cfi_endproc
.LFE11227:
	.size	_ZNKSt8_Rb_treeIiSt4pairIKiiESt10_Select1stIS2_ESt4lessIiESaIS2_EE9_M_mbeginEv, .-_ZNKSt8_Rb_treeIiSt4pairIKiiESt10_Select1stIS2_ESt4lessIiESaIS2_EE9_M_mbeginEv
	.section	.text._ZNSt8_Rb_treeIiSt4pairIKiiESt10_Select1stIS2_ESt4lessIiESaIS2_EE11lower_boundERS1_,"axG",@progbits,_ZNSt8_Rb_treeIiSt4pairIKiiESt10_Select1stIS2_ESt4lessIiESaIS2_EE11lower_boundERS1_,comdat
	.align 2
	.weak	_ZNSt8_Rb_treeIiSt4pairIKiiESt10_Select1stIS2_ESt4lessIiESaIS2_EE11lower_boundERS1_
	.type	_ZNSt8_Rb_treeIiSt4pairIKiiESt10_Select1stIS2_ESt4lessIiESaIS2_EE11lower_boundERS1_, @function
_ZNSt8_Rb_treeIiSt4pairIKiiESt10_Select1stIS2_ESt4lessIiESaIS2_EE11lower_boundERS1_:
.LFB11228:
	.cfi_startproc
	endbr64
	push	rbp
	.cfi_def_cfa_offset 16
	.cfi_offset 6, -16
	mov	rbp, rsp
	.cfi_def_cfa_register 6
	push	rbx
	sub	rsp, 24
	.cfi_offset 3, -24
	mov	QWORD PTR -24[rbp], rdi
	mov	QWORD PTR -32[rbp], rsi
	mov	rax, QWORD PTR -24[rbp]
	mov	rdi, rax
	call	_ZNSt8_Rb_treeIiSt4pairIKiiESt10_Select1stIS2_ESt4lessIiESaIS2_EE6_M_endEv
	mov	rbx, rax
	mov	rax, QWORD PTR -24[rbp]
	mov	rdi, rax
	call	_ZNSt8_Rb_treeIiSt4pairIKiiESt10_Select1stIS2_ESt4lessIiESaIS2_EE8_M_beginEv
	mov	rsi, rax
	mov	rdx, QWORD PTR -32[rbp]
	mov	rax, QWORD PTR -24[rbp]
	mov	rcx, rdx
	mov	rdx, rbx
	mov	rdi, rax
	call	_ZNSt8_Rb_treeIiSt4pairIKiiESt10_Select1stIS2_ESt4lessIiESaIS2_EE14_M_lower_boundEPSt13_Rb_tree_nodeIS2_EPSt18_Rb_tree_node_baseRS1_
	mov	rbx, QWORD PTR -8[rbp]
	leave
	.cfi_def_cfa 7, 8
	ret
	.cfi_endproc
.LFE11228:
	.size	_ZNSt8_Rb_treeIiSt4pairIKiiESt10_Select1stIS2_ESt4lessIiESaIS2_EE11lower_boundERS1_, .-_ZNSt8_Rb_treeIiSt4pairIKiiESt10_Select1stIS2_ESt4lessIiESaIS2_EE11lower_boundERS1_
	.section	.text._ZNSt8_Rb_treeIiSt4pairIKiiESt10_Select1stIS2_ESt4lessIiESaIS2_EE3endEv,"axG",@progbits,_ZNSt8_Rb_treeIiSt4pairIKiiESt10_Select1stIS2_ESt4lessIiESaIS2_EE3endEv,comdat
	.align 2
	.weak	_ZNSt8_Rb_treeIiSt4pairIKiiESt10_Select1stIS2_ESt4lessIiESaIS2_EE3endEv
	.type	_ZNSt8_Rb_treeIiSt4pairIKiiESt10_Select1stIS2_ESt4lessIiESaIS2_EE3endEv, @function
_ZNSt8_Rb_treeIiSt4pairIKiiESt10_Select1stIS2_ESt4lessIiESaIS2_EE3endEv:
.LFB11229:
	.cfi_startproc
	endbr64
	push	rbp
	.cfi_def_cfa_offset 16
	.cfi_offset 6, -16
	mov	rbp, rsp
	.cfi_def_cfa_register 6
	sub	rsp, 32
	mov	QWORD PTR -24[rbp], rdi
	mov	rax, QWORD PTR fs:40
	mov	QWORD PTR -8[rbp], rax
	xor	eax, eax
	mov	rax, QWORD PTR -24[rbp]
	lea	rdx, 8[rax]
	lea	rax, -16[rbp]
	mov	rsi, rdx
	mov	rdi, rax
	call	_ZNSt17_Rb_tree_iteratorISt4pairIKiiEEC1EPSt18_Rb_tree_node_base
	mov	rax, QWORD PTR -16[rbp]
	mov	rdx, QWORD PTR -8[rbp]
	sub	rdx, QWORD PTR fs:40
	je	.L321
	call	__stack_chk_fail@PLT
.L321:
	leave
	.cfi_def_cfa 7, 8
	ret
	.cfi_endproc
.LFE11229:
	.size	_ZNSt8_Rb_treeIiSt4pairIKiiESt10_Select1stIS2_ESt4lessIiESaIS2_EE3endEv, .-_ZNSt8_Rb_treeIiSt4pairIKiiESt10_Select1stIS2_ESt4lessIiESaIS2_EE3endEv
	.section	.text._ZNKSt8_Rb_treeIiSt4pairIKiiESt10_Select1stIS2_ESt4lessIiESaIS2_EE8key_compEv,"axG",@progbits,_ZNKSt8_Rb_treeIiSt4pairIKiiESt10_Select1stIS2_ESt4lessIiESaIS2_EE8key_compEv,comdat
	.align 2
	.weak	_ZNKSt8_Rb_treeIiSt4pairIKiiESt10_Select1stIS2_ESt4lessIiESaIS2_EE8key_compEv
	.type	_ZNKSt8_Rb_treeIiSt4pairIKiiESt10_Select1stIS2_ESt4lessIiESaIS2_EE8key_compEv, @function
_ZNKSt8_Rb_treeIiSt4pairIKiiESt10_Select1stIS2_ESt4lessIiESaIS2_EE8key_compEv:
.LFB11230:
	.cfi_startproc
	endbr64
	push	rbp
	.cfi_def_cfa_offset 16
	.cfi_offset 6, -16
	mov	rbp, rsp
	.cfi_def_cfa_register 6
	mov	QWORD PTR -8[rbp], rdi
	nop
	pop	rbp
	.cfi_def_cfa 7, 8
	ret
	.cfi_endproc
.LFE11230:
	.size	_ZNKSt8_Rb_treeIiSt4pairIKiiESt10_Select1stIS2_ESt4lessIiESaIS2_EE8key_compEv, .-_ZNKSt8_Rb_treeIiSt4pairIKiiESt10_Select1stIS2_ESt4lessIiESaIS2_EE8key_compEv
	.section	.text._ZNSt13_Rb_tree_nodeISt4pairIKiiEE9_M_valptrEv,"axG",@progbits,_ZNSt13_Rb_tree_nodeISt4pairIKiiEE9_M_valptrEv,comdat
	.align 2
	.weak	_ZNSt13_Rb_tree_nodeISt4pairIKiiEE9_M_valptrEv
	.type	_ZNSt13_Rb_tree_nodeISt4pairIKiiEE9_M_valptrEv, @function
_ZNSt13_Rb_tree_nodeISt4pairIKiiEE9_M_valptrEv:
.LFB11231:
	.cfi_startproc
	endbr64
	push	rbp
	.cfi_def_cfa_offset 16
	.cfi_offset 6, -16
	mov	rbp, rsp
	.cfi_def_cfa_register 6
	sub	rsp, 16
	mov	QWORD PTR -8[rbp], rdi
	mov	rax, QWORD PTR -8[rbp]
	add	rax, 32
	mov	rdi, rax
	call	_ZN9__gnu_cxx16__aligned_membufISt4pairIKiiEE6_M_ptrEv
	leave
	.cfi_def_cfa 7, 8
	ret
	.cfi_endproc
.LFE11231:
	.size	_ZNSt13_Rb_tree_nodeISt4pairIKiiEE9_M_valptrEv, .-_ZNSt13_Rb_tree_nodeISt4pairIKiiEE9_M_valptrEv
	.section	.text._ZNSt11_Tuple_implILm0EJRKiEEC2ES1_,"axG",@progbits,_ZNSt11_Tuple_implILm0EJRKiEEC5ES1_,comdat
	.align 2
	.weak	_ZNSt11_Tuple_implILm0EJRKiEEC2ES1_
	.type	_ZNSt11_Tuple_implILm0EJRKiEEC2ES1_, @function
_ZNSt11_Tuple_implILm0EJRKiEEC2ES1_:
.LFB11233:
	.cfi_startproc
	endbr64
	push	rbp
	.cfi_def_cfa_offset 16
	.cfi_offset 6, -16
	mov	rbp, rsp
	.cfi_def_cfa_register 6
	sub	rsp, 16
	mov	QWORD PTR -8[rbp], rdi
	mov	QWORD PTR -16[rbp], rsi
	mov	rax, QWORD PTR -8[rbp]
	mov	rdx, QWORD PTR -16[rbp]
	mov	rsi, rdx
	mov	rdi, rax
	call	_ZNSt10_Head_baseILm0ERKiLb0EEC2ES1_
	nop
	leave
	.cfi_def_cfa 7, 8
	ret
	.cfi_endproc
.LFE11233:
	.size	_ZNSt11_Tuple_implILm0EJRKiEEC2ES1_, .-_ZNSt11_Tuple_implILm0EJRKiEEC2ES1_
	.weak	_ZNSt11_Tuple_implILm0EJRKiEEC1ES1_
	.set	_ZNSt11_Tuple_implILm0EJRKiEEC1ES1_,_ZNSt11_Tuple_implILm0EJRKiEEC2ES1_
	.section	.text._ZSt7forwardIRKSt21piecewise_construct_tEOT_RNSt16remove_referenceIS3_E4typeE,"axG",@progbits,_ZSt7forwardIRKSt21piecewise_construct_tEOT_RNSt16remove_referenceIS3_E4typeE,comdat
	.weak	_ZSt7forwardIRKSt21piecewise_construct_tEOT_RNSt16remove_referenceIS3_E4typeE
	.type	_ZSt7forwardIRKSt21piecewise_construct_tEOT_RNSt16remove_referenceIS3_E4typeE, @function
_ZSt7forwardIRKSt21piecewise_construct_tEOT_RNSt16remove_referenceIS3_E4typeE:
.LFB11235:
	.cfi_startproc
	endbr64
	push	rbp
	.cfi_def_cfa_offset 16
	.cfi_offset 6, -16
	mov	rbp, rsp
	.cfi_def_cfa_register 6
	mov	QWORD PTR -8[rbp], rdi
	mov	rax, QWORD PTR -8[rbp]
	pop	rbp
	.cfi_def_cfa 7, 8
	ret
	.cfi_endproc
.LFE11235:
	.size	_ZSt7forwardIRKSt21piecewise_construct_tEOT_RNSt16remove_referenceIS3_E4typeE, .-_ZSt7forwardIRKSt21piecewise_construct_tEOT_RNSt16remove_referenceIS3_E4typeE
	.section	.text._ZSt7forwardISt5tupleIJRKiEEEOT_RNSt16remove_referenceIS4_E4typeE,"axG",@progbits,_ZSt7forwardISt5tupleIJRKiEEEOT_RNSt16remove_referenceIS4_E4typeE,comdat
	.weak	_ZSt7forwardISt5tupleIJRKiEEEOT_RNSt16remove_referenceIS4_E4typeE
	.type	_ZSt7forwardISt5tupleIJRKiEEEOT_RNSt16remove_referenceIS4_E4typeE, @function
_ZSt7forwardISt5tupleIJRKiEEEOT_RNSt16remove_referenceIS4_E4typeE:
.LFB11236:
	.cfi_startproc
	endbr64
	push	rbp
	.cfi_def_cfa_offset 16
	.cfi_offset 6, -16
	mov	rbp, rsp
	.cfi_def_cfa_register 6
	mov	QWORD PTR -8[rbp], rdi
	mov	rax, QWORD PTR -8[rbp]
	pop	rbp
	.cfi_def_cfa 7, 8
	ret
	.cfi_endproc
.LFE11236:
	.size	_ZSt7forwardISt5tupleIJRKiEEEOT_RNSt16remove_referenceIS4_E4typeE, .-_ZSt7forwardISt5tupleIJRKiEEEOT_RNSt16remove_referenceIS4_E4typeE
	.section	.text._ZSt7forwardISt5tupleIJEEEOT_RNSt16remove_referenceIS2_E4typeE,"axG",@progbits,_ZSt7forwardISt5tupleIJEEEOT_RNSt16remove_referenceIS2_E4typeE,comdat
	.weak	_ZSt7forwardISt5tupleIJEEEOT_RNSt16remove_referenceIS2_E4typeE
	.type	_ZSt7forwardISt5tupleIJEEEOT_RNSt16remove_referenceIS2_E4typeE, @function
_ZSt7forwardISt5tupleIJEEEOT_RNSt16remove_referenceIS2_E4typeE:
.LFB11237:
	.cfi_startproc
	endbr64
	push	rbp
	.cfi_def_cfa_offset 16
	.cfi_offset 6, -16
	mov	rbp, rsp
	.cfi_def_cfa_register 6
	mov	QWORD PTR -8[rbp], rdi
	mov	rax, QWORD PTR -8[rbp]
	pop	rbp
	.cfi_def_cfa 7, 8
	ret
	.cfi_endproc
.LFE11237:
	.size	_ZSt7forwardISt5tupleIJEEEOT_RNSt16remove_referenceIS2_E4typeE, .-_ZSt7forwardISt5tupleIJEEEOT_RNSt16remove_referenceIS2_E4typeE
	.section	.text._ZNSt8_Rb_treeIiSt4pairIKiiESt10_Select1stIS2_ESt4lessIiESaIS2_EE14_M_create_nodeIJRKSt21piecewise_construct_tSt5tupleIJRS1_EESD_IJEEEEEPSt13_Rb_tree_nodeIS2_EDpOT_,"axG",@progbits,_ZNSt8_Rb_treeIiSt4pairIKiiESt10_Select1stIS2_ESt4lessIiESaIS2_EE14_M_create_nodeIJRKSt21piecewise_construct_tSt5tupleIJRS1_EESD_IJEEEEEPSt13_Rb_tree_nodeIS2_EDpOT_,comdat
	.align 2
	.weak	_ZNSt8_Rb_treeIiSt4pairIKiiESt10_Select1stIS2_ESt4lessIiESaIS2_EE14_M_create_nodeIJRKSt21piecewise_construct_tSt5tupleIJRS1_EESD_IJEEEEEPSt13_Rb_tree_nodeIS2_EDpOT_
	.type	_ZNSt8_Rb_treeIiSt4pairIKiiESt10_Select1stIS2_ESt4lessIiESaIS2_EE14_M_create_nodeIJRKSt21piecewise_construct_tSt5tupleIJRS1_EESD_IJEEEEEPSt13_Rb_tree_nodeIS2_EDpOT_, @function
_ZNSt8_Rb_treeIiSt4pairIKiiESt10_Select1stIS2_ESt4lessIiESaIS2_EE14_M_create_nodeIJRKSt21piecewise_construct_tSt5tupleIJRS1_EESD_IJEEEEEPSt13_Rb_tree_nodeIS2_EDpOT_:
.LFB11238:
	.cfi_startproc
	endbr64
	push	rbp
	.cfi_def_cfa_offset 16
	.cfi_offset 6, -16
	mov	rbp, rsp
	.cfi_def_cfa_register 6
	push	r12
	push	rbx
	sub	rsp, 48
	.cfi_offset 12, -24
	.cfi_offset 3, -32
	mov	QWORD PTR -40[rbp], rdi
	mov	QWORD PTR -48[rbp], rsi
	mov	QWORD PTR -56[rbp], rdx
	mov	QWORD PTR -64[rbp], rcx
	mov	rax, QWORD PTR -40[rbp]
	mov	rdi, rax
	call	_ZNSt8_Rb_treeIiSt4pairIKiiESt10_Select1stIS2_ESt4lessIiESaIS2_EE11_M_get_nodeEv
	mov	QWORD PTR -24[rbp], rax
	mov	rax, QWORD PTR -64[rbp]
	mov	rdi, rax
	call	_ZSt7forwardISt5tupleIJEEEOT_RNSt16remove_referenceIS2_E4typeE
	mov	r12, rax
	mov	rax, QWORD PTR -56[rbp]
	mov	rdi, rax
	call	_ZSt7forwardISt5tupleIJRKiEEEOT_RNSt16remove_referenceIS4_E4typeE
	mov	rbx, rax
	mov	rax, QWORD PTR -48[rbp]
	mov	rdi, rax
	call	_ZSt7forwardIRKSt21piecewise_construct_tEOT_RNSt16remove_referenceIS3_E4typeE
	mov	rdx, rax
	mov	rsi, QWORD PTR -24[rbp]
	mov	rax, QWORD PTR -40[rbp]
	mov	r8, r12
	mov	rcx, rbx
	mov	rdi, rax
	call	_ZNSt8_Rb_treeIiSt4pairIKiiESt10_Select1stIS2_ESt4lessIiESaIS2_EE17_M_construct_nodeIJRKSt21piecewise_construct_tSt5tupleIJRS1_EESD_IJEEEEEvPSt13_Rb_tree_nodeIS2_EDpOT_
	mov	rax, QWORD PTR -24[rbp]
	add	rsp, 48
	pop	rbx
	pop	r12
	pop	rbp
	.cfi_def_cfa 7, 8
	ret
	.cfi_endproc
.LFE11238:
	.size	_ZNSt8_Rb_treeIiSt4pairIKiiESt10_Select1stIS2_ESt4lessIiESaIS2_EE14_M_create_nodeIJRKSt21piecewise_construct_tSt5tupleIJRS1_EESD_IJEEEEEPSt13_Rb_tree_nodeIS2_EDpOT_, .-_ZNSt8_Rb_treeIiSt4pairIKiiESt10_Select1stIS2_ESt4lessIiESaIS2_EE14_M_create_nodeIJRKSt21piecewise_construct_tSt5tupleIJRS1_EESD_IJEEEEEPSt13_Rb_tree_nodeIS2_EDpOT_
	.section	.text._ZNSt8_Rb_treeIiSt4pairIKiiESt10_Select1stIS2_ESt4lessIiESaIS2_EE29_M_get_insert_hint_unique_posESt23_Rb_tree_const_iteratorIS2_ERS1_,"axG",@progbits,_ZNSt8_Rb_treeIiSt4pairIKiiESt10_Select1stIS2_ESt4lessIiESaIS2_EE29_M_get_insert_hint_unique_posESt23_Rb_tree_const_iteratorIS2_ERS1_,comdat
	.align 2
	.weak	_ZNSt8_Rb_treeIiSt4pairIKiiESt10_Select1stIS2_ESt4lessIiESaIS2_EE29_M_get_insert_hint_unique_posESt23_Rb_tree_const_iteratorIS2_ERS1_
	.type	_ZNSt8_Rb_treeIiSt4pairIKiiESt10_Select1stIS2_ESt4lessIiESaIS2_EE29_M_get_insert_hint_unique_posESt23_Rb_tree_const_iteratorIS2_ERS1_, @function
_ZNSt8_Rb_treeIiSt4pairIKiiESt10_Select1stIS2_ESt4lessIiESaIS2_EE29_M_get_insert_hint_unique_posESt23_Rb_tree_const_iteratorIS2_ERS1_:
.LFB11239:
	.cfi_startproc
	endbr64
	push	rbp
	.cfi_def_cfa_offset 16
	.cfi_offset 6, -16
	mov	rbp, rsp
	.cfi_def_cfa_register 6
	push	rbx
	sub	rsp, 104
	.cfi_offset 3, -24
	mov	QWORD PTR -88[rbp], rdi
	mov	QWORD PTR -96[rbp], rsi
	mov	QWORD PTR -104[rbp], rdx
	mov	rax, QWORD PTR fs:40
	mov	QWORD PTR -24[rbp], rax
	xor	eax, eax
	lea	rax, -96[rbp]
	mov	rdi, rax
	call	_ZNKSt23_Rb_tree_const_iteratorISt4pairIKiiEE13_M_const_castEv
	mov	QWORD PTR -72[rbp], rax
	mov	rbx, QWORD PTR -72[rbp]
	mov	rax, QWORD PTR -88[rbp]
	mov	rdi, rax
	call	_ZNSt8_Rb_treeIiSt4pairIKiiESt10_Select1stIS2_ESt4lessIiESaIS2_EE6_M_endEv
	cmp	rbx, rax
	sete	al
	test	al, al
	je	.L336
	mov	rax, QWORD PTR -88[rbp]
	mov	rdi, rax
	call	_ZNKSt8_Rb_treeIiSt4pairIKiiESt10_Select1stIS2_ESt4lessIiESaIS2_EE4sizeEv
	test	rax, rax
	je	.L337
	mov	rbx, QWORD PTR -88[rbp]
	mov	rax, QWORD PTR -88[rbp]
	mov	rdi, rax
	call	_ZNSt8_Rb_treeIiSt4pairIKiiESt10_Select1stIS2_ESt4lessIiESaIS2_EE12_M_rightmostEv
	mov	rax, QWORD PTR [rax]
	mov	rdi, rax
	call	_ZNSt8_Rb_treeIiSt4pairIKiiESt10_Select1stIS2_ESt4lessIiESaIS2_EE6_S_keyEPKSt18_Rb_tree_node_base
	mov	rcx, rax
	mov	rax, QWORD PTR -104[rbp]
	mov	rdx, rax
	mov	rsi, rcx
	mov	rdi, rbx
	call	_ZNKSt4lessIiEclERKiS2_
	test	al, al
	je	.L337
	mov	eax, 1
	jmp	.L338
.L337:
	mov	eax, 0
.L338:
	test	al, al
	je	.L339
	mov	rax, QWORD PTR -88[rbp]
	mov	rdi, rax
	call	_ZNSt8_Rb_treeIiSt4pairIKiiESt10_Select1stIS2_ESt4lessIiESaIS2_EE12_M_rightmostEv
	mov	rdx, rax
	mov	QWORD PTR -56[rbp], 0
	lea	rcx, -56[rbp]
	lea	rax, -48[rbp]
	mov	rsi, rcx
	mov	rdi, rax
	call	_ZNSt4pairIPSt18_Rb_tree_node_baseS1_EC1IRS1_Lb1EEERKS1_OT_
	mov	rax, QWORD PTR -48[rbp]
	mov	rdx, QWORD PTR -40[rbp]
	jmp	.L351
.L339:
	mov	rdx, QWORD PTR -104[rbp]
	mov	rax, QWORD PTR -88[rbp]
	mov	rsi, rdx
	mov	rdi, rax
	call	_ZNSt8_Rb_treeIiSt4pairIKiiESt10_Select1stIS2_ESt4lessIiESaIS2_EE24_M_get_insert_unique_posERS1_
	jmp	.L351
.L336:
	mov	rbx, QWORD PTR -88[rbp]
	mov	rax, QWORD PTR -72[rbp]
	mov	rdi, rax
	call	_ZNSt8_Rb_treeIiSt4pairIKiiESt10_Select1stIS2_ESt4lessIiESaIS2_EE6_S_keyEPKSt18_Rb_tree_node_base
	mov	rdx, rax
	mov	rax, QWORD PTR -104[rbp]
	mov	rsi, rax
	mov	rdi, rbx
	call	_ZNKSt4lessIiEclERKiS2_
	test	al, al
	je	.L341
	mov	rax, QWORD PTR -72[rbp]
	mov	QWORD PTR -64[rbp], rax
	mov	rbx, QWORD PTR -72[rbp]
	mov	rax, QWORD PTR -88[rbp]
	mov	rdi, rax
	call	_ZNSt8_Rb_treeIiSt4pairIKiiESt10_Select1stIS2_ESt4lessIiESaIS2_EE11_M_leftmostEv
	mov	rax, QWORD PTR [rax]
	cmp	rbx, rax
	sete	al
	test	al, al
	je	.L342
	mov	rax, QWORD PTR -88[rbp]
	mov	rdi, rax
	call	_ZNSt8_Rb_treeIiSt4pairIKiiESt10_Select1stIS2_ESt4lessIiESaIS2_EE11_M_leftmostEv
	mov	rbx, rax
	mov	rax, QWORD PTR -88[rbp]
	mov	rdi, rax
	call	_ZNSt8_Rb_treeIiSt4pairIKiiESt10_Select1stIS2_ESt4lessIiESaIS2_EE11_M_leftmostEv
	mov	rcx, rax
	lea	rax, -48[rbp]
	mov	rdx, rbx
	mov	rsi, rcx
	mov	rdi, rax
	call	_ZNSt4pairIPSt18_Rb_tree_node_baseS1_EC1IRS1_S4_Lb1EEEOT_OT0_
	mov	rax, QWORD PTR -48[rbp]
	mov	rdx, QWORD PTR -40[rbp]
	jmp	.L351
.L342:
	mov	rbx, QWORD PTR -88[rbp]
	lea	rax, -64[rbp]
	mov	rdi, rax
	call	_ZNSt17_Rb_tree_iteratorISt4pairIKiiEEmmEv
	mov	rax, QWORD PTR [rax]
	mov	rdi, rax
	call	_ZNSt8_Rb_treeIiSt4pairIKiiESt10_Select1stIS2_ESt4lessIiESaIS2_EE6_S_keyEPKSt18_Rb_tree_node_base
	mov	rcx, rax
	mov	rax, QWORD PTR -104[rbp]
	mov	rdx, rax
	mov	rsi, rcx
	mov	rdi, rbx
	call	_ZNKSt4lessIiEclERKiS2_
	test	al, al
	je	.L344
	mov	rax, QWORD PTR -64[rbp]
	mov	rdi, rax
	call	_ZNSt8_Rb_treeIiSt4pairIKiiESt10_Select1stIS2_ESt4lessIiESaIS2_EE8_S_rightEPSt18_Rb_tree_node_base
	test	rax, rax
	sete	al
	test	al, al
	je	.L345
	mov	QWORD PTR -56[rbp], 0
	lea	rdx, -64[rbp]
	lea	rcx, -56[rbp]
	lea	rax, -48[rbp]
	mov	rsi, rcx
	mov	rdi, rax
	call	_ZNSt4pairIPSt18_Rb_tree_node_baseS1_EC1IRS1_Lb1EEERKS1_OT_
	mov	rax, QWORD PTR -48[rbp]
	mov	rdx, QWORD PTR -40[rbp]
	jmp	.L351
.L345:
	lea	rdx, -72[rbp]
	lea	rcx, -72[rbp]
	lea	rax, -48[rbp]
	mov	rsi, rcx
	mov	rdi, rax
	call	_ZNSt4pairIPSt18_Rb_tree_node_baseS1_EC1IRS1_S4_Lb1EEEOT_OT0_
	mov	rax, QWORD PTR -48[rbp]
	mov	rdx, QWORD PTR -40[rbp]
	jmp	.L351
.L344:
	mov	rdx, QWORD PTR -104[rbp]
	mov	rax, QWORD PTR -88[rbp]
	mov	rsi, rdx
	mov	rdi, rax
	call	_ZNSt8_Rb_treeIiSt4pairIKiiESt10_Select1stIS2_ESt4lessIiESaIS2_EE24_M_get_insert_unique_posERS1_
	jmp	.L351
.L341:
	mov	rbx, QWORD PTR -88[rbp]
	mov	rax, QWORD PTR -72[rbp]
	mov	rdi, rax
	call	_ZNSt8_Rb_treeIiSt4pairIKiiESt10_Select1stIS2_ESt4lessIiESaIS2_EE6_S_keyEPKSt18_Rb_tree_node_base
	mov	rcx, rax
	mov	rax, QWORD PTR -104[rbp]
	mov	rdx, rax
	mov	rsi, rcx
	mov	rdi, rbx
	call	_ZNKSt4lessIiEclERKiS2_
	test	al, al
	je	.L346
	mov	rax, QWORD PTR -72[rbp]
	mov	QWORD PTR -64[rbp], rax
	mov	rbx, QWORD PTR -72[rbp]
	mov	rax, QWORD PTR -88[rbp]
	mov	rdi, rax
	call	_ZNSt8_Rb_treeIiSt4pairIKiiESt10_Select1stIS2_ESt4lessIiESaIS2_EE12_M_rightmostEv
	mov	rax, QWORD PTR [rax]
	cmp	rbx, rax
	sete	al
	test	al, al
	je	.L347
	mov	rax, QWORD PTR -88[rbp]
	mov	rdi, rax
	call	_ZNSt8_Rb_treeIiSt4pairIKiiESt10_Select1stIS2_ESt4lessIiESaIS2_EE12_M_rightmostEv
	mov	rdx, rax
	mov	QWORD PTR -56[rbp], 0
	lea	rcx, -56[rbp]
	lea	rax, -48[rbp]
	mov	rsi, rcx
	mov	rdi, rax
	call	_ZNSt4pairIPSt18_Rb_tree_node_baseS1_EC1IRS1_Lb1EEERKS1_OT_
	mov	rax, QWORD PTR -48[rbp]
	mov	rdx, QWORD PTR -40[rbp]
	jmp	.L351
.L347:
	mov	rbx, QWORD PTR -88[rbp]
	lea	rax, -64[rbp]
	mov	rdi, rax
	call	_ZNSt17_Rb_tree_iteratorISt4pairIKiiEEppEv
	mov	rax, QWORD PTR [rax]
	mov	rdi, rax
	call	_ZNSt8_Rb_treeIiSt4pairIKiiESt10_Select1stIS2_ESt4lessIiESaIS2_EE6_S_keyEPKSt18_Rb_tree_node_base
	mov	rdx, rax
	mov	rax, QWORD PTR -104[rbp]
	mov	rsi, rax
	mov	rdi, rbx
	call	_ZNKSt4lessIiEclERKiS2_
	test	al, al
	je	.L349
	mov	rax, QWORD PTR -72[rbp]
	mov	rdi, rax
	call	_ZNSt8_Rb_treeIiSt4pairIKiiESt10_Select1stIS2_ESt4lessIiESaIS2_EE8_S_rightEPSt18_Rb_tree_node_base
	test	rax, rax
	sete	al
	test	al, al
	je	.L350
	mov	QWORD PTR -56[rbp], 0
	lea	rdx, -72[rbp]
	lea	rcx, -56[rbp]
	lea	rax, -48[rbp]
	mov	rsi, rcx
	mov	rdi, rax
	call	_ZNSt4pairIPSt18_Rb_tree_node_baseS1_EC1IRS1_Lb1EEERKS1_OT_
	mov	rax, QWORD PTR -48[rbp]
	mov	rdx, QWORD PTR -40[rbp]
	jmp	.L351
.L350:
	lea	rdx, -64[rbp]
	lea	rcx, -64[rbp]
	lea	rax, -48[rbp]
	mov	rsi, rcx
	mov	rdi, rax
	call	_ZNSt4pairIPSt18_Rb_tree_node_baseS1_EC1IRS1_S4_Lb1EEEOT_OT0_
	mov	rax, QWORD PTR -48[rbp]
	mov	rdx, QWORD PTR -40[rbp]
	jmp	.L351
.L349:
	mov	rdx, QWORD PTR -104[rbp]
	mov	rax, QWORD PTR -88[rbp]
	mov	rsi, rdx
	mov	rdi, rax
	call	_ZNSt8_Rb_treeIiSt4pairIKiiESt10_Select1stIS2_ESt4lessIiESaIS2_EE24_M_get_insert_unique_posERS1_
	jmp	.L351
.L346:
	mov	QWORD PTR -56[rbp], 0
	lea	rdx, -56[rbp]
	lea	rcx, -72[rbp]
	lea	rax, -48[rbp]
	mov	rsi, rcx
	mov	rdi, rax
	call	_ZNSt4pairIPSt18_Rb_tree_node_baseS1_EC1IRS1_Lb1EEEOT_RKS1_
	mov	rax, QWORD PTR -48[rbp]
	mov	rdx, QWORD PTR -40[rbp]
.L351:
	mov	rcx, QWORD PTR -24[rbp]
	sub	rcx, QWORD PTR fs:40
	je	.L352
	call	__stack_chk_fail@PLT
.L352:
	mov	rbx, QWORD PTR -8[rbp]
	leave
	.cfi_def_cfa 7, 8
	ret
	.cfi_endproc
.LFE11239:
	.size	_ZNSt8_Rb_treeIiSt4pairIKiiESt10_Select1stIS2_ESt4lessIiESaIS2_EE29_M_get_insert_hint_unique_posESt23_Rb_tree_const_iteratorIS2_ERS1_, .-_ZNSt8_Rb_treeIiSt4pairIKiiESt10_Select1stIS2_ESt4lessIiESaIS2_EE29_M_get_insert_hint_unique_posESt23_Rb_tree_const_iteratorIS2_ERS1_
	.section	.text._ZNSt8_Rb_treeIiSt4pairIKiiESt10_Select1stIS2_ESt4lessIiESaIS2_EE6_S_keyEPKSt13_Rb_tree_nodeIS2_E,"axG",@progbits,_ZNSt8_Rb_treeIiSt4pairIKiiESt10_Select1stIS2_ESt4lessIiESaIS2_EE6_S_keyEPKSt13_Rb_tree_nodeIS2_E,comdat
	.weak	_ZNSt8_Rb_treeIiSt4pairIKiiESt10_Select1stIS2_ESt4lessIiESaIS2_EE6_S_keyEPKSt13_Rb_tree_nodeIS2_E
	.type	_ZNSt8_Rb_treeIiSt4pairIKiiESt10_Select1stIS2_ESt4lessIiESaIS2_EE6_S_keyEPKSt13_Rb_tree_nodeIS2_E, @function
_ZNSt8_Rb_treeIiSt4pairIKiiESt10_Select1stIS2_ESt4lessIiESaIS2_EE6_S_keyEPKSt13_Rb_tree_nodeIS2_E:
.LFB11256:
	.cfi_startproc
	endbr64
	push	rbp
	.cfi_def_cfa_offset 16
	.cfi_offset 6, -16
	mov	rbp, rsp
	.cfi_def_cfa_register 6
	sub	rsp, 32
	mov	QWORD PTR -24[rbp], rdi
	mov	rax, QWORD PTR fs:40
	mov	QWORD PTR -8[rbp], rax
	xor	eax, eax
	mov	rax, QWORD PTR -24[rbp]
	mov	rdi, rax
	call	_ZNKSt13_Rb_tree_nodeISt4pairIKiiEE9_M_valptrEv
	mov	rdx, rax
	lea	rax, -9[rbp]
	mov	rsi, rdx
	mov	rdi, rax
	call	_ZNKSt10_Select1stISt4pairIKiiEEclERKS2_
	mov	rdx, QWORD PTR -8[rbp]
	sub	rdx, QWORD PTR fs:40
	je	.L355
	call	__stack_chk_fail@PLT
.L355:
	leave
	.cfi_def_cfa 7, 8
	ret
	.cfi_endproc
.LFE11256:
	.size	_ZNSt8_Rb_treeIiSt4pairIKiiESt10_Select1stIS2_ESt4lessIiESaIS2_EE6_S_keyEPKSt13_Rb_tree_nodeIS2_E, .-_ZNSt8_Rb_treeIiSt4pairIKiiESt10_Select1stIS2_ESt4lessIiESaIS2_EE6_S_keyEPKSt13_Rb_tree_nodeIS2_E
	.section	.text._ZNSt8_Rb_treeIiSt4pairIKiiESt10_Select1stIS2_ESt4lessIiESaIS2_EE14_M_insert_nodeEPSt18_Rb_tree_node_baseSA_PSt13_Rb_tree_nodeIS2_E,"axG",@progbits,_ZNSt8_Rb_treeIiSt4pairIKiiESt10_Select1stIS2_ESt4lessIiESaIS2_EE14_M_insert_nodeEPSt18_Rb_tree_node_baseSA_PSt13_Rb_tree_nodeIS2_E,comdat
	.align 2
	.weak	_ZNSt8_Rb_treeIiSt4pairIKiiESt10_Select1stIS2_ESt4lessIiESaIS2_EE14_M_insert_nodeEPSt18_Rb_tree_node_baseSA_PSt13_Rb_tree_nodeIS2_E
	.type	_ZNSt8_Rb_treeIiSt4pairIKiiESt10_Select1stIS2_ESt4lessIiESaIS2_EE14_M_insert_nodeEPSt18_Rb_tree_node_baseSA_PSt13_Rb_tree_nodeIS2_E, @function
_ZNSt8_Rb_treeIiSt4pairIKiiESt10_Select1stIS2_ESt4lessIiESaIS2_EE14_M_insert_nodeEPSt18_Rb_tree_node_baseSA_PSt13_Rb_tree_nodeIS2_E:
.LFB11258:
	.cfi_startproc
	endbr64
	push	rbp
	.cfi_def_cfa_offset 16
	.cfi_offset 6, -16
	mov	rbp, rsp
	.cfi_def_cfa_register 6
	push	r12
	push	rbx
	sub	rsp, 64
	.cfi_offset 12, -24
	.cfi_offset 3, -32
	mov	QWORD PTR -56[rbp], rdi
	mov	QWORD PTR -64[rbp], rsi
	mov	QWORD PTR -72[rbp], rdx
	mov	QWORD PTR -80[rbp], rcx
	mov	rax, QWORD PTR fs:40
	mov	QWORD PTR -24[rbp], rax
	xor	eax, eax
	cmp	QWORD PTR -64[rbp], 0
	jne	.L357
	mov	rax, QWORD PTR -56[rbp]
	mov	rdi, rax
	call	_ZNSt8_Rb_treeIiSt4pairIKiiESt10_Select1stIS2_ESt4lessIiESaIS2_EE6_M_endEv
	cmp	QWORD PTR -72[rbp], rax
	je	.L357
	mov	rbx, QWORD PTR -56[rbp]
	mov	rax, QWORD PTR -72[rbp]
	mov	rdi, rax
	call	_ZNSt8_Rb_treeIiSt4pairIKiiESt10_Select1stIS2_ESt4lessIiESaIS2_EE6_S_keyEPKSt18_Rb_tree_node_base
	mov	r12, rax
	mov	rax, QWORD PTR -80[rbp]
	mov	rdi, rax
	call	_ZNSt8_Rb_treeIiSt4pairIKiiESt10_Select1stIS2_ESt4lessIiESaIS2_EE6_S_keyEPKSt13_Rb_tree_nodeIS2_E
	mov	rdx, r12
	mov	rsi, rax
	mov	rdi, rbx
	call	_ZNKSt4lessIiEclERKiS2_
	test	al, al
	je	.L358
.L357:
	mov	eax, 1
	jmp	.L359
.L358:
	mov	eax, 0
.L359:
	mov	BYTE PTR -33[rbp], al
	mov	rax, QWORD PTR -56[rbp]
	lea	rcx, 8[rax]
	movzx	eax, BYTE PTR -33[rbp]
	mov	rdx, QWORD PTR -72[rbp]
	mov	rsi, QWORD PTR -80[rbp]
	mov	edi, eax
	call	_ZSt29_Rb_tree_insert_and_rebalancebPSt18_Rb_tree_node_baseS0_RS_@PLT
	mov	rax, QWORD PTR -56[rbp]
	mov	rax, QWORD PTR 40[rax]
	lea	rdx, 1[rax]
	mov	rax, QWORD PTR -56[rbp]
	mov	QWORD PTR 40[rax], rdx
	mov	rdx, QWORD PTR -80[rbp]
	lea	rax, -32[rbp]
	mov	rsi, rdx
	mov	rdi, rax
	call	_ZNSt17_Rb_tree_iteratorISt4pairIKiiEEC1EPSt18_Rb_tree_node_base
	mov	rax, QWORD PTR -32[rbp]
	mov	rdx, QWORD PTR -24[rbp]
	sub	rdx, QWORD PTR fs:40
	je	.L361
	call	__stack_chk_fail@PLT
.L361:
	add	rsp, 64
	pop	rbx
	pop	r12
	pop	rbp
	.cfi_def_cfa 7, 8
	ret
	.cfi_endproc
.LFE11258:
	.size	_ZNSt8_Rb_treeIiSt4pairIKiiESt10_Select1stIS2_ESt4lessIiESaIS2_EE14_M_insert_nodeEPSt18_Rb_tree_node_baseSA_PSt13_Rb_tree_nodeIS2_E, .-_ZNSt8_Rb_treeIiSt4pairIKiiESt10_Select1stIS2_ESt4lessIiESaIS2_EE14_M_insert_nodeEPSt18_Rb_tree_node_baseSA_PSt13_Rb_tree_nodeIS2_E
	.section	.text._ZNSt17_Rb_tree_iteratorISt4pairIKiiEEC2EPSt18_Rb_tree_node_base,"axG",@progbits,_ZNSt17_Rb_tree_iteratorISt4pairIKiiEEC5EPSt18_Rb_tree_node_base,comdat
	.align 2
	.weak	_ZNSt17_Rb_tree_iteratorISt4pairIKiiEEC2EPSt18_Rb_tree_node_base
	.type	_ZNSt17_Rb_tree_iteratorISt4pairIKiiEEC2EPSt18_Rb_tree_node_base, @function
_ZNSt17_Rb_tree_iteratorISt4pairIKiiEEC2EPSt18_Rb_tree_node_base:
.LFB11260:
	.cfi_startproc
	endbr64
	push	rbp
	.cfi_def_cfa_offset 16
	.cfi_offset 6, -16
	mov	rbp, rsp
	.cfi_def_cfa_register 6
	mov	QWORD PTR -8[rbp], rdi
	mov	QWORD PTR -16[rbp], rsi
	mov	rax, QWORD PTR -8[rbp]
	mov	rdx, QWORD PTR -16[rbp]
	mov	QWORD PTR [rax], rdx
	nop
	pop	rbp
	.cfi_def_cfa 7, 8
	ret
	.cfi_endproc
.LFE11260:
	.size	_ZNSt17_Rb_tree_iteratorISt4pairIKiiEEC2EPSt18_Rb_tree_node_base, .-_ZNSt17_Rb_tree_iteratorISt4pairIKiiEEC2EPSt18_Rb_tree_node_base
	.weak	_ZNSt17_Rb_tree_iteratorISt4pairIKiiEEC1EPSt18_Rb_tree_node_base
	.set	_ZNSt17_Rb_tree_iteratorISt4pairIKiiEEC1EPSt18_Rb_tree_node_base,_ZNSt17_Rb_tree_iteratorISt4pairIKiiEEC2EPSt18_Rb_tree_node_base
	.section	.text._ZSt7forwardISt4pairIiiEEOT_RNSt16remove_referenceIS2_E4typeE,"axG",@progbits,_ZSt7forwardISt4pairIiiEEOT_RNSt16remove_referenceIS2_E4typeE,comdat
	.weak	_ZSt7forwardISt4pairIiiEEOT_RNSt16remove_referenceIS2_E4typeE
	.type	_ZSt7forwardISt4pairIiiEEOT_RNSt16remove_referenceIS2_E4typeE, @function
_ZSt7forwardISt4pairIiiEEOT_RNSt16remove_referenceIS2_E4typeE:
.LFB11262:
	.cfi_startproc
	endbr64
	push	rbp
	.cfi_def_cfa_offset 16
	.cfi_offset 6, -16
	mov	rbp, rsp
	.cfi_def_cfa_register 6
	mov	QWORD PTR -8[rbp], rdi
	mov	rax, QWORD PTR -8[rbp]
	pop	rbp
	.cfi_def_cfa 7, 8
	ret
	.cfi_endproc
.LFE11262:
	.size	_ZSt7forwardISt4pairIiiEEOT_RNSt16remove_referenceIS2_E4typeE, .-_ZSt7forwardISt4pairIiiEEOT_RNSt16remove_referenceIS2_E4typeE
	.section	.text._ZNSt16allocator_traitsISaISt4pairIiiEEE9constructIS1_JS1_EEEvRS2_PT_DpOT0_,"axG",@progbits,_ZNSt16allocator_traitsISaISt4pairIiiEEE9constructIS1_JS1_EEEvRS2_PT_DpOT0_,comdat
	.weak	_ZNSt16allocator_traitsISaISt4pairIiiEEE9constructIS1_JS1_EEEvRS2_PT_DpOT0_
	.type	_ZNSt16allocator_traitsISaISt4pairIiiEEE9constructIS1_JS1_EEEvRS2_PT_DpOT0_, @function
_ZNSt16allocator_traitsISaISt4pairIiiEEE9constructIS1_JS1_EEEvRS2_PT_DpOT0_:
.LFB11263:
	.cfi_startproc
	endbr64
	push	rbp
	.cfi_def_cfa_offset 16
	.cfi_offset 6, -16
	mov	rbp, rsp
	.cfi_def_cfa_register 6
	sub	rsp, 32
	mov	QWORD PTR -8[rbp], rdi
	mov	QWORD PTR -16[rbp], rsi
	mov	QWORD PTR -24[rbp], rdx
	mov	rax, QWORD PTR -24[rbp]
	mov	rdi, rax
	call	_ZSt7forwardISt4pairIiiEEOT_RNSt16remove_referenceIS2_E4typeE
	mov	rdx, rax
	mov	rcx, QWORD PTR -16[rbp]
	mov	rax, QWORD PTR -8[rbp]
	mov	rsi, rcx
	mov	rdi, rax
	call	_ZN9__gnu_cxx13new_allocatorISt4pairIiiEE9constructIS2_JS2_EEEvPT_DpOT0_
	nop
	leave
	.cfi_def_cfa 7, 8
	ret
	.cfi_endproc
.LFE11263:
	.size	_ZNSt16allocator_traitsISaISt4pairIiiEEE9constructIS1_JS1_EEEvRS2_PT_DpOT0_, .-_ZNSt16allocator_traitsISaISt4pairIiiEEE9constructIS1_JS1_EEEvRS2_PT_DpOT0_
	.section	.text._ZNSt6vectorISt4pairIiiESaIS1_EE3endEv,"axG",@progbits,_ZNSt6vectorISt4pairIiiESaIS1_EE3endEv,comdat
	.align 2
	.weak	_ZNSt6vectorISt4pairIiiESaIS1_EE3endEv
	.type	_ZNSt6vectorISt4pairIiiESaIS1_EE3endEv, @function
_ZNSt6vectorISt4pairIiiESaIS1_EE3endEv:
.LFB11264:
	.cfi_startproc
	endbr64
	push	rbp
	.cfi_def_cfa_offset 16
	.cfi_offset 6, -16
	mov	rbp, rsp
	.cfi_def_cfa_register 6
	sub	rsp, 32
	mov	QWORD PTR -24[rbp], rdi
	mov	rax, QWORD PTR fs:40
	mov	QWORD PTR -8[rbp], rax
	xor	eax, eax
	mov	rax, QWORD PTR -24[rbp]
	lea	rdx, 8[rax]
	lea	rax, -16[rbp]
	mov	rsi, rdx
	mov	rdi, rax
	call	_ZN9__gnu_cxx17__normal_iteratorIPSt4pairIiiESt6vectorIS2_SaIS2_EEEC1ERKS3_
	mov	rax, QWORD PTR -16[rbp]
	mov	rdx, QWORD PTR -8[rbp]
	sub	rdx, QWORD PTR fs:40
	je	.L368
	call	__stack_chk_fail@PLT
.L368:
	leave
	.cfi_def_cfa 7, 8
	ret
	.cfi_endproc
.LFE11264:
	.size	_ZNSt6vectorISt4pairIiiESaIS1_EE3endEv, .-_ZNSt6vectorISt4pairIiiESaIS1_EE3endEv
	.section	.text._ZNSt6vectorISt4pairIiiESaIS1_EE17_M_realloc_insertIJS1_EEEvN9__gnu_cxx17__normal_iteratorIPS1_S3_EEDpOT_,"axG",@progbits,_ZNSt6vectorISt4pairIiiESaIS1_EE17_M_realloc_insertIJS1_EEEvN9__gnu_cxx17__normal_iteratorIPS1_S3_EEDpOT_,comdat
	.align 2
	.weak	_ZNSt6vectorISt4pairIiiESaIS1_EE17_M_realloc_insertIJS1_EEEvN9__gnu_cxx17__normal_iteratorIPS1_S3_EEDpOT_
	.type	_ZNSt6vectorISt4pairIiiESaIS1_EE17_M_realloc_insertIJS1_EEEvN9__gnu_cxx17__normal_iteratorIPS1_S3_EEDpOT_, @function
_ZNSt6vectorISt4pairIiiESaIS1_EE17_M_realloc_insertIJS1_EEEvN9__gnu_cxx17__normal_iteratorIPS1_S3_EEDpOT_:
.LFB11265:
	.cfi_startproc
	endbr64
	push	rbp
	.cfi_def_cfa_offset 16
	.cfi_offset 6, -16
	mov	rbp, rsp
	.cfi_def_cfa_register 6
	push	rbx
	sub	rsp, 104
	.cfi_offset 3, -24
	mov	QWORD PTR -88[rbp], rdi
	mov	QWORD PTR -96[rbp], rsi
	mov	QWORD PTR -104[rbp], rdx
	mov	rax, QWORD PTR fs:40
	mov	QWORD PTR -24[rbp], rax
	xor	eax, eax
	mov	rax, QWORD PTR -88[rbp]
	lea	rdx, .LC5[rip]
	mov	esi, 1
	mov	rdi, rax
	call	_ZNKSt6vectorISt4pairIiiESaIS1_EE12_M_check_lenEmPKc
	mov	QWORD PTR -72[rbp], rax
	mov	rax, QWORD PTR -88[rbp]
	mov	rax, QWORD PTR [rax]
	mov	QWORD PTR -64[rbp], rax
	mov	rax, QWORD PTR -88[rbp]
	mov	rax, QWORD PTR 8[rax]
	mov	QWORD PTR -56[rbp], rax
	mov	rax, QWORD PTR -88[rbp]
	mov	rdi, rax
	call	_ZNSt6vectorISt4pairIiiESaIS1_EE5beginEv
	mov	QWORD PTR -80[rbp], rax
	lea	rdx, -80[rbp]
	lea	rax, -96[rbp]
	mov	rsi, rdx
	mov	rdi, rax
	call	_ZN9__gnu_cxxmiIPSt4pairIiiESt6vectorIS2_SaIS2_EEEENS_17__normal_iteratorIT_T0_E15difference_typeERKSA_SD_
	mov	QWORD PTR -48[rbp], rax
	mov	rax, QWORD PTR -88[rbp]
	mov	rdx, QWORD PTR -72[rbp]
	mov	rsi, rdx
	mov	rdi, rax
	call	_ZNSt12_Vector_baseISt4pairIiiESaIS1_EE11_M_allocateEm
	mov	QWORD PTR -40[rbp], rax
	mov	rax, QWORD PTR -40[rbp]
	mov	QWORD PTR -32[rbp], rax
	mov	rax, QWORD PTR -104[rbp]
	mov	rdi, rax
	call	_ZSt7forwardISt4pairIiiEEOT_RNSt16remove_referenceIS2_E4typeE
	mov	rdx, rax
	mov	rax, QWORD PTR -48[rbp]
	lea	rcx, 0[0+rax*8]
	mov	rax, QWORD PTR -40[rbp]
	add	rcx, rax
	mov	rax, QWORD PTR -88[rbp]
	mov	rsi, rcx
	mov	rdi, rax
	call	_ZNSt16allocator_traitsISaISt4pairIiiEEE9constructIS1_JS1_EEEvRS2_PT_DpOT0_
	mov	QWORD PTR -32[rbp], 0
	mov	rax, QWORD PTR -88[rbp]
	mov	rdi, rax
	call	_ZNSt12_Vector_baseISt4pairIiiESaIS1_EE19_M_get_Tp_allocatorEv
	mov	rbx, rax
	lea	rax, -96[rbp]
	mov	rdi, rax
	call	_ZNK9__gnu_cxx17__normal_iteratorIPSt4pairIiiESt6vectorIS2_SaIS2_EEE4baseEv
	mov	rsi, QWORD PTR [rax]
	mov	rdx, QWORD PTR -40[rbp]
	mov	rax, QWORD PTR -64[rbp]
	mov	rcx, rbx
	mov	rdi, rax
	call	_ZNSt6vectorISt4pairIiiESaIS1_EE11_S_relocateEPS1_S4_S4_RS2_
	mov	QWORD PTR -32[rbp], rax
	add	QWORD PTR -32[rbp], 8
	mov	rax, QWORD PTR -88[rbp]
	mov	rdi, rax
	call	_ZNSt12_Vector_baseISt4pairIiiESaIS1_EE19_M_get_Tp_allocatorEv
	mov	rbx, rax
	lea	rax, -96[rbp]
	mov	rdi, rax
	call	_ZNK9__gnu_cxx17__normal_iteratorIPSt4pairIiiESt6vectorIS2_SaIS2_EEE4baseEv
	mov	rax, QWORD PTR [rax]
	mov	rdx, QWORD PTR -32[rbp]
	mov	rsi, QWORD PTR -56[rbp]
	mov	rcx, rbx
	mov	rdi, rax
	call	_ZNSt6vectorISt4pairIiiESaIS1_EE11_S_relocateEPS1_S4_S4_RS2_
	mov	QWORD PTR -32[rbp], rax
	mov	rax, QWORD PTR -88[rbp]
	mov	rdx, QWORD PTR -88[rbp]
	mov	rdx, QWORD PTR 16[rdx]
	sub	rdx, QWORD PTR -64[rbp]
	sar	rdx, 3
	mov	rcx, QWORD PTR -64[rbp]
	mov	rsi, rcx
	mov	rdi, rax
	call	_ZNSt12_Vector_baseISt4pairIiiESaIS1_EE13_M_deallocateEPS1_m
	mov	rax, QWORD PTR -88[rbp]
	mov	rdx, QWORD PTR -40[rbp]
	mov	QWORD PTR [rax], rdx
	mov	rax, QWORD PTR -88[rbp]
	mov	rdx, QWORD PTR -32[rbp]
	mov	QWORD PTR 8[rax], rdx
	mov	rax, QWORD PTR -72[rbp]
	lea	rdx, 0[0+rax*8]
	mov	rax, QWORD PTR -40[rbp]
	add	rdx, rax
	mov	rax, QWORD PTR -88[rbp]
	mov	QWORD PTR 16[rax], rdx
	nop
	mov	rax, QWORD PTR -24[rbp]
	sub	rax, QWORD PTR fs:40
	je	.L370
	call	__stack_chk_fail@PLT
.L370:
	mov	rbx, QWORD PTR -8[rbp]
	leave
	.cfi_def_cfa 7, 8
	ret
	.cfi_endproc
.LFE11265:
	.size	_ZNSt6vectorISt4pairIiiESaIS1_EE17_M_realloc_insertIJS1_EEEvN9__gnu_cxx17__normal_iteratorIPS1_S3_EEDpOT_, .-_ZNSt6vectorISt4pairIiiESaIS1_EE17_M_realloc_insertIJS1_EEEvN9__gnu_cxx17__normal_iteratorIPS1_S3_EEDpOT_
	.section	.text._ZNSt6vectorISt4pairIiiESaIS1_EE4backEv,"axG",@progbits,_ZNSt6vectorISt4pairIiiESaIS1_EE4backEv,comdat
	.align 2
	.weak	_ZNSt6vectorISt4pairIiiESaIS1_EE4backEv
	.type	_ZNSt6vectorISt4pairIiiESaIS1_EE4backEv, @function
_ZNSt6vectorISt4pairIiiESaIS1_EE4backEv:
.LFB11269:
	.cfi_startproc
	endbr64
	push	rbp
	.cfi_def_cfa_offset 16
	.cfi_offset 6, -16
	mov	rbp, rsp
	.cfi_def_cfa_register 6
	sub	rsp, 48
	mov	QWORD PTR -40[rbp], rdi
	mov	rax, QWORD PTR fs:40
	mov	QWORD PTR -8[rbp], rax
	xor	eax, eax
	mov	rax, QWORD PTR -40[rbp]
	mov	rdi, rax
	call	_ZNSt6vectorISt4pairIiiESaIS1_EE3endEv
	mov	QWORD PTR -24[rbp], rax
	lea	rax, -24[rbp]
	mov	esi, 1
	mov	rdi, rax
	call	_ZNK9__gnu_cxx17__normal_iteratorIPSt4pairIiiESt6vectorIS2_SaIS2_EEEmiEl
	mov	QWORD PTR -16[rbp], rax
	lea	rax, -16[rbp]
	mov	rdi, rax
	call	_ZNK9__gnu_cxx17__normal_iteratorIPSt4pairIiiESt6vectorIS2_SaIS2_EEEdeEv
	mov	rdx, QWORD PTR -8[rbp]
	sub	rdx, QWORD PTR fs:40
	je	.L373
	call	__stack_chk_fail@PLT
.L373:
	leave
	.cfi_def_cfa 7, 8
	ret
	.cfi_endproc
.LFE11269:
	.size	_ZNSt6vectorISt4pairIiiESaIS1_EE4backEv, .-_ZNSt6vectorISt4pairIiiESaIS1_EE4backEv
	.section	.text._ZN9__gnu_cxx13new_allocatorIxE10deallocateEPxm,"axG",@progbits,_ZN9__gnu_cxx13new_allocatorIxE10deallocateEPxm,comdat
	.align 2
	.weak	_ZN9__gnu_cxx13new_allocatorIxE10deallocateEPxm
	.type	_ZN9__gnu_cxx13new_allocatorIxE10deallocateEPxm, @function
_ZN9__gnu_cxx13new_allocatorIxE10deallocateEPxm:
.LFB11407:
	.cfi_startproc
	endbr64
	push	rbp
	.cfi_def_cfa_offset 16
	.cfi_offset 6, -16
	mov	rbp, rsp
	.cfi_def_cfa_register 6
	sub	rsp, 32
	mov	QWORD PTR -8[rbp], rdi
	mov	QWORD PTR -16[rbp], rsi
	mov	QWORD PTR -24[rbp], rdx
	mov	rax, QWORD PTR -24[rbp]
	lea	rdx, 0[0+rax*8]
	mov	rax, QWORD PTR -16[rbp]
	mov	rsi, rdx
	mov	rdi, rax
	call	_ZdlPvm@PLT
	leave
	.cfi_def_cfa 7, 8
	ret
	.cfi_endproc
.LFE11407:
	.size	_ZN9__gnu_cxx13new_allocatorIxE10deallocateEPxm, .-_ZN9__gnu_cxx13new_allocatorIxE10deallocateEPxm
	.section	.text._ZN9__gnu_cxx13new_allocatorIxE9constructIxJxEEEvPT_DpOT0_,"axG",@progbits,_ZN9__gnu_cxx13new_allocatorIxE9constructIxJxEEEvPT_DpOT0_,comdat
	.align 2
	.weak	_ZN9__gnu_cxx13new_allocatorIxE9constructIxJxEEEvPT_DpOT0_
	.type	_ZN9__gnu_cxx13new_allocatorIxE9constructIxJxEEEvPT_DpOT0_, @function
_ZN9__gnu_cxx13new_allocatorIxE9constructIxJxEEEvPT_DpOT0_:
.LFB11408:
	.cfi_startproc
	endbr64
	push	rbp
	.cfi_def_cfa_offset 16
	.cfi_offset 6, -16
	mov	rbp, rsp
	.cfi_def_cfa_register 6
	push	rbx
	sub	rsp, 40
	.cfi_offset 3, -24
	mov	QWORD PTR -24[rbp], rdi
	mov	QWORD PTR -32[rbp], rsi
	mov	QWORD PTR -40[rbp], rdx
	mov	rax, QWORD PTR -40[rbp]
	mov	rdi, rax
	call	_ZSt7forwardIxEOT_RNSt16remove_referenceIS0_E4typeE
	mov	rbx, QWORD PTR [rax]
	mov	rax, QWORD PTR -32[rbp]
	mov	rsi, rax
	mov	edi, 8
	call	_ZnwmPv
	mov	QWORD PTR [rax], rbx
	nop
	mov	rbx, QWORD PTR -8[rbp]
	leave
	.cfi_def_cfa 7, 8
	ret
	.cfi_endproc
.LFE11408:
	.size	_ZN9__gnu_cxx13new_allocatorIxE9constructIxJxEEEvPT_DpOT0_, .-_ZN9__gnu_cxx13new_allocatorIxE9constructIxJxEEEvPT_DpOT0_
	.section	.text._ZN9__gnu_cxx17__normal_iteratorIPxSt6vectorIxSaIxEEEC2ERKS1_,"axG",@progbits,_ZN9__gnu_cxx17__normal_iteratorIPxSt6vectorIxSaIxEEEC5ERKS1_,comdat
	.align 2
	.weak	_ZN9__gnu_cxx17__normal_iteratorIPxSt6vectorIxSaIxEEEC2ERKS1_
	.type	_ZN9__gnu_cxx17__normal_iteratorIPxSt6vectorIxSaIxEEEC2ERKS1_, @function
_ZN9__gnu_cxx17__normal_iteratorIPxSt6vectorIxSaIxEEEC2ERKS1_:
.LFB11410:
	.cfi_startproc
	endbr64
	push	rbp
	.cfi_def_cfa_offset 16
	.cfi_offset 6, -16
	mov	rbp, rsp
	.cfi_def_cfa_register 6
	mov	QWORD PTR -8[rbp], rdi
	mov	QWORD PTR -16[rbp], rsi
	mov	rax, QWORD PTR -16[rbp]
	mov	rdx, QWORD PTR [rax]
	mov	rax, QWORD PTR -8[rbp]
	mov	QWORD PTR [rax], rdx
	nop
	pop	rbp
	.cfi_def_cfa 7, 8
	ret
	.cfi_endproc
.LFE11410:
	.size	_ZN9__gnu_cxx17__normal_iteratorIPxSt6vectorIxSaIxEEEC2ERKS1_, .-_ZN9__gnu_cxx17__normal_iteratorIPxSt6vectorIxSaIxEEEC2ERKS1_
	.weak	_ZN9__gnu_cxx17__normal_iteratorIPxSt6vectorIxSaIxEEEC1ERKS1_
	.set	_ZN9__gnu_cxx17__normal_iteratorIPxSt6vectorIxSaIxEEEC1ERKS1_,_ZN9__gnu_cxx17__normal_iteratorIPxSt6vectorIxSaIxEEEC2ERKS1_
	.section	.text._ZNKSt6vectorIxSaIxEE12_M_check_lenEmPKc,"axG",@progbits,_ZNKSt6vectorIxSaIxEE12_M_check_lenEmPKc,comdat
	.align 2
	.weak	_ZNKSt6vectorIxSaIxEE12_M_check_lenEmPKc
	.type	_ZNKSt6vectorIxSaIxEE12_M_check_lenEmPKc, @function
_ZNKSt6vectorIxSaIxEE12_M_check_lenEmPKc:
.LFB11412:
	.cfi_startproc
	endbr64
	push	rbp
	.cfi_def_cfa_offset 16
	.cfi_offset 6, -16
	mov	rbp, rsp
	.cfi_def_cfa_register 6
	push	rbx
	sub	rsp, 72
	.cfi_offset 3, -24
	mov	QWORD PTR -56[rbp], rdi
	mov	QWORD PTR -64[rbp], rsi
	mov	QWORD PTR -72[rbp], rdx
	mov	rax, QWORD PTR fs:40
	mov	QWORD PTR -24[rbp], rax
	xor	eax, eax
	mov	rax, QWORD PTR -56[rbp]
	mov	rdi, rax
	call	_ZNKSt6vectorIxSaIxEE8max_sizeEv
	mov	rbx, rax
	mov	rax, QWORD PTR -56[rbp]
	mov	rdi, rax
	call	_ZNKSt6vectorIxSaIxEE4sizeEv
	sub	rbx, rax
	mov	rdx, rbx
	mov	rax, QWORD PTR -64[rbp]
	cmp	rdx, rax
	setb	al
	test	al, al
	je	.L379
	mov	rax, QWORD PTR -72[rbp]
	mov	rdi, rax
	call	_ZSt20__throw_length_errorPKc@PLT
.L379:
	mov	rax, QWORD PTR -56[rbp]
	mov	rdi, rax
	call	_ZNKSt6vectorIxSaIxEE4sizeEv
	mov	rbx, rax
	mov	rax, QWORD PTR -56[rbp]
	mov	rdi, rax
	call	_ZNKSt6vectorIxSaIxEE4sizeEv
	mov	QWORD PTR -40[rbp], rax
	lea	rdx, -64[rbp]
	lea	rax, -40[rbp]
	mov	rsi, rdx
	mov	rdi, rax
	call	_ZSt3maxImERKT_S2_S2_
	mov	rax, QWORD PTR [rax]
	add	rax, rbx
	mov	QWORD PTR -32[rbp], rax
	mov	rax, QWORD PTR -56[rbp]
	mov	rdi, rax
	call	_ZNKSt6vectorIxSaIxEE4sizeEv
	cmp	QWORD PTR -32[rbp], rax
	jb	.L380
	mov	rax, QWORD PTR -56[rbp]
	mov	rdi, rax
	call	_ZNKSt6vectorIxSaIxEE8max_sizeEv
	cmp	QWORD PTR -32[rbp], rax
	jbe	.L381
.L380:
	mov	rax, QWORD PTR -56[rbp]
	mov	rdi, rax
	call	_ZNKSt6vectorIxSaIxEE8max_sizeEv
	jmp	.L382
.L381:
	mov	rax, QWORD PTR -32[rbp]
.L382:
	mov	rdx, QWORD PTR -24[rbp]
	sub	rdx, QWORD PTR fs:40
	je	.L384
	call	__stack_chk_fail@PLT
.L384:
	mov	rbx, QWORD PTR -8[rbp]
	leave
	.cfi_def_cfa 7, 8
	ret
	.cfi_endproc
.LFE11412:
	.size	_ZNKSt6vectorIxSaIxEE12_M_check_lenEmPKc, .-_ZNKSt6vectorIxSaIxEE12_M_check_lenEmPKc
	.section	.text._ZNSt6vectorIxSaIxEE5beginEv,"axG",@progbits,_ZNSt6vectorIxSaIxEE5beginEv,comdat
	.align 2
	.weak	_ZNSt6vectorIxSaIxEE5beginEv
	.type	_ZNSt6vectorIxSaIxEE5beginEv, @function
_ZNSt6vectorIxSaIxEE5beginEv:
.LFB11413:
	.cfi_startproc
	endbr64
	push	rbp
	.cfi_def_cfa_offset 16
	.cfi_offset 6, -16
	mov	rbp, rsp
	.cfi_def_cfa_register 6
	sub	rsp, 32
	mov	QWORD PTR -24[rbp], rdi
	mov	rax, QWORD PTR fs:40
	mov	QWORD PTR -8[rbp], rax
	xor	eax, eax
	mov	rdx, QWORD PTR -24[rbp]
	lea	rax, -16[rbp]
	mov	rsi, rdx
	mov	rdi, rax
	call	_ZN9__gnu_cxx17__normal_iteratorIPxSt6vectorIxSaIxEEEC1ERKS1_
	mov	rax, QWORD PTR -16[rbp]
	mov	rdx, QWORD PTR -8[rbp]
	sub	rdx, QWORD PTR fs:40
	je	.L387
	call	__stack_chk_fail@PLT
.L387:
	leave
	.cfi_def_cfa 7, 8
	ret
	.cfi_endproc
.LFE11413:
	.size	_ZNSt6vectorIxSaIxEE5beginEv, .-_ZNSt6vectorIxSaIxEE5beginEv
	.section	.text._ZN9__gnu_cxxmiIPxSt6vectorIxSaIxEEEENS_17__normal_iteratorIT_T0_E15difference_typeERKS8_SB_,"axG",@progbits,_ZN9__gnu_cxxmiIPxSt6vectorIxSaIxEEEENS_17__normal_iteratorIT_T0_E15difference_typeERKS8_SB_,comdat
	.weak	_ZN9__gnu_cxxmiIPxSt6vectorIxSaIxEEEENS_17__normal_iteratorIT_T0_E15difference_typeERKS8_SB_
	.type	_ZN9__gnu_cxxmiIPxSt6vectorIxSaIxEEEENS_17__normal_iteratorIT_T0_E15difference_typeERKS8_SB_, @function
_ZN9__gnu_cxxmiIPxSt6vectorIxSaIxEEEENS_17__normal_iteratorIT_T0_E15difference_typeERKS8_SB_:
.LFB11414:
	.cfi_startproc
	endbr64
	push	rbp
	.cfi_def_cfa_offset 16
	.cfi_offset 6, -16
	mov	rbp, rsp
	.cfi_def_cfa_register 6
	push	rbx
	sub	rsp, 24
	.cfi_offset 3, -24
	mov	QWORD PTR -24[rbp], rdi
	mov	QWORD PTR -32[rbp], rsi
	mov	rax, QWORD PTR -24[rbp]
	mov	rdi, rax
	call	_ZNK9__gnu_cxx17__normal_iteratorIPxSt6vectorIxSaIxEEE4baseEv
	mov	rbx, QWORD PTR [rax]
	mov	rax, QWORD PTR -32[rbp]
	mov	rdi, rax
	call	_ZNK9__gnu_cxx17__normal_iteratorIPxSt6vectorIxSaIxEEE4baseEv
	mov	rdx, QWORD PTR [rax]
	mov	rax, rbx
	sub	rax, rdx
	sar	rax, 3
	mov	rbx, QWORD PTR -8[rbp]
	leave
	.cfi_def_cfa 7, 8
	ret
	.cfi_endproc
.LFE11414:
	.size	_ZN9__gnu_cxxmiIPxSt6vectorIxSaIxEEEENS_17__normal_iteratorIT_T0_E15difference_typeERKS8_SB_, .-_ZN9__gnu_cxxmiIPxSt6vectorIxSaIxEEEENS_17__normal_iteratorIT_T0_E15difference_typeERKS8_SB_
	.section	.text._ZNSt12_Vector_baseIxSaIxEE11_M_allocateEm,"axG",@progbits,_ZNSt12_Vector_baseIxSaIxEE11_M_allocateEm,comdat
	.align 2
	.weak	_ZNSt12_Vector_baseIxSaIxEE11_M_allocateEm
	.type	_ZNSt12_Vector_baseIxSaIxEE11_M_allocateEm, @function
_ZNSt12_Vector_baseIxSaIxEE11_M_allocateEm:
.LFB11415:
	.cfi_startproc
	endbr64
	push	rbp
	.cfi_def_cfa_offset 16
	.cfi_offset 6, -16
	mov	rbp, rsp
	.cfi_def_cfa_register 6
	sub	rsp, 16
	mov	QWORD PTR -8[rbp], rdi
	mov	QWORD PTR -16[rbp], rsi
	cmp	QWORD PTR -16[rbp], 0
	je	.L391
	mov	rax, QWORD PTR -8[rbp]
	mov	rdx, QWORD PTR -16[rbp]
	mov	rsi, rdx
	mov	rdi, rax
	call	_ZNSt16allocator_traitsISaIxEE8allocateERS0_m
	jmp	.L393
.L391:
	mov	eax, 0
.L393:
	leave
	.cfi_def_cfa 7, 8
	ret
	.cfi_endproc
.LFE11415:
	.size	_ZNSt12_Vector_baseIxSaIxEE11_M_allocateEm, .-_ZNSt12_Vector_baseIxSaIxEE11_M_allocateEm
	.section	.text._ZNSt6vectorIxSaIxEE11_S_relocateEPxS2_S2_RS0_,"axG",@progbits,_ZNSt6vectorIxSaIxEE11_S_relocateEPxS2_S2_RS0_,comdat
	.weak	_ZNSt6vectorIxSaIxEE11_S_relocateEPxS2_S2_RS0_
	.type	_ZNSt6vectorIxSaIxEE11_S_relocateEPxS2_S2_RS0_, @function
_ZNSt6vectorIxSaIxEE11_S_relocateEPxS2_S2_RS0_:
.LFB11416:
	.cfi_startproc
	endbr64
	push	rbp
	.cfi_def_cfa_offset 16
	.cfi_offset 6, -16
	mov	rbp, rsp
	.cfi_def_cfa_register 6
	sub	rsp, 32
	mov	QWORD PTR -8[rbp], rdi
	mov	QWORD PTR -16[rbp], rsi
	mov	QWORD PTR -24[rbp], rdx
	mov	QWORD PTR -32[rbp], rcx
	mov	rcx, QWORD PTR -32[rbp]
	mov	rdx, QWORD PTR -24[rbp]
	mov	rsi, QWORD PTR -16[rbp]
	mov	rax, QWORD PTR -8[rbp]
	mov	rdi, rax
	call	_ZNSt6vectorIxSaIxEE14_S_do_relocateEPxS2_S2_RS0_St17integral_constantIbLb1EE
	leave
	.cfi_def_cfa 7, 8
	ret
	.cfi_endproc
.LFE11416:
	.size	_ZNSt6vectorIxSaIxEE11_S_relocateEPxS2_S2_RS0_, .-_ZNSt6vectorIxSaIxEE11_S_relocateEPxS2_S2_RS0_
	.section	.text._ZNK9__gnu_cxx17__normal_iteratorIPxSt6vectorIxSaIxEEE4baseEv,"axG",@progbits,_ZNK9__gnu_cxx17__normal_iteratorIPxSt6vectorIxSaIxEEE4baseEv,comdat
	.align 2
	.weak	_ZNK9__gnu_cxx17__normal_iteratorIPxSt6vectorIxSaIxEEE4baseEv
	.type	_ZNK9__gnu_cxx17__normal_iteratorIPxSt6vectorIxSaIxEEE4baseEv, @function
_ZNK9__gnu_cxx17__normal_iteratorIPxSt6vectorIxSaIxEEE4baseEv:
.LFB11417:
	.cfi_startproc
	endbr64
	push	rbp
	.cfi_def_cfa_offset 16
	.cfi_offset 6, -16
	mov	rbp, rsp
	.cfi_def_cfa_register 6
	mov	QWORD PTR -8[rbp], rdi
	mov	rax, QWORD PTR -8[rbp]
	pop	rbp
	.cfi_def_cfa 7, 8
	ret
	.cfi_endproc
.LFE11417:
	.size	_ZNK9__gnu_cxx17__normal_iteratorIPxSt6vectorIxSaIxEEE4baseEv, .-_ZNK9__gnu_cxx17__normal_iteratorIPxSt6vectorIxSaIxEEE4baseEv
	.section	.text._ZNSt12_Vector_baseIxSaIxEE19_M_get_Tp_allocatorEv,"axG",@progbits,_ZNSt12_Vector_baseIxSaIxEE19_M_get_Tp_allocatorEv,comdat
	.align 2
	.weak	_ZNSt12_Vector_baseIxSaIxEE19_M_get_Tp_allocatorEv
	.type	_ZNSt12_Vector_baseIxSaIxEE19_M_get_Tp_allocatorEv, @function
_ZNSt12_Vector_baseIxSaIxEE19_M_get_Tp_allocatorEv:
.LFB11418:
	.cfi_startproc
	endbr64
	push	rbp
	.cfi_def_cfa_offset 16
	.cfi_offset 6, -16
	mov	rbp, rsp
	.cfi_def_cfa_register 6
	mov	QWORD PTR -8[rbp], rdi
	mov	rax, QWORD PTR -8[rbp]
	pop	rbp
	.cfi_def_cfa 7, 8
	ret
	.cfi_endproc
.LFE11418:
	.size	_ZNSt12_Vector_baseIxSaIxEE19_M_get_Tp_allocatorEv, .-_ZNSt12_Vector_baseIxSaIxEE19_M_get_Tp_allocatorEv
	.section	.text._ZSt8_DestroyIPxxEvT_S1_RSaIT0_E,"axG",@progbits,_ZSt8_DestroyIPxxEvT_S1_RSaIT0_E,comdat
	.weak	_ZSt8_DestroyIPxxEvT_S1_RSaIT0_E
	.type	_ZSt8_DestroyIPxxEvT_S1_RSaIT0_E, @function
_ZSt8_DestroyIPxxEvT_S1_RSaIT0_E:
.LFB11420:
	.cfi_startproc
	endbr64
	push	rbp
	.cfi_def_cfa_offset 16
	.cfi_offset 6, -16
	mov	rbp, rsp
	.cfi_def_cfa_register 6
	sub	rsp, 32
	mov	QWORD PTR -8[rbp], rdi
	mov	QWORD PTR -16[rbp], rsi
	mov	QWORD PTR -24[rbp], rdx
	mov	rdx, QWORD PTR -16[rbp]
	mov	rax, QWORD PTR -8[rbp]
	mov	rsi, rdx
	mov	rdi, rax
	call	_ZSt8_DestroyIPxEvT_S1_
	nop
	leave
	.cfi_def_cfa 7, 8
	ret
	.cfi_endproc
.LFE11420:
	.size	_ZSt8_DestroyIPxxEvT_S1_RSaIT0_E, .-_ZSt8_DestroyIPxxEvT_S1_RSaIT0_E
	.section	.text._ZNK9__gnu_cxx17__normal_iteratorIPxSt6vectorIxSaIxEEEmiEl,"axG",@progbits,_ZNK9__gnu_cxx17__normal_iteratorIPxSt6vectorIxSaIxEEEmiEl,comdat
	.align 2
	.weak	_ZNK9__gnu_cxx17__normal_iteratorIPxSt6vectorIxSaIxEEEmiEl
	.type	_ZNK9__gnu_cxx17__normal_iteratorIPxSt6vectorIxSaIxEEEmiEl, @function
_ZNK9__gnu_cxx17__normal_iteratorIPxSt6vectorIxSaIxEEEmiEl:
.LFB11421:
	.cfi_startproc
	endbr64
	push	rbp
	.cfi_def_cfa_offset 16
	.cfi_offset 6, -16
	mov	rbp, rsp
	.cfi_def_cfa_register 6
	sub	rsp, 48
	mov	QWORD PTR -40[rbp], rdi
	mov	QWORD PTR -48[rbp], rsi
	mov	rax, QWORD PTR fs:40
	mov	QWORD PTR -8[rbp], rax
	xor	eax, eax
	mov	rax, QWORD PTR -40[rbp]
	mov	rdx, QWORD PTR [rax]
	mov	rax, QWORD PTR -48[rbp]
	sal	rax, 3
	neg	rax
	add	rax, rdx
	mov	QWORD PTR -24[rbp], rax
	lea	rdx, -24[rbp]
	lea	rax, -16[rbp]
	mov	rsi, rdx
	mov	rdi, rax
	call	_ZN9__gnu_cxx17__normal_iteratorIPxSt6vectorIxSaIxEEEC1ERKS1_
	mov	rax, QWORD PTR -16[rbp]
	mov	rdx, QWORD PTR -8[rbp]
	sub	rdx, QWORD PTR fs:40
	je	.L403
	call	__stack_chk_fail@PLT
.L403:
	leave
	.cfi_def_cfa 7, 8
	ret
	.cfi_endproc
.LFE11421:
	.size	_ZNK9__gnu_cxx17__normal_iteratorIPxSt6vectorIxSaIxEEEmiEl, .-_ZNK9__gnu_cxx17__normal_iteratorIPxSt6vectorIxSaIxEEEmiEl
	.section	.text._ZNK9__gnu_cxx17__normal_iteratorIPxSt6vectorIxSaIxEEEdeEv,"axG",@progbits,_ZNK9__gnu_cxx17__normal_iteratorIPxSt6vectorIxSaIxEEEdeEv,comdat
	.align 2
	.weak	_ZNK9__gnu_cxx17__normal_iteratorIPxSt6vectorIxSaIxEEEdeEv
	.type	_ZNK9__gnu_cxx17__normal_iteratorIPxSt6vectorIxSaIxEEEdeEv, @function
_ZNK9__gnu_cxx17__normal_iteratorIPxSt6vectorIxSaIxEEEdeEv:
.LFB11422:
	.cfi_startproc
	endbr64
	push	rbp
	.cfi_def_cfa_offset 16
	.cfi_offset 6, -16
	mov	rbp, rsp
	.cfi_def_cfa_register 6
	mov	QWORD PTR -8[rbp], rdi
	mov	rax, QWORD PTR -8[rbp]
	mov	rax, QWORD PTR [rax]
	pop	rbp
	.cfi_def_cfa 7, 8
	ret
	.cfi_endproc
.LFE11422:
	.size	_ZNK9__gnu_cxx17__normal_iteratorIPxSt6vectorIxSaIxEEEdeEv, .-_ZNK9__gnu_cxx17__normal_iteratorIPxSt6vectorIxSaIxEEEdeEv
	.section	.text._ZNK9__gnu_cxx17__normal_iteratorIPcNSt7__cxx1112basic_stringIcSt11char_traitsIcESaIcEEEE4baseEv,"axG",@progbits,_ZNK9__gnu_cxx17__normal_iteratorIPcNSt7__cxx1112basic_stringIcSt11char_traitsIcESaIcEEEE4baseEv,comdat
	.align 2
	.weak	_ZNK9__gnu_cxx17__normal_iteratorIPcNSt7__cxx1112basic_stringIcSt11char_traitsIcESaIcEEEE4baseEv
	.type	_ZNK9__gnu_cxx17__normal_iteratorIPcNSt7__cxx1112basic_stringIcSt11char_traitsIcESaIcEEEE4baseEv, @function
_ZNK9__gnu_cxx17__normal_iteratorIPcNSt7__cxx1112basic_stringIcSt11char_traitsIcESaIcEEEE4baseEv:
.LFB11423:
	.cfi_startproc
	endbr64
	push	rbp
	.cfi_def_cfa_offset 16
	.cfi_offset 6, -16
	mov	rbp, rsp
	.cfi_def_cfa_register 6
	mov	QWORD PTR -8[rbp], rdi
	mov	rax, QWORD PTR -8[rbp]
	pop	rbp
	.cfi_def_cfa 7, 8
	ret
	.cfi_endproc
.LFE11423:
	.size	_ZNK9__gnu_cxx17__normal_iteratorIPcNSt7__cxx1112basic_stringIcSt11char_traitsIcESaIcEEEE4baseEv, .-_ZNK9__gnu_cxx17__normal_iteratorIPcNSt7__cxx1112basic_stringIcSt11char_traitsIcESaIcEEEE4baseEv
	.section	.text._ZNK9__gnu_cxx17__normal_iteratorIPcNSt7__cxx1112basic_stringIcSt11char_traitsIcESaIcEEEEdeEv,"axG",@progbits,_ZNK9__gnu_cxx17__normal_iteratorIPcNSt7__cxx1112basic_stringIcSt11char_traitsIcESaIcEEEEdeEv,comdat
	.align 2
	.weak	_ZNK9__gnu_cxx17__normal_iteratorIPcNSt7__cxx1112basic_stringIcSt11char_traitsIcESaIcEEEEdeEv
	.type	_ZNK9__gnu_cxx17__normal_iteratorIPcNSt7__cxx1112basic_stringIcSt11char_traitsIcESaIcEEEEdeEv, @function
_ZNK9__gnu_cxx17__normal_iteratorIPcNSt7__cxx1112basic_stringIcSt11char_traitsIcESaIcEEEEdeEv:
.LFB11424:
	.cfi_startproc
	endbr64
	push	rbp
	.cfi_def_cfa_offset 16
	.cfi_offset 6, -16
	mov	rbp, rsp
	.cfi_def_cfa_register 6
	mov	QWORD PTR -8[rbp], rdi
	mov	rax, QWORD PTR -8[rbp]
	mov	rax, QWORD PTR [rax]
	pop	rbp
	.cfi_def_cfa 7, 8
	ret
	.cfi_endproc
.LFE11424:
	.size	_ZNK9__gnu_cxx17__normal_iteratorIPcNSt7__cxx1112basic_stringIcSt11char_traitsIcESaIcEEEEdeEv, .-_ZNK9__gnu_cxx17__normal_iteratorIPcNSt7__cxx1112basic_stringIcSt11char_traitsIcESaIcEEEEdeEv
	.section	.text._ZSt4moveIRcEONSt16remove_referenceIT_E4typeEOS2_,"axG",@progbits,_ZSt4moveIRcEONSt16remove_referenceIT_E4typeEOS2_,comdat
	.weak	_ZSt4moveIRcEONSt16remove_referenceIT_E4typeEOS2_
	.type	_ZSt4moveIRcEONSt16remove_referenceIT_E4typeEOS2_, @function
_ZSt4moveIRcEONSt16remove_referenceIT_E4typeEOS2_:
.LFB11426:
	.cfi_startproc
	endbr64
	push	rbp
	.cfi_def_cfa_offset 16
	.cfi_offset 6, -16
	mov	rbp, rsp
	.cfi_def_cfa_register 6
	mov	QWORD PTR -8[rbp], rdi
	mov	rax, QWORD PTR -8[rbp]
	pop	rbp
	.cfi_def_cfa 7, 8
	ret
	.cfi_endproc
.LFE11426:
	.size	_ZSt4moveIRcEONSt16remove_referenceIT_E4typeEOS2_, .-_ZSt4moveIRcEONSt16remove_referenceIT_E4typeEOS2_
	.section	.text._ZSt4swapIcENSt9enable_ifIXsrSt6__and_IJSt6__not_ISt15__is_tuple_likeIT_EESt21is_move_constructibleIS4_ESt18is_move_assignableIS4_EEE5valueEvE4typeERS4_SE_,"axG",@progbits,_ZSt4swapIcENSt9enable_ifIXsrSt6__and_IJSt6__not_ISt15__is_tuple_likeIT_EESt21is_move_constructibleIS4_ESt18is_move_assignableIS4_EEE5valueEvE4typeERS4_SE_,comdat
	.weak	_ZSt4swapIcENSt9enable_ifIXsrSt6__and_IJSt6__not_ISt15__is_tuple_likeIT_EESt21is_move_constructibleIS4_ESt18is_move_assignableIS4_EEE5valueEvE4typeERS4_SE_
	.type	_ZSt4swapIcENSt9enable_ifIXsrSt6__and_IJSt6__not_ISt15__is_tuple_likeIT_EESt21is_move_constructibleIS4_ESt18is_move_assignableIS4_EEE5valueEvE4typeERS4_SE_, @function
_ZSt4swapIcENSt9enable_ifIXsrSt6__and_IJSt6__not_ISt15__is_tuple_likeIT_EESt21is_move_constructibleIS4_ESt18is_move_assignableIS4_EEE5valueEvE4typeERS4_SE_:
.LFB11425:
	.cfi_startproc
	endbr64
	push	rbp
	.cfi_def_cfa_offset 16
	.cfi_offset 6, -16
	mov	rbp, rsp
	.cfi_def_cfa_register 6
	sub	rsp, 32
	mov	QWORD PTR -24[rbp], rdi
	mov	QWORD PTR -32[rbp], rsi
	mov	rax, QWORD PTR fs:40
	mov	QWORD PTR -8[rbp], rax
	xor	eax, eax
	mov	rax, QWORD PTR -24[rbp]
	mov	rdi, rax
	call	_ZSt4moveIRcEONSt16remove_referenceIT_E4typeEOS2_
	movzx	eax, BYTE PTR [rax]
	mov	BYTE PTR -9[rbp], al
	mov	rax, QWORD PTR -32[rbp]
	mov	rdi, rax
	call	_ZSt4moveIRcEONSt16remove_referenceIT_E4typeEOS2_
	movzx	edx, BYTE PTR [rax]
	mov	rax, QWORD PTR -24[rbp]
	mov	BYTE PTR [rax], dl
	lea	rax, -9[rbp]
	mov	rdi, rax
	call	_ZSt4moveIRcEONSt16remove_referenceIT_E4typeEOS2_
	movzx	edx, BYTE PTR [rax]
	mov	rax, QWORD PTR -32[rbp]
	mov	BYTE PTR [rax], dl
	nop
	mov	rax, QWORD PTR -8[rbp]
	sub	rax, QWORD PTR fs:40
	je	.L413
	call	__stack_chk_fail@PLT
.L413:
	leave
	.cfi_def_cfa 7, 8
	ret
	.cfi_endproc
.LFE11425:
	.size	_ZSt4swapIcENSt9enable_ifIXsrSt6__and_IJSt6__not_ISt15__is_tuple_likeIT_EESt21is_move_constructibleIS4_ESt18is_move_assignableIS4_EEE5valueEvE4typeERS4_SE_, .-_ZSt4swapIcENSt9enable_ifIXsrSt6__and_IJSt6__not_ISt15__is_tuple_likeIT_EESt21is_move_constructibleIS4_ESt18is_move_assignableIS4_EEE5valueEvE4typeERS4_SE_
	.section	.text._ZNSt16allocator_traitsISaIiEE8max_sizeERKS0_,"axG",@progbits,_ZNSt16allocator_traitsISaIiEE8max_sizeERKS0_,comdat
	.weak	_ZNSt16allocator_traitsISaIiEE8max_sizeERKS0_
	.type	_ZNSt16allocator_traitsISaIiEE8max_sizeERKS0_, @function
_ZNSt16allocator_traitsISaIiEE8max_sizeERKS0_:
.LFB11427:
	.cfi_startproc
	endbr64
	push	rbp
	.cfi_def_cfa_offset 16
	.cfi_offset 6, -16
	mov	rbp, rsp
	.cfi_def_cfa_register 6
	sub	rsp, 16
	mov	QWORD PTR -8[rbp], rdi
	mov	rax, QWORD PTR -8[rbp]
	mov	rdi, rax
	call	_ZNK9__gnu_cxx13new_allocatorIiE8max_sizeEv
	leave
	.cfi_def_cfa 7, 8
	ret
	.cfi_endproc
.LFE11427:
	.size	_ZNSt16allocator_traitsISaIiEE8max_sizeERKS0_, .-_ZNSt16allocator_traitsISaIiEE8max_sizeERKS0_
	.section	.text._ZN9__gnu_cxx13new_allocatorIiEC2ERKS1_,"axG",@progbits,_ZN9__gnu_cxx13new_allocatorIiEC5ERKS1_,comdat
	.align 2
	.weak	_ZN9__gnu_cxx13new_allocatorIiEC2ERKS1_
	.type	_ZN9__gnu_cxx13new_allocatorIiEC2ERKS1_, @function
_ZN9__gnu_cxx13new_allocatorIiEC2ERKS1_:
.LFB11429:
	.cfi_startproc
	endbr64
	push	rbp
	.cfi_def_cfa_offset 16
	.cfi_offset 6, -16
	mov	rbp, rsp
	.cfi_def_cfa_register 6
	mov	QWORD PTR -8[rbp], rdi
	mov	QWORD PTR -16[rbp], rsi
	nop
	pop	rbp
	.cfi_def_cfa 7, 8
	ret
	.cfi_endproc
.LFE11429:
	.size	_ZN9__gnu_cxx13new_allocatorIiEC2ERKS1_, .-_ZN9__gnu_cxx13new_allocatorIiEC2ERKS1_
	.weak	_ZN9__gnu_cxx13new_allocatorIiEC1ERKS1_
	.set	_ZN9__gnu_cxx13new_allocatorIiEC1ERKS1_,_ZN9__gnu_cxx13new_allocatorIiEC2ERKS1_
	.section	.text._ZNSt12_Vector_baseIiSaIiEE17_Vector_impl_dataC2Ev,"axG",@progbits,_ZNSt12_Vector_baseIiSaIiEE17_Vector_impl_dataC5Ev,comdat
	.align 2
	.weak	_ZNSt12_Vector_baseIiSaIiEE17_Vector_impl_dataC2Ev
	.type	_ZNSt12_Vector_baseIiSaIiEE17_Vector_impl_dataC2Ev, @function
_ZNSt12_Vector_baseIiSaIiEE17_Vector_impl_dataC2Ev:
.LFB11432:
	.cfi_startproc
	endbr64
	push	rbp
	.cfi_def_cfa_offset 16
	.cfi_offset 6, -16
	mov	rbp, rsp
	.cfi_def_cfa_register 6
	mov	QWORD PTR -8[rbp], rdi
	mov	rax, QWORD PTR -8[rbp]
	mov	QWORD PTR [rax], 0
	mov	rax, QWORD PTR -8[rbp]
	mov	QWORD PTR 8[rax], 0
	mov	rax, QWORD PTR -8[rbp]
	mov	QWORD PTR 16[rax], 0
	nop
	pop	rbp
	.cfi_def_cfa 7, 8
	ret
	.cfi_endproc
.LFE11432:
	.size	_ZNSt12_Vector_baseIiSaIiEE17_Vector_impl_dataC2Ev, .-_ZNSt12_Vector_baseIiSaIiEE17_Vector_impl_dataC2Ev
	.weak	_ZNSt12_Vector_baseIiSaIiEE17_Vector_impl_dataC1Ev
	.set	_ZNSt12_Vector_baseIiSaIiEE17_Vector_impl_dataC1Ev,_ZNSt12_Vector_baseIiSaIiEE17_Vector_impl_dataC2Ev
	.section	.text._ZNSt12_Vector_baseIiSaIiEE11_M_allocateEm,"axG",@progbits,_ZNSt12_Vector_baseIiSaIiEE11_M_allocateEm,comdat
	.align 2
	.weak	_ZNSt12_Vector_baseIiSaIiEE11_M_allocateEm
	.type	_ZNSt12_Vector_baseIiSaIiEE11_M_allocateEm, @function
_ZNSt12_Vector_baseIiSaIiEE11_M_allocateEm:
.LFB11434:
	.cfi_startproc
	endbr64
	push	rbp
	.cfi_def_cfa_offset 16
	.cfi_offset 6, -16
	mov	rbp, rsp
	.cfi_def_cfa_register 6
	sub	rsp, 16
	mov	QWORD PTR -8[rbp], rdi
	mov	QWORD PTR -16[rbp], rsi
	cmp	QWORD PTR -16[rbp], 0
	je	.L419
	mov	rax, QWORD PTR -8[rbp]
	mov	rdx, QWORD PTR -16[rbp]
	mov	rsi, rdx
	mov	rdi, rax
	call	_ZNSt16allocator_traitsISaIiEE8allocateERS0_m
	jmp	.L421
.L419:
	mov	eax, 0
.L421:
	leave
	.cfi_def_cfa 7, 8
	ret
	.cfi_endproc
.LFE11434:
	.size	_ZNSt12_Vector_baseIiSaIiEE11_M_allocateEm, .-_ZNSt12_Vector_baseIiSaIiEE11_M_allocateEm
	.section	.text._ZNSt16allocator_traitsISaIiEE10deallocateERS0_Pim,"axG",@progbits,_ZNSt16allocator_traitsISaIiEE10deallocateERS0_Pim,comdat
	.weak	_ZNSt16allocator_traitsISaIiEE10deallocateERS0_Pim
	.type	_ZNSt16allocator_traitsISaIiEE10deallocateERS0_Pim, @function
_ZNSt16allocator_traitsISaIiEE10deallocateERS0_Pim:
.LFB11435:
	.cfi_startproc
	endbr64
	push	rbp
	.cfi_def_cfa_offset 16
	.cfi_offset 6, -16
	mov	rbp, rsp
	.cfi_def_cfa_register 6
	sub	rsp, 32
	mov	QWORD PTR -8[rbp], rdi
	mov	QWORD PTR -16[rbp], rsi
	mov	QWORD PTR -24[rbp], rdx
	mov	rdx, QWORD PTR -24[rbp]
	mov	rcx, QWORD PTR -16[rbp]
	mov	rax, QWORD PTR -8[rbp]
	mov	rsi, rcx
	mov	rdi, rax
	call	_ZN9__gnu_cxx13new_allocatorIiE10deallocateEPim
	nop
	leave
	.cfi_def_cfa 7, 8
	ret
	.cfi_endproc
.LFE11435:
	.size	_ZNSt16allocator_traitsISaIiEE10deallocateERS0_Pim, .-_ZNSt16allocator_traitsISaIiEE10deallocateERS0_Pim
	.section	.text._ZSt25__uninitialized_default_nIPimET_S1_T0_,"axG",@progbits,_ZSt25__uninitialized_default_nIPimET_S1_T0_,comdat
	.weak	_ZSt25__uninitialized_default_nIPimET_S1_T0_
	.type	_ZSt25__uninitialized_default_nIPimET_S1_T0_, @function
_ZSt25__uninitialized_default_nIPimET_S1_T0_:
.LFB11436:
	.cfi_startproc
	endbr64
	push	rbp
	.cfi_def_cfa_offset 16
	.cfi_offset 6, -16
	mov	rbp, rsp
	.cfi_def_cfa_register 6
	sub	rsp, 32
	mov	QWORD PTR -24[rbp], rdi
	mov	QWORD PTR -32[rbp], rsi
	mov	BYTE PTR -1[rbp], 1
	mov	rdx, QWORD PTR -32[rbp]
	mov	rax, QWORD PTR -24[rbp]
	mov	rsi, rdx
	mov	rdi, rax
	call	_ZNSt27__uninitialized_default_n_1ILb1EE18__uninit_default_nIPimEET_S3_T0_
	leave
	.cfi_def_cfa 7, 8
	ret
	.cfi_endproc
.LFE11436:
	.size	_ZSt25__uninitialized_default_nIPimET_S1_T0_, .-_ZSt25__uninitialized_default_nIPimET_S1_T0_
	.section	.text._ZNSt12_Destroy_auxILb1EE9__destroyIPiEEvT_S3_,"axG",@progbits,_ZNSt12_Destroy_auxILb1EE9__destroyIPiEEvT_S3_,comdat
	.weak	_ZNSt12_Destroy_auxILb1EE9__destroyIPiEEvT_S3_
	.type	_ZNSt12_Destroy_auxILb1EE9__destroyIPiEEvT_S3_, @function
_ZNSt12_Destroy_auxILb1EE9__destroyIPiEEvT_S3_:
.LFB11437:
	.cfi_startproc
	endbr64
	push	rbp
	.cfi_def_cfa_offset 16
	.cfi_offset 6, -16
	mov	rbp, rsp
	.cfi_def_cfa_register 6
	mov	QWORD PTR -8[rbp], rdi
	mov	QWORD PTR -16[rbp], rsi
	nop
	pop	rbp
	.cfi_def_cfa 7, 8
	ret
	.cfi_endproc
.LFE11437:
	.size	_ZNSt12_Destroy_auxILb1EE9__destroyIPiEEvT_S3_, .-_ZNSt12_Destroy_auxILb1EE9__destroyIPiEEvT_S3_
	.section	.text._ZN9__gnu_cxx13new_allocatorISt4pairIiiEE10deallocateEPS2_m,"axG",@progbits,_ZN9__gnu_cxx13new_allocatorISt4pairIiiEE10deallocateEPS2_m,comdat
	.align 2
	.weak	_ZN9__gnu_cxx13new_allocatorISt4pairIiiEE10deallocateEPS2_m
	.type	_ZN9__gnu_cxx13new_allocatorISt4pairIiiEE10deallocateEPS2_m, @function
_ZN9__gnu_cxx13new_allocatorISt4pairIiiEE10deallocateEPS2_m:
.LFB11438:
	.cfi_startproc
	endbr64
	push	rbp
	.cfi_def_cfa_offset 16
	.cfi_offset 6, -16
	mov	rbp, rsp
	.cfi_def_cfa_register 6
	sub	rsp, 32
	mov	QWORD PTR -8[rbp], rdi
	mov	QWORD PTR -16[rbp], rsi
	mov	QWORD PTR -24[rbp], rdx
	mov	rax, QWORD PTR -24[rbp]
	lea	rdx, 0[0+rax*8]
	mov	rax, QWORD PTR -16[rbp]
	mov	rsi, rdx
	mov	rdi, rax
	call	_ZdlPvm@PLT
	leave
	.cfi_def_cfa 7, 8
	ret
	.cfi_endproc
.LFE11438:
	.size	_ZN9__gnu_cxx13new_allocatorISt4pairIiiEE10deallocateEPS2_m, .-_ZN9__gnu_cxx13new_allocatorISt4pairIiiEE10deallocateEPS2_m
	.section	.text._ZNSt12_Destroy_auxILb1EE9__destroyIPSt4pairIiiEEEvT_S5_,"axG",@progbits,_ZNSt12_Destroy_auxILb1EE9__destroyIPSt4pairIiiEEEvT_S5_,comdat
	.weak	_ZNSt12_Destroy_auxILb1EE9__destroyIPSt4pairIiiEEEvT_S5_
	.type	_ZNSt12_Destroy_auxILb1EE9__destroyIPSt4pairIiiEEEvT_S5_, @function
_ZNSt12_Destroy_auxILb1EE9__destroyIPSt4pairIiiEEEvT_S5_:
.LFB11439:
	.cfi_startproc
	endbr64
	push	rbp
	.cfi_def_cfa_offset 16
	.cfi_offset 6, -16
	mov	rbp, rsp
	.cfi_def_cfa_register 6
	mov	QWORD PTR -8[rbp], rdi
	mov	QWORD PTR -16[rbp], rsi
	nop
	pop	rbp
	.cfi_def_cfa 7, 8
	ret
	.cfi_endproc
.LFE11439:
	.size	_ZNSt12_Destroy_auxILb1EE9__destroyIPSt4pairIiiEEEvT_S5_, .-_ZNSt12_Destroy_auxILb1EE9__destroyIPSt4pairIiiEEEvT_S5_
	.section	.text._ZNSt8_Rb_treeIiSt4pairIKiiESt10_Select1stIS2_ESt4lessIiESaIS2_EE15_M_destroy_nodeEPSt13_Rb_tree_nodeIS2_E,"axG",@progbits,_ZNSt8_Rb_treeIiSt4pairIKiiESt10_Select1stIS2_ESt4lessIiESaIS2_EE15_M_destroy_nodeEPSt13_Rb_tree_nodeIS2_E,comdat
	.align 2
	.weak	_ZNSt8_Rb_treeIiSt4pairIKiiESt10_Select1stIS2_ESt4lessIiESaIS2_EE15_M_destroy_nodeEPSt13_Rb_tree_nodeIS2_E
	.type	_ZNSt8_Rb_treeIiSt4pairIKiiESt10_Select1stIS2_ESt4lessIiESaIS2_EE15_M_destroy_nodeEPSt13_Rb_tree_nodeIS2_E, @function
_ZNSt8_Rb_treeIiSt4pairIKiiESt10_Select1stIS2_ESt4lessIiESaIS2_EE15_M_destroy_nodeEPSt13_Rb_tree_nodeIS2_E:
.LFB11440:
	.cfi_startproc
	endbr64
	push	rbp
	.cfi_def_cfa_offset 16
	.cfi_offset 6, -16
	mov	rbp, rsp
	.cfi_def_cfa_register 6
	push	rbx
	sub	rsp, 24
	.cfi_offset 3, -24
	mov	QWORD PTR -24[rbp], rdi
	mov	QWORD PTR -32[rbp], rsi
	mov	rax, QWORD PTR -32[rbp]
	mov	rdi, rax
	call	_ZNSt13_Rb_tree_nodeISt4pairIKiiEE9_M_valptrEv
	mov	rbx, rax
	mov	rax, QWORD PTR -24[rbp]
	mov	rdi, rax
	call	_ZNSt8_Rb_treeIiSt4pairIKiiESt10_Select1stIS2_ESt4lessIiESaIS2_EE21_M_get_Node_allocatorEv
	mov	rsi, rbx
	mov	rdi, rax
	call	_ZNSt16allocator_traitsISaISt13_Rb_tree_nodeISt4pairIKiiEEEE7destroyIS3_EEvRS5_PT_
	nop
	mov	rbx, QWORD PTR -8[rbp]
	leave
	.cfi_def_cfa 7, 8
	ret
	.cfi_endproc
.LFE11440:
	.size	_ZNSt8_Rb_treeIiSt4pairIKiiESt10_Select1stIS2_ESt4lessIiESaIS2_EE15_M_destroy_nodeEPSt13_Rb_tree_nodeIS2_E, .-_ZNSt8_Rb_treeIiSt4pairIKiiESt10_Select1stIS2_ESt4lessIiESaIS2_EE15_M_destroy_nodeEPSt13_Rb_tree_nodeIS2_E
	.section	.text._ZNSt8_Rb_treeIiSt4pairIKiiESt10_Select1stIS2_ESt4lessIiESaIS2_EE11_M_put_nodeEPSt13_Rb_tree_nodeIS2_E,"axG",@progbits,_ZNSt8_Rb_treeIiSt4pairIKiiESt10_Select1stIS2_ESt4lessIiESaIS2_EE11_M_put_nodeEPSt13_Rb_tree_nodeIS2_E,comdat
	.align 2
	.weak	_ZNSt8_Rb_treeIiSt4pairIKiiESt10_Select1stIS2_ESt4lessIiESaIS2_EE11_M_put_nodeEPSt13_Rb_tree_nodeIS2_E
	.type	_ZNSt8_Rb_treeIiSt4pairIKiiESt10_Select1stIS2_ESt4lessIiESaIS2_EE11_M_put_nodeEPSt13_Rb_tree_nodeIS2_E, @function
_ZNSt8_Rb_treeIiSt4pairIKiiESt10_Select1stIS2_ESt4lessIiESaIS2_EE11_M_put_nodeEPSt13_Rb_tree_nodeIS2_E:
.LFB11442:
	.cfi_startproc
	.cfi_personality 0x9b,DW.ref.__gxx_personality_v0
	.cfi_lsda 0x1b,.LLSDA11442
	endbr64
	push	rbp
	.cfi_def_cfa_offset 16
	.cfi_offset 6, -16
	mov	rbp, rsp
	.cfi_def_cfa_register 6
	sub	rsp, 16
	mov	QWORD PTR -8[rbp], rdi
	mov	QWORD PTR -16[rbp], rsi
	mov	rax, QWORD PTR -8[rbp]
	mov	rdi, rax
	call	_ZNSt8_Rb_treeIiSt4pairIKiiESt10_Select1stIS2_ESt4lessIiESaIS2_EE21_M_get_Node_allocatorEv
	mov	rcx, rax
	mov	rax, QWORD PTR -16[rbp]
	mov	edx, 1
	mov	rsi, rax
	mov	rdi, rcx
	call	_ZNSt16allocator_traitsISaISt13_Rb_tree_nodeISt4pairIKiiEEEE10deallocateERS5_PS4_m
	nop
	leave
	.cfi_def_cfa 7, 8
	ret
	.cfi_endproc
.LFE11442:
	.section	.gcc_except_table
.LLSDA11442:
	.byte	0xff
	.byte	0xff
	.byte	0x1
	.uleb128 .LLSDACSE11442-.LLSDACSB11442
.LLSDACSB11442:
.LLSDACSE11442:
	.section	.text._ZNSt8_Rb_treeIiSt4pairIKiiESt10_Select1stIS2_ESt4lessIiESaIS2_EE11_M_put_nodeEPSt13_Rb_tree_nodeIS2_E,"axG",@progbits,_ZNSt8_Rb_treeIiSt4pairIKiiESt10_Select1stIS2_ESt4lessIiESaIS2_EE11_M_put_nodeEPSt13_Rb_tree_nodeIS2_E,comdat
	.size	_ZNSt8_Rb_treeIiSt4pairIKiiESt10_Select1stIS2_ESt4lessIiESaIS2_EE11_M_put_nodeEPSt13_Rb_tree_nodeIS2_E, .-_ZNSt8_Rb_treeIiSt4pairIKiiESt10_Select1stIS2_ESt4lessIiESaIS2_EE11_M_put_nodeEPSt13_Rb_tree_nodeIS2_E
	.section	.text._ZNSt8_Rb_treeIiSt4pairIKiiESt10_Select1stIS2_ESt4lessIiESaIS2_EE6_M_endEv,"axG",@progbits,_ZNSt8_Rb_treeIiSt4pairIKiiESt10_Select1stIS2_ESt4lessIiESaIS2_EE6_M_endEv,comdat
	.align 2
	.weak	_ZNSt8_Rb_treeIiSt4pairIKiiESt10_Select1stIS2_ESt4lessIiESaIS2_EE6_M_endEv
	.type	_ZNSt8_Rb_treeIiSt4pairIKiiESt10_Select1stIS2_ESt4lessIiESaIS2_EE6_M_endEv, @function
_ZNSt8_Rb_treeIiSt4pairIKiiESt10_Select1stIS2_ESt4lessIiESaIS2_EE6_M_endEv:
.LFB11443:
	.cfi_startproc
	endbr64
	push	rbp
	.cfi_def_cfa_offset 16
	.cfi_offset 6, -16
	mov	rbp, rsp
	.cfi_def_cfa_register 6
	mov	QWORD PTR -8[rbp], rdi
	mov	rax, QWORD PTR -8[rbp]
	add	rax, 8
	pop	rbp
	.cfi_def_cfa 7, 8
	ret
	.cfi_endproc
.LFE11443:
	.size	_ZNSt8_Rb_treeIiSt4pairIKiiESt10_Select1stIS2_ESt4lessIiESaIS2_EE6_M_endEv, .-_ZNSt8_Rb_treeIiSt4pairIKiiESt10_Select1stIS2_ESt4lessIiESaIS2_EE6_M_endEv
	.section	.text._ZNSt8_Rb_treeIiSt4pairIKiiESt10_Select1stIS2_ESt4lessIiESaIS2_EE14_M_lower_boundEPSt13_Rb_tree_nodeIS2_EPSt18_Rb_tree_node_baseRS1_,"axG",@progbits,_ZNSt8_Rb_treeIiSt4pairIKiiESt10_Select1stIS2_ESt4lessIiESaIS2_EE14_M_lower_boundEPSt13_Rb_tree_nodeIS2_EPSt18_Rb_tree_node_baseRS1_,comdat
	.align 2
	.weak	_ZNSt8_Rb_treeIiSt4pairIKiiESt10_Select1stIS2_ESt4lessIiESaIS2_EE14_M_lower_boundEPSt13_Rb_tree_nodeIS2_EPSt18_Rb_tree_node_baseRS1_
	.type	_ZNSt8_Rb_treeIiSt4pairIKiiESt10_Select1stIS2_ESt4lessIiESaIS2_EE14_M_lower_boundEPSt13_Rb_tree_nodeIS2_EPSt18_Rb_tree_node_baseRS1_, @function
_ZNSt8_Rb_treeIiSt4pairIKiiESt10_Select1stIS2_ESt4lessIiESaIS2_EE14_M_lower_boundEPSt13_Rb_tree_nodeIS2_EPSt18_Rb_tree_node_baseRS1_:
.LFB11444:
	.cfi_startproc
	endbr64
	push	rbp
	.cfi_def_cfa_offset 16
	.cfi_offset 6, -16
	mov	rbp, rsp
	.cfi_def_cfa_register 6
	push	rbx
	sub	rsp, 56
	.cfi_offset 3, -24
	mov	QWORD PTR -40[rbp], rdi
	mov	QWORD PTR -48[rbp], rsi
	mov	QWORD PTR -56[rbp], rdx
	mov	QWORD PTR -64[rbp], rcx
	mov	rax, QWORD PTR fs:40
	mov	QWORD PTR -24[rbp], rax
	xor	eax, eax
	jmp	.L434
.L436:
	mov	rbx, QWORD PTR -40[rbp]
	mov	rax, QWORD PTR -48[rbp]
	mov	rdi, rax
	call	_ZNSt8_Rb_treeIiSt4pairIKiiESt10_Select1stIS2_ESt4lessIiESaIS2_EE6_S_keyEPKSt13_Rb_tree_nodeIS2_E
	mov	rcx, rax
	mov	rax, QWORD PTR -64[rbp]
	mov	rdx, rax
	mov	rsi, rcx
	mov	rdi, rbx
	call	_ZNKSt4lessIiEclERKiS2_
	xor	eax, 1
	test	al, al
	je	.L435
	mov	rax, QWORD PTR -48[rbp]
	mov	QWORD PTR -56[rbp], rax
	mov	rax, QWORD PTR -48[rbp]
	mov	rdi, rax
	call	_ZNSt8_Rb_treeIiSt4pairIKiiESt10_Select1stIS2_ESt4lessIiESaIS2_EE7_S_leftEPSt18_Rb_tree_node_base
	mov	QWORD PTR -48[rbp], rax
	jmp	.L434
.L435:
	mov	rax, QWORD PTR -48[rbp]
	mov	rdi, rax
	call	_ZNSt8_Rb_treeIiSt4pairIKiiESt10_Select1stIS2_ESt4lessIiESaIS2_EE8_S_rightEPSt18_Rb_tree_node_base
	mov	QWORD PTR -48[rbp], rax
.L434:
	cmp	QWORD PTR -48[rbp], 0
	jne	.L436
	mov	rdx, QWORD PTR -56[rbp]
	lea	rax, -32[rbp]
	mov	rsi, rdx
	mov	rdi, rax
	call	_ZNSt17_Rb_tree_iteratorISt4pairIKiiEEC1EPSt18_Rb_tree_node_base
	mov	rax, QWORD PTR -32[rbp]
	mov	rdx, QWORD PTR -24[rbp]
	sub	rdx, QWORD PTR fs:40
	je	.L438
	call	__stack_chk_fail@PLT
.L438:
	mov	rbx, QWORD PTR -8[rbp]
	leave
	.cfi_def_cfa 7, 8
	ret
	.cfi_endproc
.LFE11444:
	.size	_ZNSt8_Rb_treeIiSt4pairIKiiESt10_Select1stIS2_ESt4lessIiESaIS2_EE14_M_lower_boundEPSt13_Rb_tree_nodeIS2_EPSt18_Rb_tree_node_baseRS1_, .-_ZNSt8_Rb_treeIiSt4pairIKiiESt10_Select1stIS2_ESt4lessIiESaIS2_EE14_M_lower_boundEPSt13_Rb_tree_nodeIS2_EPSt18_Rb_tree_node_baseRS1_
	.section	.text._ZN9__gnu_cxx16__aligned_membufISt4pairIKiiEE6_M_ptrEv,"axG",@progbits,_ZN9__gnu_cxx16__aligned_membufISt4pairIKiiEE6_M_ptrEv,comdat
	.align 2
	.weak	_ZN9__gnu_cxx16__aligned_membufISt4pairIKiiEE6_M_ptrEv
	.type	_ZN9__gnu_cxx16__aligned_membufISt4pairIKiiEE6_M_ptrEv, @function
_ZN9__gnu_cxx16__aligned_membufISt4pairIKiiEE6_M_ptrEv:
.LFB11445:
	.cfi_startproc
	endbr64
	push	rbp
	.cfi_def_cfa_offset 16
	.cfi_offset 6, -16
	mov	rbp, rsp
	.cfi_def_cfa_register 6
	sub	rsp, 16
	mov	QWORD PTR -8[rbp], rdi
	mov	rax, QWORD PTR -8[rbp]
	mov	rdi, rax
	call	_ZN9__gnu_cxx16__aligned_membufISt4pairIKiiEE7_M_addrEv
	leave
	.cfi_def_cfa 7, 8
	ret
	.cfi_endproc
.LFE11445:
	.size	_ZN9__gnu_cxx16__aligned_membufISt4pairIKiiEE6_M_ptrEv, .-_ZN9__gnu_cxx16__aligned_membufISt4pairIKiiEE6_M_ptrEv
	.section	.text._ZNSt10_Head_baseILm0ERKiLb0EEC2ES1_,"axG",@progbits,_ZNSt10_Head_baseILm0ERKiLb0EEC5ES1_,comdat
	.align 2
	.weak	_ZNSt10_Head_baseILm0ERKiLb0EEC2ES1_
	.type	_ZNSt10_Head_baseILm0ERKiLb0EEC2ES1_, @function
_ZNSt10_Head_baseILm0ERKiLb0EEC2ES1_:
.LFB11447:
	.cfi_startproc
	endbr64
	push	rbp
	.cfi_def_cfa_offset 16
	.cfi_offset 6, -16
	mov	rbp, rsp
	.cfi_def_cfa_register 6
	mov	QWORD PTR -8[rbp], rdi
	mov	QWORD PTR -16[rbp], rsi
	mov	rax, QWORD PTR -8[rbp]
	mov	rdx, QWORD PTR -16[rbp]
	mov	QWORD PTR [rax], rdx
	nop
	pop	rbp
	.cfi_def_cfa 7, 8
	ret
	.cfi_endproc
.LFE11447:
	.size	_ZNSt10_Head_baseILm0ERKiLb0EEC2ES1_, .-_ZNSt10_Head_baseILm0ERKiLb0EEC2ES1_
	.weak	_ZNSt10_Head_baseILm0ERKiLb0EEC1ES1_
	.set	_ZNSt10_Head_baseILm0ERKiLb0EEC1ES1_,_ZNSt10_Head_baseILm0ERKiLb0EEC2ES1_
	.section	.text._ZNSt8_Rb_treeIiSt4pairIKiiESt10_Select1stIS2_ESt4lessIiESaIS2_EE11_M_get_nodeEv,"axG",@progbits,_ZNSt8_Rb_treeIiSt4pairIKiiESt10_Select1stIS2_ESt4lessIiESaIS2_EE11_M_get_nodeEv,comdat
	.align 2
	.weak	_ZNSt8_Rb_treeIiSt4pairIKiiESt10_Select1stIS2_ESt4lessIiESaIS2_EE11_M_get_nodeEv
	.type	_ZNSt8_Rb_treeIiSt4pairIKiiESt10_Select1stIS2_ESt4lessIiESaIS2_EE11_M_get_nodeEv, @function
_ZNSt8_Rb_treeIiSt4pairIKiiESt10_Select1stIS2_ESt4lessIiESaIS2_EE11_M_get_nodeEv:
.LFB11449:
	.cfi_startproc
	endbr64
	push	rbp
	.cfi_def_cfa_offset 16
	.cfi_offset 6, -16
	mov	rbp, rsp
	.cfi_def_cfa_register 6
	sub	rsp, 16
	mov	QWORD PTR -8[rbp], rdi
	mov	rax, QWORD PTR -8[rbp]
	mov	rdi, rax
	call	_ZNSt8_Rb_treeIiSt4pairIKiiESt10_Select1stIS2_ESt4lessIiESaIS2_EE21_M_get_Node_allocatorEv
	mov	esi, 1
	mov	rdi, rax
	call	_ZNSt16allocator_traitsISaISt13_Rb_tree_nodeISt4pairIKiiEEEE8allocateERS5_m
	leave
	.cfi_def_cfa 7, 8
	ret
	.cfi_endproc
.LFE11449:
	.size	_ZNSt8_Rb_treeIiSt4pairIKiiESt10_Select1stIS2_ESt4lessIiESaIS2_EE11_M_get_nodeEv, .-_ZNSt8_Rb_treeIiSt4pairIKiiESt10_Select1stIS2_ESt4lessIiESaIS2_EE11_M_get_nodeEv
	.section	.text._ZNSt8_Rb_treeIiSt4pairIKiiESt10_Select1stIS2_ESt4lessIiESaIS2_EE17_M_construct_nodeIJRKSt21piecewise_construct_tSt5tupleIJRS1_EESD_IJEEEEEvPSt13_Rb_tree_nodeIS2_EDpOT_,"axG",@progbits,_ZNSt8_Rb_treeIiSt4pairIKiiESt10_Select1stIS2_ESt4lessIiESaIS2_EE17_M_construct_nodeIJRKSt21piecewise_construct_tSt5tupleIJRS1_EESD_IJEEEEEvPSt13_Rb_tree_nodeIS2_EDpOT_,comdat
	.align 2
	.weak	_ZNSt8_Rb_treeIiSt4pairIKiiESt10_Select1stIS2_ESt4lessIiESaIS2_EE17_M_construct_nodeIJRKSt21piecewise_construct_tSt5tupleIJRS1_EESD_IJEEEEEvPSt13_Rb_tree_nodeIS2_EDpOT_
	.type	_ZNSt8_Rb_treeIiSt4pairIKiiESt10_Select1stIS2_ESt4lessIiESaIS2_EE17_M_construct_nodeIJRKSt21piecewise_construct_tSt5tupleIJRS1_EESD_IJEEEEEvPSt13_Rb_tree_nodeIS2_EDpOT_, @function
_ZNSt8_Rb_treeIiSt4pairIKiiESt10_Select1stIS2_ESt4lessIiESaIS2_EE17_M_construct_nodeIJRKSt21piecewise_construct_tSt5tupleIJRS1_EESD_IJEEEEEvPSt13_Rb_tree_nodeIS2_EDpOT_:
.LFB11450:
	.cfi_startproc
	.cfi_personality 0x9b,DW.ref.__gxx_personality_v0
	.cfi_lsda 0x1b,.LLSDA11450
	endbr64
	push	rbp
	.cfi_def_cfa_offset 16
	.cfi_offset 6, -16
	mov	rbp, rsp
	.cfi_def_cfa_register 6
	push	r14
	push	r13
	push	r12
	push	rbx
	sub	rsp, 48
	.cfi_offset 14, -24
	.cfi_offset 13, -32
	.cfi_offset 12, -40
	.cfi_offset 3, -48
	mov	QWORD PTR -40[rbp], rdi
	mov	QWORD PTR -48[rbp], rsi
	mov	QWORD PTR -56[rbp], rdx
	mov	QWORD PTR -64[rbp], rcx
	mov	QWORD PTR -72[rbp], r8
	mov	rax, QWORD PTR -48[rbp]
	mov	rsi, rax
	mov	edi, 40
	call	_ZnwmPv
	mov	rax, QWORD PTR -72[rbp]
	mov	rdi, rax
	call	_ZSt7forwardISt5tupleIJEEEOT_RNSt16remove_referenceIS2_E4typeE
	mov	r14, rax
	mov	rax, QWORD PTR -64[rbp]
	mov	rdi, rax
	call	_ZSt7forwardISt5tupleIJRKiEEEOT_RNSt16remove_referenceIS4_E4typeE
	mov	r13, rax
	mov	rax, QWORD PTR -56[rbp]
	mov	rdi, rax
	call	_ZSt7forwardIRKSt21piecewise_construct_tEOT_RNSt16remove_referenceIS3_E4typeE
	mov	r12, rax
	mov	rax, QWORD PTR -48[rbp]
	mov	rdi, rax
	call	_ZNSt13_Rb_tree_nodeISt4pairIKiiEE9_M_valptrEv
	mov	rbx, rax
	mov	rax, QWORD PTR -40[rbp]
	mov	rdi, rax
	call	_ZNSt8_Rb_treeIiSt4pairIKiiESt10_Select1stIS2_ESt4lessIiESaIS2_EE21_M_get_Node_allocatorEv
	mov	r8, r14
	mov	rcx, r13
	mov	rdx, r12
	mov	rsi, rbx
	mov	rdi, rax
.LEHB16:
	call	_ZNSt16allocator_traitsISaISt13_Rb_tree_nodeISt4pairIKiiEEEE9constructIS3_JRKSt21piecewise_construct_tSt5tupleIJRS2_EESB_IJEEEEEvRS5_PT_DpOT0_
.LEHE16:
	jmp	.L449
.L447:
	endbr64
	mov	rdi, rax
	call	__cxa_begin_catch@PLT
	mov	rdx, QWORD PTR -48[rbp]
	mov	rax, QWORD PTR -40[rbp]
	mov	rsi, rdx
	mov	rdi, rax
	call	_ZNSt8_Rb_treeIiSt4pairIKiiESt10_Select1stIS2_ESt4lessIiESaIS2_EE11_M_put_nodeEPSt13_Rb_tree_nodeIS2_E
.LEHB17:
	call	__cxa_rethrow@PLT
.LEHE17:
.L448:
	endbr64
	mov	rbx, rax
	call	__cxa_end_catch@PLT
	mov	rax, rbx
	mov	rdi, rax
.LEHB18:
	call	_Unwind_Resume@PLT
.LEHE18:
.L449:
	add	rsp, 48
	pop	rbx
	pop	r12
	pop	r13
	pop	r14
	pop	rbp
	.cfi_def_cfa 7, 8
	ret
	.cfi_endproc
.LFE11450:
	.section	.gcc_except_table
	.align 4
.LLSDA11450:
	.byte	0xff
	.byte	0x9b
	.uleb128 .LLSDATT11450-.LLSDATTD11450
.LLSDATTD11450:
	.byte	0x1
	.uleb128 .LLSDACSE11450-.LLSDACSB11450
.LLSDACSB11450:
	.uleb128 .LEHB16-.LFB11450
	.uleb128 .LEHE16-.LEHB16
	.uleb128 .L447-.LFB11450
	.uleb128 0x1
	.uleb128 .LEHB17-.LFB11450
	.uleb128 .LEHE17-.LEHB17
	.uleb128 .L448-.LFB11450
	.uleb128 0
	.uleb128 .LEHB18-.LFB11450
	.uleb128 .LEHE18-.LEHB18
	.uleb128 0
	.uleb128 0
.LLSDACSE11450:
	.byte	0x1
	.byte	0
	.align 4
	.long	0

.LLSDATT11450:
	.section	.text._ZNSt8_Rb_treeIiSt4pairIKiiESt10_Select1stIS2_ESt4lessIiESaIS2_EE17_M_construct_nodeIJRKSt21piecewise_construct_tSt5tupleIJRS1_EESD_IJEEEEEvPSt13_Rb_tree_nodeIS2_EDpOT_,"axG",@progbits,_ZNSt8_Rb_treeIiSt4pairIKiiESt10_Select1stIS2_ESt4lessIiESaIS2_EE17_M_construct_nodeIJRKSt21piecewise_construct_tSt5tupleIJRS1_EESD_IJEEEEEvPSt13_Rb_tree_nodeIS2_EDpOT_,comdat
	.size	_ZNSt8_Rb_treeIiSt4pairIKiiESt10_Select1stIS2_ESt4lessIiESaIS2_EE17_M_construct_nodeIJRKSt21piecewise_construct_tSt5tupleIJRS1_EESD_IJEEEEEvPSt13_Rb_tree_nodeIS2_EDpOT_, .-_ZNSt8_Rb_treeIiSt4pairIKiiESt10_Select1stIS2_ESt4lessIiESaIS2_EE17_M_construct_nodeIJRKSt21piecewise_construct_tSt5tupleIJRS1_EESD_IJEEEEEvPSt13_Rb_tree_nodeIS2_EDpOT_
	.section	.text._ZNKSt23_Rb_tree_const_iteratorISt4pairIKiiEE13_M_const_castEv,"axG",@progbits,_ZNKSt23_Rb_tree_const_iteratorISt4pairIKiiEE13_M_const_castEv,comdat
	.align 2
	.weak	_ZNKSt23_Rb_tree_const_iteratorISt4pairIKiiEE13_M_const_castEv
	.type	_ZNKSt23_Rb_tree_const_iteratorISt4pairIKiiEE13_M_const_castEv, @function
_ZNKSt23_Rb_tree_const_iteratorISt4pairIKiiEE13_M_const_castEv:
.LFB11451:
	.cfi_startproc
	endbr64
	push	rbp
	.cfi_def_cfa_offset 16
	.cfi_offset 6, -16
	mov	rbp, rsp
	.cfi_def_cfa_register 6
	sub	rsp, 32
	mov	QWORD PTR -24[rbp], rdi
	mov	rax, QWORD PTR fs:40
	mov	QWORD PTR -8[rbp], rax
	xor	eax, eax
	mov	rax, QWORD PTR -24[rbp]
	mov	rdx, QWORD PTR [rax]
	lea	rax, -16[rbp]
	mov	rsi, rdx
	mov	rdi, rax
	call	_ZNSt17_Rb_tree_iteratorISt4pairIKiiEEC1EPSt18_Rb_tree_node_base
	mov	rax, QWORD PTR -16[rbp]
	mov	rdx, QWORD PTR -8[rbp]
	sub	rdx, QWORD PTR fs:40
	je	.L452
	call	__stack_chk_fail@PLT
.L452:
	leave
	.cfi_def_cfa 7, 8
	ret
	.cfi_endproc
.LFE11451:
	.size	_ZNKSt23_Rb_tree_const_iteratorISt4pairIKiiEE13_M_const_castEv, .-_ZNKSt23_Rb_tree_const_iteratorISt4pairIKiiEE13_M_const_castEv
	.section	.text._ZNKSt8_Rb_treeIiSt4pairIKiiESt10_Select1stIS2_ESt4lessIiESaIS2_EE4sizeEv,"axG",@progbits,_ZNKSt8_Rb_treeIiSt4pairIKiiESt10_Select1stIS2_ESt4lessIiESaIS2_EE4sizeEv,comdat
	.align 2
	.weak	_ZNKSt8_Rb_treeIiSt4pairIKiiESt10_Select1stIS2_ESt4lessIiESaIS2_EE4sizeEv
	.type	_ZNKSt8_Rb_treeIiSt4pairIKiiESt10_Select1stIS2_ESt4lessIiESaIS2_EE4sizeEv, @function
_ZNKSt8_Rb_treeIiSt4pairIKiiESt10_Select1stIS2_ESt4lessIiESaIS2_EE4sizeEv:
.LFB11452:
	.cfi_startproc
	endbr64
	push	rbp
	.cfi_def_cfa_offset 16
	.cfi_offset 6, -16
	mov	rbp, rsp
	.cfi_def_cfa_register 6
	mov	QWORD PTR -8[rbp], rdi
	mov	rax, QWORD PTR -8[rbp]
	mov	rax, QWORD PTR 40[rax]
	pop	rbp
	.cfi_def_cfa 7, 8
	ret
	.cfi_endproc
.LFE11452:
	.size	_ZNKSt8_Rb_treeIiSt4pairIKiiESt10_Select1stIS2_ESt4lessIiESaIS2_EE4sizeEv, .-_ZNKSt8_Rb_treeIiSt4pairIKiiESt10_Select1stIS2_ESt4lessIiESaIS2_EE4sizeEv
	.section	.text._ZNSt8_Rb_treeIiSt4pairIKiiESt10_Select1stIS2_ESt4lessIiESaIS2_EE12_M_rightmostEv,"axG",@progbits,_ZNSt8_Rb_treeIiSt4pairIKiiESt10_Select1stIS2_ESt4lessIiESaIS2_EE12_M_rightmostEv,comdat
	.align 2
	.weak	_ZNSt8_Rb_treeIiSt4pairIKiiESt10_Select1stIS2_ESt4lessIiESaIS2_EE12_M_rightmostEv
	.type	_ZNSt8_Rb_treeIiSt4pairIKiiESt10_Select1stIS2_ESt4lessIiESaIS2_EE12_M_rightmostEv, @function
_ZNSt8_Rb_treeIiSt4pairIKiiESt10_Select1stIS2_ESt4lessIiESaIS2_EE12_M_rightmostEv:
.LFB11453:
	.cfi_startproc
	endbr64
	push	rbp
	.cfi_def_cfa_offset 16
	.cfi_offset 6, -16
	mov	rbp, rsp
	.cfi_def_cfa_register 6
	mov	QWORD PTR -8[rbp], rdi
	mov	rax, QWORD PTR -8[rbp]
	add	rax, 32
	pop	rbp
	.cfi_def_cfa 7, 8
	ret
	.cfi_endproc
.LFE11453:
	.size	_ZNSt8_Rb_treeIiSt4pairIKiiESt10_Select1stIS2_ESt4lessIiESaIS2_EE12_M_rightmostEv, .-_ZNSt8_Rb_treeIiSt4pairIKiiESt10_Select1stIS2_ESt4lessIiESaIS2_EE12_M_rightmostEv
	.section	.text._ZNSt8_Rb_treeIiSt4pairIKiiESt10_Select1stIS2_ESt4lessIiESaIS2_EE6_S_keyEPKSt18_Rb_tree_node_base,"axG",@progbits,_ZNSt8_Rb_treeIiSt4pairIKiiESt10_Select1stIS2_ESt4lessIiESaIS2_EE6_S_keyEPKSt18_Rb_tree_node_base,comdat
	.weak	_ZNSt8_Rb_treeIiSt4pairIKiiESt10_Select1stIS2_ESt4lessIiESaIS2_EE6_S_keyEPKSt18_Rb_tree_node_base
	.type	_ZNSt8_Rb_treeIiSt4pairIKiiESt10_Select1stIS2_ESt4lessIiESaIS2_EE6_S_keyEPKSt18_Rb_tree_node_base, @function
_ZNSt8_Rb_treeIiSt4pairIKiiESt10_Select1stIS2_ESt4lessIiESaIS2_EE6_S_keyEPKSt18_Rb_tree_node_base:
.LFB11454:
	.cfi_startproc
	endbr64
	push	rbp
	.cfi_def_cfa_offset 16
	.cfi_offset 6, -16
	mov	rbp, rsp
	.cfi_def_cfa_register 6
	sub	rsp, 16
	mov	QWORD PTR -8[rbp], rdi
	mov	rax, QWORD PTR -8[rbp]
	mov	rdi, rax
	call	_ZNSt8_Rb_treeIiSt4pairIKiiESt10_Select1stIS2_ESt4lessIiESaIS2_EE6_S_keyEPKSt13_Rb_tree_nodeIS2_E
	leave
	.cfi_def_cfa 7, 8
	ret
	.cfi_endproc
.LFE11454:
	.size	_ZNSt8_Rb_treeIiSt4pairIKiiESt10_Select1stIS2_ESt4lessIiESaIS2_EE6_S_keyEPKSt18_Rb_tree_node_base, .-_ZNSt8_Rb_treeIiSt4pairIKiiESt10_Select1stIS2_ESt4lessIiESaIS2_EE6_S_keyEPKSt18_Rb_tree_node_base
	.section	.text._ZNSt4pairIPSt18_Rb_tree_node_baseS1_EC2IRS1_Lb1EEERKS1_OT_,"axG",@progbits,_ZNSt4pairIPSt18_Rb_tree_node_baseS1_EC5IRS1_Lb1EEERKS1_OT_,comdat
	.align 2
	.weak	_ZNSt4pairIPSt18_Rb_tree_node_baseS1_EC2IRS1_Lb1EEERKS1_OT_
	.type	_ZNSt4pairIPSt18_Rb_tree_node_baseS1_EC2IRS1_Lb1EEERKS1_OT_, @function
_ZNSt4pairIPSt18_Rb_tree_node_baseS1_EC2IRS1_Lb1EEERKS1_OT_:
.LFB11456:
	.cfi_startproc
	endbr64
	push	rbp
	.cfi_def_cfa_offset 16
	.cfi_offset 6, -16
	mov	rbp, rsp
	.cfi_def_cfa_register 6
	sub	rsp, 32
	mov	QWORD PTR -8[rbp], rdi
	mov	QWORD PTR -16[rbp], rsi
	mov	QWORD PTR -24[rbp], rdx
	mov	rax, QWORD PTR -16[rbp]
	mov	rdx, QWORD PTR [rax]
	mov	rax, QWORD PTR -8[rbp]
	mov	QWORD PTR [rax], rdx
	mov	rax, QWORD PTR -24[rbp]
	mov	rdi, rax
	call	_ZSt7forwardIRPSt18_Rb_tree_node_baseEOT_RNSt16remove_referenceIS3_E4typeE
	mov	rdx, QWORD PTR [rax]
	mov	rax, QWORD PTR -8[rbp]
	mov	QWORD PTR 8[rax], rdx
	nop
	leave
	.cfi_def_cfa 7, 8
	ret
	.cfi_endproc
.LFE11456:
	.size	_ZNSt4pairIPSt18_Rb_tree_node_baseS1_EC2IRS1_Lb1EEERKS1_OT_, .-_ZNSt4pairIPSt18_Rb_tree_node_baseS1_EC2IRS1_Lb1EEERKS1_OT_
	.weak	_ZNSt4pairIPSt18_Rb_tree_node_baseS1_EC1IRS1_Lb1EEERKS1_OT_
	.set	_ZNSt4pairIPSt18_Rb_tree_node_baseS1_EC1IRS1_Lb1EEERKS1_OT_,_ZNSt4pairIPSt18_Rb_tree_node_baseS1_EC2IRS1_Lb1EEERKS1_OT_
	.section	.text._ZNSt8_Rb_treeIiSt4pairIKiiESt10_Select1stIS2_ESt4lessIiESaIS2_EE24_M_get_insert_unique_posERS1_,"axG",@progbits,_ZNSt8_Rb_treeIiSt4pairIKiiESt10_Select1stIS2_ESt4lessIiESaIS2_EE24_M_get_insert_unique_posERS1_,comdat
	.align 2
	.weak	_ZNSt8_Rb_treeIiSt4pairIKiiESt10_Select1stIS2_ESt4lessIiESaIS2_EE24_M_get_insert_unique_posERS1_
	.type	_ZNSt8_Rb_treeIiSt4pairIKiiESt10_Select1stIS2_ESt4lessIiESaIS2_EE24_M_get_insert_unique_posERS1_, @function
_ZNSt8_Rb_treeIiSt4pairIKiiESt10_Select1stIS2_ESt4lessIiESaIS2_EE24_M_get_insert_unique_posERS1_:
.LFB11458:
	.cfi_startproc
	endbr64
	push	rbp
	.cfi_def_cfa_offset 16
	.cfi_offset 6, -16
	mov	rbp, rsp
	.cfi_def_cfa_register 6
	push	rbx
	sub	rsp, 104
	.cfi_offset 3, -24
	mov	QWORD PTR -104[rbp], rdi
	mov	QWORD PTR -112[rbp], rsi
	mov	rax, QWORD PTR fs:40
	mov	QWORD PTR -24[rbp], rax
	xor	eax, eax
	mov	rax, QWORD PTR -104[rbp]
	mov	rdi, rax
	call	_ZNSt8_Rb_treeIiSt4pairIKiiESt10_Select1stIS2_ESt4lessIiESaIS2_EE8_M_beginEv
	mov	QWORD PTR -80[rbp], rax
	mov	rax, QWORD PTR -104[rbp]
	mov	rdi, rax
	call	_ZNSt8_Rb_treeIiSt4pairIKiiESt10_Select1stIS2_ESt4lessIiESaIS2_EE6_M_endEv
	mov	QWORD PTR -72[rbp], rax
	mov	BYTE PTR -81[rbp], 1
	jmp	.L461
.L464:
	mov	rax, QWORD PTR -80[rbp]
	mov	QWORD PTR -72[rbp], rax
	mov	rbx, QWORD PTR -104[rbp]
	mov	rax, QWORD PTR -80[rbp]
	mov	rdi, rax
	call	_ZNSt8_Rb_treeIiSt4pairIKiiESt10_Select1stIS2_ESt4lessIiESaIS2_EE6_S_keyEPKSt13_Rb_tree_nodeIS2_E
	mov	rdx, rax
	mov	rax, QWORD PTR -112[rbp]
	mov	rsi, rax
	mov	rdi, rbx
	call	_ZNKSt4lessIiEclERKiS2_
	mov	BYTE PTR -81[rbp], al
	cmp	BYTE PTR -81[rbp], 0
	je	.L462
	mov	rax, QWORD PTR -80[rbp]
	mov	rdi, rax
	call	_ZNSt8_Rb_treeIiSt4pairIKiiESt10_Select1stIS2_ESt4lessIiESaIS2_EE7_S_leftEPSt18_Rb_tree_node_base
	jmp	.L463
.L462:
	mov	rax, QWORD PTR -80[rbp]
	mov	rdi, rax
	call	_ZNSt8_Rb_treeIiSt4pairIKiiESt10_Select1stIS2_ESt4lessIiESaIS2_EE8_S_rightEPSt18_Rb_tree_node_base
.L463:
	mov	QWORD PTR -80[rbp], rax
.L461:
	mov	rax, QWORD PTR -80[rbp]
	test	rax, rax
	jne	.L464
	mov	rdx, QWORD PTR -72[rbp]
	lea	rax, -64[rbp]
	mov	rsi, rdx
	mov	rdi, rax
	call	_ZNSt17_Rb_tree_iteratorISt4pairIKiiEEC1EPSt18_Rb_tree_node_base
	cmp	BYTE PTR -81[rbp], 0
	je	.L465
	mov	rax, QWORD PTR -104[rbp]
	mov	rdi, rax
	call	_ZNSt8_Rb_treeIiSt4pairIKiiESt10_Select1stIS2_ESt4lessIiESaIS2_EE5beginEv
	mov	QWORD PTR -48[rbp], rax
	lea	rdx, -48[rbp]
	lea	rax, -64[rbp]
	mov	rsi, rdx
	mov	rdi, rax
	call	_ZSteqRKSt17_Rb_tree_iteratorISt4pairIKiiEES5_
	test	al, al
	je	.L466
	lea	rdx, -72[rbp]
	lea	rcx, -80[rbp]
	lea	rax, -48[rbp]
	mov	rsi, rcx
	mov	rdi, rax
	call	_ZNSt4pairIPSt18_Rb_tree_node_baseS1_EC1IRPSt13_Rb_tree_nodeIS_IKiiEERS1_Lb1EEEOT_OT0_
	mov	rax, QWORD PTR -48[rbp]
	mov	rdx, QWORD PTR -40[rbp]
	jmp	.L469
.L466:
	lea	rax, -64[rbp]
	mov	rdi, rax
	call	_ZNSt17_Rb_tree_iteratorISt4pairIKiiEEmmEv
.L465:
	mov	rbx, QWORD PTR -104[rbp]
	mov	rax, QWORD PTR -64[rbp]
	mov	rdi, rax
	call	_ZNSt8_Rb_treeIiSt4pairIKiiESt10_Select1stIS2_ESt4lessIiESaIS2_EE6_S_keyEPKSt18_Rb_tree_node_base
	mov	rcx, rax
	mov	rax, QWORD PTR -112[rbp]
	mov	rdx, rax
	mov	rsi, rcx
	mov	rdi, rbx
	call	_ZNKSt4lessIiEclERKiS2_
	test	al, al
	je	.L468
	lea	rdx, -72[rbp]
	lea	rcx, -80[rbp]
	lea	rax, -48[rbp]
	mov	rsi, rcx
	mov	rdi, rax
	call	_ZNSt4pairIPSt18_Rb_tree_node_baseS1_EC1IRPSt13_Rb_tree_nodeIS_IKiiEERS1_Lb1EEEOT_OT0_
	mov	rax, QWORD PTR -48[rbp]
	mov	rdx, QWORD PTR -40[rbp]
	jmp	.L469
.L468:
	mov	QWORD PTR -56[rbp], 0
	lea	rdx, -56[rbp]
	lea	rcx, -64[rbp]
	lea	rax, -48[rbp]
	mov	rsi, rcx
	mov	rdi, rax
	call	_ZNSt4pairIPSt18_Rb_tree_node_baseS1_EC1IRS1_Lb1EEEOT_RKS1_
	mov	rax, QWORD PTR -48[rbp]
	mov	rdx, QWORD PTR -40[rbp]
.L469:
	mov	rcx, QWORD PTR -24[rbp]
	sub	rcx, QWORD PTR fs:40
	je	.L470
	call	__stack_chk_fail@PLT
.L470:
	mov	rbx, QWORD PTR -8[rbp]
	leave
	.cfi_def_cfa 7, 8
	ret
	.cfi_endproc
.LFE11458:
	.size	_ZNSt8_Rb_treeIiSt4pairIKiiESt10_Select1stIS2_ESt4lessIiESaIS2_EE24_M_get_insert_unique_posERS1_, .-_ZNSt8_Rb_treeIiSt4pairIKiiESt10_Select1stIS2_ESt4lessIiESaIS2_EE24_M_get_insert_unique_posERS1_
	.section	.text._ZNSt8_Rb_treeIiSt4pairIKiiESt10_Select1stIS2_ESt4lessIiESaIS2_EE11_M_leftmostEv,"axG",@progbits,_ZNSt8_Rb_treeIiSt4pairIKiiESt10_Select1stIS2_ESt4lessIiESaIS2_EE11_M_leftmostEv,comdat
	.align 2
	.weak	_ZNSt8_Rb_treeIiSt4pairIKiiESt10_Select1stIS2_ESt4lessIiESaIS2_EE11_M_leftmostEv
	.type	_ZNSt8_Rb_treeIiSt4pairIKiiESt10_Select1stIS2_ESt4lessIiESaIS2_EE11_M_leftmostEv, @function
_ZNSt8_Rb_treeIiSt4pairIKiiESt10_Select1stIS2_ESt4lessIiESaIS2_EE11_M_leftmostEv:
.LFB11463:
	.cfi_startproc
	endbr64
	push	rbp
	.cfi_def_cfa_offset 16
	.cfi_offset 6, -16
	mov	rbp, rsp
	.cfi_def_cfa_register 6
	mov	QWORD PTR -8[rbp], rdi
	mov	rax, QWORD PTR -8[rbp]
	add	rax, 24
	pop	rbp
	.cfi_def_cfa 7, 8
	ret
	.cfi_endproc
.LFE11463:
	.size	_ZNSt8_Rb_treeIiSt4pairIKiiESt10_Select1stIS2_ESt4lessIiESaIS2_EE11_M_leftmostEv, .-_ZNSt8_Rb_treeIiSt4pairIKiiESt10_Select1stIS2_ESt4lessIiESaIS2_EE11_M_leftmostEv
	.section	.text._ZNSt4pairIPSt18_Rb_tree_node_baseS1_EC2IRS1_S4_Lb1EEEOT_OT0_,"axG",@progbits,_ZNSt4pairIPSt18_Rb_tree_node_baseS1_EC5IRS1_S4_Lb1EEEOT_OT0_,comdat
	.align 2
	.weak	_ZNSt4pairIPSt18_Rb_tree_node_baseS1_EC2IRS1_S4_Lb1EEEOT_OT0_
	.type	_ZNSt4pairIPSt18_Rb_tree_node_baseS1_EC2IRS1_S4_Lb1EEEOT_OT0_, @function
_ZNSt4pairIPSt18_Rb_tree_node_baseS1_EC2IRS1_S4_Lb1EEEOT_OT0_:
.LFB11465:
	.cfi_startproc
	endbr64
	push	rbp
	.cfi_def_cfa_offset 16
	.cfi_offset 6, -16
	mov	rbp, rsp
	.cfi_def_cfa_register 6
	sub	rsp, 32
	mov	QWORD PTR -8[rbp], rdi
	mov	QWORD PTR -16[rbp], rsi
	mov	QWORD PTR -24[rbp], rdx
	mov	rax, QWORD PTR -16[rbp]
	mov	rdi, rax
	call	_ZSt7forwardIRPSt18_Rb_tree_node_baseEOT_RNSt16remove_referenceIS3_E4typeE
	mov	rdx, QWORD PTR [rax]
	mov	rax, QWORD PTR -8[rbp]
	mov	QWORD PTR [rax], rdx
	mov	rax, QWORD PTR -24[rbp]
	mov	rdi, rax
	call	_ZSt7forwardIRPSt18_Rb_tree_node_baseEOT_RNSt16remove_referenceIS3_E4typeE
	mov	rdx, QWORD PTR [rax]
	mov	rax, QWORD PTR -8[rbp]
	mov	QWORD PTR 8[rax], rdx
	nop
	leave
	.cfi_def_cfa 7, 8
	ret
	.cfi_endproc
.LFE11465:
	.size	_ZNSt4pairIPSt18_Rb_tree_node_baseS1_EC2IRS1_S4_Lb1EEEOT_OT0_, .-_ZNSt4pairIPSt18_Rb_tree_node_baseS1_EC2IRS1_S4_Lb1EEEOT_OT0_
	.weak	_ZNSt4pairIPSt18_Rb_tree_node_baseS1_EC1IRS1_S4_Lb1EEEOT_OT0_
	.set	_ZNSt4pairIPSt18_Rb_tree_node_baseS1_EC1IRS1_S4_Lb1EEEOT_OT0_,_ZNSt4pairIPSt18_Rb_tree_node_baseS1_EC2IRS1_S4_Lb1EEEOT_OT0_
	.section	.text._ZNSt17_Rb_tree_iteratorISt4pairIKiiEEmmEv,"axG",@progbits,_ZNSt17_Rb_tree_iteratorISt4pairIKiiEEmmEv,comdat
	.align 2
	.weak	_ZNSt17_Rb_tree_iteratorISt4pairIKiiEEmmEv
	.type	_ZNSt17_Rb_tree_iteratorISt4pairIKiiEEmmEv, @function
_ZNSt17_Rb_tree_iteratorISt4pairIKiiEEmmEv:
.LFB11467:
	.cfi_startproc
	endbr64
	push	rbp
	.cfi_def_cfa_offset 16
	.cfi_offset 6, -16
	mov	rbp, rsp
	.cfi_def_cfa_register 6
	sub	rsp, 16
	mov	QWORD PTR -8[rbp], rdi
	mov	rax, QWORD PTR -8[rbp]
	mov	rax, QWORD PTR [rax]
	mov	rdi, rax
	call	_ZSt18_Rb_tree_decrementPSt18_Rb_tree_node_base@PLT
	mov	rdx, QWORD PTR -8[rbp]
	mov	QWORD PTR [rdx], rax
	mov	rax, QWORD PTR -8[rbp]
	leave
	.cfi_def_cfa 7, 8
	ret
	.cfi_endproc
.LFE11467:
	.size	_ZNSt17_Rb_tree_iteratorISt4pairIKiiEEmmEv, .-_ZNSt17_Rb_tree_iteratorISt4pairIKiiEEmmEv
	.section	.text._ZNSt17_Rb_tree_iteratorISt4pairIKiiEEppEv,"axG",@progbits,_ZNSt17_Rb_tree_iteratorISt4pairIKiiEEppEv,comdat
	.align 2
	.weak	_ZNSt17_Rb_tree_iteratorISt4pairIKiiEEppEv
	.type	_ZNSt17_Rb_tree_iteratorISt4pairIKiiEEppEv, @function
_ZNSt17_Rb_tree_iteratorISt4pairIKiiEEppEv:
.LFB11468:
	.cfi_startproc
	endbr64
	push	rbp
	.cfi_def_cfa_offset 16
	.cfi_offset 6, -16
	mov	rbp, rsp
	.cfi_def_cfa_register 6
	sub	rsp, 16
	mov	QWORD PTR -8[rbp], rdi
	mov	rax, QWORD PTR -8[rbp]
	mov	rax, QWORD PTR [rax]
	mov	rdi, rax
	call	_ZSt18_Rb_tree_incrementPSt18_Rb_tree_node_base@PLT
	mov	rdx, QWORD PTR -8[rbp]
	mov	QWORD PTR [rdx], rax
	mov	rax, QWORD PTR -8[rbp]
	leave
	.cfi_def_cfa 7, 8
	ret
	.cfi_endproc
.LFE11468:
	.size	_ZNSt17_Rb_tree_iteratorISt4pairIKiiEEppEv, .-_ZNSt17_Rb_tree_iteratorISt4pairIKiiEEppEv
	.section	.text._ZNSt4pairIPSt18_Rb_tree_node_baseS1_EC2IRS1_Lb1EEEOT_RKS1_,"axG",@progbits,_ZNSt4pairIPSt18_Rb_tree_node_baseS1_EC5IRS1_Lb1EEEOT_RKS1_,comdat
	.align 2
	.weak	_ZNSt4pairIPSt18_Rb_tree_node_baseS1_EC2IRS1_Lb1EEEOT_RKS1_
	.type	_ZNSt4pairIPSt18_Rb_tree_node_baseS1_EC2IRS1_Lb1EEEOT_RKS1_, @function
_ZNSt4pairIPSt18_Rb_tree_node_baseS1_EC2IRS1_Lb1EEEOT_RKS1_:
.LFB11470:
	.cfi_startproc
	endbr64
	push	rbp
	.cfi_def_cfa_offset 16
	.cfi_offset 6, -16
	mov	rbp, rsp
	.cfi_def_cfa_register 6
	sub	rsp, 32
	mov	QWORD PTR -8[rbp], rdi
	mov	QWORD PTR -16[rbp], rsi
	mov	QWORD PTR -24[rbp], rdx
	mov	rax, QWORD PTR -16[rbp]
	mov	rdi, rax
	call	_ZSt7forwardIRPSt18_Rb_tree_node_baseEOT_RNSt16remove_referenceIS3_E4typeE
	mov	rdx, QWORD PTR [rax]
	mov	rax, QWORD PTR -8[rbp]
	mov	QWORD PTR [rax], rdx
	mov	rax, QWORD PTR -24[rbp]
	mov	rdx, QWORD PTR [rax]
	mov	rax, QWORD PTR -8[rbp]
	mov	QWORD PTR 8[rax], rdx
	nop
	leave
	.cfi_def_cfa 7, 8
	ret
	.cfi_endproc
.LFE11470:
	.size	_ZNSt4pairIPSt18_Rb_tree_node_baseS1_EC2IRS1_Lb1EEEOT_RKS1_, .-_ZNSt4pairIPSt18_Rb_tree_node_baseS1_EC2IRS1_Lb1EEEOT_RKS1_
	.weak	_ZNSt4pairIPSt18_Rb_tree_node_baseS1_EC1IRS1_Lb1EEEOT_RKS1_
	.set	_ZNSt4pairIPSt18_Rb_tree_node_baseS1_EC1IRS1_Lb1EEEOT_RKS1_,_ZNSt4pairIPSt18_Rb_tree_node_baseS1_EC2IRS1_Lb1EEEOT_RKS1_
	.section	.text._ZNKSt13_Rb_tree_nodeISt4pairIKiiEE9_M_valptrEv,"axG",@progbits,_ZNKSt13_Rb_tree_nodeISt4pairIKiiEE9_M_valptrEv,comdat
	.align 2
	.weak	_ZNKSt13_Rb_tree_nodeISt4pairIKiiEE9_M_valptrEv
	.type	_ZNKSt13_Rb_tree_nodeISt4pairIKiiEE9_M_valptrEv, @function
_ZNKSt13_Rb_tree_nodeISt4pairIKiiEE9_M_valptrEv:
.LFB11472:
	.cfi_startproc
	endbr64
	push	rbp
	.cfi_def_cfa_offset 16
	.cfi_offset 6, -16
	mov	rbp, rsp
	.cfi_def_cfa_register 6
	sub	rsp, 16
	mov	QWORD PTR -8[rbp], rdi
	mov	rax, QWORD PTR -8[rbp]
	add	rax, 32
	mov	rdi, rax
	call	_ZNK9__gnu_cxx16__aligned_membufISt4pairIKiiEE6_M_ptrEv
	leave
	.cfi_def_cfa 7, 8
	ret
	.cfi_endproc
.LFE11472:
	.size	_ZNKSt13_Rb_tree_nodeISt4pairIKiiEE9_M_valptrEv, .-_ZNKSt13_Rb_tree_nodeISt4pairIKiiEE9_M_valptrEv
	.section	.text._ZNKSt10_Select1stISt4pairIKiiEEclERKS2_,"axG",@progbits,_ZNKSt10_Select1stISt4pairIKiiEEclERKS2_,comdat
	.align 2
	.weak	_ZNKSt10_Select1stISt4pairIKiiEEclERKS2_
	.type	_ZNKSt10_Select1stISt4pairIKiiEEclERKS2_, @function
_ZNKSt10_Select1stISt4pairIKiiEEclERKS2_:
.LFB11473:
	.cfi_startproc
	endbr64
	push	rbp
	.cfi_def_cfa_offset 16
	.cfi_offset 6, -16
	mov	rbp, rsp
	.cfi_def_cfa_register 6
	mov	QWORD PTR -8[rbp], rdi
	mov	QWORD PTR -16[rbp], rsi
	mov	rax, QWORD PTR -16[rbp]
	pop	rbp
	.cfi_def_cfa 7, 8
	ret
	.cfi_endproc
.LFE11473:
	.size	_ZNKSt10_Select1stISt4pairIKiiEEclERKS2_, .-_ZNKSt10_Select1stISt4pairIKiiEEclERKS2_
	.section	.text._ZN9__gnu_cxx13new_allocatorISt4pairIiiEE9constructIS2_JS2_EEEvPT_DpOT0_,"axG",@progbits,_ZN9__gnu_cxx13new_allocatorISt4pairIiiEE9constructIS2_JS2_EEEvPT_DpOT0_,comdat
	.align 2
	.weak	_ZN9__gnu_cxx13new_allocatorISt4pairIiiEE9constructIS2_JS2_EEEvPT_DpOT0_
	.type	_ZN9__gnu_cxx13new_allocatorISt4pairIiiEE9constructIS2_JS2_EEEvPT_DpOT0_, @function
_ZN9__gnu_cxx13new_allocatorISt4pairIiiEE9constructIS2_JS2_EEEvPT_DpOT0_:
.LFB11474:
	.cfi_startproc
	endbr64
	push	rbp
	.cfi_def_cfa_offset 16
	.cfi_offset 6, -16
	mov	rbp, rsp
	.cfi_def_cfa_register 6
	push	rbx
	sub	rsp, 40
	.cfi_offset 3, -24
	mov	QWORD PTR -24[rbp], rdi
	mov	QWORD PTR -32[rbp], rsi
	mov	QWORD PTR -40[rbp], rdx
	mov	rax, QWORD PTR -40[rbp]
	mov	rdi, rax
	call	_ZSt7forwardISt4pairIiiEEOT_RNSt16remove_referenceIS2_E4typeE
	mov	rbx, rax
	mov	rax, QWORD PTR -32[rbp]
	mov	rsi, rax
	mov	edi, 8
	call	_ZnwmPv
	mov	rdx, QWORD PTR [rbx]
	mov	QWORD PTR [rax], rdx
	nop
	mov	rbx, QWORD PTR -8[rbp]
	leave
	.cfi_def_cfa 7, 8
	ret
	.cfi_endproc
.LFE11474:
	.size	_ZN9__gnu_cxx13new_allocatorISt4pairIiiEE9constructIS2_JS2_EEEvPT_DpOT0_, .-_ZN9__gnu_cxx13new_allocatorISt4pairIiiEE9constructIS2_JS2_EEEvPT_DpOT0_
	.section	.text._ZN9__gnu_cxx17__normal_iteratorIPSt4pairIiiESt6vectorIS2_SaIS2_EEEC2ERKS3_,"axG",@progbits,_ZN9__gnu_cxx17__normal_iteratorIPSt4pairIiiESt6vectorIS2_SaIS2_EEEC5ERKS3_,comdat
	.align 2
	.weak	_ZN9__gnu_cxx17__normal_iteratorIPSt4pairIiiESt6vectorIS2_SaIS2_EEEC2ERKS3_
	.type	_ZN9__gnu_cxx17__normal_iteratorIPSt4pairIiiESt6vectorIS2_SaIS2_EEEC2ERKS3_, @function
_ZN9__gnu_cxx17__normal_iteratorIPSt4pairIiiESt6vectorIS2_SaIS2_EEEC2ERKS3_:
.LFB11476:
	.cfi_startproc
	endbr64
	push	rbp
	.cfi_def_cfa_offset 16
	.cfi_offset 6, -16
	mov	rbp, rsp
	.cfi_def_cfa_register 6
	mov	QWORD PTR -8[rbp], rdi
	mov	QWORD PTR -16[rbp], rsi
	mov	rax, QWORD PTR -16[rbp]
	mov	rdx, QWORD PTR [rax]
	mov	rax, QWORD PTR -8[rbp]
	mov	QWORD PTR [rax], rdx
	nop
	pop	rbp
	.cfi_def_cfa 7, 8
	ret
	.cfi_endproc
.LFE11476:
	.size	_ZN9__gnu_cxx17__normal_iteratorIPSt4pairIiiESt6vectorIS2_SaIS2_EEEC2ERKS3_, .-_ZN9__gnu_cxx17__normal_iteratorIPSt4pairIiiESt6vectorIS2_SaIS2_EEEC2ERKS3_
	.weak	_ZN9__gnu_cxx17__normal_iteratorIPSt4pairIiiESt6vectorIS2_SaIS2_EEEC1ERKS3_
	.set	_ZN9__gnu_cxx17__normal_iteratorIPSt4pairIiiESt6vectorIS2_SaIS2_EEEC1ERKS3_,_ZN9__gnu_cxx17__normal_iteratorIPSt4pairIiiESt6vectorIS2_SaIS2_EEEC2ERKS3_
	.section	.text._ZNKSt6vectorISt4pairIiiESaIS1_EE12_M_check_lenEmPKc,"axG",@progbits,_ZNKSt6vectorISt4pairIiiESaIS1_EE12_M_check_lenEmPKc,comdat
	.align 2
	.weak	_ZNKSt6vectorISt4pairIiiESaIS1_EE12_M_check_lenEmPKc
	.type	_ZNKSt6vectorISt4pairIiiESaIS1_EE12_M_check_lenEmPKc, @function
_ZNKSt6vectorISt4pairIiiESaIS1_EE12_M_check_lenEmPKc:
.LFB11478:
	.cfi_startproc
	endbr64
	push	rbp
	.cfi_def_cfa_offset 16
	.cfi_offset 6, -16
	mov	rbp, rsp
	.cfi_def_cfa_register 6
	push	rbx
	sub	rsp, 72
	.cfi_offset 3, -24
	mov	QWORD PTR -56[rbp], rdi
	mov	QWORD PTR -64[rbp], rsi
	mov	QWORD PTR -72[rbp], rdx
	mov	rax, QWORD PTR fs:40
	mov	QWORD PTR -24[rbp], rax
	xor	eax, eax
	mov	rax, QWORD PTR -56[rbp]
	mov	rdi, rax
	call	_ZNKSt6vectorISt4pairIiiESaIS1_EE8max_sizeEv
	mov	rbx, rax
	mov	rax, QWORD PTR -56[rbp]
	mov	rdi, rax
	call	_ZNKSt6vectorISt4pairIiiESaIS1_EE4sizeEv
	sub	rbx, rax
	mov	rdx, rbx
	mov	rax, QWORD PTR -64[rbp]
	cmp	rdx, rax
	setb	al
	test	al, al
	je	.L486
	mov	rax, QWORD PTR -72[rbp]
	mov	rdi, rax
	call	_ZSt20__throw_length_errorPKc@PLT
.L486:
	mov	rax, QWORD PTR -56[rbp]
	mov	rdi, rax
	call	_ZNKSt6vectorISt4pairIiiESaIS1_EE4sizeEv
	mov	rbx, rax
	mov	rax, QWORD PTR -56[rbp]
	mov	rdi, rax
	call	_ZNKSt6vectorISt4pairIiiESaIS1_EE4sizeEv
	mov	QWORD PTR -40[rbp], rax
	lea	rdx, -64[rbp]
	lea	rax, -40[rbp]
	mov	rsi, rdx
	mov	rdi, rax
	call	_ZSt3maxImERKT_S2_S2_
	mov	rax, QWORD PTR [rax]
	add	rax, rbx
	mov	QWORD PTR -32[rbp], rax
	mov	rax, QWORD PTR -56[rbp]
	mov	rdi, rax
	call	_ZNKSt6vectorISt4pairIiiESaIS1_EE4sizeEv
	cmp	QWORD PTR -32[rbp], rax
	jb	.L487
	mov	rax, QWORD PTR -56[rbp]
	mov	rdi, rax
	call	_ZNKSt6vectorISt4pairIiiESaIS1_EE8max_sizeEv
	cmp	QWORD PTR -32[rbp], rax
	jbe	.L488
.L487:
	mov	rax, QWORD PTR -56[rbp]
	mov	rdi, rax
	call	_ZNKSt6vectorISt4pairIiiESaIS1_EE8max_sizeEv
	jmp	.L489
.L488:
	mov	rax, QWORD PTR -32[rbp]
.L489:
	mov	rdx, QWORD PTR -24[rbp]
	sub	rdx, QWORD PTR fs:40
	je	.L491
	call	__stack_chk_fail@PLT
.L491:
	mov	rbx, QWORD PTR -8[rbp]
	leave
	.cfi_def_cfa 7, 8
	ret
	.cfi_endproc
.LFE11478:
	.size	_ZNKSt6vectorISt4pairIiiESaIS1_EE12_M_check_lenEmPKc, .-_ZNKSt6vectorISt4pairIiiESaIS1_EE12_M_check_lenEmPKc
	.section	.text._ZNSt6vectorISt4pairIiiESaIS1_EE5beginEv,"axG",@progbits,_ZNSt6vectorISt4pairIiiESaIS1_EE5beginEv,comdat
	.align 2
	.weak	_ZNSt6vectorISt4pairIiiESaIS1_EE5beginEv
	.type	_ZNSt6vectorISt4pairIiiESaIS1_EE5beginEv, @function
_ZNSt6vectorISt4pairIiiESaIS1_EE5beginEv:
.LFB11479:
	.cfi_startproc
	endbr64
	push	rbp
	.cfi_def_cfa_offset 16
	.cfi_offset 6, -16
	mov	rbp, rsp
	.cfi_def_cfa_register 6
	sub	rsp, 32
	mov	QWORD PTR -24[rbp], rdi
	mov	rax, QWORD PTR fs:40
	mov	QWORD PTR -8[rbp], rax
	xor	eax, eax
	mov	rdx, QWORD PTR -24[rbp]
	lea	rax, -16[rbp]
	mov	rsi, rdx
	mov	rdi, rax
	call	_ZN9__gnu_cxx17__normal_iteratorIPSt4pairIiiESt6vectorIS2_SaIS2_EEEC1ERKS3_
	mov	rax, QWORD PTR -16[rbp]
	mov	rdx, QWORD PTR -8[rbp]
	sub	rdx, QWORD PTR fs:40
	je	.L494
	call	__stack_chk_fail@PLT
.L494:
	leave
	.cfi_def_cfa 7, 8
	ret
	.cfi_endproc
.LFE11479:
	.size	_ZNSt6vectorISt4pairIiiESaIS1_EE5beginEv, .-_ZNSt6vectorISt4pairIiiESaIS1_EE5beginEv
	.section	.text._ZN9__gnu_cxxmiIPSt4pairIiiESt6vectorIS2_SaIS2_EEEENS_17__normal_iteratorIT_T0_E15difference_typeERKSA_SD_,"axG",@progbits,_ZN9__gnu_cxxmiIPSt4pairIiiESt6vectorIS2_SaIS2_EEEENS_17__normal_iteratorIT_T0_E15difference_typeERKSA_SD_,comdat
	.weak	_ZN9__gnu_cxxmiIPSt4pairIiiESt6vectorIS2_SaIS2_EEEENS_17__normal_iteratorIT_T0_E15difference_typeERKSA_SD_
	.type	_ZN9__gnu_cxxmiIPSt4pairIiiESt6vectorIS2_SaIS2_EEEENS_17__normal_iteratorIT_T0_E15difference_typeERKSA_SD_, @function
_ZN9__gnu_cxxmiIPSt4pairIiiESt6vectorIS2_SaIS2_EEEENS_17__normal_iteratorIT_T0_E15difference_typeERKSA_SD_:
.LFB11480:
	.cfi_startproc
	endbr64
	push	rbp
	.cfi_def_cfa_offset 16
	.cfi_offset 6, -16
	mov	rbp, rsp
	.cfi_def_cfa_register 6
	push	rbx
	sub	rsp, 24
	.cfi_offset 3, -24
	mov	QWORD PTR -24[rbp], rdi
	mov	QWORD PTR -32[rbp], rsi
	mov	rax, QWORD PTR -24[rbp]
	mov	rdi, rax
	call	_ZNK9__gnu_cxx17__normal_iteratorIPSt4pairIiiESt6vectorIS2_SaIS2_EEE4baseEv
	mov	rbx, QWORD PTR [rax]
	mov	rax, QWORD PTR -32[rbp]
	mov	rdi, rax
	call	_ZNK9__gnu_cxx17__normal_iteratorIPSt4pairIiiESt6vectorIS2_SaIS2_EEE4baseEv
	mov	rdx, QWORD PTR [rax]
	mov	rax, rbx
	sub	rax, rdx
	sar	rax, 3
	mov	rbx, QWORD PTR -8[rbp]
	leave
	.cfi_def_cfa 7, 8
	ret
	.cfi_endproc
.LFE11480:
	.size	_ZN9__gnu_cxxmiIPSt4pairIiiESt6vectorIS2_SaIS2_EEEENS_17__normal_iteratorIT_T0_E15difference_typeERKSA_SD_, .-_ZN9__gnu_cxxmiIPSt4pairIiiESt6vectorIS2_SaIS2_EEEENS_17__normal_iteratorIT_T0_E15difference_typeERKSA_SD_
	.section	.text._ZNSt12_Vector_baseISt4pairIiiESaIS1_EE11_M_allocateEm,"axG",@progbits,_ZNSt12_Vector_baseISt4pairIiiESaIS1_EE11_M_allocateEm,comdat
	.align 2
	.weak	_ZNSt12_Vector_baseISt4pairIiiESaIS1_EE11_M_allocateEm
	.type	_ZNSt12_Vector_baseISt4pairIiiESaIS1_EE11_M_allocateEm, @function
_ZNSt12_Vector_baseISt4pairIiiESaIS1_EE11_M_allocateEm:
.LFB11481:
	.cfi_startproc
	endbr64
	push	rbp
	.cfi_def_cfa_offset 16
	.cfi_offset 6, -16
	mov	rbp, rsp
	.cfi_def_cfa_register 6
	sub	rsp, 16
	mov	QWORD PTR -8[rbp], rdi
	mov	QWORD PTR -16[rbp], rsi
	cmp	QWORD PTR -16[rbp], 0
	je	.L498
	mov	rax, QWORD PTR -8[rbp]
	mov	rdx, QWORD PTR -16[rbp]
	mov	rsi, rdx
	mov	rdi, rax
	call	_ZNSt16allocator_traitsISaISt4pairIiiEEE8allocateERS2_m
	jmp	.L500
.L498:
	mov	eax, 0
.L500:
	leave
	.cfi_def_cfa 7, 8
	ret
	.cfi_endproc
.LFE11481:
	.size	_ZNSt12_Vector_baseISt4pairIiiESaIS1_EE11_M_allocateEm, .-_ZNSt12_Vector_baseISt4pairIiiESaIS1_EE11_M_allocateEm
	.section	.text._ZNSt6vectorISt4pairIiiESaIS1_EE11_S_relocateEPS1_S4_S4_RS2_,"axG",@progbits,_ZNSt6vectorISt4pairIiiESaIS1_EE11_S_relocateEPS1_S4_S4_RS2_,comdat
	.weak	_ZNSt6vectorISt4pairIiiESaIS1_EE11_S_relocateEPS1_S4_S4_RS2_
	.type	_ZNSt6vectorISt4pairIiiESaIS1_EE11_S_relocateEPS1_S4_S4_RS2_, @function
_ZNSt6vectorISt4pairIiiESaIS1_EE11_S_relocateEPS1_S4_S4_RS2_:
.LFB11482:
	.cfi_startproc
	endbr64
	push	rbp
	.cfi_def_cfa_offset 16
	.cfi_offset 6, -16
	mov	rbp, rsp
	.cfi_def_cfa_register 6
	sub	rsp, 32
	mov	QWORD PTR -8[rbp], rdi
	mov	QWORD PTR -16[rbp], rsi
	mov	QWORD PTR -24[rbp], rdx
	mov	QWORD PTR -32[rbp], rcx
	mov	rcx, QWORD PTR -32[rbp]
	mov	rdx, QWORD PTR -24[rbp]
	mov	rsi, QWORD PTR -16[rbp]
	mov	rax, QWORD PTR -8[rbp]
	mov	rdi, rax
	call	_ZNSt6vectorISt4pairIiiESaIS1_EE14_S_do_relocateEPS1_S4_S4_RS2_St17integral_constantIbLb1EE
	leave
	.cfi_def_cfa 7, 8
	ret
	.cfi_endproc
.LFE11482:
	.size	_ZNSt6vectorISt4pairIiiESaIS1_EE11_S_relocateEPS1_S4_S4_RS2_, .-_ZNSt6vectorISt4pairIiiESaIS1_EE11_S_relocateEPS1_S4_S4_RS2_
	.section	.text._ZNK9__gnu_cxx17__normal_iteratorIPSt4pairIiiESt6vectorIS2_SaIS2_EEE4baseEv,"axG",@progbits,_ZNK9__gnu_cxx17__normal_iteratorIPSt4pairIiiESt6vectorIS2_SaIS2_EEE4baseEv,comdat
	.align 2
	.weak	_ZNK9__gnu_cxx17__normal_iteratorIPSt4pairIiiESt6vectorIS2_SaIS2_EEE4baseEv
	.type	_ZNK9__gnu_cxx17__normal_iteratorIPSt4pairIiiESt6vectorIS2_SaIS2_EEE4baseEv, @function
_ZNK9__gnu_cxx17__normal_iteratorIPSt4pairIiiESt6vectorIS2_SaIS2_EEE4baseEv:
.LFB11483:
	.cfi_startproc
	endbr64
	push	rbp
	.cfi_def_cfa_offset 16
	.cfi_offset 6, -16
	mov	rbp, rsp
	.cfi_def_cfa_register 6
	mov	QWORD PTR -8[rbp], rdi
	mov	rax, QWORD PTR -8[rbp]
	pop	rbp
	.cfi_def_cfa 7, 8
	ret
	.cfi_endproc
.LFE11483:
	.size	_ZNK9__gnu_cxx17__normal_iteratorIPSt4pairIiiESt6vectorIS2_SaIS2_EEE4baseEv, .-_ZNK9__gnu_cxx17__normal_iteratorIPSt4pairIiiESt6vectorIS2_SaIS2_EEE4baseEv
	.section	.text._ZNSt16allocator_traitsISaISt4pairIiiEEE7destroyIS1_EEvRS2_PT_,"axG",@progbits,_ZNSt16allocator_traitsISaISt4pairIiiEEE7destroyIS1_EEvRS2_PT_,comdat
	.weak	_ZNSt16allocator_traitsISaISt4pairIiiEEE7destroyIS1_EEvRS2_PT_
	.type	_ZNSt16allocator_traitsISaISt4pairIiiEEE7destroyIS1_EEvRS2_PT_, @function
_ZNSt16allocator_traitsISaISt4pairIiiEEE7destroyIS1_EEvRS2_PT_:
.LFB11484:
	.cfi_startproc
	endbr64
	push	rbp
	.cfi_def_cfa_offset 16
	.cfi_offset 6, -16
	mov	rbp, rsp
	.cfi_def_cfa_register 6
	sub	rsp, 16
	mov	QWORD PTR -8[rbp], rdi
	mov	QWORD PTR -16[rbp], rsi
	mov	rdx, QWORD PTR -16[rbp]
	mov	rax, QWORD PTR -8[rbp]
	mov	rsi, rdx
	mov	rdi, rax
	call	_ZN9__gnu_cxx13new_allocatorISt4pairIiiEE7destroyIS2_EEvPT_
	nop
	leave
	.cfi_def_cfa 7, 8
	ret
	.cfi_endproc
.LFE11484:
	.size	_ZNSt16allocator_traitsISaISt4pairIiiEEE7destroyIS1_EEvRS2_PT_, .-_ZNSt16allocator_traitsISaISt4pairIiiEEE7destroyIS1_EEvRS2_PT_
	.section	.text._ZNK9__gnu_cxx17__normal_iteratorIPSt4pairIiiESt6vectorIS2_SaIS2_EEEmiEl,"axG",@progbits,_ZNK9__gnu_cxx17__normal_iteratorIPSt4pairIiiESt6vectorIS2_SaIS2_EEEmiEl,comdat
	.align 2
	.weak	_ZNK9__gnu_cxx17__normal_iteratorIPSt4pairIiiESt6vectorIS2_SaIS2_EEEmiEl
	.type	_ZNK9__gnu_cxx17__normal_iteratorIPSt4pairIiiESt6vectorIS2_SaIS2_EEEmiEl, @function
_ZNK9__gnu_cxx17__normal_iteratorIPSt4pairIiiESt6vectorIS2_SaIS2_EEEmiEl:
.LFB11485:
	.cfi_startproc
	endbr64
	push	rbp
	.cfi_def_cfa_offset 16
	.cfi_offset 6, -16
	mov	rbp, rsp
	.cfi_def_cfa_register 6
	sub	rsp, 48
	mov	QWORD PTR -40[rbp], rdi
	mov	QWORD PTR -48[rbp], rsi
	mov	rax, QWORD PTR fs:40
	mov	QWORD PTR -8[rbp], rax
	xor	eax, eax
	mov	rax, QWORD PTR -40[rbp]
	mov	rdx, QWORD PTR [rax]
	mov	rax, QWORD PTR -48[rbp]
	sal	rax, 3
	neg	rax
	add	rax, rdx
	mov	QWORD PTR -24[rbp], rax
	lea	rdx, -24[rbp]
	lea	rax, -16[rbp]
	mov	rsi, rdx
	mov	rdi, rax
	call	_ZN9__gnu_cxx17__normal_iteratorIPSt4pairIiiESt6vectorIS2_SaIS2_EEEC1ERKS3_
	mov	rax, QWORD PTR -16[rbp]
	mov	rdx, QWORD PTR -8[rbp]
	sub	rdx, QWORD PTR fs:40
	je	.L508
	call	__stack_chk_fail@PLT
.L508:
	leave
	.cfi_def_cfa 7, 8
	ret
	.cfi_endproc
.LFE11485:
	.size	_ZNK9__gnu_cxx17__normal_iteratorIPSt4pairIiiESt6vectorIS2_SaIS2_EEEmiEl, .-_ZNK9__gnu_cxx17__normal_iteratorIPSt4pairIiiESt6vectorIS2_SaIS2_EEEmiEl
	.section	.text._ZNK9__gnu_cxx17__normal_iteratorIPSt4pairIiiESt6vectorIS2_SaIS2_EEEdeEv,"axG",@progbits,_ZNK9__gnu_cxx17__normal_iteratorIPSt4pairIiiESt6vectorIS2_SaIS2_EEEdeEv,comdat
	.align 2
	.weak	_ZNK9__gnu_cxx17__normal_iteratorIPSt4pairIiiESt6vectorIS2_SaIS2_EEEdeEv
	.type	_ZNK9__gnu_cxx17__normal_iteratorIPSt4pairIiiESt6vectorIS2_SaIS2_EEEdeEv, @function
_ZNK9__gnu_cxx17__normal_iteratorIPSt4pairIiiESt6vectorIS2_SaIS2_EEEdeEv:
.LFB11486:
	.cfi_startproc
	endbr64
	push	rbp
	.cfi_def_cfa_offset 16
	.cfi_offset 6, -16
	mov	rbp, rsp
	.cfi_def_cfa_register 6
	mov	QWORD PTR -8[rbp], rdi
	mov	rax, QWORD PTR -8[rbp]
	mov	rax, QWORD PTR [rax]
	pop	rbp
	.cfi_def_cfa 7, 8
	ret
	.cfi_endproc
.LFE11486:
	.size	_ZNK9__gnu_cxx17__normal_iteratorIPSt4pairIiiESt6vectorIS2_SaIS2_EEEdeEv, .-_ZNK9__gnu_cxx17__normal_iteratorIPSt4pairIiiESt6vectorIS2_SaIS2_EEEdeEv
	.section	.text._ZNKSt6vectorIxSaIxEE8max_sizeEv,"axG",@progbits,_ZNKSt6vectorIxSaIxEE8max_sizeEv,comdat
	.align 2
	.weak	_ZNKSt6vectorIxSaIxEE8max_sizeEv
	.type	_ZNKSt6vectorIxSaIxEE8max_sizeEv, @function
_ZNKSt6vectorIxSaIxEE8max_sizeEv:
.LFB11571:
	.cfi_startproc
	endbr64
	push	rbp
	.cfi_def_cfa_offset 16
	.cfi_offset 6, -16
	mov	rbp, rsp
	.cfi_def_cfa_register 6
	sub	rsp, 16
	mov	QWORD PTR -8[rbp], rdi
	mov	rax, QWORD PTR -8[rbp]
	mov	rdi, rax
	call	_ZNKSt12_Vector_baseIxSaIxEE19_M_get_Tp_allocatorEv
	mov	rdi, rax
	call	_ZNSt6vectorIxSaIxEE11_S_max_sizeERKS0_
	leave
	.cfi_def_cfa 7, 8
	ret
	.cfi_endproc
.LFE11571:
	.size	_ZNKSt6vectorIxSaIxEE8max_sizeEv, .-_ZNKSt6vectorIxSaIxEE8max_sizeEv
	.section	.text._ZNSt16allocator_traitsISaIxEE8allocateERS0_m,"axG",@progbits,_ZNSt16allocator_traitsISaIxEE8allocateERS0_m,comdat
	.weak	_ZNSt16allocator_traitsISaIxEE8allocateERS0_m
	.type	_ZNSt16allocator_traitsISaIxEE8allocateERS0_m, @function
_ZNSt16allocator_traitsISaIxEE8allocateERS0_m:
.LFB11572:
	.cfi_startproc
	endbr64
	push	rbp
	.cfi_def_cfa_offset 16
	.cfi_offset 6, -16
	mov	rbp, rsp
	.cfi_def_cfa_register 6
	sub	rsp, 16
	mov	QWORD PTR -8[rbp], rdi
	mov	QWORD PTR -16[rbp], rsi
	mov	rcx, QWORD PTR -16[rbp]
	mov	rax, QWORD PTR -8[rbp]
	mov	edx, 0
	mov	rsi, rcx
	mov	rdi, rax
	call	_ZN9__gnu_cxx13new_allocatorIxE8allocateEmPKv
	leave
	.cfi_def_cfa 7, 8
	ret
	.cfi_endproc
.LFE11572:
	.size	_ZNSt16allocator_traitsISaIxEE8allocateERS0_m, .-_ZNSt16allocator_traitsISaIxEE8allocateERS0_m
	.section	.text._ZNSt6vectorIxSaIxEE14_S_do_relocateEPxS2_S2_RS0_St17integral_constantIbLb1EE,"axG",@progbits,_ZNSt6vectorIxSaIxEE14_S_do_relocateEPxS2_S2_RS0_St17integral_constantIbLb1EE,comdat
	.weak	_ZNSt6vectorIxSaIxEE14_S_do_relocateEPxS2_S2_RS0_St17integral_constantIbLb1EE
	.type	_ZNSt6vectorIxSaIxEE14_S_do_relocateEPxS2_S2_RS0_St17integral_constantIbLb1EE, @function
_ZNSt6vectorIxSaIxEE14_S_do_relocateEPxS2_S2_RS0_St17integral_constantIbLb1EE:
.LFB11573:
	.cfi_startproc
	endbr64
	push	rbp
	.cfi_def_cfa_offset 16
	.cfi_offset 6, -16
	mov	rbp, rsp
	.cfi_def_cfa_register 6
	sub	rsp, 32
	mov	QWORD PTR -8[rbp], rdi
	mov	QWORD PTR -16[rbp], rsi
	mov	QWORD PTR -24[rbp], rdx
