	.file	"horse_shoes.cpp"
	.intel_syntax noprefix
	.text
	.local	_ZStL8__ioinit
	.comm	_ZStL8__ioinit,1,1
	.globl	main
	.type	main, @function
main:
.LFB1731:
	.cfi_startproc
	endbr64
	push	rbp
	.cfi_def_cfa_offset 16
	.cfi_offset 6, -16
	mov	rbp, rsp
	.cfi_def_cfa_register 6
	push	rbx
	sub	rsp, 72
	.cfi_offset 3, -24
	mov	rax, QWORD PTR fs:40
	mov	QWORD PTR -24[rbp], rax
	xor	eax, eax
	mov	rax, rsp
	mov	rbx, rax
	mov	DWORD PTR -44[rbp], 4
	mov	DWORD PTR -68[rbp], 0
	mov	eax, DWORD PTR -44[rbp]
	movsx	rdx, eax
	sub	rdx, 1
	mov	QWORD PTR -40[rbp], rdx
	movsx	rdx, eax
	mov	r8, rdx
	mov	r9d, 0
	movsx	rdx, eax
	mov	rsi, rdx
	mov	edi, 0
	cdqe
	lea	rdx, 0[0+rax*4]
	mov	eax, 16
	sub	rax, 1
	add	rax, rdx
	mov	edi, 16
	mov	edx, 0
	div	rdi
	imul	rax, rax, 16
	mov	rcx, rax
	and	rcx, -4096
	mov	rdx, rsp
	sub	rdx, rcx
.L2:
	cmp	rsp, rdx
	je	.L3
	sub	rsp, 4096
	or	QWORD PTR 4088[rsp], 0
	jmp	.L2
.L3:
	mov	rdx, rax
	and	edx, 4095
	sub	rsp, rdx
	mov	rdx, rax
	and	edx, 4095
	test	rdx, rdx
	je	.L4
	and	eax, 4095
	sub	rax, 8
	add	rax, rsp
	or	QWORD PTR [rax], 0
.L4:
	mov	rax, rsp
	add	rax, 3
	shr	rax, 2
	sal	rax, 2
	mov	QWORD PTR -32[rbp], rax
	mov	DWORD PTR -64[rbp], 0
	jmp	.L5
.L6:
	lea	rax, -72[rbp]
	mov	rsi, rax
	lea	rax, _ZSt3cin[rip]
	mov	rdi, rax
	call	_ZNSirsERi@PLT
	mov	ecx, DWORD PTR -72[rbp]
	mov	rax, QWORD PTR -32[rbp]
	mov	edx, DWORD PTR -64[rbp]
	movsx	rdx, edx
	mov	DWORD PTR [rax+rdx*4], ecx
	add	DWORD PTR -64[rbp], 1
.L5:
	mov	eax, DWORD PTR -64[rbp]
	cmp	eax, DWORD PTR -44[rbp]
	jl	.L6
	mov	DWORD PTR -60[rbp], 0
	jmp	.L7
.L11:
	mov	DWORD PTR -56[rbp], 0
	jmp	.L8
.L10:
	mov	rax, QWORD PTR -32[rbp]
	mov	edx, DWORD PTR -56[rbp]
	movsx	rdx, edx
	mov	ecx, DWORD PTR [rax+rdx*4]
	mov	eax, DWORD PTR -56[rbp]
	lea	edx, 1[rax]
	mov	rax, QWORD PTR -32[rbp]
	movsx	rdx, edx
	mov	eax, DWORD PTR [rax+rdx*4]
	cmp	ecx, eax
	jle	.L9
	mov	eax, DWORD PTR -56[rbp]
	add	eax, 1
	cdqe
	lea	rdx, 0[0+rax*4]
	mov	rax, QWORD PTR -32[rbp]
	add	rdx, rax
	mov	eax, DWORD PTR -56[rbp]
	cdqe
	lea	rcx, 0[0+rax*4]
	mov	rax, QWORD PTR -32[rbp]
	add	rax, rcx
	mov	rsi, rdx
	mov	rdi, rax
	call	_ZSt4swapIiENSt9enable_ifIXsrSt6__and_IJSt6__not_ISt15__is_tuple_likeIT_EESt21is_move_constructibleIS4_ESt18is_move_assignableIS4_EEE5valueEvE4typeERS4_SE_
.L9:
	add	DWORD PTR -56[rbp], 1
.L8:
	mov	eax, DWORD PTR -44[rbp]
	sub	eax, DWORD PTR -60[rbp]
	sub	eax, 1
	cmp	DWORD PTR -56[rbp], eax
	jl	.L10
	add	DWORD PTR -60[rbp], 1
.L7:
	mov	eax, DWORD PTR -44[rbp]
	sub	eax, 1
	cmp	DWORD PTR -60[rbp], eax
	jl	.L11
	mov	DWORD PTR -52[rbp], 0
	jmp	.L12
.L17:
	mov	eax, DWORD PTR -52[rbp]
	add	eax, 1
	mov	DWORD PTR -48[rbp], eax
	jmp	.L13
.L16:
	mov	rax, QWORD PTR -32[rbp]
	mov	edx, DWORD PTR -52[rbp]
	movsx	rdx, edx
	mov	ecx, DWORD PTR [rax+rdx*4]
	mov	rax, QWORD PTR -32[rbp]
	mov	edx, DWORD PTR -48[rbp]
	movsx	rdx, edx
	mov	eax, DWORD PTR [rax+rdx*4]
	cmp	ecx, eax
	jne	.L14
	add	DWORD PTR -68[rbp], 1
	jmp	.L15
.L14:
	add	DWORD PTR -48[rbp], 1
.L13:
	mov	eax, DWORD PTR -48[rbp]
	cmp	eax, DWORD PTR -44[rbp]
	jl	.L16
.L15:
	add	DWORD PTR -52[rbp], 1
.L12:
	mov	eax, DWORD PTR -44[rbp]
	sub	eax, 1
	cmp	DWORD PTR -52[rbp], eax
	jl	.L17
	mov	eax, DWORD PTR -68[rbp]
	mov	esi, eax
	lea	rax, _ZSt4cout[rip]
	mov	rdi, rax
	call	_ZNSolsEi@PLT
	mov	eax, 0
	mov	rsp, rbx
	mov	rdx, QWORD PTR -24[rbp]
	sub	rdx, QWORD PTR fs:40
	je	.L19
	call	__stack_chk_fail@PLT
.L19:
	mov	rbx, QWORD PTR -8[rbp]
	leave
	.cfi_def_cfa 7, 8
	ret
	.cfi_endproc
.LFE1731:
	.size	main, .-main
	.section	.text._ZSt4moveIRiEONSt16remove_referenceIT_E4typeEOS2_,"axG",@progbits,_ZSt4moveIRiEONSt16remove_referenceIT_E4typeEOS2_,comdat
	.weak	_ZSt4moveIRiEONSt16remove_referenceIT_E4typeEOS2_
	.type	_ZSt4moveIRiEONSt16remove_referenceIT_E4typeEOS2_, @function
_ZSt4moveIRiEONSt16remove_referenceIT_E4typeEOS2_:
.LFB1994:
	.cfi_startproc
	endbr64
	push	rbp
	.cfi_def_cfa_offset 16
	.cfi_offset 6, -16
	mov	rbp, rsp
	.cfi_def_cfa_register 6
	mov	QWORD PTR -8[rbp], rdi
	mov	rax, QWORD PTR -8[rbp]
	pop	rbp
	.cfi_def_cfa 7, 8
	ret
	.cfi_endproc
.LFE1994:
	.size	_ZSt4moveIRiEONSt16remove_referenceIT_E4typeEOS2_, .-_ZSt4moveIRiEONSt16remove_referenceIT_E4typeEOS2_
	.section	.text._ZSt4swapIiENSt9enable_ifIXsrSt6__and_IJSt6__not_ISt15__is_tuple_likeIT_EESt21is_move_constructibleIS4_ESt18is_move_assignableIS4_EEE5valueEvE4typeERS4_SE_,"axG",@progbits,_ZSt4swapIiENSt9enable_ifIXsrSt6__and_IJSt6__not_ISt15__is_tuple_likeIT_EESt21is_move_constructibleIS4_ESt18is_move_assignableIS4_EEE5valueEvE4typeERS4_SE_,comdat
	.weak	_ZSt4swapIiENSt9enable_ifIXsrSt6__and_IJSt6__not_ISt15__is_tuple_likeIT_EESt21is_move_constructibleIS4_ESt18is_move_assignableIS4_EEE5valueEvE4typeERS4_SE_
	.type	_ZSt4swapIiENSt9enable_ifIXsrSt6__and_IJSt6__not_ISt15__is_tuple_likeIT_EESt21is_move_constructibleIS4_ESt18is_move_assignableIS4_EEE5valueEvE4typeERS4_SE_, @function
_ZSt4swapIiENSt9enable_ifIXsrSt6__and_IJSt6__not_ISt15__is_tuple_likeIT_EESt21is_move_constructibleIS4_ESt18is_move_assignableIS4_EEE5valueEvE4typeERS4_SE_:
.LFB1993:
	.cfi_startproc
	endbr64
	push	rbp
	.cfi_def_cfa_offset 16
	.cfi_offset 6, -16
	mov	rbp, rsp
	.cfi_def_cfa_register 6
	sub	rsp, 32
	mov	QWORD PTR -24[rbp], rdi
	mov	QWORD PTR -32[rbp], rsi
	mov	rax, QWORD PTR fs:40
	mov	QWORD PTR -8[rbp], rax
	xor	eax, eax
	mov	rax, QWORD PTR -24[rbp]
	mov	rdi, rax
	call	_ZSt4moveIRiEONSt16remove_referenceIT_E4typeEOS2_
	mov	eax, DWORD PTR [rax]
	mov	DWORD PTR -12[rbp], eax
	mov	rax, QWORD PTR -32[rbp]
	mov	rdi, rax
	call	_ZSt4moveIRiEONSt16remove_referenceIT_E4typeEOS2_
	mov	edx, DWORD PTR [rax]
	mov	rax, QWORD PTR -24[rbp]
	mov	DWORD PTR [rax], edx
	lea	rax, -12[rbp]
	mov	rdi, rax
	call	_ZSt4moveIRiEONSt16remove_referenceIT_E4typeEOS2_
	mov	edx, DWORD PTR [rax]
	mov	rax, QWORD PTR -32[rbp]
	mov	DWORD PTR [rax], edx
	nop
	mov	rax, QWORD PTR -8[rbp]
	sub	rax, QWORD PTR fs:40
	je	.L23
	call	__stack_chk_fail@PLT
.L23:
	leave
	.cfi_def_cfa 7, 8
	ret
	.cfi_endproc
.LFE1993:
	.size	_ZSt4swapIiENSt9enable_ifIXsrSt6__and_IJSt6__not_ISt15__is_tuple_likeIT_EESt21is_move_constructibleIS4_ESt18is_move_assignableIS4_EEE5valueEvE4typeERS4_SE_, .-_ZSt4swapIiENSt9enable_ifIXsrSt6__and_IJSt6__not_ISt15__is_tuple_likeIT_EESt21is_move_constructibleIS4_ESt18is_move_assignableIS4_EEE5valueEvE4typeERS4_SE_
	.text
	.type	_Z41__static_initialization_and_destruction_0ii, @function
_Z41__static_initialization_and_destruction_0ii:
.LFB2229:
	.cfi_startproc
	endbr64
	push	rbp
	.cfi_def_cfa_offset 16
	.cfi_offset 6, -16
	mov	rbp, rsp
	.cfi_def_cfa_register 6
	sub	rsp, 16
	mov	DWORD PTR -4[rbp], edi
	mov	DWORD PTR -8[rbp], esi
	cmp	DWORD PTR -4[rbp], 1
	jne	.L26
	cmp	DWORD PTR -8[rbp], 65535
	jne	.L26
	lea	rax, _ZStL8__ioinit[rip]
	mov	rdi, rax
	call	_ZNSt8ios_base4InitC1Ev@PLT
	lea	rax, __dso_handle[rip]
	mov	rdx, rax
	lea	rax, _ZStL8__ioinit[rip]
	mov	rsi, rax
	mov	rax, QWORD PTR _ZNSt8ios_base4InitD1Ev@GOTPCREL[rip]
	mov	rdi, rax
	call	__cxa_atexit@PLT
.L26:
	nop
	leave
	.cfi_def_cfa 7, 8
	ret
	.cfi_endproc
.LFE2229:
	.size	_Z41__static_initialization_and_destruction_0ii, .-_Z41__static_initialization_and_destruction_0ii
	.type	_GLOBAL__sub_I_main, @function
_GLOBAL__sub_I_main:
.LFB2230:
	.cfi_startproc
	endbr64
	push	rbp
	.cfi_def_cfa_offset 16
	.cfi_offset 6, -16
	mov	rbp, rsp
	.cfi_def_cfa_register 6
	mov	esi, 65535
	mov	edi, 1
	call	_Z41__static_initialization_and_destruction_0ii
	pop	rbp
	.cfi_def_cfa 7, 8
	ret
	.cfi_endproc
.LFE2230:
	.size	_GLOBAL__sub_I_main, .-_GLOBAL__sub_I_main
	.section	.init_array,"aw"
	.align 8
	.quad	_GLOBAL__sub_I_main
	.hidden	__dso_handle
	.ident	"GCC: (Ubuntu 11.4.0-1ubuntu1~22.04.2) 11.4.0"
	.section	.note.GNU-stack,"",@progbits
	.section	.note.gnu.property,"a"
	.align 8
	.long	1f - 0f
	.long	4f - 1f
	.long	5
0:
	.string	"GNU"
1:
	.align 8
	.long	0xc0000002
	.long	3f - 2f
2:
	.long	0x3
3:
	.align 8
4:
