	.file	"Knapsack.cpp"
	.intel_syntax noprefix
	.text
	.section	.text._ZnwmPv,"axG",@progbits,_ZnwmPv,comdat
	.weak	_ZnwmPv
	.type	_ZnwmPv, @function
_ZnwmPv:
.LFB38:
	.cfi_startproc
	endbr64
	push	rbp
	.cfi_def_cfa_offset 16
	.cfi_offset 6, -16
	mov	rbp, rsp
	.cfi_def_cfa_register 6
	mov	QWORD PTR -8[rbp], rdi
	mov	QWORD PTR -16[rbp], rsi
	mov	rax, QWORD PTR -16[rbp]
	pop	rbp
	.cfi_def_cfa 7, 8
	ret
	.cfi_endproc
.LFE38:
	.size	_ZnwmPv, .-_ZnwmPv
	.section	.text._ZN9__gnu_cxx5__ops16__iter_less_iterEv,"axG",@progbits,_ZN9__gnu_cxx5__ops16__iter_less_iterEv,comdat
	.weak	_ZN9__gnu_cxx5__ops16__iter_less_iterEv
	.type	_ZN9__gnu_cxx5__ops16__iter_less_iterEv, @function
_ZN9__gnu_cxx5__ops16__iter_less_iterEv:
.LFB280:
	.cfi_startproc
	endbr64
	push	rbp
	.cfi_def_cfa_offset 16
	.cfi_offset 6, -16
	mov	rbp, rsp
	.cfi_def_cfa_register 6
	nop
	pop	rbp
	.cfi_def_cfa 7, 8
	ret
	.cfi_endproc
.LFE280:
	.size	_ZN9__gnu_cxx5__ops16__iter_less_iterEv, .-_ZN9__gnu_cxx5__ops16__iter_less_iterEv
	.section	.text._ZN9__gnu_cxx5__ops14_Iter_less_valC2ENS0_15_Iter_less_iterE,"axG",@progbits,_ZN9__gnu_cxx5__ops14_Iter_less_valC5ENS0_15_Iter_less_iterE,comdat
	.align 2
	.weak	_ZN9__gnu_cxx5__ops14_Iter_less_valC2ENS0_15_Iter_less_iterE
	.type	_ZN9__gnu_cxx5__ops14_Iter_less_valC2ENS0_15_Iter_less_iterE, @function
_ZN9__gnu_cxx5__ops14_Iter_less_valC2ENS0_15_Iter_less_iterE:
.LFB282:
	.cfi_startproc
	endbr64
	push	rbp
	.cfi_def_cfa_offset 16
	.cfi_offset 6, -16
	mov	rbp, rsp
	.cfi_def_cfa_register 6
	mov	QWORD PTR -8[rbp], rdi
	nop
	pop	rbp
	.cfi_def_cfa 7, 8
	ret
	.cfi_endproc
.LFE282:
	.size	_ZN9__gnu_cxx5__ops14_Iter_less_valC2ENS0_15_Iter_less_iterE, .-_ZN9__gnu_cxx5__ops14_Iter_less_valC2ENS0_15_Iter_less_iterE
	.weak	_ZN9__gnu_cxx5__ops14_Iter_less_valC1ENS0_15_Iter_less_iterE
	.set	_ZN9__gnu_cxx5__ops14_Iter_less_valC1ENS0_15_Iter_less_iterE,_ZN9__gnu_cxx5__ops14_Iter_less_valC2ENS0_15_Iter_less_iterE
	.section	.text._ZN9__gnu_cxx5__ops15__val_comp_iterENS0_15_Iter_less_iterE,"axG",@progbits,_ZN9__gnu_cxx5__ops15__val_comp_iterENS0_15_Iter_less_iterE,comdat
	.weak	_ZN9__gnu_cxx5__ops15__val_comp_iterENS0_15_Iter_less_iterE
	.type	_ZN9__gnu_cxx5__ops15__val_comp_iterENS0_15_Iter_less_iterE, @function
_ZN9__gnu_cxx5__ops15__val_comp_iterENS0_15_Iter_less_iterE:
.LFB292:
	.cfi_startproc
	endbr64
	push	rbp
	.cfi_def_cfa_offset 16
	.cfi_offset 6, -16
	mov	rbp, rsp
	.cfi_def_cfa_register 6
	nop
	pop	rbp
	.cfi_def_cfa 7, 8
	ret
	.cfi_endproc
.LFE292:
	.size	_ZN9__gnu_cxx5__ops15__val_comp_iterENS0_15_Iter_less_iterE, .-_ZN9__gnu_cxx5__ops15__val_comp_iterENS0_15_Iter_less_iterE
	.section	.text._ZSt4__lgl,"axG",@progbits,_ZSt4__lgl,comdat
	.weak	_ZSt4__lgl
	.type	_ZSt4__lgl, @function
_ZSt4__lgl:
.LFB405:
	.cfi_startproc
	endbr64
	push	rbp
	.cfi_def_cfa_offset 16
	.cfi_offset 6, -16
	mov	rbp, rsp
	.cfi_def_cfa_register 6
	mov	QWORD PTR -8[rbp], rdi
	mov	rax, QWORD PTR -8[rbp]
	bsr	rax, rax
	xor	rax, 63
	mov	edx, eax
	mov	eax, 63
	sub	eax, edx
	cdqe
	pop	rbp
	.cfi_def_cfa 7, 8
	ret
	.cfi_endproc
.LFE405:
	.size	_ZSt4__lgl, .-_ZSt4__lgl
	.section	.text._ZNSt11char_traitsIcE2ltERKcS2_,"axG",@progbits,_ZNSt11char_traitsIcE2ltERKcS2_,comdat
	.weak	_ZNSt11char_traitsIcE2ltERKcS2_
	.type	_ZNSt11char_traitsIcE2ltERKcS2_, @function
_ZNSt11char_traitsIcE2ltERKcS2_:
.LFB447:
	.cfi_startproc
	endbr64
	push	rbp
	.cfi_def_cfa_offset 16
	.cfi_offset 6, -16
	mov	rbp, rsp
	.cfi_def_cfa_register 6
	mov	QWORD PTR -8[rbp], rdi
	mov	QWORD PTR -16[rbp], rsi
	mov	rax, QWORD PTR -8[rbp]
	movzx	eax, BYTE PTR [rax]
	mov	edx, eax
	mov	rax, QWORD PTR -16[rbp]
	movzx	eax, BYTE PTR [rax]
	cmp	dl, al
	setb	al
	pop	rbp
	.cfi_def_cfa 7, 8
	ret
	.cfi_endproc
.LFE447:
	.size	_ZNSt11char_traitsIcE2ltERKcS2_, .-_ZNSt11char_traitsIcE2ltERKcS2_
	.section	.text._ZNSt11char_traitsIcE7compareEPKcS2_m,"axG",@progbits,_ZNSt11char_traitsIcE7compareEPKcS2_m,comdat
	.weak	_ZNSt11char_traitsIcE7compareEPKcS2_m
	.type	_ZNSt11char_traitsIcE7compareEPKcS2_m, @function
_ZNSt11char_traitsIcE7compareEPKcS2_m:
.LFB448:
	.cfi_startproc
	endbr64
	push	rbp
	.cfi_def_cfa_offset 16
	.cfi_offset 6, -16
	mov	rbp, rsp
	.cfi_def_cfa_register 6
	sub	rsp, 48
	mov	QWORD PTR -24[rbp], rdi
	mov	QWORD PTR -32[rbp], rsi
	mov	QWORD PTR -40[rbp], rdx
	cmp	QWORD PTR -40[rbp], 0
	jne	.L13
	mov	eax, 0
	jmp	.L14
.L13:
	mov	eax, 0
	test	al, al
	je	.L15
	mov	QWORD PTR -8[rbp], 0
	jmp	.L16
.L19:
	mov	rdx, QWORD PTR -32[rbp]
	mov	rax, QWORD PTR -8[rbp]
	add	rdx, rax
	mov	rcx, QWORD PTR -24[rbp]
	mov	rax, QWORD PTR -8[rbp]
	add	rax, rcx
	mov	rsi, rdx
	mov	rdi, rax
	call	_ZNSt11char_traitsIcE2ltERKcS2_
	test	al, al
	je	.L17
	mov	eax, -1
	jmp	.L14
.L17:
	mov	rdx, QWORD PTR -24[rbp]
	mov	rax, QWORD PTR -8[rbp]
	add	rdx, rax
	mov	rcx, QWORD PTR -32[rbp]
	mov	rax, QWORD PTR -8[rbp]
	add	rax, rcx
	mov	rsi, rdx
	mov	rdi, rax
	call	_ZNSt11char_traitsIcE2ltERKcS2_
	test	al, al
	je	.L18
	mov	eax, 1
	jmp	.L14
.L18:
	add	QWORD PTR -8[rbp], 1
.L16:
	mov	rax, QWORD PTR -8[rbp]
	cmp	rax, QWORD PTR -40[rbp]
	jb	.L19
	mov	eax, 0
	jmp	.L14
.L15:
	mov	rdx, QWORD PTR -40[rbp]
	mov	rcx, QWORD PTR -32[rbp]
	mov	rax, QWORD PTR -24[rbp]
	mov	rsi, rcx
	mov	rdi, rax
	call	memcmp@PLT
	nop
.L14:
	leave
	.cfi_def_cfa 7, 8
	ret
	.cfi_endproc
.LFE448:
	.size	_ZNSt11char_traitsIcE7compareEPKcS2_m, .-_ZNSt11char_traitsIcE7compareEPKcS2_m
	.local	_ZStL8__ioinit
	.comm	_ZStL8__ioinit,1,1
	.section	.text._ZSt3minImERKT_S2_S2_,"axG",@progbits,_ZSt3minImERKT_S2_S2_,comdat
	.weak	_ZSt3minImERKT_S2_S2_
	.type	_ZSt3minImERKT_S2_S2_, @function
_ZSt3minImERKT_S2_S2_:
.LFB3255:
	.cfi_startproc
	endbr64
	push	rbp
	.cfi_def_cfa_offset 16
	.cfi_offset 6, -16
	mov	rbp, rsp
	.cfi_def_cfa_register 6
	mov	QWORD PTR -8[rbp], rdi
	mov	QWORD PTR -16[rbp], rsi
	mov	rax, QWORD PTR -16[rbp]
	mov	rdx, QWORD PTR [rax]
	mov	rax, QWORD PTR -8[rbp]
	mov	rax, QWORD PTR [rax]
	cmp	rdx, rax
	jnb	.L21
	mov	rax, QWORD PTR -16[rbp]
	jmp	.L22
.L21:
	mov	rax, QWORD PTR -8[rbp]
.L22:
	pop	rbp
	.cfi_def_cfa 7, 8
	ret
	.cfi_endproc
.LFE3255:
	.size	_ZSt3minImERKT_S2_S2_, .-_ZSt3minImERKT_S2_S2_
	.section	.rodata
	.type	_ZN6__pstl9execution2v1L3seqE, @object
	.size	_ZN6__pstl9execution2v1L3seqE, 1
_ZN6__pstl9execution2v1L3seqE:
	.zero	1
	.type	_ZN6__pstl9execution2v1L3parE, @object
	.size	_ZN6__pstl9execution2v1L3parE, 1
_ZN6__pstl9execution2v1L3parE:
	.zero	1
	.type	_ZN6__pstl9execution2v1L9par_unseqE, @object
	.size	_ZN6__pstl9execution2v1L9par_unseqE, 1
_ZN6__pstl9execution2v1L9par_unseqE:
	.zero	1
	.type	_ZN6__pstl9execution2v1L5unseqE, @object
	.size	_ZN6__pstl9execution2v1L5unseqE, 1
_ZN6__pstl9execution2v1L5unseqE:
	.zero	1
	.align 4
	.type	_ZN9__gnu_cxxL21__default_lock_policyE, @object
	.size	_ZN9__gnu_cxxL21__default_lock_policyE, 4
_ZN9__gnu_cxxL21__default_lock_policyE:
	.long	2
	.align 4
	.type	_ZNSt15regex_constantsL13error_collateE, @object
	.size	_ZNSt15regex_constantsL13error_collateE, 4
_ZNSt15regex_constantsL13error_collateE:
	.zero	4
	.align 4
	.type	_ZNSt15regex_constantsL11error_ctypeE, @object
	.size	_ZNSt15regex_constantsL11error_ctypeE, 4
_ZNSt15regex_constantsL11error_ctypeE:
	.long	1
	.align 4
	.type	_ZNSt15regex_constantsL12error_escapeE, @object
	.size	_ZNSt15regex_constantsL12error_escapeE, 4
_ZNSt15regex_constantsL12error_escapeE:
	.long	2
	.align 4
	.type	_ZNSt15regex_constantsL13error_backrefE, @object
	.size	_ZNSt15regex_constantsL13error_backrefE, 4
_ZNSt15regex_constantsL13error_backrefE:
	.long	3
	.align 4
	.type	_ZNSt15regex_constantsL11error_brackE, @object
	.size	_ZNSt15regex_constantsL11error_brackE, 4
_ZNSt15regex_constantsL11error_brackE:
	.long	4
	.align 4
	.type	_ZNSt15regex_constantsL11error_parenE, @object
	.size	_ZNSt15regex_constantsL11error_parenE, 4
_ZNSt15regex_constantsL11error_parenE:
	.long	5
	.align 4
	.type	_ZNSt15regex_constantsL11error_braceE, @object
	.size	_ZNSt15regex_constantsL11error_braceE, 4
_ZNSt15regex_constantsL11error_braceE:
	.long	6
	.align 4
	.type	_ZNSt15regex_constantsL14error_badbraceE, @object
	.size	_ZNSt15regex_constantsL14error_badbraceE, 4
_ZNSt15regex_constantsL14error_badbraceE:
	.long	7
	.align 4
	.type	_ZNSt15regex_constantsL11error_rangeE, @object
	.size	_ZNSt15regex_constantsL11error_rangeE, 4
_ZNSt15regex_constantsL11error_rangeE:
	.long	8
	.align 4
	.type	_ZNSt15regex_constantsL11error_spaceE, @object
	.size	_ZNSt15regex_constantsL11error_spaceE, 4
_ZNSt15regex_constantsL11error_spaceE:
	.long	9
	.align 4
	.type	_ZNSt15regex_constantsL15error_badrepeatE, @object
	.size	_ZNSt15regex_constantsL15error_badrepeatE, 4
_ZNSt15regex_constantsL15error_badrepeatE:
	.long	10
	.align 4
	.type	_ZNSt15regex_constantsL16error_complexityE, @object
	.size	_ZNSt15regex_constantsL16error_complexityE, 4
_ZNSt15regex_constantsL16error_complexityE:
	.long	11
	.align 4
	.type	_ZNSt15regex_constantsL11error_stackE, @object
	.size	_ZNSt15regex_constantsL11error_stackE, 4
_ZNSt15regex_constantsL11error_stackE:
	.long	12
	.align 8
	.type	_ZNSt8__detailL19_S_invalid_state_idE, @object
	.size	_ZNSt8__detailL19_S_invalid_state_idE, 8
_ZNSt8__detailL19_S_invalid_state_idE:
	.quad	-1
	.align 4
	.type	_ZL2sz, @object
	.size	_ZL2sz, 4
_ZL2sz:
	.long	1000010
	.globl	composite
	.bss
	.align 32
	.type	composite, @object
	.size	composite, 1000010
composite:
	.zero	1000010
	.section	.text._ZNSt12_Vector_baseIxSaIxEE12_Vector_implD2Ev,"axG",@progbits,_ZNSt12_Vector_baseIxSaIxEE12_Vector_implD5Ev,comdat
	.align 2
	.weak	_ZNSt12_Vector_baseIxSaIxEE12_Vector_implD2Ev
	.type	_ZNSt12_Vector_baseIxSaIxEE12_Vector_implD2Ev, @function
_ZNSt12_Vector_baseIxSaIxEE12_Vector_implD2Ev:
.LFB9708:
	.cfi_startproc
	endbr64
	push	rbp
	.cfi_def_cfa_offset 16
	.cfi_offset 6, -16
	mov	rbp, rsp
	.cfi_def_cfa_register 6
	sub	rsp, 16
	mov	QWORD PTR -8[rbp], rdi
	mov	rax, QWORD PTR -8[rbp]
	mov	rdi, rax
	call	_ZNSaIxED2Ev
	nop
	leave
	.cfi_def_cfa 7, 8
	ret
	.cfi_endproc
.LFE9708:
	.size	_ZNSt12_Vector_baseIxSaIxEE12_Vector_implD2Ev, .-_ZNSt12_Vector_baseIxSaIxEE12_Vector_implD2Ev
	.weak	_ZNSt12_Vector_baseIxSaIxEE12_Vector_implD1Ev
	.set	_ZNSt12_Vector_baseIxSaIxEE12_Vector_implD1Ev,_ZNSt12_Vector_baseIxSaIxEE12_Vector_implD2Ev
	.section	.text._ZNSt12_Vector_baseIxSaIxEEC2Ev,"axG",@progbits,_ZNSt12_Vector_baseIxSaIxEEC5Ev,comdat
	.align 2
	.weak	_ZNSt12_Vector_baseIxSaIxEEC2Ev
	.type	_ZNSt12_Vector_baseIxSaIxEEC2Ev, @function
_ZNSt12_Vector_baseIxSaIxEEC2Ev:
.LFB9710:
	.cfi_startproc
	endbr64
	push	rbp
	.cfi_def_cfa_offset 16
	.cfi_offset 6, -16
	mov	rbp, rsp
	.cfi_def_cfa_register 6
	sub	rsp, 16
	mov	QWORD PTR -8[rbp], rdi
	mov	rax, QWORD PTR -8[rbp]
	mov	rdi, rax
	call	_ZNSt12_Vector_baseIxSaIxEE12_Vector_implC1Ev
	nop
	leave
	.cfi_def_cfa 7, 8
	ret
	.cfi_endproc
.LFE9710:
	.size	_ZNSt12_Vector_baseIxSaIxEEC2Ev, .-_ZNSt12_Vector_baseIxSaIxEEC2Ev
	.weak	_ZNSt12_Vector_baseIxSaIxEEC1Ev
	.set	_ZNSt12_Vector_baseIxSaIxEEC1Ev,_ZNSt12_Vector_baseIxSaIxEEC2Ev
	.section	.text._ZNSt6vectorIxSaIxEEC2Ev,"axG",@progbits,_ZNSt6vectorIxSaIxEEC5Ev,comdat
	.align 2
	.weak	_ZNSt6vectorIxSaIxEEC2Ev
	.type	_ZNSt6vectorIxSaIxEEC2Ev, @function
_ZNSt6vectorIxSaIxEEC2Ev:
.LFB9712:
	.cfi_startproc
	endbr64
	push	rbp
	.cfi_def_cfa_offset 16
	.cfi_offset 6, -16
	mov	rbp, rsp
	.cfi_def_cfa_register 6
	sub	rsp, 16
	mov	QWORD PTR -8[rbp], rdi
	mov	rax, QWORD PTR -8[rbp]
	mov	rdi, rax
	call	_ZNSt12_Vector_baseIxSaIxEEC2Ev
	nop
	leave
	.cfi_def_cfa 7, 8
	ret
	.cfi_endproc
.LFE9712:
	.size	_ZNSt6vectorIxSaIxEEC2Ev, .-_ZNSt6vectorIxSaIxEEC2Ev
	.weak	_ZNSt6vectorIxSaIxEEC1Ev
	.set	_ZNSt6vectorIxSaIxEEC1Ev,_ZNSt6vectorIxSaIxEEC2Ev
	.globl	primes
	.bss
	.align 16
	.type	primes, @object
	.size	primes, 24
primes:
	.zero	24
	.text
	.globl	_Z5sievev
	.type	_Z5sievev, @function
_Z5sievev:
.LFB9714:
	.cfi_startproc
	endbr64
	push	rbp
	.cfi_def_cfa_offset 16
	.cfi_offset 6, -16
	mov	rbp, rsp
	.cfi_def_cfa_register 6
	mov	BYTE PTR composite[rip+1], 1
	movzx	eax, BYTE PTR composite[rip+1]
	mov	BYTE PTR composite[rip], al
	mov	DWORD PTR -8[rbp], 2
	jmp	.L27
.L31:
	mov	eax, DWORD PTR -8[rbp]
	cdqe
	lea	rdx, composite[rip]
	movzx	eax, BYTE PTR [rax+rdx]
	xor	eax, 1
	test	al, al
	je	.L28
	mov	eax, DWORD PTR -8[rbp]
	imul	eax, eax
	mov	DWORD PTR -4[rbp], eax
	jmp	.L29
.L30:
	mov	eax, DWORD PTR -4[rbp]
	cdqe
	lea	rdx, composite[rip]
	mov	BYTE PTR [rax+rdx], 1
	mov	eax, DWORD PTR -8[rbp]
	add	DWORD PTR -4[rbp], eax
.L29:
	cmp	DWORD PTR -4[rbp], 1000010
	jle	.L30
.L28:
	add	DWORD PTR -8[rbp], 1
.L27:
	mov	eax, DWORD PTR -8[rbp]
	imul	eax, eax
	cmp	eax, 1000010
	jle	.L31
	nop
	nop
	pop	rbp
	.cfi_def_cfa 7, 8
	ret
	.cfi_endproc
.LFE9714:
	.size	_Z5sievev, .-_Z5sievev
	.globl	_Z11linearSievei
	.type	_Z11linearSievei, @function
_Z11linearSievei:
.LFB9715:
	.cfi_startproc
	endbr64
	push	rbp
	.cfi_def_cfa_offset 16
	.cfi_offset 6, -16
	mov	rbp, rsp
	.cfi_def_cfa_register 6
	push	rbx
	sub	rsp, 56
	.cfi_offset 3, -24
	mov	DWORD PTR -52[rbp], edi
	mov	rax, QWORD PTR fs:40
	mov	QWORD PTR -24[rbp], rax
	xor	eax, eax
	mov	BYTE PTR composite[rip+1], 1
	movzx	eax, BYTE PTR composite[rip+1]
	mov	BYTE PTR composite[rip], al
	mov	DWORD PTR -40[rbp], 2
	jmp	.L33
.L40:
	mov	eax, DWORD PTR -40[rbp]
	cdqe
	lea	rdx, composite[rip]
	movzx	eax, BYTE PTR [rax+rdx]
	xor	eax, 1
	test	al, al
	je	.L34
	mov	eax, DWORD PTR -40[rbp]
	cdqe
	mov	QWORD PTR -32[rbp], rax
	lea	rax, -32[rbp]
	mov	rsi, rax
	lea	rax, primes[rip]
	mov	rdi, rax
	call	_ZNSt6vectorIxSaIxEE9push_backEOx
.L34:
	mov	DWORD PTR -36[rbp], 0
	jmp	.L35
.L39:
	mov	eax, DWORD PTR -40[rbp]
	movsx	rbx, eax
	mov	eax, DWORD PTR -36[rbp]
	cdqe
	mov	rsi, rax
	lea	rax, primes[rip]
	mov	rdi, rax
	call	_ZNSt6vectorIxSaIxEEixEm
	mov	rax, QWORD PTR [rax]
	mov	rdx, rbx
	imul	rdx, rax
	mov	eax, DWORD PTR -52[rbp]
	cdqe
	cmp	rdx, rax
	setg	al
	test	al, al
	jne	.L42
	mov	eax, DWORD PTR -40[rbp]
	movsx	rbx, eax
	mov	eax, DWORD PTR -36[rbp]
	cdqe
	mov	rsi, rax
	lea	rax, primes[rip]
	mov	rdi, rax
	call	_ZNSt6vectorIxSaIxEEixEm
	mov	rax, QWORD PTR [rax]
	imul	rax, rbx
	lea	rdx, composite[rip]
	mov	BYTE PTR [rax+rdx], 1
	mov	eax, DWORD PTR -40[rbp]
	movsx	rbx, eax
	mov	eax, DWORD PTR -36[rbp]
	cdqe
	mov	rsi, rax
	lea	rax, primes[rip]
	mov	rdi, rax
	call	_ZNSt6vectorIxSaIxEEixEm
	mov	rcx, QWORD PTR [rax]
	mov	rax, rbx
	cqo
	idiv	rcx
	mov	rax, rdx
	test	rax, rax
	sete	al
	test	al, al
	jne	.L43
	add	DWORD PTR -36[rbp], 1
.L35:
	mov	eax, DWORD PTR -36[rbp]
	movsx	rbx, eax
	lea	rax, primes[rip]
	mov	rdi, rax
	call	_ZNKSt6vectorIxSaIxEE4sizeEv
	cmp	rbx, rax
	setb	al
	test	al, al
	jne	.L39
	jmp	.L37
.L42:
	nop
	jmp	.L37
.L43:
	nop
.L37:
	add	DWORD PTR -40[rbp], 1
.L33:
	mov	eax, DWORD PTR -40[rbp]
	cmp	eax, DWORD PTR -52[rbp]
	jle	.L40
	nop
	mov	rax, QWORD PTR -24[rbp]
	sub	rax, QWORD PTR fs:40
	je	.L41
	call	__stack_chk_fail@PLT
.L41:
	mov	rbx, QWORD PTR -8[rbp]
	leave
	.cfi_def_cfa 7, 8
	ret
	.cfi_endproc
.LFE9715:
	.size	_Z11linearSievei, .-_Z11linearSievei
	.globl	_Z3gcdii
	.type	_Z3gcdii, @function
_Z3gcdii:
.LFB9716:
	.cfi_startproc
	endbr64
	push	rbp
	.cfi_def_cfa_offset 16
	.cfi_offset 6, -16
	mov	rbp, rsp
	.cfi_def_cfa_register 6
	sub	rsp, 16
	mov	DWORD PTR -4[rbp], edi
	mov	DWORD PTR -8[rbp], esi
	cmp	DWORD PTR -8[rbp], 0
	jne	.L45
	mov	eax, DWORD PTR -4[rbp]
	jmp	.L46
.L45:
	mov	eax, DWORD PTR -4[rbp]
	cdq
	idiv	DWORD PTR -8[rbp]
	mov	eax, DWORD PTR -8[rbp]
	mov	esi, edx
	mov	edi, eax
	call	_Z3gcdii
	nop
.L46:
	leave
	.cfi_def_cfa 7, 8
	ret
	.cfi_endproc
.LFE9716:
	.size	_Z3gcdii, .-_Z3gcdii
	.globl	_Z7isPrimei
	.type	_Z7isPrimei, @function
_Z7isPrimei:
.LFB9717:
	.cfi_startproc
	endbr64
	push	rbp
	.cfi_def_cfa_offset 16
	.cfi_offset 6, -16
	mov	rbp, rsp
	.cfi_def_cfa_register 6
	sub	rsp, 32
	mov	DWORD PTR -20[rbp], edi
	cmp	DWORD PTR -20[rbp], 1
	jg	.L48
	mov	eax, 0
	jmp	.L49
.L48:
	mov	DWORD PTR -4[rbp], 2
	jmp	.L50
.L52:
	mov	eax, DWORD PTR -20[rbp]
	cdq
	idiv	DWORD PTR -4[rbp]
	mov	eax, edx
	test	eax, eax
	jne	.L51
	mov	eax, 0
	jmp	.L49
.L51:
	add	DWORD PTR -4[rbp], 1
.L50:
	pxor	xmm1, xmm1
	cvtsi2sd	xmm1, DWORD PTR -4[rbp]
	movsd	QWORD PTR -32[rbp], xmm1
	mov	eax, DWORD PTR -20[rbp]
	mov	edi, eax
	call	_ZSt4sqrtIiEN9__gnu_cxx11__enable_ifIXsrSt12__is_integerIT_E7__valueEdE6__typeES3_
	movq	rax, xmm0
	movq	xmm2, rax
	comisd	xmm2, QWORD PTR -32[rbp]
	setnb	al
	test	al, al
	jne	.L52
	mov	eax, 1
.L49:
	leave
	.cfi_def_cfa 7, 8
	ret
	.cfi_endproc
.LFE9717:
	.size	_Z7isPrimei, .-_Z7isPrimei
	.globl	_Z3lcmii
	.type	_Z3lcmii, @function
_Z3lcmii:
.LFB9718:
	.cfi_startproc
	endbr64
	push	rbp
	.cfi_def_cfa_offset 16
	.cfi_offset 6, -16
	mov	rbp, rsp
	.cfi_def_cfa_register 6
	sub	rsp, 16
	mov	DWORD PTR -4[rbp], edi
	mov	DWORD PTR -8[rbp], esi
	mov	edx, DWORD PTR -8[rbp]
	mov	eax, DWORD PTR -4[rbp]
	mov	esi, edx
	mov	edi, eax
	call	_Z3gcdii
	mov	ecx, eax
	mov	eax, DWORD PTR -4[rbp]
	cdq
	idiv	ecx
	imul	eax, DWORD PTR -8[rbp]
	leave
	.cfi_def_cfa 7, 8
	ret
	.cfi_endproc
.LFE9718:
	.size	_Z3lcmii, .-_Z3lcmii
	.globl	_Z5luckyNSt7__cxx1112basic_stringIcSt11char_traitsIcESaIcEEE
	.type	_Z5luckyNSt7__cxx1112basic_stringIcSt11char_traitsIcESaIcEEE, @function
_Z5luckyNSt7__cxx1112basic_stringIcSt11char_traitsIcESaIcEEE:
.LFB9719:
	.cfi_startproc
	endbr64
	push	rbp
	.cfi_def_cfa_offset 16
	.cfi_offset 6, -16
	mov	rbp, rsp
	.cfi_def_cfa_register 6
	push	rbx
	sub	rsp, 40
	.cfi_offset 3, -24
	mov	QWORD PTR -40[rbp], rdi
	mov	DWORD PTR -20[rbp], 0
	jmp	.L56
.L61:
	mov	eax, DWORD PTR -20[rbp]
	movsx	rdx, eax
	mov	rax, QWORD PTR -40[rbp]
	mov	rsi, rdx
	mov	rdi, rax
	call	_ZNSt7__cxx1112basic_stringIcSt11char_traitsIcESaIcEEixEm@PLT
	movzx	eax, BYTE PTR [rax]
	cmp	al, 52
	je	.L57
	mov	eax, DWORD PTR -20[rbp]
	movsx	rdx, eax
	mov	rax, QWORD PTR -40[rbp]
	mov	rsi, rdx
	mov	rdi, rax
	call	_ZNSt7__cxx1112basic_stringIcSt11char_traitsIcESaIcEEixEm@PLT
	movzx	eax, BYTE PTR [rax]
	cmp	al, 55
	je	.L57
	mov	eax, 1
	jmp	.L58
.L57:
	mov	eax, 0
.L58:
	test	al, al
	je	.L59
	mov	eax, 0
	jmp	.L60
.L59:
	add	DWORD PTR -20[rbp], 1
.L56:
	mov	eax, DWORD PTR -20[rbp]
	movsx	rbx, eax
	mov	rax, QWORD PTR -40[rbp]
	mov	rdi, rax
	call	_ZNKSt7__cxx1112basic_stringIcSt11char_traitsIcESaIcEE4sizeEv@PLT
	cmp	rbx, rax
	setb	al
	test	al, al
	jne	.L61
	mov	eax, 1
.L60:
	mov	rbx, QWORD PTR -8[rbp]
	leave
	.cfi_def_cfa 7, 8
	ret
	.cfi_endproc
.LFE9719:
	.size	_Z5luckyNSt7__cxx1112basic_stringIcSt11char_traitsIcESaIcEEE, .-_Z5luckyNSt7__cxx1112basic_stringIcSt11char_traitsIcESaIcEEE
	.globl	_Z12isPalindromeNSt7__cxx1112basic_stringIcSt11char_traitsIcESaIcEEE
	.type	_Z12isPalindromeNSt7__cxx1112basic_stringIcSt11char_traitsIcESaIcEEE, @function
_Z12isPalindromeNSt7__cxx1112basic_stringIcSt11char_traitsIcESaIcEEE:
.LFB9720:
	.cfi_startproc
	.cfi_personality 0x9b,DW.ref.__gxx_personality_v0
	.cfi_lsda 0x1b,.LLSDA9720
	endbr64
	push	rbp
	.cfi_def_cfa_offset 16
	.cfi_offset 6, -16
	mov	rbp, rsp
	.cfi_def_cfa_register 6
	push	rbx
	sub	rsp, 72
	.cfi_offset 3, -24
	mov	QWORD PTR -72[rbp], rdi
	mov	rax, QWORD PTR fs:40
	mov	QWORD PTR -24[rbp], rax
	xor	eax, eax
	mov	rdx, QWORD PTR -72[rbp]
	lea	rax, -64[rbp]
	mov	rsi, rdx
	mov	rdi, rax
.LEHB0:
	call	_ZNSt7__cxx1112basic_stringIcSt11char_traitsIcESaIcEEC1ERKS4_@PLT
.LEHE0:
	lea	rax, -64[rbp]
	mov	rdi, rax
	call	_ZNSt7__cxx1112basic_stringIcSt11char_traitsIcESaIcEE3endEv@PLT
	mov	rbx, rax
	lea	rax, -64[rbp]
	mov	rdi, rax
	call	_ZNSt7__cxx1112basic_stringIcSt11char_traitsIcESaIcEE5beginEv@PLT
	mov	rsi, rbx
	mov	rdi, rax
.LEHB1:
	call	_ZSt7reverseIN9__gnu_cxx17__normal_iteratorIPcNSt7__cxx1112basic_stringIcSt11char_traitsIcESaIcEEEEEEvT_SA_
.LEHE1:
	lea	rdx, -64[rbp]
	mov	rax, QWORD PTR -72[rbp]
	mov	rsi, rdx
	mov	rdi, rax
	call	_ZSteqIcEN9__gnu_cxx11__enable_ifIXsrSt9__is_charIT_E7__valueEbE6__typeERKNSt7__cxx1112basic_stringIS3_St11char_traitsIS3_ESaIS3_EEESE_
	test	al, al
	je	.L63
	mov	ebx, 1
	jmp	.L64
.L63:
	mov	ebx, 0
.L64:
	lea	rax, -64[rbp]
	mov	rdi, rax
	call	_ZNSt7__cxx1112basic_stringIcSt11char_traitsIcESaIcEED1Ev@PLT
	mov	eax, ebx
	mov	rdx, QWORD PTR -24[rbp]
	sub	rdx, QWORD PTR fs:40
	je	.L67
	jmp	.L69
.L68:
	endbr64
	mov	rbx, rax
	lea	rax, -64[rbp]
	mov	rdi, rax
	call	_ZNSt7__cxx1112basic_stringIcSt11char_traitsIcESaIcEED1Ev@PLT
	mov	rax, rbx
	mov	rdi, rax
.LEHB2:
	call	_Unwind_Resume@PLT
.LEHE2:
.L69:
	call	__stack_chk_fail@PLT
.L67:
	mov	rbx, QWORD PTR -8[rbp]
	leave
	.cfi_def_cfa 7, 8
	ret
	.cfi_endproc
.LFE9720:
	.globl	__gxx_personality_v0
	.section	.gcc_except_table,"a",@progbits
.LLSDA9720:
	.byte	0xff
	.byte	0xff
	.byte	0x1
	.uleb128 .LLSDACSE9720-.LLSDACSB9720
.LLSDACSB9720:
	.uleb128 .LEHB0-.LFB9720
	.uleb128 .LEHE0-.LEHB0
	.uleb128 0
	.uleb128 0
	.uleb128 .LEHB1-.LFB9720
	.uleb128 .LEHE1-.LEHB1
	.uleb128 .L68-.LFB9720
	.uleb128 0
	.uleb128 .LEHB2-.LFB9720
	.uleb128 .LEHE2-.LEHB2
	.uleb128 0
	.uleb128 0
.LLSDACSE9720:
	.text
	.size	_Z12isPalindromeNSt7__cxx1112basic_stringIcSt11char_traitsIcESaIcEEE, .-_Z12isPalindromeNSt7__cxx1112basic_stringIcSt11char_traitsIcESaIcEEE
	.globl	_Z12binarySearchSt6vectorIiSaIiEEiii
	.type	_Z12binarySearchSt6vectorIiSaIiEEiii, @function
_Z12binarySearchSt6vectorIiSaIiEEiii:
.LFB9721:
	.cfi_startproc
	endbr64
	push	rbp
	.cfi_def_cfa_offset 16
	.cfi_offset 6, -16
	mov	rbp, rsp
	.cfi_def_cfa_register 6
	sub	rsp, 48
	mov	QWORD PTR -24[rbp], rdi
	mov	DWORD PTR -28[rbp], esi
	mov	DWORD PTR -32[rbp], edx
	mov	DWORD PTR -36[rbp], ecx
	jmp	.L71
.L75:
	mov	eax, DWORD PTR -32[rbp]
	sub	eax, DWORD PTR -28[rbp]
	mov	edx, eax
	shr	edx, 31
	add	eax, edx
	sar	eax
	mov	edx, eax
	mov	eax, DWORD PTR -28[rbp]
	add	eax, edx
	mov	DWORD PTR -4[rbp], eax
	mov	eax, DWORD PTR -4[rbp]
	movsx	rdx, eax
	mov	rax, QWORD PTR -24[rbp]
	mov	rsi, rdx
	mov	rdi, rax
	call	_ZNSt6vectorIiSaIiEEixEm
	mov	eax, DWORD PTR [rax]
	cmp	DWORD PTR -36[rbp], eax
	sete	al
	test	al, al
	je	.L72
	mov	eax, DWORD PTR -4[rbp]
	jmp	.L73
.L72:
	mov	eax, DWORD PTR -4[rbp]
	movsx	rdx, eax
	mov	rax, QWORD PTR -24[rbp]
	mov	rsi, rdx
	mov	rdi, rax
	call	_ZNSt6vectorIiSaIiEEixEm
	mov	eax, DWORD PTR [rax]
	cmp	DWORD PTR -36[rbp], eax
	setg	al
	test	al, al
	je	.L74
	mov	eax, DWORD PTR -4[rbp]
	add	eax, 1
	mov	DWORD PTR -28[rbp], eax
	jmp	.L71
.L74:
	mov	eax, DWORD PTR -4[rbp]
	sub	eax, 1
	mov	DWORD PTR -32[rbp], eax
.L71:
	mov	eax, DWORD PTR -28[rbp]
	cmp	eax, DWORD PTR -32[rbp]
	jle	.L75
	mov	eax, -1
.L73:
	leave
	.cfi_def_cfa 7, 8
	ret
	.cfi_endproc
.LFE9721:
	.size	_Z12binarySearchSt6vectorIiSaIiEEiii, .-_Z12binarySearchSt6vectorIiSaIiEEiii
	.globl	_Z11printBinaryi
	.type	_Z11printBinaryi, @function
_Z11printBinaryi:
.LFB9722:
	.cfi_startproc
	endbr64
	push	rbp
	.cfi_def_cfa_offset 16
	.cfi_offset 6, -16
	mov	rbp, rsp
	.cfi_def_cfa_register 6
	sub	rsp, 16
	mov	DWORD PTR -4[rbp], edi
	cmp	DWORD PTR -4[rbp], 1
	jg	.L77
	mov	eax, DWORD PTR -4[rbp]
	mov	esi, eax
	lea	rax, _ZSt4cout[rip]
	mov	rdi, rax
	call	_ZNSolsEi@PLT
	jmp	.L76
.L77:
	mov	eax, DWORD PTR -4[rbp]
	sar	eax
	mov	edi, eax
	call	_Z11printBinaryi
	mov	eax, DWORD PTR -4[rbp]
	and	eax, 1
	mov	esi, eax
	lea	rax, _ZSt4cout[rip]
	mov	rdi, rax
	call	_ZNSolsEi@PLT
.L76:
	leave
	.cfi_def_cfa 7, 8
	ret
	.cfi_endproc
.LFE9722:
	.size	_Z11printBinaryi, .-_Z11printBinaryi
	.globl	_Z10countBits1i
	.type	_Z10countBits1i, @function
_Z10countBits1i:
.LFB9723:
	.cfi_startproc
	endbr64
	push	rbp
	.cfi_def_cfa_offset 16
	.cfi_offset 6, -16
	mov	rbp, rsp
	.cfi_def_cfa_register 6
	mov	DWORD PTR -20[rbp], edi
	mov	DWORD PTR -4[rbp], 0
	jmp	.L80
.L81:
	add	DWORD PTR -4[rbp], 1
	mov	eax, DWORD PTR -20[rbp]
	sub	eax, 1
	and	DWORD PTR -20[rbp], eax
.L80:
	cmp	DWORD PTR -20[rbp], 0
	jne	.L81
	mov	eax, DWORD PTR -4[rbp]
	pop	rbp
	.cfi_def_cfa 7, 8
	ret
	.cfi_endproc
.LFE9723:
	.size	_Z10countBits1i, .-_Z10countBits1i
	.globl	_Z10countBits0i
	.type	_Z10countBits0i, @function
_Z10countBits0i:
.LFB9724:
	.cfi_startproc
	endbr64
	push	rbp
	.cfi_def_cfa_offset 16
	.cfi_offset 6, -16
	mov	rbp, rsp
	.cfi_def_cfa_register 6
	mov	DWORD PTR -20[rbp], edi
	mov	DWORD PTR -8[rbp], 0
	mov	DWORD PTR -4[rbp], 32
	jmp	.L84
.L85:
	add	DWORD PTR -8[rbp], 1
	mov	eax, DWORD PTR -20[rbp]
	sub	eax, 1
	and	DWORD PTR -20[rbp], eax
.L84:
	cmp	DWORD PTR -20[rbp], 0
	jne	.L85
	mov	eax, DWORD PTR -4[rbp]
	sub	eax, DWORD PTR -8[rbp]
	pop	rbp
	.cfi_def_cfa 7, 8
	ret
	.cfi_endproc
.LFE9724:
	.size	_Z10countBits0i, .-_Z10countBits0i
	.globl	_Z6getBitii
	.type	_Z6getBitii, @function
_Z6getBitii:
.LFB9725:
	.cfi_startproc
	endbr64
	push	rbp
	.cfi_def_cfa_offset 16
	.cfi_offset 6, -16
	mov	rbp, rsp
	.cfi_def_cfa_register 6
	mov	DWORD PTR -4[rbp], edi
	mov	DWORD PTR -8[rbp], esi
	mov	eax, DWORD PTR -8[rbp]
	mov	edx, DWORD PTR -4[rbp]
	mov	ecx, eax
	sar	edx, cl
	mov	eax, edx
	and	eax, 1
	pop	rbp
	.cfi_def_cfa 7, 8
	ret
	.cfi_endproc
.LFE9725:
	.size	_Z6getBitii, .-_Z6getBitii
	.globl	_Z7setBit1ii
	.type	_Z7setBit1ii, @function
_Z7setBit1ii:
.LFB9726:
	.cfi_startproc
	endbr64
	push	rbp
	.cfi_def_cfa_offset 16
	.cfi_offset 6, -16
	mov	rbp, rsp
	.cfi_def_cfa_register 6
	mov	DWORD PTR -4[rbp], edi
	mov	DWORD PTR -8[rbp], esi
	mov	eax, DWORD PTR -8[rbp]
	mov	edx, 1
	mov	ecx, eax
	sal	edx, cl
	mov	eax, edx
	or	eax, DWORD PTR -4[rbp]
	pop	rbp
	.cfi_def_cfa 7, 8
	ret
	.cfi_endproc
.LFE9726:
	.size	_Z7setBit1ii, .-_Z7setBit1ii
	.globl	_Z7setBit0ii
	.type	_Z7setBit0ii, @function
_Z7setBit0ii:
.LFB9727:
	.cfi_startproc
	endbr64
	push	rbp
	.cfi_def_cfa_offset 16
	.cfi_offset 6, -16
	mov	rbp, rsp
	.cfi_def_cfa_register 6
	mov	DWORD PTR -4[rbp], edi
	mov	DWORD PTR -8[rbp], esi
	mov	eax, DWORD PTR -8[rbp]
	mov	edx, 1
	mov	ecx, eax
	sal	edx, cl
	mov	eax, edx
	not	eax
	and	eax, DWORD PTR -4[rbp]
	pop	rbp
	.cfi_def_cfa 7, 8
	ret
	.cfi_endproc
.LFE9727:
	.size	_Z7setBit0ii, .-_Z7setBit0ii
	.globl	_Z7flipBitii
	.type	_Z7flipBitii, @function
_Z7flipBitii:
.LFB9728:
	.cfi_startproc
	endbr64
	push	rbp
	.cfi_def_cfa_offset 16
	.cfi_offset 6, -16
	mov	rbp, rsp
	.cfi_def_cfa_register 6
	mov	DWORD PTR -4[rbp], edi
	mov	DWORD PTR -8[rbp], esi
	mov	eax, DWORD PTR -8[rbp]
	mov	edx, 1
	mov	ecx, eax
	sal	edx, cl
	mov	eax, edx
	xor	eax, DWORD PTR -4[rbp]
	pop	rbp
	.cfi_def_cfa 7, 8
	ret
	.cfi_endproc
.LFE9728:
	.size	_Z7flipBitii, .-_Z7flipBitii
	.globl	_Z8powerOf2i
	.type	_Z8powerOf2i, @function
_Z8powerOf2i:
.LFB9729:
	.cfi_startproc
	endbr64
	push	rbp
	.cfi_def_cfa_offset 16
	.cfi_offset 6, -16
	mov	rbp, rsp
	.cfi_def_cfa_register 6
	mov	DWORD PTR -4[rbp], edi
	mov	eax, DWORD PTR -4[rbp]
	sub	eax, 1
	and	eax, DWORD PTR -4[rbp]
	test	eax, eax
	sete	al
	pop	rbp
	.cfi_def_cfa 7, 8
	ret
	.cfi_endproc
.LFE9729:
	.size	_Z8powerOf2i, .-_Z8powerOf2i
	.globl	_Z12lastBitValuei
	.type	_Z12lastBitValuei, @function
_Z12lastBitValuei:
.LFB9730:
	.cfi_startproc
	endbr64
	push	rbp
	.cfi_def_cfa_offset 16
	.cfi_offset 6, -16
	mov	rbp, rsp
	.cfi_def_cfa_register 6
	mov	DWORD PTR -4[rbp], edi
	mov	eax, DWORD PTR -4[rbp]
	neg	eax
	and	eax, DWORD PTR -4[rbp]
	pop	rbp
	.cfi_def_cfa 7, 8
	ret
	.cfi_endproc
.LFE9730:
	.size	_Z12lastBitValuei, .-_Z12lastBitValuei
	.globl	_Z16setBitsTo1Until0i
	.type	_Z16setBitsTo1Until0i, @function
_Z16setBitsTo1Until0i:
.LFB9731:
	.cfi_startproc
	endbr64
	push	rbp
	.cfi_def_cfa_offset 16
	.cfi_offset 6, -16
	mov	rbp, rsp
	.cfi_def_cfa_register 6
	sub	rsp, 24
	mov	DWORD PTR -20[rbp], edi
	cmp	DWORD PTR -20[rbp], 0
	jne	.L100
	mov	eax, -1
	jmp	.L101
.L100:
	mov	DWORD PTR -4[rbp], 0
	jmp	.L102
.L103:
	mov	edx, DWORD PTR -4[rbp]
	mov	eax, DWORD PTR -20[rbp]
	mov	esi, edx
	mov	edi, eax
	call	_Z7setBit1ii
	mov	DWORD PTR -20[rbp], eax
	add	DWORD PTR -4[rbp], 1
.L102:
	mov	eax, DWORD PTR -4[rbp]
	mov	edx, DWORD PTR -20[rbp]
	mov	ecx, eax
	sar	edx, cl
	mov	eax, edx
	and	eax, 1
	test	eax, eax
	je	.L103
	mov	eax, DWORD PTR -20[rbp]
.L101:
	leave
	.cfi_def_cfa 7, 8
	ret
	.cfi_endproc
.LFE9731:
	.size	_Z16setBitsTo1Until0i, .-_Z16setBitsTo1Until0i
	.globl	_Z16setBitsTo0Until1i
	.type	_Z16setBitsTo0Until1i, @function
_Z16setBitsTo0Until1i:
.LFB9732:
	.cfi_startproc
	endbr64
	push	rbp
	.cfi_def_cfa_offset 16
	.cfi_offset 6, -16
	mov	rbp, rsp
	.cfi_def_cfa_register 6
	sub	rsp, 24
	mov	DWORD PTR -20[rbp], edi
	mov	DWORD PTR -4[rbp], 0
	jmp	.L105
.L106:
	mov	edx, DWORD PTR -4[rbp]
	mov	eax, DWORD PTR -20[rbp]
	mov	esi, edx
	mov	edi, eax
	call	_Z7setBit0ii
	mov	DWORD PTR -20[rbp], eax
	add	DWORD PTR -4[rbp], 1
.L105:
	mov	eax, DWORD PTR -4[rbp]
	mov	edx, DWORD PTR -20[rbp]
	mov	ecx, eax
	sar	edx, cl
	mov	eax, edx
	and	eax, 1
	test	eax, eax
	jne	.L106
	mov	eax, DWORD PTR -20[rbp]
	leave
	.cfi_def_cfa 7, 8
	ret
	.cfi_endproc
.LFE9732:
	.size	_Z16setBitsTo0Until1i, .-_Z16setBitsTo0Until1i
	.globl	_Z13findFirstBit0i
	.type	_Z13findFirstBit0i, @function
_Z13findFirstBit0i:
.LFB9733:
	.cfi_startproc
	endbr64
	push	rbp
	.cfi_def_cfa_offset 16
	.cfi_offset 6, -16
	mov	rbp, rsp
	.cfi_def_cfa_register 6
	sub	rsp, 24
	mov	DWORD PTR -20[rbp], edi
	mov	DWORD PTR -4[rbp], 0
	jmp	.L109
.L110:
	add	DWORD PTR -4[rbp], 1
.L109:
	mov	edx, DWORD PTR -4[rbp]
	mov	eax, DWORD PTR -20[rbp]
	mov	esi, edx
	mov	edi, eax
	call	_Z6getBitii
	test	eax, eax
	setne	al
	test	al, al
	jne	.L110
	mov	eax, DWORD PTR -4[rbp]
	leave
	.cfi_def_cfa 7, 8
	ret
	.cfi_endproc
.LFE9733:
	.size	_Z13findFirstBit0i, .-_Z13findFirstBit0i
	.globl	_Z13findFirstBit1i
	.type	_Z13findFirstBit1i, @function
_Z13findFirstBit1i:
.LFB9734:
	.cfi_startproc
	endbr64
	push	rbp
	.cfi_def_cfa_offset 16
	.cfi_offset 6, -16
	mov	rbp, rsp
	.cfi_def_cfa_register 6
	sub	rsp, 24
	mov	DWORD PTR -20[rbp], edi
	mov	DWORD PTR -4[rbp], 0
	jmp	.L113
.L114:
	add	DWORD PTR -4[rbp], 1
.L113:
	mov	edx, DWORD PTR -4[rbp]
	mov	eax, DWORD PTR -20[rbp]
	mov	esi, edx
	mov	edi, eax
	call	_Z6getBitii
	test	eax, eax
	sete	al
	test	al, al
	jne	.L114
	mov	eax, DWORD PTR -4[rbp]
	leave
	.cfi_def_cfa 7, 8
	ret
	.cfi_endproc
.LFE9734:
	.size	_Z13findFirstBit1i, .-_Z13findFirstBit1i
	.globl	_Z3solRKSt6vectorISt4pairIiiESaIS1_EEiii
	.type	_Z3solRKSt6vectorISt4pairIiiESaIS1_EEiii, @function
_Z3solRKSt6vectorISt4pairIiiESaIS1_EEiii:
.LFB9735:
	.cfi_startproc
	endbr64
	push	rbp
	.cfi_def_cfa_offset 16
	.cfi_offset 6, -16
	mov	rbp, rsp
	.cfi_def_cfa_register 6
	sub	rsp, 64
	mov	QWORD PTR -40[rbp], rdi
	mov	DWORD PTR -44[rbp], esi
	mov	DWORD PTR -48[rbp], edx
	mov	DWORD PTR -52[rbp], ecx
	mov	rax, QWORD PTR fs:40
	mov	QWORD PTR -8[rbp], rax
	xor	eax, eax
	mov	eax, DWORD PTR -52[rbp]
	cmp	eax, DWORD PTR -44[rbp]
	je	.L117
	mov	eax, DWORD PTR -52[rbp]
	movsx	rdx, eax
	mov	rax, QWORD PTR -40[rbp]
	mov	rsi, rdx
	mov	rdi, rax
	call	_ZNKSt6vectorISt4pairIiiESaIS1_EEixEm
	mov	eax, DWORD PTR [rax]
	mov	DWORD PTR -16[rbp], eax
	mov	eax, DWORD PTR -52[rbp]
	movsx	rdx, eax
	mov	rax, QWORD PTR -40[rbp]
	mov	rsi, rdx
	mov	rdi, rax
	call	_ZNKSt6vectorISt4pairIiiESaIS1_EEixEm
	mov	eax, DWORD PTR 4[rax]
	mov	DWORD PTR -12[rbp], eax
	mov	eax, DWORD PTR -16[rbp]
	cmp	eax, DWORD PTR -48[rbp]
	jle	.L118
	mov	eax, DWORD PTR -52[rbp]
	lea	ecx, 1[rax]
	mov	edx, DWORD PTR -48[rbp]
	mov	esi, DWORD PTR -44[rbp]
	mov	rax, QWORD PTR -40[rbp]
	mov	rdi, rax
	call	_Z3solRKSt6vectorISt4pairIiiESaIS1_EEiii
	jmp	.L120
.L118:
	mov	eax, DWORD PTR -52[rbp]
	lea	ecx, 1[rax]
	mov	eax, DWORD PTR -48[rbp]
	sub	eax, DWORD PTR -16[rbp]
	mov	edx, eax
	mov	esi, DWORD PTR -44[rbp]
	mov	rax, QWORD PTR -40[rbp]
	mov	rdi, rax
	call	_Z3solRKSt6vectorISt4pairIiiESaIS1_EEiii
	mov	edx, DWORD PTR -12[rbp]
	add	eax, edx
	mov	DWORD PTR -24[rbp], eax
	mov	eax, DWORD PTR -52[rbp]
	lea	ecx, 1[rax]
	mov	edx, DWORD PTR -48[rbp]
	mov	esi, DWORD PTR -44[rbp]
	mov	rax, QWORD PTR -40[rbp]
	mov	rdi, rax
	call	_Z3solRKSt6vectorISt4pairIiiESaIS1_EEiii
	mov	DWORD PTR -20[rbp], eax
	lea	rdx, -20[rbp]
	lea	rax, -24[rbp]
	mov	rsi, rdx
	mov	rdi, rax
	call	_ZSt3maxIiERKT_S2_S2_
	mov	eax, DWORD PTR [rax]
	jmp	.L120
.L117:
	mov	eax, 0
.L120:
	mov	rdx, QWORD PTR -8[rbp]
	sub	rdx, QWORD PTR fs:40
	je	.L121
	call	__stack_chk_fail@PLT
.L121:
	leave
	.cfi_def_cfa 7, 8
	ret
	.cfi_endproc
.LFE9735:
	.size	_Z3solRKSt6vectorISt4pairIiiESaIS1_EEiii, .-_Z3solRKSt6vectorISt4pairIiiESaIS1_EEiii
	.globl	main
	.type	main, @function
main:
.LFB9737:
	.cfi_startproc
	.cfi_personality 0x9b,DW.ref.__gxx_personality_v0
	.cfi_lsda 0x1b,.LLSDA9737
	endbr64
	push	rbp
	.cfi_def_cfa_offset 16
	.cfi_offset 6, -16
	mov	rbp, rsp
	.cfi_def_cfa_register 6
	push	rbx
	sub	rsp, 72
	.cfi_offset 3, -24
	mov	rax, QWORD PTR fs:40
	mov	QWORD PTR -24[rbp], rax
	xor	eax, eax
	mov	edi, 0
.LEHB3:
	call	_ZNSt8ios_base15sync_with_stdioEb@PLT
	mov	esi, 0
	lea	rax, _ZSt3cin[rip+16]
	mov	rdi, rax
	call	_ZNSt9basic_iosIcSt11char_traitsIcEE3tieEPSo@PLT
	mov	esi, 0
	lea	rax, _ZSt4cout[rip+8]
	mov	rdi, rax
	call	_ZNSt9basic_iosIcSt11char_traitsIcEE3tieEPSo@PLT
	lea	rax, -76[rbp]
	mov	rsi, rax
	lea	rax, _ZSt3cin[rip]
	mov	rdi, rax
	call	_ZNSirsERi@PLT
	mov	rdx, rax
	lea	rax, -72[rbp]
	mov	rsi, rax
	mov	rdi, rdx
	call	_ZNSirsERi@PLT
.LEHE3:
	lea	rax, -56[rbp]
	mov	rdi, rax
	call	_ZNSaISt4pairIiiEEC1Ev
	mov	eax, DWORD PTR -76[rbp]
	movsx	rcx, eax
	lea	rdx, -56[rbp]
	lea	rax, -48[rbp]
	mov	rsi, rcx
	mov	rdi, rax
.LEHB4:
	call	_ZNSt6vectorISt4pairIiiESaIS1_EEC1EmRKS2_
.LEHE4:
	lea	rax, -56[rbp]
	mov	rdi, rax
	call	_ZNSaISt4pairIiiEED1Ev
	mov	DWORD PTR -68[rbp], 0
	jmp	.L123
.L124:
	mov	eax, DWORD PTR -68[rbp]
	movsx	rdx, eax
	lea	rax, -48[rbp]
	mov	rsi, rdx
	mov	rdi, rax
	call	_ZNSt6vectorISt4pairIiiESaIS1_EEixEm
	mov	rsi, rax
	lea	rax, _ZSt3cin[rip]
	mov	rdi, rax
.LEHB5:
	call	_ZNSirsERi@PLT
	mov	rbx, rax
	mov	eax, DWORD PTR -68[rbp]
	movsx	rdx, eax
	lea	rax, -48[rbp]
	mov	rsi, rdx
	mov	rdi, rax
	call	_ZNSt6vectorISt4pairIiiESaIS1_EEixEm
	add	rax, 4
	mov	rsi, rax
	mov	rdi, rbx
	call	_ZNSirsERi@PLT
	add	DWORD PTR -68[rbp], 1
.L123:
	mov	eax, DWORD PTR -76[rbp]
	cmp	DWORD PTR -68[rbp], eax
	jl	.L124
	lea	rax, -56[rbp]
	lea	rdx, -48[rbp]
	mov	rsi, rdx
	mov	rdi, rax
	call	_ZNSt6vectorISt4pairIiiESaIS1_EE4rendEv
	lea	rax, -64[rbp]
	lea	rdx, -48[rbp]
	mov	rsi, rdx
	mov	rdi, rax
	call	_ZNSt6vectorISt4pairIiiESaIS1_EE6rbeginEv
	lea	rdx, -56[rbp]
	lea	rax, -64[rbp]
	mov	rsi, rdx
	mov	rdi, rax
	call	_ZSt4sortISt16reverse_iteratorIN9__gnu_cxx17__normal_iteratorIPSt4pairIiiESt6vectorIS4_SaIS4_EEEEEEvT_SB_
	mov	edx, DWORD PTR -72[rbp]
	mov	esi, DWORD PTR -76[rbp]
	lea	rax, -48[rbp]
	mov	ecx, 0
	mov	rdi, rax
	call	_Z3solRKSt6vectorISt4pairIiiESaIS1_EEiii
	mov	esi, eax
	lea	rax, _ZSt4cout[rip]
	mov	rdi, rax
	call	_ZNSolsEi@PLT
.LEHE5:
	lea	rax, -48[rbp]
	mov	rdi, rax
	call	_ZNSt6vectorISt4pairIiiESaIS1_EED1Ev
	mov	eax, 0
	mov	rdx, QWORD PTR -24[rbp]
	sub	rdx, QWORD PTR fs:40
	je	.L128
	jmp	.L131
.L129:
	endbr64
	mov	rbx, rax
	lea	rax, -56[rbp]
	mov	rdi, rax
	call	_ZNSaISt4pairIiiEED1Ev
	mov	rax, rbx
	mov	rdi, rax
.LEHB6:
	call	_Unwind_Resume@PLT
.L130:
	endbr64
	mov	rbx, rax
	lea	rax, -48[rbp]
	mov	rdi, rax
	call	_ZNSt6vectorISt4pairIiiESaIS1_EED1Ev
	mov	rax, rbx
	mov	rdi, rax
	call	_Unwind_Resume@PLT
.LEHE6:
.L131:
	call	__stack_chk_fail@PLT
.L128:
	mov	rbx, QWORD PTR -8[rbp]
	leave
	.cfi_def_cfa 7, 8
	ret
	.cfi_endproc
.LFE9737:
	.section	.gcc_except_table
.LLSDA9737:
	.byte	0xff
	.byte	0xff
	.byte	0x1
	.uleb128 .LLSDACSE9737-.LLSDACSB9737
.LLSDACSB9737:
	.uleb128 .LEHB3-.LFB9737
	.uleb128 .LEHE3-.LEHB3
	.uleb128 0
	.uleb128 0
	.uleb128 .LEHB4-.LFB9737
	.uleb128 .LEHE4-.LEHB4
	.uleb128 .L129-.LFB9737
	.uleb128 0
	.uleb128 .LEHB5-.LFB9737
	.uleb128 .LEHE5-.LEHB5
	.uleb128 .L130-.LFB9737
	.uleb128 0
	.uleb128 .LEHB6-.LFB9737
	.uleb128 .LEHE6-.LEHB6
	.uleb128 0
	.uleb128 0
.LLSDACSE9737:
	.text
	.size	main, .-main
	.section	.text._ZSt3maxImERKT_S2_S2_,"axG",@progbits,_ZSt3maxImERKT_S2_S2_,comdat
	.weak	_ZSt3maxImERKT_S2_S2_
	.type	_ZSt3maxImERKT_S2_S2_, @function
_ZSt3maxImERKT_S2_S2_:
.LFB10049:
	.cfi_startproc
	endbr64
	push	rbp
	.cfi_def_cfa_offset 16
	.cfi_offset 6, -16
	mov	rbp, rsp
	.cfi_def_cfa_register 6
	mov	QWORD PTR -8[rbp], rdi
	mov	QWORD PTR -16[rbp], rsi
	mov	rax, QWORD PTR -8[rbp]
	mov	rdx, QWORD PTR [rax]
	mov	rax, QWORD PTR -16[rbp]
	mov	rax, QWORD PTR [rax]
	cmp	rdx, rax
	jnb	.L133
	mov	rax, QWORD PTR -16[rbp]
	jmp	.L134
.L133:
	mov	rax, QWORD PTR -8[rbp]
.L134:
	pop	rbp
	.cfi_def_cfa 7, 8
	ret
	.cfi_endproc
.LFE10049:
	.size	_ZSt3maxImERKT_S2_S2_, .-_ZSt3maxImERKT_S2_S2_
	.section	.text._ZSt7forwardIiEOT_RNSt16remove_referenceIS0_E4typeE,"axG",@progbits,_ZSt7forwardIiEOT_RNSt16remove_referenceIS0_E4typeE,comdat
	.weak	_ZSt7forwardIiEOT_RNSt16remove_referenceIS0_E4typeE
	.type	_ZSt7forwardIiEOT_RNSt16remove_referenceIS0_E4typeE, @function
_ZSt7forwardIiEOT_RNSt16remove_referenceIS0_E4typeE:
.LFB10054:
	.cfi_startproc
	endbr64
	push	rbp
	.cfi_def_cfa_offset 16
	.cfi_offset 6, -16
	mov	rbp, rsp
	.cfi_def_cfa_register 6
	mov	QWORD PTR -8[rbp], rdi
	mov	rax, QWORD PTR -8[rbp]
	pop	rbp
	.cfi_def_cfa 7, 8
	ret
	.cfi_endproc
.LFE10054:
	.size	_ZSt7forwardIiEOT_RNSt16remove_referenceIS0_E4typeE, .-_ZSt7forwardIiEOT_RNSt16remove_referenceIS0_E4typeE
	.section	.text._ZNSt12_Vector_baseIxSaIxEE12_Vector_implC2Ev,"axG",@progbits,_ZNSt12_Vector_baseIxSaIxEE12_Vector_implC5Ev,comdat
	.align 2
	.weak	_ZNSt12_Vector_baseIxSaIxEE12_Vector_implC2Ev
	.type	_ZNSt12_Vector_baseIxSaIxEE12_Vector_implC2Ev, @function
_ZNSt12_Vector_baseIxSaIxEE12_Vector_implC2Ev:
.LFB10426:
	.cfi_startproc
	endbr64
	push	rbp
	.cfi_def_cfa_offset 16
	.cfi_offset 6, -16
	mov	rbp, rsp
	.cfi_def_cfa_register 6
	sub	rsp, 16
	mov	QWORD PTR -8[rbp], rdi
	mov	rax, QWORD PTR -8[rbp]
	mov	rdi, rax
	call	_ZNSaIxEC2Ev
	mov	rax, QWORD PTR -8[rbp]
	mov	rdi, rax
	call	_ZNSt12_Vector_baseIxSaIxEE17_Vector_impl_dataC2Ev
	nop
	leave
	.cfi_def_cfa 7, 8
	ret
	.cfi_endproc
.LFE10426:
	.size	_ZNSt12_Vector_baseIxSaIxEE12_Vector_implC2Ev, .-_ZNSt12_Vector_baseIxSaIxEE12_Vector_implC2Ev
	.weak	_ZNSt12_Vector_baseIxSaIxEE12_Vector_implC1Ev
	.set	_ZNSt12_Vector_baseIxSaIxEE12_Vector_implC1Ev,_ZNSt12_Vector_baseIxSaIxEE12_Vector_implC2Ev
	.section	.text._ZNSaIxED2Ev,"axG",@progbits,_ZNSaIxED5Ev,comdat
	.align 2
	.weak	_ZNSaIxED2Ev
	.type	_ZNSaIxED2Ev, @function
_ZNSaIxED2Ev:
.LFB10429:
	.cfi_startproc
	endbr64
	push	rbp
	.cfi_def_cfa_offset 16
	.cfi_offset 6, -16
	mov	rbp, rsp
	.cfi_def_cfa_register 6
	sub	rsp, 16
	mov	QWORD PTR -8[rbp], rdi
	mov	rax, QWORD PTR -8[rbp]
	mov	rdi, rax
	call	_ZN9__gnu_cxx13new_allocatorIxED2Ev
	nop
	leave
	.cfi_def_cfa 7, 8
	ret
	.cfi_endproc
.LFE10429:
	.size	_ZNSaIxED2Ev, .-_ZNSaIxED2Ev
	.weak	_ZNSaIxED1Ev
	.set	_ZNSaIxED1Ev,_ZNSaIxED2Ev
	.section	.text._ZNSt12_Vector_baseIxSaIxEED2Ev,"axG",@progbits,_ZNSt12_Vector_baseIxSaIxEED5Ev,comdat
	.align 2
	.weak	_ZNSt12_Vector_baseIxSaIxEED2Ev
	.type	_ZNSt12_Vector_baseIxSaIxEED2Ev, @function
_ZNSt12_Vector_baseIxSaIxEED2Ev:
.LFB10432:
	.cfi_startproc
	.cfi_personality 0x9b,DW.ref.__gxx_personality_v0
	.cfi_lsda 0x1b,.LLSDA10432
	endbr64
	push	rbp
	.cfi_def_cfa_offset 16
	.cfi_offset 6, -16
	mov	rbp, rsp
	.cfi_def_cfa_register 6
	sub	rsp, 16
	mov	QWORD PTR -8[rbp], rdi
	mov	rax, QWORD PTR -8[rbp]
	mov	rdx, QWORD PTR 16[rax]
	mov	rax, QWORD PTR -8[rbp]
	mov	rcx, QWORD PTR [rax]
	mov	rax, rdx
	sub	rax, rcx
	sar	rax, 3
	mov	rdx, rax
	mov	rax, QWORD PTR -8[rbp]
	mov	rcx, QWORD PTR [rax]
	mov	rax, QWORD PTR -8[rbp]
	mov	rsi, rcx
	mov	rdi, rax
	call	_ZNSt12_Vector_baseIxSaIxEE13_M_deallocateEPxm
	mov	rax, QWORD PTR -8[rbp]
	mov	rdi, rax
	call	_ZNSt12_Vector_baseIxSaIxEE12_Vector_implD1Ev
	nop
	leave
	.cfi_def_cfa 7, 8
	ret
	.cfi_endproc
.LFE10432:
	.section	.gcc_except_table
.LLSDA10432:
	.byte	0xff
	.byte	0xff
	.byte	0x1
	.uleb128 .LLSDACSE10432-.LLSDACSB10432
.LLSDACSB10432:
.LLSDACSE10432:
	.section	.text._ZNSt12_Vector_baseIxSaIxEED2Ev,"axG",@progbits,_ZNSt12_Vector_baseIxSaIxEED5Ev,comdat
	.size	_ZNSt12_Vector_baseIxSaIxEED2Ev, .-_ZNSt12_Vector_baseIxSaIxEED2Ev
	.weak	_ZNSt12_Vector_baseIxSaIxEED1Ev
	.set	_ZNSt12_Vector_baseIxSaIxEED1Ev,_ZNSt12_Vector_baseIxSaIxEED2Ev
	.section	.text._ZNSt6vectorIxSaIxEE9push_backEOx,"axG",@progbits,_ZNSt6vectorIxSaIxEE9push_backEOx,comdat
	.align 2
	.weak	_ZNSt6vectorIxSaIxEE9push_backEOx
	.type	_ZNSt6vectorIxSaIxEE9push_backEOx, @function
_ZNSt6vectorIxSaIxEE9push_backEOx:
.LFB10434:
	.cfi_startproc
	endbr64
	push	rbp
	.cfi_def_cfa_offset 16
	.cfi_offset 6, -16
	mov	rbp, rsp
	.cfi_def_cfa_register 6
	sub	rsp, 16
	mov	QWORD PTR -8[rbp], rdi
	mov	QWORD PTR -16[rbp], rsi
	mov	rax, QWORD PTR -16[rbp]
	mov	rdi, rax
	call	_ZSt4moveIRxEONSt16remove_referenceIT_E4typeEOS2_
	mov	rdx, rax
	mov	rax, QWORD PTR -8[rbp]
	mov	rsi, rdx
	mov	rdi, rax
	call	_ZNSt6vectorIxSaIxEE12emplace_backIJxEEERxDpOT_
	nop
	leave
	.cfi_def_cfa 7, 8
	ret
	.cfi_endproc
.LFE10434:
	.size	_ZNSt6vectorIxSaIxEE9push_backEOx, .-_ZNSt6vectorIxSaIxEE9push_backEOx
	.section	.text._ZNKSt6vectorIxSaIxEE4sizeEv,"axG",@progbits,_ZNKSt6vectorIxSaIxEE4sizeEv,comdat
	.align 2
	.weak	_ZNKSt6vectorIxSaIxEE4sizeEv
	.type	_ZNKSt6vectorIxSaIxEE4sizeEv, @function
_ZNKSt6vectorIxSaIxEE4sizeEv:
.LFB10435:
	.cfi_startproc
	endbr64
	push	rbp
	.cfi_def_cfa_offset 16
	.cfi_offset 6, -16
	mov	rbp, rsp
	.cfi_def_cfa_register 6
	mov	QWORD PTR -8[rbp], rdi
	mov	rax, QWORD PTR -8[rbp]
	mov	rdx, QWORD PTR 8[rax]
	mov	rax, QWORD PTR -8[rbp]
	mov	rcx, QWORD PTR [rax]
	mov	rax, rdx
	sub	rax, rcx
	sar	rax, 3
	pop	rbp
	.cfi_def_cfa 7, 8
	ret
	.cfi_endproc
.LFE10435:
	.size	_ZNKSt6vectorIxSaIxEE4sizeEv, .-_ZNKSt6vectorIxSaIxEE4sizeEv
	.section	.text._ZNSt6vectorIxSaIxEEixEm,"axG",@progbits,_ZNSt6vectorIxSaIxEEixEm,comdat
	.align 2
	.weak	_ZNSt6vectorIxSaIxEEixEm
	.type	_ZNSt6vectorIxSaIxEEixEm, @function
_ZNSt6vectorIxSaIxEEixEm:
.LFB10436:
	.cfi_startproc
	endbr64
	push	rbp
	.cfi_def_cfa_offset 16
	.cfi_offset 6, -16
	mov	rbp, rsp
	.cfi_def_cfa_register 6
	mov	QWORD PTR -8[rbp], rdi
	mov	QWORD PTR -16[rbp], rsi
	mov	rax, QWORD PTR -8[rbp]
	mov	rdx, QWORD PTR [rax]
	mov	rax, QWORD PTR -16[rbp]
	sal	rax, 3
	add	rax, rdx
	pop	rbp
	.cfi_def_cfa 7, 8
	ret
	.cfi_endproc
.LFE10436:
	.size	_ZNSt6vectorIxSaIxEEixEm, .-_ZNSt6vectorIxSaIxEEixEm
	.section	.text._ZSt4sqrtIiEN9__gnu_cxx11__enable_ifIXsrSt12__is_integerIT_E7__valueEdE6__typeES3_,"axG",@progbits,_ZSt4sqrtIiEN9__gnu_cxx11__enable_ifIXsrSt12__is_integerIT_E7__valueEdE6__typeES3_,comdat
	.weak	_ZSt4sqrtIiEN9__gnu_cxx11__enable_ifIXsrSt12__is_integerIT_E7__valueEdE6__typeES3_
	.type	_ZSt4sqrtIiEN9__gnu_cxx11__enable_ifIXsrSt12__is_integerIT_E7__valueEdE6__typeES3_, @function
_ZSt4sqrtIiEN9__gnu_cxx11__enable_ifIXsrSt12__is_integerIT_E7__valueEdE6__typeES3_:
.LFB10437:
	.cfi_startproc
	endbr64
	push	rbp
	.cfi_def_cfa_offset 16
	.cfi_offset 6, -16
	mov	rbp, rsp
	.cfi_def_cfa_register 6
	sub	rsp, 16
	mov	DWORD PTR -4[rbp], edi
	pxor	xmm1, xmm1
	cvtsi2sd	xmm1, DWORD PTR -4[rbp]
	movq	rax, xmm1
	movq	xmm0, rax
	call	sqrt@PLT
	movq	rax, xmm0
	movq	xmm0, rax
	leave
	.cfi_def_cfa 7, 8
	ret
	.cfi_endproc
.LFE10437:
	.size	_ZSt4sqrtIiEN9__gnu_cxx11__enable_ifIXsrSt12__is_integerIT_E7__valueEdE6__typeES3_, .-_ZSt4sqrtIiEN9__gnu_cxx11__enable_ifIXsrSt12__is_integerIT_E7__valueEdE6__typeES3_
	.section	.text._ZSt7reverseIN9__gnu_cxx17__normal_iteratorIPcNSt7__cxx1112basic_stringIcSt11char_traitsIcESaIcEEEEEEvT_SA_,"axG",@progbits,_ZSt7reverseIN9__gnu_cxx17__normal_iteratorIPcNSt7__cxx1112basic_stringIcSt11char_traitsIcESaIcEEEEEEvT_SA_,comdat
	.weak	_ZSt7reverseIN9__gnu_cxx17__normal_iteratorIPcNSt7__cxx1112basic_stringIcSt11char_traitsIcESaIcEEEEEEvT_SA_
	.type	_ZSt7reverseIN9__gnu_cxx17__normal_iteratorIPcNSt7__cxx1112basic_stringIcSt11char_traitsIcESaIcEEEEEEvT_SA_, @function
_ZSt7reverseIN9__gnu_cxx17__normal_iteratorIPcNSt7__cxx1112basic_stringIcSt11char_traitsIcESaIcEEEEEEvT_SA_:
.LFB10440:
	.cfi_startproc
	endbr64
	push	rbp
	.cfi_def_cfa_offset 16
	.cfi_offset 6, -16
	mov	rbp, rsp
	.cfi_def_cfa_register 6
	sub	rsp, 16
	mov	QWORD PTR -8[rbp], rdi
	mov	QWORD PTR -16[rbp], rsi
	lea	rax, -8[rbp]
	mov	rdi, rax
	call	_ZSt19__iterator_categoryIN9__gnu_cxx17__normal_iteratorIPcNSt7__cxx1112basic_stringIcSt11char_traitsIcESaIcEEEEEENSt15iterator_traitsIT_E17iterator_categoryERKSB_
	mov	rdx, QWORD PTR -16[rbp]
	mov	rax, QWORD PTR -8[rbp]
	mov	rsi, rdx
	mov	rdi, rax
	call	_ZSt9__reverseIN9__gnu_cxx17__normal_iteratorIPcNSt7__cxx1112basic_stringIcSt11char_traitsIcESaIcEEEEEEvT_SA_St26random_access_iterator_tag
	nop
	leave
	.cfi_def_cfa 7, 8
	ret
	.cfi_endproc
.LFE10440:
	.size	_ZSt7reverseIN9__gnu_cxx17__normal_iteratorIPcNSt7__cxx1112basic_stringIcSt11char_traitsIcESaIcEEEEEEvT_SA_, .-_ZSt7reverseIN9__gnu_cxx17__normal_iteratorIPcNSt7__cxx1112basic_stringIcSt11char_traitsIcESaIcEEEEEEvT_SA_
	.section	.text._ZSteqIcEN9__gnu_cxx11__enable_ifIXsrSt9__is_charIT_E7__valueEbE6__typeERKNSt7__cxx1112basic_stringIS3_St11char_traitsIS3_ESaIS3_EEESE_,"axG",@progbits,_ZSteqIcEN9__gnu_cxx11__enable_ifIXsrSt9__is_charIT_E7__valueEbE6__typeERKNSt7__cxx1112basic_stringIS3_St11char_traitsIS3_ESaIS3_EEESE_,comdat
	.weak	_ZSteqIcEN9__gnu_cxx11__enable_ifIXsrSt9__is_charIT_E7__valueEbE6__typeERKNSt7__cxx1112basic_stringIS3_St11char_traitsIS3_ESaIS3_EEESE_
	.type	_ZSteqIcEN9__gnu_cxx11__enable_ifIXsrSt9__is_charIT_E7__valueEbE6__typeERKNSt7__cxx1112basic_stringIS3_St11char_traitsIS3_ESaIS3_EEESE_, @function
_ZSteqIcEN9__gnu_cxx11__enable_ifIXsrSt9__is_charIT_E7__valueEbE6__typeERKNSt7__cxx1112basic_stringIS3_St11char_traitsIS3_ESaIS3_EEESE_:
.LFB10441:
	.cfi_startproc
	endbr64
	push	rbp
	.cfi_def_cfa_offset 16
	.cfi_offset 6, -16
	mov	rbp, rsp
	.cfi_def_cfa_register 6
	push	r12
	push	rbx
	sub	rsp, 16
	.cfi_offset 12, -24
	.cfi_offset 3, -32
	mov	QWORD PTR -24[rbp], rdi
	mov	QWORD PTR -32[rbp], rsi
	mov	rax, QWORD PTR -24[rbp]
	mov	rdi, rax
	call	_ZNKSt7__cxx1112basic_stringIcSt11char_traitsIcESaIcEE4sizeEv@PLT
	mov	rbx, rax
	mov	rax, QWORD PTR -32[rbp]
	mov	rdi, rax
	call	_ZNKSt7__cxx1112basic_stringIcSt11char_traitsIcESaIcEE4sizeEv@PLT
	cmp	rbx, rax
	jne	.L149
	mov	rax, QWORD PTR -24[rbp]
	mov	rdi, rax
	call	_ZNKSt7__cxx1112basic_stringIcSt11char_traitsIcESaIcEE4sizeEv@PLT
	mov	r12, rax
	mov	rax, QWORD PTR -32[rbp]
	mov	rdi, rax
	call	_ZNKSt7__cxx1112basic_stringIcSt11char_traitsIcESaIcEE4dataEv@PLT
	mov	rbx, rax
	mov	rax, QWORD PTR -24[rbp]
	mov	rdi, rax
	call	_ZNKSt7__cxx1112basic_stringIcSt11char_traitsIcESaIcEE4dataEv@PLT
	mov	rdx, r12
	mov	rsi, rbx
	mov	rdi, rax
	call	_ZNSt11char_traitsIcE7compareEPKcS2_m
	test	eax, eax
	jne	.L149
	mov	eax, 1
	jmp	.L150
.L149:
	mov	eax, 0
.L150:
	add	rsp, 16
	pop	rbx
	pop	r12
	pop	rbp
	.cfi_def_cfa 7, 8
	ret
	.cfi_endproc
.LFE10441:
	.size	_ZSteqIcEN9__gnu_cxx11__enable_ifIXsrSt9__is_charIT_E7__valueEbE6__typeERKNSt7__cxx1112basic_stringIS3_St11char_traitsIS3_ESaIS3_EEESE_, .-_ZSteqIcEN9__gnu_cxx11__enable_ifIXsrSt9__is_charIT_E7__valueEbE6__typeERKNSt7__cxx1112basic_stringIS3_St11char_traitsIS3_ESaIS3_EEESE_
	.section	.text._ZNSt6vectorIiSaIiEEixEm,"axG",@progbits,_ZNSt6vectorIiSaIiEEixEm,comdat
	.align 2
	.weak	_ZNSt6vectorIiSaIiEEixEm
	.type	_ZNSt6vectorIiSaIiEEixEm, @function
_ZNSt6vectorIiSaIiEEixEm:
.LFB10442:
	.cfi_startproc
	endbr64
	push	rbp
	.cfi_def_cfa_offset 16
	.cfi_offset 6, -16
	mov	rbp, rsp
	.cfi_def_cfa_register 6
	mov	QWORD PTR -8[rbp], rdi
	mov	QWORD PTR -16[rbp], rsi
	mov	rax, QWORD PTR -8[rbp]
	mov	rdx, QWORD PTR [rax]
	mov	rax, QWORD PTR -16[rbp]
	sal	rax, 2
	add	rax, rdx
	pop	rbp
	.cfi_def_cfa 7, 8
	ret
	.cfi_endproc
.LFE10442:
	.size	_ZNSt6vectorIiSaIiEEixEm, .-_ZNSt6vectorIiSaIiEEixEm
	.section	.text._ZNKSt6vectorISt4pairIiiESaIS1_EEixEm,"axG",@progbits,_ZNKSt6vectorISt4pairIiiESaIS1_EEixEm,comdat
	.align 2
	.weak	_ZNKSt6vectorISt4pairIiiESaIS1_EEixEm
	.type	_ZNKSt6vectorISt4pairIiiESaIS1_EEixEm, @function
_ZNKSt6vectorISt4pairIiiESaIS1_EEixEm:
.LFB10443:
	.cfi_startproc
	endbr64
	push	rbp
	.cfi_def_cfa_offset 16
	.cfi_offset 6, -16
	mov	rbp, rsp
	.cfi_def_cfa_register 6
	mov	QWORD PTR -8[rbp], rdi
	mov	QWORD PTR -16[rbp], rsi
	mov	rax, QWORD PTR -8[rbp]
	mov	rdx, QWORD PTR [rax]
	mov	rax, QWORD PTR -16[rbp]
	sal	rax, 3
	add	rax, rdx
	pop	rbp
	.cfi_def_cfa 7, 8
	ret
	.cfi_endproc
.LFE10443:
	.size	_ZNKSt6vectorISt4pairIiiESaIS1_EEixEm, .-_ZNKSt6vectorISt4pairIiiESaIS1_EEixEm
	.section	.text._ZSt3maxIiERKT_S2_S2_,"axG",@progbits,_ZSt3maxIiERKT_S2_S2_,comdat
	.weak	_ZSt3maxIiERKT_S2_S2_
	.type	_ZSt3maxIiERKT_S2_S2_, @function
_ZSt3maxIiERKT_S2_S2_:
.LFB10444:
	.cfi_startproc
	endbr64
	push	rbp
	.cfi_def_cfa_offset 16
	.cfi_offset 6, -16
	mov	rbp, rsp
	.cfi_def_cfa_register 6
	mov	QWORD PTR -8[rbp], rdi
	mov	QWORD PTR -16[rbp], rsi
	mov	rax, QWORD PTR -8[rbp]
	mov	edx, DWORD PTR [rax]
	mov	rax, QWORD PTR -16[rbp]
	mov	eax, DWORD PTR [rax]
	cmp	edx, eax
	jge	.L157
	mov	rax, QWORD PTR -16[rbp]
	jmp	.L158
.L157:
	mov	rax, QWORD PTR -8[rbp]
.L158:
	pop	rbp
	.cfi_def_cfa 7, 8
	ret
	.cfi_endproc
.LFE10444:
	.size	_ZSt3maxIiERKT_S2_S2_, .-_ZSt3maxIiERKT_S2_S2_
	.section	.text._ZNSaISt4pairIiiEEC2Ev,"axG",@progbits,_ZNSaISt4pairIiiEEC5Ev,comdat
	.align 2
	.weak	_ZNSaISt4pairIiiEEC2Ev
	.type	_ZNSaISt4pairIiiEEC2Ev, @function
_ZNSaISt4pairIiiEEC2Ev:
.LFB10447:
	.cfi_startproc
	endbr64
	push	rbp
	.cfi_def_cfa_offset 16
	.cfi_offset 6, -16
	mov	rbp, rsp
	.cfi_def_cfa_register 6
	sub	rsp, 16
	mov	QWORD PTR -8[rbp], rdi
	mov	rax, QWORD PTR -8[rbp]
	mov	rdi, rax
	call	_ZN9__gnu_cxx13new_allocatorISt4pairIiiEEC2Ev
	nop
	leave
	.cfi_def_cfa 7, 8
	ret
	.cfi_endproc
.LFE10447:
	.size	_ZNSaISt4pairIiiEEC2Ev, .-_ZNSaISt4pairIiiEEC2Ev
	.weak	_ZNSaISt4pairIiiEEC1Ev
	.set	_ZNSaISt4pairIiiEEC1Ev,_ZNSaISt4pairIiiEEC2Ev
	.section	.text._ZNSaISt4pairIiiEED2Ev,"axG",@progbits,_ZNSaISt4pairIiiEED5Ev,comdat
	.align 2
	.weak	_ZNSaISt4pairIiiEED2Ev
	.type	_ZNSaISt4pairIiiEED2Ev, @function
_ZNSaISt4pairIiiEED2Ev:
.LFB10450:
	.cfi_startproc
	endbr64
	push	rbp
	.cfi_def_cfa_offset 16
	.cfi_offset 6, -16
	mov	rbp, rsp
	.cfi_def_cfa_register 6
	sub	rsp, 16
	mov	QWORD PTR -8[rbp], rdi
	mov	rax, QWORD PTR -8[rbp]
	mov	rdi, rax
	call	_ZN9__gnu_cxx13new_allocatorISt4pairIiiEED2Ev
	nop
	leave
	.cfi_def_cfa 7, 8
	ret
	.cfi_endproc
.LFE10450:
	.size	_ZNSaISt4pairIiiEED2Ev, .-_ZNSaISt4pairIiiEED2Ev
	.weak	_ZNSaISt4pairIiiEED1Ev
	.set	_ZNSaISt4pairIiiEED1Ev,_ZNSaISt4pairIiiEED2Ev
	.section	.text._ZNSt6vectorISt4pairIiiESaIS1_EEC2EmRKS2_,"axG",@progbits,_ZNSt6vectorISt4pairIiiESaIS1_EEC5EmRKS2_,comdat
	.align 2
	.weak	_ZNSt6vectorISt4pairIiiESaIS1_EEC2EmRKS2_
	.type	_ZNSt6vectorISt4pairIiiESaIS1_EEC2EmRKS2_, @function
_ZNSt6vectorISt4pairIiiESaIS1_EEC2EmRKS2_:
.LFB10453:
	.cfi_startproc
	.cfi_personality 0x9b,DW.ref.__gxx_personality_v0
	.cfi_lsda 0x1b,.LLSDA10453
	endbr64
	push	rbp
	.cfi_def_cfa_offset 16
	.cfi_offset 6, -16
	mov	rbp, rsp
	.cfi_def_cfa_register 6
	push	rbx
	sub	rsp, 40
	.cfi_offset 3, -24
	mov	QWORD PTR -24[rbp], rdi
	mov	QWORD PTR -32[rbp], rsi
	mov	QWORD PTR -40[rbp], rdx
	mov	rbx, QWORD PTR -24[rbp]
	mov	rdx, QWORD PTR -40[rbp]
	mov	rax, QWORD PTR -32[rbp]
	mov	rsi, rdx
	mov	rdi, rax
.LEHB7:
	call	_ZNSt6vectorISt4pairIiiESaIS1_EE17_S_check_init_lenEmRKS2_
	mov	rcx, rax
	mov	rax, QWORD PTR -40[rbp]
	mov	rdx, rax
	mov	rsi, rcx
	mov	rdi, rbx
	call	_ZNSt12_Vector_baseISt4pairIiiESaIS1_EEC2EmRKS2_
.LEHE7:
	mov	rdx, QWORD PTR -32[rbp]
	mov	rax, QWORD PTR -24[rbp]
	mov	rsi, rdx
	mov	rdi, rax
.LEHB8:
	call	_ZNSt6vectorISt4pairIiiESaIS1_EE21_M_default_initializeEm
.LEHE8:
	jmp	.L164
.L163:
	endbr64
	mov	rbx, rax
	mov	rax, QWORD PTR -24[rbp]
	mov	rdi, rax
	call	_ZNSt12_Vector_baseISt4pairIiiESaIS1_EED2Ev
	mov	rax, rbx
	mov	rdi, rax
.LEHB9:
	call	_Unwind_Resume@PLT
.LEHE9:
.L164:
	mov	rbx, QWORD PTR -8[rbp]
	leave
	.cfi_def_cfa 7, 8
	ret
	.cfi_endproc
.LFE10453:
	.section	.gcc_except_table
.LLSDA10453:
	.byte	0xff
	.byte	0xff
	.byte	0x1
	.uleb128 .LLSDACSE10453-.LLSDACSB10453
.LLSDACSB10453:
	.uleb128 .LEHB7-.LFB10453
	.uleb128 .LEHE7-.LEHB7
	.uleb128 0
	.uleb128 0
	.uleb128 .LEHB8-.LFB10453
	.uleb128 .LEHE8-.LEHB8
	.uleb128 .L163-.LFB10453
	.uleb128 0
	.uleb128 .LEHB9-.LFB10453
	.uleb128 .LEHE9-.LEHB9
	.uleb128 0
	.uleb128 0
.LLSDACSE10453:
	.section	.text._ZNSt6vectorISt4pairIiiESaIS1_EEC2EmRKS2_,"axG",@progbits,_ZNSt6vectorISt4pairIiiESaIS1_EEC5EmRKS2_,comdat
	.size	_ZNSt6vectorISt4pairIiiESaIS1_EEC2EmRKS2_, .-_ZNSt6vectorISt4pairIiiESaIS1_EEC2EmRKS2_
	.weak	_ZNSt6vectorISt4pairIiiESaIS1_EEC1EmRKS2_
	.set	_ZNSt6vectorISt4pairIiiESaIS1_EEC1EmRKS2_,_ZNSt6vectorISt4pairIiiESaIS1_EEC2EmRKS2_
	.section	.text._ZNSt6vectorISt4pairIiiESaIS1_EED2Ev,"axG",@progbits,_ZNSt6vectorISt4pairIiiESaIS1_EED5Ev,comdat
	.align 2
	.weak	_ZNSt6vectorISt4pairIiiESaIS1_EED2Ev
	.type	_ZNSt6vectorISt4pairIiiESaIS1_EED2Ev, @function
_ZNSt6vectorISt4pairIiiESaIS1_EED2Ev:
.LFB10456:
	.cfi_startproc
	.cfi_personality 0x9b,DW.ref.__gxx_personality_v0
	.cfi_lsda 0x1b,.LLSDA10456
	endbr64
	push	rbp
	.cfi_def_cfa_offset 16
	.cfi_offset 6, -16
	mov	rbp, rsp
	.cfi_def_cfa_register 6
	sub	rsp, 16
	mov	QWORD PTR -8[rbp], rdi
	mov	rax, QWORD PTR -8[rbp]
	mov	rdi, rax
	call	_ZNSt12_Vector_baseISt4pairIiiESaIS1_EE19_M_get_Tp_allocatorEv
	mov	rdx, rax
	mov	rax, QWORD PTR -8[rbp]
	mov	rcx, QWORD PTR 8[rax]
	mov	rax, QWORD PTR -8[rbp]
	mov	rax, QWORD PTR [rax]
	mov	rsi, rcx
	mov	rdi, rax
	call	_ZSt8_DestroyIPSt4pairIiiES1_EvT_S3_RSaIT0_E
	mov	rax, QWORD PTR -8[rbp]
	mov	rdi, rax
	call	_ZNSt12_Vector_baseISt4pairIiiESaIS1_EED2Ev
	nop
	leave
	.cfi_def_cfa 7, 8
	ret
	.cfi_endproc
.LFE10456:
	.section	.gcc_except_table
.LLSDA10456:
	.byte	0xff
	.byte	0xff
	.byte	0x1
	.uleb128 .LLSDACSE10456-.LLSDACSB10456
.LLSDACSB10456:
.LLSDACSE10456:
	.section	.text._ZNSt6vectorISt4pairIiiESaIS1_EED2Ev,"axG",@progbits,_ZNSt6vectorISt4pairIiiESaIS1_EED5Ev,comdat
	.size	_ZNSt6vectorISt4pairIiiESaIS1_EED2Ev, .-_ZNSt6vectorISt4pairIiiESaIS1_EED2Ev
	.weak	_ZNSt6vectorISt4pairIiiESaIS1_EED1Ev
	.set	_ZNSt6vectorISt4pairIiiESaIS1_EED1Ev,_ZNSt6vectorISt4pairIiiESaIS1_EED2Ev
	.section	.text._ZNSt6vectorISt4pairIiiESaIS1_EEixEm,"axG",@progbits,_ZNSt6vectorISt4pairIiiESaIS1_EEixEm,comdat
	.align 2
	.weak	_ZNSt6vectorISt4pairIiiESaIS1_EEixEm
	.type	_ZNSt6vectorISt4pairIiiESaIS1_EEixEm, @function
_ZNSt6vectorISt4pairIiiESaIS1_EEixEm:
.LFB10458:
	.cfi_startproc
	endbr64
	push	rbp
	.cfi_def_cfa_offset 16
	.cfi_offset 6, -16
	mov	rbp, rsp
	.cfi_def_cfa_register 6
	mov	QWORD PTR -8[rbp], rdi
	mov	QWORD PTR -16[rbp], rsi
	mov	rax, QWORD PTR -8[rbp]
	mov	rdx, QWORD PTR [rax]
	mov	rax, QWORD PTR -16[rbp]
	sal	rax, 3
	add	rax, rdx
	pop	rbp
	.cfi_def_cfa 7, 8
	ret
	.cfi_endproc
.LFE10458:
	.size	_ZNSt6vectorISt4pairIiiESaIS1_EEixEm, .-_ZNSt6vectorISt4pairIiiESaIS1_EEixEm
	.section	.text._ZNSt6vectorISt4pairIiiESaIS1_EE6rbeginEv,"axG",@progbits,_ZNSt6vectorISt4pairIiiESaIS1_EE6rbeginEv,comdat
	.align 2
	.weak	_ZNSt6vectorISt4pairIiiESaIS1_EE6rbeginEv
	.type	_ZNSt6vectorISt4pairIiiESaIS1_EE6rbeginEv, @function
_ZNSt6vectorISt4pairIiiESaIS1_EE6rbeginEv:
.LFB10459:
	.cfi_startproc
	endbr64
	push	rbp
	.cfi_def_cfa_offset 16
	.cfi_offset 6, -16
	mov	rbp, rsp
	.cfi_def_cfa_register 6
	sub	rsp, 16
	mov	QWORD PTR -8[rbp], rdi
	mov	QWORD PTR -16[rbp], rsi
	mov	rax, QWORD PTR -16[rbp]
	mov	rdi, rax
	call	_ZNSt6vectorISt4pairIiiESaIS1_EE3endEv
	mov	rdx, rax
	mov	rax, QWORD PTR -8[rbp]
	mov	rsi, rdx
	mov	rdi, rax
	call	_ZNSt16reverse_iteratorIN9__gnu_cxx17__normal_iteratorIPSt4pairIiiESt6vectorIS3_SaIS3_EEEEEC1ES8_
	mov	rax, QWORD PTR -8[rbp]
	leave
	.cfi_def_cfa 7, 8
	ret
	.cfi_endproc
.LFE10459:
	.size	_ZNSt6vectorISt4pairIiiESaIS1_EE6rbeginEv, .-_ZNSt6vectorISt4pairIiiESaIS1_EE6rbeginEv
	.section	.text._ZNSt6vectorISt4pairIiiESaIS1_EE4rendEv,"axG",@progbits,_ZNSt6vectorISt4pairIiiESaIS1_EE4rendEv,comdat
	.align 2
	.weak	_ZNSt6vectorISt4pairIiiESaIS1_EE4rendEv
	.type	_ZNSt6vectorISt4pairIiiESaIS1_EE4rendEv, @function
_ZNSt6vectorISt4pairIiiESaIS1_EE4rendEv:
.LFB10460:
	.cfi_startproc
	endbr64
	push	rbp
	.cfi_def_cfa_offset 16
	.cfi_offset 6, -16
	mov	rbp, rsp
	.cfi_def_cfa_register 6
	sub	rsp, 16
	mov	QWORD PTR -8[rbp], rdi
	mov	QWORD PTR -16[rbp], rsi
	mov	rax, QWORD PTR -16[rbp]
	mov	rdi, rax
	call	_ZNSt6vectorISt4pairIiiESaIS1_EE5beginEv
	mov	rdx, rax
	mov	rax, QWORD PTR -8[rbp]
	mov	rsi, rdx
	mov	rdi, rax
	call	_ZNSt16reverse_iteratorIN9__gnu_cxx17__normal_iteratorIPSt4pairIiiESt6vectorIS3_SaIS3_EEEEEC1ES8_
	mov	rax, QWORD PTR -8[rbp]
	leave
	.cfi_def_cfa 7, 8
	ret
	.cfi_endproc
.LFE10460:
	.size	_ZNSt6vectorISt4pairIiiESaIS1_EE4rendEv, .-_ZNSt6vectorISt4pairIiiESaIS1_EE4rendEv
	.section	.text._ZSt4sortISt16reverse_iteratorIN9__gnu_cxx17__normal_iteratorIPSt4pairIiiESt6vectorIS4_SaIS4_EEEEEEvT_SB_,"axG",@progbits,_ZSt4sortISt16reverse_iteratorIN9__gnu_cxx17__normal_iteratorIPSt4pairIiiESt6vectorIS4_SaIS4_EEEEEEvT_SB_,comdat
	.weak	_ZSt4sortISt16reverse_iteratorIN9__gnu_cxx17__normal_iteratorIPSt4pairIiiESt6vectorIS4_SaIS4_EEEEEEvT_SB_
	.type	_ZSt4sortISt16reverse_iteratorIN9__gnu_cxx17__normal_iteratorIPSt4pairIiiESt6vectorIS4_SaIS4_EEEEEEvT_SB_, @function
_ZSt4sortISt16reverse_iteratorIN9__gnu_cxx17__normal_iteratorIPSt4pairIiiESt6vectorIS4_SaIS4_EEEEEEvT_SB_:
.LFB10461:
	.cfi_startproc
	endbr64
	push	rbp
	.cfi_def_cfa_offset 16
	.cfi_offset 6, -16
	mov	rbp, rsp
	.cfi_def_cfa_register 6
	sub	rsp, 48
	mov	QWORD PTR -40[rbp], rdi
	mov	QWORD PTR -48[rbp], rsi
	mov	rax, QWORD PTR fs:40
	mov	QWORD PTR -8[rbp], rax
	xor	eax, eax
	call	_ZN9__gnu_cxx5__ops16__iter_less_iterEv
	mov	rdx, QWORD PTR -48[rbp]
	lea	rax, -16[rbp]
	mov	rsi, rdx
	mov	rdi, rax
	call	_ZNSt16reverse_iteratorIN9__gnu_cxx17__normal_iteratorIPSt4pairIiiESt6vectorIS3_SaIS3_EEEEEC1ERKS9_
	mov	rdx, QWORD PTR -40[rbp]
	lea	rax, -24[rbp]
	mov	rsi, rdx
	mov	rdi, rax
	call	_ZNSt16reverse_iteratorIN9__gnu_cxx17__normal_iteratorIPSt4pairIiiESt6vectorIS3_SaIS3_EEEEEC1ERKS9_
	lea	rdx, -16[rbp]
	lea	rax, -24[rbp]
	mov	rsi, rdx
	mov	rdi, rax
	call	_ZSt6__sortISt16reverse_iteratorIN9__gnu_cxx17__normal_iteratorIPSt4pairIiiESt6vectorIS4_SaIS4_EEEEENS1_5__ops15_Iter_less_iterEEvT_SD_T0_
	nop
	mov	rax, QWORD PTR -8[rbp]
	sub	rax, QWORD PTR fs:40
	je	.L173
	call	__stack_chk_fail@PLT
.L173:
	leave
	.cfi_def_cfa 7, 8
	ret
	.cfi_endproc
.LFE10461:
	.size	_ZSt4sortISt16reverse_iteratorIN9__gnu_cxx17__normal_iteratorIPSt4pairIiiESt6vectorIS4_SaIS4_EEEEEEvT_SB_, .-_ZSt4sortISt16reverse_iteratorIN9__gnu_cxx17__normal_iteratorIPSt4pairIiiESt6vectorIS4_SaIS4_EEEEEEvT_SB_
	.section	.text._ZNSaIxEC2Ev,"axG",@progbits,_ZNSaIxEC5Ev,comdat
	.align 2
	.weak	_ZNSaIxEC2Ev
	.type	_ZNSaIxEC2Ev, @function
_ZNSaIxEC2Ev:
.LFB10854:
	.cfi_startproc
	endbr64
	push	rbp
	.cfi_def_cfa_offset 16
	.cfi_offset 6, -16
	mov	rbp, rsp
	.cfi_def_cfa_register 6
	sub	rsp, 16
	mov	QWORD PTR -8[rbp], rdi
	mov	rax, QWORD PTR -8[rbp]
	mov	rdi, rax
	call	_ZN9__gnu_cxx13new_allocatorIxEC2Ev
	nop
	leave
	.cfi_def_cfa 7, 8
	ret
	.cfi_endproc
.LFE10854:
	.size	_ZNSaIxEC2Ev, .-_ZNSaIxEC2Ev
	.weak	_ZNSaIxEC1Ev
	.set	_ZNSaIxEC1Ev,_ZNSaIxEC2Ev
	.section	.text._ZNSt12_Vector_baseIxSaIxEE17_Vector_impl_dataC2Ev,"axG",@progbits,_ZNSt12_Vector_baseIxSaIxEE17_Vector_impl_dataC5Ev,comdat
	.align 2
	.weak	_ZNSt12_Vector_baseIxSaIxEE17_Vector_impl_dataC2Ev
	.type	_ZNSt12_Vector_baseIxSaIxEE17_Vector_impl_dataC2Ev, @function
_ZNSt12_Vector_baseIxSaIxEE17_Vector_impl_dataC2Ev:
.LFB10857:
	.cfi_startproc
	endbr64
	push	rbp
	.cfi_def_cfa_offset 16
	.cfi_offset 6, -16
	mov	rbp, rsp
	.cfi_def_cfa_register 6
	mov	QWORD PTR -8[rbp], rdi
	mov	rax, QWORD PTR -8[rbp]
	mov	QWORD PTR [rax], 0
	mov	rax, QWORD PTR -8[rbp]
	mov	QWORD PTR 8[rax], 0
	mov	rax, QWORD PTR -8[rbp]
	mov	QWORD PTR 16[rax], 0
	nop
	pop	rbp
	.cfi_def_cfa 7, 8
	ret
	.cfi_endproc
.LFE10857:
	.size	_ZNSt12_Vector_baseIxSaIxEE17_Vector_impl_dataC2Ev, .-_ZNSt12_Vector_baseIxSaIxEE17_Vector_impl_dataC2Ev
	.weak	_ZNSt12_Vector_baseIxSaIxEE17_Vector_impl_dataC1Ev
	.set	_ZNSt12_Vector_baseIxSaIxEE17_Vector_impl_dataC1Ev,_ZNSt12_Vector_baseIxSaIxEE17_Vector_impl_dataC2Ev
	.section	.text._ZN9__gnu_cxx13new_allocatorIxED2Ev,"axG",@progbits,_ZN9__gnu_cxx13new_allocatorIxED5Ev,comdat
	.align 2
	.weak	_ZN9__gnu_cxx13new_allocatorIxED2Ev
	.type	_ZN9__gnu_cxx13new_allocatorIxED2Ev, @function
_ZN9__gnu_cxx13new_allocatorIxED2Ev:
.LFB10860:
	.cfi_startproc
	endbr64
	push	rbp
	.cfi_def_cfa_offset 16
	.cfi_offset 6, -16
	mov	rbp, rsp
	.cfi_def_cfa_register 6
	mov	QWORD PTR -8[rbp], rdi
	nop
	pop	rbp
	.cfi_def_cfa 7, 8
	ret
	.cfi_endproc
.LFE10860:
	.size	_ZN9__gnu_cxx13new_allocatorIxED2Ev, .-_ZN9__gnu_cxx13new_allocatorIxED2Ev
	.weak	_ZN9__gnu_cxx13new_allocatorIxED1Ev
	.set	_ZN9__gnu_cxx13new_allocatorIxED1Ev,_ZN9__gnu_cxx13new_allocatorIxED2Ev
	.section	.text._ZNSt12_Vector_baseIxSaIxEE13_M_deallocateEPxm,"axG",@progbits,_ZNSt12_Vector_baseIxSaIxEE13_M_deallocateEPxm,comdat
	.align 2
	.weak	_ZNSt12_Vector_baseIxSaIxEE13_M_deallocateEPxm
	.type	_ZNSt12_Vector_baseIxSaIxEE13_M_deallocateEPxm, @function
_ZNSt12_Vector_baseIxSaIxEE13_M_deallocateEPxm:
.LFB10862:
	.cfi_startproc
	endbr64
	push	rbp
	.cfi_def_cfa_offset 16
	.cfi_offset 6, -16
	mov	rbp, rsp
	.cfi_def_cfa_register 6
	sub	rsp, 32
	mov	QWORD PTR -8[rbp], rdi
	mov	QWORD PTR -16[rbp], rsi
	mov	QWORD PTR -24[rbp], rdx
	cmp	QWORD PTR -16[rbp], 0
	je	.L179
	mov	rax, QWORD PTR -8[rbp]
	mov	rdx, QWORD PTR -24[rbp]
	mov	rcx, QWORD PTR -16[rbp]
	mov	rsi, rcx
	mov	rdi, rax
	call	_ZNSt16allocator_traitsISaIxEE10deallocateERS0_Pxm
.L179:
	nop
	leave
	.cfi_def_cfa 7, 8
	ret
	.cfi_endproc
.LFE10862:
	.size	_ZNSt12_Vector_baseIxSaIxEE13_M_deallocateEPxm, .-_ZNSt12_Vector_baseIxSaIxEE13_M_deallocateEPxm
	.section	.text._ZSt4moveIRxEONSt16remove_referenceIT_E4typeEOS2_,"axG",@progbits,_ZSt4moveIRxEONSt16remove_referenceIT_E4typeEOS2_,comdat
	.weak	_ZSt4moveIRxEONSt16remove_referenceIT_E4typeEOS2_
	.type	_ZSt4moveIRxEONSt16remove_referenceIT_E4typeEOS2_, @function
_ZSt4moveIRxEONSt16remove_referenceIT_E4typeEOS2_:
.LFB10863:
	.cfi_startproc
	endbr64
	push	rbp
	.cfi_def_cfa_offset 16
	.cfi_offset 6, -16
	mov	rbp, rsp
	.cfi_def_cfa_register 6
	mov	QWORD PTR -8[rbp], rdi
	mov	rax, QWORD PTR -8[rbp]
	pop	rbp
	.cfi_def_cfa 7, 8
	ret
	.cfi_endproc
.LFE10863:
	.size	_ZSt4moveIRxEONSt16remove_referenceIT_E4typeEOS2_, .-_ZSt4moveIRxEONSt16remove_referenceIT_E4typeEOS2_
	.section	.text._ZNSt6vectorIxSaIxEE12emplace_backIJxEEERxDpOT_,"axG",@progbits,_ZNSt6vectorIxSaIxEE12emplace_backIJxEEERxDpOT_,comdat
	.align 2
	.weak	_ZNSt6vectorIxSaIxEE12emplace_backIJxEEERxDpOT_
	.type	_ZNSt6vectorIxSaIxEE12emplace_backIJxEEERxDpOT_, @function
_ZNSt6vectorIxSaIxEE12emplace_backIJxEEERxDpOT_:
.LFB10864:
	.cfi_startproc
	endbr64
	push	rbp
	.cfi_def_cfa_offset 16
	.cfi_offset 6, -16
	mov	rbp, rsp
	.cfi_def_cfa_register 6
	push	rbx
	sub	rsp, 24
	.cfi_offset 3, -24
	mov	QWORD PTR -24[rbp], rdi
	mov	QWORD PTR -32[rbp], rsi
	mov	rax, QWORD PTR -24[rbp]
	mov	rdx, QWORD PTR 8[rax]
	mov	rax, QWORD PTR -24[rbp]
	mov	rax, QWORD PTR 16[rax]
	cmp	rdx, rax
	je	.L183
	mov	rax, QWORD PTR -32[rbp]
	mov	rdi, rax
	call	_ZSt7forwardIxEOT_RNSt16remove_referenceIS0_E4typeE
	mov	rdx, rax
	mov	rax, QWORD PTR -24[rbp]
	mov	rcx, QWORD PTR 8[rax]
	mov	rax, QWORD PTR -24[rbp]
	mov	rsi, rcx
	mov	rdi, rax
	call	_ZNSt16allocator_traitsISaIxEE9constructIxJxEEEvRS0_PT_DpOT0_
	mov	rax, QWORD PTR -24[rbp]
	mov	rax, QWORD PTR 8[rax]
	lea	rdx, 8[rax]
	mov	rax, QWORD PTR -24[rbp]
	mov	QWORD PTR 8[rax], rdx
	jmp	.L184
.L183:
	mov	rax, QWORD PTR -32[rbp]
	mov	rdi, rax
	call	_ZSt7forwardIxEOT_RNSt16remove_referenceIS0_E4typeE
	mov	rbx, rax
	mov	rax, QWORD PTR -24[rbp]
	mov	rdi, rax
	call	_ZNSt6vectorIxSaIxEE3endEv
	mov	rcx, rax
	mov	rax, QWORD PTR -24[rbp]
	mov	rdx, rbx
	mov	rsi, rcx
	mov	rdi, rax
	call	_ZNSt6vectorIxSaIxEE17_M_realloc_insertIJxEEEvN9__gnu_cxx17__normal_iteratorIPxS1_EEDpOT_
.L184:
	mov	rax, QWORD PTR -24[rbp]
	mov	rdi, rax
	call	_ZNSt6vectorIxSaIxEE4backEv
	mov	rbx, QWORD PTR -8[rbp]
	leave
	.cfi_def_cfa 7, 8
	ret
	.cfi_endproc
.LFE10864:
	.size	_ZNSt6vectorIxSaIxEE12emplace_backIJxEEERxDpOT_, .-_ZNSt6vectorIxSaIxEE12emplace_backIJxEEERxDpOT_
	.section	.text._ZSt19__iterator_categoryIN9__gnu_cxx17__normal_iteratorIPcNSt7__cxx1112basic_stringIcSt11char_traitsIcESaIcEEEEEENSt15iterator_traitsIT_E17iterator_categoryERKSB_,"axG",@progbits,_ZSt19__iterator_categoryIN9__gnu_cxx17__normal_iteratorIPcNSt7__cxx1112basic_stringIcSt11char_traitsIcESaIcEEEEEENSt15iterator_traitsIT_E17iterator_categoryERKSB_,comdat
	.weak	_ZSt19__iterator_categoryIN9__gnu_cxx17__normal_iteratorIPcNSt7__cxx1112basic_stringIcSt11char_traitsIcESaIcEEEEEENSt15iterator_traitsIT_E17iterator_categoryERKSB_
	.type	_ZSt19__iterator_categoryIN9__gnu_cxx17__normal_iteratorIPcNSt7__cxx1112basic_stringIcSt11char_traitsIcESaIcEEEEEENSt15iterator_traitsIT_E17iterator_categoryERKSB_, @function
_ZSt19__iterator_categoryIN9__gnu_cxx17__normal_iteratorIPcNSt7__cxx1112basic_stringIcSt11char_traitsIcESaIcEEEEEENSt15iterator_traitsIT_E17iterator_categoryERKSB_:
.LFB10869:
	.cfi_startproc
	endbr64
	push	rbp
	.cfi_def_cfa_offset 16
	.cfi_offset 6, -16
	mov	rbp, rsp
	.cfi_def_cfa_register 6
	mov	QWORD PTR -8[rbp], rdi
	pop	rbp
	.cfi_def_cfa 7, 8
	ret
	.cfi_endproc
.LFE10869:
	.size	_ZSt19__iterator_categoryIN9__gnu_cxx17__normal_iteratorIPcNSt7__cxx1112basic_stringIcSt11char_traitsIcESaIcEEEEEENSt15iterator_traitsIT_E17iterator_categoryERKSB_, .-_ZSt19__iterator_categoryIN9__gnu_cxx17__normal_iteratorIPcNSt7__cxx1112basic_stringIcSt11char_traitsIcESaIcEEEEEENSt15iterator_traitsIT_E17iterator_categoryERKSB_
	.section	.text._ZSt9__reverseIN9__gnu_cxx17__normal_iteratorIPcNSt7__cxx1112basic_stringIcSt11char_traitsIcESaIcEEEEEEvT_SA_St26random_access_iterator_tag,"axG",@progbits,_ZSt9__reverseIN9__gnu_cxx17__normal_iteratorIPcNSt7__cxx1112basic_stringIcSt11char_traitsIcESaIcEEEEEEvT_SA_St26random_access_iterator_tag,comdat
	.weak	_ZSt9__reverseIN9__gnu_cxx17__normal_iteratorIPcNSt7__cxx1112basic_stringIcSt11char_traitsIcESaIcEEEEEEvT_SA_St26random_access_iterator_tag
	.type	_ZSt9__reverseIN9__gnu_cxx17__normal_iteratorIPcNSt7__cxx1112basic_stringIcSt11char_traitsIcESaIcEEEEEEvT_SA_St26random_access_iterator_tag, @function
_ZSt9__reverseIN9__gnu_cxx17__normal_iteratorIPcNSt7__cxx1112basic_stringIcSt11char_traitsIcESaIcEEEEEEvT_SA_St26random_access_iterator_tag:
.LFB10870:
	.cfi_startproc
	endbr64
	push	rbp
	.cfi_def_cfa_offset 16
	.cfi_offset 6, -16
	mov	rbp, rsp
	.cfi_def_cfa_register 6
	sub	rsp, 16
	mov	QWORD PTR -8[rbp], rdi
	mov	QWORD PTR -16[rbp], rsi
	lea	rdx, -16[rbp]
	lea	rax, -8[rbp]
	mov	rsi, rdx
	mov	rdi, rax
	call	_ZN9__gnu_cxxeqIPcNSt7__cxx1112basic_stringIcSt11char_traitsIcESaIcEEEEEbRKNS_17__normal_iteratorIT_T0_EESD_
	test	al, al
	jne	.L193
	lea	rax, -16[rbp]
	mov	rdi, rax
	call	_ZN9__gnu_cxx17__normal_iteratorIPcNSt7__cxx1112basic_stringIcSt11char_traitsIcESaIcEEEEmmEv
	jmp	.L191
.L192:
	mov	rdx, QWORD PTR -16[rbp]
	mov	rax, QWORD PTR -8[rbp]
	mov	rsi, rdx
	mov	rdi, rax
	call	_ZSt9iter_swapIN9__gnu_cxx17__normal_iteratorIPcNSt7__cxx1112basic_stringIcSt11char_traitsIcESaIcEEEEES9_EvT_T0_
	lea	rax, -8[rbp]
	mov	rdi, rax
	call	_ZN9__gnu_cxx17__normal_iteratorIPcNSt7__cxx1112basic_stringIcSt11char_traitsIcESaIcEEEEppEv
	lea	rax, -16[rbp]
	mov	rdi, rax
	call	_ZN9__gnu_cxx17__normal_iteratorIPcNSt7__cxx1112basic_stringIcSt11char_traitsIcESaIcEEEEmmEv
.L191:
	lea	rdx, -16[rbp]
	lea	rax, -8[rbp]
	mov	rsi, rdx
	mov	rdi, rax
	call	_ZN9__gnu_cxxltIPcNSt7__cxx1112basic_stringIcSt11char_traitsIcESaIcEEEEEbRKNS_17__normal_iteratorIT_T0_EESD_
	test	al, al
	jne	.L192
	jmp	.L188
.L193:
	nop
.L188:
	leave
	.cfi_def_cfa 7, 8
	ret
	.cfi_endproc
.LFE10870:
	.size	_ZSt9__reverseIN9__gnu_cxx17__normal_iteratorIPcNSt7__cxx1112basic_stringIcSt11char_traitsIcESaIcEEEEEEvT_SA_St26random_access_iterator_tag, .-_ZSt9__reverseIN9__gnu_cxx17__normal_iteratorIPcNSt7__cxx1112basic_stringIcSt11char_traitsIcESaIcEEEEEEvT_SA_St26random_access_iterator_tag
	.section	.text._ZN9__gnu_cxx13new_allocatorISt4pairIiiEEC2Ev,"axG",@progbits,_ZN9__gnu_cxx13new_allocatorISt4pairIiiEEC5Ev,comdat
	.align 2
	.weak	_ZN9__gnu_cxx13new_allocatorISt4pairIiiEEC2Ev
	.type	_ZN9__gnu_cxx13new_allocatorISt4pairIiiEEC2Ev, @function
_ZN9__gnu_cxx13new_allocatorISt4pairIiiEEC2Ev:
.LFB10872:
	.cfi_startproc
	endbr64
	push	rbp
	.cfi_def_cfa_offset 16
	.cfi_offset 6, -16
	mov	rbp, rsp
	.cfi_def_cfa_register 6
	mov	QWORD PTR -8[rbp], rdi
	nop
	pop	rbp
	.cfi_def_cfa 7, 8
	ret
	.cfi_endproc
.LFE10872:
	.size	_ZN9__gnu_cxx13new_allocatorISt4pairIiiEEC2Ev, .-_ZN9__gnu_cxx13new_allocatorISt4pairIiiEEC2Ev
	.weak	_ZN9__gnu_cxx13new_allocatorISt4pairIiiEEC1Ev
	.set	_ZN9__gnu_cxx13new_allocatorISt4pairIiiEEC1Ev,_ZN9__gnu_cxx13new_allocatorISt4pairIiiEEC2Ev
	.section	.text._ZN9__gnu_cxx13new_allocatorISt4pairIiiEED2Ev,"axG",@progbits,_ZN9__gnu_cxx13new_allocatorISt4pairIiiEED5Ev,comdat
	.align 2
	.weak	_ZN9__gnu_cxx13new_allocatorISt4pairIiiEED2Ev
	.type	_ZN9__gnu_cxx13new_allocatorISt4pairIiiEED2Ev, @function
_ZN9__gnu_cxx13new_allocatorISt4pairIiiEED2Ev:
.LFB10875:
	.cfi_startproc
	endbr64
	push	rbp
	.cfi_def_cfa_offset 16
	.cfi_offset 6, -16
	mov	rbp, rsp
	.cfi_def_cfa_register 6
	mov	QWORD PTR -8[rbp], rdi
	nop
	pop	rbp
	.cfi_def_cfa 7, 8
	ret
	.cfi_endproc
.LFE10875:
	.size	_ZN9__gnu_cxx13new_allocatorISt4pairIiiEED2Ev, .-_ZN9__gnu_cxx13new_allocatorISt4pairIiiEED2Ev
	.weak	_ZN9__gnu_cxx13new_allocatorISt4pairIiiEED1Ev
	.set	_ZN9__gnu_cxx13new_allocatorISt4pairIiiEED1Ev,_ZN9__gnu_cxx13new_allocatorISt4pairIiiEED2Ev
	.section	.rodata
	.align 8
.LC0:
	.string	"cannot create std::vector larger than max_size()"
	.section	.text._ZNSt6vectorISt4pairIiiESaIS1_EE17_S_check_init_lenEmRKS2_,"axG",@progbits,_ZNSt6vectorISt4pairIiiESaIS1_EE17_S_check_init_lenEmRKS2_,comdat
	.weak	_ZNSt6vectorISt4pairIiiESaIS1_EE17_S_check_init_lenEmRKS2_
	.type	_ZNSt6vectorISt4pairIiiESaIS1_EE17_S_check_init_lenEmRKS2_, @function
_ZNSt6vectorISt4pairIiiESaIS1_EE17_S_check_init_lenEmRKS2_:
.LFB10877:
	.cfi_startproc
	endbr64
	push	rbp
	.cfi_def_cfa_offset 16
	.cfi_offset 6, -16
	mov	rbp, rsp
	.cfi_def_cfa_register 6
	push	rbx
	sub	rsp, 40
	.cfi_offset 3, -24
	mov	QWORD PTR -40[rbp], rdi
	mov	QWORD PTR -48[rbp], rsi
	mov	rax, QWORD PTR fs:40
	mov	QWORD PTR -24[rbp], rax
	xor	eax, eax
	mov	rdx, QWORD PTR -48[rbp]
	lea	rax, -25[rbp]
	mov	rsi, rdx
	mov	rdi, rax
	call	_ZNSaISt4pairIiiEEC1ERKS1_
	lea	rax, -25[rbp]
	mov	rdi, rax
	call	_ZNSt6vectorISt4pairIiiESaIS1_EE11_S_max_sizeERKS2_
	cmp	QWORD PTR -40[rbp], rax
	seta	bl
	lea	rax, -25[rbp]
	mov	rdi, rax
	call	_ZNSaISt4pairIiiEED1Ev
	test	bl, bl
	je	.L197
	lea	rax, .LC0[rip]
	mov	rdi, rax
	call	_ZSt20__throw_length_errorPKc@PLT
.L197:
	mov	rax, QWORD PTR -40[rbp]
	mov	rdx, QWORD PTR -24[rbp]
	sub	rdx, QWORD PTR fs:40
	je	.L199
	call	__stack_chk_fail@PLT
.L199:
	mov	rbx, QWORD PTR -8[rbp]
	leave
	.cfi_def_cfa 7, 8
	ret
	.cfi_endproc
.LFE10877:
	.size	_ZNSt6vectorISt4pairIiiESaIS1_EE17_S_check_init_lenEmRKS2_, .-_ZNSt6vectorISt4pairIiiESaIS1_EE17_S_check_init_lenEmRKS2_
	.section	.text._ZNSt12_Vector_baseISt4pairIiiESaIS1_EE12_Vector_implD2Ev,"axG",@progbits,_ZNSt12_Vector_baseISt4pairIiiESaIS1_EE12_Vector_implD5Ev,comdat
	.align 2
	.weak	_ZNSt12_Vector_baseISt4pairIiiESaIS1_EE12_Vector_implD2Ev
	.type	_ZNSt12_Vector_baseISt4pairIiiESaIS1_EE12_Vector_implD2Ev, @function
_ZNSt12_Vector_baseISt4pairIiiESaIS1_EE12_Vector_implD2Ev:
.LFB10880:
	.cfi_startproc
	endbr64
	push	rbp
	.cfi_def_cfa_offset 16
	.cfi_offset 6, -16
	mov	rbp, rsp
	.cfi_def_cfa_register 6
	sub	rsp, 16
	mov	QWORD PTR -8[rbp], rdi
	mov	rax, QWORD PTR -8[rbp]
	mov	rdi, rax
	call	_ZNSaISt4pairIiiEED2Ev
	nop
	leave
	.cfi_def_cfa 7, 8
	ret
	.cfi_endproc
.LFE10880:
	.size	_ZNSt12_Vector_baseISt4pairIiiESaIS1_EE12_Vector_implD2Ev, .-_ZNSt12_Vector_baseISt4pairIiiESaIS1_EE12_Vector_implD2Ev
	.weak	_ZNSt12_Vector_baseISt4pairIiiESaIS1_EE12_Vector_implD1Ev
	.set	_ZNSt12_Vector_baseISt4pairIiiESaIS1_EE12_Vector_implD1Ev,_ZNSt12_Vector_baseISt4pairIiiESaIS1_EE12_Vector_implD2Ev
	.section	.text._ZNSt12_Vector_baseISt4pairIiiESaIS1_EEC2EmRKS2_,"axG",@progbits,_ZNSt12_Vector_baseISt4pairIiiESaIS1_EEC5EmRKS2_,comdat
	.align 2
	.weak	_ZNSt12_Vector_baseISt4pairIiiESaIS1_EEC2EmRKS2_
	.type	_ZNSt12_Vector_baseISt4pairIiiESaIS1_EEC2EmRKS2_, @function
_ZNSt12_Vector_baseISt4pairIiiESaIS1_EEC2EmRKS2_:
.LFB10882:
	.cfi_startproc
	.cfi_personality 0x9b,DW.ref.__gxx_personality_v0
	.cfi_lsda 0x1b,.LLSDA10882
	endbr64
	push	rbp
	.cfi_def_cfa_offset 16
	.cfi_offset 6, -16
	mov	rbp, rsp
	.cfi_def_cfa_register 6
	push	rbx
	sub	rsp, 40
	.cfi_offset 3, -24
	mov	QWORD PTR -24[rbp], rdi
	mov	QWORD PTR -32[rbp], rsi
	mov	QWORD PTR -40[rbp], rdx
	mov	rax, QWORD PTR -24[rbp]
	mov	rdx, QWORD PTR -40[rbp]
	mov	rsi, rdx
	mov	rdi, rax
	call	_ZNSt12_Vector_baseISt4pairIiiESaIS1_EE12_Vector_implC1ERKS2_
	mov	rdx, QWORD PTR -32[rbp]
	mov	rax, QWORD PTR -24[rbp]
	mov	rsi, rdx
	mov	rdi, rax
.LEHB10:
	call	_ZNSt12_Vector_baseISt4pairIiiESaIS1_EE17_M_create_storageEm
.LEHE10:
	jmp	.L204
.L203:
	endbr64
	mov	rbx, rax
	mov	rax, QWORD PTR -24[rbp]
	mov	rdi, rax
	call	_ZNSt12_Vector_baseISt4pairIiiESaIS1_EE12_Vector_implD1Ev
	mov	rax, rbx
	mov	rdi, rax
.LEHB11:
	call	_Unwind_Resume@PLT
.LEHE11:
.L204:
	mov	rbx, QWORD PTR -8[rbp]
	leave
	.cfi_def_cfa 7, 8
	ret
	.cfi_endproc
.LFE10882:
	.section	.gcc_except_table
.LLSDA10882:
	.byte	0xff
	.byte	0xff
	.byte	0x1
	.uleb128 .LLSDACSE10882-.LLSDACSB10882
.LLSDACSB10882:
	.uleb128 .LEHB10-.LFB10882
	.uleb128 .LEHE10-.LEHB10
	.uleb128 .L203-.LFB10882
	.uleb128 0
	.uleb128 .LEHB11-.LFB10882
	.uleb128 .LEHE11-.LEHB11
	.uleb128 0
	.uleb128 0
.LLSDACSE10882:
	.section	.text._ZNSt12_Vector_baseISt4pairIiiESaIS1_EEC2EmRKS2_,"axG",@progbits,_ZNSt12_Vector_baseISt4pairIiiESaIS1_EEC5EmRKS2_,comdat
	.size	_ZNSt12_Vector_baseISt4pairIiiESaIS1_EEC2EmRKS2_, .-_ZNSt12_Vector_baseISt4pairIiiESaIS1_EEC2EmRKS2_
	.weak	_ZNSt12_Vector_baseISt4pairIiiESaIS1_EEC1EmRKS2_
	.set	_ZNSt12_Vector_baseISt4pairIiiESaIS1_EEC1EmRKS2_,_ZNSt12_Vector_baseISt4pairIiiESaIS1_EEC2EmRKS2_
	.section	.text._ZNSt12_Vector_baseISt4pairIiiESaIS1_EED2Ev,"axG",@progbits,_ZNSt12_Vector_baseISt4pairIiiESaIS1_EED5Ev,comdat
	.align 2
	.weak	_ZNSt12_Vector_baseISt4pairIiiESaIS1_EED2Ev
	.type	_ZNSt12_Vector_baseISt4pairIiiESaIS1_EED2Ev, @function
_ZNSt12_Vector_baseISt4pairIiiESaIS1_EED2Ev:
.LFB10885:
	.cfi_startproc
	.cfi_personality 0x9b,DW.ref.__gxx_personality_v0
	.cfi_lsda 0x1b,.LLSDA10885
	endbr64
	push	rbp
	.cfi_def_cfa_offset 16
	.cfi_offset 6, -16
	mov	rbp, rsp
	.cfi_def_cfa_register 6
	sub	rsp, 16
	mov	QWORD PTR -8[rbp], rdi
	mov	rax, QWORD PTR -8[rbp]
	mov	rdx, QWORD PTR 16[rax]
	mov	rax, QWORD PTR -8[rbp]
	mov	rcx, QWORD PTR [rax]
	mov	rax, rdx
	sub	rax, rcx
	sar	rax, 3
	mov	rdx, rax
	mov	rax, QWORD PTR -8[rbp]
	mov	rcx, QWORD PTR [rax]
	mov	rax, QWORD PTR -8[rbp]
	mov	rsi, rcx
	mov	rdi, rax
	call	_ZNSt12_Vector_baseISt4pairIiiESaIS1_EE13_M_deallocateEPS1_m
	mov	rax, QWORD PTR -8[rbp]
	mov	rdi, rax
	call	_ZNSt12_Vector_baseISt4pairIiiESaIS1_EE12_Vector_implD1Ev
	nop
	leave
	.cfi_def_cfa 7, 8
	ret
	.cfi_endproc
.LFE10885:
	.section	.gcc_except_table
.LLSDA10885:
	.byte	0xff
	.byte	0xff
	.byte	0x1
	.uleb128 .LLSDACSE10885-.LLSDACSB10885
.LLSDACSB10885:
.LLSDACSE10885:
	.section	.text._ZNSt12_Vector_baseISt4pairIiiESaIS1_EED2Ev,"axG",@progbits,_ZNSt12_Vector_baseISt4pairIiiESaIS1_EED5Ev,comdat
	.size	_ZNSt12_Vector_baseISt4pairIiiESaIS1_EED2Ev, .-_ZNSt12_Vector_baseISt4pairIiiESaIS1_EED2Ev
	.weak	_ZNSt12_Vector_baseISt4pairIiiESaIS1_EED1Ev
	.set	_ZNSt12_Vector_baseISt4pairIiiESaIS1_EED1Ev,_ZNSt12_Vector_baseISt4pairIiiESaIS1_EED2Ev
	.section	.text._ZNSt6vectorISt4pairIiiESaIS1_EE21_M_default_initializeEm,"axG",@progbits,_ZNSt6vectorISt4pairIiiESaIS1_EE21_M_default_initializeEm,comdat
	.align 2
	.weak	_ZNSt6vectorISt4pairIiiESaIS1_EE21_M_default_initializeEm
	.type	_ZNSt6vectorISt4pairIiiESaIS1_EE21_M_default_initializeEm, @function
_ZNSt6vectorISt4pairIiiESaIS1_EE21_M_default_initializeEm:
.LFB10887:
	.cfi_startproc
	endbr64
	push	rbp
	.cfi_def_cfa_offset 16
	.cfi_offset 6, -16
	mov	rbp, rsp
	.cfi_def_cfa_register 6
	sub	rsp, 16
	mov	QWORD PTR -8[rbp], rdi
	mov	QWORD PTR -16[rbp], rsi
	mov	rax, QWORD PTR -8[rbp]
	mov	rdi, rax
	call	_ZNSt12_Vector_baseISt4pairIiiESaIS1_EE19_M_get_Tp_allocatorEv
	mov	rdx, rax
	mov	rax, QWORD PTR -8[rbp]
	mov	rax, QWORD PTR [rax]
	mov	rcx, QWORD PTR -16[rbp]
	mov	rsi, rcx
	mov	rdi, rax
	call	_ZSt27__uninitialized_default_n_aIPSt4pairIiiEmS1_ET_S3_T0_RSaIT1_E
	mov	rdx, QWORD PTR -8[rbp]
	mov	QWORD PTR 8[rdx], rax
	nop
	leave
	.cfi_def_cfa 7, 8
	ret
	.cfi_endproc
.LFE10887:
	.size	_ZNSt6vectorISt4pairIiiESaIS1_EE21_M_default_initializeEm, .-_ZNSt6vectorISt4pairIiiESaIS1_EE21_M_default_initializeEm
	.section	.text._ZNSt12_Vector_baseISt4pairIiiESaIS1_EE19_M_get_Tp_allocatorEv,"axG",@progbits,_ZNSt12_Vector_baseISt4pairIiiESaIS1_EE19_M_get_Tp_allocatorEv,comdat
	.align 2
	.weak	_ZNSt12_Vector_baseISt4pairIiiESaIS1_EE19_M_get_Tp_allocatorEv
	.type	_ZNSt12_Vector_baseISt4pairIiiESaIS1_EE19_M_get_Tp_allocatorEv, @function
_ZNSt12_Vector_baseISt4pairIiiESaIS1_EE19_M_get_Tp_allocatorEv:
.LFB10888:
	.cfi_startproc
	endbr64
	push	rbp
	.cfi_def_cfa_offset 16
	.cfi_offset 6, -16
	mov	rbp, rsp
	.cfi_def_cfa_register 6
	mov	QWORD PTR -8[rbp], rdi
	mov	rax, QWORD PTR -8[rbp]
	pop	rbp
	.cfi_def_cfa 7, 8
	ret
	.cfi_endproc
.LFE10888:
	.size	_ZNSt12_Vector_baseISt4pairIiiESaIS1_EE19_M_get_Tp_allocatorEv, .-_ZNSt12_Vector_baseISt4pairIiiESaIS1_EE19_M_get_Tp_allocatorEv
	.section	.text._ZSt8_DestroyIPSt4pairIiiES1_EvT_S3_RSaIT0_E,"axG",@progbits,_ZSt8_DestroyIPSt4pairIiiES1_EvT_S3_RSaIT0_E,comdat
	.weak	_ZSt8_DestroyIPSt4pairIiiES1_EvT_S3_RSaIT0_E
	.type	_ZSt8_DestroyIPSt4pairIiiES1_EvT_S3_RSaIT0_E, @function
_ZSt8_DestroyIPSt4pairIiiES1_EvT_S3_RSaIT0_E:
.LFB10889:
	.cfi_startproc
	endbr64
	push	rbp
	.cfi_def_cfa_offset 16
	.cfi_offset 6, -16
	mov	rbp, rsp
	.cfi_def_cfa_register 6
	sub	rsp, 32
	mov	QWORD PTR -8[rbp], rdi
	mov	QWORD PTR -16[rbp], rsi
	mov	QWORD PTR -24[rbp], rdx
	mov	rdx, QWORD PTR -16[rbp]
	mov	rax, QWORD PTR -8[rbp]
	mov	rsi, rdx
	mov	rdi, rax
	call	_ZSt8_DestroyIPSt4pairIiiEEvT_S3_
	nop
	leave
	.cfi_def_cfa 7, 8
	ret
	.cfi_endproc
.LFE10889:
	.size	_ZSt8_DestroyIPSt4pairIiiES1_EvT_S3_RSaIT0_E, .-_ZSt8_DestroyIPSt4pairIiiES1_EvT_S3_RSaIT0_E
	.section	.text._ZNSt6vectorISt4pairIiiESaIS1_EE3endEv,"axG",@progbits,_ZNSt6vectorISt4pairIiiESaIS1_EE3endEv,comdat
	.align 2
	.weak	_ZNSt6vectorISt4pairIiiESaIS1_EE3endEv
	.type	_ZNSt6vectorISt4pairIiiESaIS1_EE3endEv, @function
_ZNSt6vectorISt4pairIiiESaIS1_EE3endEv:
.LFB10890:
	.cfi_startproc
	endbr64
	push	rbp
	.cfi_def_cfa_offset 16
	.cfi_offset 6, -16
	mov	rbp, rsp
	.cfi_def_cfa_register 6
	sub	rsp, 32
	mov	QWORD PTR -24[rbp], rdi
	mov	rax, QWORD PTR fs:40
	mov	QWORD PTR -8[rbp], rax
	xor	eax, eax
	mov	rax, QWORD PTR -24[rbp]
	lea	rdx, 8[rax]
	lea	rax, -16[rbp]
	mov	rsi, rdx
	mov	rdi, rax
	call	_ZN9__gnu_cxx17__normal_iteratorIPSt4pairIiiESt6vectorIS2_SaIS2_EEEC1ERKS3_
	mov	rax, QWORD PTR -16[rbp]
	mov	rdx, QWORD PTR -8[rbp]
	sub	rdx, QWORD PTR fs:40
	je	.L212
	call	__stack_chk_fail@PLT
.L212:
	leave
	.cfi_def_cfa 7, 8
	ret
	.cfi_endproc
.LFE10890:
	.size	_ZNSt6vectorISt4pairIiiESaIS1_EE3endEv, .-_ZNSt6vectorISt4pairIiiESaIS1_EE3endEv
	.section	.text._ZNSt16reverse_iteratorIN9__gnu_cxx17__normal_iteratorIPSt4pairIiiESt6vectorIS3_SaIS3_EEEEEC2ES8_,"axG",@progbits,_ZNSt16reverse_iteratorIN9__gnu_cxx17__normal_iteratorIPSt4pairIiiESt6vectorIS3_SaIS3_EEEEEC5ES8_,comdat
	.align 2
	.weak	_ZNSt16reverse_iteratorIN9__gnu_cxx17__normal_iteratorIPSt4pairIiiESt6vectorIS3_SaIS3_EEEEEC2ES8_
	.type	_ZNSt16reverse_iteratorIN9__gnu_cxx17__normal_iteratorIPSt4pairIiiESt6vectorIS3_SaIS3_EEEEEC2ES8_, @function
_ZNSt16reverse_iteratorIN9__gnu_cxx17__normal_iteratorIPSt4pairIiiESt6vectorIS3_SaIS3_EEEEEC2ES8_:
.LFB10892:
	.cfi_startproc
	endbr64
	push	rbp
	.cfi_def_cfa_offset 16
	.cfi_offset 6, -16
	mov	rbp, rsp
	.cfi_def_cfa_register 6
	mov	QWORD PTR -8[rbp], rdi
	mov	QWORD PTR -16[rbp], rsi
	mov	rax, QWORD PTR -8[rbp]
	mov	rdx, QWORD PTR -16[rbp]
	mov	QWORD PTR [rax], rdx
	nop
	pop	rbp
	.cfi_def_cfa 7, 8
	ret
	.cfi_endproc
.LFE10892:
	.size	_ZNSt16reverse_iteratorIN9__gnu_cxx17__normal_iteratorIPSt4pairIiiESt6vectorIS3_SaIS3_EEEEEC2ES8_, .-_ZNSt16reverse_iteratorIN9__gnu_cxx17__normal_iteratorIPSt4pairIiiESt6vectorIS3_SaIS3_EEEEEC2ES8_
	.weak	_ZNSt16reverse_iteratorIN9__gnu_cxx17__normal_iteratorIPSt4pairIiiESt6vectorIS3_SaIS3_EEEEEC1ES8_
	.set	_ZNSt16reverse_iteratorIN9__gnu_cxx17__normal_iteratorIPSt4pairIiiESt6vectorIS3_SaIS3_EEEEEC1ES8_,_ZNSt16reverse_iteratorIN9__gnu_cxx17__normal_iteratorIPSt4pairIiiESt6vectorIS3_SaIS3_EEEEEC2ES8_
	.section	.text._ZNSt6vectorISt4pairIiiESaIS1_EE5beginEv,"axG",@progbits,_ZNSt6vectorISt4pairIiiESaIS1_EE5beginEv,comdat
	.align 2
	.weak	_ZNSt6vectorISt4pairIiiESaIS1_EE5beginEv
	.type	_ZNSt6vectorISt4pairIiiESaIS1_EE5beginEv, @function
_ZNSt6vectorISt4pairIiiESaIS1_EE5beginEv:
.LFB10894:
	.cfi_startproc
	endbr64
	push	rbp
	.cfi_def_cfa_offset 16
	.cfi_offset 6, -16
	mov	rbp, rsp
	.cfi_def_cfa_register 6
	sub	rsp, 32
	mov	QWORD PTR -24[rbp], rdi
	mov	rax, QWORD PTR fs:40
	mov	QWORD PTR -8[rbp], rax
	xor	eax, eax
	mov	rdx, QWORD PTR -24[rbp]
	lea	rax, -16[rbp]
	mov	rsi, rdx
	mov	rdi, rax
	call	_ZN9__gnu_cxx17__normal_iteratorIPSt4pairIiiESt6vectorIS2_SaIS2_EEEC1ERKS3_
	mov	rax, QWORD PTR -16[rbp]
	mov	rdx, QWORD PTR -8[rbp]
	sub	rdx, QWORD PTR fs:40
	je	.L216
	call	__stack_chk_fail@PLT
.L216:
	leave
	.cfi_def_cfa 7, 8
	ret
	.cfi_endproc
.LFE10894:
	.size	_ZNSt6vectorISt4pairIiiESaIS1_EE5beginEv, .-_ZNSt6vectorISt4pairIiiESaIS1_EE5beginEv
	.section	.text._ZNSt16reverse_iteratorIN9__gnu_cxx17__normal_iteratorIPSt4pairIiiESt6vectorIS3_SaIS3_EEEEEC2ERKS9_,"axG",@progbits,_ZNSt16reverse_iteratorIN9__gnu_cxx17__normal_iteratorIPSt4pairIiiESt6vectorIS3_SaIS3_EEEEEC5ERKS9_,comdat
	.align 2
	.weak	_ZNSt16reverse_iteratorIN9__gnu_cxx17__normal_iteratorIPSt4pairIiiESt6vectorIS3_SaIS3_EEEEEC2ERKS9_
	.type	_ZNSt16reverse_iteratorIN9__gnu_cxx17__normal_iteratorIPSt4pairIiiESt6vectorIS3_SaIS3_EEEEEC2ERKS9_, @function
_ZNSt16reverse_iteratorIN9__gnu_cxx17__normal_iteratorIPSt4pairIiiESt6vectorIS3_SaIS3_EEEEEC2ERKS9_:
.LFB10896:
	.cfi_startproc
	endbr64
	push	rbp
	.cfi_def_cfa_offset 16
	.cfi_offset 6, -16
	mov	rbp, rsp
	.cfi_def_cfa_register 6
	mov	QWORD PTR -8[rbp], rdi
	mov	QWORD PTR -16[rbp], rsi
	mov	rax, QWORD PTR -8[rbp]
	mov	rdx, QWORD PTR -16[rbp]
	mov	rdx, QWORD PTR [rdx]
	mov	QWORD PTR [rax], rdx
	nop
	pop	rbp
	.cfi_def_cfa 7, 8
	ret
	.cfi_endproc
.LFE10896:
	.size	_ZNSt16reverse_iteratorIN9__gnu_cxx17__normal_iteratorIPSt4pairIiiESt6vectorIS3_SaIS3_EEEEEC2ERKS9_, .-_ZNSt16reverse_iteratorIN9__gnu_cxx17__normal_iteratorIPSt4pairIiiESt6vectorIS3_SaIS3_EEEEEC2ERKS9_
	.weak	_ZNSt16reverse_iteratorIN9__gnu_cxx17__normal_iteratorIPSt4pairIiiESt6vectorIS3_SaIS3_EEEEEC1ERKS9_
	.set	_ZNSt16reverse_iteratorIN9__gnu_cxx17__normal_iteratorIPSt4pairIiiESt6vectorIS3_SaIS3_EEEEEC1ERKS9_,_ZNSt16reverse_iteratorIN9__gnu_cxx17__normal_iteratorIPSt4pairIiiESt6vectorIS3_SaIS3_EEEEEC2ERKS9_
	.section	.text._ZStneIN9__gnu_cxx17__normal_iteratorIPSt4pairIiiESt6vectorIS3_SaIS3_EEEEEbRKSt16reverse_iteratorIT_ESD_,"axG",@progbits,_ZStneIN9__gnu_cxx17__normal_iteratorIPSt4pairIiiESt6vectorIS3_SaIS3_EEEEEbRKSt16reverse_iteratorIT_ESD_,comdat
	.weak	_ZStneIN9__gnu_cxx17__normal_iteratorIPSt4pairIiiESt6vectorIS3_SaIS3_EEEEEbRKSt16reverse_iteratorIT_ESD_
	.type	_ZStneIN9__gnu_cxx17__normal_iteratorIPSt4pairIiiESt6vectorIS3_SaIS3_EEEEEbRKSt16reverse_iteratorIT_ESD_, @function
_ZStneIN9__gnu_cxx17__normal_iteratorIPSt4pairIiiESt6vectorIS3_SaIS3_EEEEEbRKSt16reverse_iteratorIT_ESD_:
.LFB10899:
	.cfi_startproc
	endbr64
	push	rbp
	.cfi_def_cfa_offset 16
	.cfi_offset 6, -16
	mov	rbp, rsp
	.cfi_def_cfa_register 6
	sub	rsp, 16
	mov	QWORD PTR -8[rbp], rdi
	mov	QWORD PTR -16[rbp], rsi
	mov	rdx, QWORD PTR -16[rbp]
	mov	rax, QWORD PTR -8[rbp]
	mov	rsi, rdx
	mov	rdi, rax
	call	_ZSteqIN9__gnu_cxx17__normal_iteratorIPSt4pairIiiESt6vectorIS3_SaIS3_EEEEEbRKSt16reverse_iteratorIT_ESD_
	xor	eax, 1
	leave
	.cfi_def_cfa 7, 8
	ret
	.cfi_endproc
.LFE10899:
	.size	_ZStneIN9__gnu_cxx17__normal_iteratorIPSt4pairIiiESt6vectorIS3_SaIS3_EEEEEbRKSt16reverse_iteratorIT_ESD_, .-_ZStneIN9__gnu_cxx17__normal_iteratorIPSt4pairIiiESt6vectorIS3_SaIS3_EEEEEbRKSt16reverse_iteratorIT_ESD_
	.section	.text._ZSteqIN9__gnu_cxx17__normal_iteratorIPSt4pairIiiESt6vectorIS3_SaIS3_EEEEEbRKSt16reverse_iteratorIT_ESD_,"axG",@progbits,_ZSteqIN9__gnu_cxx17__normal_iteratorIPSt4pairIiiESt6vectorIS3_SaIS3_EEEEEbRKSt16reverse_iteratorIT_ESD_,comdat
	.weak	_ZSteqIN9__gnu_cxx17__normal_iteratorIPSt4pairIiiESt6vectorIS3_SaIS3_EEEEEbRKSt16reverse_iteratorIT_ESD_
	.type	_ZSteqIN9__gnu_cxx17__normal_iteratorIPSt4pairIiiESt6vectorIS3_SaIS3_EEEEEbRKSt16reverse_iteratorIT_ESD_, @function
_ZSteqIN9__gnu_cxx17__normal_iteratorIPSt4pairIiiESt6vectorIS3_SaIS3_EEEEEbRKSt16reverse_iteratorIT_ESD_:
.LFB10900:
	.cfi_startproc
	endbr64
	push	rbp
	.cfi_def_cfa_offset 16
	.cfi_offset 6, -16
	mov	rbp, rsp
	.cfi_def_cfa_register 6
	sub	rsp, 48
	mov	QWORD PTR -40[rbp], rdi
	mov	QWORD PTR -48[rbp], rsi
	mov	rax, QWORD PTR fs:40
	mov	QWORD PTR -8[rbp], rax
	xor	eax, eax
	mov	rax, QWORD PTR -48[rbp]
	mov	rdi, rax
	call	_ZNKSt16reverse_iteratorIN9__gnu_cxx17__normal_iteratorIPSt4pairIiiESt6vectorIS3_SaIS3_EEEEE4baseEv
	mov	QWORD PTR -16[rbp], rax
	mov	rax, QWORD PTR -40[rbp]
	mov	rdi, rax
	call	_ZNKSt16reverse_iteratorIN9__gnu_cxx17__normal_iteratorIPSt4pairIiiESt6vectorIS3_SaIS3_EEEEE4baseEv
	mov	QWORD PTR -24[rbp], rax
	lea	rdx, -16[rbp]
	lea	rax, -24[rbp]
	mov	rsi, rdx
	mov	rdi, rax
	call	_ZN9__gnu_cxxeqIPSt4pairIiiESt6vectorIS2_SaIS2_EEEEbRKNS_17__normal_iteratorIT_T0_EESC_
	mov	rdx, QWORD PTR -8[rbp]
	sub	rdx, QWORD PTR fs:40
	je	.L222
	call	__stack_chk_fail@PLT
.L222:
	leave
	.cfi_def_cfa 7, 8
	ret
	.cfi_endproc
.LFE10900:
	.size	_ZSteqIN9__gnu_cxx17__normal_iteratorIPSt4pairIiiESt6vectorIS3_SaIS3_EEEEEbRKSt16reverse_iteratorIT_ESD_, .-_ZSteqIN9__gnu_cxx17__normal_iteratorIPSt4pairIiiESt6vectorIS3_SaIS3_EEEEEbRKSt16reverse_iteratorIT_ESD_
	.section	.text._ZStmiIN9__gnu_cxx17__normal_iteratorIPSt4pairIiiESt6vectorIS3_SaIS3_EEEES8_EDTmicldtfp0_4baseEcldtfp_4baseEERKSt16reverse_iteratorIT_ERKSA_IT0_E,"axG",@progbits,_ZStmiIN9__gnu_cxx17__normal_iteratorIPSt4pairIiiESt6vectorIS3_SaIS3_EEEES8_EDTmicldtfp0_4baseEcldtfp_4baseEERKSt16reverse_iteratorIT_ERKSA_IT0_E,comdat
	.weak	_ZStmiIN9__gnu_cxx17__normal_iteratorIPSt4pairIiiESt6vectorIS3_SaIS3_EEEES8_EDTmicldtfp0_4baseEcldtfp_4baseEERKSt16reverse_iteratorIT_ERKSA_IT0_E
	.type	_ZStmiIN9__gnu_cxx17__normal_iteratorIPSt4pairIiiESt6vectorIS3_SaIS3_EEEES8_EDTmicldtfp0_4baseEcldtfp_4baseEERKSt16reverse_iteratorIT_ERKSA_IT0_E, @function
_ZStmiIN9__gnu_cxx17__normal_iteratorIPSt4pairIiiESt6vectorIS3_SaIS3_EEEES8_EDTmicldtfp0_4baseEcldtfp_4baseEERKSt16reverse_iteratorIT_ERKSA_IT0_E:
.LFB10901:
	.cfi_startproc
	endbr64
	push	rbp
	.cfi_def_cfa_offset 16
	.cfi_offset 6, -16
	mov	rbp, rsp
	.cfi_def_cfa_register 6
	sub	rsp, 48
	mov	QWORD PTR -40[rbp], rdi
	mov	QWORD PTR -48[rbp], rsi
	mov	rax, QWORD PTR fs:40
	mov	QWORD PTR -8[rbp], rax
	xor	eax, eax
	mov	rax, QWORD PTR -40[rbp]
	mov	rdi, rax
	call	_ZNKSt16reverse_iteratorIN9__gnu_cxx17__normal_iteratorIPSt4pairIiiESt6vectorIS3_SaIS3_EEEEE4baseEv
	mov	QWORD PTR -16[rbp], rax
	mov	rax, QWORD PTR -48[rbp]
	mov	rdi, rax
	call	_ZNKSt16reverse_iteratorIN9__gnu_cxx17__normal_iteratorIPSt4pairIiiESt6vectorIS3_SaIS3_EEEEE4baseEv
	mov	QWORD PTR -24[rbp], rax
	lea	rdx, -16[rbp]
	lea	rax, -24[rbp]
	mov	rsi, rdx
	mov	rdi, rax
	call	_ZN9__gnu_cxxmiIPSt4pairIiiESt6vectorIS2_SaIS2_EEEENS_17__normal_iteratorIT_T0_E15difference_typeERKSA_SD_
	mov	rdx, QWORD PTR -8[rbp]
	sub	rdx, QWORD PTR fs:40
	je	.L225
	call	__stack_chk_fail@PLT
.L225:
	leave
	.cfi_def_cfa 7, 8
	ret
	.cfi_endproc
.LFE10901:
	.size	_ZStmiIN9__gnu_cxx17__normal_iteratorIPSt4pairIiiESt6vectorIS3_SaIS3_EEEES8_EDTmicldtfp0_4baseEcldtfp_4baseEERKSt16reverse_iteratorIT_ERKSA_IT0_E, .-_ZStmiIN9__gnu_cxx17__normal_iteratorIPSt4pairIiiESt6vectorIS3_SaIS3_EEEES8_EDTmicldtfp0_4baseEcldtfp_4baseEERKSt16reverse_iteratorIT_ERKSA_IT0_E
	.section	.text._ZSt6__sortISt16reverse_iteratorIN9__gnu_cxx17__normal_iteratorIPSt4pairIiiESt6vectorIS4_SaIS4_EEEEENS1_5__ops15_Iter_less_iterEEvT_SD_T0_,"axG",@progbits,_ZSt6__sortISt16reverse_iteratorIN9__gnu_cxx17__normal_iteratorIPSt4pairIiiESt6vectorIS4_SaIS4_EEEEENS1_5__ops15_Iter_less_iterEEvT_SD_T0_,comdat
	.weak	_ZSt6__sortISt16reverse_iteratorIN9__gnu_cxx17__normal_iteratorIPSt4pairIiiESt6vectorIS4_SaIS4_EEEEENS1_5__ops15_Iter_less_iterEEvT_SD_T0_
	.type	_ZSt6__sortISt16reverse_iteratorIN9__gnu_cxx17__normal_iteratorIPSt4pairIiiESt6vectorIS4_SaIS4_EEEEENS1_5__ops15_Iter_less_iterEEvT_SD_T0_, @function
_ZSt6__sortISt16reverse_iteratorIN9__gnu_cxx17__normal_iteratorIPSt4pairIiiESt6vectorIS4_SaIS4_EEEEENS1_5__ops15_Iter_less_iterEEvT_SD_T0_:
.LFB10898:
	.cfi_startproc
	endbr64
	push	rbp
	.cfi_def_cfa_offset 16
	.cfi_offset 6, -16
	mov	rbp, rsp
	.cfi_def_cfa_register 6
	push	rbx
	sub	rsp, 72
	.cfi_offset 3, -24
	mov	QWORD PTR -56[rbp], rdi
	mov	QWORD PTR -64[rbp], rsi
	mov	rax, QWORD PTR fs:40
	mov	QWORD PTR -24[rbp], rax
	xor	eax, eax
	mov	rdx, QWORD PTR -64[rbp]
	mov	rax, QWORD PTR -56[rbp]
	mov	rsi, rdx
	mov	rdi, rax
	call	_ZStneIN9__gnu_cxx17__normal_iteratorIPSt4pairIiiESt6vectorIS3_SaIS3_EEEEEbRKSt16reverse_iteratorIT_ESD_
	test	al, al
	je	.L229
	mov	rdx, QWORD PTR -56[rbp]
	mov	rax, QWORD PTR -64[rbp]
	mov	rsi, rdx
	mov	rdi, rax
	call	_ZStmiIN9__gnu_cxx17__normal_iteratorIPSt4pairIiiESt6vectorIS3_SaIS3_EEEES8_EDTmicldtfp0_4baseEcldtfp_4baseEERKSt16reverse_iteratorIT_ERKSA_IT0_E
	mov	rdi, rax
	call	_ZSt4__lgl
	lea	rbx, [rax+rax]
	mov	rdx, QWORD PTR -64[rbp]
	lea	rax, -32[rbp]
	mov	rsi, rdx
	mov	rdi, rax
	call	_ZNSt16reverse_iteratorIN9__gnu_cxx17__normal_iteratorIPSt4pairIiiESt6vectorIS3_SaIS3_EEEEEC1ERKS9_
	mov	rdx, QWORD PTR -56[rbp]
	lea	rax, -40[rbp]
	mov	rsi, rdx
	mov	rdi, rax
	call	_ZNSt16reverse_iteratorIN9__gnu_cxx17__normal_iteratorIPSt4pairIiiESt6vectorIS3_SaIS3_EEEEEC1ERKS9_
	lea	rcx, -32[rbp]
	lea	rax, -40[rbp]
	mov	rdx, rbx
	mov	rsi, rcx
	mov	rdi, rax
	call	_ZSt16__introsort_loopISt16reverse_iteratorIN9__gnu_cxx17__normal_iteratorIPSt4pairIiiESt6vectorIS4_SaIS4_EEEEElNS1_5__ops15_Iter_less_iterEEvT_SD_T0_T1_
	mov	rdx, QWORD PTR -64[rbp]
	lea	rax, -32[rbp]
	mov	rsi, rdx
	mov	rdi, rax
	call	_ZNSt16reverse_iteratorIN9__gnu_cxx17__normal_iteratorIPSt4pairIiiESt6vectorIS3_SaIS3_EEEEEC1ERKS9_
	mov	rdx, QWORD PTR -56[rbp]
	lea	rax, -40[rbp]
	mov	rsi, rdx
	mov	rdi, rax
	call	_ZNSt16reverse_iteratorIN9__gnu_cxx17__normal_iteratorIPSt4pairIiiESt6vectorIS3_SaIS3_EEEEEC1ERKS9_
	lea	rdx, -32[rbp]
	lea	rax, -40[rbp]
	mov	rsi, rdx
	mov	rdi, rax
	call	_ZSt22__final_insertion_sortISt16reverse_iteratorIN9__gnu_cxx17__normal_iteratorIPSt4pairIiiESt6vectorIS4_SaIS4_EEEEENS1_5__ops15_Iter_less_iterEEvT_SD_T0_
.L229:
	nop
	mov	rax, QWORD PTR -24[rbp]
	sub	rax, QWORD PTR fs:40
	je	.L228
	call	__stack_chk_fail@PLT
.L228:
	mov	rbx, QWORD PTR -8[rbp]
	leave
	.cfi_def_cfa 7, 8
	ret
	.cfi_endproc
.LFE10898:
	.size	_ZSt6__sortISt16reverse_iteratorIN9__gnu_cxx17__normal_iteratorIPSt4pairIiiESt6vectorIS4_SaIS4_EEEEENS1_5__ops15_Iter_less_iterEEvT_SD_T0_, .-_ZSt6__sortISt16reverse_iteratorIN9__gnu_cxx17__normal_iteratorIPSt4pairIiiESt6vectorIS4_SaIS4_EEEEENS1_5__ops15_Iter_less_iterEEvT_SD_T0_
	.section	.text._ZN9__gnu_cxx13new_allocatorIxEC2Ev,"axG",@progbits,_ZN9__gnu_cxx13new_allocatorIxEC5Ev,comdat
	.align 2
	.weak	_ZN9__gnu_cxx13new_allocatorIxEC2Ev
	.type	_ZN9__gnu_cxx13new_allocatorIxEC2Ev, @function
_ZN9__gnu_cxx13new_allocatorIxEC2Ev:
.LFB11098:
	.cfi_startproc
	endbr64
	push	rbp
	.cfi_def_cfa_offset 16
	.cfi_offset 6, -16
	mov	rbp, rsp
	.cfi_def_cfa_register 6
	mov	QWORD PTR -8[rbp], rdi
	nop
	pop	rbp
	.cfi_def_cfa 7, 8
	ret
	.cfi_endproc
.LFE11098:
	.size	_ZN9__gnu_cxx13new_allocatorIxEC2Ev, .-_ZN9__gnu_cxx13new_allocatorIxEC2Ev
	.weak	_ZN9__gnu_cxx13new_allocatorIxEC1Ev
	.set	_ZN9__gnu_cxx13new_allocatorIxEC1Ev,_ZN9__gnu_cxx13new_allocatorIxEC2Ev
	.section	.text._ZNSt16allocator_traitsISaIxEE10deallocateERS0_Pxm,"axG",@progbits,_ZNSt16allocator_traitsISaIxEE10deallocateERS0_Pxm,comdat
	.weak	_ZNSt16allocator_traitsISaIxEE10deallocateERS0_Pxm
	.type	_ZNSt16allocator_traitsISaIxEE10deallocateERS0_Pxm, @function
_ZNSt16allocator_traitsISaIxEE10deallocateERS0_Pxm:
.LFB11100:
	.cfi_startproc
	endbr64
	push	rbp
	.cfi_def_cfa_offset 16
	.cfi_offset 6, -16
	mov	rbp, rsp
	.cfi_def_cfa_register 6
	sub	rsp, 32
	mov	QWORD PTR -8[rbp], rdi
	mov	QWORD PTR -16[rbp], rsi
	mov	QWORD PTR -24[rbp], rdx
	mov	rdx, QWORD PTR -24[rbp]
	mov	rcx, QWORD PTR -16[rbp]
	mov	rax, QWORD PTR -8[rbp]
	mov	rsi, rcx
	mov	rdi, rax
	call	_ZN9__gnu_cxx13new_allocatorIxE10deallocateEPxm
	nop
	leave
	.cfi_def_cfa 7, 8
	ret
	.cfi_endproc
.LFE11100:
	.size	_ZNSt16allocator_traitsISaIxEE10deallocateERS0_Pxm, .-_ZNSt16allocator_traitsISaIxEE10deallocateERS0_Pxm
	.section	.text._ZSt7forwardIxEOT_RNSt16remove_referenceIS0_E4typeE,"axG",@progbits,_ZSt7forwardIxEOT_RNSt16remove_referenceIS0_E4typeE,comdat
	.weak	_ZSt7forwardIxEOT_RNSt16remove_referenceIS0_E4typeE
	.type	_ZSt7forwardIxEOT_RNSt16remove_referenceIS0_E4typeE, @function
_ZSt7forwardIxEOT_RNSt16remove_referenceIS0_E4typeE:
.LFB11101:
	.cfi_startproc
	endbr64
	push	rbp
	.cfi_def_cfa_offset 16
	.cfi_offset 6, -16
	mov	rbp, rsp
	.cfi_def_cfa_register 6
	mov	QWORD PTR -8[rbp], rdi
	mov	rax, QWORD PTR -8[rbp]
	pop	rbp
	.cfi_def_cfa 7, 8
	ret
	.cfi_endproc
.LFE11101:
	.size	_ZSt7forwardIxEOT_RNSt16remove_referenceIS0_E4typeE, .-_ZSt7forwardIxEOT_RNSt16remove_referenceIS0_E4typeE
	.section	.text._ZNSt16allocator_traitsISaIxEE9constructIxJxEEEvRS0_PT_DpOT0_,"axG",@progbits,_ZNSt16allocator_traitsISaIxEE9constructIxJxEEEvRS0_PT_DpOT0_,comdat
	.weak	_ZNSt16allocator_traitsISaIxEE9constructIxJxEEEvRS0_PT_DpOT0_
	.type	_ZNSt16allocator_traitsISaIxEE9constructIxJxEEEvRS0_PT_DpOT0_, @function
_ZNSt16allocator_traitsISaIxEE9constructIxJxEEEvRS0_PT_DpOT0_:
.LFB11102:
	.cfi_startproc
	endbr64
	push	rbp
	.cfi_def_cfa_offset 16
	.cfi_offset 6, -16
	mov	rbp, rsp
	.cfi_def_cfa_register 6
	sub	rsp, 32
	mov	QWORD PTR -8[rbp], rdi
	mov	QWORD PTR -16[rbp], rsi
	mov	QWORD PTR -24[rbp], rdx
	mov	rax, QWORD PTR -24[rbp]
	mov	rdi, rax
	call	_ZSt7forwardIxEOT_RNSt16remove_referenceIS0_E4typeE
	mov	rdx, rax
	mov	rcx, QWORD PTR -16[rbp]
	mov	rax, QWORD PTR -8[rbp]
	mov	rsi, rcx
	mov	rdi, rax
	call	_ZN9__gnu_cxx13new_allocatorIxE9constructIxJxEEEvPT_DpOT0_
	nop
	leave
	.cfi_def_cfa 7, 8
	ret
	.cfi_endproc
.LFE11102:
	.size	_ZNSt16allocator_traitsISaIxEE9constructIxJxEEEvRS0_PT_DpOT0_, .-_ZNSt16allocator_traitsISaIxEE9constructIxJxEEEvRS0_PT_DpOT0_
	.section	.text._ZNSt6vectorIxSaIxEE3endEv,"axG",@progbits,_ZNSt6vectorIxSaIxEE3endEv,comdat
	.align 2
	.weak	_ZNSt6vectorIxSaIxEE3endEv
	.type	_ZNSt6vectorIxSaIxEE3endEv, @function
_ZNSt6vectorIxSaIxEE3endEv:
.LFB11103:
	.cfi_startproc
	endbr64
	push	rbp
	.cfi_def_cfa_offset 16
	.cfi_offset 6, -16
	mov	rbp, rsp
	.cfi_def_cfa_register 6
	sub	rsp, 32
	mov	QWORD PTR -24[rbp], rdi
	mov	rax, QWORD PTR fs:40
	mov	QWORD PTR -8[rbp], rax
	xor	eax, eax
	mov	rax, QWORD PTR -24[rbp]
	lea	rdx, 8[rax]
	lea	rax, -16[rbp]
	mov	rsi, rdx
	mov	rdi, rax
	call	_ZN9__gnu_cxx17__normal_iteratorIPxSt6vectorIxSaIxEEEC1ERKS1_
	mov	rax, QWORD PTR -16[rbp]
	mov	rdx, QWORD PTR -8[rbp]
	sub	rdx, QWORD PTR fs:40
	je	.L237
	call	__stack_chk_fail@PLT
.L237:
	leave
	.cfi_def_cfa 7, 8
	ret
	.cfi_endproc
.LFE11103:
	.size	_ZNSt6vectorIxSaIxEE3endEv, .-_ZNSt6vectorIxSaIxEE3endEv
	.section	.rodata
.LC1:
	.string	"vector::_M_realloc_insert"
	.section	.text._ZNSt6vectorIxSaIxEE17_M_realloc_insertIJxEEEvN9__gnu_cxx17__normal_iteratorIPxS1_EEDpOT_,"axG",@progbits,_ZNSt6vectorIxSaIxEE17_M_realloc_insertIJxEEEvN9__gnu_cxx17__normal_iteratorIPxS1_EEDpOT_,comdat
	.align 2
	.weak	_ZNSt6vectorIxSaIxEE17_M_realloc_insertIJxEEEvN9__gnu_cxx17__normal_iteratorIPxS1_EEDpOT_
	.type	_ZNSt6vectorIxSaIxEE17_M_realloc_insertIJxEEEvN9__gnu_cxx17__normal_iteratorIPxS1_EEDpOT_, @function
_ZNSt6vectorIxSaIxEE17_M_realloc_insertIJxEEEvN9__gnu_cxx17__normal_iteratorIPxS1_EEDpOT_:
.LFB11104:
	.cfi_startproc
	endbr64
	push	rbp
	.cfi_def_cfa_offset 16
	.cfi_offset 6, -16
	mov	rbp, rsp
	.cfi_def_cfa_register 6
	push	rbx
	sub	rsp, 104
	.cfi_offset 3, -24
	mov	QWORD PTR -88[rbp], rdi
	mov	QWORD PTR -96[rbp], rsi
	mov	QWORD PTR -104[rbp], rdx
	mov	rax, QWORD PTR fs:40
	mov	QWORD PTR -24[rbp], rax
	xor	eax, eax
	mov	rax, QWORD PTR -88[rbp]
	lea	rdx, .LC1[rip]
	mov	esi, 1
	mov	rdi, rax
	call	_ZNKSt6vectorIxSaIxEE12_M_check_lenEmPKc
	mov	QWORD PTR -72[rbp], rax
	mov	rax, QWORD PTR -88[rbp]
	mov	rax, QWORD PTR [rax]
	mov	QWORD PTR -64[rbp], rax
	mov	rax, QWORD PTR -88[rbp]
	mov	rax, QWORD PTR 8[rax]
	mov	QWORD PTR -56[rbp], rax
	mov	rax, QWORD PTR -88[rbp]
	mov	rdi, rax
	call	_ZNSt6vectorIxSaIxEE5beginEv
	mov	QWORD PTR -80[rbp], rax
	lea	rdx, -80[rbp]
	lea	rax, -96[rbp]
	mov	rsi, rdx
	mov	rdi, rax
	call	_ZN9__gnu_cxxmiIPxSt6vectorIxSaIxEEEENS_17__normal_iteratorIT_T0_E15difference_typeERKS8_SB_
	mov	QWORD PTR -48[rbp], rax
	mov	rax, QWORD PTR -88[rbp]
	mov	rdx, QWORD PTR -72[rbp]
	mov	rsi, rdx
	mov	rdi, rax
	call	_ZNSt12_Vector_baseIxSaIxEE11_M_allocateEm
	mov	QWORD PTR -40[rbp], rax
	mov	rax, QWORD PTR -40[rbp]
	mov	QWORD PTR -32[rbp], rax
	mov	rax, QWORD PTR -104[rbp]
	mov	rdi, rax
	call	_ZSt7forwardIxEOT_RNSt16remove_referenceIS0_E4typeE
	mov	rdx, rax
	mov	rax, QWORD PTR -48[rbp]
	lea	rcx, 0[0+rax*8]
	mov	rax, QWORD PTR -40[rbp]
	add	rcx, rax
	mov	rax, QWORD PTR -88[rbp]
	mov	rsi, rcx
	mov	rdi, rax
	call	_ZNSt16allocator_traitsISaIxEE9constructIxJxEEEvRS0_PT_DpOT0_
	mov	QWORD PTR -32[rbp], 0
	mov	rax, QWORD PTR -88[rbp]
	mov	rdi, rax
	call	_ZNSt12_Vector_baseIxSaIxEE19_M_get_Tp_allocatorEv
	mov	rbx, rax
	lea	rax, -96[rbp]
	mov	rdi, rax
	call	_ZNK9__gnu_cxx17__normal_iteratorIPxSt6vectorIxSaIxEEE4baseEv
	mov	rsi, QWORD PTR [rax]
	mov	rdx, QWORD PTR -40[rbp]
	mov	rax, QWORD PTR -64[rbp]
	mov	rcx, rbx
	mov	rdi, rax
	call	_ZNSt6vectorIxSaIxEE11_S_relocateEPxS2_S2_RS0_
	mov	QWORD PTR -32[rbp], rax
	add	QWORD PTR -32[rbp], 8
	mov	rax, QWORD PTR -88[rbp]
	mov	rdi, rax
	call	_ZNSt12_Vector_baseIxSaIxEE19_M_get_Tp_allocatorEv
	mov	rbx, rax
	lea	rax, -96[rbp]
	mov	rdi, rax
	call	_ZNK9__gnu_cxx17__normal_iteratorIPxSt6vectorIxSaIxEEE4baseEv
	mov	rax, QWORD PTR [rax]
	mov	rdx, QWORD PTR -32[rbp]
	mov	rsi, QWORD PTR -56[rbp]
	mov	rcx, rbx
	mov	rdi, rax
	call	_ZNSt6vectorIxSaIxEE11_S_relocateEPxS2_S2_RS0_
	mov	QWORD PTR -32[rbp], rax
	mov	rax, QWORD PTR -88[rbp]
	mov	rdx, QWORD PTR -88[rbp]
	mov	rdx, QWORD PTR 16[rdx]
	sub	rdx, QWORD PTR -64[rbp]
	sar	rdx, 3
	mov	rcx, QWORD PTR -64[rbp]
	mov	rsi, rcx
	mov	rdi, rax
	call	_ZNSt12_Vector_baseIxSaIxEE13_M_deallocateEPxm
	mov	rax, QWORD PTR -88[rbp]
	mov	rdx, QWORD PTR -40[rbp]
	mov	QWORD PTR [rax], rdx
	mov	rax, QWORD PTR -88[rbp]
	mov	rdx, QWORD PTR -32[rbp]
	mov	QWORD PTR 8[rax], rdx
	mov	rax, QWORD PTR -72[rbp]
	lea	rdx, 0[0+rax*8]
	mov	rax, QWORD PTR -40[rbp]
	add	rdx, rax
	mov	rax, QWORD PTR -88[rbp]
	mov	QWORD PTR 16[rax], rdx
	nop
	mov	rax, QWORD PTR -24[rbp]
	sub	rax, QWORD PTR fs:40
	je	.L239
	call	__stack_chk_fail@PLT
.L239:
	mov	rbx, QWORD PTR -8[rbp]
	leave
	.cfi_def_cfa 7, 8
	ret
	.cfi_endproc
.LFE11104:
	.size	_ZNSt6vectorIxSaIxEE17_M_realloc_insertIJxEEEvN9__gnu_cxx17__normal_iteratorIPxS1_EEDpOT_, .-_ZNSt6vectorIxSaIxEE17_M_realloc_insertIJxEEEvN9__gnu_cxx17__normal_iteratorIPxS1_EEDpOT_
	.section	.text._ZNSt6vectorIxSaIxEE4backEv,"axG",@progbits,_ZNSt6vectorIxSaIxEE4backEv,comdat
	.align 2
	.weak	_ZNSt6vectorIxSaIxEE4backEv
	.type	_ZNSt6vectorIxSaIxEE4backEv, @function
_ZNSt6vectorIxSaIxEE4backEv:
.LFB11108:
	.cfi_startproc
	endbr64
	push	rbp
	.cfi_def_cfa_offset 16
	.cfi_offset 6, -16
	mov	rbp, rsp
	.cfi_def_cfa_register 6
	sub	rsp, 48
	mov	QWORD PTR -40[rbp], rdi
	mov	rax, QWORD PTR fs:40
	mov	QWORD PTR -8[rbp], rax
	xor	eax, eax
	mov	rax, QWORD PTR -40[rbp]
	mov	rdi, rax
	call	_ZNSt6vectorIxSaIxEE3endEv
	mov	QWORD PTR -24[rbp], rax
	lea	rax, -24[rbp]
	mov	esi, 1
	mov	rdi, rax
	call	_ZNK9__gnu_cxx17__normal_iteratorIPxSt6vectorIxSaIxEEEmiEl
	mov	QWORD PTR -16[rbp], rax
	lea	rax, -16[rbp]
	mov	rdi, rax
	call	_ZNK9__gnu_cxx17__normal_iteratorIPxSt6vectorIxSaIxEEEdeEv
	mov	rdx, QWORD PTR -8[rbp]
	sub	rdx, QWORD PTR fs:40
	je	.L242
	call	__stack_chk_fail@PLT
.L242:
	leave
	.cfi_def_cfa 7, 8
	ret
	.cfi_endproc
.LFE11108:
	.size	_ZNSt6vectorIxSaIxEE4backEv, .-_ZNSt6vectorIxSaIxEE4backEv
	.section	.text._ZN9__gnu_cxxeqIPcNSt7__cxx1112basic_stringIcSt11char_traitsIcESaIcEEEEEbRKNS_17__normal_iteratorIT_T0_EESD_,"axG",@progbits,_ZN9__gnu_cxxeqIPcNSt7__cxx1112basic_stringIcSt11char_traitsIcESaIcEEEEEbRKNS_17__normal_iteratorIT_T0_EESD_,comdat
	.weak	_ZN9__gnu_cxxeqIPcNSt7__cxx1112basic_stringIcSt11char_traitsIcESaIcEEEEEbRKNS_17__normal_iteratorIT_T0_EESD_
	.type	_ZN9__gnu_cxxeqIPcNSt7__cxx1112basic_stringIcSt11char_traitsIcESaIcEEEEEbRKNS_17__normal_iteratorIT_T0_EESD_, @function
_ZN9__gnu_cxxeqIPcNSt7__cxx1112basic_stringIcSt11char_traitsIcESaIcEEEEEbRKNS_17__normal_iteratorIT_T0_EESD_:
.LFB11109:
	.cfi_startproc
	endbr64
	push	rbp
	.cfi_def_cfa_offset 16
	.cfi_offset 6, -16
	mov	rbp, rsp
	.cfi_def_cfa_register 6
	push	rbx
	sub	rsp, 24
	.cfi_offset 3, -24
	mov	QWORD PTR -24[rbp], rdi
	mov	QWORD PTR -32[rbp], rsi
	mov	rax, QWORD PTR -24[rbp]
	mov	rdi, rax
	call	_ZNK9__gnu_cxx17__normal_iteratorIPcNSt7__cxx1112basic_stringIcSt11char_traitsIcESaIcEEEE4baseEv
	mov	rbx, QWORD PTR [rax]
	mov	rax, QWORD PTR -32[rbp]
	mov	rdi, rax
	call	_ZNK9__gnu_cxx17__normal_iteratorIPcNSt7__cxx1112basic_stringIcSt11char_traitsIcESaIcEEEE4baseEv
	mov	rax, QWORD PTR [rax]
	cmp	rbx, rax
	sete	al
	mov	rbx, QWORD PTR -8[rbp]
	leave
	.cfi_def_cfa 7, 8
	ret
	.cfi_endproc
.LFE11109:
	.size	_ZN9__gnu_cxxeqIPcNSt7__cxx1112basic_stringIcSt11char_traitsIcESaIcEEEEEbRKNS_17__normal_iteratorIT_T0_EESD_, .-_ZN9__gnu_cxxeqIPcNSt7__cxx1112basic_stringIcSt11char_traitsIcESaIcEEEEEbRKNS_17__normal_iteratorIT_T0_EESD_
	.section	.text._ZN9__gnu_cxx17__normal_iteratorIPcNSt7__cxx1112basic_stringIcSt11char_traitsIcESaIcEEEEmmEv,"axG",@progbits,_ZN9__gnu_cxx17__normal_iteratorIPcNSt7__cxx1112basic_stringIcSt11char_traitsIcESaIcEEEEmmEv,comdat
	.align 2
	.weak	_ZN9__gnu_cxx17__normal_iteratorIPcNSt7__cxx1112basic_stringIcSt11char_traitsIcESaIcEEEEmmEv
	.type	_ZN9__gnu_cxx17__normal_iteratorIPcNSt7__cxx1112basic_stringIcSt11char_traitsIcESaIcEEEEmmEv, @function
_ZN9__gnu_cxx17__normal_iteratorIPcNSt7__cxx1112basic_stringIcSt11char_traitsIcESaIcEEEEmmEv:
.LFB11110:
	.cfi_startproc
	endbr64
	push	rbp
	.cfi_def_cfa_offset 16
	.cfi_offset 6, -16
	mov	rbp, rsp
	.cfi_def_cfa_register 6
	mov	QWORD PTR -8[rbp], rdi
	mov	rax, QWORD PTR -8[rbp]
	mov	rax, QWORD PTR [rax]
	lea	rdx, -1[rax]
	mov	rax, QWORD PTR -8[rbp]
	mov	QWORD PTR [rax], rdx
	mov	rax, QWORD PTR -8[rbp]
	pop	rbp
	.cfi_def_cfa 7, 8
	ret
	.cfi_endproc
.LFE11110:
	.size	_ZN9__gnu_cxx17__normal_iteratorIPcNSt7__cxx1112basic_stringIcSt11char_traitsIcESaIcEEEEmmEv, .-_ZN9__gnu_cxx17__normal_iteratorIPcNSt7__cxx1112basic_stringIcSt11char_traitsIcESaIcEEEEmmEv
	.section	.text._ZN9__gnu_cxxltIPcNSt7__cxx1112basic_stringIcSt11char_traitsIcESaIcEEEEEbRKNS_17__normal_iteratorIT_T0_EESD_,"axG",@progbits,_ZN9__gnu_cxxltIPcNSt7__cxx1112basic_stringIcSt11char_traitsIcESaIcEEEEEbRKNS_17__normal_iteratorIT_T0_EESD_,comdat
	.weak	_ZN9__gnu_cxxltIPcNSt7__cxx1112basic_stringIcSt11char_traitsIcESaIcEEEEEbRKNS_17__normal_iteratorIT_T0_EESD_
	.type	_ZN9__gnu_cxxltIPcNSt7__cxx1112basic_stringIcSt11char_traitsIcESaIcEEEEEbRKNS_17__normal_iteratorIT_T0_EESD_, @function
_ZN9__gnu_cxxltIPcNSt7__cxx1112basic_stringIcSt11char_traitsIcESaIcEEEEEbRKNS_17__normal_iteratorIT_T0_EESD_:
.LFB11111:
	.cfi_startproc
	endbr64
	push	rbp
	.cfi_def_cfa_offset 16
	.cfi_offset 6, -16
	mov	rbp, rsp
	.cfi_def_cfa_register 6
	push	rbx
	sub	rsp, 24
	.cfi_offset 3, -24
	mov	QWORD PTR -24[rbp], rdi
	mov	QWORD PTR -32[rbp], rsi
	mov	rax, QWORD PTR -24[rbp]
	mov	rdi, rax
	call	_ZNK9__gnu_cxx17__normal_iteratorIPcNSt7__cxx1112basic_stringIcSt11char_traitsIcESaIcEEEE4baseEv
	mov	rbx, QWORD PTR [rax]
	mov	rax, QWORD PTR -32[rbp]
	mov	rdi, rax
	call	_ZNK9__gnu_cxx17__normal_iteratorIPcNSt7__cxx1112basic_stringIcSt11char_traitsIcESaIcEEEE4baseEv
	mov	rax, QWORD PTR [rax]
	cmp	rbx, rax
	setb	al
	mov	rbx, QWORD PTR -8[rbp]
	leave
	.cfi_def_cfa 7, 8
	ret
	.cfi_endproc
.LFE11111:
	.size	_ZN9__gnu_cxxltIPcNSt7__cxx1112basic_stringIcSt11char_traitsIcESaIcEEEEEbRKNS_17__normal_iteratorIT_T0_EESD_, .-_ZN9__gnu_cxxltIPcNSt7__cxx1112basic_stringIcSt11char_traitsIcESaIcEEEEEbRKNS_17__normal_iteratorIT_T0_EESD_
	.section	.text._ZSt9iter_swapIN9__gnu_cxx17__normal_iteratorIPcNSt7__cxx1112basic_stringIcSt11char_traitsIcESaIcEEEEES9_EvT_T0_,"axG",@progbits,_ZSt9iter_swapIN9__gnu_cxx17__normal_iteratorIPcNSt7__cxx1112basic_stringIcSt11char_traitsIcESaIcEEEEES9_EvT_T0_,comdat
	.weak	_ZSt9iter_swapIN9__gnu_cxx17__normal_iteratorIPcNSt7__cxx1112basic_stringIcSt11char_traitsIcESaIcEEEEES9_EvT_T0_
	.type	_ZSt9iter_swapIN9__gnu_cxx17__normal_iteratorIPcNSt7__cxx1112basic_stringIcSt11char_traitsIcESaIcEEEEES9_EvT_T0_, @function
_ZSt9iter_swapIN9__gnu_cxx17__normal_iteratorIPcNSt7__cxx1112basic_stringIcSt11char_traitsIcESaIcEEEEES9_EvT_T0_:
.LFB11112:
	.cfi_startproc
	endbr64
	push	rbp
	.cfi_def_cfa_offset 16
	.cfi_offset 6, -16
	mov	rbp, rsp
	.cfi_def_cfa_register 6
	push	rbx
	sub	rsp, 24
	.cfi_offset 3, -24
	mov	QWORD PTR -24[rbp], rdi
	mov	QWORD PTR -32[rbp], rsi
	lea	rax, -32[rbp]
	mov	rdi, rax
	call	_ZNK9__gnu_cxx17__normal_iteratorIPcNSt7__cxx1112basic_stringIcSt11char_traitsIcESaIcEEEEdeEv
	mov	rbx, rax
	lea	rax, -24[rbp]
	mov	rdi, rax
	call	_ZNK9__gnu_cxx17__normal_iteratorIPcNSt7__cxx1112basic_stringIcSt11char_traitsIcESaIcEEEEdeEv
	mov	rsi, rbx
	mov	rdi, rax
	call	_ZSt4swapIcENSt9enable_ifIXsrSt6__and_IJSt6__not_ISt15__is_tuple_likeIT_EESt21is_move_constructibleIS4_ESt18is_move_assignableIS4_EEE5valueEvE4typeERS4_SE_
	nop
	mov	rbx, QWORD PTR -8[rbp]
	leave
	.cfi_def_cfa 7, 8
	ret
	.cfi_endproc
.LFE11112:
	.size	_ZSt9iter_swapIN9__gnu_cxx17__normal_iteratorIPcNSt7__cxx1112basic_stringIcSt11char_traitsIcESaIcEEEEES9_EvT_T0_, .-_ZSt9iter_swapIN9__gnu_cxx17__normal_iteratorIPcNSt7__cxx1112basic_stringIcSt11char_traitsIcESaIcEEEEES9_EvT_T0_
	.section	.text._ZN9__gnu_cxx17__normal_iteratorIPcNSt7__cxx1112basic_stringIcSt11char_traitsIcESaIcEEEEppEv,"axG",@progbits,_ZN9__gnu_cxx17__normal_iteratorIPcNSt7__cxx1112basic_stringIcSt11char_traitsIcESaIcEEEEppEv,comdat
	.align 2
	.weak	_ZN9__gnu_cxx17__normal_iteratorIPcNSt7__cxx1112basic_stringIcSt11char_traitsIcESaIcEEEEppEv
	.type	_ZN9__gnu_cxx17__normal_iteratorIPcNSt7__cxx1112basic_stringIcSt11char_traitsIcESaIcEEEEppEv, @function
_ZN9__gnu_cxx17__normal_iteratorIPcNSt7__cxx1112basic_stringIcSt11char_traitsIcESaIcEEEEppEv:
.LFB11113:
	.cfi_startproc
	endbr64
	push	rbp
	.cfi_def_cfa_offset 16
	.cfi_offset 6, -16
	mov	rbp, rsp
	.cfi_def_cfa_register 6
	mov	QWORD PTR -8[rbp], rdi
	mov	rax, QWORD PTR -8[rbp]
	mov	rax, QWORD PTR [rax]
	lea	rdx, 1[rax]
	mov	rax, QWORD PTR -8[rbp]
	mov	QWORD PTR [rax], rdx
	mov	rax, QWORD PTR -8[rbp]
	pop	rbp
	.cfi_def_cfa 7, 8
	ret
	.cfi_endproc
.LFE11113:
	.size	_ZN9__gnu_cxx17__normal_iteratorIPcNSt7__cxx1112basic_stringIcSt11char_traitsIcESaIcEEEEppEv, .-_ZN9__gnu_cxx17__normal_iteratorIPcNSt7__cxx1112basic_stringIcSt11char_traitsIcESaIcEEEEppEv
	.section	.text._ZNSt6vectorISt4pairIiiESaIS1_EE11_S_max_sizeERKS2_,"axG",@progbits,_ZNSt6vectorISt4pairIiiESaIS1_EE11_S_max_sizeERKS2_,comdat
	.weak	_ZNSt6vectorISt4pairIiiESaIS1_EE11_S_max_sizeERKS2_
	.type	_ZNSt6vectorISt4pairIiiESaIS1_EE11_S_max_sizeERKS2_, @function
_ZNSt6vectorISt4pairIiiESaIS1_EE11_S_max_sizeERKS2_:
.LFB11114:
	.cfi_startproc
	endbr64
	push	rbp
	.cfi_def_cfa_offset 16
	.cfi_offset 6, -16
	mov	rbp, rsp
	.cfi_def_cfa_register 6
	sub	rsp, 48
	mov	QWORD PTR -40[rbp], rdi
	mov	rax, QWORD PTR fs:40
	mov	QWORD PTR -8[rbp], rax
	xor	eax, eax
	movabs	rax, 1152921504606846975
	mov	QWORD PTR -24[rbp], rax
	mov	rax, QWORD PTR -40[rbp]
	mov	rdi, rax
	call	_ZNSt16allocator_traitsISaISt4pairIiiEEE8max_sizeERKS2_
	mov	QWORD PTR -16[rbp], rax
	lea	rdx, -16[rbp]
	lea	rax, -24[rbp]
	mov	rsi, rdx
	mov	rdi, rax
	call	_ZSt3minImERKT_S2_S2_
	mov	rax, QWORD PTR [rax]
	mov	rdx, QWORD PTR -8[rbp]
	sub	rdx, QWORD PTR fs:40
	je	.L254
	call	__stack_chk_fail@PLT
.L254:
	leave
	.cfi_def_cfa 7, 8
	ret
	.cfi_endproc
.LFE11114:
	.size	_ZNSt6vectorISt4pairIiiESaIS1_EE11_S_max_sizeERKS2_, .-_ZNSt6vectorISt4pairIiiESaIS1_EE11_S_max_sizeERKS2_
	.section	.text._ZNSaISt4pairIiiEEC2ERKS1_,"axG",@progbits,_ZNSaISt4pairIiiEEC5ERKS1_,comdat
	.align 2
	.weak	_ZNSaISt4pairIiiEEC2ERKS1_
	.type	_ZNSaISt4pairIiiEEC2ERKS1_, @function
_ZNSaISt4pairIiiEEC2ERKS1_:
.LFB11116:
	.cfi_startproc
	endbr64
	push	rbp
	.cfi_def_cfa_offset 16
	.cfi_offset 6, -16
	mov	rbp, rsp
	.cfi_def_cfa_register 6
	sub	rsp, 16
	mov	QWORD PTR -8[rbp], rdi
	mov	QWORD PTR -16[rbp], rsi
	mov	rdx, QWORD PTR -16[rbp]
	mov	rax, QWORD PTR -8[rbp]
	mov	rsi, rdx
	mov	rdi, rax
	call	_ZN9__gnu_cxx13new_allocatorISt4pairIiiEEC2ERKS3_
	nop
	leave
	.cfi_def_cfa 7, 8
	ret
	.cfi_endproc
.LFE11116:
	.size	_ZNSaISt4pairIiiEEC2ERKS1_, .-_ZNSaISt4pairIiiEEC2ERKS1_
	.weak	_ZNSaISt4pairIiiEEC1ERKS1_
	.set	_ZNSaISt4pairIiiEEC1ERKS1_,_ZNSaISt4pairIiiEEC2ERKS1_
	.section	.text._ZNSt12_Vector_baseISt4pairIiiESaIS1_EE12_Vector_implC2ERKS2_,"axG",@progbits,_ZNSt12_Vector_baseISt4pairIiiESaIS1_EE12_Vector_implC5ERKS2_,comdat
	.align 2
	.weak	_ZNSt12_Vector_baseISt4pairIiiESaIS1_EE12_Vector_implC2ERKS2_
	.type	_ZNSt12_Vector_baseISt4pairIiiESaIS1_EE12_Vector_implC2ERKS2_, @function
_ZNSt12_Vector_baseISt4pairIiiESaIS1_EE12_Vector_implC2ERKS2_:
.LFB11119:
	.cfi_startproc
	endbr64
	push	rbp
	.cfi_def_cfa_offset 16
	.cfi_offset 6, -16
	mov	rbp, rsp
	.cfi_def_cfa_register 6
	sub	rsp, 16
	mov	QWORD PTR -8[rbp], rdi
	mov	QWORD PTR -16[rbp], rsi
	mov	rdx, QWORD PTR -16[rbp]
	mov	rax, QWORD PTR -8[rbp]
	mov	rsi, rdx
	mov	rdi, rax
	call	_ZNSaISt4pairIiiEEC2ERKS1_
	mov	rax, QWORD PTR -8[rbp]
	mov	rdi, rax
	call	_ZNSt12_Vector_baseISt4pairIiiESaIS1_EE17_Vector_impl_dataC2Ev
	nop
	leave
	.cfi_def_cfa 7, 8
	ret
	.cfi_endproc
.LFE11119:
	.size	_ZNSt12_Vector_baseISt4pairIiiESaIS1_EE12_Vector_implC2ERKS2_, .-_ZNSt12_Vector_baseISt4pairIiiESaIS1_EE12_Vector_implC2ERKS2_
	.weak	_ZNSt12_Vector_baseISt4pairIiiESaIS1_EE12_Vector_implC1ERKS2_
	.set	_ZNSt12_Vector_baseISt4pairIiiESaIS1_EE12_Vector_implC1ERKS2_,_ZNSt12_Vector_baseISt4pairIiiESaIS1_EE12_Vector_implC2ERKS2_
	.section	.text._ZNSt12_Vector_baseISt4pairIiiESaIS1_EE17_M_create_storageEm,"axG",@progbits,_ZNSt12_Vector_baseISt4pairIiiESaIS1_EE17_M_create_storageEm,comdat
	.align 2
	.weak	_ZNSt12_Vector_baseISt4pairIiiESaIS1_EE17_M_create_storageEm
	.type	_ZNSt12_Vector_baseISt4pairIiiESaIS1_EE17_M_create_storageEm, @function
_ZNSt12_Vector_baseISt4pairIiiESaIS1_EE17_M_create_storageEm:
.LFB11121:
	.cfi_startproc
	endbr64
	push	rbp
	.cfi_def_cfa_offset 16
	.cfi_offset 6, -16
	mov	rbp, rsp
	.cfi_def_cfa_register 6
	sub	rsp, 16
	mov	QWORD PTR -8[rbp], rdi
	mov	QWORD PTR -16[rbp], rsi
	mov	rdx, QWORD PTR -16[rbp]
	mov	rax, QWORD PTR -8[rbp]
	mov	rsi, rdx
	mov	rdi, rax
	call	_ZNSt12_Vector_baseISt4pairIiiESaIS1_EE11_M_allocateEm
	mov	rdx, QWORD PTR -8[rbp]
	mov	QWORD PTR [rdx], rax
	mov	rax, QWORD PTR -8[rbp]
	mov	rdx, QWORD PTR [rax]
	mov	rax, QWORD PTR -8[rbp]
	mov	QWORD PTR 8[rax], rdx
	mov	rax, QWORD PTR -8[rbp]
	mov	rdx, QWORD PTR [rax]
	mov	rax, QWORD PTR -16[rbp]
	sal	rax, 3
	add	rdx, rax
	mov	rax, QWORD PTR -8[rbp]
	mov	QWORD PTR 16[rax], rdx
	nop
	leave
	.cfi_def_cfa 7, 8
	ret
	.cfi_endproc
.LFE11121:
	.size	_ZNSt12_Vector_baseISt4pairIiiESaIS1_EE17_M_create_storageEm, .-_ZNSt12_Vector_baseISt4pairIiiESaIS1_EE17_M_create_storageEm
	.section	.text._ZNSt12_Vector_baseISt4pairIiiESaIS1_EE13_M_deallocateEPS1_m,"axG",@progbits,_ZNSt12_Vector_baseISt4pairIiiESaIS1_EE13_M_deallocateEPS1_m,comdat
	.align 2
	.weak	_ZNSt12_Vector_baseISt4pairIiiESaIS1_EE13_M_deallocateEPS1_m
	.type	_ZNSt12_Vector_baseISt4pairIiiESaIS1_EE13_M_deallocateEPS1_m, @function
_ZNSt12_Vector_baseISt4pairIiiESaIS1_EE13_M_deallocateEPS1_m:
.LFB11122:
	.cfi_startproc
	endbr64
	push	rbp
	.cfi_def_cfa_offset 16
	.cfi_offset 6, -16
	mov	rbp, rsp
	.cfi_def_cfa_register 6
	sub	rsp, 32
	mov	QWORD PTR -8[rbp], rdi
	mov	QWORD PTR -16[rbp], rsi
	mov	QWORD PTR -24[rbp], rdx
	cmp	QWORD PTR -16[rbp], 0
	je	.L260
	mov	rax, QWORD PTR -8[rbp]
	mov	rdx, QWORD PTR -24[rbp]
	mov	rcx, QWORD PTR -16[rbp]
	mov	rsi, rcx
	mov	rdi, rax
	call	_ZNSt16allocator_traitsISaISt4pairIiiEEE10deallocateERS2_PS1_m
.L260:
	nop
	leave
	.cfi_def_cfa 7, 8
	ret
	.cfi_endproc
.LFE11122:
	.size	_ZNSt12_Vector_baseISt4pairIiiESaIS1_EE13_M_deallocateEPS1_m, .-_ZNSt12_Vector_baseISt4pairIiiESaIS1_EE13_M_deallocateEPS1_m
	.section	.text._ZSt27__uninitialized_default_n_aIPSt4pairIiiEmS1_ET_S3_T0_RSaIT1_E,"axG",@progbits,_ZSt27__uninitialized_default_n_aIPSt4pairIiiEmS1_ET_S3_T0_RSaIT1_E,comdat
	.weak	_ZSt27__uninitialized_default_n_aIPSt4pairIiiEmS1_ET_S3_T0_RSaIT1_E
	.type	_ZSt27__uninitialized_default_n_aIPSt4pairIiiEmS1_ET_S3_T0_RSaIT1_E, @function
_ZSt27__uninitialized_default_n_aIPSt4pairIiiEmS1_ET_S3_T0_RSaIT1_E:
.LFB11123:
	.cfi_startproc
	endbr64
	push	rbp
	.cfi_def_cfa_offset 16
	.cfi_offset 6, -16
	mov	rbp, rsp
	.cfi_def_cfa_register 6
	sub	rsp, 32
	mov	QWORD PTR -8[rbp], rdi
	mov	QWORD PTR -16[rbp], rsi
	mov	QWORD PTR -24[rbp], rdx
	mov	rdx, QWORD PTR -16[rbp]
	mov	rax, QWORD PTR -8[rbp]
	mov	rsi, rdx
	mov	rdi, rax
	call	_ZSt25__uninitialized_default_nIPSt4pairIiiEmET_S3_T0_
	leave
	.cfi_def_cfa 7, 8
	ret
	.cfi_endproc
.LFE11123:
	.size	_ZSt27__uninitialized_default_n_aIPSt4pairIiiEmS1_ET_S3_T0_RSaIT1_E, .-_ZSt27__uninitialized_default_n_aIPSt4pairIiiEmS1_ET_S3_T0_RSaIT1_E
	.section	.text._ZSt8_DestroyIPSt4pairIiiEEvT_S3_,"axG",@progbits,_ZSt8_DestroyIPSt4pairIiiEEvT_S3_,comdat
	.weak	_ZSt8_DestroyIPSt4pairIiiEEvT_S3_
	.type	_ZSt8_DestroyIPSt4pairIiiEEvT_S3_, @function
_ZSt8_DestroyIPSt4pairIiiEEvT_S3_:
.LFB11124:
	.cfi_startproc
	endbr64
	push	rbp
	.cfi_def_cfa_offset 16
	.cfi_offset 6, -16
	mov	rbp, rsp
	.cfi_def_cfa_register 6
	sub	rsp, 16
	mov	QWORD PTR -8[rbp], rdi
	mov	QWORD PTR -16[rbp], rsi
	mov	rdx, QWORD PTR -16[rbp]
	mov	rax, QWORD PTR -8[rbp]
	mov	rsi, rdx
	mov	rdi, rax
	call	_ZNSt12_Destroy_auxILb1EE9__destroyIPSt4pairIiiEEEvT_S5_
	nop
	leave
	.cfi_def_cfa 7, 8
	ret
	.cfi_endproc
.LFE11124:
	.size	_ZSt8_DestroyIPSt4pairIiiEEvT_S3_, .-_ZSt8_DestroyIPSt4pairIiiEEvT_S3_
	.section	.text._ZN9__gnu_cxx17__normal_iteratorIPSt4pairIiiESt6vectorIS2_SaIS2_EEEC2ERKS3_,"axG",@progbits,_ZN9__gnu_cxx17__normal_iteratorIPSt4pairIiiESt6vectorIS2_SaIS2_EEEC5ERKS3_,comdat
	.align 2
	.weak	_ZN9__gnu_cxx17__normal_iteratorIPSt4pairIiiESt6vectorIS2_SaIS2_EEEC2ERKS3_
	.type	_ZN9__gnu_cxx17__normal_iteratorIPSt4pairIiiESt6vectorIS2_SaIS2_EEEC2ERKS3_, @function
_ZN9__gnu_cxx17__normal_iteratorIPSt4pairIiiESt6vectorIS2_SaIS2_EEEC2ERKS3_:
.LFB11127:
	.cfi_startproc
	endbr64
	push	rbp
	.cfi_def_cfa_offset 16
	.cfi_offset 6, -16
	mov	rbp, rsp
	.cfi_def_cfa_register 6
	mov	QWORD PTR -8[rbp], rdi
	mov	QWORD PTR -16[rbp], rsi
	mov	rax, QWORD PTR -16[rbp]
	mov	rdx, QWORD PTR [rax]
	mov	rax, QWORD PTR -8[rbp]
	mov	QWORD PTR [rax], rdx
	nop
	pop	rbp
	.cfi_def_cfa 7, 8
	ret
	.cfi_endproc
.LFE11127:
	.size	_ZN9__gnu_cxx17__normal_iteratorIPSt4pairIiiESt6vectorIS2_SaIS2_EEEC2ERKS3_, .-_ZN9__gnu_cxx17__normal_iteratorIPSt4pairIiiESt6vectorIS2_SaIS2_EEEC2ERKS3_
	.weak	_ZN9__gnu_cxx17__normal_iteratorIPSt4pairIiiESt6vectorIS2_SaIS2_EEEC1ERKS3_
	.set	_ZN9__gnu_cxx17__normal_iteratorIPSt4pairIiiESt6vectorIS2_SaIS2_EEEC1ERKS3_,_ZN9__gnu_cxx17__normal_iteratorIPSt4pairIiiESt6vectorIS2_SaIS2_EEEC2ERKS3_
	.section	.text._ZNKSt16reverse_iteratorIN9__gnu_cxx17__normal_iteratorIPSt4pairIiiESt6vectorIS3_SaIS3_EEEEE4baseEv,"axG",@progbits,_ZNKSt16reverse_iteratorIN9__gnu_cxx17__normal_iteratorIPSt4pairIiiESt6vectorIS3_SaIS3_EEEEE4baseEv,comdat
	.align 2
	.weak	_ZNKSt16reverse_iteratorIN9__gnu_cxx17__normal_iteratorIPSt4pairIiiESt6vectorIS3_SaIS3_EEEEE4baseEv
	.type	_ZNKSt16reverse_iteratorIN9__gnu_cxx17__normal_iteratorIPSt4pairIiiESt6vectorIS3_SaIS3_EEEEE4baseEv, @function
_ZNKSt16reverse_iteratorIN9__gnu_cxx17__normal_iteratorIPSt4pairIiiESt6vectorIS3_SaIS3_EEEEE4baseEv:
.LFB11129:
	.cfi_startproc
	endbr64
	push	rbp
	.cfi_def_cfa_offset 16
	.cfi_offset 6, -16
	mov	rbp, rsp
	.cfi_def_cfa_register 6
	mov	QWORD PTR -8[rbp], rdi
	mov	rax, QWORD PTR -8[rbp]
	mov	rax, QWORD PTR [rax]
	pop	rbp
	.cfi_def_cfa 7, 8
	ret
	.cfi_endproc
.LFE11129:
	.size	_ZNKSt16reverse_iteratorIN9__gnu_cxx17__normal_iteratorIPSt4pairIiiESt6vectorIS3_SaIS3_EEEEE4baseEv, .-_ZNKSt16reverse_iteratorIN9__gnu_cxx17__normal_iteratorIPSt4pairIiiESt6vectorIS3_SaIS3_EEEEE4baseEv
	.section	.text._ZN9__gnu_cxxeqIPSt4pairIiiESt6vectorIS2_SaIS2_EEEEbRKNS_17__normal_iteratorIT_T0_EESC_,"axG",@progbits,_ZN9__gnu_cxxeqIPSt4pairIiiESt6vectorIS2_SaIS2_EEEEbRKNS_17__normal_iteratorIT_T0_EESC_,comdat
	.weak	_ZN9__gnu_cxxeqIPSt4pairIiiESt6vectorIS2_SaIS2_EEEEbRKNS_17__normal_iteratorIT_T0_EESC_
	.type	_ZN9__gnu_cxxeqIPSt4pairIiiESt6vectorIS2_SaIS2_EEEEbRKNS_17__normal_iteratorIT_T0_EESC_, @function
_ZN9__gnu_cxxeqIPSt4pairIiiESt6vectorIS2_SaIS2_EEEEbRKNS_17__normal_iteratorIT_T0_EESC_:
.LFB11130:
	.cfi_startproc
	endbr64
	push	rbp
	.cfi_def_cfa_offset 16
	.cfi_offset 6, -16
	mov	rbp, rsp
	.cfi_def_cfa_register 6
	push	rbx
	sub	rsp, 24
	.cfi_offset 3, -24
	mov	QWORD PTR -24[rbp], rdi
	mov	QWORD PTR -32[rbp], rsi
	mov	rax, QWORD PTR -24[rbp]
	mov	rdi, rax
	call	_ZNK9__gnu_cxx17__normal_iteratorIPSt4pairIiiESt6vectorIS2_SaIS2_EEE4baseEv
	mov	rbx, QWORD PTR [rax]
	mov	rax, QWORD PTR -32[rbp]
	mov	rdi, rax
	call	_ZNK9__gnu_cxx17__normal_iteratorIPSt4pairIiiESt6vectorIS2_SaIS2_EEE4baseEv
	mov	rax, QWORD PTR [rax]
	cmp	rbx, rax
	sete	al
	mov	rbx, QWORD PTR -8[rbp]
	leave
	.cfi_def_cfa 7, 8
	ret
	.cfi_endproc
.LFE11130:
	.size	_ZN9__gnu_cxxeqIPSt4pairIiiESt6vectorIS2_SaIS2_EEEEbRKNS_17__normal_iteratorIT_T0_EESC_, .-_ZN9__gnu_cxxeqIPSt4pairIiiESt6vectorIS2_SaIS2_EEEEbRKNS_17__normal_iteratorIT_T0_EESC_
	.section	.text._ZN9__gnu_cxxmiIPSt4pairIiiESt6vectorIS2_SaIS2_EEEENS_17__normal_iteratorIT_T0_E15difference_typeERKSA_SD_,"axG",@progbits,_ZN9__gnu_cxxmiIPSt4pairIiiESt6vectorIS2_SaIS2_EEEENS_17__normal_iteratorIT_T0_E15difference_typeERKSA_SD_,comdat
	.weak	_ZN9__gnu_cxxmiIPSt4pairIiiESt6vectorIS2_SaIS2_EEEENS_17__normal_iteratorIT_T0_E15difference_typeERKSA_SD_
	.type	_ZN9__gnu_cxxmiIPSt4pairIiiESt6vectorIS2_SaIS2_EEEENS_17__normal_iteratorIT_T0_E15difference_typeERKSA_SD_, @function
_ZN9__gnu_cxxmiIPSt4pairIiiESt6vectorIS2_SaIS2_EEEENS_17__normal_iteratorIT_T0_E15difference_typeERKSA_SD_:
.LFB11131:
	.cfi_startproc
	endbr64
	push	rbp
	.cfi_def_cfa_offset 16
	.cfi_offset 6, -16
	mov	rbp, rsp
	.cfi_def_cfa_register 6
	push	rbx
	sub	rsp, 24
	.cfi_offset 3, -24
	mov	QWORD PTR -24[rbp], rdi
	mov	QWORD PTR -32[rbp], rsi
	mov	rax, QWORD PTR -24[rbp]
	mov	rdi, rax
	call	_ZNK9__gnu_cxx17__normal_iteratorIPSt4pairIiiESt6vectorIS2_SaIS2_EEE4baseEv
	mov	rbx, QWORD PTR [rax]
	mov	rax, QWORD PTR -32[rbp]
	mov	rdi, rax
	call	_ZNK9__gnu_cxx17__normal_iteratorIPSt4pairIiiESt6vectorIS2_SaIS2_EEE4baseEv
	mov	rdx, QWORD PTR [rax]
	mov	rax, rbx
	sub	rax, rdx
	sar	rax, 3
	mov	rbx, QWORD PTR -8[rbp]
	leave
	.cfi_def_cfa 7, 8
	ret
	.cfi_endproc
.LFE11131:
	.size	_ZN9__gnu_cxxmiIPSt4pairIiiESt6vectorIS2_SaIS2_EEEENS_17__normal_iteratorIT_T0_E15difference_typeERKSA_SD_, .-_ZN9__gnu_cxxmiIPSt4pairIiiESt6vectorIS2_SaIS2_EEEENS_17__normal_iteratorIT_T0_E15difference_typeERKSA_SD_
	.section	.text._ZSt16__introsort_loopISt16reverse_iteratorIN9__gnu_cxx17__normal_iteratorIPSt4pairIiiESt6vectorIS4_SaIS4_EEEEElNS1_5__ops15_Iter_less_iterEEvT_SD_T0_T1_,"axG",@progbits,_ZSt16__introsort_loopISt16reverse_iteratorIN9__gnu_cxx17__normal_iteratorIPSt4pairIiiESt6vectorIS4_SaIS4_EEEEElNS1_5__ops15_Iter_less_iterEEvT_SD_T0_T1_,comdat
	.weak	_ZSt16__introsort_loopISt16reverse_iteratorIN9__gnu_cxx17__normal_iteratorIPSt4pairIiiESt6vectorIS4_SaIS4_EEEEElNS1_5__ops15_Iter_less_iterEEvT_SD_T0_T1_
	.type	_ZSt16__introsort_loopISt16reverse_iteratorIN9__gnu_cxx17__normal_iteratorIPSt4pairIiiESt6vectorIS4_SaIS4_EEEEElNS1_5__ops15_Iter_less_iterEEvT_SD_T0_T1_, @function
_ZSt16__introsort_loopISt16reverse_iteratorIN9__gnu_cxx17__normal_iteratorIPSt4pairIiiESt6vectorIS4_SaIS4_EEEEElNS1_5__ops15_Iter_less_iterEEvT_SD_T0_T1_:
.LFB11132:
	.cfi_startproc
	endbr64
	push	rbp
	.cfi_def_cfa_offset 16
	.cfi_offset 6, -16
	mov	rbp, rsp
	.cfi_def_cfa_register 6
	sub	rsp, 64
	mov	QWORD PTR -40[rbp], rdi
	mov	QWORD PTR -48[rbp], rsi
	mov	QWORD PTR -56[rbp], rdx
	mov	rax, QWORD PTR fs:40
	mov	QWORD PTR -8[rbp], rax
	xor	eax, eax
	jmp	.L272
.L275:
	cmp	QWORD PTR -56[rbp], 0
	jne	.L273
	mov	rdx, QWORD PTR -48[rbp]
	lea	rax, -16[rbp]
	mov	rsi, rdx
	mov	rdi, rax
	call	_ZNSt16reverse_iteratorIN9__gnu_cxx17__normal_iteratorIPSt4pairIiiESt6vectorIS3_SaIS3_EEEEEC1ERKS9_
	mov	rdx, QWORD PTR -48[rbp]
	lea	rax, -24[rbp]
	mov	rsi, rdx
	mov	rdi, rax
	call	_ZNSt16reverse_iteratorIN9__gnu_cxx17__normal_iteratorIPSt4pairIiiESt6vectorIS3_SaIS3_EEEEEC1ERKS9_
	mov	rdx, QWORD PTR -40[rbp]
	lea	rax, -32[rbp]
	mov	rsi, rdx
	mov	rdi, rax
	call	_ZNSt16reverse_iteratorIN9__gnu_cxx17__normal_iteratorIPSt4pairIiiESt6vectorIS3_SaIS3_EEEEEC1ERKS9_
	lea	rdx, -16[rbp]
	lea	rcx, -24[rbp]
	lea	rax, -32[rbp]
	mov	rsi, rcx
	mov	rdi, rax
	call	_ZSt14__partial_sortISt16reverse_iteratorIN9__gnu_cxx17__normal_iteratorIPSt4pairIiiESt6vectorIS4_SaIS4_EEEEENS1_5__ops15_Iter_less_iterEEvT_SD_SD_T0_
	jmp	.L271
.L273:
	sub	QWORD PTR -56[rbp], 1
	mov	rdx, QWORD PTR -48[rbp]
	lea	rax, -16[rbp]
	mov	rsi, rdx
	mov	rdi, rax
	call	_ZNSt16reverse_iteratorIN9__gnu_cxx17__normal_iteratorIPSt4pairIiiESt6vectorIS3_SaIS3_EEEEEC1ERKS9_
	mov	rdx, QWORD PTR -40[rbp]
	lea	rax, -24[rbp]
	mov	rsi, rdx
	mov	rdi, rax
	call	_ZNSt16reverse_iteratorIN9__gnu_cxx17__normal_iteratorIPSt4pairIiiESt6vectorIS3_SaIS3_EEEEEC1ERKS9_
	lea	rax, -32[rbp]
	lea	rdx, -16[rbp]
	lea	rcx, -24[rbp]
	mov	rsi, rcx
	mov	rdi, rax
	call	_ZSt27__unguarded_partition_pivotISt16reverse_iteratorIN9__gnu_cxx17__normal_iteratorIPSt4pairIiiESt6vectorIS4_SaIS4_EEEEENS1_5__ops15_Iter_less_iterEET_SD_SD_T0_
	mov	rdx, QWORD PTR -48[rbp]
	lea	rax, -16[rbp]
	mov	rsi, rdx
	mov	rdi, rax
	call	_ZNSt16reverse_iteratorIN9__gnu_cxx17__normal_iteratorIPSt4pairIiiESt6vectorIS3_SaIS3_EEEEEC1ERKS9_
	lea	rdx, -32[rbp]
	lea	rax, -24[rbp]
	mov	rsi, rdx
	mov	rdi, rax
	call	_ZNSt16reverse_iteratorIN9__gnu_cxx17__normal_iteratorIPSt4pairIiiESt6vectorIS3_SaIS3_EEEEEC1ERKS9_
	mov	rdx, QWORD PTR -56[rbp]
	lea	rcx, -16[rbp]
	lea	rax, -24[rbp]
	mov	rsi, rcx
	mov	rdi, rax
	call	_ZSt16__introsort_loopISt16reverse_iteratorIN9__gnu_cxx17__normal_iteratorIPSt4pairIiiESt6vectorIS4_SaIS4_EEEEElNS1_5__ops15_Iter_less_iterEEvT_SD_T0_T1_
	mov	rax, QWORD PTR -48[rbp]
	mov	rdx, QWORD PTR -32[rbp]
	mov	QWORD PTR [rax], rdx
.L272:
	mov	rdx, QWORD PTR -40[rbp]
	mov	rax, QWORD PTR -48[rbp]
	mov	rsi, rdx
	mov	rdi, rax
	call	_ZStmiIN9__gnu_cxx17__normal_iteratorIPSt4pairIiiESt6vectorIS3_SaIS3_EEEES8_EDTmicldtfp0_4baseEcldtfp_4baseEERKSt16reverse_iteratorIT_ERKSA_IT0_E
	cmp	rax, 16
	setg	al
	test	al, al
	jne	.L275
.L271:
	mov	rax, QWORD PTR -8[rbp]
	sub	rax, QWORD PTR fs:40
	je	.L276
	call	__stack_chk_fail@PLT
.L276:
	leave
	.cfi_def_cfa 7, 8
	ret
	.cfi_endproc
.LFE11132:
	.size	_ZSt16__introsort_loopISt16reverse_iteratorIN9__gnu_cxx17__normal_iteratorIPSt4pairIiiESt6vectorIS4_SaIS4_EEEEElNS1_5__ops15_Iter_less_iterEEvT_SD_T0_T1_, .-_ZSt16__introsort_loopISt16reverse_iteratorIN9__gnu_cxx17__normal_iteratorIPSt4pairIiiESt6vectorIS4_SaIS4_EEEEElNS1_5__ops15_Iter_less_iterEEvT_SD_T0_T1_
	.section	.text._ZSt22__final_insertion_sortISt16reverse_iteratorIN9__gnu_cxx17__normal_iteratorIPSt4pairIiiESt6vectorIS4_SaIS4_EEEEENS1_5__ops15_Iter_less_iterEEvT_SD_T0_,"axG",@progbits,_ZSt22__final_insertion_sortISt16reverse_iteratorIN9__gnu_cxx17__normal_iteratorIPSt4pairIiiESt6vectorIS4_SaIS4_EEEEENS1_5__ops15_Iter_less_iterEEvT_SD_T0_,comdat
	.weak	_ZSt22__final_insertion_sortISt16reverse_iteratorIN9__gnu_cxx17__normal_iteratorIPSt4pairIiiESt6vectorIS4_SaIS4_EEEEENS1_5__ops15_Iter_less_iterEEvT_SD_T0_
	.type	_ZSt22__final_insertion_sortISt16reverse_iteratorIN9__gnu_cxx17__normal_iteratorIPSt4pairIiiESt6vectorIS4_SaIS4_EEEEENS1_5__ops15_Iter_less_iterEEvT_SD_T0_, @function
_ZSt22__final_insertion_sortISt16reverse_iteratorIN9__gnu_cxx17__normal_iteratorIPSt4pairIiiESt6vectorIS4_SaIS4_EEEEENS1_5__ops15_Iter_less_iterEEvT_SD_T0_:
.LFB11133:
	.cfi_startproc
	endbr64
	push	rbp
	.cfi_def_cfa_offset 16
	.cfi_offset 6, -16
	mov	rbp, rsp
	.cfi_def_cfa_register 6
	sub	rsp, 64
	mov	QWORD PTR -40[rbp], rdi
	mov	QWORD PTR -48[rbp], rsi
	mov	rax, QWORD PTR fs:40
	mov	QWORD PTR -8[rbp], rax
	xor	eax, eax
	mov	rdx, QWORD PTR -40[rbp]
	mov	rax, QWORD PTR -48[rbp]
	mov	rsi, rdx
	mov	rdi, rax
	call	_ZStmiIN9__gnu_cxx17__normal_iteratorIPSt4pairIiiESt6vectorIS3_SaIS3_EEEES8_EDTmicldtfp0_4baseEcldtfp_4baseEERKSt16reverse_iteratorIT_ERKSA_IT0_E
	cmp	rax, 16
	setg	al
	test	al, al
	je	.L278
	lea	rax, -24[rbp]
	mov	rcx, QWORD PTR -40[rbp]
	mov	edx, 16
	mov	rsi, rcx
	mov	rdi, rax
	call	_ZNKSt16reverse_iteratorIN9__gnu_cxx17__normal_iteratorIPSt4pairIiiESt6vectorIS3_SaIS3_EEEEEplEl
	mov	rdx, QWORD PTR -40[rbp]
	lea	rax, -16[rbp]
	mov	rsi, rdx
	mov	rdi, rax
	call	_ZNSt16reverse_iteratorIN9__gnu_cxx17__normal_iteratorIPSt4pairIiiESt6vectorIS3_SaIS3_EEEEEC1ERKS9_
	lea	rdx, -24[rbp]
	lea	rax, -16[rbp]
	mov	rsi, rdx
	mov	rdi, rax
	call	_ZSt16__insertion_sortISt16reverse_iteratorIN9__gnu_cxx17__normal_iteratorIPSt4pairIiiESt6vectorIS4_SaIS4_EEEEENS1_5__ops15_Iter_less_iterEEvT_SD_T0_
	mov	rdx, QWORD PTR -48[rbp]
	lea	rax, -16[rbp]
	mov	rsi, rdx
	mov	rdi, rax
	call	_ZNSt16reverse_iteratorIN9__gnu_cxx17__normal_iteratorIPSt4pairIiiESt6vectorIS3_SaIS3_EEEEEC1ERKS9_
	lea	rax, -24[rbp]
	mov	rcx, QWORD PTR -40[rbp]
	mov	edx, 16
	mov	rsi, rcx
	mov	rdi, rax
	call	_ZNKSt16reverse_iteratorIN9__gnu_cxx17__normal_iteratorIPSt4pairIiiESt6vectorIS3_SaIS3_EEEEEplEl
	lea	rdx, -16[rbp]
	lea	rax, -24[rbp]
	mov	rsi, rdx
	mov	rdi, rax
	call	_ZSt26__unguarded_insertion_sortISt16reverse_iteratorIN9__gnu_cxx17__normal_iteratorIPSt4pairIiiESt6vectorIS4_SaIS4_EEEEENS1_5__ops15_Iter_less_iterEEvT_SD_T0_
	jmp	.L281
.L278:
	mov	rdx, QWORD PTR -48[rbp]
	lea	rax, -16[rbp]
	mov	rsi, rdx
	mov	rdi, rax
	call	_ZNSt16reverse_iteratorIN9__gnu_cxx17__normal_iteratorIPSt4pairIiiESt6vectorIS3_SaIS3_EEEEEC1ERKS9_
	mov	rdx, QWORD PTR -40[rbp]
	lea	rax, -24[rbp]
	mov	rsi, rdx
	mov	rdi, rax
	call	_ZNSt16reverse_iteratorIN9__gnu_cxx17__normal_iteratorIPSt4pairIiiESt6vectorIS3_SaIS3_EEEEEC1ERKS9_
	lea	rdx, -16[rbp]
	lea	rax, -24[rbp]
	mov	rsi, rdx
	mov	rdi, rax
	call	_ZSt16__insertion_sortISt16reverse_iteratorIN9__gnu_cxx17__normal_iteratorIPSt4pairIiiESt6vectorIS4_SaIS4_EEEEENS1_5__ops15_Iter_less_iterEEvT_SD_T0_
.L281:
	nop
	mov	rax, QWORD PTR -8[rbp]
	sub	rax, QWORD PTR fs:40
	je	.L280
	call	__stack_chk_fail@PLT
.L280:
	leave
	.cfi_def_cfa 7, 8
	ret
	.cfi_endproc
.LFE11133:
	.size	_ZSt22__final_insertion_sortISt16reverse_iteratorIN9__gnu_cxx17__normal_iteratorIPSt4pairIiiESt6vectorIS4_SaIS4_EEEEENS1_5__ops15_Iter_less_iterEEvT_SD_T0_, .-_ZSt22__final_insertion_sortISt16reverse_iteratorIN9__gnu_cxx17__normal_iteratorIPSt4pairIiiESt6vectorIS4_SaIS4_EEEEENS1_5__ops15_Iter_less_iterEEvT_SD_T0_
	.section	.text._ZN9__gnu_cxx13new_allocatorIxE10deallocateEPxm,"axG",@progbits,_ZN9__gnu_cxx13new_allocatorIxE10deallocateEPxm,comdat
	.align 2
	.weak	_ZN9__gnu_cxx13new_allocatorIxE10deallocateEPxm
	.type	_ZN9__gnu_cxx13new_allocatorIxE10deallocateEPxm, @function
_ZN9__gnu_cxx13new_allocatorIxE10deallocateEPxm:
.LFB11270:
	.cfi_startproc
	endbr64
	push	rbp
	.cfi_def_cfa_offset 16
	.cfi_offset 6, -16
	mov	rbp, rsp
	.cfi_def_cfa_register 6
	sub	rsp, 32
	mov	QWORD PTR -8[rbp], rdi
	mov	QWORD PTR -16[rbp], rsi
	mov	QWORD PTR -24[rbp], rdx
	mov	rax, QWORD PTR -24[rbp]
	lea	rdx, 0[0+rax*8]
	mov	rax, QWORD PTR -16[rbp]
	mov	rsi, rdx
	mov	rdi, rax
	call	_ZdlPvm@PLT
	leave
	.cfi_def_cfa 7, 8
	ret
	.cfi_endproc
.LFE11270:
	.size	_ZN9__gnu_cxx13new_allocatorIxE10deallocateEPxm, .-_ZN9__gnu_cxx13new_allocatorIxE10deallocateEPxm
	.section	.text._ZN9__gnu_cxx13new_allocatorIxE9constructIxJxEEEvPT_DpOT0_,"axG",@progbits,_ZN9__gnu_cxx13new_allocatorIxE9constructIxJxEEEvPT_DpOT0_,comdat
	.align 2
	.weak	_ZN9__gnu_cxx13new_allocatorIxE9constructIxJxEEEvPT_DpOT0_
	.type	_ZN9__gnu_cxx13new_allocatorIxE9constructIxJxEEEvPT_DpOT0_, @function
_ZN9__gnu_cxx13new_allocatorIxE9constructIxJxEEEvPT_DpOT0_:
.LFB11271:
	.cfi_startproc
	endbr64
	push	rbp
	.cfi_def_cfa_offset 16
	.cfi_offset 6, -16
	mov	rbp, rsp
	.cfi_def_cfa_register 6
	push	rbx
	sub	rsp, 40
	.cfi_offset 3, -24
	mov	QWORD PTR -24[rbp], rdi
	mov	QWORD PTR -32[rbp], rsi
	mov	QWORD PTR -40[rbp], rdx
	mov	rax, QWORD PTR -40[rbp]
	mov	rdi, rax
	call	_ZSt7forwardIxEOT_RNSt16remove_referenceIS0_E4typeE
	mov	rbx, QWORD PTR [rax]
	mov	rax, QWORD PTR -32[rbp]
	mov	rsi, rax
	mov	edi, 8
	call	_ZnwmPv
	mov	QWORD PTR [rax], rbx
	nop
	mov	rbx, QWORD PTR -8[rbp]
	leave
	.cfi_def_cfa 7, 8
	ret
	.cfi_endproc
.LFE11271:
	.size	_ZN9__gnu_cxx13new_allocatorIxE9constructIxJxEEEvPT_DpOT0_, .-_ZN9__gnu_cxx13new_allocatorIxE9constructIxJxEEEvPT_DpOT0_
	.section	.text._ZN9__gnu_cxx17__normal_iteratorIPxSt6vectorIxSaIxEEEC2ERKS1_,"axG",@progbits,_ZN9__gnu_cxx17__normal_iteratorIPxSt6vectorIxSaIxEEEC5ERKS1_,comdat
	.align 2
	.weak	_ZN9__gnu_cxx17__normal_iteratorIPxSt6vectorIxSaIxEEEC2ERKS1_
	.type	_ZN9__gnu_cxx17__normal_iteratorIPxSt6vectorIxSaIxEEEC2ERKS1_, @function
_ZN9__gnu_cxx17__normal_iteratorIPxSt6vectorIxSaIxEEEC2ERKS1_:
.LFB11273:
	.cfi_startproc
	endbr64
	push	rbp
	.cfi_def_cfa_offset 16
	.cfi_offset 6, -16
	mov	rbp, rsp
	.cfi_def_cfa_register 6
	mov	QWORD PTR -8[rbp], rdi
	mov	QWORD PTR -16[rbp], rsi
	mov	rax, QWORD PTR -16[rbp]
	mov	rdx, QWORD PTR [rax]
	mov	rax, QWORD PTR -8[rbp]
	mov	QWORD PTR [rax], rdx
	nop
	pop	rbp
	.cfi_def_cfa 7, 8
	ret
	.cfi_endproc
.LFE11273:
	.size	_ZN9__gnu_cxx17__normal_iteratorIPxSt6vectorIxSaIxEEEC2ERKS1_, .-_ZN9__gnu_cxx17__normal_iteratorIPxSt6vectorIxSaIxEEEC2ERKS1_
	.weak	_ZN9__gnu_cxx17__normal_iteratorIPxSt6vectorIxSaIxEEEC1ERKS1_
	.set	_ZN9__gnu_cxx17__normal_iteratorIPxSt6vectorIxSaIxEEEC1ERKS1_,_ZN9__gnu_cxx17__normal_iteratorIPxSt6vectorIxSaIxEEEC2ERKS1_
	.section	.text._ZNKSt6vectorIxSaIxEE12_M_check_lenEmPKc,"axG",@progbits,_ZNKSt6vectorIxSaIxEE12_M_check_lenEmPKc,comdat
	.align 2
	.weak	_ZNKSt6vectorIxSaIxEE12_M_check_lenEmPKc
	.type	_ZNKSt6vectorIxSaIxEE12_M_check_lenEmPKc, @function
_ZNKSt6vectorIxSaIxEE12_M_check_lenEmPKc:
.LFB11275:
	.cfi_startproc
	endbr64
	push	rbp
	.cfi_def_cfa_offset 16
	.cfi_offset 6, -16
	mov	rbp, rsp
	.cfi_def_cfa_register 6
	push	rbx
	sub	rsp, 72
	.cfi_offset 3, -24
	mov	QWORD PTR -56[rbp], rdi
	mov	QWORD PTR -64[rbp], rsi
	mov	QWORD PTR -72[rbp], rdx
	mov	rax, QWORD PTR fs:40
	mov	QWORD PTR -24[rbp], rax
	xor	eax, eax
	mov	rax, QWORD PTR -56[rbp]
	mov	rdi, rax
	call	_ZNKSt6vectorIxSaIxEE8max_sizeEv
	mov	rbx, rax
	mov	rax, QWORD PTR -56[rbp]
	mov	rdi, rax
	call	_ZNKSt6vectorIxSaIxEE4sizeEv
	sub	rbx, rax
	mov	rdx, rbx
	mov	rax, QWORD PTR -64[rbp]
	cmp	rdx, rax
	setb	al
	test	al, al
	je	.L287
	mov	rax, QWORD PTR -72[rbp]
	mov	rdi, rax
	call	_ZSt20__throw_length_errorPKc@PLT
.L287:
	mov	rax, QWORD PTR -56[rbp]
	mov	rdi, rax
	call	_ZNKSt6vectorIxSaIxEE4sizeEv
	mov	rbx, rax
	mov	rax, QWORD PTR -56[rbp]
	mov	rdi, rax
	call	_ZNKSt6vectorIxSaIxEE4sizeEv
	mov	QWORD PTR -40[rbp], rax
	lea	rdx, -64[rbp]
	lea	rax, -40[rbp]
	mov	rsi, rdx
	mov	rdi, rax
	call	_ZSt3maxImERKT_S2_S2_
	mov	rax, QWORD PTR [rax]
	add	rax, rbx
	mov	QWORD PTR -32[rbp], rax
	mov	rax, QWORD PTR -56[rbp]
	mov	rdi, rax
	call	_ZNKSt6vectorIxSaIxEE4sizeEv
	cmp	QWORD PTR -32[rbp], rax
	jb	.L288
	mov	rax, QWORD PTR -56[rbp]
	mov	rdi, rax
	call	_ZNKSt6vectorIxSaIxEE8max_sizeEv
	cmp	QWORD PTR -32[rbp], rax
	jbe	.L289
.L288:
	mov	rax, QWORD PTR -56[rbp]
	mov	rdi, rax
	call	_ZNKSt6vectorIxSaIxEE8max_sizeEv
	jmp	.L290
.L289:
	mov	rax, QWORD PTR -32[rbp]
.L290:
	mov	rdx, QWORD PTR -24[rbp]
	sub	rdx, QWORD PTR fs:40
	je	.L292
	call	__stack_chk_fail@PLT
.L292:
	mov	rbx, QWORD PTR -8[rbp]
	leave
	.cfi_def_cfa 7, 8
	ret
	.cfi_endproc
.LFE11275:
	.size	_ZNKSt6vectorIxSaIxEE12_M_check_lenEmPKc, .-_ZNKSt6vectorIxSaIxEE12_M_check_lenEmPKc
	.section	.text._ZNSt6vectorIxSaIxEE5beginEv,"axG",@progbits,_ZNSt6vectorIxSaIxEE5beginEv,comdat
	.align 2
	.weak	_ZNSt6vectorIxSaIxEE5beginEv
	.type	_ZNSt6vectorIxSaIxEE5beginEv, @function
_ZNSt6vectorIxSaIxEE5beginEv:
.LFB11276:
	.cfi_startproc
	endbr64
	push	rbp
	.cfi_def_cfa_offset 16
	.cfi_offset 6, -16
	mov	rbp, rsp
	.cfi_def_cfa_register 6
	sub	rsp, 32
	mov	QWORD PTR -24[rbp], rdi
	mov	rax, QWORD PTR fs:40
	mov	QWORD PTR -8[rbp], rax
	xor	eax, eax
	mov	rdx, QWORD PTR -24[rbp]
	lea	rax, -16[rbp]
	mov	rsi, rdx
	mov	rdi, rax
	call	_ZN9__gnu_cxx17__normal_iteratorIPxSt6vectorIxSaIxEEEC1ERKS1_
	mov	rax, QWORD PTR -16[rbp]
	mov	rdx, QWORD PTR -8[rbp]
	sub	rdx, QWORD PTR fs:40
	je	.L295
	call	__stack_chk_fail@PLT
.L295:
	leave
	.cfi_def_cfa 7, 8
	ret
	.cfi_endproc
.LFE11276:
	.size	_ZNSt6vectorIxSaIxEE5beginEv, .-_ZNSt6vectorIxSaIxEE5beginEv
	.section	.text._ZN9__gnu_cxxmiIPxSt6vectorIxSaIxEEEENS_17__normal_iteratorIT_T0_E15difference_typeERKS8_SB_,"axG",@progbits,_ZN9__gnu_cxxmiIPxSt6vectorIxSaIxEEEENS_17__normal_iteratorIT_T0_E15difference_typeERKS8_SB_,comdat
	.weak	_ZN9__gnu_cxxmiIPxSt6vectorIxSaIxEEEENS_17__normal_iteratorIT_T0_E15difference_typeERKS8_SB_
	.type	_ZN9__gnu_cxxmiIPxSt6vectorIxSaIxEEEENS_17__normal_iteratorIT_T0_E15difference_typeERKS8_SB_, @function
_ZN9__gnu_cxxmiIPxSt6vectorIxSaIxEEEENS_17__normal_iteratorIT_T0_E15difference_typeERKS8_SB_:
.LFB11277:
	.cfi_startproc
	endbr64
	push	rbp
	.cfi_def_cfa_offset 16
	.cfi_offset 6, -16
	mov	rbp, rsp
	.cfi_def_cfa_register 6
	push	rbx
	sub	rsp, 24
	.cfi_offset 3, -24
	mov	QWORD PTR -24[rbp], rdi
	mov	QWORD PTR -32[rbp], rsi
	mov	rax, QWORD PTR -24[rbp]
	mov	rdi, rax
	call	_ZNK9__gnu_cxx17__normal_iteratorIPxSt6vectorIxSaIxEEE4baseEv
	mov	rbx, QWORD PTR [rax]
	mov	rax, QWORD PTR -32[rbp]
	mov	rdi, rax
	call	_ZNK9__gnu_cxx17__normal_iteratorIPxSt6vectorIxSaIxEEE4baseEv
	mov	rdx, QWORD PTR [rax]
	mov	rax, rbx
	sub	rax, rdx
	sar	rax, 3
	mov	rbx, QWORD PTR -8[rbp]
	leave
	.cfi_def_cfa 7, 8
	ret
	.cfi_endproc
.LFE11277:
	.size	_ZN9__gnu_cxxmiIPxSt6vectorIxSaIxEEEENS_17__normal_iteratorIT_T0_E15difference_typeERKS8_SB_, .-_ZN9__gnu_cxxmiIPxSt6vectorIxSaIxEEEENS_17__normal_iteratorIT_T0_E15difference_typeERKS8_SB_
	.section	.text._ZNSt12_Vector_baseIxSaIxEE11_M_allocateEm,"axG",@progbits,_ZNSt12_Vector_baseIxSaIxEE11_M_allocateEm,comdat
	.align 2
	.weak	_ZNSt12_Vector_baseIxSaIxEE11_M_allocateEm
	.type	_ZNSt12_Vector_baseIxSaIxEE11_M_allocateEm, @function
_ZNSt12_Vector_baseIxSaIxEE11_M_allocateEm:
.LFB11278:
	.cfi_startproc
	endbr64
	push	rbp
	.cfi_def_cfa_offset 16
	.cfi_offset 6, -16
	mov	rbp, rsp
	.cfi_def_cfa_register 6
	sub	rsp, 16
	mov	QWORD PTR -8[rbp], rdi
	mov	QWORD PTR -16[rbp], rsi
	cmp	QWORD PTR -16[rbp], 0
	je	.L299
	mov	rax, QWORD PTR -8[rbp]
	mov	rdx, QWORD PTR -16[rbp]
	mov	rsi, rdx
	mov	rdi, rax
	call	_ZNSt16allocator_traitsISaIxEE8allocateERS0_m
	jmp	.L301
.L299:
	mov	eax, 0
.L301:
	leave
	.cfi_def_cfa 7, 8
	ret
	.cfi_endproc
.LFE11278:
	.size	_ZNSt12_Vector_baseIxSaIxEE11_M_allocateEm, .-_ZNSt12_Vector_baseIxSaIxEE11_M_allocateEm
	.section	.text._ZNSt6vectorIxSaIxEE11_S_relocateEPxS2_S2_RS0_,"axG",@progbits,_ZNSt6vectorIxSaIxEE11_S_relocateEPxS2_S2_RS0_,comdat
	.weak	_ZNSt6vectorIxSaIxEE11_S_relocateEPxS2_S2_RS0_
	.type	_ZNSt6vectorIxSaIxEE11_S_relocateEPxS2_S2_RS0_, @function
_ZNSt6vectorIxSaIxEE11_S_relocateEPxS2_S2_RS0_:
.LFB11279:
	.cfi_startproc
	endbr64
	push	rbp
	.cfi_def_cfa_offset 16
	.cfi_offset 6, -16
	mov	rbp, rsp
	.cfi_def_cfa_register 6
	sub	rsp, 32
	mov	QWORD PTR -8[rbp], rdi
	mov	QWORD PTR -16[rbp], rsi
	mov	QWORD PTR -24[rbp], rdx
	mov	QWORD PTR -32[rbp], rcx
	mov	rcx, QWORD PTR -32[rbp]
	mov	rdx, QWORD PTR -24[rbp]
	mov	rsi, QWORD PTR -16[rbp]
	mov	rax, QWORD PTR -8[rbp]
	mov	rdi, rax
	call	_ZNSt6vectorIxSaIxEE14_S_do_relocateEPxS2_S2_RS0_St17integral_constantIbLb1EE
	leave
	.cfi_def_cfa 7, 8
	ret
	.cfi_endproc
.LFE11279:
	.size	_ZNSt6vectorIxSaIxEE11_S_relocateEPxS2_S2_RS0_, .-_ZNSt6vectorIxSaIxEE11_S_relocateEPxS2_S2_RS0_
	.section	.text._ZNK9__gnu_cxx17__normal_iteratorIPxSt6vectorIxSaIxEEE4baseEv,"axG",@progbits,_ZNK9__gnu_cxx17__normal_iteratorIPxSt6vectorIxSaIxEEE4baseEv,comdat
	.align 2
	.weak	_ZNK9__gnu_cxx17__normal_iteratorIPxSt6vectorIxSaIxEEE4baseEv
	.type	_ZNK9__gnu_cxx17__normal_iteratorIPxSt6vectorIxSaIxEEE4baseEv, @function
_ZNK9__gnu_cxx17__normal_iteratorIPxSt6vectorIxSaIxEEE4baseEv:
.LFB11280:
	.cfi_startproc
	endbr64
	push	rbp
	.cfi_def_cfa_offset 16
	.cfi_offset 6, -16
	mov	rbp, rsp
	.cfi_def_cfa_register 6
	mov	QWORD PTR -8[rbp], rdi
	mov	rax, QWORD PTR -8[rbp]
	pop	rbp
	.cfi_def_cfa 7, 8
	ret
	.cfi_endproc
.LFE11280:
	.size	_ZNK9__gnu_cxx17__normal_iteratorIPxSt6vectorIxSaIxEEE4baseEv, .-_ZNK9__gnu_cxx17__normal_iteratorIPxSt6vectorIxSaIxEEE4baseEv
	.section	.text._ZNSt12_Vector_baseIxSaIxEE19_M_get_Tp_allocatorEv,"axG",@progbits,_ZNSt12_Vector_baseIxSaIxEE19_M_get_Tp_allocatorEv,comdat
	.align 2
	.weak	_ZNSt12_Vector_baseIxSaIxEE19_M_get_Tp_allocatorEv
	.type	_ZNSt12_Vector_baseIxSaIxEE19_M_get_Tp_allocatorEv, @function
_ZNSt12_Vector_baseIxSaIxEE19_M_get_Tp_allocatorEv:
.LFB11281:
	.cfi_startproc
	endbr64
	push	rbp
	.cfi_def_cfa_offset 16
	.cfi_offset 6, -16
	mov	rbp, rsp
	.cfi_def_cfa_register 6
	mov	QWORD PTR -8[rbp], rdi
	mov	rax, QWORD PTR -8[rbp]
	pop	rbp
	.cfi_def_cfa 7, 8
	ret
	.cfi_endproc
.LFE11281:
	.size	_ZNSt12_Vector_baseIxSaIxEE19_M_get_Tp_allocatorEv, .-_ZNSt12_Vector_baseIxSaIxEE19_M_get_Tp_allocatorEv
	.section	.text._ZSt8_DestroyIPxxEvT_S1_RSaIT0_E,"axG",@progbits,_ZSt8_DestroyIPxxEvT_S1_RSaIT0_E,comdat
	.weak	_ZSt8_DestroyIPxxEvT_S1_RSaIT0_E
	.type	_ZSt8_DestroyIPxxEvT_S1_RSaIT0_E, @function
_ZSt8_DestroyIPxxEvT_S1_RSaIT0_E:
.LFB11283:
	.cfi_startproc
	endbr64
	push	rbp
	.cfi_def_cfa_offset 16
	.cfi_offset 6, -16
	mov	rbp, rsp
	.cfi_def_cfa_register 6
	sub	rsp, 32
	mov	QWORD PTR -8[rbp], rdi
	mov	QWORD PTR -16[rbp], rsi
	mov	QWORD PTR -24[rbp], rdx
	mov	rdx, QWORD PTR -16[rbp]
	mov	rax, QWORD PTR -8[rbp]
	mov	rsi, rdx
	mov	rdi, rax
	call	_ZSt8_DestroyIPxEvT_S1_
	nop
	leave
	.cfi_def_cfa 7, 8
	ret
	.cfi_endproc
.LFE11283:
	.size	_ZSt8_DestroyIPxxEvT_S1_RSaIT0_E, .-_ZSt8_DestroyIPxxEvT_S1_RSaIT0_E
	.section	.text._ZNK9__gnu_cxx17__normal_iteratorIPxSt6vectorIxSaIxEEEmiEl,"axG",@progbits,_ZNK9__gnu_cxx17__normal_iteratorIPxSt6vectorIxSaIxEEEmiEl,comdat
	.align 2
	.weak	_ZNK9__gnu_cxx17__normal_iteratorIPxSt6vectorIxSaIxEEEmiEl
	.type	_ZNK9__gnu_cxx17__normal_iteratorIPxSt6vectorIxSaIxEEEmiEl, @function
_ZNK9__gnu_cxx17__normal_iteratorIPxSt6vectorIxSaIxEEEmiEl:
.LFB11284:
	.cfi_startproc
	endbr64
	push	rbp
	.cfi_def_cfa_offset 16
	.cfi_offset 6, -16
	mov	rbp, rsp
	.cfi_def_cfa_register 6
	sub	rsp, 48
	mov	QWORD PTR -40[rbp], rdi
	mov	QWORD PTR -48[rbp], rsi
	mov	rax, QWORD PTR fs:40
	mov	QWORD PTR -8[rbp], rax
	xor	eax, eax
	mov	rax, QWORD PTR -40[rbp]
	mov	rdx, QWORD PTR [rax]
	mov	rax, QWORD PTR -48[rbp]
	sal	rax, 3
	neg	rax
	add	rax, rdx
	mov	QWORD PTR -24[rbp], rax
	lea	rdx, -24[rbp]
	lea	rax, -16[rbp]
	mov	rsi, rdx
	mov	rdi, rax
	call	_ZN9__gnu_cxx17__normal_iteratorIPxSt6vectorIxSaIxEEEC1ERKS1_
	mov	rax, QWORD PTR -16[rbp]
	mov	rdx, QWORD PTR -8[rbp]
	sub	rdx, QWORD PTR fs:40
	je	.L311
	call	__stack_chk_fail@PLT
.L311:
	leave
	.cfi_def_cfa 7, 8
	ret
	.cfi_endproc
.LFE11284:
	.size	_ZNK9__gnu_cxx17__normal_iteratorIPxSt6vectorIxSaIxEEEmiEl, .-_ZNK9__gnu_cxx17__normal_iteratorIPxSt6vectorIxSaIxEEEmiEl
	.section	.text._ZNK9__gnu_cxx17__normal_iteratorIPxSt6vectorIxSaIxEEEdeEv,"axG",@progbits,_ZNK9__gnu_cxx17__normal_iteratorIPxSt6vectorIxSaIxEEEdeEv,comdat
	.align 2
	.weak	_ZNK9__gnu_cxx17__normal_iteratorIPxSt6vectorIxSaIxEEEdeEv
	.type	_ZNK9__gnu_cxx17__normal_iteratorIPxSt6vectorIxSaIxEEEdeEv, @function
_ZNK9__gnu_cxx17__normal_iteratorIPxSt6vectorIxSaIxEEEdeEv:
.LFB11285:
	.cfi_startproc
	endbr64
	push	rbp
	.cfi_def_cfa_offset 16
	.cfi_offset 6, -16
	mov	rbp, rsp
	.cfi_def_cfa_register 6
	mov	QWORD PTR -8[rbp], rdi
	mov	rax, QWORD PTR -8[rbp]
	mov	rax, QWORD PTR [rax]
	pop	rbp
	.cfi_def_cfa 7, 8
	ret
	.cfi_endproc
.LFE11285:
	.size	_ZNK9__gnu_cxx17__normal_iteratorIPxSt6vectorIxSaIxEEEdeEv, .-_ZNK9__gnu_cxx17__normal_iteratorIPxSt6vectorIxSaIxEEEdeEv
	.section	.text._ZNK9__gnu_cxx17__normal_iteratorIPcNSt7__cxx1112basic_stringIcSt11char_traitsIcESaIcEEEE4baseEv,"axG",@progbits,_ZNK9__gnu_cxx17__normal_iteratorIPcNSt7__cxx1112basic_stringIcSt11char_traitsIcESaIcEEEE4baseEv,comdat
	.align 2
	.weak	_ZNK9__gnu_cxx17__normal_iteratorIPcNSt7__cxx1112basic_stringIcSt11char_traitsIcESaIcEEEE4baseEv
	.type	_ZNK9__gnu_cxx17__normal_iteratorIPcNSt7__cxx1112basic_stringIcSt11char_traitsIcESaIcEEEE4baseEv, @function
_ZNK9__gnu_cxx17__normal_iteratorIPcNSt7__cxx1112basic_stringIcSt11char_traitsIcESaIcEEEE4baseEv:
.LFB11286:
	.cfi_startproc
	endbr64
	push	rbp
	.cfi_def_cfa_offset 16
	.cfi_offset 6, -16
	mov	rbp, rsp
	.cfi_def_cfa_register 6
	mov	QWORD PTR -8[rbp], rdi
	mov	rax, QWORD PTR -8[rbp]
	pop	rbp
	.cfi_def_cfa 7, 8
	ret
	.cfi_endproc
.LFE11286:
	.size	_ZNK9__gnu_cxx17__normal_iteratorIPcNSt7__cxx1112basic_stringIcSt11char_traitsIcESaIcEEEE4baseEv, .-_ZNK9__gnu_cxx17__normal_iteratorIPcNSt7__cxx1112basic_stringIcSt11char_traitsIcESaIcEEEE4baseEv
	.section	.text._ZNK9__gnu_cxx17__normal_iteratorIPcNSt7__cxx1112basic_stringIcSt11char_traitsIcESaIcEEEEdeEv,"axG",@progbits,_ZNK9__gnu_cxx17__normal_iteratorIPcNSt7__cxx1112basic_stringIcSt11char_traitsIcESaIcEEEEdeEv,comdat
	.align 2
	.weak	_ZNK9__gnu_cxx17__normal_iteratorIPcNSt7__cxx1112basic_stringIcSt11char_traitsIcESaIcEEEEdeEv
	.type	_ZNK9__gnu_cxx17__normal_iteratorIPcNSt7__cxx1112basic_stringIcSt11char_traitsIcESaIcEEEEdeEv, @function
_ZNK9__gnu_cxx17__normal_iteratorIPcNSt7__cxx1112basic_stringIcSt11char_traitsIcESaIcEEEEdeEv:
.LFB11287:
	.cfi_startproc
	endbr64
	push	rbp
	.cfi_def_cfa_offset 16
	.cfi_offset 6, -16
	mov	rbp, rsp
	.cfi_def_cfa_register 6
	mov	QWORD PTR -8[rbp], rdi
	mov	rax, QWORD PTR -8[rbp]
	mov	rax, QWORD PTR [rax]
	pop	rbp
	.cfi_def_cfa 7, 8
	ret
	.cfi_endproc
.LFE11287:
	.size	_ZNK9__gnu_cxx17__normal_iteratorIPcNSt7__cxx1112basic_stringIcSt11char_traitsIcESaIcEEEEdeEv, .-_ZNK9__gnu_cxx17__normal_iteratorIPcNSt7__cxx1112basic_stringIcSt11char_traitsIcESaIcEEEEdeEv
	.section	.text._ZSt4moveIRcEONSt16remove_referenceIT_E4typeEOS2_,"axG",@progbits,_ZSt4moveIRcEONSt16remove_referenceIT_E4typeEOS2_,comdat
	.weak	_ZSt4moveIRcEONSt16remove_referenceIT_E4typeEOS2_
	.type	_ZSt4moveIRcEONSt16remove_referenceIT_E4typeEOS2_, @function
_ZSt4moveIRcEONSt16remove_referenceIT_E4typeEOS2_:
.LFB11289:
	.cfi_startproc
	endbr64
	push	rbp
	.cfi_def_cfa_offset 16
	.cfi_offset 6, -16
	mov	rbp, rsp
	.cfi_def_cfa_register 6
	mov	QWORD PTR -8[rbp], rdi
	mov	rax, QWORD PTR -8[rbp]
	pop	rbp
	.cfi_def_cfa 7, 8
	ret
	.cfi_endproc
.LFE11289:
	.size	_ZSt4moveIRcEONSt16remove_referenceIT_E4typeEOS2_, .-_ZSt4moveIRcEONSt16remove_referenceIT_E4typeEOS2_
	.section	.text._ZSt4swapIcENSt9enable_ifIXsrSt6__and_IJSt6__not_ISt15__is_tuple_likeIT_EESt21is_move_constructibleIS4_ESt18is_move_assignableIS4_EEE5valueEvE4typeERS4_SE_,"axG",@progbits,_ZSt4swapIcENSt9enable_ifIXsrSt6__and_IJSt6__not_ISt15__is_tuple_likeIT_EESt21is_move_constructibleIS4_ESt18is_move_assignableIS4_EEE5valueEvE4typeERS4_SE_,comdat
	.weak	_ZSt4swapIcENSt9enable_ifIXsrSt6__and_IJSt6__not_ISt15__is_tuple_likeIT_EESt21is_move_constructibleIS4_ESt18is_move_assignableIS4_EEE5valueEvE4typeERS4_SE_
	.type	_ZSt4swapIcENSt9enable_ifIXsrSt6__and_IJSt6__not_ISt15__is_tuple_likeIT_EESt21is_move_constructibleIS4_ESt18is_move_assignableIS4_EEE5valueEvE4typeERS4_SE_, @function
_ZSt4swapIcENSt9enable_ifIXsrSt6__and_IJSt6__not_ISt15__is_tuple_likeIT_EESt21is_move_constructibleIS4_ESt18is_move_assignableIS4_EEE5valueEvE4typeERS4_SE_:
.LFB11288:
	.cfi_startproc
	endbr64
	push	rbp
	.cfi_def_cfa_offset 16
	.cfi_offset 6, -16
	mov	rbp, rsp
	.cfi_def_cfa_register 6
	sub	rsp, 32
	mov	QWORD PTR -24[rbp], rdi
	mov	QWORD PTR -32[rbp], rsi
	mov	rax, QWORD PTR fs:40
	mov	QWORD PTR -8[rbp], rax
	xor	eax, eax
	mov	rax, QWORD PTR -24[rbp]
	mov	rdi, rax
	call	_ZSt4moveIRcEONSt16remove_referenceIT_E4typeEOS2_
	movzx	eax, BYTE PTR [rax]
	mov	BYTE PTR -9[rbp], al
	mov	rax, QWORD PTR -32[rbp]
	mov	rdi, rax
	call	_ZSt4moveIRcEONSt16remove_referenceIT_E4typeEOS2_
	movzx	edx, BYTE PTR [rax]
	mov	rax, QWORD PTR -24[rbp]
	mov	BYTE PTR [rax], dl
	lea	rax, -9[rbp]
	mov	rdi, rax
	call	_ZSt4moveIRcEONSt16remove_referenceIT_E4typeEOS2_
	movzx	edx, BYTE PTR [rax]
	mov	rax, QWORD PTR -32[rbp]
	mov	BYTE PTR [rax], dl
	nop
	mov	rax, QWORD PTR -8[rbp]
	sub	rax, QWORD PTR fs:40
	je	.L321
	call	__stack_chk_fail@PLT
.L321:
	leave
	.cfi_def_cfa 7, 8
	ret
	.cfi_endproc
.LFE11288:
	.size	_ZSt4swapIcENSt9enable_ifIXsrSt6__and_IJSt6__not_ISt15__is_tuple_likeIT_EESt21is_move_constructibleIS4_ESt18is_move_assignableIS4_EEE5valueEvE4typeERS4_SE_, .-_ZSt4swapIcENSt9enable_ifIXsrSt6__and_IJSt6__not_ISt15__is_tuple_likeIT_EESt21is_move_constructibleIS4_ESt18is_move_assignableIS4_EEE5valueEvE4typeERS4_SE_
	.section	.text._ZNSt16allocator_traitsISaISt4pairIiiEEE8max_sizeERKS2_,"axG",@progbits,_ZNSt16allocator_traitsISaISt4pairIiiEEE8max_sizeERKS2_,comdat
	.weak	_ZNSt16allocator_traitsISaISt4pairIiiEEE8max_sizeERKS2_
	.type	_ZNSt16allocator_traitsISaISt4pairIiiEEE8max_sizeERKS2_, @function
_ZNSt16allocator_traitsISaISt4pairIiiEEE8max_sizeERKS2_:
.LFB11290:
	.cfi_startproc
	endbr64
	push	rbp
	.cfi_def_cfa_offset 16
	.cfi_offset 6, -16
	mov	rbp, rsp
	.cfi_def_cfa_register 6
	sub	rsp, 16
	mov	QWORD PTR -8[rbp], rdi
	mov	rax, QWORD PTR -8[rbp]
	mov	rdi, rax
	call	_ZNK9__gnu_cxx13new_allocatorISt4pairIiiEE8max_sizeEv
	leave
	.cfi_def_cfa 7, 8
	ret
	.cfi_endproc
.LFE11290:
	.size	_ZNSt16allocator_traitsISaISt4pairIiiEEE8max_sizeERKS2_, .-_ZNSt16allocator_traitsISaISt4pairIiiEEE8max_sizeERKS2_
	.section	.text._ZN9__gnu_cxx13new_allocatorISt4pairIiiEEC2ERKS3_,"axG",@progbits,_ZN9__gnu_cxx13new_allocatorISt4pairIiiEEC5ERKS3_,comdat
	.align 2
	.weak	_ZN9__gnu_cxx13new_allocatorISt4pairIiiEEC2ERKS3_
	.type	_ZN9__gnu_cxx13new_allocatorISt4pairIiiEEC2ERKS3_, @function
_ZN9__gnu_cxx13new_allocatorISt4pairIiiEEC2ERKS3_:
.LFB11292:
	.cfi_startproc
	endbr64
	push	rbp
	.cfi_def_cfa_offset 16
	.cfi_offset 6, -16
	mov	rbp, rsp
	.cfi_def_cfa_register 6
	mov	QWORD PTR -8[rbp], rdi
	mov	QWORD PTR -16[rbp], rsi
	nop
	pop	rbp
	.cfi_def_cfa 7, 8
	ret
	.cfi_endproc
.LFE11292:
	.size	_ZN9__gnu_cxx13new_allocatorISt4pairIiiEEC2ERKS3_, .-_ZN9__gnu_cxx13new_allocatorISt4pairIiiEEC2ERKS3_
	.weak	_ZN9__gnu_cxx13new_allocatorISt4pairIiiEEC1ERKS3_
	.set	_ZN9__gnu_cxx13new_allocatorISt4pairIiiEEC1ERKS3_,_ZN9__gnu_cxx13new_allocatorISt4pairIiiEEC2ERKS3_
	.section	.text._ZNSt12_Vector_baseISt4pairIiiESaIS1_EE17_Vector_impl_dataC2Ev,"axG",@progbits,_ZNSt12_Vector_baseISt4pairIiiESaIS1_EE17_Vector_impl_dataC5Ev,comdat
	.align 2
	.weak	_ZNSt12_Vector_baseISt4pairIiiESaIS1_EE17_Vector_impl_dataC2Ev
	.type	_ZNSt12_Vector_baseISt4pairIiiESaIS1_EE17_Vector_impl_dataC2Ev, @function
_ZNSt12_Vector_baseISt4pairIiiESaIS1_EE17_Vector_impl_dataC2Ev:
.LFB11295:
	.cfi_startproc
	endbr64
	push	rbp
	.cfi_def_cfa_offset 16
	.cfi_offset 6, -16
	mov	rbp, rsp
	.cfi_def_cfa_register 6
	mov	QWORD PTR -8[rbp], rdi
	mov	rax, QWORD PTR -8[rbp]
	mov	QWORD PTR [rax], 0
	mov	rax, QWORD PTR -8[rbp]
	mov	QWORD PTR 8[rax], 0
	mov	rax, QWORD PTR -8[rbp]
	mov	QWORD PTR 16[rax], 0
	nop
	pop	rbp
	.cfi_def_cfa 7, 8
	ret
	.cfi_endproc
.LFE11295:
	.size	_ZNSt12_Vector_baseISt4pairIiiESaIS1_EE17_Vector_impl_dataC2Ev, .-_ZNSt12_Vector_baseISt4pairIiiESaIS1_EE17_Vector_impl_dataC2Ev
	.weak	_ZNSt12_Vector_baseISt4pairIiiESaIS1_EE17_Vector_impl_dataC1Ev
	.set	_ZNSt12_Vector_baseISt4pairIiiESaIS1_EE17_Vector_impl_dataC1Ev,_ZNSt12_Vector_baseISt4pairIiiESaIS1_EE17_Vector_impl_dataC2Ev
	.section	.text._ZNSt12_Vector_baseISt4pairIiiESaIS1_EE11_M_allocateEm,"axG",@progbits,_ZNSt12_Vector_baseISt4pairIiiESaIS1_EE11_M_allocateEm,comdat
	.align 2
	.weak	_ZNSt12_Vector_baseISt4pairIiiESaIS1_EE11_M_allocateEm
	.type	_ZNSt12_Vector_baseISt4pairIiiESaIS1_EE11_M_allocateEm, @function
_ZNSt12_Vector_baseISt4pairIiiESaIS1_EE11_M_allocateEm:
.LFB11297:
	.cfi_startproc
	endbr64
	push	rbp
	.cfi_def_cfa_offset 16
	.cfi_offset 6, -16
	mov	rbp, rsp
	.cfi_def_cfa_register 6
	sub	rsp, 16
	mov	QWORD PTR -8[rbp], rdi
	mov	QWORD PTR -16[rbp], rsi
	cmp	QWORD PTR -16[rbp], 0
	je	.L327
	mov	rax, QWORD PTR -8[rbp]
	mov	rdx, QWORD PTR -16[rbp]
	mov	rsi, rdx
	mov	rdi, rax
	call	_ZNSt16allocator_traitsISaISt4pairIiiEEE8allocateERS2_m
	jmp	.L329
.L327:
	mov	eax, 0
.L329:
	leave
	.cfi_def_cfa 7, 8
	ret
	.cfi_endproc
.LFE11297:
	.size	_ZNSt12_Vector_baseISt4pairIiiESaIS1_EE11_M_allocateEm, .-_ZNSt12_Vector_baseISt4pairIiiESaIS1_EE11_M_allocateEm
	.section	.text._ZNSt16allocator_traitsISaISt4pairIiiEEE10deallocateERS2_PS1_m,"axG",@progbits,_ZNSt16allocator_traitsISaISt4pairIiiEEE10deallocateERS2_PS1_m,comdat
	.weak	_ZNSt16allocator_traitsISaISt4pairIiiEEE10deallocateERS2_PS1_m
	.type	_ZNSt16allocator_traitsISaISt4pairIiiEEE10deallocateERS2_PS1_m, @function
_ZNSt16allocator_traitsISaISt4pairIiiEEE10deallocateERS2_PS1_m:
.LFB11298:
	.cfi_startproc
	endbr64
	push	rbp
	.cfi_def_cfa_offset 16
	.cfi_offset 6, -16
	mov	rbp, rsp
	.cfi_def_cfa_register 6
	sub	rsp, 32
	mov	QWORD PTR -8[rbp], rdi
	mov	QWORD PTR -16[rbp], rsi
	mov	QWORD PTR -24[rbp], rdx
	mov	rdx, QWORD PTR -24[rbp]
	mov	rcx, QWORD PTR -16[rbp]
	mov	rax, QWORD PTR -8[rbp]
	mov	rsi, rcx
	mov	rdi, rax
	call	_ZN9__gnu_cxx13new_allocatorISt4pairIiiEE10deallocateEPS2_m
	nop
	leave
	.cfi_def_cfa 7, 8
	ret
	.cfi_endproc
.LFE11298:
	.size	_ZNSt16allocator_traitsISaISt4pairIiiEEE10deallocateERS2_PS1_m, .-_ZNSt16allocator_traitsISaISt4pairIiiEEE10deallocateERS2_PS1_m
	.section	.text._ZSt25__uninitialized_default_nIPSt4pairIiiEmET_S3_T0_,"axG",@progbits,_ZSt25__uninitialized_default_nIPSt4pairIiiEmET_S3_T0_,comdat
	.weak	_ZSt25__uninitialized_default_nIPSt4pairIiiEmET_S3_T0_
	.type	_ZSt25__uninitialized_default_nIPSt4pairIiiEmET_S3_T0_, @function
_ZSt25__uninitialized_default_nIPSt4pairIiiEmET_S3_T0_:
.LFB11299:
	.cfi_startproc
	endbr64
	push	rbp
	.cfi_def_cfa_offset 16
	.cfi_offset 6, -16
	mov	rbp, rsp
	.cfi_def_cfa_register 6
	sub	rsp, 32
	mov	QWORD PTR -24[rbp], rdi
	mov	QWORD PTR -32[rbp], rsi
	mov	BYTE PTR -1[rbp], 1
	mov	rdx, QWORD PTR -32[rbp]
	mov	rax, QWORD PTR -24[rbp]
	mov	rsi, rdx
	mov	rdi, rax
	call	_ZNSt27__uninitialized_default_n_1ILb0EE18__uninit_default_nIPSt4pairIiiEmEET_S5_T0_
	leave
	.cfi_def_cfa 7, 8
	ret
	.cfi_endproc
.LFE11299:
	.size	_ZSt25__uninitialized_default_nIPSt4pairIiiEmET_S3_T0_, .-_ZSt25__uninitialized_default_nIPSt4pairIiiEmET_S3_T0_
	.section	.text._ZNSt12_Destroy_auxILb1EE9__destroyIPSt4pairIiiEEEvT_S5_,"axG",@progbits,_ZNSt12_Destroy_auxILb1EE9__destroyIPSt4pairIiiEEEvT_S5_,comdat
	.weak	_ZNSt12_Destroy_auxILb1EE9__destroyIPSt4pairIiiEEEvT_S5_
	.type	_ZNSt12_Destroy_auxILb1EE9__destroyIPSt4pairIiiEEEvT_S5_, @function
_ZNSt12_Destroy_auxILb1EE9__destroyIPSt4pairIiiEEEvT_S5_:
.LFB11300:
	.cfi_startproc
	endbr64
	push	rbp
	.cfi_def_cfa_offset 16
	.cfi_offset 6, -16
	mov	rbp, rsp
	.cfi_def_cfa_register 6
	mov	QWORD PTR -8[rbp], rdi
	mov	QWORD PTR -16[rbp], rsi
	nop
	pop	rbp
	.cfi_def_cfa 7, 8
	ret
	.cfi_endproc
.LFE11300:
	.size	_ZNSt12_Destroy_auxILb1EE9__destroyIPSt4pairIiiEEEvT_S5_, .-_ZNSt12_Destroy_auxILb1EE9__destroyIPSt4pairIiiEEEvT_S5_
	.section	.text._ZNK9__gnu_cxx17__normal_iteratorIPSt4pairIiiESt6vectorIS2_SaIS2_EEE4baseEv,"axG",@progbits,_ZNK9__gnu_cxx17__normal_iteratorIPSt4pairIiiESt6vectorIS2_SaIS2_EEE4baseEv,comdat
	.align 2
	.weak	_ZNK9__gnu_cxx17__normal_iteratorIPSt4pairIiiESt6vectorIS2_SaIS2_EEE4baseEv
	.type	_ZNK9__gnu_cxx17__normal_iteratorIPSt4pairIiiESt6vectorIS2_SaIS2_EEE4baseEv, @function
_ZNK9__gnu_cxx17__normal_iteratorIPSt4pairIiiESt6vectorIS2_SaIS2_EEE4baseEv:
.LFB11301:
	.cfi_startproc
	endbr64
	push	rbp
	.cfi_def_cfa_offset 16
	.cfi_offset 6, -16
	mov	rbp, rsp
	.cfi_def_cfa_register 6
	mov	QWORD PTR -8[rbp], rdi
	mov	rax, QWORD PTR -8[rbp]
	pop	rbp
	.cfi_def_cfa 7, 8
	ret
	.cfi_endproc
.LFE11301:
	.size	_ZNK9__gnu_cxx17__normal_iteratorIPSt4pairIiiESt6vectorIS2_SaIS2_EEE4baseEv, .-_ZNK9__gnu_cxx17__normal_iteratorIPSt4pairIiiESt6vectorIS2_SaIS2_EEE4baseEv
	.section	.text._ZSt14__partial_sortISt16reverse_iteratorIN9__gnu_cxx17__normal_iteratorIPSt4pairIiiESt6vectorIS4_SaIS4_EEEEENS1_5__ops15_Iter_less_iterEEvT_SD_SD_T0_,"axG",@progbits,_ZSt14__partial_sortISt16reverse_iteratorIN9__gnu_cxx17__normal_iteratorIPSt4pairIiiESt6vectorIS4_SaIS4_EEEEENS1_5__ops15_Iter_less_iterEEvT_SD_SD_T0_,comdat
	.weak	_ZSt14__partial_sortISt16reverse_iteratorIN9__gnu_cxx17__normal_iteratorIPSt4pairIiiESt6vectorIS4_SaIS4_EEEEENS1_5__ops15_Iter_less_iterEEvT_SD_SD_T0_
	.type	_ZSt14__partial_sortISt16reverse_iteratorIN9__gnu_cxx17__normal_iteratorIPSt4pairIiiESt6vectorIS4_SaIS4_EEEEENS1_5__ops15_Iter_less_iterEEvT_SD_SD_T0_, @function
_ZSt14__partial_sortISt16reverse_iteratorIN9__gnu_cxx17__normal_iteratorIPSt4pairIiiESt6vectorIS4_SaIS4_EEEEENS1_5__ops15_Iter_less_iterEEvT_SD_SD_T0_:
.LFB11302:
	.cfi_startproc
	endbr64
	push	rbp
	.cfi_def_cfa_offset 16
	.cfi_offset 6, -16
	mov	rbp, rsp
	.cfi_def_cfa_register 6
	sub	rsp, 64
	mov	QWORD PTR -40[rbp], rdi
	mov	QWORD PTR -48[rbp], rsi
	mov	QWORD PTR -56[rbp], rdx
	mov	rax, QWORD PTR fs:40
	mov	QWORD PTR -8[rbp], rax
	xor	eax, eax
	mov	rdx, QWORD PTR -56[rbp]
	lea	rax, -16[rbp]
	mov	rsi, rdx
	mov	rdi, rax
	call	_ZNSt16reverse_iteratorIN9__gnu_cxx17__normal_iteratorIPSt4pairIiiESt6vectorIS3_SaIS3_EEEEEC1ERKS9_
	mov	rdx, QWORD PTR -48[rbp]
	lea	rax, -24[rbp]
	mov	rsi, rdx
	mov	rdi, rax
	call	_ZNSt16reverse_iteratorIN9__gnu_cxx17__normal_iteratorIPSt4pairIiiESt6vectorIS3_SaIS3_EEEEEC1ERKS9_
	mov	rdx, QWORD PTR -40[rbp]
	lea	rax, -32[rbp]
	mov	rsi, rdx
	mov	rdi, rax
	call	_ZNSt16reverse_iteratorIN9__gnu_cxx17__normal_iteratorIPSt4pairIiiESt6vectorIS3_SaIS3_EEEEEC1ERKS9_
	lea	rdx, -16[rbp]
	lea	rcx, -24[rbp]
	lea	rax, -32[rbp]
	mov	rsi, rcx
	mov	rdi, rax
	call	_ZSt13__heap_selectISt16reverse_iteratorIN9__gnu_cxx17__normal_iteratorIPSt4pairIiiESt6vectorIS4_SaIS4_EEEEENS1_5__ops15_Iter_less_iterEEvT_SD_SD_T0_
	mov	rdx, QWORD PTR -48[rbp]
	lea	rax, -16[rbp]
	mov	rsi, rdx
	mov	rdi, rax
	call	_ZNSt16reverse_iteratorIN9__gnu_cxx17__normal_iteratorIPSt4pairIiiESt6vectorIS3_SaIS3_EEEEEC1ERKS9_
	mov	rdx, QWORD PTR -40[rbp]
	lea	rax, -24[rbp]
	mov	rsi, rdx
	mov	rdi, rax
	call	_ZNSt16reverse_iteratorIN9__gnu_cxx17__normal_iteratorIPSt4pairIiiESt6vectorIS3_SaIS3_EEEEEC1ERKS9_
	lea	rdx, -57[rbp]
	lea	rcx, -16[rbp]
	lea	rax, -24[rbp]
	mov	rsi, rcx
	mov	rdi, rax
	call	_ZSt11__sort_heapISt16reverse_iteratorIN9__gnu_cxx17__normal_iteratorIPSt4pairIiiESt6vectorIS4_SaIS4_EEEEENS1_5__ops15_Iter_less_iterEEvT_SD_RT0_
	nop
	mov	rax, QWORD PTR -8[rbp]
	sub	rax, QWORD PTR fs:40
	je	.L337
	call	__stack_chk_fail@PLT
.L337:
	leave
	.cfi_def_cfa 7, 8
	ret
	.cfi_endproc
.LFE11302:
	.size	_ZSt14__partial_sortISt16reverse_iteratorIN9__gnu_cxx17__normal_iteratorIPSt4pairIiiESt6vectorIS4_SaIS4_EEEEENS1_5__ops15_Iter_less_iterEEvT_SD_SD_T0_, .-_ZSt14__partial_sortISt16reverse_iteratorIN9__gnu_cxx17__normal_iteratorIPSt4pairIiiESt6vectorIS4_SaIS4_EEEEENS1_5__ops15_Iter_less_iterEEvT_SD_SD_T0_
	.section	.text._ZNKSt16reverse_iteratorIN9__gnu_cxx17__normal_iteratorIPSt4pairIiiESt6vectorIS3_SaIS3_EEEEEplEl,"axG",@progbits,_ZNKSt16reverse_iteratorIN9__gnu_cxx17__normal_iteratorIPSt4pairIiiESt6vectorIS3_SaIS3_EEEEEplEl,comdat
	.align 2
	.weak	_ZNKSt16reverse_iteratorIN9__gnu_cxx17__normal_iteratorIPSt4pairIiiESt6vectorIS3_SaIS3_EEEEEplEl
	.type	_ZNKSt16reverse_iteratorIN9__gnu_cxx17__normal_iteratorIPSt4pairIiiESt6vectorIS3_SaIS3_EEEEEplEl, @function
_ZNKSt16reverse_iteratorIN9__gnu_cxx17__normal_iteratorIPSt4pairIiiESt6vectorIS3_SaIS3_EEEEEplEl:
.LFB11304:
	.cfi_startproc
	endbr64
	push	rbp
	.cfi_def_cfa_offset 16
	.cfi_offset 6, -16
	mov	rbp, rsp
	.cfi_def_cfa_register 6
	sub	rsp, 32
	mov	QWORD PTR -8[rbp], rdi
	mov	QWORD PTR -16[rbp], rsi
	mov	QWORD PTR -24[rbp], rdx
	mov	rax, QWORD PTR -16[rbp]
	mov	rdx, QWORD PTR -24[rbp]
	mov	rsi, rdx
	mov	rdi, rax
	call	_ZNK9__gnu_cxx17__normal_iteratorIPSt4pairIiiESt6vectorIS2_SaIS2_EEEmiEl
	mov	rdx, rax
	mov	rax, QWORD PTR -8[rbp]
	mov	rsi, rdx
	mov	rdi, rax
	call	_ZNSt16reverse_iteratorIN9__gnu_cxx17__normal_iteratorIPSt4pairIiiESt6vectorIS3_SaIS3_EEEEEC1ES8_
	mov	rax, QWORD PTR -8[rbp]
	leave
	.cfi_def_cfa 7, 8
	ret
	.cfi_endproc
.LFE11304:
	.size	_ZNKSt16reverse_iteratorIN9__gnu_cxx17__normal_iteratorIPSt4pairIiiESt6vectorIS3_SaIS3_EEEEEplEl, .-_ZNKSt16reverse_iteratorIN9__gnu_cxx17__normal_iteratorIPSt4pairIiiESt6vectorIS3_SaIS3_EEEEEplEl
	.section	.text._ZSt27__unguarded_partition_pivotISt16reverse_iteratorIN9__gnu_cxx17__normal_iteratorIPSt4pairIiiESt6vectorIS4_SaIS4_EEEEENS1_5__ops15_Iter_less_iterEET_SD_SD_T0_,"axG",@progbits,_ZSt27__unguarded_partition_pivotISt16reverse_iteratorIN9__gnu_cxx17__normal_iteratorIPSt4pairIiiESt6vectorIS4_SaIS4_EEEEENS1_5__ops15_Iter_less_iterEET_SD_SD_T0_,comdat
	.weak	_ZSt27__unguarded_partition_pivotISt16reverse_iteratorIN9__gnu_cxx17__normal_iteratorIPSt4pairIiiESt6vectorIS4_SaIS4_EEEEENS1_5__ops15_Iter_less_iterEET_SD_SD_T0_
	.type	_ZSt27__unguarded_partition_pivotISt16reverse_iteratorIN9__gnu_cxx17__normal_iteratorIPSt4pairIiiESt6vectorIS4_SaIS4_EEEEENS1_5__ops15_Iter_less_iterEET_SD_SD_T0_, @function
_ZSt27__unguarded_partition_pivotISt16reverse_iteratorIN9__gnu_cxx17__normal_iteratorIPSt4pairIiiESt6vectorIS4_SaIS4_EEEEENS1_5__ops15_Iter_less_iterEET_SD_SD_T0_:
.LFB11303:
	.cfi_startproc
	endbr64
	push	rbp
	.cfi_def_cfa_offset 16
	.cfi_offset 6, -16
	mov	rbp, rsp
	.cfi_def_cfa_register 6
	sub	rsp, 80
	mov	QWORD PTR -56[rbp], rdi
	mov	QWORD PTR -64[rbp], rsi
	mov	QWORD PTR -72[rbp], rdx
	mov	rax, QWORD PTR fs:40
	mov	QWORD PTR -8[rbp], rax
	xor	eax, eax
	mov	rdx, QWORD PTR -64[rbp]
	mov	rax, QWORD PTR -72[rbp]
	mov	rsi, rdx
	mov	rdi, rax
	call	_ZStmiIN9__gnu_cxx17__normal_iteratorIPSt4pairIiiESt6vectorIS3_SaIS3_EEEES8_EDTmicldtfp0_4baseEcldtfp_4baseEERKSt16reverse_iteratorIT_ERKSA_IT0_E
	mov	rdx, rax
	shr	rdx, 63
	add	rax, rdx
	sar	rax
	mov	rdx, rax
	lea	rax, -48[rbp]
	mov	rcx, QWORD PTR -64[rbp]
	mov	rsi, rcx
	mov	rdi, rax
	call	_ZNKSt16reverse_iteratorIN9__gnu_cxx17__normal_iteratorIPSt4pairIiiESt6vectorIS3_SaIS3_EEEEEplEl
	lea	rax, -32[rbp]
	mov	rcx, QWORD PTR -72[rbp]
	mov	edx, 1
	mov	rsi, rcx
	mov	rdi, rax
	call	_ZNKSt16reverse_iteratorIN9__gnu_cxx17__normal_iteratorIPSt4pairIiiESt6vectorIS3_SaIS3_EEEEEmiEl
	lea	rdx, -48[rbp]
	lea	rax, -16[rbp]
	mov	rsi, rdx
	mov	rdi, rax
	call	_ZNSt16reverse_iteratorIN9__gnu_cxx17__normal_iteratorIPSt4pairIiiESt6vectorIS3_SaIS3_EEEEEC1ERKS9_
	lea	rax, -40[rbp]
	mov	rcx, QWORD PTR -64[rbp]
	mov	edx, 1
	mov	rsi, rcx
	mov	rdi, rax
	call	_ZNKSt16reverse_iteratorIN9__gnu_cxx17__normal_iteratorIPSt4pairIiiESt6vectorIS3_SaIS3_EEEEEplEl
	mov	rdx, QWORD PTR -64[rbp]
	lea	rax, -24[rbp]
	mov	rsi, rdx
	mov	rdi, rax
	call	_ZNSt16reverse_iteratorIN9__gnu_cxx17__normal_iteratorIPSt4pairIiiESt6vectorIS3_SaIS3_EEEEEC1ERKS9_
	lea	rcx, -32[rbp]
	lea	rdx, -16[rbp]
	lea	rsi, -40[rbp]
	lea	rax, -24[rbp]
	mov	rdi, rax
	call	_ZSt22__move_median_to_firstISt16reverse_iteratorIN9__gnu_cxx17__normal_iteratorIPSt4pairIiiESt6vectorIS4_SaIS4_EEEEENS1_5__ops15_Iter_less_iterEEvT_SD_SD_SD_T0_
	mov	rdx, QWORD PTR -64[rbp]
	lea	rax, -16[rbp]
	mov	rsi, rdx
	mov	rdi, rax
	call	_ZNSt16reverse_iteratorIN9__gnu_cxx17__normal_iteratorIPSt4pairIiiESt6vectorIS3_SaIS3_EEEEEC1ERKS9_
	mov	rdx, QWORD PTR -72[rbp]
	lea	rax, -24[rbp]
	mov	rsi, rdx
	mov	rdi, rax
	call	_ZNSt16reverse_iteratorIN9__gnu_cxx17__normal_iteratorIPSt4pairIiiESt6vectorIS3_SaIS3_EEEEEC1ERKS9_
	lea	rax, -32[rbp]
	mov	rcx, QWORD PTR -64[rbp]
	mov	edx, 1
	mov	rsi, rcx
	mov	rdi, rax
	call	_ZNKSt16reverse_iteratorIN9__gnu_cxx17__normal_iteratorIPSt4pairIiiESt6vectorIS3_SaIS3_EEEEEplEl
	mov	rax, QWORD PTR -56[rbp]
	lea	rcx, -16[rbp]
	lea	rdx, -24[rbp]
	lea	rsi, -32[rbp]
	mov	rdi, rax
	call	_ZSt21__unguarded_partitionISt16reverse_iteratorIN9__gnu_cxx17__normal_iteratorIPSt4pairIiiESt6vectorIS4_SaIS4_EEEEENS1_5__ops15_Iter_less_iterEET_SD_SD_SD_T0_
	mov	rax, QWORD PTR -8[rbp]
	sub	rax, QWORD PTR fs:40
	je	.L342
	call	__stack_chk_fail@PLT
.L342:
	mov	rax, QWORD PTR -56[rbp]
	leave
	.cfi_def_cfa 7, 8
	ret
	.cfi_endproc
.LFE11303:
	.size	_ZSt27__unguarded_partition_pivotISt16reverse_iteratorIN9__gnu_cxx17__normal_iteratorIPSt4pairIiiESt6vectorIS4_SaIS4_EEEEENS1_5__ops15_Iter_less_iterEET_SD_SD_T0_, .-_ZSt27__unguarded_partition_pivotISt16reverse_iteratorIN9__gnu_cxx17__normal_iteratorIPSt4pairIiiESt6vectorIS4_SaIS4_EEEEENS1_5__ops15_Iter_less_iterEET_SD_SD_T0_
	.section	.text._ZNSt16reverse_iteratorIN9__gnu_cxx17__normal_iteratorIPSt4pairIiiESt6vectorIS3_SaIS3_EEEEEppEv,"axG",@progbits,_ZNSt16reverse_iteratorIN9__gnu_cxx17__normal_iteratorIPSt4pairIiiESt6vectorIS3_SaIS3_EEEEEppEv,comdat
	.align 2
	.weak	_ZNSt16reverse_iteratorIN9__gnu_cxx17__normal_iteratorIPSt4pairIiiESt6vectorIS3_SaIS3_EEEEEppEv
	.type	_ZNSt16reverse_iteratorIN9__gnu_cxx17__normal_iteratorIPSt4pairIiiESt6vectorIS3_SaIS3_EEEEEppEv, @function
_ZNSt16reverse_iteratorIN9__gnu_cxx17__normal_iteratorIPSt4pairIiiESt6vectorIS3_SaIS3_EEEEEppEv:
.LFB11306:
	.cfi_startproc
	endbr64
	push	rbp
	.cfi_def_cfa_offset 16
	.cfi_offset 6, -16
	mov	rbp, rsp
	.cfi_def_cfa_register 6
	sub	rsp, 16
	mov	QWORD PTR -8[rbp], rdi
	mov	rax, QWORD PTR -8[rbp]
	mov	rdi, rax
	call	_ZN9__gnu_cxx17__normal_iteratorIPSt4pairIiiESt6vectorIS2_SaIS2_EEEmmEv
	mov	rax, QWORD PTR -8[rbp]
	leave
	.cfi_def_cfa 7, 8
	ret
	.cfi_endproc
.LFE11306:
	.size	_ZNSt16reverse_iteratorIN9__gnu_cxx17__normal_iteratorIPSt4pairIiiESt6vectorIS3_SaIS3_EEEEEppEv, .-_ZNSt16reverse_iteratorIN9__gnu_cxx17__normal_iteratorIPSt4pairIiiESt6vectorIS3_SaIS3_EEEEEppEv
	.section	.text._ZNK9__gnu_cxx5__ops15_Iter_less_iterclISt16reverse_iteratorINS_17__normal_iteratorIPSt4pairIiiESt6vectorIS6_SaIS6_EEEEESC_EEbT_T0_,"axG",@progbits,_ZNK9__gnu_cxx5__ops15_Iter_less_iterclISt16reverse_iteratorINS_17__normal_iteratorIPSt4pairIiiESt6vectorIS6_SaIS6_EEEEESC_EEbT_T0_,comdat
	.align 2
	.weak	_ZNK9__gnu_cxx5__ops15_Iter_less_iterclISt16reverse_iteratorINS_17__normal_iteratorIPSt4pairIiiESt6vectorIS6_SaIS6_EEEEESC_EEbT_T0_
	.type	_ZNK9__gnu_cxx5__ops15_Iter_less_iterclISt16reverse_iteratorINS_17__normal_iteratorIPSt4pairIiiESt6vectorIS6_SaIS6_EEEEESC_EEbT_T0_, @function
_ZNK9__gnu_cxx5__ops15_Iter_less_iterclISt16reverse_iteratorINS_17__normal_iteratorIPSt4pairIiiESt6vectorIS6_SaIS6_EEEEESC_EEbT_T0_:
.LFB11307:
	.cfi_startproc
	endbr64
	push	rbp
	.cfi_def_cfa_offset 16
	.cfi_offset 6, -16
	mov	rbp, rsp
	.cfi_def_cfa_register 6
	push	rbx
	sub	rsp, 40
	.cfi_offset 3, -24
	mov	QWORD PTR -24[rbp], rdi
	mov	QWORD PTR -32[rbp], rsi
	mov	QWORD PTR -40[rbp], rdx
	mov	rax, QWORD PTR -40[rbp]
	mov	rdi, rax
	call	_ZNKSt16reverse_iteratorIN9__gnu_cxx17__normal_iteratorIPSt4pairIiiESt6vectorIS3_SaIS3_EEEEEdeEv
	mov	rbx, rax
	mov	rax, QWORD PTR -32[rbp]
	mov	rdi, rax
	call	_ZNKSt16reverse_iteratorIN9__gnu_cxx17__normal_iteratorIPSt4pairIiiESt6vectorIS3_SaIS3_EEEEEdeEv
	mov	rsi, rbx
	mov	rdi, rax
	call	_ZStltIiiEbRKSt4pairIT_T0_ES5_
	mov	rbx, QWORD PTR -8[rbp]
	leave
	.cfi_def_cfa 7, 8
	ret
	.cfi_endproc
.LFE11307:
	.size	_ZNK9__gnu_cxx5__ops15_Iter_less_iterclISt16reverse_iteratorINS_17__normal_iteratorIPSt4pairIiiESt6vectorIS6_SaIS6_EEEEESC_EEbT_T0_, .-_ZNK9__gnu_cxx5__ops15_Iter_less_iterclISt16reverse_iteratorINS_17__normal_iteratorIPSt4pairIiiESt6vectorIS6_SaIS6_EEEEESC_EEbT_T0_
	.section	.text._ZSt4moveIRSt4pairIiiEEONSt16remove_referenceIT_E4typeEOS4_,"axG",@progbits,_ZSt4moveIRSt4pairIiiEEONSt16remove_referenceIT_E4typeEOS4_,comdat
	.weak	_ZSt4moveIRSt4pairIiiEEONSt16remove_referenceIT_E4typeEOS4_
	.type	_ZSt4moveIRSt4pairIiiEEONSt16remove_referenceIT_E4typeEOS4_, @function
_ZSt4moveIRSt4pairIiiEEONSt16remove_referenceIT_E4typeEOS4_:
.LFB11308:
	.cfi_startproc
	endbr64
	push	rbp
	.cfi_def_cfa_offset 16
	.cfi_offset 6, -16
	mov	rbp, rsp
	.cfi_def_cfa_register 6
	mov	QWORD PTR -8[rbp], rdi
	mov	rax, QWORD PTR -8[rbp]
	pop	rbp
	.cfi_def_cfa 7, 8
	ret
	.cfi_endproc
.LFE11308:
	.size	_ZSt4moveIRSt4pairIiiEEONSt16remove_referenceIT_E4typeEOS4_, .-_ZSt4moveIRSt4pairIiiEEONSt16remove_referenceIT_E4typeEOS4_
	.section	.text._ZNKSt16reverse_iteratorIN9__gnu_cxx17__normal_iteratorIPSt4pairIiiESt6vectorIS3_SaIS3_EEEEEdeEv,"axG",@progbits,_ZNKSt16reverse_iteratorIN9__gnu_cxx17__normal_iteratorIPSt4pairIiiESt6vectorIS3_SaIS3_EEEEEdeEv,comdat
	.align 2
	.weak	_ZNKSt16reverse_iteratorIN9__gnu_cxx17__normal_iteratorIPSt4pairIiiESt6vectorIS3_SaIS3_EEEEEdeEv
	.type	_ZNKSt16reverse_iteratorIN9__gnu_cxx17__normal_iteratorIPSt4pairIiiESt6vectorIS3_SaIS3_EEEEEdeEv, @function
_ZNKSt16reverse_iteratorIN9__gnu_cxx17__normal_iteratorIPSt4pairIiiESt6vectorIS3_SaIS3_EEEEEdeEv:
.LFB11309:
	.cfi_startproc
	endbr64
	push	rbp
	.cfi_def_cfa_offset 16
	.cfi_offset 6, -16
	mov	rbp, rsp
	.cfi_def_cfa_register 6
	sub	rsp, 32
	mov	QWORD PTR -24[rbp], rdi
	mov	rax, QWORD PTR fs:40
	mov	QWORD PTR -8[rbp], rax
	xor	eax, eax
	mov	rax, QWORD PTR -24[rbp]
	mov	rax, QWORD PTR [rax]
	mov	QWORD PTR -16[rbp], rax
	lea	rax, -16[rbp]
	mov	rdi, rax
	call	_ZN9__gnu_cxx17__normal_iteratorIPSt4pairIiiESt6vectorIS2_SaIS2_EEEmmEv
	mov	rdi, rax
	call	_ZNK9__gnu_cxx17__normal_iteratorIPSt4pairIiiESt6vectorIS2_SaIS2_EEEdeEv
	mov	rdx, QWORD PTR -8[rbp]
	sub	rdx, QWORD PTR fs:40
	je	.L351
	call	__stack_chk_fail@PLT
.L351:
	leave
	.cfi_def_cfa 7, 8
	ret
	.cfi_endproc
.LFE11309:
	.size	_ZNKSt16reverse_iteratorIN9__gnu_cxx17__normal_iteratorIPSt4pairIiiESt6vectorIS3_SaIS3_EEEEEdeEv, .-_ZNKSt16reverse_iteratorIN9__gnu_cxx17__normal_iteratorIPSt4pairIiiESt6vectorIS3_SaIS3_EEEEEdeEv
	.section	.text._ZSt16__insertion_sortISt16reverse_iteratorIN9__gnu_cxx17__normal_iteratorIPSt4pairIiiESt6vectorIS4_SaIS4_EEEEENS1_5__ops15_Iter_less_iterEEvT_SD_T0_,"axG",@progbits,_ZSt16__insertion_sortISt16reverse_iteratorIN9__gnu_cxx17__normal_iteratorIPSt4pairIiiESt6vectorIS4_SaIS4_EEEEENS1_5__ops15_Iter_less_iterEEvT_SD_T0_,comdat
	.weak	_ZSt16__insertion_sortISt16reverse_iteratorIN9__gnu_cxx17__normal_iteratorIPSt4pairIiiESt6vectorIS4_SaIS4_EEEEENS1_5__ops15_Iter_less_iterEEvT_SD_T0_
	.type	_ZSt16__insertion_sortISt16reverse_iteratorIN9__gnu_cxx17__normal_iteratorIPSt4pairIiiESt6vectorIS4_SaIS4_EEEEENS1_5__ops15_Iter_less_iterEEvT_SD_T0_, @function
_ZSt16__insertion_sortISt16reverse_iteratorIN9__gnu_cxx17__normal_iteratorIPSt4pairIiiESt6vectorIS4_SaIS4_EEEEENS1_5__ops15_Iter_less_iterEEvT_SD_T0_:
.LFB11305:
	.cfi_startproc
	endbr64
	push	rbp
	.cfi_def_cfa_offset 16
	.cfi_offset 6, -16
	mov	rbp, rsp
	.cfi_def_cfa_register 6
	push	rbx
	sub	rsp, 104
	.cfi_offset 3, -24
	mov	QWORD PTR -88[rbp], rdi
	mov	QWORD PTR -96[rbp], rsi
	mov	rax, QWORD PTR fs:40
	mov	QWORD PTR -24[rbp], rax
	xor	eax, eax
	mov	rdx, QWORD PTR -96[rbp]
	mov	rax, QWORD PTR -88[rbp]
	mov	rsi, rdx
	mov	rdi, rax
	call	_ZSteqIN9__gnu_cxx17__normal_iteratorIPSt4pairIiiESt6vectorIS3_SaIS3_EEEEEbRKSt16reverse_iteratorIT_ESD_
	test	al, al
	jne	.L360
	lea	rax, -72[rbp]
	mov	rcx, QWORD PTR -88[rbp]
	mov	edx, 1
	mov	rsi, rcx
	mov	rdi, rax
	call	_ZNKSt16reverse_iteratorIN9__gnu_cxx17__normal_iteratorIPSt4pairIiiESt6vectorIS3_SaIS3_EEEEEplEl
	jmp	.L355
.L358:
	mov	rdx, QWORD PTR -88[rbp]
	lea	rax, -32[rbp]
	mov	rsi, rdx
	mov	rdi, rax
	call	_ZNSt16reverse_iteratorIN9__gnu_cxx17__normal_iteratorIPSt4pairIiiESt6vectorIS3_SaIS3_EEEEEC1ERKS9_
	lea	rdx, -72[rbp]
	lea	rax, -40[rbp]
	mov	rsi, rdx
	mov	rdi, rax
	call	_ZNSt16reverse_iteratorIN9__gnu_cxx17__normal_iteratorIPSt4pairIiiESt6vectorIS3_SaIS3_EEEEEC1ERKS9_
	lea	rdx, -32[rbp]
	lea	rcx, -40[rbp]
	lea	rax, -97[rbp]
	mov	rsi, rcx
	mov	rdi, rax
	call	_ZNK9__gnu_cxx5__ops15_Iter_less_iterclISt16reverse_iteratorINS_17__normal_iteratorIPSt4pairIiiESt6vectorIS6_SaIS6_EEEEESC_EEbT_T0_
	test	al, al
	je	.L356
	lea	rax, -72[rbp]
	mov	rdi, rax
	call	_ZNKSt16reverse_iteratorIN9__gnu_cxx17__normal_iteratorIPSt4pairIiiESt6vectorIS3_SaIS3_EEEEEdeEv
	mov	rdi, rax
	call	_ZSt4moveIRSt4pairIiiEEONSt16remove_referenceIT_E4typeEOS4_
	mov	rax, QWORD PTR [rax]
	mov	QWORD PTR -32[rbp], rax
	lea	rax, -64[rbp]
	lea	rcx, -72[rbp]
	mov	edx, 1
	mov	rsi, rcx
	mov	rdi, rax
	call	_ZNKSt16reverse_iteratorIN9__gnu_cxx17__normal_iteratorIPSt4pairIiiESt6vectorIS3_SaIS3_EEEEEplEl
	lea	rdx, -72[rbp]
	lea	rax, -48[rbp]
	mov	rsi, rdx
	mov	rdi, rax
	call	_ZNSt16reverse_iteratorIN9__gnu_cxx17__normal_iteratorIPSt4pairIiiESt6vectorIS3_SaIS3_EEEEEC1ERKS9_
	mov	rdx, QWORD PTR -88[rbp]
	lea	rax, -56[rbp]
	mov	rsi, rdx
	mov	rdi, rax
	call	_ZNSt16reverse_iteratorIN9__gnu_cxx17__normal_iteratorIPSt4pairIiiESt6vectorIS3_SaIS3_EEEEEC1ERKS9_
	lea	rax, -40[rbp]
	lea	rcx, -64[rbp]
	lea	rdx, -48[rbp]
	lea	rsi, -56[rbp]
	mov	rdi, rax
	call	_ZSt13move_backwardISt16reverse_iteratorIN9__gnu_cxx17__normal_iteratorIPSt4pairIiiESt6vectorIS4_SaIS4_EEEEESA_ET0_T_SC_SB_
	lea	rax, -32[rbp]
	mov	rdi, rax
	call	_ZSt4moveIRSt4pairIiiEEONSt16remove_referenceIT_E4typeEOS4_
	mov	rbx, rax
	mov	rax, QWORD PTR -88[rbp]
	mov	rdi, rax
	call	_ZNKSt16reverse_iteratorIN9__gnu_cxx17__normal_iteratorIPSt4pairIiiESt6vectorIS3_SaIS3_EEEEEdeEv
	mov	rsi, rbx
	mov	rdi, rax
	call	_ZNSt4pairIiiEaSEOS0_
	jmp	.L357
.L356:
	call	_ZN9__gnu_cxx5__ops15__val_comp_iterENS0_15_Iter_less_iterE
	lea	rdx, -72[rbp]
	lea	rax, -32[rbp]
	mov	rsi, rdx
	mov	rdi, rax
	call	_ZNSt16reverse_iteratorIN9__gnu_cxx17__normal_iteratorIPSt4pairIiiESt6vectorIS3_SaIS3_EEEEEC1ERKS9_
	lea	rax, -32[rbp]
	mov	rdi, rax
	call	_ZSt25__unguarded_linear_insertISt16reverse_iteratorIN9__gnu_cxx17__normal_iteratorIPSt4pairIiiESt6vectorIS4_SaIS4_EEEEENS1_5__ops14_Val_less_iterEEvT_T0_
.L357:
	lea	rax, -72[rbp]
	mov	rdi, rax
	call	_ZNSt16reverse_iteratorIN9__gnu_cxx17__normal_iteratorIPSt4pairIiiESt6vectorIS3_SaIS3_EEEEEppEv
.L355:
	mov	rdx, QWORD PTR -96[rbp]
	lea	rax, -72[rbp]
	mov	rsi, rdx
	mov	rdi, rax
	call	_ZStneIN9__gnu_cxx17__normal_iteratorIPSt4pairIiiESt6vectorIS3_SaIS3_EEEEEbRKSt16reverse_iteratorIT_ESD_
	test	al, al
	jne	.L358
	jmp	.L352
.L360:
	nop
.L352:
	mov	rax, QWORD PTR -24[rbp]
	sub	rax, QWORD PTR fs:40
	je	.L359
	call	__stack_chk_fail@PLT
.L359:
	mov	rbx, QWORD PTR -8[rbp]
	leave
	.cfi_def_cfa 7, 8
	ret
	.cfi_endproc
.LFE11305:
	.size	_ZSt16__insertion_sortISt16reverse_iteratorIN9__gnu_cxx17__normal_iteratorIPSt4pairIiiESt6vectorIS4_SaIS4_EEEEENS1_5__ops15_Iter_less_iterEEvT_SD_T0_, .-_ZSt16__insertion_sortISt16reverse_iteratorIN9__gnu_cxx17__normal_iteratorIPSt4pairIiiESt6vectorIS4_SaIS4_EEEEENS1_5__ops15_Iter_less_iterEEvT_SD_T0_
	.section	.text._ZSt26__unguarded_insertion_sortISt16reverse_iteratorIN9__gnu_cxx17__normal_iteratorIPSt4pairIiiESt6vectorIS4_SaIS4_EEEEENS1_5__ops15_Iter_less_iterEEvT_SD_T0_,"axG",@progbits,_ZSt26__unguarded_insertion_sortISt16reverse_iteratorIN9__gnu_cxx17__normal_iteratorIPSt4pairIiiESt6vectorIS4_SaIS4_EEEEENS1_5__ops15_Iter_less_iterEEvT_SD_T0_,comdat
	.weak	_ZSt26__unguarded_insertion_sortISt16reverse_iteratorIN9__gnu_cxx17__normal_iteratorIPSt4pairIiiESt6vectorIS4_SaIS4_EEEEENS1_5__ops15_Iter_less_iterEEvT_SD_T0_
	.type	_ZSt26__unguarded_insertion_sortISt16reverse_iteratorIN9__gnu_cxx17__normal_iteratorIPSt4pairIiiESt6vectorIS4_SaIS4_EEEEENS1_5__ops15_Iter_less_iterEEvT_SD_T0_, @function
_ZSt26__unguarded_insertion_sortISt16reverse_iteratorIN9__gnu_cxx17__normal_iteratorIPSt4pairIiiESt6vectorIS4_SaIS4_EEEEENS1_5__ops15_Iter_less_iterEEvT_SD_T0_:
.LFB11310:
	.cfi_startproc
	endbr64
	push	rbp
	.cfi_def_cfa_offset 16
	.cfi_offset 6, -16
	mov	rbp, rsp
	.cfi_def_cfa_register 6
	sub	rsp, 64
	mov	QWORD PTR -40[rbp], rdi
	mov	QWORD PTR -48[rbp], rsi
	mov	rax, QWORD PTR fs:40
	mov	QWORD PTR -8[rbp], rax
	xor	eax, eax
	mov	rdx, QWORD PTR -40[rbp]
	lea	rax, -24[rbp]
	mov	rsi, rdx
	mov	rdi, rax
	call	_ZNSt16reverse_iteratorIN9__gnu_cxx17__normal_iteratorIPSt4pairIiiESt6vectorIS3_SaIS3_EEEEEC1ERKS9_
	jmp	.L362
.L363:
	call	_ZN9__gnu_cxx5__ops15__val_comp_iterENS0_15_Iter_less_iterE
	lea	rdx, -24[rbp]
	lea	rax, -16[rbp]
	mov	rsi, rdx
	mov	rdi, rax
	call	_ZNSt16reverse_iteratorIN9__gnu_cxx17__normal_iteratorIPSt4pairIiiESt6vectorIS3_SaIS3_EEEEEC1ERKS9_
	lea	rax, -16[rbp]
	mov	rdi, rax
	call	_ZSt25__unguarded_linear_insertISt16reverse_iteratorIN9__gnu_cxx17__normal_iteratorIPSt4pairIiiESt6vectorIS4_SaIS4_EEEEENS1_5__ops14_Val_less_iterEEvT_T0_
	lea	rax, -24[rbp]
	mov	rdi, rax
	call	_ZNSt16reverse_iteratorIN9__gnu_cxx17__normal_iteratorIPSt4pairIiiESt6vectorIS3_SaIS3_EEEEEppEv
.L362:
	mov	rdx, QWORD PTR -48[rbp]
	lea	rax, -24[rbp]
	mov	rsi, rdx
	mov	rdi, rax
	call	_ZStneIN9__gnu_cxx17__normal_iteratorIPSt4pairIiiESt6vectorIS3_SaIS3_EEEEEbRKSt16reverse_iteratorIT_ESD_
	test	al, al
	jne	.L363
	nop
	mov	rax, QWORD PTR -8[rbp]
	sub	rax, QWORD PTR fs:40
	je	.L364
	call	__stack_chk_fail@PLT
.L364:
	leave
	.cfi_def_cfa 7, 8
	ret
	.cfi_endproc
.LFE11310:
	.size	_ZSt26__unguarded_insertion_sortISt16reverse_iteratorIN9__gnu_cxx17__normal_iteratorIPSt4pairIiiESt6vectorIS4_SaIS4_EEEEENS1_5__ops15_Iter_less_iterEEvT_SD_T0_, .-_ZSt26__unguarded_insertion_sortISt16reverse_iteratorIN9__gnu_cxx17__normal_iteratorIPSt4pairIiiESt6vectorIS4_SaIS4_EEEEENS1_5__ops15_Iter_less_iterEEvT_SD_T0_
	.section	.text._ZNKSt6vectorIxSaIxEE8max_sizeEv,"axG",@progbits,_ZNKSt6vectorIxSaIxEE8max_sizeEv,comdat
	.align 2
	.weak	_ZNKSt6vectorIxSaIxEE8max_sizeEv
	.type	_ZNKSt6vectorIxSaIxEE8max_sizeEv, @function
_ZNKSt6vectorIxSaIxEE8max_sizeEv:
.LFB11395:
	.cfi_startproc
	endbr64
	push	rbp
	.cfi_def_cfa_offset 16
	.cfi_offset 6, -16
	mov	rbp, rsp
	.cfi_def_cfa_register 6
	sub	rsp, 16
	mov	QWORD PTR -8[rbp], rdi
	mov	rax, QWORD PTR -8[rbp]
	mov	rdi, rax
	call	_ZNKSt12_Vector_baseIxSaIxEE19_M_get_Tp_allocatorEv
	mov	rdi, rax
	call	_ZNSt6vectorIxSaIxEE11_S_max_sizeERKS0_
	leave
	.cfi_def_cfa 7, 8
	ret
	.cfi_endproc
.LFE11395:
	.size	_ZNKSt6vectorIxSaIxEE8max_sizeEv, .-_ZNKSt6vectorIxSaIxEE8max_sizeEv
	.section	.text._ZNSt16allocator_traitsISaIxEE8allocateERS0_m,"axG",@progbits,_ZNSt16allocator_traitsISaIxEE8allocateERS0_m,comdat
	.weak	_ZNSt16allocator_traitsISaIxEE8allocateERS0_m
	.type	_ZNSt16allocator_traitsISaIxEE8allocateERS0_m, @function
_ZNSt16allocator_traitsISaIxEE8allocateERS0_m:
.LFB11396:
	.cfi_startproc
	endbr64
	push	rbp
	.cfi_def_cfa_offset 16
	.cfi_offset 6, -16
	mov	rbp, rsp
	.cfi_def_cfa_register 6
	sub	rsp, 16
	mov	QWORD PTR -8[rbp], rdi
	mov	QWORD PTR -16[rbp], rsi
	mov	rcx, QWORD PTR -16[rbp]
	mov	rax, QWORD PTR -8[rbp]
	mov	edx, 0
	mov	rsi, rcx
	mov	rdi, rax
	call	_ZN9__gnu_cxx13new_allocatorIxE8allocateEmPKv
	leave
	.cfi_def_cfa 7, 8
	ret
	.cfi_endproc
.LFE11396:
	.size	_ZNSt16allocator_traitsISaIxEE8allocateERS0_m, .-_ZNSt16allocator_traitsISaIxEE8allocateERS0_m
	.section	.text._ZNSt6vectorIxSaIxEE14_S_do_relocateEPxS2_S2_RS0_St17integral_constantIbLb1EE,"axG",@progbits,_ZNSt6vectorIxSaIxEE14_S_do_relocateEPxS2_S2_RS0_St17integral_constantIbLb1EE,comdat
	.weak	_ZNSt6vectorIxSaIxEE14_S_do_relocateEPxS2_S2_RS0_St17integral_constantIbLb1EE
	.type	_ZNSt6vectorIxSaIxEE14_S_do_relocateEPxS2_S2_RS0_St17integral_constantIbLb1EE, @function
_ZNSt6vectorIxSaIxEE14_S_do_relocateEPxS2_S2_RS0_St17integral_constantIbLb1EE:
.LFB11397:
	.cfi_startproc
	endbr64
	push	rbp
	.cfi_def_cfa_offset 16
	.cfi_offset 6, -16
	mov	rbp, rsp
	.cfi_def_cfa_register 6
	sub	rsp, 32
	mov	QWORD PTR -8[rbp], rdi
	mov	QWORD PTR -16[rbp], rsi
	mov	QWORD PTR -24[rbp], rdx
	mov	QWORD PTR -32[rbp], rcx
	mov	rcx, QWORD PTR -32[rbp]
	mov	rdx, QWORD PTR -24[rbp]
	mov	rsi, QWORD PTR -16[rbp]
	mov	rax, QWORD PTR -8[rbp]
	mov	rdi, rax
	call	_ZSt12__relocate_aIPxS0_SaIxEET0_T_S3_S2_RT1_
	leave
	.cfi_def_cfa 7, 8
	ret
	.cfi_endproc
.LFE11397:
	.size	_ZNSt6vectorIxSaIxEE14_S_do_relocateEPxS2_S2_RS0_St17integral_constantIbLb1EE, .-_ZNSt6vectorIxSaIxEE14_S_do_relocateEPxS2_S2_RS0_St17integral_constantIbLb1EE
	.section	.text._ZSt8_DestroyIPxEvT_S1_,"axG",@progbits,_ZSt8_DestroyIPxEvT_S1_,comdat
	.weak	_ZSt8_DestroyIPxEvT_S1_
	.type	_ZSt8_DestroyIPxEvT_S1_, @function
_ZSt8_DestroyIPxEvT_S1_:
.LFB11399:
	.cfi_startproc
	endbr64
	push	rbp
	.cfi_def_cfa_offset 16
	.cfi_offset 6, -16
	mov	rbp, rsp
	.cfi_def_cfa_register 6
	sub	rsp, 16
	mov	QWORD PTR -8[rbp], rdi
	mov	QWORD PTR -16[rbp], rsi
	mov	rdx, QWORD PTR -16[rbp]
	mov	rax, QWORD PTR -8[rbp]
	mov	rsi, rdx
	mov	rdi, rax
	call	_ZNSt12_Destroy_auxILb1EE9__destroyIPxEEvT_S3_
	nop
	leave
	.cfi_def_cfa 7, 8
	ret
	.cfi_endproc
.LFE11399:
	.size	_ZSt8_DestroyIPxEvT_S1_, .-_ZSt8_DestroyIPxEvT_S1_
	.section	.text._ZNK9__gnu_cxx13new_allocatorISt4pairIiiEE8max_sizeEv,"axG",@progbits,_ZNK9__gnu_cxx13new_allocatorISt4pairIiiEE8max_sizeEv,comdat
	.align 2
	.weak	_ZNK9__gnu_cxx13new_allocatorISt4pairIiiEE8max_sizeEv
	.type	_ZNK9__gnu_cxx13new_allocatorISt4pairIiiEE8max_sizeEv, @function
_ZNK9__gnu_cxx13new_allocatorISt4pairIiiEE8max_sizeEv:
.LFB11400:
	.cfi_startproc
	endbr64
	push	rbp
	.cfi_def_cfa_offset 16
	.cfi_offset 6, -16
	mov	rbp, rsp
	.cfi_def_cfa_register 6
	sub	rsp, 16
	mov	QWORD PTR -8[rbp], rdi
	mov	rax, QWORD PTR -8[rbp]
	mov	rdi, rax
	call	_ZNK9__gnu_cxx13new_allocatorISt4pairIiiEE11_M_max_sizeEv
	leave
	.cfi_def_cfa 7, 8
	ret
	.cfi_endproc
.LFE11400:
	.size	_ZNK9__gnu_cxx13new_allocatorISt4pairIiiEE8max_sizeEv, .-_ZNK9__gnu_cxx13new_allocatorISt4pairIiiEE8max_sizeEv
	.section	.text._ZNSt16allocator_traitsISaISt4pairIiiEEE8allocateERS2_m,"axG",@progbits,_ZNSt16allocator_traitsISaISt4pairIiiEEE8allocateERS2_m,comdat
	.weak	_ZNSt16allocator_traitsISaISt4pairIiiEEE8allocateERS2_m
	.type	_ZNSt16allocator_traitsISaISt4pairIiiEEE8allocateERS2_m, @function
_ZNSt16allocator_traitsISaISt4pairIiiEEE8allocateERS2_m:
.LFB11401:
	.cfi_startproc
	endbr64
	push	rbp
	.cfi_def_cfa_offset 16
	.cfi_offset 6, -16
	mov	rbp, rsp
	.cfi_def_cfa_register 6
	sub	rsp, 16
	mov	QWORD PTR -8[rbp], rdi
	mov	QWORD PTR -16[rbp], rsi
	mov	rcx, QWORD PTR -16[rbp]
	mov	rax, QWORD PTR -8[rbp]
	mov	edx, 0
	mov	rsi, rcx
	mov	rdi, rax
	call	_ZN9__gnu_cxx13new_allocatorISt4pairIiiEE8allocateEmPKv
	leave
	.cfi_def_cfa 7, 8
	ret
	.cfi_endproc
.LFE11401:
	.size	_ZNSt16allocator_traitsISaISt4pairIiiEEE8allocateERS2_m, .-_ZNSt16allocator_traitsISaISt4pairIiiEEE8allocateERS2_m
	.section	.text._ZN9__gnu_cxx13new_allocatorISt4pairIiiEE10deallocateEPS2_m,"axG",@progbits,_ZN9__gnu_cxx13new_allocatorISt4pairIiiEE10deallocateEPS2_m,comdat
	.align 2
	.weak	_ZN9__gnu_cxx13new_allocatorISt4pairIiiEE10deallocateEPS2_m
	.type	_ZN9__gnu_cxx13new_allocatorISt4pairIiiEE10deallocateEPS2_m, @function
_ZN9__gnu_cxx13new_allocatorISt4pairIiiEE10deallocateEPS2_m:
.LFB11402:
	.cfi_startproc
	endbr64
	push	rbp
	.cfi_def_cfa_offset 16
	.cfi_offset 6, -16
	mov	rbp, rsp
	.cfi_def_cfa_register 6
	sub	rsp, 32
	mov	QWORD PTR -8[rbp], rdi
	mov	QWORD PTR -16[rbp], rsi
	mov	QWORD PTR -24[rbp], rdx
	mov	rax, QWORD PTR -24[rbp]
	lea	rdx, 0[0+rax*8]
	mov	rax, QWORD PTR -16[rbp]
	mov	rsi, rdx
	mov	rdi, rax
	call	_ZdlPvm@PLT
	leave
	.cfi_def_cfa 7, 8
	ret
	.cfi_endproc
.LFE11402:
	.size	_ZN9__gnu_cxx13new_allocatorISt4pairIiiEE10deallocateEPS2_m, .-_ZN9__gnu_cxx13new_allocatorISt4pairIiiEE10deallocateEPS2_m
	.section	.text._ZNSt27__uninitialized_default_n_1ILb0EE18__uninit_default_nIPSt4pairIiiEmEET_S5_T0_,"axG",@progbits,_ZNSt27__uninitialized_default_n_1ILb0EE18__uninit_default_nIPSt4pairIiiEmEET_S5_T0_,comdat
	.weak	_ZNSt27__uninitialized_default_n_1ILb0EE18__uninit_default_nIPSt4pairIiiEmEET_S5_T0_
	.type	_ZNSt27__uninitialized_default_n_1ILb0EE18__uninit_default_nIPSt4pairIiiEmEET_S5_T0_, @function
_ZNSt27__uninitialized_default_n_1ILb0EE18__uninit_default_nIPSt4pairIiiEmEET_S5_T0_:
.LFB11403:
	.cfi_startproc
	.cfi_personality 0x9b,DW.ref.__gxx_personality_v0
	.cfi_lsda 0x1b,.LLSDA11403
	endbr64
	push	rbp
	.cfi_def_cfa_offset 16
	.cfi_offset 6, -16
	mov	rbp, rsp
	.cfi_def_cfa_register 6
	push	rbx
	sub	rsp, 40
	.cfi_offset 3, -24
	mov	QWORD PTR -40[rbp], rdi
	mov	QWORD PTR -48[rbp], rsi
	mov	rax, QWORD PTR -40[rbp]
	mov	QWORD PTR -24[rbp], rax
	jmp	.L379
.L380:
	mov	rax, QWORD PTR -24[rbp]
	mov	rdi, rax
	call	_ZSt11__addressofISt4pairIiiEEPT_RS2_
	mov	rdi, rax
.LEHB12:
	call	_ZSt10_ConstructISt4pairIiiEJEEvPT_DpOT0_
.LEHE12:
	sub	QWORD PTR -48[rbp], 1
	add	QWORD PTR -24[rbp], 8
.L379:
	cmp	QWORD PTR -48[rbp], 0
	jne	.L380
	mov	rax, QWORD PTR -24[rbp]
	jmp	.L386
.L384:
	endbr64
	mov	rdi, rax
	call	__cxa_begin_catch@PLT
	mov	rdx, QWORD PTR -24[rbp]
	mov	rax, QWORD PTR -40[rbp]
	mov	rsi, rdx
	mov	rdi, rax
	call	_ZSt8_DestroyIPSt4pairIiiEEvT_S3_
.LEHB13:
	call	__cxa_rethrow@PLT
.LEHE13:
.L385:
	endbr64
	mov	rbx, rax
	call	__cxa_end_catch@PLT
	mov	rax, rbx
	mov	rdi, rax
.LEHB14:
	call	_Unwind_Resume@PLT
.LEHE14:
.L386:
	mov	rbx, QWORD PTR -8[rbp]
	leave
	.cfi_def_cfa 7, 8
	ret
	.cfi_endproc
.LFE11403:
	.section	.gcc_except_table
	.align 4
.LLSDA11403:
	.byte	0xff
	.byte	0x9b
	.uleb128 .LLSDATT11403-.LLSDATTD11403
.LLSDATTD11403:
	.byte	0x1
	.uleb128 .LLSDACSE11403-.LLSDACSB11403
.LLSDACSB11403:
	.uleb128 .LEHB12-.LFB11403
	.uleb128 .LEHE12-.LEHB12
	.uleb128 .L384-.LFB11403
	.uleb128 0x1
	.uleb128 .LEHB13-.LFB11403
	.uleb128 .LEHE13-.LEHB13
	.uleb128 .L385-.LFB11403
	.uleb128 0
	.uleb128 .LEHB14-.LFB11403
	.uleb128 .LEHE14-.LEHB14
	.uleb128 0
	.uleb128 0
.LLSDACSE11403:
	.byte	0x1
	.byte	0
	.align 4
	.long	0

.LLSDATT11403:
	.section	.text._ZNSt27__uninitialized_default_n_1ILb0EE18__uninit_default_nIPSt4pairIiiEmEET_S5_T0_,"axG",@progbits,_ZNSt27__uninitialized_default_n_1ILb0EE18__uninit_default_nIPSt4pairIiiEmEET_S5_T0_,comdat
	.size	_ZNSt27__uninitialized_default_n_1ILb0EE18__uninit_default_nIPSt4pairIiiEmEET_S5_T0_, .-_ZNSt27__uninitialized_default_n_1ILb0EE18__uninit_default_nIPSt4pairIiiEmEET_S5_T0_
	.section	.text._ZSt13__heap_selectISt16reverse_iteratorIN9__gnu_cxx17__normal_iteratorIPSt4pairIiiESt6vectorIS4_SaIS4_EEEEENS1_5__ops15_Iter_less_iterEEvT_SD_SD_T0_,"axG",@progbits,_ZSt13__heap_selectISt16reverse_iteratorIN9__gnu_cxx17__normal_iteratorIPSt4pairIiiESt6vectorIS4_SaIS4_EEEEENS1_5__ops15_Iter_less_iterEEvT_SD_SD_T0_,comdat
	.weak	_ZSt13__heap_selectISt16reverse_iteratorIN9__gnu_cxx17__normal_iteratorIPSt4pairIiiESt6vectorIS4_SaIS4_EEEEENS1_5__ops15_Iter_less_iterEEvT_SD_SD_T0_
	.type	_ZSt13__heap_selectISt16reverse_iteratorIN9__gnu_cxx17__normal_iteratorIPSt4pairIiiESt6vectorIS4_SaIS4_EEEEENS1_5__ops15_Iter_less_iterEEvT_SD_SD_T0_, @function
_ZSt13__heap_selectISt16reverse_iteratorIN9__gnu_cxx17__normal_iteratorIPSt4pairIiiESt6vectorIS4_SaIS4_EEEEENS1_5__ops15_Iter_less_iterEEvT_SD_SD_T0_:
.LFB11404:
	.cfi_startproc
	endbr64
	push	rbp
	.cfi_def_cfa_offset 16
	.cfi_offset 6, -16
	mov	rbp, rsp
	.cfi_def_cfa_register 6
	sub	rsp, 80
	mov	QWORD PTR -56[rbp], rdi
	mov	QWORD PTR -64[rbp], rsi
	mov	QWORD PTR -72[rbp], rdx
	mov	rax, QWORD PTR fs:40
	mov	QWORD PTR -8[rbp], rax
	xor	eax, eax
	mov	rdx, QWORD PTR -64[rbp]
	lea	rax, -16[rbp]
	mov	rsi, rdx
	mov	rdi, rax
	call	_ZNSt16reverse_iteratorIN9__gnu_cxx17__normal_iteratorIPSt4pairIiiESt6vectorIS3_SaIS3_EEEEEC1ERKS9_
	mov	rdx, QWORD PTR -56[rbp]
	lea	rax, -24[rbp]
	mov	rsi, rdx
	mov	rdi, rax
	call	_ZNSt16reverse_iteratorIN9__gnu_cxx17__normal_iteratorIPSt4pairIiiESt6vectorIS3_SaIS3_EEEEEC1ERKS9_
	lea	rdx, -73[rbp]
	lea	rcx, -16[rbp]
	lea	rax, -24[rbp]
	mov	rsi, rcx
	mov	rdi, rax
	call	_ZSt11__make_heapISt16reverse_iteratorIN9__gnu_cxx17__normal_iteratorIPSt4pairIiiESt6vectorIS4_SaIS4_EEEEENS1_5__ops15_Iter_less_iterEEvT_SD_RT0_
	mov	rdx, QWORD PTR -64[rbp]
	lea	rax, -40[rbp]
	mov	rsi, rdx
	mov	rdi, rax
	call	_ZNSt16reverse_iteratorIN9__gnu_cxx17__normal_iteratorIPSt4pairIiiESt6vectorIS3_SaIS3_EEEEEC1ERKS9_
	jmp	.L388
.L390:
	mov	rdx, QWORD PTR -56[rbp]
	lea	rax, -16[rbp]
	mov	rsi, rdx
	mov	rdi, rax
	call	_ZNSt16reverse_iteratorIN9__gnu_cxx17__normal_iteratorIPSt4pairIiiESt6vectorIS3_SaIS3_EEEEEC1ERKS9_
	lea	rdx, -40[rbp]
	lea	rax, -24[rbp]
	mov	rsi, rdx
	mov	rdi, rax
	call	_ZNSt16reverse_iteratorIN9__gnu_cxx17__normal_iteratorIPSt4pairIiiESt6vectorIS3_SaIS3_EEEEEC1ERKS9_
	lea	rdx, -16[rbp]
	lea	rcx, -24[rbp]
	lea	rax, -73[rbp]
	mov	rsi, rcx
	mov	rdi, rax
	call	_ZNK9__gnu_cxx5__ops15_Iter_less_iterclISt16reverse_iteratorINS_17__normal_iteratorIPSt4pairIiiESt6vectorIS6_SaIS6_EEEEESC_EEbT_T0_
	test	al, al
	je	.L389
	lea	rdx, -40[rbp]
	lea	rax, -16[rbp]
	mov	rsi, rdx
	mov	rdi, rax
	call	_ZNSt16reverse_iteratorIN9__gnu_cxx17__normal_iteratorIPSt4pairIiiESt6vectorIS3_SaIS3_EEEEEC1ERKS9_
	mov	rdx, QWORD PTR -64[rbp]
	lea	rax, -24[rbp]
	mov	rsi, rdx
	mov	rdi, rax
	call	_ZNSt16reverse_iteratorIN9__gnu_cxx17__normal_iteratorIPSt4pairIiiESt6vectorIS3_SaIS3_EEEEEC1ERKS9_
	mov	rdx, QWORD PTR -56[rbp]
	lea	rax, -32[rbp]
	mov	rsi, rdx
	mov	rdi, rax
	call	_ZNSt16reverse_iteratorIN9__gnu_cxx17__normal_iteratorIPSt4pairIiiESt6vectorIS3_SaIS3_EEEEEC1ERKS9_
	lea	rcx, -73[rbp]
	lea	rdx, -16[rbp]
	lea	rsi, -24[rbp]
	lea	rax, -32[rbp]
	mov	rdi, rax
	call	_ZSt10__pop_heapISt16reverse_iteratorIN9__gnu_cxx17__normal_iteratorIPSt4pairIiiESt6vectorIS4_SaIS4_EEEEENS1_5__ops15_Iter_less_iterEEvT_SD_SD_RT0_
.L389:
	lea	rax, -40[rbp]
	mov	rdi, rax
	call	_ZNSt16reverse_iteratorIN9__gnu_cxx17__normal_iteratorIPSt4pairIiiESt6vectorIS3_SaIS3_EEEEEppEv
.L388:
	mov	rdx, QWORD PTR -72[rbp]
	lea	rax, -40[rbp]
	mov	rsi, rdx
	mov	rdi, rax
	call	_ZStltIN9__gnu_cxx17__normal_iteratorIPSt4pairIiiESt6vectorIS3_SaIS3_EEEEEbRKSt16reverse_iteratorIT_ESD_
	test	al, al
	jne	.L390
	nop
	mov	rax, QWORD PTR -8[rbp]
	sub	rax, QWORD PTR fs:40
	je	.L391
	call	__stack_chk_fail@PLT
.L391:
	leave
	.cfi_def_cfa 7, 8
	ret
	.cfi_endproc
.LFE11404:
	.size	_ZSt13__heap_selectISt16reverse_iteratorIN9__gnu_cxx17__normal_iteratorIPSt4pairIiiESt6vectorIS4_SaIS4_EEEEENS1_5__ops15_Iter_less_iterEEvT_SD_SD_T0_, .-_ZSt13__heap_selectISt16reverse_iteratorIN9__gnu_cxx17__normal_iteratorIPSt4pairIiiESt6vectorIS4_SaIS4_EEEEENS1_5__ops15_Iter_less_iterEEvT_SD_SD_T0_
	.section	.text._ZNSt16reverse_iteratorIN9__gnu_cxx17__normal_iteratorIPSt4pairIiiESt6vectorIS3_SaIS3_EEEEEmmEv,"axG",@progbits,_ZNSt16reverse_iteratorIN9__gnu_cxx17__normal_iteratorIPSt4pairIiiESt6vectorIS3_SaIS3_EEEEEmmEv,comdat
	.align 2
	.weak	_ZNSt16reverse_iteratorIN9__gnu_cxx17__normal_iteratorIPSt4pairIiiESt6vectorIS3_SaIS3_EEEEEmmEv
	.type	_ZNSt16reverse_iteratorIN9__gnu_cxx17__normal_iteratorIPSt4pairIiiESt6vectorIS3_SaIS3_EEEEEmmEv, @function
_ZNSt16reverse_iteratorIN9__gnu_cxx17__normal_iteratorIPSt4pairIiiESt6vectorIS3_SaIS3_EEEEEmmEv:
.LFB11406:
	.cfi_startproc
	endbr64
	push	rbp
	.cfi_def_cfa_offset 16
	.cfi_offset 6, -16
	mov	rbp, rsp
	.cfi_def_cfa_register 6
	sub	rsp, 16
	mov	QWORD PTR -8[rbp], rdi
	mov	rax, QWORD PTR -8[rbp]
	mov	rdi, rax
	call	_ZN9__gnu_cxx17__normal_iteratorIPSt4pairIiiESt6vectorIS2_SaIS2_EEEppEv
	mov	rax, QWORD PTR -8[rbp]
	leave
	.cfi_def_cfa 7, 8
	ret
	.cfi_endproc
.LFE11406:
	.size	_ZNSt16reverse_iteratorIN9__gnu_cxx17__normal_iteratorIPSt4pairIiiESt6vectorIS3_SaIS3_EEEEEmmEv, .-_ZNSt16reverse_iteratorIN9__gnu_cxx17__normal_iteratorIPSt4pairIiiESt6vectorIS3_SaIS3_EEEEEmmEv
	.section	.text._ZSt11__sort_heapISt16reverse_iteratorIN9__gnu_cxx17__normal_iteratorIPSt4pairIiiESt6vectorIS4_SaIS4_EEEEENS1_5__ops15_Iter_less_iterEEvT_SD_RT0_,"axG",@progbits,_ZSt11__sort_heapISt16reverse_iteratorIN9__gnu_cxx17__normal_iteratorIPSt4pairIiiESt6vectorIS4_SaIS4_EEEEENS1_5__ops15_Iter_less_iterEEvT_SD_RT0_,comdat
	.weak	_ZSt11__sort_heapISt16reverse_iteratorIN9__gnu_cxx17__normal_iteratorIPSt4pairIiiESt6vectorIS4_SaIS4_EEEEENS1_5__ops15_Iter_less_iterEEvT_SD_RT0_
	.type	_ZSt11__sort_heapISt16reverse_iteratorIN9__gnu_cxx17__normal_iteratorIPSt4pairIiiESt6vectorIS4_SaIS4_EEEEENS1_5__ops15_Iter_less_iterEEvT_SD_RT0_, @function
_ZSt11__sort_heapISt16reverse_iteratorIN9__gnu_cxx17__normal_iteratorIPSt4pairIiiESt6vectorIS4_SaIS4_EEEEENS1_5__ops15_Iter_less_iterEEvT_SD_RT0_:
.LFB11405:
	.cfi_startproc
	endbr64
	push	rbp
	.cfi_def_cfa_offset 16
	.cfi_offset 6, -16
	mov	rbp, rsp
	.cfi_def_cfa_register 6
	sub	rsp, 64
	mov	QWORD PTR -40[rbp], rdi
	mov	QWORD PTR -48[rbp], rsi
	mov	QWORD PTR -56[rbp], rdx
	mov	rax, QWORD PTR fs:40
	mov	QWORD PTR -8[rbp], rax
	xor	eax, eax
	jmp	.L395
.L396:
	mov	rax, QWORD PTR -48[rbp]
	mov	rdi, rax
	call	_ZNSt16reverse_iteratorIN9__gnu_cxx17__normal_iteratorIPSt4pairIiiESt6vectorIS3_SaIS3_EEEEEmmEv
	mov	rdx, QWORD PTR -48[rbp]
	lea	rax, -16[rbp]
	mov	rsi, rdx
	mov	rdi, rax
	call	_ZNSt16reverse_iteratorIN9__gnu_cxx17__normal_iteratorIPSt4pairIiiESt6vectorIS3_SaIS3_EEEEEC1ERKS9_
	mov	rdx, QWORD PTR -48[rbp]
	lea	rax, -24[rbp]
	mov	rsi, rdx
	mov	rdi, rax
	call	_ZNSt16reverse_iteratorIN9__gnu_cxx17__normal_iteratorIPSt4pairIiiESt6vectorIS3_SaIS3_EEEEEC1ERKS9_
	mov	rdx, QWORD PTR -40[rbp]
	lea	rax, -32[rbp]
	mov	rsi, rdx
	mov	rdi, rax
	call	_ZNSt16reverse_iteratorIN9__gnu_cxx17__normal_iteratorIPSt4pairIiiESt6vectorIS3_SaIS3_EEEEEC1ERKS9_
	mov	rcx, QWORD PTR -56[rbp]
	lea	rdx, -16[rbp]
	lea	rsi, -24[rbp]
	lea	rax, -32[rbp]
	mov	rdi, rax
	call	_ZSt10__pop_heapISt16reverse_iteratorIN9__gnu_cxx17__normal_iteratorIPSt4pairIiiESt6vectorIS4_SaIS4_EEEEENS1_5__ops15_Iter_less_iterEEvT_SD_SD_RT0_
.L395:
	mov	rdx, QWORD PTR -40[rbp]
	mov	rax, QWORD PTR -48[rbp]
	mov	rsi, rdx
	mov	rdi, rax
	call	_ZStmiIN9__gnu_cxx17__normal_iteratorIPSt4pairIiiESt6vectorIS3_SaIS3_EEEES8_EDTmicldtfp0_4baseEcldtfp_4baseEERKSt16reverse_iteratorIT_ERKSA_IT0_E
	cmp	rax, 1
	setg	al
	test	al, al
	jne	.L396
	nop
	mov	rax, QWORD PTR -8[rbp]
	sub	rax, QWORD PTR fs:40
	je	.L397
	call	__stack_chk_fail@PLT
.L397:
	leave
	.cfi_def_cfa 7, 8
	ret
	.cfi_endproc
.LFE11405:
	.size	_ZSt11__sort_heapISt16reverse_iteratorIN9__gnu_cxx17__normal_iteratorIPSt4pairIiiESt6vectorIS4_SaIS4_EEEEENS1_5__ops15_Iter_less_iterEEvT_SD_RT0_, .-_ZSt11__sort_heapISt16reverse_iteratorIN9__gnu_cxx17__normal_iteratorIPSt4pairIiiESt6vectorIS4_SaIS4_EEEEENS1_5__ops15_Iter_less_iterEEvT_SD_RT0_
	.section	.text._ZNK9__gnu_cxx17__normal_iteratorIPSt4pairIiiESt6vectorIS2_SaIS2_EEEmiEl,"axG",@progbits,_ZNK9__gnu_cxx17__normal_iteratorIPSt4pairIiiESt6vectorIS2_SaIS2_EEEmiEl,comdat
	.align 2
	.weak	_ZNK9__gnu_cxx17__normal_iteratorIPSt4pairIiiESt6vectorIS2_SaIS2_EEEmiEl
	.type	_ZNK9__gnu_cxx17__normal_iteratorIPSt4pairIiiESt6vectorIS2_SaIS2_EEEmiEl, @function
_ZNK9__gnu_cxx17__normal_iteratorIPSt4pairIiiESt6vectorIS2_SaIS2_EEEmiEl:
.LFB11407:
	.cfi_startproc
	endbr64
	push	rbp
	.cfi_def_cfa_offset 16
	.cfi_offset 6, -16
	mov	rbp, rsp
	.cfi_def_cfa_register 6
	sub	rsp, 48
	mov	QWORD PTR -40[rbp], rdi
	mov	QWORD PTR -48[rbp], rsi
	mov	rax, QWORD PTR fs:40
	mov	QWORD PTR -8[rbp], rax
	xor	eax, eax
	mov	rax, QWORD PTR -40[rbp]
	mov	rdx, QWORD PTR [rax]
	mov	rax, QWORD PTR -48[rbp]
	sal	rax, 3
	neg	rax
	add	rax, rdx
	mov	QWORD PTR -24[rbp], rax
	lea	rdx, -24[rbp]
	lea	rax, -16[rbp]
	mov	rsi, rdx
	mov	rdi, rax
	call	_ZN9__gnu_cxx17__normal_iteratorIPSt4pairIiiESt6vectorIS2_SaIS2_EEEC1ERKS3_
	mov	rax, QWORD PTR -16[rbp]
	mov	rdx, QWORD PTR -8[rbp]
	sub	rdx, QWORD PTR fs:40
	je	.L400
	call	__stack_chk_fail@PLT
.L400:
	leave
	.cfi_def_cfa 7, 8
	ret
	.cfi_endproc
.LFE11407:
	.size	_ZNK9__gnu_cxx17__normal_iteratorIPSt4pairIiiESt6vectorIS2_SaIS2_EEEmiEl, .-_ZNK9__gnu_cxx17__normal_iteratorIPSt4pairIiiESt6vectorIS2_SaIS2_EEEmiEl
	.section	.text._ZNKSt16reverse_iteratorIN9__gnu_cxx17__normal_iteratorIPSt4pairIiiESt6vectorIS3_SaIS3_EEEEEmiEl,"axG",@progbits,_ZNKSt16reverse_iteratorIN9__gnu_cxx17__normal_iteratorIPSt4pairIiiESt6vectorIS3_SaIS3_EEEEEmiEl,comdat
	.align 2
	.weak	_ZNKSt16reverse_iteratorIN9__gnu_cxx17__normal_iteratorIPSt4pairIiiESt6vectorIS3_SaIS3_EEEEEmiEl
	.type	_ZNKSt16reverse_iteratorIN9__gnu_cxx17__normal_iteratorIPSt4pairIiiESt6vectorIS3_SaIS3_EEEEEmiEl, @function
_ZNKSt16reverse_iteratorIN9__gnu_cxx17__normal_iteratorIPSt4pairIiiESt6vectorIS3_SaIS3_EEEEEmiEl:
.LFB11408:
	.cfi_startproc
	endbr64
	push	rbp
	.cfi_def_cfa_offset 16
	.cfi_offset 6, -16
	mov	rbp, rsp
	.cfi_def_cfa_register 6
	sub	rsp, 32
	mov	QWORD PTR -8[rbp], rdi
	mov	QWORD PTR -16[rbp], rsi
	mov	QWORD PTR -24[rbp], rdx
	mov	rax, QWORD PTR -16[rbp]
	mov	rdx, QWORD PTR -24[rbp]
	mov	rsi, rdx
	mov	rdi, rax
	call	_ZNK9__gnu_cxx17__normal_iteratorIPSt4pairIiiESt6vectorIS2_SaIS2_EEEplEl
	mov	rdx, rax
	mov	rax, QWORD PTR -8[rbp]
	mov	rsi, rdx
	mov	rdi, rax
	call	_ZNSt16reverse_iteratorIN9__gnu_cxx17__normal_iteratorIPSt4pairIiiESt6vectorIS3_SaIS3_EEEEEC1ES8_
	mov	rax, QWORD PTR -8[rbp]
	leave
	.cfi_def_cfa 7, 8
	ret
	.cfi_endproc
.LFE11408:
	.size	_ZNKSt16reverse_iteratorIN9__gnu_cxx17__normal_iteratorIPSt4pairIiiESt6vectorIS3_SaIS3_EEEEEmiEl, .-_ZNKSt16reverse_iteratorIN9__gnu_cxx17__normal_iteratorIPSt4pairIiiESt6vectorIS3_SaIS3_EEEEEmiEl
	.section	.text._ZSt22__move_median_to_firstISt16reverse_iteratorIN9__gnu_cxx17__normal_iteratorIPSt4pairIiiESt6vectorIS4_SaIS4_EEEEENS1_5__ops15_Iter_less_iterEEvT_SD_SD_SD_T0_,"axG",@progbits,_ZSt22__move_median_to_firstISt16reverse_iteratorIN9__gnu_cxx17__normal_iteratorIPSt4pairIiiESt6vectorIS4_SaIS4_EEEEENS1_5__ops15_Iter_less_iterEEvT_SD_SD_SD_T0_,comdat
	.weak	_ZSt22__move_median_to_firstISt16reverse_iteratorIN9__gnu_cxx17__normal_iteratorIPSt4pairIiiESt6vectorIS4_SaIS4_EEEEENS1_5__ops15_Iter_less_iterEEvT_SD_SD_SD_T0_
	.type	_ZSt22__move_median_to_firstISt16reverse_iteratorIN9__gnu_cxx17__normal_iteratorIPSt4pairIiiESt6vectorIS4_SaIS4_EEEEENS1_5__ops15_Iter_less_iterEEvT_SD_SD_SD_T0_, @function
_ZSt22__move_median_to_firstISt16reverse_iteratorIN9__gnu_cxx17__normal_iteratorIPSt4pairIiiESt6vectorIS4_SaIS4_EEEEENS1_5__ops15_Iter_less_iterEEvT_SD_SD_SD_T0_:
.LFB11409:
	.cfi_startproc
	endbr64
	push	rbp
	.cfi_def_cfa_offset 16
	.cfi_offset 6, -16
	mov	rbp, rsp
	.cfi_def_cfa_register 6
	sub	rsp, 80
	mov	QWORD PTR -40[rbp], rdi
	mov	QWORD PTR -48[rbp], rsi
	mov	QWORD PTR -56[rbp], rdx
	mov	QWORD PTR -64[rbp], rcx
	mov	rax, QWORD PTR fs:40
	mov	QWORD PTR -8[rbp], rax
	xor	eax, eax
	mov	rdx, QWORD PTR -56[rbp]
	lea	rax, -16[rbp]
	mov	rsi, rdx
	mov	rdi, rax
	call	_ZNSt16reverse_iteratorIN9__gnu_cxx17__normal_iteratorIPSt4pairIiiESt6vectorIS3_SaIS3_EEEEEC1ERKS9_
	mov	rdx, QWORD PTR -48[rbp]
	lea	rax, -24[rbp]
	mov	rsi, rdx
	mov	rdi, rax
	call	_ZNSt16reverse_iteratorIN9__gnu_cxx17__normal_iteratorIPSt4pairIiiESt6vectorIS3_SaIS3_EEEEEC1ERKS9_
	lea	rdx, -16[rbp]
	lea	rcx, -24[rbp]
	lea	rax, -65[rbp]
	mov	rsi, rcx
	mov	rdi, rax
	call	_ZNK9__gnu_cxx5__ops15_Iter_less_iterclISt16reverse_iteratorINS_17__normal_iteratorIPSt4pairIiiESt6vectorIS6_SaIS6_EEEEESC_EEbT_T0_
	test	al, al
	je	.L404
	mov	rdx, QWORD PTR -64[rbp]
	lea	rax, -16[rbp]
	mov	rsi, rdx
	mov	rdi, rax
	call	_ZNSt16reverse_iteratorIN9__gnu_cxx17__normal_iteratorIPSt4pairIiiESt6vectorIS3_SaIS3_EEEEEC1ERKS9_
	mov	rdx, QWORD PTR -56[rbp]
	lea	rax, -24[rbp]
	mov	rsi, rdx
	mov	rdi, rax
	call	_ZNSt16reverse_iteratorIN9__gnu_cxx17__normal_iteratorIPSt4pairIiiESt6vectorIS3_SaIS3_EEEEEC1ERKS9_
	lea	rdx, -16[rbp]
	lea	rcx, -24[rbp]
	lea	rax, -65[rbp]
	mov	rsi, rcx
	mov	rdi, rax
	call	_ZNK9__gnu_cxx5__ops15_Iter_less_iterclISt16reverse_iteratorINS_17__normal_iteratorIPSt4pairIiiESt6vectorIS6_SaIS6_EEEEESC_EEbT_T0_
	test	al, al
	je	.L405
	mov	rdx, QWORD PTR -56[rbp]
	lea	rax, -16[rbp]
	mov	rsi, rdx
	mov	rdi, rax
	call	_ZNSt16reverse_iteratorIN9__gnu_cxx17__normal_iteratorIPSt4pairIiiESt6vectorIS3_SaIS3_EEEEEC1ERKS9_
	mov	rdx, QWORD PTR -40[rbp]
	lea	rax, -24[rbp]
	mov	rsi, rdx
	mov	rdi, rax
	call	_ZNSt16reverse_iteratorIN9__gnu_cxx17__normal_iteratorIPSt4pairIiiESt6vectorIS3_SaIS3_EEEEEC1ERKS9_
	lea	rdx, -16[rbp]
	lea	rax, -24[rbp]
	mov	rsi, rdx
	mov	rdi, rax
	call	_ZSt9iter_swapISt16reverse_iteratorIN9__gnu_cxx17__normal_iteratorIPSt4pairIiiESt6vectorIS4_SaIS4_EEEEESA_EvT_T0_
	jmp	.L411
.L405:
	mov	rdx, QWORD PTR -64[rbp]
	lea	rax, -16[rbp]
	mov	rsi, rdx
	mov	rdi, rax
	call	_ZNSt16reverse_iteratorIN9__gnu_cxx17__normal_iteratorIPSt4pairIiiESt6vectorIS3_SaIS3_EEEEEC1ERKS9_
	mov	rdx, QWORD PTR -48[rbp]
	lea	rax, -24[rbp]
	mov	rsi, rdx
	mov	rdi, rax
	call	_ZNSt16reverse_iteratorIN9__gnu_cxx17__normal_iteratorIPSt4pairIiiESt6vectorIS3_SaIS3_EEEEEC1ERKS9_
	lea	rdx, -16[rbp]
	lea	rcx, -24[rbp]
	lea	rax, -65[rbp]
	mov	rsi, rcx
	mov	rdi, rax
	call	_ZNK9__gnu_cxx5__ops15_Iter_less_iterclISt16reverse_iteratorINS_17__normal_iteratorIPSt4pairIiiESt6vectorIS6_SaIS6_EEEEESC_EEbT_T0_
	test	al, al
	je	.L407
	mov	rdx, QWORD PTR -64[rbp]
	lea	rax, -16[rbp]
	mov	rsi, rdx
	mov	rdi, rax
	call	_ZNSt16reverse_iteratorIN9__gnu_cxx17__normal_iteratorIPSt4pairIiiESt6vectorIS3_SaIS3_EEEEEC1ERKS9_
	mov	rdx, QWORD PTR -40[rbp]
	lea	rax, -24[rbp]
	mov	rsi, rdx
	mov	rdi, rax
	call	_ZNSt16reverse_iteratorIN9__gnu_cxx17__normal_iteratorIPSt4pairIiiESt6vectorIS3_SaIS3_EEEEEC1ERKS9_
	lea	rdx, -16[rbp]
	lea	rax, -24[rbp]
	mov	rsi, rdx
	mov	rdi, rax
	call	_ZSt9iter_swapISt16reverse_iteratorIN9__gnu_cxx17__normal_iteratorIPSt4pairIiiESt6vectorIS4_SaIS4_EEEEESA_EvT_T0_
	jmp	.L411
.L407:
	mov	rdx, QWORD PTR -48[rbp]
	lea	rax, -16[rbp]
	mov	rsi, rdx
	mov	rdi, rax
	call	_ZNSt16reverse_iteratorIN9__gnu_cxx17__normal_iteratorIPSt4pairIiiESt6vectorIS3_SaIS3_EEEEEC1ERKS9_
	mov	rdx, QWORD PTR -40[rbp]
	lea	rax, -24[rbp]
	mov	rsi, rdx
	mov	rdi, rax
	call	_ZNSt16reverse_iteratorIN9__gnu_cxx17__normal_iteratorIPSt4pairIiiESt6vectorIS3_SaIS3_EEEEEC1ERKS9_
	lea	rdx, -16[rbp]
	lea	rax, -24[rbp]
	mov	rsi, rdx
	mov	rdi, rax
	call	_ZSt9iter_swapISt16reverse_iteratorIN9__gnu_cxx17__normal_iteratorIPSt4pairIiiESt6vectorIS4_SaIS4_EEEEESA_EvT_T0_
	jmp	.L411
.L404:
	mov	rdx, QWORD PTR -64[rbp]
	lea	rax, -16[rbp]
	mov	rsi, rdx
	mov	rdi, rax
	call	_ZNSt16reverse_iteratorIN9__gnu_cxx17__normal_iteratorIPSt4pairIiiESt6vectorIS3_SaIS3_EEEEEC1ERKS9_
	mov	rdx, QWORD PTR -48[rbp]
	lea	rax, -24[rbp]
	mov	rsi, rdx
	mov	rdi, rax
	call	_ZNSt16reverse_iteratorIN9__gnu_cxx17__normal_iteratorIPSt4pairIiiESt6vectorIS3_SaIS3_EEEEEC1ERKS9_
	lea	rdx, -16[rbp]
	lea	rcx, -24[rbp]
	lea	rax, -65[rbp]
	mov	rsi, rcx
	mov	rdi, rax
	call	_ZNK9__gnu_cxx5__ops15_Iter_less_iterclISt16reverse_iteratorINS_17__normal_iteratorIPSt4pairIiiESt6vectorIS6_SaIS6_EEEEESC_EEbT_T0_
	test	al, al
	je	.L408
	mov	rdx, QWORD PTR -48[rbp]
	lea	rax, -16[rbp]
	mov	rsi, rdx
	mov	rdi, rax
	call	_ZNSt16reverse_iteratorIN9__gnu_cxx17__normal_iteratorIPSt4pairIiiESt6vectorIS3_SaIS3_EEEEEC1ERKS9_
	mov	rdx, QWORD PTR -40[rbp]
	lea	rax, -24[rbp]
	mov	rsi, rdx
	mov	rdi, rax
	call	_ZNSt16reverse_iteratorIN9__gnu_cxx17__normal_iteratorIPSt4pairIiiESt6vectorIS3_SaIS3_EEEEEC1ERKS9_
	lea	rdx, -16[rbp]
	lea	rax, -24[rbp]
	mov	rsi, rdx
	mov	rdi, rax
	call	_ZSt9iter_swapISt16reverse_iteratorIN9__gnu_cxx17__normal_iteratorIPSt4pairIiiESt6vectorIS4_SaIS4_EEEEESA_EvT_T0_
	jmp	.L411
.L408:
	mov	rdx, QWORD PTR -64[rbp]
	lea	rax, -16[rbp]
	mov	rsi, rdx
	mov	rdi, rax
	call	_ZNSt16reverse_iteratorIN9__gnu_cxx17__normal_iteratorIPSt4pairIiiESt6vectorIS3_SaIS3_EEEEEC1ERKS9_
	mov	rdx, QWORD PTR -56[rbp]
	lea	rax, -24[rbp]
	mov	rsi, rdx
	mov	rdi, rax
	call	_ZNSt16reverse_iteratorIN9__gnu_cxx17__normal_iteratorIPSt4pairIiiESt6vectorIS3_SaIS3_EEEEEC1ERKS9_
	lea	rdx, -16[rbp]
	lea	rcx, -24[rbp]
	lea	rax, -65[rbp]
	mov	rsi, rcx
	mov	rdi, rax
	call	_ZNK9__gnu_cxx5__ops15_Iter_less_iterclISt16reverse_iteratorINS_17__normal_iteratorIPSt4pairIiiESt6vectorIS6_SaIS6_EEEEESC_EEbT_T0_
	test	al, al
	je	.L409
	mov	rdx, QWORD PTR -64[rbp]
	lea	rax, -16[rbp]
	mov	rsi, rdx
	mov	rdi, rax
	call	_ZNSt16reverse_iteratorIN9__gnu_cxx17__normal_iteratorIPSt4pairIiiESt6vectorIS3_SaIS3_EEEEEC1ERKS9_
	mov	rdx, QWORD PTR -40[rbp]
	lea	rax, -24[rbp]
	mov	rsi, rdx
	mov	rdi, rax
	call	_ZNSt16reverse_iteratorIN9__gnu_cxx17__normal_iteratorIPSt4pairIiiESt6vectorIS3_SaIS3_EEEEEC1ERKS9_
	lea	rdx, -16[rbp]
	lea	rax, -24[rbp]
	mov	rsi, rdx
	mov	rdi, rax
	call	_ZSt9iter_swapISt16reverse_iteratorIN9__gnu_cxx17__normal_iteratorIPSt4pairIiiESt6vectorIS4_SaIS4_EEEEESA_EvT_T0_
	jmp	.L411
.L409:
	mov	rdx, QWORD PTR -56[rbp]
	lea	rax, -16[rbp]
	mov	rsi, rdx
	mov	rdi, rax
	call	_ZNSt16reverse_iteratorIN9__gnu_cxx17__normal_iteratorIPSt4pairIiiESt6vectorIS3_SaIS3_EEEEEC1ERKS9_
	mov	rdx, QWORD PTR -40[rbp]
	lea	rax, -24[rbp]
	mov	rsi, rdx
	mov	rdi, rax
	call	_ZNSt16reverse_iteratorIN9__gnu_cxx17__normal_iteratorIPSt4pairIiiESt6vectorIS3_SaIS3_EEEEEC1ERKS9_
	lea	rdx, -16[rbp]
	lea	rax, -24[rbp]
	mov	rsi, rdx
	mov	rdi, rax
	call	_ZSt9iter_swapISt16reverse_iteratorIN9__gnu_cxx17__normal_iteratorIPSt4pairIiiESt6vectorIS4_SaIS4_EEEEESA_EvT_T0_
.L411:
	nop
	mov	rax, QWORD PTR -8[rbp]
	sub	rax, QWORD PTR fs:40
	je	.L410
	call	__stack_chk_fail@PLT
.L410:
	leave
	.cfi_def_cfa 7, 8
	ret
	.cfi_endproc
.LFE11409:
	.size	_ZSt22__move_median_to_firstISt16reverse_iteratorIN9__gnu_cxx17__normal_iteratorIPSt4pairIiiESt6vectorIS4_SaIS4_EEEEENS1_5__ops15_Iter_less_iterEEvT_SD_SD_SD_T0_, .-_ZSt22__move_median_to_firstISt16reverse_iteratorIN9__gnu_cxx17__normal_iteratorIPSt4pairIiiESt6vectorIS4_SaIS4_EEEEENS1_5__ops15_Iter_less_iterEEvT_SD_SD_SD_T0_
	.section	.text._ZStltIN9__gnu_cxx17__normal_iteratorIPSt4pairIiiESt6vectorIS3_SaIS3_EEEEEbRKSt16reverse_iteratorIT_ESD_,"axG",@progbits,_ZStltIN9__gnu_cxx17__normal_iteratorIPSt4pairIiiESt6vectorIS3_SaIS3_EEEEEbRKSt16reverse_iteratorIT_ESD_,comdat
	.weak	_ZStltIN9__gnu_cxx17__normal_iteratorIPSt4pairIiiESt6vectorIS3_SaIS3_EEEEEbRKSt16reverse_iteratorIT_ESD_
	.type	_ZStltIN9__gnu_cxx17__normal_iteratorIPSt4pairIiiESt6vectorIS3_SaIS3_EEEEEbRKSt16reverse_iteratorIT_ESD_, @function
_ZStltIN9__gnu_cxx17__normal_iteratorIPSt4pairIiiESt6vectorIS3_SaIS3_EEEEEbRKSt16reverse_iteratorIT_ESD_:
.LFB11411:
	.cfi_startproc
	endbr64
	push	rbp
	.cfi_def_cfa_offset 16
	.cfi_offset 6, -16
	mov	rbp, rsp
	.cfi_def_cfa_register 6
	sub	rsp, 48
	mov	QWORD PTR -40[rbp], rdi
	mov	QWORD PTR -48[rbp], rsi
	mov	rax, QWORD PTR fs:40
	mov	QWORD PTR -8[rbp], rax
	xor	eax, eax
	mov	rax, QWORD PTR -40[rbp]
	mov	rdi, rax
	call	_ZNKSt16reverse_iteratorIN9__gnu_cxx17__normal_iteratorIPSt4pairIiiESt6vectorIS3_SaIS3_EEEEE4baseEv
	mov	QWORD PTR -16[rbp], rax
	mov	rax, QWORD PTR -48[rbp]
	mov	rdi, rax
	call	_ZNKSt16reverse_iteratorIN9__gnu_cxx17__normal_iteratorIPSt4pairIiiESt6vectorIS3_SaIS3_EEEEE4baseEv
	mov	QWORD PTR -24[rbp], rax
	lea	rdx, -16[rbp]
	lea	rax, -24[rbp]
	mov	rsi, rdx
	mov	rdi, rax
	call	_ZN9__gnu_cxxltIPSt4pairIiiESt6vectorIS2_SaIS2_EEEEbRKNS_17__normal_iteratorIT_T0_EESC_
	mov	rdx, QWORD PTR -8[rbp]
	sub	rdx, QWORD PTR fs:40
	je	.L414
	call	__stack_chk_fail@PLT
.L414:
	leave
	.cfi_def_cfa 7, 8
	ret
	.cfi_endproc
.LFE11411:
	.size	_ZStltIN9__gnu_cxx17__normal_iteratorIPSt4pairIiiESt6vectorIS3_SaIS3_EEEEEbRKSt16reverse_iteratorIT_ESD_, .-_ZStltIN9__gnu_cxx17__normal_iteratorIPSt4pairIiiESt6vectorIS3_SaIS3_EEEEEbRKSt16reverse_iteratorIT_ESD_
	.section	.text._ZSt21__unguarded_partitionISt16reverse_iteratorIN9__gnu_cxx17__normal_iteratorIPSt4pairIiiESt6vectorIS4_SaIS4_EEEEENS1_5__ops15_Iter_less_iterEET_SD_SD_SD_T0_,"axG",@progbits,_ZSt21__unguarded_partitionISt16reverse_iteratorIN9__gnu_cxx17__normal_iteratorIPSt4pairIiiESt6vectorIS4_SaIS4_EEEEENS1_5__ops15_Iter_less_iterEET_SD_SD_SD_T0_,comdat
	.weak	_ZSt21__unguarded_partitionISt16reverse_iteratorIN9__gnu_cxx17__normal_iteratorIPSt4pairIiiESt6vectorIS4_SaIS4_EEEEENS1_5__ops15_Iter_less_iterEET_SD_SD_SD_T0_
	.type	_ZSt21__unguarded_partitionISt16reverse_iteratorIN9__gnu_cxx17__normal_iteratorIPSt4pairIiiESt6vectorIS4_SaIS4_EEEEENS1_5__ops15_Iter_less_iterEET_SD_SD_SD_T0_, @function
_ZSt21__unguarded_partitionISt16reverse_iteratorIN9__gnu_cxx17__normal_iteratorIPSt4pairIiiESt6vectorIS4_SaIS4_EEEEENS1_5__ops15_Iter_less_iterEET_SD_SD_SD_T0_:
.LFB11410:
	.cfi_startproc
	endbr64
	push	rbp
	.cfi_def_cfa_offset 16
	.cfi_offset 6, -16
	mov	rbp, rsp
	.cfi_def_cfa_register 6
	sub	rsp, 80
	mov	QWORD PTR -40[rbp], rdi
	mov	QWORD PTR -48[rbp], rsi
	mov	QWORD PTR -56[rbp], rdx
	mov	QWORD PTR -64[rbp], rcx
	mov	rax, QWORD PTR fs:40
	mov	QWORD PTR -8[rbp], rax
	xor	eax, eax
	jmp	.L416
.L417:
	mov	rax, QWORD PTR -48[rbp]
	mov	rdi, rax
	call	_ZNSt16reverse_iteratorIN9__gnu_cxx17__normal_iteratorIPSt4pairIiiESt6vectorIS3_SaIS3_EEEEEppEv
.L416:
	mov	rdx, QWORD PTR -64[rbp]
	lea	rax, -16[rbp]
	mov	rsi, rdx
	mov	rdi, rax
	call	_ZNSt16reverse_iteratorIN9__gnu_cxx17__normal_iteratorIPSt4pairIiiESt6vectorIS3_SaIS3_EEEEEC1ERKS9_
	mov	rdx, QWORD PTR -48[rbp]
	lea	rax, -24[rbp]
	mov	rsi, rdx
	mov	rdi, rax
	call	_ZNSt16reverse_iteratorIN9__gnu_cxx17__normal_iteratorIPSt4pairIiiESt6vectorIS3_SaIS3_EEEEEC1ERKS9_
	lea	rdx, -16[rbp]
	lea	rcx, -24[rbp]
	lea	rax, -65[rbp]
	mov	rsi, rcx
	mov	rdi, rax
	call	_ZNK9__gnu_cxx5__ops15_Iter_less_iterclISt16reverse_iteratorINS_17__normal_iteratorIPSt4pairIiiESt6vectorIS6_SaIS6_EEEEESC_EEbT_T0_
	test	al, al
	jne	.L417
	mov	rax, QWORD PTR -56[rbp]
	mov	rdi, rax
	call	_ZNSt16reverse_iteratorIN9__gnu_cxx17__normal_iteratorIPSt4pairIiiESt6vectorIS3_SaIS3_EEEEEmmEv
	jmp	.L418
.L419:
	mov	rax, QWORD PTR -56[rbp]
	mov	rdi, rax
	call	_ZNSt16reverse_iteratorIN9__gnu_cxx17__normal_iteratorIPSt4pairIiiESt6vectorIS3_SaIS3_EEEEEmmEv
.L418:
	mov	rdx, QWORD PTR -56[rbp]
	lea	rax, -16[rbp]
	mov	rsi, rdx
	mov	rdi, rax
	call	_ZNSt16reverse_iteratorIN9__gnu_cxx17__normal_iteratorIPSt4pairIiiESt6vectorIS3_SaIS3_EEEEEC1ERKS9_
	mov	rdx, QWORD PTR -64[rbp]
	lea	rax, -24[rbp]
	mov	rsi, rdx
	mov	rdi, rax
	call	_ZNSt16reverse_iteratorIN9__gnu_cxx17__normal_iteratorIPSt4pairIiiESt6vectorIS3_SaIS3_EEEEEC1ERKS9_
	lea	rdx, -16[rbp]
	lea	rcx, -24[rbp]
	lea	rax, -65[rbp]
	mov	rsi, rcx
	mov	rdi, rax
	call	_ZNK9__gnu_cxx5__ops15_Iter_less_iterclISt16reverse_iteratorINS_17__normal_iteratorIPSt4pairIiiESt6vectorIS6_SaIS6_EEEEESC_EEbT_T0_
	test	al, al
	jne	.L419
	mov	rdx, QWORD PTR -56[rbp]
	mov	rax, QWORD PTR -48[rbp]
	mov	rsi, rdx
	mov	rdi, rax
	call	_ZStltIN9__gnu_cxx17__normal_iteratorIPSt4pairIiiESt6vectorIS3_SaIS3_EEEEEbRKSt16reverse_iteratorIT_ESD_
	xor	eax, 1
	test	al, al
	je	.L420
	mov	rdx, QWORD PTR -48[rbp]
	mov	rax, QWORD PTR -40[rbp]
	mov	rsi, rdx
	mov	rdi, rax
	call	_ZNSt16reverse_iteratorIN9__gnu_cxx17__normal_iteratorIPSt4pairIiiESt6vectorIS3_SaIS3_EEEEEC1ERKS9_
	mov	rax, QWORD PTR -8[rbp]
	sub	rax, QWORD PTR fs:40
	je	.L423
	jmp	.L424
.L420:
	mov	rdx, QWORD PTR -56[rbp]
	lea	rax, -16[rbp]
	mov	rsi, rdx
	mov	rdi, rax
	call	_ZNSt16reverse_iteratorIN9__gnu_cxx17__normal_iteratorIPSt4pairIiiESt6vectorIS3_SaIS3_EEEEEC1ERKS9_
	mov	rdx, QWORD PTR -48[rbp]
	lea	rax, -24[rbp]
	mov	rsi, rdx
	mov	rdi, rax
	call	_ZNSt16reverse_iteratorIN9__gnu_cxx17__normal_iteratorIPSt4pairIiiESt6vectorIS3_SaIS3_EEEEEC1ERKS9_
	lea	rdx, -16[rbp]
	lea	rax, -24[rbp]
	mov	rsi, rdx
	mov	rdi, rax
	call	_ZSt9iter_swapISt16reverse_iteratorIN9__gnu_cxx17__normal_iteratorIPSt4pairIiiESt6vectorIS4_SaIS4_EEEEESA_EvT_T0_
	mov	rax, QWORD PTR -48[rbp]
	mov	rdi, rax
	call	_ZNSt16reverse_iteratorIN9__gnu_cxx17__normal_iteratorIPSt4pairIiiESt6vectorIS3_SaIS3_EEEEEppEv
	jmp	.L416
.L424:
	call	__stack_chk_fail@PLT
.L423:
	mov	rax, QWORD PTR -40[rbp]
	leave
	.cfi_def_cfa 7, 8
	ret
	.cfi_endproc
.LFE11410:
	.size	_ZSt21__unguarded_partitionISt16reverse_iteratorIN9__gnu_cxx17__normal_iteratorIPSt4pairIiiESt6vectorIS4_SaIS4_EEEEENS1_5__ops15_Iter_less_iterEET_SD_SD_SD_T0_, .-_ZSt21__unguarded_partitionISt16reverse_iteratorIN9__gnu_cxx17__normal_iteratorIPSt4pairIiiESt6vectorIS4_SaIS4_EEEEENS1_5__ops15_Iter_less_iterEET_SD_SD_SD_T0_
	.section	.text._ZN9__gnu_cxx17__normal_iteratorIPSt4pairIiiESt6vectorIS2_SaIS2_EEEmmEv,"axG",@progbits,_ZN9__gnu_cxx17__normal_iteratorIPSt4pairIiiESt6vectorIS2_SaIS2_EEEmmEv,comdat
	.align 2
	.weak	_ZN9__gnu_cxx17__normal_iteratorIPSt4pairIiiESt6vectorIS2_SaIS2_EEEmmEv
	.type	_ZN9__gnu_cxx17__normal_iteratorIPSt4pairIiiESt6vectorIS2_SaIS2_EEEmmEv, @function
_ZN9__gnu_cxx17__normal_iteratorIPSt4pairIiiESt6vectorIS2_SaIS2_EEEmmEv:
.LFB11412:
	.cfi_startproc
	endbr64
	push	rbp
	.cfi_def_cfa_offset 16
	.cfi_offset 6, -16
	mov	rbp, rsp
	.cfi_def_cfa_register 6
	mov	QWORD PTR -8[rbp], rdi
	mov	rax, QWORD PTR -8[rbp]
	mov	rax, QWORD PTR [rax]
	lea	rdx, -8[rax]
	mov	rax, QWORD PTR -8[rbp]
	mov	QWORD PTR [rax], rdx
	mov	rax, QWORD PTR -8[rbp]
	pop	rbp
	.cfi_def_cfa 7, 8
	ret
	.cfi_endproc
.LFE11412:
	.size	_ZN9__gnu_cxx17__normal_iteratorIPSt4pairIiiESt6vectorIS2_SaIS2_EEEmmEv, .-_ZN9__gnu_cxx17__normal_iteratorIPSt4pairIiiESt6vectorIS2_SaIS2_EEEmmEv
	.section	.text._ZStltIiiEbRKSt4pairIT_T0_ES5_,"axG",@progbits,_ZStltIiiEbRKSt4pairIT_T0_ES5_,comdat
	.weak	_ZStltIiiEbRKSt4pairIT_T0_ES5_
	.type	_ZStltIiiEbRKSt4pairIT_T0_ES5_, @function
_ZStltIiiEbRKSt4pairIT_T0_ES5_:
.LFB11413:
	.cfi_startproc
	endbr64
	push	rbp
	.cfi_def_cfa_offset 16
	.cfi_offset 6, -16
	mov	rbp, rsp
	.cfi_def_cfa_register 6
	mov	QWORD PTR -8[rbp], rdi
	mov	QWORD PTR -16[rbp], rsi
	mov	rax, QWORD PTR -8[rbp]
	mov	edx, DWORD PTR [rax]
	mov	rax, QWORD PTR -16[rbp]
	mov	eax, DWORD PTR [rax]
	cmp	edx, eax
	jl	.L428
	mov	rax, QWORD PTR -16[rbp]
	mov	edx, DWORD PTR [rax]
	mov	rax, QWORD PTR -8[rbp]
	mov	eax, DWORD PTR [rax]
	cmp	edx, eax
	jl	.L429
	mov	rax, QWORD PTR -8[rbp]
	mov	edx, DWORD PTR 4[rax]
	mov	rax, QWORD PTR -16[rbp]
	mov	eax, DWORD PTR 4[rax]
	cmp	edx, eax
	jge	.L429
.L428:
	mov	eax, 1
	jmp	.L430
.L429:
	mov	eax, 0
.L430:
	pop	rbp
	.cfi_def_cfa 7, 8
	ret
	.cfi_endproc
.LFE11413:
	.size	_ZStltIiiEbRKSt4pairIT_T0_ES5_, .-_ZStltIiiEbRKSt4pairIT_T0_ES5_
	.section	.text._ZNK9__gnu_cxx17__normal_iteratorIPSt4pairIiiESt6vectorIS2_SaIS2_EEEdeEv,"axG",@progbits,_ZNK9__gnu_cxx17__normal_iteratorIPSt4pairIiiESt6vectorIS2_SaIS2_EEEdeEv,comdat
	.align 2
	.weak	_ZNK9__gnu_cxx17__normal_iteratorIPSt4pairIiiESt6vectorIS2_SaIS2_EEEdeEv
	.type	_ZNK9__gnu_cxx17__normal_iteratorIPSt4pairIiiESt6vectorIS2_SaIS2_EEEdeEv, @function
_ZNK9__gnu_cxx17__normal_iteratorIPSt4pairIiiESt6vectorIS2_SaIS2_EEEdeEv:
.LFB11414:
	.cfi_startproc
	endbr64
	push	rbp
	.cfi_def_cfa_offset 16
	.cfi_offset 6, -16
	mov	rbp, rsp
	.cfi_def_cfa_register 6
	mov	QWORD PTR -8[rbp], rdi
	mov	rax, QWORD PTR -8[rbp]
	mov	rax, QWORD PTR [rax]
	pop	rbp
	.cfi_def_cfa 7, 8
	ret
	.cfi_endproc
.LFE11414:
	.size	_ZNK9__gnu_cxx17__normal_iteratorIPSt4pairIiiESt6vectorIS2_SaIS2_EEEdeEv, .-_ZNK9__gnu_cxx17__normal_iteratorIPSt4pairIiiESt6vectorIS2_SaIS2_EEEdeEv
	.section	.text._ZSt13move_backwardISt16reverse_iteratorIN9__gnu_cxx17__normal_iteratorIPSt4pairIiiESt6vectorIS4_SaIS4_EEEEESA_ET0_T_SC_SB_,"axG",@progbits,_ZSt13move_backwardISt16reverse_iteratorIN9__gnu_cxx17__normal_iteratorIPSt4pairIiiESt6vectorIS4_SaIS4_EEEEESA_ET0_T_SC_SB_,comdat
	.weak	_ZSt13move_backwardISt16reverse_iteratorIN9__gnu_cxx17__normal_iteratorIPSt4pairIiiESt6vectorIS4_SaIS4_EEEEESA_ET0_T_SC_SB_
	.type	_ZSt13move_backwardISt16reverse_iteratorIN9__gnu_cxx17__normal_iteratorIPSt4pairIiiESt6vectorIS4_SaIS4_EEEEESA_ET0_T_SC_SB_, @function
_ZSt13move_backwardISt16reverse_iteratorIN9__gnu_cxx17__normal_iteratorIPSt4pairIiiESt6vectorIS4_SaIS4_EEEEESA_ET0_T_SC_SB_:
.LFB11415:
	.cfi_startproc
	endbr64
	push	rbp
	.cfi_def_cfa_offset 16
	.cfi_offset 6, -16
	mov	rbp, rsp
	.cfi_def_cfa_register 6
	sub	rsp, 80
	mov	QWORD PTR -56[rbp], rdi
	mov	QWORD PTR -64[rbp], rsi
	mov	QWORD PTR -72[rbp], rdx
	mov	QWORD PTR -80[rbp], rcx
	mov	rax, QWORD PTR fs:40
	mov	QWORD PTR -8[rbp], rax
	xor	eax, eax
	mov	rdx, QWORD PTR -80[rbp]
	lea	rax, -16[rbp]
	mov	rsi, rdx
	mov	rdi, rax
	call	_ZNSt16reverse_iteratorIN9__gnu_cxx17__normal_iteratorIPSt4pairIiiESt6vectorIS3_SaIS3_EEEEEC1ERKS9_
	mov	rdx, QWORD PTR -72[rbp]
	lea	rax, -32[rbp]
	mov	rsi, rdx
	mov	rdi, rax
	call	_ZNSt16reverse_iteratorIN9__gnu_cxx17__normal_iteratorIPSt4pairIiiESt6vectorIS3_SaIS3_EEEEEC1ERKS9_
	lea	rax, -24[rbp]
	lea	rdx, -32[rbp]
	mov	rsi, rdx
	mov	rdi, rax
	call	_ZSt12__miter_baseIN9__gnu_cxx17__normal_iteratorIPSt4pairIiiESt6vectorIS3_SaIS3_EEEEEDTcl23__make_reverse_iteratorcl12__miter_basecldtfp_4baseEEEESt16reverse_iteratorIT_E
	mov	rdx, QWORD PTR -64[rbp]
	lea	rax, -48[rbp]
	mov	rsi, rdx
	mov	rdi, rax
	call	_ZNSt16reverse_iteratorIN9__gnu_cxx17__normal_iteratorIPSt4pairIiiESt6vectorIS3_SaIS3_EEEEEC1ERKS9_
	lea	rax, -40[rbp]
	lea	rdx, -48[rbp]
	mov	rsi, rdx
	mov	rdi, rax
	call	_ZSt12__miter_baseIN9__gnu_cxx17__normal_iteratorIPSt4pairIiiESt6vectorIS3_SaIS3_EEEEEDTcl23__make_reverse_iteratorcl12__miter_basecldtfp_4baseEEEESt16reverse_iteratorIT_E
	mov	rax, QWORD PTR -56[rbp]
	lea	rcx, -16[rbp]
	lea	rdx, -24[rbp]
	lea	rsi, -40[rbp]
	mov	rdi, rax
	call	_ZSt22__copy_move_backward_aILb1ESt16reverse_iteratorIN9__gnu_cxx17__normal_iteratorIPSt4pairIiiESt6vectorIS4_SaIS4_EEEEESA_ET1_T0_SC_SB_
	mov	rax, QWORD PTR -8[rbp]
	sub	rax, QWORD PTR fs:40
	je	.L436
	call	__stack_chk_fail@PLT
.L436:
	mov	rax, QWORD PTR -56[rbp]
	leave
	.cfi_def_cfa 7, 8
	ret
	.cfi_endproc
.LFE11415:
	.size	_ZSt13move_backwardISt16reverse_iteratorIN9__gnu_cxx17__normal_iteratorIPSt4pairIiiESt6vectorIS4_SaIS4_EEEEESA_ET0_T_SC_SB_, .-_ZSt13move_backwardISt16reverse_iteratorIN9__gnu_cxx17__normal_iteratorIPSt4pairIiiESt6vectorIS4_SaIS4_EEEEESA_ET0_T_SC_SB_
	.section	.text._ZNSt4pairIiiEaSEOS0_,"axG",@progbits,_ZNSt4pairIiiEaSEOS0_,comdat
	.align 2
	.weak	_ZNSt4pairIiiEaSEOS0_
	.type	_ZNSt4pairIiiEaSEOS0_, @function
_ZNSt4pairIiiEaSEOS0_:
.LFB11416:
	.cfi_startproc
	endbr64
	push	rbp
	.cfi_def_cfa_offset 16
	.cfi_offset 6, -16
	mov	rbp, rsp
	.cfi_def_cfa_register 6
	sub	rsp, 16
	mov	QWORD PTR -8[rbp], rdi
	mov	QWORD PTR -16[rbp], rsi
	mov	rax, QWORD PTR -16[rbp]
	mov	rdi, rax
	call	_ZSt7forwardIiEOT_RNSt16remove_referenceIS0_E4typeE
	mov	edx, DWORD PTR [rax]
	mov	rax, QWORD PTR -8[rbp]
	mov	DWORD PTR [rax], edx
	mov	rax, QWORD PTR -16[rbp]
	add	rax, 4
	mov	rdi, rax
	call	_ZSt7forwardIiEOT_RNSt16remove_referenceIS0_E4typeE
	mov	edx, DWORD PTR [rax]
	mov	rax, QWORD PTR -8[rbp]
	mov	DWORD PTR 4[rax], edx
	mov	rax, QWORD PTR -8[rbp]
	leave
	.cfi_def_cfa 7, 8
	ret
	.cfi_endproc
.LFE11416:
	.size	_ZNSt4pairIiiEaSEOS0_, .-_ZNSt4pairIiiEaSEOS0_
	.section	.text._ZSt25__unguarded_linear_insertISt16reverse_iteratorIN9__gnu_cxx17__normal_iteratorIPSt4pairIiiESt6vectorIS4_SaIS4_EEEEENS1_5__ops14_Val_less_iterEEvT_T0_,"axG",@progbits,_ZSt25__unguarded_linear_insertISt16reverse_iteratorIN9__gnu_cxx17__normal_iteratorIPSt4pairIiiESt6vectorIS4_SaIS4_EEEEENS1_5__ops14_Val_less_iterEEvT_T0_,comdat
	.weak	_ZSt25__unguarded_linear_insertISt16reverse_iteratorIN9__gnu_cxx17__normal_iteratorIPSt4pairIiiESt6vectorIS4_SaIS4_EEEEENS1_5__ops14_Val_less_iterEEvT_T0_
	.type	_ZSt25__unguarded_linear_insertISt16reverse_iteratorIN9__gnu_cxx17__normal_iteratorIPSt4pairIiiESt6vectorIS4_SaIS4_EEEEENS1_5__ops14_Val_less_iterEEvT_T0_, @function
_ZSt25__unguarded_linear_insertISt16reverse_iteratorIN9__gnu_cxx17__normal_iteratorIPSt4pairIiiESt6vectorIS4_SaIS4_EEEEENS1_5__ops14_Val_less_iterEEvT_T0_:
.LFB11417:
	.cfi_startproc
	endbr64
	push	rbp
	.cfi_def_cfa_offset 16
	.cfi_offset 6, -16
	mov	rbp, rsp
	.cfi_def_cfa_register 6
	push	rbx
	sub	rsp, 56
	.cfi_offset 3, -24
	mov	QWORD PTR -56[rbp], rdi
	mov	rax, QWORD PTR fs:40
	mov	QWORD PTR -24[rbp], rax
	xor	eax, eax
	mov	rax, QWORD PTR -56[rbp]
	mov	rdi, rax
	call	_ZNKSt16reverse_iteratorIN9__gnu_cxx17__normal_iteratorIPSt4pairIiiESt6vectorIS3_SaIS3_EEEEEdeEv
	mov	rdi, rax
	call	_ZSt4moveIRSt4pairIiiEEONSt16remove_referenceIT_E4typeEOS4_
	mov	rax, QWORD PTR [rax]
	mov	QWORD PTR -32[rbp], rax
	mov	rdx, QWORD PTR -56[rbp]
	lea	rax, -48[rbp]
	mov	rsi, rdx
	mov	rdi, rax
	call	_ZNSt16reverse_iteratorIN9__gnu_cxx17__normal_iteratorIPSt4pairIiiESt6vectorIS3_SaIS3_EEEEEC1ERKS9_
	lea	rax, -48[rbp]
	mov	rdi, rax
	call	_ZNSt16reverse_iteratorIN9__gnu_cxx17__normal_iteratorIPSt4pairIiiESt6vectorIS3_SaIS3_EEEEEmmEv
	jmp	.L440
.L441:
	lea	rax, -48[rbp]
	mov	rdi, rax
	call	_ZNKSt16reverse_iteratorIN9__gnu_cxx17__normal_iteratorIPSt4pairIiiESt6vectorIS3_SaIS3_EEEEEdeEv
	mov	rdi, rax
	call	_ZSt4moveIRSt4pairIiiEEONSt16remove_referenceIT_E4typeEOS4_
	mov	rbx, rax
	mov	rax, QWORD PTR -56[rbp]
	mov	rdi, rax
	call	_ZNKSt16reverse_iteratorIN9__gnu_cxx17__normal_iteratorIPSt4pairIiiESt6vectorIS3_SaIS3_EEEEEdeEv
	mov	rsi, rbx
	mov	rdi, rax
	call	_ZNSt4pairIiiEaSEOS0_
	mov	rax, QWORD PTR -56[rbp]
	mov	rdx, QWORD PTR -48[rbp]
	mov	QWORD PTR [rax], rdx
	lea	rax, -48[rbp]
	mov	rdi, rax
	call	_ZNSt16reverse_iteratorIN9__gnu_cxx17__normal_iteratorIPSt4pairIiiESt6vectorIS3_SaIS3_EEEEEmmEv
.L440:
	lea	rdx, -48[rbp]
	lea	rax, -40[rbp]
	mov	rsi, rdx
	mov	rdi, rax
	call	_ZNSt16reverse_iteratorIN9__gnu_cxx17__normal_iteratorIPSt4pairIiiESt6vectorIS3_SaIS3_EEEEEC1ERKS9_
	lea	rdx, -40[rbp]
	lea	rcx, -32[rbp]
	lea	rax, -57[rbp]
	mov	rsi, rcx
	mov	rdi, rax
	call	_ZNK9__gnu_cxx5__ops14_Val_less_iterclISt4pairIiiESt16reverse_iteratorINS_17__normal_iteratorIPS4_St6vectorIS4_SaIS4_EEEEEEEbRT_T0_
	test	al, al
	jne	.L441
	lea	rax, -32[rbp]
	mov	rdi, rax
	call	_ZSt4moveIRSt4pairIiiEEONSt16remove_referenceIT_E4typeEOS4_
	mov	rbx, rax
	mov	rax, QWORD PTR -56[rbp]
	mov	rdi, rax
	call	_ZNKSt16reverse_iteratorIN9__gnu_cxx17__normal_iteratorIPSt4pairIiiESt6vectorIS3_SaIS3_EEEEEdeEv
	mov	rsi, rbx
	mov	rdi, rax
	call	_ZNSt4pairIiiEaSEOS0_
	nop
	mov	rax, QWORD PTR -24[rbp]
	sub	rax, QWORD PTR fs:40
	je	.L442
	call	__stack_chk_fail@PLT
.L442:
	mov	rbx, QWORD PTR -8[rbp]
	leave
	.cfi_def_cfa 7, 8
	ret
	.cfi_endproc
.LFE11417:
	.size	_ZSt25__unguarded_linear_insertISt16reverse_iteratorIN9__gnu_cxx17__normal_iteratorIPSt4pairIiiESt6vectorIS4_SaIS4_EEEEENS1_5__ops14_Val_less_iterEEvT_T0_, .-_ZSt25__unguarded_linear_insertISt16reverse_iteratorIN9__gnu_cxx17__normal_iteratorIPSt4pairIiiESt6vectorIS4_SaIS4_EEEEENS1_5__ops14_Val_less_iterEEvT_T0_
	.section	.text._ZNSt6vectorIxSaIxEE11_S_max_sizeERKS0_,"axG",@progbits,_ZNSt6vectorIxSaIxEE11_S_max_sizeERKS0_,comdat
	.weak	_ZNSt6vectorIxSaIxEE11_S_max_sizeERKS0_
	.type	_ZNSt6vectorIxSaIxEE11_S_max_sizeERKS0_, @function
_ZNSt6vectorIxSaIxEE11_S_max_sizeERKS0_:
.LFB11523:
	.cfi_startproc
	endbr64
	push	rbp
	.cfi_def_cfa_offset 16
	.cfi_offset 6, -16
	mov	rbp, rsp
	.cfi_def_cfa_register 6
	sub	rsp, 48
	mov	QWORD PTR -40[rbp], rdi
	mov	rax, QWORD PTR fs:40
	mov	QWORD PTR -8[rbp], rax
	xor	eax, eax
	movabs	rax, 1152921504606846975
	mov	QWORD PTR -24[rbp], rax
	mov	rax, QWORD PTR -40[rbp]
	mov	rdi, rax
	call	_ZNSt16allocator_traitsISaIxEE8max_sizeERKS0_
	mov	QWORD PTR -16[rbp], rax
	lea	rdx, -16[rbp]
	lea	rax, -24[rbp]
	mov	rsi, rdx
	mov	rdi, rax
	call	_ZSt3minImERKT_S2_S2_
	mov	rax, QWORD PTR [rax]
	mov	rdx, QWORD PTR -8[rbp]
	sub	rdx, QWORD PTR fs:40
	je	.L445
	call	__stack_chk_fail@PLT
.L445:
	leave
	.cfi_def_cfa 7, 8
	ret
	.cfi_endproc
.LFE11523:
	.size	_ZNSt6vectorIxSaIxEE11_S_max_sizeERKS0_, .-_ZNSt6vectorIxSaIxEE11_S_max_sizeERKS0_
	.section	.text._ZNKSt12_Vector_baseIxSaIxEE19_M_get_Tp_allocatorEv,"axG",@progbits,_ZNKSt12_Vector_baseIxSaIxEE19_M_get_Tp_allocatorEv,comdat
	.align 2
	.weak	_ZNKSt12_Vector_baseIxSaIxEE19_M_get_Tp_allocatorEv
	.type	_ZNKSt12_Vector_baseIxSaIxEE19_M_get_Tp_allocatorEv, @function
_ZNKSt12_Vector_baseIxSaIxEE19_M_get_Tp_allocatorEv:
.LFB11524:
	.cfi_startproc
	endbr64
	push	rbp
	.cfi_def_cfa_offset 16
	.cfi_offset 6, -16
	mov	rbp, rsp
	.cfi_def_cfa_register 6
	mov	QWORD PTR -8[rbp], rdi
	mov	rax, QWORD PTR -8[rbp]
	pop	rbp
	.cfi_def_cfa 7, 8
	ret
	.cfi_endproc
.LFE11524:
	.size	_ZNKSt12_Vector_baseIxSaIxEE19_M_get_Tp_allocatorEv, .-_ZNKSt12_Vector_baseIxSaIxEE19_M_get_Tp_allocatorEv
	.section	.text._ZNK9__gnu_cxx13new_allocatorIxE11_M_max_sizeEv,"axG",@progbits,_ZNK9__gnu_cxx13new_allocatorIxE11_M_max_sizeEv,comdat
	.align 2
	.weak	_ZNK9__gnu_cxx13new_allocatorIxE11_M_max_sizeEv
	.type	_ZNK9__gnu_cxx13new_allocatorIxE11_M_max_sizeEv, @function
_ZNK9__gnu_cxx13new_allocatorIxE11_M_max_sizeEv:
.LFB11526:
	.cfi_startproc
	endbr64
	push	rbp
	.cfi_def_cfa_offset 16
	.cfi_offset 6, -16
	mov	rbp, rsp
	.cfi_def_cfa_register 6
	mov	QWORD PTR -8[rbp], rdi
	movabs	rax, 1152921504606846975
	pop	rbp
	.cfi_def_cfa 7, 8
	ret
	.cfi_endproc
.LFE11526:
	.size	_ZNK9__gnu_cxx13new_allocatorIxE11_M_max_sizeEv, .-_ZNK9__gnu_cxx13new_allocatorIxE11_M_max_sizeEv
	.section	.text._ZN9__gnu_cxx13new_allocatorIxE8allocateEmPKv,"axG",@progbits,_ZN9__gnu_cxx13new_allocatorIxE8allocateEmPKv,comdat
	.align 2
	.weak	_ZN9__gnu_cxx13new_allocatorIxE8allocateEmPKv
	.type	_ZN9__gnu_cxx13new_allocatorIxE8allocateEmPKv, @function
_ZN9__gnu_cxx13new_allocatorIxE8allocateEmPKv:
.LFB11525:
	.cfi_startproc
	endbr64
	push	rbp
	.cfi_def_cfa_offset 16
	.cfi_offset 6, -16
	mov	rbp, rsp
	.cfi_def_cfa_register 6
	sub	rsp, 32
	mov	QWORD PTR -8[rbp], rdi
	mov	QWORD PTR -16[rbp], rsi
	mov	QWORD PTR -24[rbp], rdx
	mov	rax, QWORD PTR -8[rbp]
	mov	rdi, rax
	call	_ZNK9__gnu_cxx13new_allocatorIxE11_M_max_sizeEv
	cmp	QWORD PTR -16[rbp], rax
	seta	al
	movzx	eax, al
	test	rax, rax
	setne	al
	test	al, al
	je	.L451
	movabs	rax, 2305843009213693951
	cmp	QWORD PTR -16[rbp], rax
	jbe	.L452
	call	_ZSt28__throw_bad_array_new_lengthv@PLT
.L452:
	call	_ZSt17__throw_bad_allocv@PLT
.L451:
	mov	rax, QWORD PTR -16[rbp]
	sal	rax, 3
	mov	rdi, rax
	call	_Znwm@PLT
	nop
	leave
	.cfi_def_cfa 7, 8
	ret
	.cfi_endproc
.LFE11525:
	.size	_ZN9__gnu_cxx13new_allocatorIxE8allocateEmPKv, .-_ZN9__gnu_cxx13new_allocatorIxE8allocateEmPKv
	.section	.text._ZSt12__relocate_aIPxS0_SaIxEET0_T_S3_S2_RT1_,"axG",@progbits,_ZSt12__relocate_aIPxS0_SaIxEET0_T_S3_S2_RT1_,comdat
	.weak	_ZSt12__relocate_aIPxS0_SaIxEET0_T_S3_S2_RT1_
	.type	_ZSt12__relocate_aIPxS0_SaIxEET0_T_S3_S2_RT1_, @function
_ZSt12__relocate_aIPxS0_SaIxEET0_T_S3_S2_RT1_:
.LFB11527:
	.cfi_startproc
	endbr64
	push	rbp
	.cfi_def_cfa_offset 16
	.cfi_offset 6, -16
	mov	rbp, rsp
	.cfi_def_cfa_register 6
	push	r12
	push	rbx
	sub	rsp, 32
	.cfi_offset 12, -24
	.cfi_offset 3, -32
	mov	QWORD PTR -24[rbp], rdi
	mov	QWORD PTR -32[rbp], rsi
	mov	QWORD PTR -40[rbp], rdx
	mov	QWORD PTR -48[rbp], rcx
	mov	rax, QWORD PTR -40[rbp]
	mov	rdi, rax
	call	_ZSt12__niter_baseIPxET_S1_
	mov	r12, rax
	mov	rax, QWORD PTR -32[rbp]
	mov	rdi, rax
	call	_ZSt12__niter_baseIPxET_S1_
	mov	rbx, rax
	mov	rax, QWORD PTR -24[rbp]
	mov	rdi, rax
	call	_ZSt12__niter_baseIPxET_S1_
	mov	rdi, rax
	mov	rax, QWORD PTR -48[rbp]
	mov	rcx, rax
	mov	rdx, r12
	mov	rsi, rbx
	call	_ZSt14__relocate_a_1IxxENSt9enable_ifIXsrSt24__is_bitwise_relocatableIT_vE5valueEPS2_E4typeES4_S4_S4_RSaIT0_E
	add	rsp, 32
	pop	rbx
	pop	r12
	pop	rbp
	.cfi_def_cfa 7, 8
	ret
	.cfi_endproc
.LFE11527:
	.size	_ZSt12__relocate_aIPxS0_SaIxEET0_T_S3_S2_RT1_, .-_ZSt12__relocate_aIPxS0_SaIxEET0_T_S3_S2_RT1_
	.section	.text._ZNSt12_Destroy_auxILb1EE9__destroyIPxEEvT_S3_,"axG",@progbits,_ZNSt12_Destroy_auxILb1EE9__destroyIPxEEvT_S3_,comdat
	.weak	_ZNSt12_Destroy_auxILb1EE9__destroyIPxEEvT_S3_
	.type	_ZNSt12_Destroy_auxILb1EE9__destroyIPxEEvT_S3_, @function
_ZNSt12_Destroy_auxILb1EE9__destroyIPxEEvT_S3_:
.LFB11528:
	.cfi_startproc
	endbr64
	push	rbp
	.cfi_def_cfa_offset 16
	.cfi_offset 6, -16
	mov	rbp, rsp
	.cfi_def_cfa_register 6
	mov	QWORD PTR -8[rbp], rdi
	mov	QWORD PTR -16[rbp], rsi
	nop
	pop	rbp
	.cfi_def_cfa 7, 8
	ret
	.cfi_endproc
.LFE11528:
	.size	_ZNSt12_Destroy_auxILb1EE9__destroyIPxEEvT_S3_, .-_ZNSt12_Destroy_auxILb1EE9__destroyIPxEEvT_S3_
	.section	.text._ZNK9__gnu_cxx13new_allocatorISt4pairIiiEE11_M_max_sizeEv,"axG",@progbits,_ZNK9__gnu_cxx13new_allocatorISt4pairIiiEE11_M_max_sizeEv,comdat
	.align 2
	.weak	_ZNK9__gnu_cxx13new_allocatorISt4pairIiiEE11_M_max_sizeEv
	.type	_ZNK9__gnu_cxx13new_allocatorISt4pairIiiEE11_M_max_sizeEv, @function
_ZNK9__gnu_cxx13new_allocatorISt4pairIiiEE11_M_max_sizeEv:
.LFB11529:
	.cfi_startproc
	endbr64
	push	rbp
	.cfi_def_cfa_offset 16
	.cfi_offset 6, -16
	mov	rbp, rsp
	.cfi_def_cfa_register 6
	mov	QWORD PTR -8[rbp], rdi
	movabs	rax, 1152921504606846975
	pop	rbp
	.cfi_def_cfa 7, 8
	ret
	.cfi_endproc
.LFE11529:
	.size	_ZNK9__gnu_cxx13new_allocatorISt4pairIiiEE11_M_max_sizeEv, .-_ZNK9__gnu_cxx13new_allocatorISt4pairIiiEE11_M_max_sizeEv
	.section	.text._ZN9__gnu_cxx13new_allocatorISt4pairIiiEE8allocateEmPKv,"axG",@progbits,_ZN9__gnu_cxx13new_allocatorISt4pairIiiEE8allocateEmPKv,comdat
	.align 2
	.weak	_ZN9__gnu_cxx13new_allocatorISt4pairIiiEE8allocateEmPKv
	.type	_ZN9__gnu_cxx13new_allocatorISt4pairIiiEE8allocateEmPKv, @function
_ZN9__gnu_cxx13new_allocatorISt4pairIiiEE8allocateEmPKv:
.LFB11530:
	.cfi_startproc
	endbr64
	push	rbp
	.cfi_def_cfa_offset 16
	.cfi_offset 6, -16
	mov	rbp, rsp
	.cfi_def_cfa_register 6
	sub	rsp, 32
	mov	QWORD PTR -8[rbp], rdi
	mov	QWORD PTR -16[rbp], rsi
	mov	QWORD PTR -24[rbp], rdx
	mov	rax, QWORD PTR -8[rbp]
	mov	rdi, rax
	call	_ZNK9__gnu_cxx13new_allocatorISt4pairIiiEE11_M_max_sizeEv
	cmp	QWORD PTR -16[rbp], rax
	seta	al
	movzx	eax, al
	test	rax, rax
	setne	al
	test	al, al
	je	.L460
	movabs	rax, 2305843009213693951
	cmp	QWORD PTR -16[rbp], rax
	jbe	.L461
	call	_ZSt28__throw_bad_array_new_lengthv@PLT
.L461:
	call	_ZSt17__throw_bad_allocv@PLT
.L460:
	mov	rax, QWORD PTR -16[rbp]
	sal	rax, 3
	mov	rdi, rax
	call	_Znwm@PLT
	nop
	leave
	.cfi_def_cfa 7, 8
	ret
	.cfi_endproc
.LFE11530:
	.size	_ZN9__gnu_cxx13new_allocatorISt4pairIiiEE8allocateEmPKv, .-_ZN9__gnu_cxx13new_allocatorISt4pairIiiEE8allocateEmPKv
	.section	.text._ZSt11__addressofISt4pairIiiEEPT_RS2_,"axG",@progbits,_ZSt11__addressofISt4pairIiiEEPT_RS2_,comdat
	.weak	_ZSt11__addressofISt4pairIiiEEPT_RS2_
	.type	_ZSt11__addressofISt4pairIiiEEPT_RS2_, @function
_ZSt11__addressofISt4pairIiiEEPT_RS2_:
.LFB11531:
	.cfi_startproc
	endbr64
	push	rbp
	.cfi_def_cfa_offset 16
	.cfi_offset 6, -16
	mov	rbp, rsp
	.cfi_def_cfa_register 6
	mov	QWORD PTR -8[rbp], rdi
	mov	rax, QWORD PTR -8[rbp]
	pop	rbp
	.cfi_def_cfa 7, 8
	ret
	.cfi_endproc
.LFE11531:
	.size	_ZSt11__addressofISt4pairIiiEEPT_RS2_, .-_ZSt11__addressofISt4pairIiiEEPT_RS2_
	.section	.text._ZSt10_ConstructISt4pairIiiEJEEvPT_DpOT0_,"axG",@progbits,_ZSt10_ConstructISt4pairIiiEJEEvPT_DpOT0_,comdat
	.weak	_ZSt10_ConstructISt4pairIiiEJEEvPT_DpOT0_
	.type	_ZSt10_ConstructISt4pairIiiEJEEvPT_DpOT0_, @function
_ZSt10_ConstructISt4pairIiiEJEEvPT_DpOT0_:
.LFB11532:
	.cfi_startproc
	endbr64
	push	rbp
	.cfi_def_cfa_offset 16
	.cfi_offset 6, -16
	mov	rbp, rsp
	.cfi_def_cfa_register 6
	sub	rsp, 16
	mov	QWORD PTR -8[rbp], rdi
	mov	rax, QWORD PTR -8[rbp]
	mov	rsi, rax
	mov	edi, 8
	call	_ZnwmPv
	mov	rdi, rax
	call	_ZNSt4pairIiiEC1IiiLb1EEEv
	nop
	leave
	.cfi_def_cfa 7, 8
	ret
	.cfi_endproc
.LFE11532:
	.size	_ZSt10_ConstructISt4pairIiiEJEEvPT_DpOT0_, .-_ZSt10_ConstructISt4pairIiiEJEEvPT_DpOT0_
	.section	.text._ZSt11__make_heapISt16reverse_iteratorIN9__gnu_cxx17__normal_iteratorIPSt4pairIiiESt6vectorIS4_SaIS4_EEEEENS1_5__ops15_Iter_less_iterEEvT_SD_RT0_,"axG",@progbits,_ZSt11__make_heapISt16reverse_iteratorIN9__gnu_cxx17__normal_iteratorIPSt4pairIiiESt6vectorIS4_SaIS4_EEEEENS1_5__ops15_Iter_less_iterEEvT_SD_RT0_,comdat
	.weak	_ZSt11__make_heapISt16reverse_iteratorIN9__gnu_cxx17__normal_iteratorIPSt4pairIiiESt6vectorIS4_SaIS4_EEEEENS1_5__ops15_Iter_less_iterEEvT_SD_RT0_
	.type	_ZSt11__make_heapISt16reverse_iteratorIN9__gnu_cxx17__normal_iteratorIPSt4pairIiiESt6vectorIS4_SaIS4_EEEEENS1_5__ops15_Iter_less_iterEEvT_SD_RT0_, @function
_ZSt11__make_heapISt16reverse_iteratorIN9__gnu_cxx17__normal_iteratorIPSt4pairIiiESt6vectorIS4_SaIS4_EEEEENS1_5__ops15_Iter_less_iterEEvT_SD_RT0_:
.LFB11533:
	.cfi_startproc
	endbr64
	push	rbp
	.cfi_def_cfa_offset 16
	.cfi_offset 6, -16
	mov	rbp, rsp
	.cfi_def_cfa_register 6
	push	rbx
	sub	rsp, 88
	.cfi_offset 3, -24
	mov	QWORD PTR -72[rbp], rdi
	mov	QWORD PTR -80[rbp], rsi
	mov	QWORD PTR -88[rbp], rdx
	mov	rax, QWORD PTR fs:40
	mov	QWORD PTR -24[rbp], rax
	xor	eax, eax
	mov	rdx, QWORD PTR -72[rbp]
	mov	rax, QWORD PTR -80[rbp]
	mov	rsi, rdx
	mov	rdi, rax
	call	_ZStmiIN9__gnu_cxx17__normal_iteratorIPSt4pairIiiESt6vectorIS3_SaIS3_EEEES8_EDTmicldtfp0_4baseEcldtfp_4baseEERKSt16reverse_iteratorIT_ERKSA_IT0_E
	cmp	rax, 1
	setle	al
	test	al, al
	jne	.L472
	mov	rdx, QWORD PTR -72[rbp]
	mov	rax, QWORD PTR -80[rbp]
	mov	rsi, rdx
	mov	rdi, rax
	call	_ZStmiIN9__gnu_cxx17__normal_iteratorIPSt4pairIiiESt6vectorIS3_SaIS3_EEEES8_EDTmicldtfp0_4baseEcldtfp_4baseEERKSt16reverse_iteratorIT_ERKSA_IT0_E
	mov	QWORD PTR -40[rbp], rax
	mov	rax, QWORD PTR -40[rbp]
	sub	rax, 2
	mov	rdx, rax
	shr	rdx, 63
	add	rax, rdx
	sar	rax
	mov	QWORD PTR -48[rbp], rax
.L470:
	lea	rax, -56[rbp]
	mov	rdx, QWORD PTR -48[rbp]
	mov	rcx, QWORD PTR -72[rbp]
	mov	rsi, rcx
	mov	rdi, rax
	call	_ZNKSt16reverse_iteratorIN9__gnu_cxx17__normal_iteratorIPSt4pairIiiESt6vectorIS3_SaIS3_EEEEEplEl
	lea	rax, -56[rbp]
	mov	rdi, rax
	call	_ZNKSt16reverse_iteratorIN9__gnu_cxx17__normal_iteratorIPSt4pairIiiESt6vectorIS3_SaIS3_EEEEEdeEv
	mov	rdi, rax
	call	_ZSt4moveIRSt4pairIiiEEONSt16remove_referenceIT_E4typeEOS4_
	mov	rax, QWORD PTR [rax]
	mov	QWORD PTR -32[rbp], rax
	lea	rax, -32[rbp]
	mov	rdi, rax
	call	_ZSt4moveIRSt4pairIiiEEONSt16remove_referenceIT_E4typeEOS4_
	mov	rbx, rax
	mov	rdx, QWORD PTR -72[rbp]
	lea	rax, -56[rbp]
	mov	rsi, rdx
	mov	rdi, rax
	call	_ZNSt16reverse_iteratorIN9__gnu_cxx17__normal_iteratorIPSt4pairIiiESt6vectorIS3_SaIS3_EEEEEC1ERKS9_
	mov	rdx, QWORD PTR -40[rbp]
	mov	rsi, QWORD PTR -48[rbp]
	lea	rax, -56[rbp]
	mov	rcx, QWORD PTR [rbx]
	mov	rdi, rax
	call	_ZSt13__adjust_heapISt16reverse_iteratorIN9__gnu_cxx17__normal_iteratorIPSt4pairIiiESt6vectorIS4_SaIS4_EEEEElS4_NS1_5__ops15_Iter_less_iterEEvT_T0_SE_T1_T2_
	cmp	QWORD PTR -48[rbp], 0
	je	.L473
	sub	QWORD PTR -48[rbp], 1
	jmp	.L470
.L472:
	nop
	jmp	.L466
.L473:
	nop
.L466:
	mov	rax, QWORD PTR -24[rbp]
	sub	rax, QWORD PTR fs:40
	je	.L471
	call	__stack_chk_fail@PLT
.L471:
	mov	rbx, QWORD PTR -8[rbp]
	leave
	.cfi_def_cfa 7, 8
	ret
	.cfi_endproc
.LFE11533:
	.size	_ZSt11__make_heapISt16reverse_iteratorIN9__gnu_cxx17__normal_iteratorIPSt4pairIiiESt6vectorIS4_SaIS4_EEEEENS1_5__ops15_Iter_less_iterEEvT_SD_RT0_, .-_ZSt11__make_heapISt16reverse_iteratorIN9__gnu_cxx17__normal_iteratorIPSt4pairIiiESt6vectorIS4_SaIS4_EEEEENS1_5__ops15_Iter_less_iterEEvT_SD_RT0_
	.section	.text._ZSt10__pop_heapISt16reverse_iteratorIN9__gnu_cxx17__normal_iteratorIPSt4pairIiiESt6vectorIS4_SaIS4_EEEEENS1_5__ops15_Iter_less_iterEEvT_SD_SD_RT0_,"axG",@progbits,_ZSt10__pop_heapISt16reverse_iteratorIN9__gnu_cxx17__normal_iteratorIPSt4pairIiiESt6vectorIS4_SaIS4_EEEEENS1_5__ops15_Iter_less_iterEEvT_SD_SD_RT0_,comdat
	.weak	_ZSt10__pop_heapISt16reverse_iteratorIN9__gnu_cxx17__normal_iteratorIPSt4pairIiiESt6vectorIS4_SaIS4_EEEEENS1_5__ops15_Iter_less_iterEEvT_SD_SD_RT0_
	.type	_ZSt10__pop_heapISt16reverse_iteratorIN9__gnu_cxx17__normal_iteratorIPSt4pairIiiESt6vectorIS4_SaIS4_EEEEENS1_5__ops15_Iter_less_iterEEvT_SD_SD_RT0_, @function
_ZSt10__pop_heapISt16reverse_iteratorIN9__gnu_cxx17__normal_iteratorIPSt4pairIiiESt6vectorIS4_SaIS4_EEEEENS1_5__ops15_Iter_less_iterEEvT_SD_SD_RT0_:
.LFB11534:
	.cfi_startproc
	endbr64
	push	rbp
	.cfi_def_cfa_offset 16
	.cfi_offset 6, -16
	mov	rbp, rsp
	.cfi_def_cfa_register 6
	push	r12
	push	rbx
	sub	rsp, 64
	.cfi_offset 12, -24
	.cfi_offset 3, -32
	mov	QWORD PTR -56[rbp], rdi
	mov	QWORD PTR -64[rbp], rsi
	mov	QWORD PTR -72[rbp], rdx
	mov	QWORD PTR -80[rbp], rcx
	mov	rax, QWORD PTR fs:40
	mov	QWORD PTR -24[rbp], rax
	xor	eax, eax
	mov	rax, QWORD PTR -72[rbp]
	mov	rdi, rax
	call	_ZNKSt16reverse_iteratorIN9__gnu_cxx17__normal_iteratorIPSt4pairIiiESt6vectorIS3_SaIS3_EEEEEdeEv
	mov	rdi, rax
	call	_ZSt4moveIRSt4pairIiiEEONSt16remove_referenceIT_E4typeEOS4_
	mov	rax, QWORD PTR [rax]
	mov	QWORD PTR -32[rbp], rax
	mov	rax, QWORD PTR -56[rbp]
	mov	rdi, rax
	call	_ZNKSt16reverse_iteratorIN9__gnu_cxx17__normal_iteratorIPSt4pairIiiESt6vectorIS3_SaIS3_EEEEEdeEv
	mov	rdi, rax
	call	_ZSt4moveIRSt4pairIiiEEONSt16remove_referenceIT_E4typeEOS4_
	mov	rbx, rax
	mov	rax, QWORD PTR -72[rbp]
	mov	rdi, rax
	call	_ZNKSt16reverse_iteratorIN9__gnu_cxx17__normal_iteratorIPSt4pairIiiESt6vectorIS3_SaIS3_EEEEEdeEv
	mov	rsi, rbx
	mov	rdi, rax
	call	_ZNSt4pairIiiEaSEOS0_
	lea	rax, -32[rbp]
	mov	rdi, rax
	call	_ZSt4moveIRSt4pairIiiEEONSt16remove_referenceIT_E4typeEOS4_
	mov	rbx, rax
	mov	rdx, QWORD PTR -56[rbp]
	mov	rax, QWORD PTR -64[rbp]
	mov	rsi, rdx
	mov	rdi, rax
	call	_ZStmiIN9__gnu_cxx17__normal_iteratorIPSt4pairIiiESt6vectorIS3_SaIS3_EEEES8_EDTmicldtfp0_4baseEcldtfp_4baseEERKSt16reverse_iteratorIT_ERKSA_IT0_E
	mov	r12, rax
	mov	rdx, QWORD PTR -56[rbp]
	lea	rax, -40[rbp]
	mov	rsi, rdx
	mov	rdi, rax
	call	_ZNSt16reverse_iteratorIN9__gnu_cxx17__normal_iteratorIPSt4pairIiiESt6vectorIS3_SaIS3_EEEEEC1ERKS9_
	lea	rax, -40[rbp]
	mov	rcx, QWORD PTR [rbx]
	mov	rdx, r12
	mov	esi, 0
	mov	rdi, rax
	call	_ZSt13__adjust_heapISt16reverse_iteratorIN9__gnu_cxx17__normal_iteratorIPSt4pairIiiESt6vectorIS4_SaIS4_EEEEElS4_NS1_5__ops15_Iter_less_iterEEvT_T0_SE_T1_T2_
	nop
	mov	rax, QWORD PTR -24[rbp]
	sub	rax, QWORD PTR fs:40
	je	.L475
	call	__stack_chk_fail@PLT
.L475:
	add	rsp, 64
	pop	rbx
	pop	r12
	pop	rbp
	.cfi_def_cfa 7, 8
	ret
	.cfi_endproc
.LFE11534:
	.size	_ZSt10__pop_heapISt16reverse_iteratorIN9__gnu_cxx17__normal_iteratorIPSt4pairIiiESt6vectorIS4_SaIS4_EEEEENS1_5__ops15_Iter_less_iterEEvT_SD_SD_RT0_, .-_ZSt10__pop_heapISt16reverse_iteratorIN9__gnu_cxx17__normal_iteratorIPSt4pairIiiESt6vectorIS4_SaIS4_EEEEENS1_5__ops15_Iter_less_iterEEvT_SD_SD_RT0_
	.section	.text._ZN9__gnu_cxx17__normal_iteratorIPSt4pairIiiESt6vectorIS2_SaIS2_EEEppEv,"axG",@progbits,_ZN9__gnu_cxx17__normal_iteratorIPSt4pairIiiESt6vectorIS2_SaIS2_EEEppEv,comdat
	.align 2
	.weak	_ZN9__gnu_cxx17__normal_iteratorIPSt4pairIiiESt6vectorIS2_SaIS2_EEEppEv
	.type	_ZN9__gnu_cxx17__normal_iteratorIPSt4pairIiiESt6vectorIS2_SaIS2_EEEppEv, @function
_ZN9__gnu_cxx17__normal_iteratorIPSt4pairIiiESt6vectorIS2_SaIS2_EEEppEv:
.LFB11535:
	.cfi_startproc
	endbr64
	push	rbp
	.cfi_def_cfa_offset 16
	.cfi_offset 6, -16
	mov	rbp, rsp
	.cfi_def_cfa_register 6
	mov	QWORD PTR -8[rbp], rdi
	mov	rax, QWORD PTR -8[rbp]
	mov	rax, QWORD PTR [rax]
	lea	rdx, 8[rax]
	mov	rax, QWORD PTR -8[rbp]
	mov	QWORD PTR [rax], rdx
	mov	rax, QWORD PTR -8[rbp]
	pop	rbp
	.cfi_def_cfa 7, 8
	ret
	.cfi_endproc
.LFE11535:
	.size	_ZN9__gnu_cxx17__normal_iteratorIPSt4pairIiiESt6vectorIS2_SaIS2_EEEppEv, .-_ZN9__gnu_cxx17__normal_iteratorIPSt4pairIiiESt6vectorIS2_SaIS2_EEEppEv
	.section	.text._ZNK9__gnu_cxx17__normal_iteratorIPSt4pairIiiESt6vectorIS2_SaIS2_EEEplEl,"axG",@progbits,_ZNK9__gnu_cxx17__normal_iteratorIPSt4pairIiiESt6vectorIS2_SaIS2_EEEplEl,comdat
	.align 2
	.weak	_ZNK9__gnu_cxx17__normal_iteratorIPSt4pairIiiESt6vectorIS2_SaIS2_EEEplEl
	.type	_ZNK9__gnu_cxx17__normal_iteratorIPSt4pairIiiESt6vectorIS2_SaIS2_EEEplEl, @function
_ZNK9__gnu_cxx17__normal_iteratorIPSt4pairIiiESt6vectorIS2_SaIS2_EEEplEl:
.LFB11536:
	.cfi_startproc
	endbr64
	push	rbp
	.cfi_def_cfa_offset 16
	.cfi_offset 6, -16
	mov	rbp, rsp
	.cfi_def_cfa_register 6
	sub	rsp, 48
	mov	QWORD PTR -40[rbp], rdi
	mov	QWORD PTR -48[rbp], rsi
	mov	rax, QWORD PTR fs:40
	mov	QWORD PTR -8[rbp], rax
	xor	eax, eax
	mov	rax, QWORD PTR -40[rbp]
	mov	rdx, QWORD PTR [rax]
	mov	rax, QWORD PTR -48[rbp]
	sal	rax, 3
	add	rax, rdx
	mov	QWORD PTR -24[rbp], rax
	lea	rdx, -24[rbp]
	lea	rax, -16[rbp]
	mov	rsi, rdx
	mov	rdi, rax
	call	_ZN9__gnu_cxx17__normal_iteratorIPSt4pairIiiESt6vectorIS2_SaIS2_EEEC1ERKS3_
	mov	rax, QWORD PTR -16[rbp]
	mov	rdx, QWORD PTR -8[rbp]
	sub	rdx, QWORD PTR fs:40
	je	.L480
	call	__stack_chk_fail@PLT
.L480:
	leave
	.cfi_def_cfa 7, 8
	ret
	.cfi_endproc
.LFE11536:
	.size	_ZNK9__gnu_cxx17__normal_iteratorIPSt4pairIiiESt6vectorIS2_SaIS2_EEEplEl, .-_ZNK9__gnu_cxx17__normal_iteratorIPSt4pairIiiESt6vectorIS2_SaIS2_EEEplEl
	.section	.text._ZSt9iter_swapISt16reverse_iteratorIN9__gnu_cxx17__normal_iteratorIPSt4pairIiiESt6vectorIS4_SaIS4_EEEEESA_EvT_T0_,"axG",@progbits,_ZSt9iter_swapISt16reverse_iteratorIN9__gnu_cxx17__normal_iteratorIPSt4pairIiiESt6vectorIS4_SaIS4_EEEEESA_EvT_T0_,comdat
	.weak	_ZSt9iter_swapISt16reverse_iteratorIN9__gnu_cxx17__normal_iteratorIPSt4pairIiiESt6vectorIS4_SaIS4_EEEEESA_EvT_T0_
	.type	_ZSt9iter_swapISt16reverse_iteratorIN9__gnu_cxx17__normal_iteratorIPSt4pairIiiESt6vectorIS4_SaIS4_EEEEESA_EvT_T0_, @function
_ZSt9iter_swapISt16reverse_iteratorIN9__gnu_cxx17__normal_iteratorIPSt4pairIiiESt6vectorIS4_SaIS4_EEEEESA_EvT_T0_:
.LFB11537:
	.cfi_startproc
	endbr64
	push	rbp
	.cfi_def_cfa_offset 16
	.cfi_offset 6, -16
	mov	rbp, rsp
	.cfi_def_cfa_register 6
	push	rbx
	sub	rsp, 24
	.cfi_offset 3, -24
	mov	QWORD PTR -24[rbp], rdi
	mov	QWORD PTR -32[rbp], rsi
	mov	rax, QWORD PTR -32[rbp]
	mov	rdi, rax
	call	_ZNKSt16reverse_iteratorIN9__gnu_cxx17__normal_iteratorIPSt4pairIiiESt6vectorIS3_SaIS3_EEEEEdeEv
	mov	rbx, rax
	mov	rax, QWORD PTR -24[rbp]
	mov	rdi, rax
	call	_ZNKSt16reverse_iteratorIN9__gnu_cxx17__normal_iteratorIPSt4pairIiiESt6vectorIS3_SaIS3_EEEEEdeEv
	mov	rsi, rbx
	mov	rdi, rax
	call	_ZSt4swapIiiENSt9enable_ifIXsrSt6__and_IJSt14__is_swappableIT_ES2_IT0_EEE5valueEvE4typeERSt4pairIS3_S5_ESC_
	nop
	mov	rbx, QWORD PTR -8[rbp]
	leave
	.cfi_def_cfa 7, 8
	ret
	.cfi_endproc
.LFE11537:
	.size	_ZSt9iter_swapISt16reverse_iteratorIN9__gnu_cxx17__normal_iteratorIPSt4pairIiiESt6vectorIS4_SaIS4_EEEEESA_EvT_T0_, .-_ZSt9iter_swapISt16reverse_iteratorIN9__gnu_cxx17__normal_iteratorIPSt4pairIiiESt6vectorIS4_SaIS4_EEEEESA_EvT_T0_
	.section	.text._ZN9__gnu_cxxltIPSt4pairIiiESt6vectorIS2_SaIS2_EEEEbRKNS_17__normal_iteratorIT_T0_EESC_,"axG",@progbits,_ZN9__gnu_cxxltIPSt4pairIiiESt6vectorIS2_SaIS2_EEEEbRKNS_17__normal_iteratorIT_T0_EESC_,comdat
	.weak	_ZN9__gnu_cxxltIPSt4pairIiiESt6vectorIS2_SaIS2_EEEEbRKNS_17__normal_iteratorIT_T0_EESC_
	.type	_ZN9__gnu_cxxltIPSt4pairIiiESt6vectorIS2_SaIS2_EEEEbRKNS_17__normal_iteratorIT_T0_EESC_, @function
_ZN9__gnu_cxxltIPSt4pairIiiESt6vectorIS2_SaIS2_EEEEbRKNS_17__normal_iteratorIT_T0_EESC_:
.LFB11538:
	.cfi_startproc
	endbr64
	push	rbp
	.cfi_def_cfa_offset 16
	.cfi_offset 6, -16
	mov	rbp, rsp
	.cfi_def_cfa_register 6
	push	rbx
	sub	rsp, 24
	.cfi_offset 3, -24
	mov	QWORD PTR -24[rbp], rdi
	mov	QWORD PTR -32[rbp], rsi
	mov	rax, QWORD PTR -24[rbp]
	mov	rdi, rax
	call	_ZNK9__gnu_cxx17__normal_iteratorIPSt4pairIiiESt6vectorIS2_SaIS2_EEE4baseEv
	mov	rbx, QWORD PTR [rax]
	mov	rax, QWORD PTR -32[rbp]
	mov	rdi, rax
	call	_ZNK9__gnu_cxx17__normal_iteratorIPSt4pairIiiESt6vectorIS2_SaIS2_EEE4baseEv
	mov	rax, QWORD PTR [rax]
	cmp	rbx, rax
	setb	al
	mov	rbx, QWORD PTR -8[rbp]
	leave
	.cfi_def_cfa 7, 8
	ret
	.cfi_endproc
.LFE11538:
	.size	_ZN9__gnu_cxxltIPSt4pairIiiESt6vectorIS2_SaIS2_EEEEbRKNS_17__normal_iteratorIT_T0_EESC_, .-_ZN9__gnu_cxxltIPSt4pairIiiESt6vectorIS2_SaIS2_EEEEbRKNS_17__normal_iteratorIT_T0_EESC_
	.section	.text._ZSt12__miter_baseIN9__gnu_cxx17__normal_iteratorIPSt4pairIiiESt6vectorIS3_SaIS3_EEEEEDTcl23__make_reverse_iteratorcl12__miter_basecldtfp_4baseEEEESt16reverse_iteratorIT_E,"axG",@progbits,_ZSt12__miter_baseIN9__gnu_cxx17__normal_iteratorIPSt4pairIiiESt6vectorIS3_SaIS3_EEEEEDTcl23__make_reverse_iteratorcl12__miter_basecldtfp_4baseEEEESt16reverse_iteratorIT_E,comdat
	.weak	_ZSt12__miter_baseIN9__gnu_cxx17__normal_iteratorIPSt4pairIiiESt6vectorIS3_SaIS3_EEEEEDTcl23__make_reverse_iteratorcl12__miter_basecldtfp_4baseEEEESt16reverse_iteratorIT_E
	.type	_ZSt12__miter_baseIN9__gnu_cxx17__normal_iteratorIPSt4pairIiiESt6vectorIS3_SaIS3_EEEEEDTcl23__make_reverse_iteratorcl12__miter_basecldtfp_4baseEEEESt16reverse_iteratorIT_E, @function
_ZSt12__miter_baseIN9__gnu_cxx17__normal_iteratorIPSt4pairIiiESt6vectorIS3_SaIS3_EEEEEDTcl23__make_reverse_iteratorcl12__miter_basecldtfp_4baseEEEESt16reverse_iteratorIT_E:
.LFB11539:
	.cfi_startproc
	endbr64
	push	rbp
	.cfi_def_cfa_offset 16
	.cfi_offset 6, -16
	mov	rbp, rsp
	.cfi_def_cfa_register 6
	sub	rsp, 32
	mov	QWORD PTR -24[rbp], rdi
	mov	QWORD PTR -32[rbp], rsi
	mov	rax, QWORD PTR fs:40
	mov	QWORD PTR -8[rbp], rax
	xor	eax, eax
	mov	rax, QWORD PTR -32[rbp]
	mov	rdi, rax
	call	_ZNKSt16reverse_iteratorIN9__gnu_cxx17__normal_iteratorIPSt4pairIiiESt6vectorIS3_SaIS3_EEEEE4baseEv
	mov	rdi, rax
	call	_ZSt12__miter_baseIN9__gnu_cxx17__normal_iteratorIPSt4pairIiiESt6vectorIS3_SaIS3_EEEEET_S9_
	mov	rdx, rax
	mov	rax, QWORD PTR -24[rbp]
	mov	rsi, rdx
	mov	rdi, rax
	call	_ZSt23__make_reverse_iteratorIN9__gnu_cxx17__normal_iteratorIPSt4pairIiiESt6vectorIS3_SaIS3_EEEEESt16reverse_iteratorIT_ESA_
	mov	rax, QWORD PTR -8[rbp]
	sub	rax, QWORD PTR fs:40
	je	.L486
	call	__stack_chk_fail@PLT
.L486:
	mov	rax, QWORD PTR -24[rbp]
	leave
	.cfi_def_cfa 7, 8
	ret
	.cfi_endproc
.LFE11539:
	.size	_ZSt12__miter_baseIN9__gnu_cxx17__normal_iteratorIPSt4pairIiiESt6vectorIS3_SaIS3_EEEEEDTcl23__make_reverse_iteratorcl12__miter_basecldtfp_4baseEEEESt16reverse_iteratorIT_E, .-_ZSt12__miter_baseIN9__gnu_cxx17__normal_iteratorIPSt4pairIiiESt6vectorIS3_SaIS3_EEEEEDTcl23__make_reverse_iteratorcl12__miter_basecldtfp_4baseEEEESt16reverse_iteratorIT_E
	.section	.text._ZSt22__copy_move_backward_aILb1ESt16reverse_iteratorIN9__gnu_cxx17__normal_iteratorIPSt4pairIiiESt6vectorIS4_SaIS4_EEEEESA_ET1_T0_SC_SB_,"axG",@progbits,_ZSt22__copy_move_backward_aILb1ESt16reverse_iteratorIN9__gnu_cxx17__normal_iteratorIPSt4pairIiiESt6vectorIS4_SaIS4_EEEEESA_ET1_T0_SC_SB_,comdat
	.weak	_ZSt22__copy_move_backward_aILb1ESt16reverse_iteratorIN9__gnu_cxx17__normal_iteratorIPSt4pairIiiESt6vectorIS4_SaIS4_EEEEESA_ET1_T0_SC_SB_
	.type	_ZSt22__copy_move_backward_aILb1ESt16reverse_iteratorIN9__gnu_cxx17__normal_iteratorIPSt4pairIiiESt6vectorIS4_SaIS4_EEEEESA_ET1_T0_SC_SB_, @function
_ZSt22__copy_move_backward_aILb1ESt16reverse_iteratorIN9__gnu_cxx17__normal_iteratorIPSt4pairIiiESt6vectorIS4_SaIS4_EEEEESA_ET1_T0_SC_SB_:
.LFB11540:
	.cfi_startproc
	endbr64
	push	rbp
	.cfi_def_cfa_offset 16
	.cfi_offset 6, -16
	mov	rbp, rsp
	.cfi_def_cfa_register 6
	sub	rsp, 112
	mov	QWORD PTR -88[rbp], rdi
	mov	QWORD PTR -96[rbp], rsi
	mov	QWORD PTR -104[rbp], rdx
	mov	QWORD PTR -112[rbp], rcx
	mov	rax, QWORD PTR fs:40
	mov	QWORD PTR -8[rbp], rax
	xor	eax, eax
	mov	rdx, QWORD PTR -112[rbp]
	lea	rax, -40[rbp]
	mov	rsi, rdx
	mov	rdi, rax
	call	_ZNSt16reverse_iteratorIN9__gnu_cxx17__normal_iteratorIPSt4pairIiiESt6vectorIS3_SaIS3_EEEEEC1ERKS9_
	lea	rax, -32[rbp]
	lea	rdx, -40[rbp]
	mov	rsi, rdx
	mov	rdi, rax
	call	_ZSt12__niter_baseIN9__gnu_cxx17__normal_iteratorIPSt4pairIiiESt6vectorIS3_SaIS3_EEEEEDTcl23__make_reverse_iteratorcl12__niter_basecldtfp_4baseEEEESt16reverse_iteratorIT_E
	mov	rdx, QWORD PTR -104[rbp]
	lea	rax, -56[rbp]
	mov	rsi, rdx
	mov	rdi, rax
	call	_ZNSt16reverse_iteratorIN9__gnu_cxx17__normal_iteratorIPSt4pairIiiESt6vectorIS3_SaIS3_EEEEEC1ERKS9_
	lea	rax, -48[rbp]
	lea	rdx, -56[rbp]
	mov	rsi, rdx
	mov	rdi, rax
	call	_ZSt12__niter_baseIN9__gnu_cxx17__normal_iteratorIPSt4pairIiiESt6vectorIS3_SaIS3_EEEEEDTcl23__make_reverse_iteratorcl12__niter_basecldtfp_4baseEEEESt16reverse_iteratorIT_E
	mov	rdx, QWORD PTR -96[rbp]
	lea	rax, -72[rbp]
	mov	rsi, rdx
	mov	rdi, rax
	call	_ZNSt16reverse_iteratorIN9__gnu_cxx17__normal_iteratorIPSt4pairIiiESt6vectorIS3_SaIS3_EEEEEC1ERKS9_
	lea	rax, -64[rbp]
	lea	rdx, -72[rbp]
	mov	rsi, rdx
	mov	rdi, rax
	call	_ZSt12__niter_baseIN9__gnu_cxx17__normal_iteratorIPSt4pairIiiESt6vectorIS3_SaIS3_EEEEEDTcl23__make_reverse_iteratorcl12__niter_basecldtfp_4baseEEEESt16reverse_iteratorIT_E
	lea	rax, -24[rbp]
	lea	rcx, -32[rbp]
	lea	rdx, -48[rbp]
	lea	rsi, -64[rbp]
	mov	rdi, rax
	call	_ZSt23__copy_move_backward_a1ILb1ESt16reverse_iteratorIPSt4pairIiiEES4_ET1_T0_S6_S5_
	mov	rdx, QWORD PTR -112[rbp]
	lea	rax, -16[rbp]
	mov	rsi, rdx
	mov	rdi, rax
	call	_ZNSt16reverse_iteratorIN9__gnu_cxx17__normal_iteratorIPSt4pairIiiESt6vectorIS3_SaIS3_EEEEEC1ERKS9_
	mov	rax, QWORD PTR -88[rbp]
	lea	rdx, -24[rbp]
	lea	rcx, -16[rbp]
	mov	rsi, rcx
	mov	rdi, rax
	call	_ZSt12__niter_wrapISt16reverse_iteratorIN9__gnu_cxx17__normal_iteratorIPSt4pairIiiESt6vectorIS4_SaIS4_EEEEES0_IS5_EET_SC_T0_
	mov	rax, QWORD PTR -8[rbp]
	sub	rax, QWORD PTR fs:40
	je	.L489
	call	__stack_chk_fail@PLT
.L489:
	mov	rax, QWORD PTR -88[rbp]
	leave
	.cfi_def_cfa 7, 8
	ret
	.cfi_endproc
.LFE11540:
	.size	_ZSt22__copy_move_backward_aILb1ESt16reverse_iteratorIN9__gnu_cxx17__normal_iteratorIPSt4pairIiiESt6vectorIS4_SaIS4_EEEEESA_ET1_T0_SC_SB_, .-_ZSt22__copy_move_backward_aILb1ESt16reverse_iteratorIN9__gnu_cxx17__normal_iteratorIPSt4pairIiiESt6vectorIS4_SaIS4_EEEEESA_ET1_T0_SC_SB_
	.section	.text._ZNK9__gnu_cxx5__ops14_Val_less_iterclISt4pairIiiESt16reverse_iteratorINS_17__normal_iteratorIPS4_St6vectorIS4_SaIS4_EEEEEEEbRT_T0_,"axG",@progbits,_ZNK9__gnu_cxx5__ops14_Val_less_iterclISt4pairIiiESt16reverse_iteratorINS_17__normal_iteratorIPS4_St6vectorIS4_SaIS4_EEEEEEEbRT_T0_,comdat
	.align 2
	.weak	_ZNK9__gnu_cxx5__ops14_Val_less_iterclISt4pairIiiESt16reverse_iteratorINS_17__normal_iteratorIPS4_St6vectorIS4_SaIS4_EEEEEEEbRT_T0_
	.type	_ZNK9__gnu_cxx5__ops14_Val_less_iterclISt4pairIiiESt16reverse_iteratorINS_17__normal_iteratorIPS4_St6vectorIS4_SaIS4_EEEEEEEbRT_T0_, @function
_ZNK9__gnu_cxx5__ops14_Val_less_iterclISt4pairIiiESt16reverse_iteratorINS_17__normal_iteratorIPS4_St6vectorIS4_SaIS4_EEEEEEEbRT_T0_:
.LFB11542:
	.cfi_startproc
	endbr64
	push	rbp
	.cfi_def_cfa_offset 16
	.cfi_offset 6, -16
	mov	rbp, rsp
	.cfi_def_cfa_register 6
	sub	rsp, 32
	mov	QWORD PTR -8[rbp], rdi
	mov	QWORD PTR -16[rbp], rsi
	mov	QWORD PTR -24[rbp], rdx
	mov	rax, QWORD PTR -24[rbp]
	mov	rdi, rax
	call	_ZNKSt16reverse_iteratorIN9__gnu_cxx17__normal_iteratorIPSt4pairIiiESt6vectorIS3_SaIS3_EEEEEdeEv
	mov	rdx, rax
	mov	rax, QWORD PTR -16[rbp]
	mov	rsi, rdx
	mov	rdi, rax
	call	_ZStltIiiEbRKSt4pairIT_T0_ES5_
	leave
	.cfi_def_cfa 7, 8
	ret
	.cfi_endproc
.LFE11542:
	.size	_ZNK9__gnu_cxx5__ops14_Val_less_iterclISt4pairIiiESt16reverse_iteratorINS_17__normal_iteratorIPS4_St6vectorIS4_SaIS4_EEEEEEEbRT_T0_, .-_ZNK9__gnu_cxx5__ops14_Val_less_iterclISt4pairIiiESt16reverse_iteratorINS_17__normal_iteratorIPS4_St6vectorIS4_SaIS4_EEEEEEEbRT_T0_
	.section	.text._ZNSt16allocator_traitsISaIxEE8max_sizeERKS0_,"axG",@progbits,_ZNSt16allocator_traitsISaIxEE8max_sizeERKS0_,comdat
	.weak	_ZNSt16allocator_traitsISaIxEE8max_sizeERKS0_
	.type	_ZNSt16allocator_traitsISaIxEE8max_sizeERKS0_, @function
_ZNSt16allocator_traitsISaIxEE8max_sizeERKS0_:
.LFB11610:
	.cfi_startproc
	endbr64
	push	rbp
	.cfi_def_cfa_offset 16
	.cfi_offset 6, -16
	mov	rbp, rsp
	.cfi_def_cfa_register 6
	sub	rsp, 16
	mov	QWORD PTR -8[rbp], rdi
	mov	rax, QWORD PTR -8[rbp]
	mov	rdi, rax
	call	_ZNK9__gnu_cxx13new_allocatorIxE8max_sizeEv
	leave
	.cfi_def_cfa 7, 8
	ret
	.cfi_endproc
.LFE11610:
	.size	_ZNSt16allocator_traitsISaIxEE8max_sizeERKS0_, .-_ZNSt16allocator_traitsISaIxEE8max_sizeERKS0_
	.section	.text._ZSt12__niter_baseIPxET_S1_,"axG",@progbits,_ZSt12__niter_baseIPxET_S1_,comdat
	.weak	_ZSt12__niter_baseIPxET_S1_
	.type	_ZSt12__niter_baseIPxET_S1_, @function
_ZSt12__niter_baseIPxET_S1_:
.LFB11611:
	.cfi_startproc
	endbr64
	push	rbp
	.cfi_def_cfa_offset 16
	.cfi_offset 6, -16
	mov	rbp, rsp
	.cfi_def_cfa_register 6
	mov	QWORD PTR -8[rbp], rdi
	mov	rax, QWORD PTR -8[rbp]
	pop	rbp
	.cfi_def_cfa 7, 8
	ret
	.cfi_endproc
.LFE11611:
	.size	_ZSt12__niter_baseIPxET_S1_, .-_ZSt12__niter_baseIPxET_S1_
	.section	.text._ZSt14__relocate_a_1IxxENSt9enable_ifIXsrSt24__is_bitwise_relocatableIT_vE5valueEPS2_E4typeES4_S4_S4_RSaIT0_E,"axG",@progbits,_ZSt14__relocate_a_1IxxENSt9enable_ifIXsrSt24__is_bitwise_relocatableIT_vE5valueEPS2_E4typeES4_S4_S4_RSaIT0_E,comdat
	.weak	_ZSt14__relocate_a_1IxxENSt9enable_ifIXsrSt24__is_bitwise_relocatableIT_vE5valueEPS2_E4typeES4_S4_S4_RSaIT0_E
	.type	_ZSt14__relocate_a_1IxxENSt9enable_ifIXsrSt24__is_bitwise_relocatableIT_vE5valueEPS2_E4typeES4_S4_S4_RSaIT0_E, @function
_ZSt14__relocate_a_1IxxENSt9enable_ifIXsrSt24__is_bitwise_relocatableIT_vE5valueEPS2_E4typeES4_S4_S4_RSaIT0_E:
.LFB11612:
	.cfi_startproc
	endbr64
	push	rbp
	.cfi_def_cfa_offset 16
	.cfi_offset 6, -16
	mov	rbp, rsp
	.cfi_def_cfa_register 6
	sub	rsp, 48
	mov	QWORD PTR -24[rbp], rdi
	mov	QWORD PTR -32[rbp], rsi
	mov	QWORD PTR -40[rbp], rdx
	mov	QWORD PTR -48[rbp], rcx
	mov	rax, QWORD PTR -32[rbp]
	sub	rax, QWORD PTR -24[rbp]
	sar	rax, 3
	mov	QWORD PTR -8[rbp], rax
	cmp	QWORD PTR -8[rbp], 0
	jle	.L497
	mov	rax, QWORD PTR -8[rbp]
	lea	rdx, 0[0+rax*8]
	mov	rcx, QWORD PTR -24[rbp]
	mov	rax, QWORD PTR -40[rbp]
	mov	rsi, rcx
	mov	rdi, rax
	call	memmove@PLT
.L497:
	mov	rax, QWORD PTR -8[rbp]
	lea	rdx, 0[0+rax*8]
	mov	rax, QWORD PTR -40[rbp]
	add	rax, rdx
	leave
	.cfi_def_cfa 7, 8
	ret
	.cfi_endproc
.LFE11612:
	.size	_ZSt14__relocate_a_1IxxENSt9enable_ifIXsrSt24__is_bitwise_relocatableIT_vE5valueEPS2_E4typeES4_S4_S4_RSaIT0_E, .-_ZSt14__relocate_a_1IxxENSt9enable_ifIXsrSt24__is_bitwise_relocatableIT_vE5valueEPS2_E4typeES4_S4_S4_RSaIT0_E
	.section	.text._ZNSt4pairIiiEC2IiiLb1EEEv,"axG",@progbits,_ZNSt4pairIiiEC5IiiLb1EEEv,comdat
	.align 2
	.weak	_ZNSt4pairIiiEC2IiiLb1EEEv
	.type	_ZNSt4pairIiiEC2IiiLb1EEEv, @function
_ZNSt4pairIiiEC2IiiLb1EEEv:
.LFB11614:
	.cfi_startproc
	endbr64
	push	rbp
	.cfi_def_cfa_offset 16
	.cfi_offset 6, -16
	mov	rbp, rsp
	.cfi_def_cfa_register 6
	mov	QWORD PTR -8[rbp], rdi
	mov	rax, QWORD PTR -8[rbp]
	mov	DWORD PTR [rax], 0
	mov	rax, QWORD PTR -8[rbp]
	mov	DWORD PTR 4[rax], 0
	nop
	pop	rbp
	.cfi_def_cfa 7, 8
	ret
	.cfi_endproc
.LFE11614:
	.size	_ZNSt4pairIiiEC2IiiLb1EEEv, .-_ZNSt4pairIiiEC2IiiLb1EEEv
	.weak	_ZNSt4pairIiiEC1IiiLb1EEEv
	.set	_ZNSt4pairIiiEC1IiiLb1EEEv,_ZNSt4pairIiiEC2IiiLb1EEEv
	.section	.text._ZSt13__adjust_heapISt16reverse_iteratorIN9__gnu_cxx17__normal_iteratorIPSt4pairIiiESt6vectorIS4_SaIS4_EEEEElS4_NS1_5__ops15_Iter_less_iterEEvT_T0_SE_T1_T2_,"axG",@progbits,_ZSt13__adjust_heapISt16reverse_iteratorIN9__gnu_cxx17__normal_iteratorIPSt4pairIiiESt6vectorIS4_SaIS4_EEEEElS4_NS1_5__ops15_Iter_less_iterEEvT_T0_SE_T1_T2_,comdat
	.weak	_ZSt13__adjust_heapISt16reverse_iteratorIN9__gnu_cxx17__normal_iteratorIPSt4pairIiiESt6vectorIS4_SaIS4_EEEEElS4_NS1_5__ops15_Iter_less_iterEEvT_T0_SE_T1_T2_
	.type	_ZSt13__adjust_heapISt16reverse_iteratorIN9__gnu_cxx17__normal_iteratorIPSt4pairIiiESt6vectorIS4_SaIS4_EEEEElS4_NS1_5__ops15_Iter_less_iterEEvT_T0_SE_T1_T2_, @function
_ZSt13__adjust_heapISt16reverse_iteratorIN9__gnu_cxx17__normal_iteratorIPSt4pairIiiESt6vectorIS4_SaIS4_EEEEElS4_NS1_5__ops15_Iter_less_iterEEvT_T0_SE_T1_T2_:
.LFB11616:
	.cfi_startproc
	endbr64
	push	rbp
	.cfi_def_cfa_offset 16
	.cfi_offset 6, -16
	mov	rbp, rsp
	.cfi_def_cfa_register 6
	push	rbx
	sub	rsp, 104
	.cfi_offset 3, -24
	mov	QWORD PTR -72[rbp], rdi
	mov	QWORD PTR -80[rbp], rsi
	mov	QWORD PTR -88[rbp], rdx
	mov	QWORD PTR -96[rbp], rcx
	mov	rax, QWORD PTR fs:40
	mov	QWORD PTR -24[rbp], rax
	xor	eax, eax
	mov	rax, QWORD PTR -80[rbp]
	mov	QWORD PTR -32[rbp], rax
	mov	rax, QWORD PTR -80[rbp]
	mov	QWORD PTR -40[rbp], rax
	jmp	.L501
.L503:
	mov	rax, QWORD PTR -40[rbp]
	add	rax, 1
	add	rax, rax
	mov	QWORD PTR -40[rbp], rax
	mov	rax, QWORD PTR -40[rbp]
	lea	rdx, -1[rax]
	lea	rax, -48[rbp]
	mov	rcx, QWORD PTR -72[rbp]
	mov	rsi, rcx
	mov	rdi, rax
	call	_ZNKSt16reverse_iteratorIN9__gnu_cxx17__normal_iteratorIPSt4pairIiiESt6vectorIS3_SaIS3_EEEEEplEl
	lea	rax, -56[rbp]
	mov	rdx, QWORD PTR -40[rbp]
	mov	rcx, QWORD PTR -72[rbp]
	mov	rsi, rcx
	mov	rdi, rax
	call	_ZNKSt16reverse_iteratorIN9__gnu_cxx17__normal_iteratorIPSt4pairIiiESt6vectorIS3_SaIS3_EEEEEplEl
	lea	rdx, -48[rbp]
	lea	rcx, -56[rbp]
	lea	rax, -97[rbp]
	mov	rsi, rcx
	mov	rdi, rax
	call	_ZNK9__gnu_cxx5__ops15_Iter_less_iterclISt16reverse_iteratorINS_17__normal_iteratorIPSt4pairIiiESt6vectorIS6_SaIS6_EEEEESC_EEbT_T0_
	test	al, al
	je	.L502
	sub	QWORD PTR -40[rbp], 1
.L502:
	lea	rax, -48[rbp]
	mov	rdx, QWORD PTR -40[rbp]
	mov	rcx, QWORD PTR -72[rbp]
	mov	rsi, rcx
	mov	rdi, rax
	call	_ZNKSt16reverse_iteratorIN9__gnu_cxx17__normal_iteratorIPSt4pairIiiESt6vectorIS3_SaIS3_EEEEEplEl
	lea	rax, -48[rbp]
	mov	rdi, rax
	call	_ZNKSt16reverse_iteratorIN9__gnu_cxx17__normal_iteratorIPSt4pairIiiESt6vectorIS3_SaIS3_EEEEEdeEv
	mov	rdi, rax
	call	_ZSt4moveIRSt4pairIiiEEONSt16remove_referenceIT_E4typeEOS4_
	mov	rbx, rax
	lea	rax, -56[rbp]
	mov	rdx, QWORD PTR -80[rbp]
	mov	rcx, QWORD PTR -72[rbp]
	mov	rsi, rcx
	mov	rdi, rax
	call	_ZNKSt16reverse_iteratorIN9__gnu_cxx17__normal_iteratorIPSt4pairIiiESt6vectorIS3_SaIS3_EEEEEplEl
	lea	rax, -56[rbp]
	mov	rdi, rax
	call	_ZNKSt16reverse_iteratorIN9__gnu_cxx17__normal_iteratorIPSt4pairIiiESt6vectorIS3_SaIS3_EEEEEdeEv
	mov	rsi, rbx
	mov	rdi, rax
