	.file	"N_The_maximum_path_sum.cpp"
	.intel_syntax noprefix
	.text
	.section	.text._ZSt17__size_to_integerm,"axG",@progbits,_ZSt17__size_to_integerm,comdat
	.weak	_ZSt17__size_to_integerm
	.type	_ZSt17__size_to_integerm, @function
_ZSt17__size_to_integerm:
.LFB538:
	.cfi_startproc
	endbr64
	push	rbp
	.cfi_def_cfa_offset 16
	.cfi_offset 6, -16
	mov	rbp, rsp
	.cfi_def_cfa_register 6
	mov	QWORD PTR -8[rbp], rdi
	mov	rax, QWORD PTR -8[rbp]
	pop	rbp
	.cfi_def_cfa 7, 8
	ret
	.cfi_endproc
.LFE538:
	.size	_ZSt17__size_to_integerm, .-_ZSt17__size_to_integerm
	.section	.text._ZnwmPv,"axG",@progbits,_ZnwmPv,comdat
	.weak	_ZnwmPv
	.type	_ZnwmPv, @function
_ZnwmPv:
.LFB1007:
	.cfi_startproc
	endbr64
	push	rbp
	.cfi_def_cfa_offset 16
	.cfi_offset 6, -16
	mov	rbp, rsp
	.cfi_def_cfa_register 6
	mov	QWORD PTR -8[rbp], rdi
	mov	QWORD PTR -16[rbp], rsi
	mov	rax, QWORD PTR -16[rbp]
	pop	rbp
	.cfi_def_cfa 7, 8
	ret
	.cfi_endproc
.LFE1007:
	.size	_ZnwmPv, .-_ZnwmPv
	.section	.text._ZdlPvS_,"axG",@progbits,_ZdlPvS_,comdat
	.weak	_ZdlPvS_
	.type	_ZdlPvS_, @function
_ZdlPvS_:
.LFB1009:
	.cfi_startproc
	endbr64
	push	rbp
	.cfi_def_cfa_offset 16
	.cfi_offset 6, -16
	mov	rbp, rsp
	.cfi_def_cfa_register 6
	mov	QWORD PTR -8[rbp], rdi
	mov	QWORD PTR -16[rbp], rsi
	nop
	pop	rbp
	.cfi_def_cfa 7, 8
	ret
	.cfi_endproc
.LFE1009:
	.size	_ZdlPvS_, .-_ZdlPvS_
	.section	.text._ZSt3minImERKT_S2_S2_,"axG",@progbits,_ZSt3minImERKT_S2_S2_,comdat
	.weak	_ZSt3minImERKT_S2_S2_
	.type	_ZSt3minImERKT_S2_S2_, @function
_ZSt3minImERKT_S2_S2_:
.LFB3255:
	.cfi_startproc
	endbr64
	push	rbp
	.cfi_def_cfa_offset 16
	.cfi_offset 6, -16
	mov	rbp, rsp
	.cfi_def_cfa_register 6
	mov	QWORD PTR -8[rbp], rdi
	mov	QWORD PTR -16[rbp], rsi
	mov	rax, QWORD PTR -16[rbp]
	mov	rdx, QWORD PTR [rax]
	mov	rax, QWORD PTR -8[rbp]
	mov	rax, QWORD PTR [rax]
	cmp	rdx, rax
	jnb	.L7
	mov	rax, QWORD PTR -16[rbp]
	jmp	.L8
.L7:
	mov	rax, QWORD PTR -8[rbp]
.L8:
	pop	rbp
	.cfi_def_cfa 7, 8
	ret
	.cfi_endproc
.LFE3255:
	.size	_ZSt3minImERKT_S2_S2_, .-_ZSt3minImERKT_S2_S2_
	.section	.rodata
	.type	_ZN6__pstl9execution2v1L3seqE, @object
	.size	_ZN6__pstl9execution2v1L3seqE, 1
_ZN6__pstl9execution2v1L3seqE:
	.zero	1
	.type	_ZN6__pstl9execution2v1L3parE, @object
	.size	_ZN6__pstl9execution2v1L3parE, 1
_ZN6__pstl9execution2v1L3parE:
	.zero	1
	.type	_ZN6__pstl9execution2v1L9par_unseqE, @object
	.size	_ZN6__pstl9execution2v1L9par_unseqE, 1
_ZN6__pstl9execution2v1L9par_unseqE:
	.zero	1
	.type	_ZN6__pstl9execution2v1L5unseqE, @object
	.size	_ZN6__pstl9execution2v1L5unseqE, 1
_ZN6__pstl9execution2v1L5unseqE:
	.zero	1
	.local	_ZStL8__ioinit
	.comm	_ZStL8__ioinit,1,1
	.align 4
	.type	_ZN9__gnu_cxxL21__default_lock_policyE, @object
	.size	_ZN9__gnu_cxxL21__default_lock_policyE, 4
_ZN9__gnu_cxxL21__default_lock_policyE:
	.long	2
	.align 4
	.type	_ZNSt15regex_constantsL13error_collateE, @object
	.size	_ZNSt15regex_constantsL13error_collateE, 4
_ZNSt15regex_constantsL13error_collateE:
	.zero	4
	.align 4
	.type	_ZNSt15regex_constantsL11error_ctypeE, @object
	.size	_ZNSt15regex_constantsL11error_ctypeE, 4
_ZNSt15regex_constantsL11error_ctypeE:
	.long	1
	.align 4
	.type	_ZNSt15regex_constantsL12error_escapeE, @object
	.size	_ZNSt15regex_constantsL12error_escapeE, 4
_ZNSt15regex_constantsL12error_escapeE:
	.long	2
	.align 4
	.type	_ZNSt15regex_constantsL13error_backrefE, @object
	.size	_ZNSt15regex_constantsL13error_backrefE, 4
_ZNSt15regex_constantsL13error_backrefE:
	.long	3
	.align 4
	.type	_ZNSt15regex_constantsL11error_brackE, @object
	.size	_ZNSt15regex_constantsL11error_brackE, 4
_ZNSt15regex_constantsL11error_brackE:
	.long	4
	.align 4
	.type	_ZNSt15regex_constantsL11error_parenE, @object
	.size	_ZNSt15regex_constantsL11error_parenE, 4
_ZNSt15regex_constantsL11error_parenE:
	.long	5
	.align 4
	.type	_ZNSt15regex_constantsL11error_braceE, @object
	.size	_ZNSt15regex_constantsL11error_braceE, 4
_ZNSt15regex_constantsL11error_braceE:
	.long	6
	.align 4
	.type	_ZNSt15regex_constantsL14error_badbraceE, @object
	.size	_ZNSt15regex_constantsL14error_badbraceE, 4
_ZNSt15regex_constantsL14error_badbraceE:
	.long	7
	.align 4
	.type	_ZNSt15regex_constantsL11error_rangeE, @object
	.size	_ZNSt15regex_constantsL11error_rangeE, 4
_ZNSt15regex_constantsL11error_rangeE:
	.long	8
	.align 4
	.type	_ZNSt15regex_constantsL11error_spaceE, @object
	.size	_ZNSt15regex_constantsL11error_spaceE, 4
_ZNSt15regex_constantsL11error_spaceE:
	.long	9
	.align 4
	.type	_ZNSt15regex_constantsL15error_badrepeatE, @object
	.size	_ZNSt15regex_constantsL15error_badrepeatE, 4
_ZNSt15regex_constantsL15error_badrepeatE:
	.long	10
	.align 4
	.type	_ZNSt15regex_constantsL16error_complexityE, @object
	.size	_ZNSt15regex_constantsL16error_complexityE, 4
_ZNSt15regex_constantsL16error_complexityE:
	.long	11
	.align 4
	.type	_ZNSt15regex_constantsL11error_stackE, @object
	.size	_ZNSt15regex_constantsL11error_stackE, 4
_ZNSt15regex_constantsL11error_stackE:
	.long	12
	.align 8
	.type	_ZNSt8__detailL19_S_invalid_state_idE, @object
	.size	_ZNSt8__detailL19_S_invalid_state_idE, 8
_ZNSt8__detailL19_S_invalid_state_idE:
	.quad	-1
.LC0:
	.string	"r"
.LC1:
	.string	"input.txt"
.LC2:
	.string	"w"
.LC3:
	.string	"output.txt"
	.text
	.globl	_Z5setupv
	.type	_Z5setupv, @function
_Z5setupv:
.LFB9704:
	.cfi_startproc
	endbr64
	push	rbp
	.cfi_def_cfa_offset 16
	.cfi_offset 6, -16
	mov	rbp, rsp
	.cfi_def_cfa_register 6
	mov	edi, 0
	call	_ZNSt8ios_base15sync_with_stdioEb@PLT
	mov	esi, 0
	lea	rax, _ZSt3cin[rip+16]
	mov	rdi, rax
	call	_ZNSt9basic_iosIcSt11char_traitsIcEE3tieEPSo@PLT
	mov	esi, 0
	lea	rax, _ZSt4cout[rip+8]
	mov	rdi, rax
	call	_ZNSt9basic_iosIcSt11char_traitsIcEE3tieEPSo@PLT
	mov	rax, QWORD PTR stdin[rip]
	mov	rdx, rax
	lea	rax, .LC0[rip]
	mov	rsi, rax
	lea	rax, .LC1[rip]
	mov	rdi, rax
	call	freopen@PLT
	mov	rax, QWORD PTR stdout[rip]
	mov	rdx, rax
	lea	rax, .LC2[rip]
	mov	rsi, rax
	lea	rax, .LC3[rip]
	mov	rdi, rax
	call	freopen@PLT
	nop
	pop	rbp
	.cfi_def_cfa 7, 8
	ret
	.cfi_endproc
.LFE9704:
	.size	_Z5setupv, .-_Z5setupv
	.section	.text._ZNSt12_Vector_baseISt6vectorIiSaIiEESaIS2_EE12_Vector_implD2Ev,"axG",@progbits,_ZNSt12_Vector_baseISt6vectorIiSaIiEESaIS2_EE12_Vector_implD5Ev,comdat
	.align 2
	.weak	_ZNSt12_Vector_baseISt6vectorIiSaIiEESaIS2_EE12_Vector_implD2Ev
	.type	_ZNSt12_Vector_baseISt6vectorIiSaIiEESaIS2_EE12_Vector_implD2Ev, @function
_ZNSt12_Vector_baseISt6vectorIiSaIiEESaIS2_EE12_Vector_implD2Ev:
.LFB9709:
	.cfi_startproc
	endbr64
	push	rbp
	.cfi_def_cfa_offset 16
	.cfi_offset 6, -16
	mov	rbp, rsp
	.cfi_def_cfa_register 6
	sub	rsp, 16
	mov	QWORD PTR -8[rbp], rdi
	mov	rax, QWORD PTR -8[rbp]
	mov	rdi, rax
	call	_ZNSaISt6vectorIiSaIiEEED2Ev
	nop
	leave
	.cfi_def_cfa 7, 8
	ret
	.cfi_endproc
.LFE9709:
	.size	_ZNSt12_Vector_baseISt6vectorIiSaIiEESaIS2_EE12_Vector_implD2Ev, .-_ZNSt12_Vector_baseISt6vectorIiSaIiEESaIS2_EE12_Vector_implD2Ev
	.weak	_ZNSt12_Vector_baseISt6vectorIiSaIiEESaIS2_EE12_Vector_implD1Ev
	.set	_ZNSt12_Vector_baseISt6vectorIiSaIiEESaIS2_EE12_Vector_implD1Ev,_ZNSt12_Vector_baseISt6vectorIiSaIiEESaIS2_EE12_Vector_implD2Ev
	.section	.text._ZNSt12_Vector_baseISt6vectorIiSaIiEESaIS2_EEC2Ev,"axG",@progbits,_ZNSt12_Vector_baseISt6vectorIiSaIiEESaIS2_EEC5Ev,comdat
	.align 2
	.weak	_ZNSt12_Vector_baseISt6vectorIiSaIiEESaIS2_EEC2Ev
	.type	_ZNSt12_Vector_baseISt6vectorIiSaIiEESaIS2_EEC2Ev, @function
_ZNSt12_Vector_baseISt6vectorIiSaIiEESaIS2_EEC2Ev:
.LFB9711:
	.cfi_startproc
	endbr64
	push	rbp
	.cfi_def_cfa_offset 16
	.cfi_offset 6, -16
	mov	rbp, rsp
	.cfi_def_cfa_register 6
	sub	rsp, 16
	mov	QWORD PTR -8[rbp], rdi
	mov	rax, QWORD PTR -8[rbp]
	mov	rdi, rax
	call	_ZNSt12_Vector_baseISt6vectorIiSaIiEESaIS2_EE12_Vector_implC1Ev
	nop
	leave
	.cfi_def_cfa 7, 8
	ret
	.cfi_endproc
.LFE9711:
	.size	_ZNSt12_Vector_baseISt6vectorIiSaIiEESaIS2_EEC2Ev, .-_ZNSt12_Vector_baseISt6vectorIiSaIiEESaIS2_EEC2Ev
	.weak	_ZNSt12_Vector_baseISt6vectorIiSaIiEESaIS2_EEC1Ev
	.set	_ZNSt12_Vector_baseISt6vectorIiSaIiEESaIS2_EEC1Ev,_ZNSt12_Vector_baseISt6vectorIiSaIiEESaIS2_EEC2Ev
	.section	.text._ZNSt6vectorIS_IiSaIiEESaIS1_EEC2Ev,"axG",@progbits,_ZNSt6vectorIS_IiSaIiEESaIS1_EEC5Ev,comdat
	.align 2
	.weak	_ZNSt6vectorIS_IiSaIiEESaIS1_EEC2Ev
	.type	_ZNSt6vectorIS_IiSaIiEESaIS1_EEC2Ev, @function
_ZNSt6vectorIS_IiSaIiEESaIS1_EEC2Ev:
.LFB9713:
	.cfi_startproc
	endbr64
	push	rbp
	.cfi_def_cfa_offset 16
	.cfi_offset 6, -16
	mov	rbp, rsp
	.cfi_def_cfa_register 6
	sub	rsp, 16
	mov	QWORD PTR -8[rbp], rdi
	mov	rax, QWORD PTR -8[rbp]
	mov	rdi, rax
	call	_ZNSt12_Vector_baseISt6vectorIiSaIiEESaIS2_EEC2Ev
	nop
	leave
	.cfi_def_cfa 7, 8
	ret
	.cfi_endproc
.LFE9713:
	.size	_ZNSt6vectorIS_IiSaIiEESaIS1_EEC2Ev, .-_ZNSt6vectorIS_IiSaIiEESaIS1_EEC2Ev
	.weak	_ZNSt6vectorIS_IiSaIiEESaIS1_EEC1Ev
	.set	_ZNSt6vectorIS_IiSaIiEESaIS1_EEC1Ev,_ZNSt6vectorIS_IiSaIiEESaIS1_EEC2Ev
	.globl	arr
	.bss
	.align 16
	.type	arr, @object
	.size	arr, 24
arr:
	.zero	24
	.globl	n
	.align 8
	.type	n, @object
	.size	n, 8
n:
	.zero	8
	.globl	m
	.align 8
	.type	m, @object
	.size	m, 8
m:
	.zero	8
	.text
	.globl	_Z3solii
	.type	_Z3solii, @function
_Z3solii:
.LFB9715:
	.cfi_startproc
	endbr64
	push	rbp
	.cfi_def_cfa_offset 16
	.cfi_offset 6, -16
	mov	rbp, rsp
	.cfi_def_cfa_register 6
	push	rbx
	sub	rsp, 56
	.cfi_offset 3, -24
	mov	DWORD PTR -52[rbp], edi
	mov	DWORD PTR -56[rbp], esi
	mov	rax, QWORD PTR fs:40
	mov	QWORD PTR -24[rbp], rax
	xor	eax, eax
	mov	eax, DWORD PTR -52[rbp]
	cdqe
	mov	rdx, QWORD PTR n[rip]
	sub	rdx, 1
	cmp	rax, rdx
	jne	.L14
	mov	eax, DWORD PTR -56[rbp]
	cdqe
	mov	rdx, QWORD PTR m[rip]
	sub	rdx, 1
	cmp	rax, rdx
	jne	.L14
	mov	eax, DWORD PTR -52[rbp]
	cdqe
	mov	rsi, rax
	lea	rax, arr[rip]
	mov	rdi, rax
	call	_ZNSt6vectorIS_IiSaIiEESaIS1_EEixEm
	mov	rdx, rax
	mov	eax, DWORD PTR -56[rbp]
	cdqe
	mov	rsi, rax
	mov	rdi, rdx
	call	_ZNSt6vectorIiSaIiEEixEm
	mov	eax, DWORD PTR [rax]
	cdqe
	jmp	.L15
.L14:
	cmp	DWORD PTR -52[rbp], 0
	js	.L16
	cmp	DWORD PTR -56[rbp], 0
	js	.L16
	mov	eax, DWORD PTR -52[rbp]
	movsx	rdx, eax
	mov	rax, QWORD PTR n[rip]
	cmp	rdx, rax
	jge	.L16
	mov	eax, DWORD PTR -56[rbp]
	movsx	rdx, eax
	mov	rax, QWORD PTR m[rip]
	cmp	rdx, rax
	jl	.L17
.L16:
	mov	rax, -1000000
	jmp	.L15
.L17:
	mov	eax, DWORD PTR -56[rbp]
	lea	edx, 1[rax]
	mov	eax, DWORD PTR -52[rbp]
	mov	esi, edx
	mov	edi, eax
	call	_Z3solii
	mov	QWORD PTR -32[rbp], rax
	mov	eax, DWORD PTR -52[rbp]
	lea	edx, 1[rax]
	mov	eax, DWORD PTR -56[rbp]
	mov	esi, eax
	mov	edi, edx
	call	_Z3solii
	mov	QWORD PTR -40[rbp], rax
	lea	rdx, -32[rbp]
	lea	rax, -40[rbp]
	mov	rsi, rdx
	mov	rdi, rax
	call	_ZSt3maxIxERKT_S2_S2_
	mov	rbx, QWORD PTR [rax]
	mov	eax, DWORD PTR -52[rbp]
	cdqe
	mov	rsi, rax
	lea	rax, arr[rip]
	mov	rdi, rax
	call	_ZNSt6vectorIS_IiSaIiEESaIS1_EEixEm
	mov	rdx, rax
	mov	eax, DWORD PTR -56[rbp]
	cdqe
	mov	rsi, rax
	mov	rdi, rdx
	call	_ZNSt6vectorIiSaIiEEixEm
	mov	eax, DWORD PTR [rax]
	cdqe
	add	rax, rbx
.L15:
	mov	rdx, QWORD PTR -24[rbp]
	sub	rdx, QWORD PTR fs:40
	je	.L18
	call	__stack_chk_fail@PLT
.L18:
	mov	rbx, QWORD PTR -8[rbp]
	leave
	.cfi_def_cfa 7, 8
	ret
	.cfi_endproc
.LFE9715:
	.size	_Z3solii, .-_Z3solii
	.globl	main
	.type	main, @function
main:
.LFB9716:
	.cfi_startproc
	.cfi_personality 0x9b,DW.ref.__gxx_personality_v0
	.cfi_lsda 0x1b,.LLSDA9716
	endbr64
	push	rbp
	.cfi_def_cfa_offset 16
	.cfi_offset 6, -16
	mov	rbp, rsp
	.cfi_def_cfa_register 6
	push	rbx
	sub	rsp, 56
	.cfi_offset 3, -24
	mov	rax, QWORD PTR fs:40
	mov	QWORD PTR -24[rbp], rax
	xor	eax, eax
.LEHB0:
	call	_Z5setupv
	lea	rax, n[rip]
	mov	rsi, rax
	lea	rax, _ZSt3cin[rip]
	mov	rdi, rax
	call	_ZNSirsERx@PLT
	mov	rdx, rax
	lea	rax, m[rip]
	mov	rsi, rax
	mov	rdi, rdx
	call	_ZNSirsERx@PLT
.LEHE0:
	lea	rax, -57[rbp]
	mov	rdi, rax
	call	_ZNSaIiEC1Ev
	mov	rax, QWORD PTR m[rip]
	mov	rcx, rax
	lea	rdx, -57[rbp]
	lea	rax, -48[rbp]
	mov	rsi, rcx
	mov	rdi, rax
.LEHB1:
	call	_ZNSt6vectorIiSaIiEEC1EmRKS0_
.LEHE1:
	mov	rax, QWORD PTR n[rip]
	mov	rcx, rax
	lea	rax, -48[rbp]
	mov	rdx, rax
	mov	rsi, rcx
	lea	rax, arr[rip]
	mov	rdi, rax
.LEHB2:
	call	_ZNSt6vectorIS_IiSaIiEESaIS1_EE6resizeEmRKS1_
.LEHE2:
	lea	rax, -48[rbp]
	mov	rdi, rax
	call	_ZNSt6vectorIiSaIiEED1Ev
	lea	rax, -57[rbp]
	mov	rdi, rax
	call	_ZNSaIiED1Ev
	mov	DWORD PTR -56[rbp], 0
	jmp	.L20
.L23:
	mov	DWORD PTR -52[rbp], 0
	jmp	.L21
.L22:
	mov	eax, DWORD PTR -56[rbp]
	cdqe
	mov	rsi, rax
	lea	rax, arr[rip]
	mov	rdi, rax
	call	_ZNSt6vectorIS_IiSaIiEESaIS1_EEixEm
	mov	rdx, rax
	mov	eax, DWORD PTR -52[rbp]
	cdqe
	mov	rsi, rax
	mov	rdi, rdx
	call	_ZNSt6vectorIiSaIiEEixEm
	mov	rsi, rax
	lea	rax, _ZSt3cin[rip]
	mov	rdi, rax
.LEHB3:
	call	_ZNSirsERi@PLT
	add	DWORD PTR -52[rbp], 1
.L21:
	mov	eax, DWORD PTR -52[rbp]
	movsx	rdx, eax
	mov	rax, QWORD PTR m[rip]
	cmp	rdx, rax
	jl	.L22
	add	DWORD PTR -56[rbp], 1
.L20:
	mov	eax, DWORD PTR -56[rbp]
	movsx	rdx, eax
	mov	rax, QWORD PTR n[rip]
	cmp	rdx, rax
	jl	.L23
	mov	esi, 0
	mov	edi, 0
	call	_Z3solii
	mov	rsi, rax
	lea	rax, _ZSt4cout[rip]
	mov	rdi, rax
	call	_ZNSolsEx@PLT
	mov	eax, 0
	mov	rdx, QWORD PTR -24[rbp]
	sub	rdx, QWORD PTR fs:40
	je	.L27
	jmp	.L30
.L29:
	endbr64
	mov	rbx, rax
	lea	rax, -48[rbp]
	mov	rdi, rax
	call	_ZNSt6vectorIiSaIiEED1Ev
	jmp	.L26
.L28:
	endbr64
	mov	rbx, rax
.L26:
	lea	rax, -57[rbp]
	mov	rdi, rax
	call	_ZNSaIiED1Ev
	mov	rax, rbx
	mov	rdi, rax
	call	_Unwind_Resume@PLT
.LEHE3:
.L30:
	call	__stack_chk_fail@PLT
.L27:
	mov	rbx, QWORD PTR -8[rbp]
	leave
	.cfi_def_cfa 7, 8
	ret
	.cfi_endproc
.LFE9716:
	.globl	__gxx_personality_v0
	.section	.gcc_except_table,"a",@progbits
.LLSDA9716:
	.byte	0xff
	.byte	0xff
	.byte	0x1
	.uleb128 .LLSDACSE9716-.LLSDACSB9716
.LLSDACSB9716:
	.uleb128 .LEHB0-.LFB9716
	.uleb128 .LEHE0-.LEHB0
	.uleb128 0
	.uleb128 0
	.uleb128 .LEHB1-.LFB9716
	.uleb128 .LEHE1-.LEHB1
	.uleb128 .L28-.LFB9716
	.uleb128 0
	.uleb128 .LEHB2-.LFB9716
	.uleb128 .LEHE2-.LEHB2
	.uleb128 .L29-.LFB9716
	.uleb128 0
	.uleb128 .LEHB3-.LFB9716
	.uleb128 .LEHE3-.LEHB3
	.uleb128 0
	.uleb128 0
.LLSDACSE9716:
	.text
	.size	main, .-main
	.section	.text._ZSt3maxImERKT_S2_S2_,"axG",@progbits,_ZSt3maxImERKT_S2_S2_,comdat
	.weak	_ZSt3maxImERKT_S2_S2_
	.type	_ZSt3maxImERKT_S2_S2_, @function
_ZSt3maxImERKT_S2_S2_:
.LFB10028:
	.cfi_startproc
	endbr64
	push	rbp
	.cfi_def_cfa_offset 16
	.cfi_offset 6, -16
	mov	rbp, rsp
	.cfi_def_cfa_register 6
	mov	QWORD PTR -8[rbp], rdi
	mov	QWORD PTR -16[rbp], rsi
	mov	rax, QWORD PTR -8[rbp]
	mov	rdx, QWORD PTR [rax]
	mov	rax, QWORD PTR -16[rbp]
	mov	rax, QWORD PTR [rax]
	cmp	rdx, rax
	jnb	.L32
	mov	rax, QWORD PTR -16[rbp]
	jmp	.L33
.L32:
	mov	rax, QWORD PTR -8[rbp]
.L33:
	pop	rbp
	.cfi_def_cfa 7, 8
	ret
	.cfi_endproc
.LFE10028:
	.size	_ZSt3maxImERKT_S2_S2_, .-_ZSt3maxImERKT_S2_S2_
	.section	.text._ZNSt12_Vector_baseISt6vectorIiSaIiEESaIS2_EE12_Vector_implC2Ev,"axG",@progbits,_ZNSt12_Vector_baseISt6vectorIiSaIiEESaIS2_EE12_Vector_implC5Ev,comdat
	.align 2
	.weak	_ZNSt12_Vector_baseISt6vectorIiSaIiEESaIS2_EE12_Vector_implC2Ev
	.type	_ZNSt12_Vector_baseISt6vectorIiSaIiEESaIS2_EE12_Vector_implC2Ev, @function
_ZNSt12_Vector_baseISt6vectorIiSaIiEESaIS2_EE12_Vector_implC2Ev:
.LFB10406:
	.cfi_startproc
	endbr64
	push	rbp
	.cfi_def_cfa_offset 16
	.cfi_offset 6, -16
	mov	rbp, rsp
	.cfi_def_cfa_register 6
	sub	rsp, 16
	mov	QWORD PTR -8[rbp], rdi
	mov	rax, QWORD PTR -8[rbp]
	mov	rdi, rax
	call	_ZNSaISt6vectorIiSaIiEEEC2Ev
	mov	rax, QWORD PTR -8[rbp]
	mov	rdi, rax
	call	_ZNSt12_Vector_baseISt6vectorIiSaIiEESaIS2_EE17_Vector_impl_dataC2Ev
	nop
	leave
	.cfi_def_cfa 7, 8
	ret
	.cfi_endproc
.LFE10406:
	.size	_ZNSt12_Vector_baseISt6vectorIiSaIiEESaIS2_EE12_Vector_implC2Ev, .-_ZNSt12_Vector_baseISt6vectorIiSaIiEESaIS2_EE12_Vector_implC2Ev
	.weak	_ZNSt12_Vector_baseISt6vectorIiSaIiEESaIS2_EE12_Vector_implC1Ev
	.set	_ZNSt12_Vector_baseISt6vectorIiSaIiEESaIS2_EE12_Vector_implC1Ev,_ZNSt12_Vector_baseISt6vectorIiSaIiEESaIS2_EE12_Vector_implC2Ev
	.section	.text._ZNSaISt6vectorIiSaIiEEED2Ev,"axG",@progbits,_ZNSaISt6vectorIiSaIiEEED5Ev,comdat
	.align 2
	.weak	_ZNSaISt6vectorIiSaIiEEED2Ev
	.type	_ZNSaISt6vectorIiSaIiEEED2Ev, @function
_ZNSaISt6vectorIiSaIiEEED2Ev:
.LFB10409:
	.cfi_startproc
	endbr64
	push	rbp
	.cfi_def_cfa_offset 16
	.cfi_offset 6, -16
	mov	rbp, rsp
	.cfi_def_cfa_register 6
	sub	rsp, 16
	mov	QWORD PTR -8[rbp], rdi
	mov	rax, QWORD PTR -8[rbp]
	mov	rdi, rax
	call	_ZN9__gnu_cxx13new_allocatorISt6vectorIiSaIiEEED2Ev
	nop
	leave
	.cfi_def_cfa 7, 8
	ret
	.cfi_endproc
.LFE10409:
	.size	_ZNSaISt6vectorIiSaIiEEED2Ev, .-_ZNSaISt6vectorIiSaIiEEED2Ev
	.weak	_ZNSaISt6vectorIiSaIiEEED1Ev
	.set	_ZNSaISt6vectorIiSaIiEEED1Ev,_ZNSaISt6vectorIiSaIiEEED2Ev
	.section	.text._ZNSt12_Vector_baseISt6vectorIiSaIiEESaIS2_EED2Ev,"axG",@progbits,_ZNSt12_Vector_baseISt6vectorIiSaIiEESaIS2_EED5Ev,comdat
	.align 2
	.weak	_ZNSt12_Vector_baseISt6vectorIiSaIiEESaIS2_EED2Ev
	.type	_ZNSt12_Vector_baseISt6vectorIiSaIiEESaIS2_EED2Ev, @function
_ZNSt12_Vector_baseISt6vectorIiSaIiEESaIS2_EED2Ev:
.LFB10412:
	.cfi_startproc
	.cfi_personality 0x9b,DW.ref.__gxx_personality_v0
	.cfi_lsda 0x1b,.LLSDA10412
	endbr64
	push	rbp
	.cfi_def_cfa_offset 16
	.cfi_offset 6, -16
	mov	rbp, rsp
	.cfi_def_cfa_register 6
	sub	rsp, 16
	mov	QWORD PTR -8[rbp], rdi
	mov	rax, QWORD PTR -8[rbp]
	mov	rdx, QWORD PTR 16[rax]
	mov	rax, QWORD PTR -8[rbp]
	mov	rcx, QWORD PTR [rax]
	mov	rax, rdx
	sub	rax, rcx
	sar	rax, 3
	mov	rdx, rax
	movabs	rax, -6148914691236517205
	imul	rax, rdx
	mov	rdx, rax
	mov	rax, QWORD PTR -8[rbp]
	mov	rcx, QWORD PTR [rax]
	mov	rax, QWORD PTR -8[rbp]
	mov	rsi, rcx
	mov	rdi, rax
	call	_ZNSt12_Vector_baseISt6vectorIiSaIiEESaIS2_EE13_M_deallocateEPS2_m
	mov	rax, QWORD PTR -8[rbp]
	mov	rdi, rax
	call	_ZNSt12_Vector_baseISt6vectorIiSaIiEESaIS2_EE12_Vector_implD1Ev
	nop
	leave
	.cfi_def_cfa 7, 8
	ret
	.cfi_endproc
.LFE10412:
	.section	.gcc_except_table
.LLSDA10412:
	.byte	0xff
	.byte	0xff
	.byte	0x1
	.uleb128 .LLSDACSE10412-.LLSDACSB10412
.LLSDACSB10412:
.LLSDACSE10412:
	.section	.text._ZNSt12_Vector_baseISt6vectorIiSaIiEESaIS2_EED2Ev,"axG",@progbits,_ZNSt12_Vector_baseISt6vectorIiSaIiEESaIS2_EED5Ev,comdat
	.size	_ZNSt12_Vector_baseISt6vectorIiSaIiEESaIS2_EED2Ev, .-_ZNSt12_Vector_baseISt6vectorIiSaIiEESaIS2_EED2Ev
	.weak	_ZNSt12_Vector_baseISt6vectorIiSaIiEESaIS2_EED1Ev
	.set	_ZNSt12_Vector_baseISt6vectorIiSaIiEESaIS2_EED1Ev,_ZNSt12_Vector_baseISt6vectorIiSaIiEESaIS2_EED2Ev
	.section	.text._ZNSt6vectorIS_IiSaIiEESaIS1_EEixEm,"axG",@progbits,_ZNSt6vectorIS_IiSaIiEESaIS1_EEixEm,comdat
	.align 2
	.weak	_ZNSt6vectorIS_IiSaIiEESaIS1_EEixEm
	.type	_ZNSt6vectorIS_IiSaIiEESaIS1_EEixEm, @function
_ZNSt6vectorIS_IiSaIiEESaIS1_EEixEm:
.LFB10414:
	.cfi_startproc
	endbr64
	push	rbp
	.cfi_def_cfa_offset 16
	.cfi_offset 6, -16
	mov	rbp, rsp
	.cfi_def_cfa_register 6
	mov	QWORD PTR -8[rbp], rdi
	mov	QWORD PTR -16[rbp], rsi
	mov	rax, QWORD PTR -8[rbp]
	mov	rcx, QWORD PTR [rax]
	mov	rdx, QWORD PTR -16[rbp]
	mov	rax, rdx
	add	rax, rax
	add	rax, rdx
	sal	rax, 3
	add	rax, rcx
	pop	rbp
	.cfi_def_cfa 7, 8
	ret
	.cfi_endproc
.LFE10414:
	.size	_ZNSt6vectorIS_IiSaIiEESaIS1_EEixEm, .-_ZNSt6vectorIS_IiSaIiEESaIS1_EEixEm
	.section	.text._ZNSt6vectorIiSaIiEEixEm,"axG",@progbits,_ZNSt6vectorIiSaIiEEixEm,comdat
	.align 2
	.weak	_ZNSt6vectorIiSaIiEEixEm
	.type	_ZNSt6vectorIiSaIiEEixEm, @function
_ZNSt6vectorIiSaIiEEixEm:
.LFB10415:
	.cfi_startproc
	endbr64
	push	rbp
	.cfi_def_cfa_offset 16
	.cfi_offset 6, -16
	mov	rbp, rsp
	.cfi_def_cfa_register 6
	mov	QWORD PTR -8[rbp], rdi
	mov	QWORD PTR -16[rbp], rsi
	mov	rax, QWORD PTR -8[rbp]
	mov	rdx, QWORD PTR [rax]
	mov	rax, QWORD PTR -16[rbp]
	sal	rax, 2
	add	rax, rdx
	pop	rbp
	.cfi_def_cfa 7, 8
	ret
	.cfi_endproc
.LFE10415:
	.size	_ZNSt6vectorIiSaIiEEixEm, .-_ZNSt6vectorIiSaIiEEixEm
	.section	.text._ZSt3maxIxERKT_S2_S2_,"axG",@progbits,_ZSt3maxIxERKT_S2_S2_,comdat
	.weak	_ZSt3maxIxERKT_S2_S2_
	.type	_ZSt3maxIxERKT_S2_S2_, @function
_ZSt3maxIxERKT_S2_S2_:
.LFB10416:
	.cfi_startproc
	endbr64
	push	rbp
	.cfi_def_cfa_offset 16
	.cfi_offset 6, -16
	mov	rbp, rsp
	.cfi_def_cfa_register 6
	mov	QWORD PTR -8[rbp], rdi
	mov	QWORD PTR -16[rbp], rsi
	mov	rax, QWORD PTR -8[rbp]
	mov	rdx, QWORD PTR [rax]
	mov	rax, QWORD PTR -16[rbp]
	mov	rax, QWORD PTR [rax]
	cmp	rdx, rax
	jge	.L42
	mov	rax, QWORD PTR -16[rbp]
	jmp	.L43
.L42:
	mov	rax, QWORD PTR -8[rbp]
.L43:
	pop	rbp
	.cfi_def_cfa 7, 8
	ret
	.cfi_endproc
.LFE10416:
	.size	_ZSt3maxIxERKT_S2_S2_, .-_ZSt3maxIxERKT_S2_S2_
	.section	.text._ZNSaIiEC2Ev,"axG",@progbits,_ZNSaIiEC5Ev,comdat
	.align 2
	.weak	_ZNSaIiEC2Ev
	.type	_ZNSaIiEC2Ev, @function
_ZNSaIiEC2Ev:
.LFB10419:
	.cfi_startproc
	endbr64
	push	rbp
	.cfi_def_cfa_offset 16
	.cfi_offset 6, -16
	mov	rbp, rsp
	.cfi_def_cfa_register 6
	sub	rsp, 16
	mov	QWORD PTR -8[rbp], rdi
	mov	rax, QWORD PTR -8[rbp]
	mov	rdi, rax
	call	_ZN9__gnu_cxx13new_allocatorIiEC2Ev
	nop
	leave
	.cfi_def_cfa 7, 8
	ret
	.cfi_endproc
.LFE10419:
	.size	_ZNSaIiEC2Ev, .-_ZNSaIiEC2Ev
	.weak	_ZNSaIiEC1Ev
	.set	_ZNSaIiEC1Ev,_ZNSaIiEC2Ev
	.section	.text._ZNSaIiED2Ev,"axG",@progbits,_ZNSaIiED5Ev,comdat
	.align 2
	.weak	_ZNSaIiED2Ev
	.type	_ZNSaIiED2Ev, @function
_ZNSaIiED2Ev:
.LFB10422:
	.cfi_startproc
	endbr64
	push	rbp
	.cfi_def_cfa_offset 16
	.cfi_offset 6, -16
	mov	rbp, rsp
	.cfi_def_cfa_register 6
	sub	rsp, 16
	mov	QWORD PTR -8[rbp], rdi
	mov	rax, QWORD PTR -8[rbp]
	mov	rdi, rax
	call	_ZN9__gnu_cxx13new_allocatorIiED2Ev
	nop
	leave
	.cfi_def_cfa 7, 8
	ret
	.cfi_endproc
.LFE10422:
	.size	_ZNSaIiED2Ev, .-_ZNSaIiED2Ev
	.weak	_ZNSaIiED1Ev
	.set	_ZNSaIiED1Ev,_ZNSaIiED2Ev
	.section	.text._ZNSt6vectorIiSaIiEEC2EmRKS0_,"axG",@progbits,_ZNSt6vectorIiSaIiEEC5EmRKS0_,comdat
	.align 2
	.weak	_ZNSt6vectorIiSaIiEEC2EmRKS0_
	.type	_ZNSt6vectorIiSaIiEEC2EmRKS0_, @function
_ZNSt6vectorIiSaIiEEC2EmRKS0_:
.LFB10425:
	.cfi_startproc
	.cfi_personality 0x9b,DW.ref.__gxx_personality_v0
	.cfi_lsda 0x1b,.LLSDA10425
	endbr64
	push	rbp
	.cfi_def_cfa_offset 16
	.cfi_offset 6, -16
	mov	rbp, rsp
	.cfi_def_cfa_register 6
	push	rbx
	sub	rsp, 40
	.cfi_offset 3, -24
	mov	QWORD PTR -24[rbp], rdi
	mov	QWORD PTR -32[rbp], rsi
	mov	QWORD PTR -40[rbp], rdx
	mov	rbx, QWORD PTR -24[rbp]
	mov	rdx, QWORD PTR -40[rbp]
	mov	rax, QWORD PTR -32[rbp]
	mov	rsi, rdx
	mov	rdi, rax
.LEHB4:
	call	_ZNSt6vectorIiSaIiEE17_S_check_init_lenEmRKS0_
	mov	rcx, rax
	mov	rax, QWORD PTR -40[rbp]
	mov	rdx, rax
	mov	rsi, rcx
	mov	rdi, rbx
	call	_ZNSt12_Vector_baseIiSaIiEEC2EmRKS0_
.LEHE4:
	mov	rdx, QWORD PTR -32[rbp]
	mov	rax, QWORD PTR -24[rbp]
	mov	rsi, rdx
	mov	rdi, rax
.LEHB5:
	call	_ZNSt6vectorIiSaIiEE21_M_default_initializeEm
.LEHE5:
	jmp	.L49
.L48:
	endbr64
	mov	rbx, rax
	mov	rax, QWORD PTR -24[rbp]
	mov	rdi, rax
	call	_ZNSt12_Vector_baseIiSaIiEED2Ev
	mov	rax, rbx
	mov	rdi, rax
.LEHB6:
	call	_Unwind_Resume@PLT
.LEHE6:
.L49:
	mov	rbx, QWORD PTR -8[rbp]
	leave
	.cfi_def_cfa 7, 8
	ret
	.cfi_endproc
.LFE10425:
	.section	.gcc_except_table
.LLSDA10425:
	.byte	0xff
	.byte	0xff
	.byte	0x1
	.uleb128 .LLSDACSE10425-.LLSDACSB10425
.LLSDACSB10425:
	.uleb128 .LEHB4-.LFB10425
	.uleb128 .LEHE4-.LEHB4
	.uleb128 0
	.uleb128 0
	.uleb128 .LEHB5-.LFB10425
	.uleb128 .LEHE5-.LEHB5
	.uleb128 .L48-.LFB10425
	.uleb128 0
	.uleb128 .LEHB6-.LFB10425
	.uleb128 .LEHE6-.LEHB6
	.uleb128 0
	.uleb128 0
.LLSDACSE10425:
	.section	.text._ZNSt6vectorIiSaIiEEC2EmRKS0_,"axG",@progbits,_ZNSt6vectorIiSaIiEEC5EmRKS0_,comdat
	.size	_ZNSt6vectorIiSaIiEEC2EmRKS0_, .-_ZNSt6vectorIiSaIiEEC2EmRKS0_
	.weak	_ZNSt6vectorIiSaIiEEC1EmRKS0_
	.set	_ZNSt6vectorIiSaIiEEC1EmRKS0_,_ZNSt6vectorIiSaIiEEC2EmRKS0_
	.section	.text._ZNSt6vectorIiSaIiEED2Ev,"axG",@progbits,_ZNSt6vectorIiSaIiEED5Ev,comdat
	.align 2
	.weak	_ZNSt6vectorIiSaIiEED2Ev
	.type	_ZNSt6vectorIiSaIiEED2Ev, @function
_ZNSt6vectorIiSaIiEED2Ev:
.LFB10428:
	.cfi_startproc
	.cfi_personality 0x9b,DW.ref.__gxx_personality_v0
	.cfi_lsda 0x1b,.LLSDA10428
	endbr64
	push	rbp
	.cfi_def_cfa_offset 16
	.cfi_offset 6, -16
	mov	rbp, rsp
	.cfi_def_cfa_register 6
	sub	rsp, 16
	mov	QWORD PTR -8[rbp], rdi
	mov	rax, QWORD PTR -8[rbp]
	mov	rdi, rax
	call	_ZNSt12_Vector_baseIiSaIiEE19_M_get_Tp_allocatorEv
	mov	rdx, rax
	mov	rax, QWORD PTR -8[rbp]
	mov	rcx, QWORD PTR 8[rax]
	mov	rax, QWORD PTR -8[rbp]
	mov	rax, QWORD PTR [rax]
	mov	rsi, rcx
	mov	rdi, rax
	call	_ZSt8_DestroyIPiiEvT_S1_RSaIT0_E
	mov	rax, QWORD PTR -8[rbp]
	mov	rdi, rax
	call	_ZNSt12_Vector_baseIiSaIiEED2Ev
	nop
	leave
	.cfi_def_cfa 7, 8
	ret
	.cfi_endproc
.LFE10428:
	.section	.gcc_except_table
.LLSDA10428:
	.byte	0xff
	.byte	0xff
	.byte	0x1
	.uleb128 .LLSDACSE10428-.LLSDACSB10428
.LLSDACSB10428:
.LLSDACSE10428:
	.section	.text._ZNSt6vectorIiSaIiEED2Ev,"axG",@progbits,_ZNSt6vectorIiSaIiEED5Ev,comdat
	.size	_ZNSt6vectorIiSaIiEED2Ev, .-_ZNSt6vectorIiSaIiEED2Ev
	.weak	_ZNSt6vectorIiSaIiEED1Ev
	.set	_ZNSt6vectorIiSaIiEED1Ev,_ZNSt6vectorIiSaIiEED2Ev
	.section	.text._ZNSt6vectorIS_IiSaIiEESaIS1_EE6resizeEmRKS1_,"axG",@progbits,_ZNSt6vectorIS_IiSaIiEESaIS1_EE6resizeEmRKS1_,comdat
	.align 2
	.weak	_ZNSt6vectorIS_IiSaIiEESaIS1_EE6resizeEmRKS1_
	.type	_ZNSt6vectorIS_IiSaIiEESaIS1_EE6resizeEmRKS1_, @function
_ZNSt6vectorIS_IiSaIiEESaIS1_EE6resizeEmRKS1_:
.LFB10430:
	.cfi_startproc
	endbr64
	push	rbp
	.cfi_def_cfa_offset 16
	.cfi_offset 6, -16
	mov	rbp, rsp
	.cfi_def_cfa_register 6
	push	rbx
	sub	rsp, 40
	.cfi_offset 3, -24
	mov	QWORD PTR -24[rbp], rdi
	mov	QWORD PTR -32[rbp], rsi
	mov	QWORD PTR -40[rbp], rdx
	mov	rax, QWORD PTR -24[rbp]
	mov	rdi, rax
	call	_ZNKSt6vectorIS_IiSaIiEESaIS1_EE4sizeEv
	cmp	QWORD PTR -32[rbp], rax
	seta	al
	test	al, al
	je	.L52
	mov	rax, QWORD PTR -24[rbp]
	mov	rdi, rax
	call	_ZNKSt6vectorIS_IiSaIiEESaIS1_EE4sizeEv
	mov	rdx, rax
	mov	rax, QWORD PTR -32[rbp]
	sub	rax, rdx
	mov	rbx, rax
	mov	rax, QWORD PTR -24[rbp]
	mov	rdi, rax
	call	_ZNSt6vectorIS_IiSaIiEESaIS1_EE3endEv
	mov	rsi, rax
	mov	rdx, QWORD PTR -40[rbp]
	mov	rax, QWORD PTR -24[rbp]
	mov	rcx, rdx
	mov	rdx, rbx
	mov	rdi, rax
	call	_ZNSt6vectorIS_IiSaIiEESaIS1_EE14_M_fill_insertEN9__gnu_cxx17__normal_iteratorIPS1_S3_EEmRKS1_
	jmp	.L54
.L52:
	mov	rax, QWORD PTR -24[rbp]
	mov	rdi, rax
	call	_ZNKSt6vectorIS_IiSaIiEESaIS1_EE4sizeEv
	cmp	QWORD PTR -32[rbp], rax
	setb	al
	test	al, al
	je	.L54
	mov	rax, QWORD PTR -24[rbp]
	mov	rcx, QWORD PTR [rax]
	mov	rdx, QWORD PTR -32[rbp]
	mov	rax, rdx
	add	rax, rax
	add	rax, rdx
	sal	rax, 3
	lea	rdx, [rcx+rax]
	mov	rax, QWORD PTR -24[rbp]
	mov	rsi, rdx
	mov	rdi, rax
	call	_ZNSt6vectorIS_IiSaIiEESaIS1_EE15_M_erase_at_endEPS1_
.L54:
	nop
	mov	rbx, QWORD PTR -8[rbp]
	leave
	.cfi_def_cfa 7, 8
	ret
	.cfi_endproc
.LFE10430:
	.size	_ZNSt6vectorIS_IiSaIiEESaIS1_EE6resizeEmRKS1_, .-_ZNSt6vectorIS_IiSaIiEESaIS1_EE6resizeEmRKS1_
	.section	.text._ZNSaISt6vectorIiSaIiEEEC2Ev,"axG",@progbits,_ZNSaISt6vectorIiSaIiEEEC5Ev,comdat
	.align 2
	.weak	_ZNSaISt6vectorIiSaIiEEEC2Ev
	.type	_ZNSaISt6vectorIiSaIiEEEC2Ev, @function
_ZNSaISt6vectorIiSaIiEEEC2Ev:
.LFB10824:
	.cfi_startproc
	endbr64
	push	rbp
	.cfi_def_cfa_offset 16
	.cfi_offset 6, -16
	mov	rbp, rsp
	.cfi_def_cfa_register 6
	sub	rsp, 16
	mov	QWORD PTR -8[rbp], rdi
	mov	rax, QWORD PTR -8[rbp]
	mov	rdi, rax
	call	_ZN9__gnu_cxx13new_allocatorISt6vectorIiSaIiEEEC2Ev
	nop
	leave
	.cfi_def_cfa 7, 8
	ret
	.cfi_endproc
.LFE10824:
	.size	_ZNSaISt6vectorIiSaIiEEEC2Ev, .-_ZNSaISt6vectorIiSaIiEEEC2Ev
	.weak	_ZNSaISt6vectorIiSaIiEEEC1Ev
	.set	_ZNSaISt6vectorIiSaIiEEEC1Ev,_ZNSaISt6vectorIiSaIiEEEC2Ev
	.section	.text._ZNSt12_Vector_baseISt6vectorIiSaIiEESaIS2_EE17_Vector_impl_dataC2Ev,"axG",@progbits,_ZNSt12_Vector_baseISt6vectorIiSaIiEESaIS2_EE17_Vector_impl_dataC5Ev,comdat
	.align 2
	.weak	_ZNSt12_Vector_baseISt6vectorIiSaIiEESaIS2_EE17_Vector_impl_dataC2Ev
	.type	_ZNSt12_Vector_baseISt6vectorIiSaIiEESaIS2_EE17_Vector_impl_dataC2Ev, @function
_ZNSt12_Vector_baseISt6vectorIiSaIiEESaIS2_EE17_Vector_impl_dataC2Ev:
.LFB10827:
	.cfi_startproc
	endbr64
	push	rbp
	.cfi_def_cfa_offset 16
	.cfi_offset 6, -16
	mov	rbp, rsp
	.cfi_def_cfa_register 6
	mov	QWORD PTR -8[rbp], rdi
	mov	rax, QWORD PTR -8[rbp]
	mov	QWORD PTR [rax], 0
	mov	rax, QWORD PTR -8[rbp]
	mov	QWORD PTR 8[rax], 0
	mov	rax, QWORD PTR -8[rbp]
	mov	QWORD PTR 16[rax], 0
	nop
	pop	rbp
	.cfi_def_cfa 7, 8
	ret
	.cfi_endproc
.LFE10827:
	.size	_ZNSt12_Vector_baseISt6vectorIiSaIiEESaIS2_EE17_Vector_impl_dataC2Ev, .-_ZNSt12_Vector_baseISt6vectorIiSaIiEESaIS2_EE17_Vector_impl_dataC2Ev
	.weak	_ZNSt12_Vector_baseISt6vectorIiSaIiEESaIS2_EE17_Vector_impl_dataC1Ev
	.set	_ZNSt12_Vector_baseISt6vectorIiSaIiEESaIS2_EE17_Vector_impl_dataC1Ev,_ZNSt12_Vector_baseISt6vectorIiSaIiEESaIS2_EE17_Vector_impl_dataC2Ev
	.section	.text._ZN9__gnu_cxx13new_allocatorISt6vectorIiSaIiEEED2Ev,"axG",@progbits,_ZN9__gnu_cxx13new_allocatorISt6vectorIiSaIiEEED5Ev,comdat
	.align 2
	.weak	_ZN9__gnu_cxx13new_allocatorISt6vectorIiSaIiEEED2Ev
	.type	_ZN9__gnu_cxx13new_allocatorISt6vectorIiSaIiEEED2Ev, @function
_ZN9__gnu_cxx13new_allocatorISt6vectorIiSaIiEEED2Ev:
.LFB10830:
	.cfi_startproc
	endbr64
	push	rbp
	.cfi_def_cfa_offset 16
	.cfi_offset 6, -16
	mov	rbp, rsp
	.cfi_def_cfa_register 6
	mov	QWORD PTR -8[rbp], rdi
	nop
	pop	rbp
	.cfi_def_cfa 7, 8
	ret
	.cfi_endproc
.LFE10830:
	.size	_ZN9__gnu_cxx13new_allocatorISt6vectorIiSaIiEEED2Ev, .-_ZN9__gnu_cxx13new_allocatorISt6vectorIiSaIiEEED2Ev
	.weak	_ZN9__gnu_cxx13new_allocatorISt6vectorIiSaIiEEED1Ev
	.set	_ZN9__gnu_cxx13new_allocatorISt6vectorIiSaIiEEED1Ev,_ZN9__gnu_cxx13new_allocatorISt6vectorIiSaIiEEED2Ev
	.section	.text._ZNSt12_Vector_baseISt6vectorIiSaIiEESaIS2_EE13_M_deallocateEPS2_m,"axG",@progbits,_ZNSt12_Vector_baseISt6vectorIiSaIiEESaIS2_EE13_M_deallocateEPS2_m,comdat
	.align 2
	.weak	_ZNSt12_Vector_baseISt6vectorIiSaIiEESaIS2_EE13_M_deallocateEPS2_m
	.type	_ZNSt12_Vector_baseISt6vectorIiSaIiEESaIS2_EE13_M_deallocateEPS2_m, @function
_ZNSt12_Vector_baseISt6vectorIiSaIiEESaIS2_EE13_M_deallocateEPS2_m:
.LFB10832:
	.cfi_startproc
	endbr64
	push	rbp
	.cfi_def_cfa_offset 16
	.cfi_offset 6, -16
	mov	rbp, rsp
	.cfi_def_cfa_register 6
	sub	rsp, 32
	mov	QWORD PTR -8[rbp], rdi
	mov	QWORD PTR -16[rbp], rsi
	mov	QWORD PTR -24[rbp], rdx
	cmp	QWORD PTR -16[rbp], 0
	je	.L60
	mov	rax, QWORD PTR -8[rbp]
	mov	rdx, QWORD PTR -24[rbp]
	mov	rcx, QWORD PTR -16[rbp]
	mov	rsi, rcx
	mov	rdi, rax
	call	_ZNSt16allocator_traitsISaISt6vectorIiSaIiEEEE10deallocateERS3_PS2_m
.L60:
	nop
	leave
	.cfi_def_cfa 7, 8
	ret
	.cfi_endproc
.LFE10832:
	.size	_ZNSt12_Vector_baseISt6vectorIiSaIiEESaIS2_EE13_M_deallocateEPS2_m, .-_ZNSt12_Vector_baseISt6vectorIiSaIiEESaIS2_EE13_M_deallocateEPS2_m
	.section	.text._ZN9__gnu_cxx13new_allocatorIiEC2Ev,"axG",@progbits,_ZN9__gnu_cxx13new_allocatorIiEC5Ev,comdat
	.align 2
	.weak	_ZN9__gnu_cxx13new_allocatorIiEC2Ev
	.type	_ZN9__gnu_cxx13new_allocatorIiEC2Ev, @function
_ZN9__gnu_cxx13new_allocatorIiEC2Ev:
.LFB10834:
	.cfi_startproc
	endbr64
	push	rbp
	.cfi_def_cfa_offset 16
	.cfi_offset 6, -16
	mov	rbp, rsp
	.cfi_def_cfa_register 6
	mov	QWORD PTR -8[rbp], rdi
	nop
	pop	rbp
	.cfi_def_cfa 7, 8
	ret
	.cfi_endproc
.LFE10834:
	.size	_ZN9__gnu_cxx13new_allocatorIiEC2Ev, .-_ZN9__gnu_cxx13new_allocatorIiEC2Ev
	.weak	_ZN9__gnu_cxx13new_allocatorIiEC1Ev
	.set	_ZN9__gnu_cxx13new_allocatorIiEC1Ev,_ZN9__gnu_cxx13new_allocatorIiEC2Ev
	.section	.text._ZN9__gnu_cxx13new_allocatorIiED2Ev,"axG",@progbits,_ZN9__gnu_cxx13new_allocatorIiED5Ev,comdat
	.align 2
	.weak	_ZN9__gnu_cxx13new_allocatorIiED2Ev
	.type	_ZN9__gnu_cxx13new_allocatorIiED2Ev, @function
_ZN9__gnu_cxx13new_allocatorIiED2Ev:
.LFB10837:
	.cfi_startproc
	endbr64
	push	rbp
	.cfi_def_cfa_offset 16
	.cfi_offset 6, -16
	mov	rbp, rsp
	.cfi_def_cfa_register 6
	mov	QWORD PTR -8[rbp], rdi
	nop
	pop	rbp
	.cfi_def_cfa 7, 8
	ret
	.cfi_endproc
.LFE10837:
	.size	_ZN9__gnu_cxx13new_allocatorIiED2Ev, .-_ZN9__gnu_cxx13new_allocatorIiED2Ev
	.weak	_ZN9__gnu_cxx13new_allocatorIiED1Ev
	.set	_ZN9__gnu_cxx13new_allocatorIiED1Ev,_ZN9__gnu_cxx13new_allocatorIiED2Ev
	.section	.rodata
	.align 8
.LC4:
	.string	"cannot create std::vector larger than max_size()"
	.section	.text._ZNSt6vectorIiSaIiEE17_S_check_init_lenEmRKS0_,"axG",@progbits,_ZNSt6vectorIiSaIiEE17_S_check_init_lenEmRKS0_,comdat
	.weak	_ZNSt6vectorIiSaIiEE17_S_check_init_lenEmRKS0_
	.type	_ZNSt6vectorIiSaIiEE17_S_check_init_lenEmRKS0_, @function
_ZNSt6vectorIiSaIiEE17_S_check_init_lenEmRKS0_:
.LFB10839:
	.cfi_startproc
	endbr64
	push	rbp
	.cfi_def_cfa_offset 16
	.cfi_offset 6, -16
	mov	rbp, rsp
	.cfi_def_cfa_register 6
	push	rbx
	sub	rsp, 40
	.cfi_offset 3, -24
	mov	QWORD PTR -40[rbp], rdi
	mov	QWORD PTR -48[rbp], rsi
	mov	rax, QWORD PTR fs:40
	mov	QWORD PTR -24[rbp], rax
	xor	eax, eax
	mov	rdx, QWORD PTR -48[rbp]
	lea	rax, -25[rbp]
	mov	rsi, rdx
	mov	rdi, rax
	call	_ZNSaIiEC1ERKS_
	lea	rax, -25[rbp]
	mov	rdi, rax
	call	_ZNSt6vectorIiSaIiEE11_S_max_sizeERKS0_
	cmp	QWORD PTR -40[rbp], rax
	seta	bl
	lea	rax, -25[rbp]
	mov	rdi, rax
	call	_ZNSaIiED1Ev
	test	bl, bl
	je	.L64
	lea	rax, .LC4[rip]
	mov	rdi, rax
	call	_ZSt20__throw_length_errorPKc@PLT
.L64:
	mov	rax, QWORD PTR -40[rbp]
	mov	rdx, QWORD PTR -24[rbp]
	sub	rdx, QWORD PTR fs:40
	je	.L66
	call	__stack_chk_fail@PLT
.L66:
	mov	rbx, QWORD PTR -8[rbp]
	leave
	.cfi_def_cfa 7, 8
	ret
	.cfi_endproc
.LFE10839:
	.size	_ZNSt6vectorIiSaIiEE17_S_check_init_lenEmRKS0_, .-_ZNSt6vectorIiSaIiEE17_S_check_init_lenEmRKS0_
	.section	.text._ZNSt12_Vector_baseIiSaIiEE12_Vector_implD2Ev,"axG",@progbits,_ZNSt12_Vector_baseIiSaIiEE12_Vector_implD5Ev,comdat
	.align 2
	.weak	_ZNSt12_Vector_baseIiSaIiEE12_Vector_implD2Ev
	.type	_ZNSt12_Vector_baseIiSaIiEE12_Vector_implD2Ev, @function
_ZNSt12_Vector_baseIiSaIiEE12_Vector_implD2Ev:
.LFB10842:
	.cfi_startproc
	endbr64
	push	rbp
	.cfi_def_cfa_offset 16
	.cfi_offset 6, -16
	mov	rbp, rsp
	.cfi_def_cfa_register 6
	sub	rsp, 16
	mov	QWORD PTR -8[rbp], rdi
	mov	rax, QWORD PTR -8[rbp]
	mov	rdi, rax
	call	_ZNSaIiED2Ev
	nop
	leave
	.cfi_def_cfa 7, 8
	ret
	.cfi_endproc
.LFE10842:
	.size	_ZNSt12_Vector_baseIiSaIiEE12_Vector_implD2Ev, .-_ZNSt12_Vector_baseIiSaIiEE12_Vector_implD2Ev
	.weak	_ZNSt12_Vector_baseIiSaIiEE12_Vector_implD1Ev
	.set	_ZNSt12_Vector_baseIiSaIiEE12_Vector_implD1Ev,_ZNSt12_Vector_baseIiSaIiEE12_Vector_implD2Ev
	.section	.text._ZNSt12_Vector_baseIiSaIiEEC2EmRKS0_,"axG",@progbits,_ZNSt12_Vector_baseIiSaIiEEC5EmRKS0_,comdat
	.align 2
	.weak	_ZNSt12_Vector_baseIiSaIiEEC2EmRKS0_
	.type	_ZNSt12_Vector_baseIiSaIiEEC2EmRKS0_, @function
_ZNSt12_Vector_baseIiSaIiEEC2EmRKS0_:
.LFB10844:
	.cfi_startproc
	.cfi_personality 0x9b,DW.ref.__gxx_personality_v0
	.cfi_lsda 0x1b,.LLSDA10844
	endbr64
	push	rbp
	.cfi_def_cfa_offset 16
	.cfi_offset 6, -16
	mov	rbp, rsp
	.cfi_def_cfa_register 6
	push	rbx
	sub	rsp, 40
	.cfi_offset 3, -24
	mov	QWORD PTR -24[rbp], rdi
	mov	QWORD PTR -32[rbp], rsi
	mov	QWORD PTR -40[rbp], rdx
	mov	rax, QWORD PTR -24[rbp]
	mov	rdx, QWORD PTR -40[rbp]
	mov	rsi, rdx
	mov	rdi, rax
	call	_ZNSt12_Vector_baseIiSaIiEE12_Vector_implC1ERKS0_
	mov	rdx, QWORD PTR -32[rbp]
	mov	rax, QWORD PTR -24[rbp]
	mov	rsi, rdx
	mov	rdi, rax
.LEHB7:
	call	_ZNSt12_Vector_baseIiSaIiEE17_M_create_storageEm
.LEHE7:
	jmp	.L71
.L70:
	endbr64
	mov	rbx, rax
	mov	rax, QWORD PTR -24[rbp]
	mov	rdi, rax
	call	_ZNSt12_Vector_baseIiSaIiEE12_Vector_implD1Ev
	mov	rax, rbx
	mov	rdi, rax
.LEHB8:
	call	_Unwind_Resume@PLT
.LEHE8:
.L71:
	mov	rbx, QWORD PTR -8[rbp]
	leave
	.cfi_def_cfa 7, 8
	ret
	.cfi_endproc
.LFE10844:
	.section	.gcc_except_table
.LLSDA10844:
	.byte	0xff
	.byte	0xff
	.byte	0x1
	.uleb128 .LLSDACSE10844-.LLSDACSB10844
.LLSDACSB10844:
	.uleb128 .LEHB7-.LFB10844
	.uleb128 .LEHE7-.LEHB7
	.uleb128 .L70-.LFB10844
	.uleb128 0
	.uleb128 .LEHB8-.LFB10844
	.uleb128 .LEHE8-.LEHB8
	.uleb128 0
	.uleb128 0
.LLSDACSE10844:
	.section	.text._ZNSt12_Vector_baseIiSaIiEEC2EmRKS0_,"axG",@progbits,_ZNSt12_Vector_baseIiSaIiEEC5EmRKS0_,comdat
	.size	_ZNSt12_Vector_baseIiSaIiEEC2EmRKS0_, .-_ZNSt12_Vector_baseIiSaIiEEC2EmRKS0_
	.weak	_ZNSt12_Vector_baseIiSaIiEEC1EmRKS0_
	.set	_ZNSt12_Vector_baseIiSaIiEEC1EmRKS0_,_ZNSt12_Vector_baseIiSaIiEEC2EmRKS0_
	.section	.text._ZNSt12_Vector_baseIiSaIiEED2Ev,"axG",@progbits,_ZNSt12_Vector_baseIiSaIiEED5Ev,comdat
	.align 2
	.weak	_ZNSt12_Vector_baseIiSaIiEED2Ev
	.type	_ZNSt12_Vector_baseIiSaIiEED2Ev, @function
_ZNSt12_Vector_baseIiSaIiEED2Ev:
.LFB10847:
	.cfi_startproc
	.cfi_personality 0x9b,DW.ref.__gxx_personality_v0
	.cfi_lsda 0x1b,.LLSDA10847
	endbr64
	push	rbp
	.cfi_def_cfa_offset 16
	.cfi_offset 6, -16
	mov	rbp, rsp
	.cfi_def_cfa_register 6
	sub	rsp, 16
	mov	QWORD PTR -8[rbp], rdi
	mov	rax, QWORD PTR -8[rbp]
	mov	rdx, QWORD PTR 16[rax]
	mov	rax, QWORD PTR -8[rbp]
	mov	rcx, QWORD PTR [rax]
	mov	rax, rdx
	sub	rax, rcx
	sar	rax, 2
	mov	rdx, rax
	mov	rax, QWORD PTR -8[rbp]
	mov	rcx, QWORD PTR [rax]
	mov	rax, QWORD PTR -8[rbp]
	mov	rsi, rcx
	mov	rdi, rax
	call	_ZNSt12_Vector_baseIiSaIiEE13_M_deallocateEPim
	mov	rax, QWORD PTR -8[rbp]
	mov	rdi, rax
	call	_ZNSt12_Vector_baseIiSaIiEE12_Vector_implD1Ev
	nop
	leave
	.cfi_def_cfa 7, 8
	ret
	.cfi_endproc
.LFE10847:
	.section	.gcc_except_table
.LLSDA10847:
	.byte	0xff
	.byte	0xff
	.byte	0x1
	.uleb128 .LLSDACSE10847-.LLSDACSB10847
.LLSDACSB10847:
.LLSDACSE10847:
	.section	.text._ZNSt12_Vector_baseIiSaIiEED2Ev,"axG",@progbits,_ZNSt12_Vector_baseIiSaIiEED5Ev,comdat
	.size	_ZNSt12_Vector_baseIiSaIiEED2Ev, .-_ZNSt12_Vector_baseIiSaIiEED2Ev
	.weak	_ZNSt12_Vector_baseIiSaIiEED1Ev
	.set	_ZNSt12_Vector_baseIiSaIiEED1Ev,_ZNSt12_Vector_baseIiSaIiEED2Ev
	.section	.text._ZNSt6vectorIiSaIiEE21_M_default_initializeEm,"axG",@progbits,_ZNSt6vectorIiSaIiEE21_M_default_initializeEm,comdat
	.align 2
	.weak	_ZNSt6vectorIiSaIiEE21_M_default_initializeEm
	.type	_ZNSt6vectorIiSaIiEE21_M_default_initializeEm, @function
_ZNSt6vectorIiSaIiEE21_M_default_initializeEm:
.LFB10849:
	.cfi_startproc
	endbr64
	push	rbp
	.cfi_def_cfa_offset 16
	.cfi_offset 6, -16
	mov	rbp, rsp
	.cfi_def_cfa_register 6
	sub	rsp, 16
	mov	QWORD PTR -8[rbp], rdi
	mov	QWORD PTR -16[rbp], rsi
	mov	rax, QWORD PTR -8[rbp]
	mov	rdi, rax
	call	_ZNSt12_Vector_baseIiSaIiEE19_M_get_Tp_allocatorEv
	mov	rdx, rax
	mov	rax, QWORD PTR -8[rbp]
	mov	rax, QWORD PTR [rax]
	mov	rcx, QWORD PTR -16[rbp]
	mov	rsi, rcx
	mov	rdi, rax
	call	_ZSt27__uninitialized_default_n_aIPimiET_S1_T0_RSaIT1_E
	mov	rdx, QWORD PTR -8[rbp]
	mov	QWORD PTR 8[rdx], rax
	nop
	leave
	.cfi_def_cfa 7, 8
	ret
	.cfi_endproc
.LFE10849:
	.size	_ZNSt6vectorIiSaIiEE21_M_default_initializeEm, .-_ZNSt6vectorIiSaIiEE21_M_default_initializeEm
	.section	.text._ZNSt12_Vector_baseIiSaIiEE19_M_get_Tp_allocatorEv,"axG",@progbits,_ZNSt12_Vector_baseIiSaIiEE19_M_get_Tp_allocatorEv,comdat
	.align 2
	.weak	_ZNSt12_Vector_baseIiSaIiEE19_M_get_Tp_allocatorEv
	.type	_ZNSt12_Vector_baseIiSaIiEE19_M_get_Tp_allocatorEv, @function
_ZNSt12_Vector_baseIiSaIiEE19_M_get_Tp_allocatorEv:
.LFB10850:
	.cfi_startproc
	endbr64
	push	rbp
	.cfi_def_cfa_offset 16
	.cfi_offset 6, -16
	mov	rbp, rsp
	.cfi_def_cfa_register 6
	mov	QWORD PTR -8[rbp], rdi
	mov	rax, QWORD PTR -8[rbp]
	pop	rbp
	.cfi_def_cfa 7, 8
	ret
	.cfi_endproc
.LFE10850:
	.size	_ZNSt12_Vector_baseIiSaIiEE19_M_get_Tp_allocatorEv, .-_ZNSt12_Vector_baseIiSaIiEE19_M_get_Tp_allocatorEv
	.section	.text._ZSt8_DestroyIPiiEvT_S1_RSaIT0_E,"axG",@progbits,_ZSt8_DestroyIPiiEvT_S1_RSaIT0_E,comdat
	.weak	_ZSt8_DestroyIPiiEvT_S1_RSaIT0_E
	.type	_ZSt8_DestroyIPiiEvT_S1_RSaIT0_E, @function
_ZSt8_DestroyIPiiEvT_S1_RSaIT0_E:
.LFB10851:
	.cfi_startproc
	endbr64
	push	rbp
	.cfi_def_cfa_offset 16
	.cfi_offset 6, -16
	mov	rbp, rsp
	.cfi_def_cfa_register 6
	sub	rsp, 32
	mov	QWORD PTR -8[rbp], rdi
	mov	QWORD PTR -16[rbp], rsi
	mov	QWORD PTR -24[rbp], rdx
	mov	rdx, QWORD PTR -16[rbp]
	mov	rax, QWORD PTR -8[rbp]
	mov	rsi, rdx
	mov	rdi, rax
	call	_ZSt8_DestroyIPiEvT_S1_
	nop
	leave
	.cfi_def_cfa 7, 8
	ret
	.cfi_endproc
.LFE10851:
	.size	_ZSt8_DestroyIPiiEvT_S1_RSaIT0_E, .-_ZSt8_DestroyIPiiEvT_S1_RSaIT0_E
	.section	.text._ZNKSt6vectorIS_IiSaIiEESaIS1_EE4sizeEv,"axG",@progbits,_ZNKSt6vectorIS_IiSaIiEESaIS1_EE4sizeEv,comdat
	.align 2
	.weak	_ZNKSt6vectorIS_IiSaIiEESaIS1_EE4sizeEv
	.type	_ZNKSt6vectorIS_IiSaIiEESaIS1_EE4sizeEv, @function
_ZNKSt6vectorIS_IiSaIiEESaIS1_EE4sizeEv:
.LFB10852:
	.cfi_startproc
	endbr64
	push	rbp
	.cfi_def_cfa_offset 16
	.cfi_offset 6, -16
	mov	rbp, rsp
	.cfi_def_cfa_register 6
	mov	QWORD PTR -8[rbp], rdi
	mov	rax, QWORD PTR -8[rbp]
	mov	rdx, QWORD PTR 8[rax]
	mov	rax, QWORD PTR -8[rbp]
	mov	rcx, QWORD PTR [rax]
	mov	rax, rdx
	sub	rax, rcx
	sar	rax, 3
	mov	rdx, rax
	movabs	rax, -6148914691236517205
	imul	rax, rdx
	pop	rbp
	.cfi_def_cfa 7, 8
	ret
	.cfi_endproc
.LFE10852:
	.size	_ZNKSt6vectorIS_IiSaIiEESaIS1_EE4sizeEv, .-_ZNKSt6vectorIS_IiSaIiEESaIS1_EE4sizeEv
	.section	.rodata
.LC5:
	.string	"vector::_M_fill_insert"
	.section	.text._ZNSt6vectorIS_IiSaIiEESaIS1_EE14_M_fill_insertEN9__gnu_cxx17__normal_iteratorIPS1_S3_EEmRKS1_,"axG",@progbits,_ZNSt6vectorIS_IiSaIiEESaIS1_EE14_M_fill_insertEN9__gnu_cxx17__normal_iteratorIPS1_S3_EEmRKS1_,comdat
	.align 2
	.weak	_ZNSt6vectorIS_IiSaIiEESaIS1_EE14_M_fill_insertEN9__gnu_cxx17__normal_iteratorIPS1_S3_EEmRKS1_
	.type	_ZNSt6vectorIS_IiSaIiEESaIS1_EE14_M_fill_insertEN9__gnu_cxx17__normal_iteratorIPS1_S3_EEmRKS1_, @function
_ZNSt6vectorIS_IiSaIiEESaIS1_EE14_M_fill_insertEN9__gnu_cxx17__normal_iteratorIPS1_S3_EEmRKS1_:
.LFB10853:
	.cfi_startproc
	.cfi_personality 0x9b,DW.ref.__gxx_personality_v0
	.cfi_lsda 0x1b,.LLSDA10853
	endbr64
	push	rbp
	.cfi_def_cfa_offset 16
	.cfi_offset 6, -16
	mov	rbp, rsp
	.cfi_def_cfa_register 6
	push	r12
	push	rbx
	sub	rsp, 144
	.cfi_offset 12, -24
	.cfi_offset 3, -32
	mov	QWORD PTR -136[rbp], rdi
	mov	QWORD PTR -144[rbp], rsi
	mov	QWORD PTR -152[rbp], rdx
	mov	QWORD PTR -160[rbp], rcx
	mov	rax, QWORD PTR fs:40
	mov	QWORD PTR -24[rbp], rax
	xor	eax, eax
	cmp	QWORD PTR -152[rbp], 0
	je	.L93
	mov	rax, QWORD PTR -136[rbp]
	mov	rdx, QWORD PTR 16[rax]
	mov	rax, QWORD PTR -136[rbp]
	mov	rcx, QWORD PTR 8[rax]
	mov	rax, rdx
	sub	rax, rcx
	sar	rax, 3
	mov	rdx, rax
	movabs	rax, -6148914691236517205
	imul	rax, rdx
	cmp	QWORD PTR -152[rbp], rax
	ja	.L81
	mov	rdx, QWORD PTR -160[rbp]
	mov	rcx, QWORD PTR -136[rbp]
	lea	rax, -64[rbp]
	mov	rsi, rcx
	mov	rdi, rax
.LEHB9:
	call	_ZNSt6vectorIS_IiSaIiEESaIS1_EE16_Temporary_valueC1IJRKS1_EEEPS3_DpOT_
.LEHE9:
	lea	rax, -64[rbp]
	mov	rdi, rax
.LEHB10:
	call	_ZNSt6vectorIS_IiSaIiEESaIS1_EE16_Temporary_value6_M_valEv
	mov	QWORD PTR -88[rbp], rax
	mov	rax, QWORD PTR -136[rbp]
	mov	rdi, rax
	call	_ZNSt6vectorIS_IiSaIiEESaIS1_EE3endEv
	mov	QWORD PTR -128[rbp], rax
	lea	rdx, -144[rbp]
	lea	rax, -128[rbp]
	mov	rsi, rdx
	mov	rdi, rax
	call	_ZN9__gnu_cxxmiIPSt6vectorIiSaIiEES1_IS3_SaIS3_EEEENS_17__normal_iteratorIT_T0_E15difference_typeERKSA_SD_
	mov	QWORD PTR -80[rbp], rax
	mov	rax, QWORD PTR -136[rbp]
	mov	rax, QWORD PTR 8[rax]
	mov	QWORD PTR -72[rbp], rax
	mov	rax, QWORD PTR -80[rbp]
	cmp	rax, QWORD PTR -152[rbp]
	jbe	.L82
	mov	rax, QWORD PTR -136[rbp]
	mov	rdi, rax
	call	_ZNSt12_Vector_baseISt6vectorIiSaIiEESaIS2_EE19_M_get_Tp_allocatorEv
	mov	rdi, rax
	mov	rax, QWORD PTR -136[rbp]
	mov	rdx, QWORD PTR 8[rax]
	mov	rax, QWORD PTR -136[rbp]
	mov	rsi, QWORD PTR 8[rax]
	mov	rax, QWORD PTR -136[rbp]
	mov	r8, QWORD PTR 8[rax]
	mov	rcx, QWORD PTR -152[rbp]
	mov	rax, rcx
	add	rax, rax
	add	rax, rcx
	sal	rax, 3
	neg	rax
	add	rax, r8
	mov	rcx, rdi
	mov	rdi, rax
	call	_ZSt22__uninitialized_move_aIPSt6vectorIiSaIiEES3_SaIS2_EET0_T_S6_S5_RT1_
	mov	rax, QWORD PTR -136[rbp]
	mov	rcx, QWORD PTR 8[rax]
	mov	rdx, QWORD PTR -152[rbp]
	mov	rax, rdx
	add	rax, rax
	add	rax, rdx
	sal	rax, 3
	lea	rdx, [rcx+rax]
	mov	rax, QWORD PTR -136[rbp]
	mov	QWORD PTR 8[rax], rdx
	mov	rdx, QWORD PTR -152[rbp]
	mov	rax, rdx
	add	rax, rax
	add	rax, rdx
	sal	rax, 3
	neg	rax
	mov	rdx, rax
	mov	rax, QWORD PTR -72[rbp]
	lea	rbx, [rdx+rax]
	lea	rax, -144[rbp]
	mov	rdi, rax
	call	_ZNK9__gnu_cxx17__normal_iteratorIPSt6vectorIiSaIiEES1_IS3_SaIS3_EEE4baseEv
	mov	rax, QWORD PTR [rax]
	mov	rdx, QWORD PTR -72[rbp]
	mov	rsi, rbx
	mov	rdi, rax
	call	_ZSt13move_backwardIPSt6vectorIiSaIiEES3_ET0_T_S5_S4_
	lea	rax, -144[rbp]
	mov	rdi, rax
	call	_ZNK9__gnu_cxx17__normal_iteratorIPSt6vectorIiSaIiEES1_IS3_SaIS3_EEE4baseEv
	mov	rcx, QWORD PTR [rax]
	mov	rdx, QWORD PTR -152[rbp]
	mov	rax, rdx
	add	rax, rax
	add	rax, rdx
	sal	rax, 3
	lea	rbx, [rcx+rax]
	lea	rax, -144[rbp]
	mov	rdi, rax
	call	_ZNK9__gnu_cxx17__normal_iteratorIPSt6vectorIiSaIiEES1_IS3_SaIS3_EEE4baseEv
	mov	rax, QWORD PTR [rax]
	mov	rdx, QWORD PTR -88[rbp]
	mov	rsi, rbx
	mov	rdi, rax
	call	_ZSt4fillIPSt6vectorIiSaIiEES2_EvT_S4_RKT0_
	jmp	.L83
.L82:
	mov	rax, QWORD PTR -136[rbp]
	mov	rdi, rax
	call	_ZNSt12_Vector_baseISt6vectorIiSaIiEESaIS2_EE19_M_get_Tp_allocatorEv
	mov	rcx, rax
	mov	rax, QWORD PTR -152[rbp]
	sub	rax, QWORD PTR -80[rbp]
	mov	rsi, rax
	mov	rax, QWORD PTR -136[rbp]
	mov	rax, QWORD PTR 8[rax]
	mov	rdx, QWORD PTR -88[rbp]
	mov	rdi, rax
	call	_ZSt24__uninitialized_fill_n_aIPSt6vectorIiSaIiEEmS2_S2_ET_S4_T0_RKT1_RSaIT2_E
	mov	rdx, QWORD PTR -136[rbp]
	mov	QWORD PTR 8[rdx], rax
	mov	rax, QWORD PTR -136[rbp]
	mov	rdi, rax
	call	_ZNSt12_Vector_baseISt6vectorIiSaIiEESaIS2_EE19_M_get_Tp_allocatorEv
	mov	r12, rax
	mov	rax, QWORD PTR -136[rbp]
	mov	rbx, QWORD PTR 8[rax]
	lea	rax, -144[rbp]
	mov	rdi, rax
	call	_ZNK9__gnu_cxx17__normal_iteratorIPSt6vectorIiSaIiEES1_IS3_SaIS3_EEE4baseEv
	mov	rax, QWORD PTR [rax]
	mov	rsi, QWORD PTR -72[rbp]
	mov	rcx, r12
	mov	rdx, rbx
	mov	rdi, rax
	call	_ZSt22__uninitialized_move_aIPSt6vectorIiSaIiEES3_SaIS2_EET0_T_S6_S5_RT1_
	mov	rax, QWORD PTR -136[rbp]
	mov	rcx, QWORD PTR 8[rax]
	mov	rdx, QWORD PTR -80[rbp]
	mov	rax, rdx
	add	rax, rax
	add	rax, rdx
	sal	rax, 3
	lea	rdx, [rcx+rax]
	mov	rax, QWORD PTR -136[rbp]
	mov	QWORD PTR 8[rax], rdx
	lea	rax, -144[rbp]
	mov	rdi, rax
	call	_ZNK9__gnu_cxx17__normal_iteratorIPSt6vectorIiSaIiEES1_IS3_SaIS3_EEE4baseEv
	mov	rax, QWORD PTR [rax]
	mov	rdx, QWORD PTR -88[rbp]
	mov	rcx, QWORD PTR -72[rbp]
	mov	rsi, rcx
	mov	rdi, rax
	call	_ZSt4fillIPSt6vectorIiSaIiEES2_EvT_S4_RKT0_
.LEHE10:
.L83:
	lea	rax, -64[rbp]
	mov	rdi, rax
	call	_ZNSt6vectorIS_IiSaIiEESaIS1_EE16_Temporary_valueD1Ev
	jmp	.L93
.L81:
	mov	rcx, QWORD PTR -152[rbp]
	mov	rax, QWORD PTR -136[rbp]
	lea	rdx, .LC5[rip]
	mov	rsi, rcx
	mov	rdi, rax
.LEHB11:
	call	_ZNKSt6vectorIS_IiSaIiEESaIS1_EE12_M_check_lenEmPKc
	mov	QWORD PTR -112[rbp], rax
	mov	rax, QWORD PTR -136[rbp]
	mov	rdi, rax
	call	_ZNSt6vectorIS_IiSaIiEESaIS1_EE5beginEv
	mov	QWORD PTR -128[rbp], rax
	lea	rdx, -128[rbp]
	lea	rax, -144[rbp]
	mov	rsi, rdx
	mov	rdi, rax
	call	_ZN9__gnu_cxxmiIPSt6vectorIiSaIiEES1_IS3_SaIS3_EEEENS_17__normal_iteratorIT_T0_E15difference_typeERKSA_SD_
	mov	QWORD PTR -104[rbp], rax
	mov	rax, QWORD PTR -136[rbp]
	mov	rdx, QWORD PTR -112[rbp]
	mov	rsi, rdx
	mov	rdi, rax
	call	_ZNSt12_Vector_baseISt6vectorIiSaIiEESaIS2_EE11_M_allocateEm
.LEHE11:
	mov	QWORD PTR -96[rbp], rax
	mov	rax, QWORD PTR -96[rbp]
	mov	QWORD PTR -120[rbp], rax
	mov	rax, QWORD PTR -136[rbp]
	mov	rdi, rax
	call	_ZNSt12_Vector_baseISt6vectorIiSaIiEESaIS2_EE19_M_get_Tp_allocatorEv
	mov	rcx, rax
	mov	rdx, QWORD PTR -104[rbp]
	mov	rax, rdx
	add	rax, rax
	add	rax, rdx
	sal	rax, 3
	mov	rdx, rax
	mov	rax, QWORD PTR -96[rbp]
	lea	rdi, [rdx+rax]
	mov	rdx, QWORD PTR -160[rbp]
	mov	rax, QWORD PTR -152[rbp]
	mov	rsi, rax
.LEHB12:
	call	_ZSt24__uninitialized_fill_n_aIPSt6vectorIiSaIiEEmS2_S2_ET_S4_T0_RKT1_RSaIT2_E
	mov	QWORD PTR -120[rbp], 0
	mov	rax, QWORD PTR -136[rbp]
	mov	rdi, rax
	call	_ZNSt12_Vector_baseISt6vectorIiSaIiEESaIS2_EE19_M_get_Tp_allocatorEv
	mov	rbx, rax
	lea	rax, -144[rbp]
	mov	rdi, rax
	call	_ZNK9__gnu_cxx17__normal_iteratorIPSt6vectorIiSaIiEES1_IS3_SaIS3_EEE4baseEv
	mov	rsi, QWORD PTR [rax]
	mov	rax, QWORD PTR -136[rbp]
	mov	rax, QWORD PTR [rax]
	mov	rdx, QWORD PTR -96[rbp]
	mov	rcx, rbx
	mov	rdi, rax
	call	_ZSt34__uninitialized_move_if_noexcept_aIPSt6vectorIiSaIiEES3_SaIS2_EET0_T_S6_S5_RT1_
	mov	QWORD PTR -120[rbp], rax
	mov	rdx, QWORD PTR -152[rbp]
	mov	rax, rdx
	add	rax, rax
	add	rax, rdx
	sal	rax, 3
	add	QWORD PTR -120[rbp], rax
	mov	rax, QWORD PTR -136[rbp]
	mov	rdi, rax
	call	_ZNSt12_Vector_baseISt6vectorIiSaIiEESaIS2_EE19_M_get_Tp_allocatorEv
	mov	r12, rax
	mov	rax, QWORD PTR -136[rbp]
	mov	rbx, QWORD PTR 8[rax]
	lea	rax, -144[rbp]
	mov	rdi, rax
	call	_ZNK9__gnu_cxx17__normal_iteratorIPSt6vectorIiSaIiEES1_IS3_SaIS3_EEE4baseEv
	mov	rax, QWORD PTR [rax]
	mov	rdx, QWORD PTR -120[rbp]
	mov	rcx, r12
	mov	rsi, rbx
	mov	rdi, rax
	call	_ZSt34__uninitialized_move_if_noexcept_aIPSt6vectorIiSaIiEES3_SaIS2_EET0_T_S6_S5_RT1_
.LEHE12:
	mov	QWORD PTR -120[rbp], rax
	mov	rax, QWORD PTR -136[rbp]
	mov	rdi, rax
	call	_ZNSt12_Vector_baseISt6vectorIiSaIiEESaIS2_EE19_M_get_Tp_allocatorEv
	mov	rdx, rax
	mov	rax, QWORD PTR -136[rbp]
	mov	rcx, QWORD PTR 8[rax]
	mov	rax, QWORD PTR -136[rbp]
	mov	rax, QWORD PTR [rax]
	mov	rsi, rcx
	mov	rdi, rax
.LEHB13:
	call	_ZSt8_DestroyIPSt6vectorIiSaIiEES2_EvT_S4_RSaIT0_E
	mov	rax, QWORD PTR -136[rbp]
	mov	rdx, QWORD PTR -136[rbp]
	mov	rcx, QWORD PTR 16[rdx]
	mov	rdx, QWORD PTR -136[rbp]
	mov	rsi, QWORD PTR [rdx]
	sub	rcx, rsi
	mov	rdx, rcx
	mov	rcx, rdx
	sar	rcx, 3
	movabs	rdx, -6148914691236517205
	imul	rdx, rcx
	mov	rsi, rdx
	mov	rdx, QWORD PTR -136[rbp]
	mov	rcx, QWORD PTR [rdx]
	mov	rdx, rsi
	mov	rsi, rcx
	mov	rdi, rax
	call	_ZNSt12_Vector_baseISt6vectorIiSaIiEESaIS2_EE13_M_deallocateEPS2_m
	mov	rax, QWORD PTR -136[rbp]
	mov	rdx, QWORD PTR -96[rbp]
	mov	QWORD PTR [rax], rdx
	mov	rax, QWORD PTR -136[rbp]
	mov	rdx, QWORD PTR -120[rbp]
	mov	QWORD PTR 8[rax], rdx
	mov	rdx, QWORD PTR -112[rbp]
	mov	rax, rdx
	add	rax, rax
	add	rax, rdx
	sal	rax, 3
	mov	rdx, rax
	mov	rax, QWORD PTR -96[rbp]
	add	rdx, rax
	mov	rax, QWORD PTR -136[rbp]
	mov	QWORD PTR 16[rax], rdx
	jmp	.L93
.L90:
	endbr64
	mov	rbx, rax
	lea	rax, -64[rbp]
	mov	rdi, rax
	call	_ZNSt6vectorIS_IiSaIiEESaIS1_EE16_Temporary_valueD1Ev
	mov	rax, rbx
	mov	rdi, rax
	call	_Unwind_Resume@PLT
.LEHE13:
.L91:
	endbr64
	mov	rdi, rax
	call	__cxa_begin_catch@PLT
	cmp	QWORD PTR -120[rbp], 0
	jne	.L86
	mov	rax, QWORD PTR -136[rbp]
	mov	rdi, rax
	call	_ZNSt12_Vector_baseISt6vectorIiSaIiEESaIS2_EE19_M_get_Tp_allocatorEv
	mov	rsi, rax
	mov	rdx, QWORD PTR -104[rbp]
	mov	rax, QWORD PTR -152[rbp]
	add	rdx, rax
	mov	rax, rdx
	add	rax, rax
	add	rax, rdx
	sal	rax, 3
	mov	rdx, rax
	mov	rax, QWORD PTR -96[rbp]
	lea	rcx, [rdx+rax]
	mov	rdx, QWORD PTR -104[rbp]
	mov	rax, rdx
	add	rax, rax
	add	rax, rdx
	sal	rax, 3
	mov	rdx, rax
	mov	rax, QWORD PTR -96[rbp]
	add	rax, rdx
	mov	rdx, rsi
	mov	rsi, rcx
	mov	rdi, rax
.LEHB14:
	call	_ZSt8_DestroyIPSt6vectorIiSaIiEES2_EvT_S4_RSaIT0_E
	jmp	.L87
.L86:
	mov	rax, QWORD PTR -136[rbp]
	mov	rdi, rax
	call	_ZNSt12_Vector_baseISt6vectorIiSaIiEESaIS2_EE19_M_get_Tp_allocatorEv
	mov	rdx, rax
	mov	rcx, QWORD PTR -120[rbp]
	mov	rax, QWORD PTR -96[rbp]
	mov	rsi, rcx
	mov	rdi, rax
	call	_ZSt8_DestroyIPSt6vectorIiSaIiEES2_EvT_S4_RSaIT0_E
.L87:
	mov	rax, QWORD PTR -136[rbp]
	mov	rdx, QWORD PTR -112[rbp]
	mov	rcx, QWORD PTR -96[rbp]
	mov	rsi, rcx
	mov	rdi, rax
	call	_ZNSt12_Vector_baseISt6vectorIiSaIiEESaIS2_EE13_M_deallocateEPS2_m
	call	__cxa_rethrow@PLT
.LEHE14:
.L92:
	endbr64
	mov	rbx, rax
	call	__cxa_end_catch@PLT
	mov	rax, rbx
	mov	rdi, rax
.LEHB15:
	call	_Unwind_Resume@PLT
.LEHE15:
.L93:
	nop
	mov	rax, QWORD PTR -24[rbp]
	sub	rax, QWORD PTR fs:40
	je	.L89
	call	__stack_chk_fail@PLT
.L89:
	add	rsp, 144
	pop	rbx
	pop	r12
	pop	rbp
	.cfi_def_cfa 7, 8
	ret
	.cfi_endproc
.LFE10853:
	.section	.gcc_except_table
	.align 4
.LLSDA10853:
	.byte	0xff
	.byte	0x9b
	.uleb128 .LLSDATT10853-.LLSDATTD10853
.LLSDATTD10853:
	.byte	0x1
	.uleb128 .LLSDACSE10853-.LLSDACSB10853
.LLSDACSB10853:
	.uleb128 .LEHB9-.LFB10853
	.uleb128 .LEHE9-.LEHB9
	.uleb128 0
	.uleb128 0
	.uleb128 .LEHB10-.LFB10853
	.uleb128 .LEHE10-.LEHB10
	.uleb128 .L90-.LFB10853
	.uleb128 0
	.uleb128 .LEHB11-.LFB10853
	.uleb128 .LEHE11-.LEHB11
	.uleb128 0
	.uleb128 0
	.uleb128 .LEHB12-.LFB10853
	.uleb128 .LEHE12-.LEHB12
	.uleb128 .L91-.LFB10853
	.uleb128 0x1
	.uleb128 .LEHB13-.LFB10853
	.uleb128 .LEHE13-.LEHB13
	.uleb128 0
	.uleb128 0
	.uleb128 .LEHB14-.LFB10853
	.uleb128 .LEHE14-.LEHB14
	.uleb128 .L92-.LFB10853
	.uleb128 0
	.uleb128 .LEHB15-.LFB10853
	.uleb128 .LEHE15-.LEHB15
	.uleb128 0
	.uleb128 0
.LLSDACSE10853:
	.byte	0x1
	.byte	0
	.align 4
	.long	0

.LLSDATT10853:
	.section	.text._ZNSt6vectorIS_IiSaIiEESaIS1_EE14_M_fill_insertEN9__gnu_cxx17__normal_iteratorIPS1_S3_EEmRKS1_,"axG",@progbits,_ZNSt6vectorIS_IiSaIiEESaIS1_EE14_M_fill_insertEN9__gnu_cxx17__normal_iteratorIPS1_S3_EEmRKS1_,comdat
	.size	_ZNSt6vectorIS_IiSaIiEESaIS1_EE14_M_fill_insertEN9__gnu_cxx17__normal_iteratorIPS1_S3_EEmRKS1_, .-_ZNSt6vectorIS_IiSaIiEESaIS1_EE14_M_fill_insertEN9__gnu_cxx17__normal_iteratorIPS1_S3_EEmRKS1_
	.section	.text._ZNSt6vectorIS_IiSaIiEESaIS1_EE3endEv,"axG",@progbits,_ZNSt6vectorIS_IiSaIiEESaIS1_EE3endEv,comdat
	.align 2
	.weak	_ZNSt6vectorIS_IiSaIiEESaIS1_EE3endEv
	.type	_ZNSt6vectorIS_IiSaIiEESaIS1_EE3endEv, @function
_ZNSt6vectorIS_IiSaIiEESaIS1_EE3endEv:
.LFB10854:
	.cfi_startproc
	endbr64
	push	rbp
	.cfi_def_cfa_offset 16
	.cfi_offset 6, -16
	mov	rbp, rsp
	.cfi_def_cfa_register 6
	sub	rsp, 32
	mov	QWORD PTR -24[rbp], rdi
	mov	rax, QWORD PTR fs:40
	mov	QWORD PTR -8[rbp], rax
	xor	eax, eax
	mov	rax, QWORD PTR -24[rbp]
	lea	rdx, 8[rax]
	lea	rax, -16[rbp]
	mov	rsi, rdx
	mov	rdi, rax
	call	_ZN9__gnu_cxx17__normal_iteratorIPSt6vectorIiSaIiEES1_IS3_SaIS3_EEEC1ERKS4_
	mov	rax, QWORD PTR -16[rbp]
	mov	rdx, QWORD PTR -8[rbp]
	sub	rdx, QWORD PTR fs:40
	je	.L96
	call	__stack_chk_fail@PLT
.L96:
	leave
	.cfi_def_cfa 7, 8
	ret
	.cfi_endproc
.LFE10854:
	.size	_ZNSt6vectorIS_IiSaIiEESaIS1_EE3endEv, .-_ZNSt6vectorIS_IiSaIiEESaIS1_EE3endEv
	.section	.text._ZNSt6vectorIS_IiSaIiEESaIS1_EE15_M_erase_at_endEPS1_,"axG",@progbits,_ZNSt6vectorIS_IiSaIiEESaIS1_EE15_M_erase_at_endEPS1_,comdat
	.align 2
	.weak	_ZNSt6vectorIS_IiSaIiEESaIS1_EE15_M_erase_at_endEPS1_
	.type	_ZNSt6vectorIS_IiSaIiEESaIS1_EE15_M_erase_at_endEPS1_, @function
_ZNSt6vectorIS_IiSaIiEESaIS1_EE15_M_erase_at_endEPS1_:
.LFB10855:
	.cfi_startproc
	.cfi_personality 0x9b,DW.ref.__gxx_personality_v0
	.cfi_lsda 0x1b,.LLSDA10855
	endbr64
	push	rbp
	.cfi_def_cfa_offset 16
	.cfi_offset 6, -16
	mov	rbp, rsp
	.cfi_def_cfa_register 6
	sub	rsp, 32
	mov	QWORD PTR -24[rbp], rdi
	mov	QWORD PTR -32[rbp], rsi
	mov	rax, QWORD PTR -24[rbp]
	mov	rax, QWORD PTR 8[rax]
	sub	rax, QWORD PTR -32[rbp]
	sar	rax, 3
	mov	rdx, rax
	movabs	rax, -6148914691236517205
	imul	rax, rdx
	mov	QWORD PTR -8[rbp], rax
	cmp	QWORD PTR -8[rbp], 0
	je	.L99
	mov	rax, QWORD PTR -24[rbp]
	mov	rdi, rax
	call	_ZNSt12_Vector_baseISt6vectorIiSaIiEESaIS2_EE19_M_get_Tp_allocatorEv
	mov	rdx, rax
	mov	rax, QWORD PTR -24[rbp]
	mov	rcx, QWORD PTR 8[rax]
	mov	rax, QWORD PTR -32[rbp]
	mov	rsi, rcx
	mov	rdi, rax
	call	_ZSt8_DestroyIPSt6vectorIiSaIiEES2_EvT_S4_RSaIT0_E
	mov	rax, QWORD PTR -24[rbp]
	mov	rdx, QWORD PTR -32[rbp]
	mov	QWORD PTR 8[rax], rdx
.L99:
	nop
	leave
	.cfi_def_cfa 7, 8
	ret
	.cfi_endproc
.LFE10855:
	.section	.gcc_except_table
.LLSDA10855:
	.byte	0xff
	.byte	0xff
	.byte	0x1
	.uleb128 .LLSDACSE10855-.LLSDACSB10855
.LLSDACSB10855:
.LLSDACSE10855:
	.section	.text._ZNSt6vectorIS_IiSaIiEESaIS1_EE15_M_erase_at_endEPS1_,"axG",@progbits,_ZNSt6vectorIS_IiSaIiEESaIS1_EE15_M_erase_at_endEPS1_,comdat
	.size	_ZNSt6vectorIS_IiSaIiEESaIS1_EE15_M_erase_at_endEPS1_, .-_ZNSt6vectorIS_IiSaIiEESaIS1_EE15_M_erase_at_endEPS1_
	.section	.text._ZN9__gnu_cxx13new_allocatorISt6vectorIiSaIiEEEC2Ev,"axG",@progbits,_ZN9__gnu_cxx13new_allocatorISt6vectorIiSaIiEEEC5Ev,comdat
	.align 2
	.weak	_ZN9__gnu_cxx13new_allocatorISt6vectorIiSaIiEEEC2Ev
	.type	_ZN9__gnu_cxx13new_allocatorISt6vectorIiSaIiEEEC2Ev, @function
_ZN9__gnu_cxx13new_allocatorISt6vectorIiSaIiEEEC2Ev:
.LFB11053:
	.cfi_startproc
	endbr64
	push	rbp
	.cfi_def_cfa_offset 16
	.cfi_offset 6, -16
	mov	rbp, rsp
	.cfi_def_cfa_register 6
	mov	QWORD PTR -8[rbp], rdi
	nop
	pop	rbp
	.cfi_def_cfa 7, 8
	ret
	.cfi_endproc
.LFE11053:
	.size	_ZN9__gnu_cxx13new_allocatorISt6vectorIiSaIiEEEC2Ev, .-_ZN9__gnu_cxx13new_allocatorISt6vectorIiSaIiEEEC2Ev
	.weak	_ZN9__gnu_cxx13new_allocatorISt6vectorIiSaIiEEEC1Ev
	.set	_ZN9__gnu_cxx13new_allocatorISt6vectorIiSaIiEEEC1Ev,_ZN9__gnu_cxx13new_allocatorISt6vectorIiSaIiEEEC2Ev
	.section	.text._ZNSt16allocator_traitsISaISt6vectorIiSaIiEEEE10deallocateERS3_PS2_m,"axG",@progbits,_ZNSt16allocator_traitsISaISt6vectorIiSaIiEEEE10deallocateERS3_PS2_m,comdat
	.weak	_ZNSt16allocator_traitsISaISt6vectorIiSaIiEEEE10deallocateERS3_PS2_m
	.type	_ZNSt16allocator_traitsISaISt6vectorIiSaIiEEEE10deallocateERS3_PS2_m, @function
_ZNSt16allocator_traitsISaISt6vectorIiSaIiEEEE10deallocateERS3_PS2_m:
.LFB11055:
	.cfi_startproc
	endbr64
	push	rbp
	.cfi_def_cfa_offset 16
	.cfi_offset 6, -16
	mov	rbp, rsp
	.cfi_def_cfa_register 6
	sub	rsp, 32
	mov	QWORD PTR -8[rbp], rdi
	mov	QWORD PTR -16[rbp], rsi
	mov	QWORD PTR -24[rbp], rdx
	mov	rdx, QWORD PTR -24[rbp]
	mov	rcx, QWORD PTR -16[rbp]
	mov	rax, QWORD PTR -8[rbp]
	mov	rsi, rcx
	mov	rdi, rax
	call	_ZN9__gnu_cxx13new_allocatorISt6vectorIiSaIiEEE10deallocateEPS3_m
	nop
	leave
	.cfi_def_cfa 7, 8
	ret
	.cfi_endproc
.LFE11055:
	.size	_ZNSt16allocator_traitsISaISt6vectorIiSaIiEEEE10deallocateERS3_PS2_m, .-_ZNSt16allocator_traitsISaISt6vectorIiSaIiEEEE10deallocateERS3_PS2_m
	.section	.text._ZNSt6vectorIiSaIiEE11_S_max_sizeERKS0_,"axG",@progbits,_ZNSt6vectorIiSaIiEE11_S_max_sizeERKS0_,comdat
	.weak	_ZNSt6vectorIiSaIiEE11_S_max_sizeERKS0_
	.type	_ZNSt6vectorIiSaIiEE11_S_max_sizeERKS0_, @function
_ZNSt6vectorIiSaIiEE11_S_max_sizeERKS0_:
.LFB11056:
	.cfi_startproc
	endbr64
	push	rbp
	.cfi_def_cfa_offset 16
	.cfi_offset 6, -16
	mov	rbp, rsp
	.cfi_def_cfa_register 6
	sub	rsp, 48
	mov	QWORD PTR -40[rbp], rdi
	mov	rax, QWORD PTR fs:40
	mov	QWORD PTR -8[rbp], rax
	xor	eax, eax
	movabs	rax, 2305843009213693951
	mov	QWORD PTR -24[rbp], rax
	mov	rax, QWORD PTR -40[rbp]
	mov	rdi, rax
	call	_ZNSt16allocator_traitsISaIiEE8max_sizeERKS0_
	mov	QWORD PTR -16[rbp], rax
	lea	rdx, -16[rbp]
	lea	rax, -24[rbp]
	mov	rsi, rdx
	mov	rdi, rax
	call	_ZSt3minImERKT_S2_S2_
	mov	rax, QWORD PTR [rax]
	mov	rdx, QWORD PTR -8[rbp]
	sub	rdx, QWORD PTR fs:40
	je	.L104
	call	__stack_chk_fail@PLT
.L104:
	leave
	.cfi_def_cfa 7, 8
	ret
	.cfi_endproc
.LFE11056:
	.size	_ZNSt6vectorIiSaIiEE11_S_max_sizeERKS0_, .-_ZNSt6vectorIiSaIiEE11_S_max_sizeERKS0_
	.section	.text._ZNSaIiEC2ERKS_,"axG",@progbits,_ZNSaIiEC5ERKS_,comdat
	.align 2
	.weak	_ZNSaIiEC2ERKS_
	.type	_ZNSaIiEC2ERKS_, @function
_ZNSaIiEC2ERKS_:
.LFB11058:
	.cfi_startproc
	endbr64
	push	rbp
	.cfi_def_cfa_offset 16
	.cfi_offset 6, -16
	mov	rbp, rsp
	.cfi_def_cfa_register 6
	sub	rsp, 16
	mov	QWORD PTR -8[rbp], rdi
	mov	QWORD PTR -16[rbp], rsi
	mov	rdx, QWORD PTR -16[rbp]
	mov	rax, QWORD PTR -8[rbp]
	mov	rsi, rdx
	mov	rdi, rax
	call	_ZN9__gnu_cxx13new_allocatorIiEC2ERKS1_
	nop
	leave
	.cfi_def_cfa 7, 8
	ret
	.cfi_endproc
.LFE11058:
	.size	_ZNSaIiEC2ERKS_, .-_ZNSaIiEC2ERKS_
	.weak	_ZNSaIiEC1ERKS_
	.set	_ZNSaIiEC1ERKS_,_ZNSaIiEC2ERKS_
	.section	.text._ZNSt12_Vector_baseIiSaIiEE12_Vector_implC2ERKS0_,"axG",@progbits,_ZNSt12_Vector_baseIiSaIiEE12_Vector_implC5ERKS0_,comdat
	.align 2
	.weak	_ZNSt12_Vector_baseIiSaIiEE12_Vector_implC2ERKS0_
	.type	_ZNSt12_Vector_baseIiSaIiEE12_Vector_implC2ERKS0_, @function
_ZNSt12_Vector_baseIiSaIiEE12_Vector_implC2ERKS0_:
.LFB11061:
	.cfi_startproc
	endbr64
	push	rbp
	.cfi_def_cfa_offset 16
	.cfi_offset 6, -16
	mov	rbp, rsp
	.cfi_def_cfa_register 6
	sub	rsp, 16
	mov	QWORD PTR -8[rbp], rdi
	mov	QWORD PTR -16[rbp], rsi
	mov	rdx, QWORD PTR -16[rbp]
	mov	rax, QWORD PTR -8[rbp]
	mov	rsi, rdx
	mov	rdi, rax
	call	_ZNSaIiEC2ERKS_
	mov	rax, QWORD PTR -8[rbp]
	mov	rdi, rax
	call	_ZNSt12_Vector_baseIiSaIiEE17_Vector_impl_dataC2Ev
	nop
	leave
	.cfi_def_cfa 7, 8
	ret
	.cfi_endproc
.LFE11061:
	.size	_ZNSt12_Vector_baseIiSaIiEE12_Vector_implC2ERKS0_, .-_ZNSt12_Vector_baseIiSaIiEE12_Vector_implC2ERKS0_
	.weak	_ZNSt12_Vector_baseIiSaIiEE12_Vector_implC1ERKS0_
	.set	_ZNSt12_Vector_baseIiSaIiEE12_Vector_implC1ERKS0_,_ZNSt12_Vector_baseIiSaIiEE12_Vector_implC2ERKS0_
	.section	.text._ZNSt12_Vector_baseIiSaIiEE17_M_create_storageEm,"axG",@progbits,_ZNSt12_Vector_baseIiSaIiEE17_M_create_storageEm,comdat
	.align 2
	.weak	_ZNSt12_Vector_baseIiSaIiEE17_M_create_storageEm
	.type	_ZNSt12_Vector_baseIiSaIiEE17_M_create_storageEm, @function
_ZNSt12_Vector_baseIiSaIiEE17_M_create_storageEm:
.LFB11063:
	.cfi_startproc
	endbr64
	push	rbp
	.cfi_def_cfa_offset 16
	.cfi_offset 6, -16
	mov	rbp, rsp
	.cfi_def_cfa_register 6
	sub	rsp, 16
	mov	QWORD PTR -8[rbp], rdi
	mov	QWORD PTR -16[rbp], rsi
	mov	rdx, QWORD PTR -16[rbp]
	mov	rax, QWORD PTR -8[rbp]
	mov	rsi, rdx
	mov	rdi, rax
	call	_ZNSt12_Vector_baseIiSaIiEE11_M_allocateEm
	mov	rdx, QWORD PTR -8[rbp]
	mov	QWORD PTR [rdx], rax
	mov	rax, QWORD PTR -8[rbp]
	mov	rdx, QWORD PTR [rax]
	mov	rax, QWORD PTR -8[rbp]
	mov	QWORD PTR 8[rax], rdx
	mov	rax, QWORD PTR -8[rbp]
	mov	rdx, QWORD PTR [rax]
	mov	rax, QWORD PTR -16[rbp]
	sal	rax, 2
	add	rdx, rax
	mov	rax, QWORD PTR -8[rbp]
	mov	QWORD PTR 16[rax], rdx
	nop
	leave
	.cfi_def_cfa 7, 8
	ret
	.cfi_endproc
.LFE11063:
	.size	_ZNSt12_Vector_baseIiSaIiEE17_M_create_storageEm, .-_ZNSt12_Vector_baseIiSaIiEE17_M_create_storageEm
	.section	.text._ZNSt12_Vector_baseIiSaIiEE13_M_deallocateEPim,"axG",@progbits,_ZNSt12_Vector_baseIiSaIiEE13_M_deallocateEPim,comdat
	.align 2
	.weak	_ZNSt12_Vector_baseIiSaIiEE13_M_deallocateEPim
	.type	_ZNSt12_Vector_baseIiSaIiEE13_M_deallocateEPim, @function
_ZNSt12_Vector_baseIiSaIiEE13_M_deallocateEPim:
.LFB11064:
	.cfi_startproc
	endbr64
	push	rbp
	.cfi_def_cfa_offset 16
	.cfi_offset 6, -16
	mov	rbp, rsp
	.cfi_def_cfa_register 6
	sub	rsp, 32
	mov	QWORD PTR -8[rbp], rdi
	mov	QWORD PTR -16[rbp], rsi
	mov	QWORD PTR -24[rbp], rdx
	cmp	QWORD PTR -16[rbp], 0
	je	.L110
	mov	rax, QWORD PTR -8[rbp]
	mov	rdx, QWORD PTR -24[rbp]
	mov	rcx, QWORD PTR -16[rbp]
	mov	rsi, rcx
	mov	rdi, rax
	call	_ZNSt16allocator_traitsISaIiEE10deallocateERS0_Pim
.L110:
	nop
	leave
	.cfi_def_cfa 7, 8
	ret
	.cfi_endproc
.LFE11064:
	.size	_ZNSt12_Vector_baseIiSaIiEE13_M_deallocateEPim, .-_ZNSt12_Vector_baseIiSaIiEE13_M_deallocateEPim
	.section	.text._ZSt27__uninitialized_default_n_aIPimiET_S1_T0_RSaIT1_E,"axG",@progbits,_ZSt27__uninitialized_default_n_aIPimiET_S1_T0_RSaIT1_E,comdat
	.weak	_ZSt27__uninitialized_default_n_aIPimiET_S1_T0_RSaIT1_E
	.type	_ZSt27__uninitialized_default_n_aIPimiET_S1_T0_RSaIT1_E, @function
_ZSt27__uninitialized_default_n_aIPimiET_S1_T0_RSaIT1_E:
.LFB11065:
	.cfi_startproc
	endbr64
	push	rbp
	.cfi_def_cfa_offset 16
	.cfi_offset 6, -16
	mov	rbp, rsp
	.cfi_def_cfa_register 6
	sub	rsp, 32
	mov	QWORD PTR -8[rbp], rdi
	mov	QWORD PTR -16[rbp], rsi
	mov	QWORD PTR -24[rbp], rdx
	mov	rdx, QWORD PTR -16[rbp]
	mov	rax, QWORD PTR -8[rbp]
	mov	rsi, rdx
	mov	rdi, rax
	call	_ZSt25__uninitialized_default_nIPimET_S1_T0_
	leave
	.cfi_def_cfa 7, 8
	ret
	.cfi_endproc
.LFE11065:
	.size	_ZSt27__uninitialized_default_n_aIPimiET_S1_T0_RSaIT1_E, .-_ZSt27__uninitialized_default_n_aIPimiET_S1_T0_RSaIT1_E
	.section	.text._ZSt8_DestroyIPiEvT_S1_,"axG",@progbits,_ZSt8_DestroyIPiEvT_S1_,comdat
	.weak	_ZSt8_DestroyIPiEvT_S1_
	.type	_ZSt8_DestroyIPiEvT_S1_, @function
_ZSt8_DestroyIPiEvT_S1_:
.LFB11066:
	.cfi_startproc
	endbr64
	push	rbp
	.cfi_def_cfa_offset 16
	.cfi_offset 6, -16
	mov	rbp, rsp
	.cfi_def_cfa_register 6
	sub	rsp, 16
	mov	QWORD PTR -8[rbp], rdi
	mov	QWORD PTR -16[rbp], rsi
	mov	rdx, QWORD PTR -16[rbp]
	mov	rax, QWORD PTR -8[rbp]
	mov	rsi, rdx
	mov	rdi, rax
	call	_ZNSt12_Destroy_auxILb1EE9__destroyIPiEEvT_S3_
	nop
	leave
	.cfi_def_cfa 7, 8
	ret
	.cfi_endproc
.LFE11066:
	.size	_ZSt8_DestroyIPiEvT_S1_, .-_ZSt8_DestroyIPiEvT_S1_
	.section	.text._ZNSt6vectorIS_IiSaIiEESaIS1_EE16_Temporary_valueC2IJRKS1_EEEPS3_DpOT_,"axG",@progbits,_ZNSt6vectorIS_IiSaIiEESaIS1_EE16_Temporary_valueC5IJRKS1_EEEPS3_DpOT_,comdat
	.align 2
	.weak	_ZNSt6vectorIS_IiSaIiEESaIS1_EE16_Temporary_valueC2IJRKS1_EEEPS3_DpOT_
	.type	_ZNSt6vectorIS_IiSaIiEESaIS1_EE16_Temporary_valueC2IJRKS1_EEEPS3_DpOT_, @function
_ZNSt6vectorIS_IiSaIiEESaIS1_EE16_Temporary_valueC2IJRKS1_EEEPS3_DpOT_:
.LFB11070:
	.cfi_startproc
	endbr64
	push	rbp
	.cfi_def_cfa_offset 16
	.cfi_offset 6, -16
	mov	rbp, rsp
	.cfi_def_cfa_register 6
	push	rbx
	sub	rsp, 40
	.cfi_offset 3, -24
	mov	QWORD PTR -24[rbp], rdi
	mov	QWORD PTR -32[rbp], rsi
	mov	QWORD PTR -40[rbp], rdx
	mov	rax, QWORD PTR -24[rbp]
	mov	rdx, QWORD PTR -32[rbp]
	mov	QWORD PTR [rax], rdx
	mov	rax, QWORD PTR -40[rbp]
	mov	rdi, rax
	call	_ZSt7forwardIRKSt6vectorIiSaIiEEEOT_RNSt16remove_referenceIS5_E4typeE
	mov	rbx, rax
	mov	rax, QWORD PTR -24[rbp]
	mov	rdi, rax
	call	_ZNSt6vectorIS_IiSaIiEESaIS1_EE16_Temporary_value6_M_ptrEv
	mov	rcx, rax
	mov	rax, QWORD PTR -24[rbp]
	mov	rax, QWORD PTR [rax]
	mov	rdx, rbx
	mov	rsi, rcx
	mov	rdi, rax
	call	_ZNSt16allocator_traitsISaISt6vectorIiSaIiEEEE9constructIS2_JRKS2_EEEvRS3_PT_DpOT0_
	nop
	mov	rbx, QWORD PTR -8[rbp]
	leave
	.cfi_def_cfa 7, 8
	ret
	.cfi_endproc
.LFE11070:
	.size	_ZNSt6vectorIS_IiSaIiEESaIS1_EE16_Temporary_valueC2IJRKS1_EEEPS3_DpOT_, .-_ZNSt6vectorIS_IiSaIiEESaIS1_EE16_Temporary_valueC2IJRKS1_EEEPS3_DpOT_
	.weak	_ZNSt6vectorIS_IiSaIiEESaIS1_EE16_Temporary_valueC1IJRKS1_EEEPS3_DpOT_
	.set	_ZNSt6vectorIS_IiSaIiEESaIS1_EE16_Temporary_valueC1IJRKS1_EEEPS3_DpOT_,_ZNSt6vectorIS_IiSaIiEESaIS1_EE16_Temporary_valueC2IJRKS1_EEEPS3_DpOT_
	.section	.text._ZNSt6vectorIS_IiSaIiEESaIS1_EE16_Temporary_valueD2Ev,"axG",@progbits,_ZNSt6vectorIS_IiSaIiEESaIS1_EE16_Temporary_valueD5Ev,comdat
	.align 2
	.weak	_ZNSt6vectorIS_IiSaIiEESaIS1_EE16_Temporary_valueD2Ev
	.type	_ZNSt6vectorIS_IiSaIiEESaIS1_EE16_Temporary_valueD2Ev, @function
_ZNSt6vectorIS_IiSaIiEESaIS1_EE16_Temporary_valueD2Ev:
.LFB11073:
	.cfi_startproc
	endbr64
	push	rbp
	.cfi_def_cfa_offset 16
	.cfi_offset 6, -16
	mov	rbp, rsp
	.cfi_def_cfa_register 6
	sub	rsp, 16
	mov	QWORD PTR -8[rbp], rdi
	mov	rax, QWORD PTR -8[rbp]
	mov	rdi, rax
	call	_ZNSt6vectorIS_IiSaIiEESaIS1_EE16_Temporary_value6_M_ptrEv
	mov	rdx, rax
	mov	rax, QWORD PTR -8[rbp]
	mov	rax, QWORD PTR [rax]
	mov	rsi, rdx
	mov	rdi, rax
	call	_ZNSt16allocator_traitsISaISt6vectorIiSaIiEEEE7destroyIS2_EEvRS3_PT_
	nop
	leave
	.cfi_def_cfa 7, 8
	ret
	.cfi_endproc
.LFE11073:
	.size	_ZNSt6vectorIS_IiSaIiEESaIS1_EE16_Temporary_valueD2Ev, .-_ZNSt6vectorIS_IiSaIiEESaIS1_EE16_Temporary_valueD2Ev
	.weak	_ZNSt6vectorIS_IiSaIiEESaIS1_EE16_Temporary_valueD1Ev
	.set	_ZNSt6vectorIS_IiSaIiEESaIS1_EE16_Temporary_valueD1Ev,_ZNSt6vectorIS_IiSaIiEESaIS1_EE16_Temporary_valueD2Ev
	.section	.text._ZNSt6vectorIS_IiSaIiEESaIS1_EE16_Temporary_value6_M_valEv,"axG",@progbits,_ZNSt6vectorIS_IiSaIiEESaIS1_EE16_Temporary_value6_M_valEv,comdat
	.align 2
	.weak	_ZNSt6vectorIS_IiSaIiEESaIS1_EE16_Temporary_value6_M_valEv
	.type	_ZNSt6vectorIS_IiSaIiEESaIS1_EE16_Temporary_value6_M_valEv, @function
_ZNSt6vectorIS_IiSaIiEESaIS1_EE16_Temporary_value6_M_valEv:
.LFB11075:
	.cfi_startproc
	endbr64
	push	rbp
	.cfi_def_cfa_offset 16
	.cfi_offset 6, -16
	mov	rbp, rsp
	.cfi_def_cfa_register 6
	sub	rsp, 16
	mov	QWORD PTR -8[rbp], rdi
	mov	rax, QWORD PTR -8[rbp]
	mov	rdi, rax
	call	_ZNSt6vectorIS_IiSaIiEESaIS1_EE16_Temporary_value6_M_ptrEv
	leave
	.cfi_def_cfa 7, 8
	ret
	.cfi_endproc
.LFE11075:
	.size	_ZNSt6vectorIS_IiSaIiEESaIS1_EE16_Temporary_value6_M_valEv, .-_ZNSt6vectorIS_IiSaIiEESaIS1_EE16_Temporary_value6_M_valEv
	.section	.text._ZN9__gnu_cxxmiIPSt6vectorIiSaIiEES1_IS3_SaIS3_EEEENS_17__normal_iteratorIT_T0_E15difference_typeERKSA_SD_,"axG",@progbits,_ZN9__gnu_cxxmiIPSt6vectorIiSaIiEES1_IS3_SaIS3_EEEENS_17__normal_iteratorIT_T0_E15difference_typeERKSA_SD_,comdat
	.weak	_ZN9__gnu_cxxmiIPSt6vectorIiSaIiEES1_IS3_SaIS3_EEEENS_17__normal_iteratorIT_T0_E15difference_typeERKSA_SD_
	.type	_ZN9__gnu_cxxmiIPSt6vectorIiSaIiEES1_IS3_SaIS3_EEEENS_17__normal_iteratorIT_T0_E15difference_typeERKSA_SD_, @function
_ZN9__gnu_cxxmiIPSt6vectorIiSaIiEES1_IS3_SaIS3_EEEENS_17__normal_iteratorIT_T0_E15difference_typeERKSA_SD_:
.LFB11076:
	.cfi_startproc
	endbr64
	push	rbp
	.cfi_def_cfa_offset 16
	.cfi_offset 6, -16
	mov	rbp, rsp
	.cfi_def_cfa_register 6
	push	rbx
	sub	rsp, 24
	.cfi_offset 3, -24
	mov	QWORD PTR -24[rbp], rdi
	mov	QWORD PTR -32[rbp], rsi
	mov	rax, QWORD PTR -24[rbp]
	mov	rdi, rax
	call	_ZNK9__gnu_cxx17__normal_iteratorIPSt6vectorIiSaIiEES1_IS3_SaIS3_EEE4baseEv
	mov	rbx, QWORD PTR [rax]
	mov	rax, QWORD PTR -32[rbp]
	mov	rdi, rax
	call	_ZNK9__gnu_cxx17__normal_iteratorIPSt6vectorIiSaIiEES1_IS3_SaIS3_EEE4baseEv
	mov	rdx, QWORD PTR [rax]
	mov	rax, rbx
	sub	rax, rdx
	sar	rax, 3
	mov	rdx, rax
	movabs	rax, -6148914691236517205
	imul	rax, rdx
	mov	rbx, QWORD PTR -8[rbp]
	leave
	.cfi_def_cfa 7, 8
	ret
	.cfi_endproc
.LFE11076:
	.size	_ZN9__gnu_cxxmiIPSt6vectorIiSaIiEES1_IS3_SaIS3_EEEENS_17__normal_iteratorIT_T0_E15difference_typeERKSA_SD_, .-_ZN9__gnu_cxxmiIPSt6vectorIiSaIiEES1_IS3_SaIS3_EEEENS_17__normal_iteratorIT_T0_E15difference_typeERKSA_SD_
	.section	.text._ZNSt12_Vector_baseISt6vectorIiSaIiEESaIS2_EE19_M_get_Tp_allocatorEv,"axG",@progbits,_ZNSt12_Vector_baseISt6vectorIiSaIiEESaIS2_EE19_M_get_Tp_allocatorEv,comdat
	.align 2
	.weak	_ZNSt12_Vector_baseISt6vectorIiSaIiEESaIS2_EE19_M_get_Tp_allocatorEv
	.type	_ZNSt12_Vector_baseISt6vectorIiSaIiEESaIS2_EE19_M_get_Tp_allocatorEv, @function
_ZNSt12_Vector_baseISt6vectorIiSaIiEESaIS2_EE19_M_get_Tp_allocatorEv:
.LFB11077:
	.cfi_startproc
	endbr64
	push	rbp
	.cfi_def_cfa_offset 16
	.cfi_offset 6, -16
	mov	rbp, rsp
	.cfi_def_cfa_register 6
	mov	QWORD PTR -8[rbp], rdi
	mov	rax, QWORD PTR -8[rbp]
	pop	rbp
	.cfi_def_cfa 7, 8
	ret
	.cfi_endproc
.LFE11077:
	.size	_ZNSt12_Vector_baseISt6vectorIiSaIiEESaIS2_EE19_M_get_Tp_allocatorEv, .-_ZNSt12_Vector_baseISt6vectorIiSaIiEESaIS2_EE19_M_get_Tp_allocatorEv
	.section	.text._ZSt22__uninitialized_move_aIPSt6vectorIiSaIiEES3_SaIS2_EET0_T_S6_S5_RT1_,"axG",@progbits,_ZSt22__uninitialized_move_aIPSt6vectorIiSaIiEES3_SaIS2_EET0_T_S6_S5_RT1_,comdat
	.weak	_ZSt22__uninitialized_move_aIPSt6vectorIiSaIiEES3_SaIS2_EET0_T_S6_S5_RT1_
	.type	_ZSt22__uninitialized_move_aIPSt6vectorIiSaIiEES3_SaIS2_EET0_T_S6_S5_RT1_, @function
_ZSt22__uninitialized_move_aIPSt6vectorIiSaIiEES3_SaIS2_EET0_T_S6_S5_RT1_:
.LFB11078:
	.cfi_startproc
	endbr64
	push	rbp
	.cfi_def_cfa_offset 16
	.cfi_offset 6, -16
	mov	rbp, rsp
	.cfi_def_cfa_register 6
	push	rbx
	sub	rsp, 40
	.cfi_offset 3, -24
	mov	QWORD PTR -24[rbp], rdi
	mov	QWORD PTR -32[rbp], rsi
	mov	QWORD PTR -40[rbp], rdx
	mov	QWORD PTR -48[rbp], rcx
	mov	rax, QWORD PTR -32[rbp]
	mov	rdi, rax
	call	_ZSt18make_move_iteratorIPSt6vectorIiSaIiEEESt13move_iteratorIT_ES5_
	mov	rbx, rax
	mov	rax, QWORD PTR -24[rbp]
	mov	rdi, rax
	call	_ZSt18make_move_iteratorIPSt6vectorIiSaIiEEESt13move_iteratorIT_ES5_
	mov	rdi, rax
	mov	rdx, QWORD PTR -48[rbp]
	mov	rax, QWORD PTR -40[rbp]
	mov	rcx, rdx
	mov	rdx, rax
	mov	rsi, rbx
	call	_ZSt22__uninitialized_copy_aISt13move_iteratorIPSt6vectorIiSaIiEEES4_S3_ET0_T_S7_S6_RSaIT1_E
	mov	rbx, QWORD PTR -8[rbp]
	leave
	.cfi_def_cfa 7, 8
	ret
	.cfi_endproc
.LFE11078:
	.size	_ZSt22__uninitialized_move_aIPSt6vectorIiSaIiEES3_SaIS2_EET0_T_S6_S5_RT1_, .-_ZSt22__uninitialized_move_aIPSt6vectorIiSaIiEES3_SaIS2_EET0_T_S6_S5_RT1_
	.section	.text._ZNK9__gnu_cxx17__normal_iteratorIPSt6vectorIiSaIiEES1_IS3_SaIS3_EEE4baseEv,"axG",@progbits,_ZNK9__gnu_cxx17__normal_iteratorIPSt6vectorIiSaIiEES1_IS3_SaIS3_EEE4baseEv,comdat
	.align 2
	.weak	_ZNK9__gnu_cxx17__normal_iteratorIPSt6vectorIiSaIiEES1_IS3_SaIS3_EEE4baseEv
	.type	_ZNK9__gnu_cxx17__normal_iteratorIPSt6vectorIiSaIiEES1_IS3_SaIS3_EEE4baseEv, @function
_ZNK9__gnu_cxx17__normal_iteratorIPSt6vectorIiSaIiEES1_IS3_SaIS3_EEE4baseEv:
.LFB11079:
	.cfi_startproc
	endbr64
	push	rbp
	.cfi_def_cfa_offset 16
	.cfi_offset 6, -16
	mov	rbp, rsp
	.cfi_def_cfa_register 6
	mov	QWORD PTR -8[rbp], rdi
	mov	rax, QWORD PTR -8[rbp]
	pop	rbp
	.cfi_def_cfa 7, 8
	ret
	.cfi_endproc
.LFE11079:
	.size	_ZNK9__gnu_cxx17__normal_iteratorIPSt6vectorIiSaIiEES1_IS3_SaIS3_EEE4baseEv, .-_ZNK9__gnu_cxx17__normal_iteratorIPSt6vectorIiSaIiEES1_IS3_SaIS3_EEE4baseEv
	.section	.text._ZSt13move_backwardIPSt6vectorIiSaIiEES3_ET0_T_S5_S4_,"axG",@progbits,_ZSt13move_backwardIPSt6vectorIiSaIiEES3_ET0_T_S5_S4_,comdat
	.weak	_ZSt13move_backwardIPSt6vectorIiSaIiEES3_ET0_T_S5_S4_
	.type	_ZSt13move_backwardIPSt6vectorIiSaIiEES3_ET0_T_S5_S4_, @function
_ZSt13move_backwardIPSt6vectorIiSaIiEES3_ET0_T_S5_S4_:
.LFB11080:
	.cfi_startproc
	endbr64
	push	rbp
	.cfi_def_cfa_offset 16
	.cfi_offset 6, -16
	mov	rbp, rsp
	.cfi_def_cfa_register 6
	push	rbx
	sub	rsp, 40
	.cfi_offset 3, -24
	mov	QWORD PTR -24[rbp], rdi
	mov	QWORD PTR -32[rbp], rsi
	mov	QWORD PTR -40[rbp], rdx
	mov	rax, QWORD PTR -32[rbp]
	mov	rdi, rax
	call	_ZSt12__miter_baseIPSt6vectorIiSaIiEEET_S4_
	mov	rbx, rax
	mov	rax, QWORD PTR -24[rbp]
	mov	rdi, rax
	call	_ZSt12__miter_baseIPSt6vectorIiSaIiEEET_S4_
	mov	rcx, rax
	mov	rax, QWORD PTR -40[rbp]
	mov	rdx, rax
	mov	rsi, rbx
	mov	rdi, rcx
	call	_ZSt22__copy_move_backward_aILb1EPSt6vectorIiSaIiEES3_ET1_T0_S5_S4_
	mov	rbx, QWORD PTR -8[rbp]
	leave
	.cfi_def_cfa 7, 8
	ret
	.cfi_endproc
.LFE11080:
	.size	_ZSt13move_backwardIPSt6vectorIiSaIiEES3_ET0_T_S5_S4_, .-_ZSt13move_backwardIPSt6vectorIiSaIiEES3_ET0_T_S5_S4_
	.section	.text._ZSt4fillIPSt6vectorIiSaIiEES2_EvT_S4_RKT0_,"axG",@progbits,_ZSt4fillIPSt6vectorIiSaIiEES2_EvT_S4_RKT0_,comdat
	.weak	_ZSt4fillIPSt6vectorIiSaIiEES2_EvT_S4_RKT0_
	.type	_ZSt4fillIPSt6vectorIiSaIiEES2_EvT_S4_RKT0_, @function
_ZSt4fillIPSt6vectorIiSaIiEES2_EvT_S4_RKT0_:
.LFB11081:
	.cfi_startproc
	endbr64
	push	rbp
	.cfi_def_cfa_offset 16
	.cfi_offset 6, -16
	mov	rbp, rsp
	.cfi_def_cfa_register 6
	sub	rsp, 32
	mov	QWORD PTR -8[rbp], rdi
	mov	QWORD PTR -16[rbp], rsi
	mov	QWORD PTR -24[rbp], rdx
	mov	rdx, QWORD PTR -24[rbp]
	mov	rcx, QWORD PTR -16[rbp]
	mov	rax, QWORD PTR -8[rbp]
	mov	rsi, rcx
	mov	rdi, rax
	call	_ZSt8__fill_aIPSt6vectorIiSaIiEES2_EvT_S4_RKT0_
	nop
	leave
	.cfi_def_cfa 7, 8
	ret
	.cfi_endproc
.LFE11081:
	.size	_ZSt4fillIPSt6vectorIiSaIiEES2_EvT_S4_RKT0_, .-_ZSt4fillIPSt6vectorIiSaIiEES2_EvT_S4_RKT0_
	.section	.text._ZSt24__uninitialized_fill_n_aIPSt6vectorIiSaIiEEmS2_S2_ET_S4_T0_RKT1_RSaIT2_E,"axG",@progbits,_ZSt24__uninitialized_fill_n_aIPSt6vectorIiSaIiEEmS2_S2_ET_S4_T0_RKT1_RSaIT2_E,comdat
	.weak	_ZSt24__uninitialized_fill_n_aIPSt6vectorIiSaIiEEmS2_S2_ET_S4_T0_RKT1_RSaIT2_E
	.type	_ZSt24__uninitialized_fill_n_aIPSt6vectorIiSaIiEEmS2_S2_ET_S4_T0_RKT1_RSaIT2_E, @function
_ZSt24__uninitialized_fill_n_aIPSt6vectorIiSaIiEEmS2_S2_ET_S4_T0_RKT1_RSaIT2_E:
.LFB11082:
	.cfi_startproc
	endbr64
	push	rbp
	.cfi_def_cfa_offset 16
	.cfi_offset 6, -16
	mov	rbp, rsp
	.cfi_def_cfa_register 6
	sub	rsp, 32
	mov	QWORD PTR -8[rbp], rdi
	mov	QWORD PTR -16[rbp], rsi
	mov	QWORD PTR -24[rbp], rdx
	mov	QWORD PTR -32[rbp], rcx
	mov	rdx, QWORD PTR -24[rbp]
	mov	rcx, QWORD PTR -16[rbp]
	mov	rax, QWORD PTR -8[rbp]
	mov	rsi, rcx
	mov	rdi, rax
	call	_ZSt20uninitialized_fill_nIPSt6vectorIiSaIiEEmS2_ET_S4_T0_RKT1_
	leave
	.cfi_def_cfa 7, 8
	ret
	.cfi_endproc
.LFE11082:
	.size	_ZSt24__uninitialized_fill_n_aIPSt6vectorIiSaIiEEmS2_S2_ET_S4_T0_RKT1_RSaIT2_E, .-_ZSt24__uninitialized_fill_n_aIPSt6vectorIiSaIiEEmS2_S2_ET_S4_T0_RKT1_RSaIT2_E
	.section	.text._ZNKSt6vectorIS_IiSaIiEESaIS1_EE12_M_check_lenEmPKc,"axG",@progbits,_ZNKSt6vectorIS_IiSaIiEESaIS1_EE12_M_check_lenEmPKc,comdat
	.align 2
	.weak	_ZNKSt6vectorIS_IiSaIiEESaIS1_EE12_M_check_lenEmPKc
	.type	_ZNKSt6vectorIS_IiSaIiEESaIS1_EE12_M_check_lenEmPKc, @function
_ZNKSt6vectorIS_IiSaIiEESaIS1_EE12_M_check_lenEmPKc:
.LFB11083:
	.cfi_startproc
	endbr64
	push	rbp
	.cfi_def_cfa_offset 16
	.cfi_offset 6, -16
	mov	rbp, rsp
	.cfi_def_cfa_register 6
	push	rbx
	sub	rsp, 72
	.cfi_offset 3, -24
	mov	QWORD PTR -56[rbp], rdi
	mov	QWORD PTR -64[rbp], rsi
	mov	QWORD PTR -72[rbp], rdx
	mov	rax, QWORD PTR fs:40
	mov	QWORD PTR -24[rbp], rax
	xor	eax, eax
	mov	rax, QWORD PTR -56[rbp]
	mov	rdi, rax
	call	_ZNKSt6vectorIS_IiSaIiEESaIS1_EE8max_sizeEv
	mov	rbx, rax
	mov	rax, QWORD PTR -56[rbp]
	mov	rdi, rax
	call	_ZNKSt6vectorIS_IiSaIiEESaIS1_EE4sizeEv
	sub	rbx, rax
	mov	rdx, rbx
	mov	rax, QWORD PTR -64[rbp]
	cmp	rdx, rax
	setb	al
	test	al, al
	je	.L132
	mov	rax, QWORD PTR -72[rbp]
	mov	rdi, rax
	call	_ZSt20__throw_length_errorPKc@PLT
.L132:
	mov	rax, QWORD PTR -56[rbp]
	mov	rdi, rax
	call	_ZNKSt6vectorIS_IiSaIiEESaIS1_EE4sizeEv
	mov	rbx, rax
	mov	rax, QWORD PTR -56[rbp]
	mov	rdi, rax
	call	_ZNKSt6vectorIS_IiSaIiEESaIS1_EE4sizeEv
	mov	QWORD PTR -40[rbp], rax
	lea	rdx, -64[rbp]
	lea	rax, -40[rbp]
	mov	rsi, rdx
	mov	rdi, rax
	call	_ZSt3maxImERKT_S2_S2_
	mov	rax, QWORD PTR [rax]
	add	rax, rbx
	mov	QWORD PTR -32[rbp], rax
	mov	rax, QWORD PTR -56[rbp]
	mov	rdi, rax
	call	_ZNKSt6vectorIS_IiSaIiEESaIS1_EE4sizeEv
	cmp	QWORD PTR -32[rbp], rax
	jb	.L133
	mov	rax, QWORD PTR -56[rbp]
	mov	rdi, rax
	call	_ZNKSt6vectorIS_IiSaIiEESaIS1_EE8max_sizeEv
	cmp	QWORD PTR -32[rbp], rax
	jbe	.L134
.L133:
	mov	rax, QWORD PTR -56[rbp]
	mov	rdi, rax
	call	_ZNKSt6vectorIS_IiSaIiEESaIS1_EE8max_sizeEv
	jmp	.L135
.L134:
	mov	rax, QWORD PTR -32[rbp]
.L135:
	mov	rdx, QWORD PTR -24[rbp]
	sub	rdx, QWORD PTR fs:40
	je	.L137
	call	__stack_chk_fail@PLT
.L137:
	mov	rbx, QWORD PTR -8[rbp]
	leave
	.cfi_def_cfa 7, 8
	ret
	.cfi_endproc
.LFE11083:
	.size	_ZNKSt6vectorIS_IiSaIiEESaIS1_EE12_M_check_lenEmPKc, .-_ZNKSt6vectorIS_IiSaIiEESaIS1_EE12_M_check_lenEmPKc
	.section	.text._ZNSt6vectorIS_IiSaIiEESaIS1_EE5beginEv,"axG",@progbits,_ZNSt6vectorIS_IiSaIiEESaIS1_EE5beginEv,comdat
	.align 2
	.weak	_ZNSt6vectorIS_IiSaIiEESaIS1_EE5beginEv
	.type	_ZNSt6vectorIS_IiSaIiEESaIS1_EE5beginEv, @function
_ZNSt6vectorIS_IiSaIiEESaIS1_EE5beginEv:
.LFB11084:
	.cfi_startproc
	endbr64
	push	rbp
	.cfi_def_cfa_offset 16
	.cfi_offset 6, -16
	mov	rbp, rsp
	.cfi_def_cfa_register 6
	sub	rsp, 32
	mov	QWORD PTR -24[rbp], rdi
	mov	rax, QWORD PTR fs:40
	mov	QWORD PTR -8[rbp], rax
	xor	eax, eax
	mov	rdx, QWORD PTR -24[rbp]
	lea	rax, -16[rbp]
	mov	rsi, rdx
	mov	rdi, rax
	call	_ZN9__gnu_cxx17__normal_iteratorIPSt6vectorIiSaIiEES1_IS3_SaIS3_EEEC1ERKS4_
	mov	rax, QWORD PTR -16[rbp]
	mov	rdx, QWORD PTR -8[rbp]
	sub	rdx, QWORD PTR fs:40
	je	.L140
	call	__stack_chk_fail@PLT
.L140:
	leave
	.cfi_def_cfa 7, 8
	ret
	.cfi_endproc
.LFE11084:
	.size	_ZNSt6vectorIS_IiSaIiEESaIS1_EE5beginEv, .-_ZNSt6vectorIS_IiSaIiEESaIS1_EE5beginEv
	.section	.text._ZNSt12_Vector_baseISt6vectorIiSaIiEESaIS2_EE11_M_allocateEm,"axG",@progbits,_ZNSt12_Vector_baseISt6vectorIiSaIiEESaIS2_EE11_M_allocateEm,comdat
	.align 2
	.weak	_ZNSt12_Vector_baseISt6vectorIiSaIiEESaIS2_EE11_M_allocateEm
	.type	_ZNSt12_Vector_baseISt6vectorIiSaIiEESaIS2_EE11_M_allocateEm, @function
_ZNSt12_Vector_baseISt6vectorIiSaIiEESaIS2_EE11_M_allocateEm:
.LFB11085:
	.cfi_startproc
	endbr64
	push	rbp
	.cfi_def_cfa_offset 16
	.cfi_offset 6, -16
	mov	rbp, rsp
	.cfi_def_cfa_register 6
	sub	rsp, 16
	mov	QWORD PTR -8[rbp], rdi
	mov	QWORD PTR -16[rbp], rsi
	cmp	QWORD PTR -16[rbp], 0
	je	.L142
	mov	rax, QWORD PTR -8[rbp]
	mov	rdx, QWORD PTR -16[rbp]
	mov	rsi, rdx
	mov	rdi, rax
	call	_ZNSt16allocator_traitsISaISt6vectorIiSaIiEEEE8allocateERS3_m
	jmp	.L144
.L142:
	mov	eax, 0
.L144:
	leave
	.cfi_def_cfa 7, 8
	ret
	.cfi_endproc
.LFE11085:
	.size	_ZNSt12_Vector_baseISt6vectorIiSaIiEESaIS2_EE11_M_allocateEm, .-_ZNSt12_Vector_baseISt6vectorIiSaIiEESaIS2_EE11_M_allocateEm
	.section	.text._ZSt34__uninitialized_move_if_noexcept_aIPSt6vectorIiSaIiEES3_SaIS2_EET0_T_S6_S5_RT1_,"axG",@progbits,_ZSt34__uninitialized_move_if_noexcept_aIPSt6vectorIiSaIiEES3_SaIS2_EET0_T_S6_S5_RT1_,comdat
	.weak	_ZSt34__uninitialized_move_if_noexcept_aIPSt6vectorIiSaIiEES3_SaIS2_EET0_T_S6_S5_RT1_
	.type	_ZSt34__uninitialized_move_if_noexcept_aIPSt6vectorIiSaIiEES3_SaIS2_EET0_T_S6_S5_RT1_, @function
_ZSt34__uninitialized_move_if_noexcept_aIPSt6vectorIiSaIiEES3_SaIS2_EET0_T_S6_S5_RT1_:
.LFB11086:
	.cfi_startproc
	endbr64
	push	rbp
	.cfi_def_cfa_offset 16
	.cfi_offset 6, -16
	mov	rbp, rsp
	.cfi_def_cfa_register 6
	push	rbx
	sub	rsp, 40
	.cfi_offset 3, -24
	mov	QWORD PTR -24[rbp], rdi
	mov	QWORD PTR -32[rbp], rsi
	mov	QWORD PTR -40[rbp], rdx
	mov	QWORD PTR -48[rbp], rcx
	mov	rax, QWORD PTR -32[rbp]
	mov	rdi, rax
	call	_ZSt32__make_move_if_noexcept_iteratorISt6vectorIiSaIiEESt13move_iteratorIPS2_EET0_PT_
	mov	rbx, rax
	mov	rax, QWORD PTR -24[rbp]
	mov	rdi, rax
	call	_ZSt32__make_move_if_noexcept_iteratorISt6vectorIiSaIiEESt13move_iteratorIPS2_EET0_PT_
	mov	rdi, rax
	mov	rdx, QWORD PTR -48[rbp]
	mov	rax, QWORD PTR -40[rbp]
	mov	rcx, rdx
	mov	rdx, rax
	mov	rsi, rbx
	call	_ZSt22__uninitialized_copy_aISt13move_iteratorIPSt6vectorIiSaIiEEES4_S3_ET0_T_S7_S6_RSaIT1_E
	mov	rbx, QWORD PTR -8[rbp]
	leave
	.cfi_def_cfa 7, 8
	ret
	.cfi_endproc
.LFE11086:
	.size	_ZSt34__uninitialized_move_if_noexcept_aIPSt6vectorIiSaIiEES3_SaIS2_EET0_T_S6_S5_RT1_, .-_ZSt34__uninitialized_move_if_noexcept_aIPSt6vectorIiSaIiEES3_SaIS2_EET0_T_S6_S5_RT1_
	.section	.text._ZSt8_DestroyIPSt6vectorIiSaIiEES2_EvT_S4_RSaIT0_E,"axG",@progbits,_ZSt8_DestroyIPSt6vectorIiSaIiEES2_EvT_S4_RSaIT0_E,comdat
	.weak	_ZSt8_DestroyIPSt6vectorIiSaIiEES2_EvT_S4_RSaIT0_E
	.type	_ZSt8_DestroyIPSt6vectorIiSaIiEES2_EvT_S4_RSaIT0_E, @function
_ZSt8_DestroyIPSt6vectorIiSaIiEES2_EvT_S4_RSaIT0_E:
.LFB11087:
	.cfi_startproc
	endbr64
	push	rbp
	.cfi_def_cfa_offset 16
	.cfi_offset 6, -16
	mov	rbp, rsp
	.cfi_def_cfa_register 6
	sub	rsp, 32
	mov	QWORD PTR -8[rbp], rdi
	mov	QWORD PTR -16[rbp], rsi
	mov	QWORD PTR -24[rbp], rdx
	mov	rdx, QWORD PTR -16[rbp]
	mov	rax, QWORD PTR -8[rbp]
	mov	rsi, rdx
	mov	rdi, rax
	call	_ZSt8_DestroyIPSt6vectorIiSaIiEEEvT_S4_
	nop
	leave
	.cfi_def_cfa 7, 8
	ret
	.cfi_endproc
.LFE11087:
	.size	_ZSt8_DestroyIPSt6vectorIiSaIiEES2_EvT_S4_RSaIT0_E, .-_ZSt8_DestroyIPSt6vectorIiSaIiEES2_EvT_S4_RSaIT0_E
	.section	.text._ZN9__gnu_cxx17__normal_iteratorIPSt6vectorIiSaIiEES1_IS3_SaIS3_EEEC2ERKS4_,"axG",@progbits,_ZN9__gnu_cxx17__normal_iteratorIPSt6vectorIiSaIiEES1_IS3_SaIS3_EEEC5ERKS4_,comdat
	.align 2
	.weak	_ZN9__gnu_cxx17__normal_iteratorIPSt6vectorIiSaIiEES1_IS3_SaIS3_EEEC2ERKS4_
	.type	_ZN9__gnu_cxx17__normal_iteratorIPSt6vectorIiSaIiEES1_IS3_SaIS3_EEEC2ERKS4_, @function
_ZN9__gnu_cxx17__normal_iteratorIPSt6vectorIiSaIiEES1_IS3_SaIS3_EEEC2ERKS4_:
.LFB11089:
	.cfi_startproc
	endbr64
	push	rbp
	.cfi_def_cfa_offset 16
	.cfi_offset 6, -16
	mov	rbp, rsp
	.cfi_def_cfa_register 6
	mov	QWORD PTR -8[rbp], rdi
	mov	QWORD PTR -16[rbp], rsi
	mov	rax, QWORD PTR -16[rbp]
	mov	rdx, QWORD PTR [rax]
	mov	rax, QWORD PTR -8[rbp]
	mov	QWORD PTR [rax], rdx
	nop
	pop	rbp
	.cfi_def_cfa 7, 8
	ret
	.cfi_endproc
.LFE11089:
	.size	_ZN9__gnu_cxx17__normal_iteratorIPSt6vectorIiSaIiEES1_IS3_SaIS3_EEEC2ERKS4_, .-_ZN9__gnu_cxx17__normal_iteratorIPSt6vectorIiSaIiEES1_IS3_SaIS3_EEEC2ERKS4_
	.weak	_ZN9__gnu_cxx17__normal_iteratorIPSt6vectorIiSaIiEES1_IS3_SaIS3_EEEC1ERKS4_
	.set	_ZN9__gnu_cxx17__normal_iteratorIPSt6vectorIiSaIiEES1_IS3_SaIS3_EEEC1ERKS4_,_ZN9__gnu_cxx17__normal_iteratorIPSt6vectorIiSaIiEES1_IS3_SaIS3_EEEC2ERKS4_
	.section	.text._ZN9__gnu_cxx13new_allocatorISt6vectorIiSaIiEEE10deallocateEPS3_m,"axG",@progbits,_ZN9__gnu_cxx13new_allocatorISt6vectorIiSaIiEEE10deallocateEPS3_m,comdat
	.align 2
	.weak	_ZN9__gnu_cxx13new_allocatorISt6vectorIiSaIiEEE10deallocateEPS3_m
	.type	_ZN9__gnu_cxx13new_allocatorISt6vectorIiSaIiEEE10deallocateEPS3_m, @function
_ZN9__gnu_cxx13new_allocatorISt6vectorIiSaIiEEE10deallocateEPS3_m:
.LFB11227:
	.cfi_startproc
	endbr64
	push	rbp
	.cfi_def_cfa_offset 16
	.cfi_offset 6, -16
	mov	rbp, rsp
	.cfi_def_cfa_register 6
	sub	rsp, 32
	mov	QWORD PTR -8[rbp], rdi
	mov	QWORD PTR -16[rbp], rsi
	mov	QWORD PTR -24[rbp], rdx
	mov	rdx, QWORD PTR -24[rbp]
	mov	rax, rdx
	add	rax, rax
	add	rax, rdx
	sal	rax, 3
	mov	rdx, rax
	mov	rax, QWORD PTR -16[rbp]
	mov	rsi, rdx
	mov	rdi, rax
	call	_ZdlPvm@PLT
	leave
	.cfi_def_cfa 7, 8
	ret
	.cfi_endproc
.LFE11227:
	.size	_ZN9__gnu_cxx13new_allocatorISt6vectorIiSaIiEEE10deallocateEPS3_m, .-_ZN9__gnu_cxx13new_allocatorISt6vectorIiSaIiEEE10deallocateEPS3_m
	.section	.text._ZNSt16allocator_traitsISaIiEE8max_sizeERKS0_,"axG",@progbits,_ZNSt16allocator_traitsISaIiEE8max_sizeERKS0_,comdat
	.weak	_ZNSt16allocator_traitsISaIiEE8max_sizeERKS0_
	.type	_ZNSt16allocator_traitsISaIiEE8max_sizeERKS0_, @function
_ZNSt16allocator_traitsISaIiEE8max_sizeERKS0_:
.LFB11228:
	.cfi_startproc
	endbr64
	push	rbp
	.cfi_def_cfa_offset 16
	.cfi_offset 6, -16
	mov	rbp, rsp
	.cfi_def_cfa_register 6
	sub	rsp, 16
	mov	QWORD PTR -8[rbp], rdi
	mov	rax, QWORD PTR -8[rbp]
	mov	rdi, rax
	call	_ZNK9__gnu_cxx13new_allocatorIiE8max_sizeEv
	leave
	.cfi_def_cfa 7, 8
	ret
	.cfi_endproc
.LFE11228:
	.size	_ZNSt16allocator_traitsISaIiEE8max_sizeERKS0_, .-_ZNSt16allocator_traitsISaIiEE8max_sizeERKS0_
	.section	.text._ZN9__gnu_cxx13new_allocatorIiEC2ERKS1_,"axG",@progbits,_ZN9__gnu_cxx13new_allocatorIiEC5ERKS1_,comdat
	.align 2
	.weak	_ZN9__gnu_cxx13new_allocatorIiEC2ERKS1_
	.type	_ZN9__gnu_cxx13new_allocatorIiEC2ERKS1_, @function
_ZN9__gnu_cxx13new_allocatorIiEC2ERKS1_:
.LFB11230:
	.cfi_startproc
	endbr64
	push	rbp
	.cfi_def_cfa_offset 16
	.cfi_offset 6, -16
	mov	rbp, rsp
	.cfi_def_cfa_register 6
	mov	QWORD PTR -8[rbp], rdi
	mov	QWORD PTR -16[rbp], rsi
	nop
	pop	rbp
	.cfi_def_cfa 7, 8
	ret
	.cfi_endproc
.LFE11230:
	.size	_ZN9__gnu_cxx13new_allocatorIiEC2ERKS1_, .-_ZN9__gnu_cxx13new_allocatorIiEC2ERKS1_
	.weak	_ZN9__gnu_cxx13new_allocatorIiEC1ERKS1_
	.set	_ZN9__gnu_cxx13new_allocatorIiEC1ERKS1_,_ZN9__gnu_cxx13new_allocatorIiEC2ERKS1_
	.section	.text._ZNSt12_Vector_baseIiSaIiEE17_Vector_impl_dataC2Ev,"axG",@progbits,_ZNSt12_Vector_baseIiSaIiEE17_Vector_impl_dataC5Ev,comdat
	.align 2
	.weak	_ZNSt12_Vector_baseIiSaIiEE17_Vector_impl_dataC2Ev
	.type	_ZNSt12_Vector_baseIiSaIiEE17_Vector_impl_dataC2Ev, @function
_ZNSt12_Vector_baseIiSaIiEE17_Vector_impl_dataC2Ev:
.LFB11233:
	.cfi_startproc
	endbr64
	push	rbp
	.cfi_def_cfa_offset 16
	.cfi_offset 6, -16
	mov	rbp, rsp
	.cfi_def_cfa_register 6
	mov	QWORD PTR -8[rbp], rdi
	mov	rax, QWORD PTR -8[rbp]
	mov	QWORD PTR [rax], 0
	mov	rax, QWORD PTR -8[rbp]
	mov	QWORD PTR 8[rax], 0
	mov	rax, QWORD PTR -8[rbp]
	mov	QWORD PTR 16[rax], 0
	nop
	pop	rbp
	.cfi_def_cfa 7, 8
	ret
	.cfi_endproc
.LFE11233:
	.size	_ZNSt12_Vector_baseIiSaIiEE17_Vector_impl_dataC2Ev, .-_ZNSt12_Vector_baseIiSaIiEE17_Vector_impl_dataC2Ev
	.weak	_ZNSt12_Vector_baseIiSaIiEE17_Vector_impl_dataC1Ev
	.set	_ZNSt12_Vector_baseIiSaIiEE17_Vector_impl_dataC1Ev,_ZNSt12_Vector_baseIiSaIiEE17_Vector_impl_dataC2Ev
	.section	.text._ZNSt12_Vector_baseIiSaIiEE11_M_allocateEm,"axG",@progbits,_ZNSt12_Vector_baseIiSaIiEE11_M_allocateEm,comdat
	.align 2
	.weak	_ZNSt12_Vector_baseIiSaIiEE11_M_allocateEm
	.type	_ZNSt12_Vector_baseIiSaIiEE11_M_allocateEm, @function
_ZNSt12_Vector_baseIiSaIiEE11_M_allocateEm:
.LFB11235:
	.cfi_startproc
	endbr64
	push	rbp
	.cfi_def_cfa_offset 16
	.cfi_offset 6, -16
	mov	rbp, rsp
	.cfi_def_cfa_register 6
	sub	rsp, 16
	mov	QWORD PTR -8[rbp], rdi
	mov	QWORD PTR -16[rbp], rsi
	cmp	QWORD PTR -16[rbp], 0
	je	.L156
	mov	rax, QWORD PTR -8[rbp]
	mov	rdx, QWORD PTR -16[rbp]
	mov	rsi, rdx
	mov	rdi, rax
	call	_ZNSt16allocator_traitsISaIiEE8allocateERS0_m
	jmp	.L158
.L156:
	mov	eax, 0
.L158:
	leave
	.cfi_def_cfa 7, 8
	ret
	.cfi_endproc
.LFE11235:
	.size	_ZNSt12_Vector_baseIiSaIiEE11_M_allocateEm, .-_ZNSt12_Vector_baseIiSaIiEE11_M_allocateEm
	.section	.text._ZNSt16allocator_traitsISaIiEE10deallocateERS0_Pim,"axG",@progbits,_ZNSt16allocator_traitsISaIiEE10deallocateERS0_Pim,comdat
	.weak	_ZNSt16allocator_traitsISaIiEE10deallocateERS0_Pim
	.type	_ZNSt16allocator_traitsISaIiEE10deallocateERS0_Pim, @function
_ZNSt16allocator_traitsISaIiEE10deallocateERS0_Pim:
.LFB11236:
	.cfi_startproc
	endbr64
	push	rbp
	.cfi_def_cfa_offset 16
	.cfi_offset 6, -16
	mov	rbp, rsp
	.cfi_def_cfa_register 6
	sub	rsp, 32
	mov	QWORD PTR -8[rbp], rdi
	mov	QWORD PTR -16[rbp], rsi
	mov	QWORD PTR -24[rbp], rdx
	mov	rdx, QWORD PTR -24[rbp]
	mov	rcx, QWORD PTR -16[rbp]
	mov	rax, QWORD PTR -8[rbp]
	mov	rsi, rcx
	mov	rdi, rax
	call	_ZN9__gnu_cxx13new_allocatorIiE10deallocateEPim
	nop
	leave
	.cfi_def_cfa 7, 8
	ret
	.cfi_endproc
.LFE11236:
	.size	_ZNSt16allocator_traitsISaIiEE10deallocateERS0_Pim, .-_ZNSt16allocator_traitsISaIiEE10deallocateERS0_Pim
	.section	.text._ZSt25__uninitialized_default_nIPimET_S1_T0_,"axG",@progbits,_ZSt25__uninitialized_default_nIPimET_S1_T0_,comdat
	.weak	_ZSt25__uninitialized_default_nIPimET_S1_T0_
	.type	_ZSt25__uninitialized_default_nIPimET_S1_T0_, @function
_ZSt25__uninitialized_default_nIPimET_S1_T0_:
.LFB11237:
	.cfi_startproc
	endbr64
	push	rbp
	.cfi_def_cfa_offset 16
	.cfi_offset 6, -16
	mov	rbp, rsp
	.cfi_def_cfa_register 6
	sub	rsp, 32
	mov	QWORD PTR -24[rbp], rdi
	mov	QWORD PTR -32[rbp], rsi
	mov	BYTE PTR -1[rbp], 1
	mov	rdx, QWORD PTR -32[rbp]
	mov	rax, QWORD PTR -24[rbp]
	mov	rsi, rdx
	mov	rdi, rax
	call	_ZNSt27__uninitialized_default_n_1ILb1EE18__uninit_default_nIPimEET_S3_T0_
	leave
	.cfi_def_cfa 7, 8
	ret
	.cfi_endproc
.LFE11237:
	.size	_ZSt25__uninitialized_default_nIPimET_S1_T0_, .-_ZSt25__uninitialized_default_nIPimET_S1_T0_
	.section	.text._ZNSt12_Destroy_auxILb1EE9__destroyIPiEEvT_S3_,"axG",@progbits,_ZNSt12_Destroy_auxILb1EE9__destroyIPiEEvT_S3_,comdat
	.weak	_ZNSt12_Destroy_auxILb1EE9__destroyIPiEEvT_S3_
	.type	_ZNSt12_Destroy_auxILb1EE9__destroyIPiEEvT_S3_, @function
_ZNSt12_Destroy_auxILb1EE9__destroyIPiEEvT_S3_:
.LFB11238:
	.cfi_startproc
	endbr64
	push	rbp
	.cfi_def_cfa_offset 16
	.cfi_offset 6, -16
	mov	rbp, rsp
	.cfi_def_cfa_register 6
	mov	QWORD PTR -8[rbp], rdi
	mov	QWORD PTR -16[rbp], rsi
	nop
	pop	rbp
	.cfi_def_cfa 7, 8
	ret
	.cfi_endproc
.LFE11238:
	.size	_ZNSt12_Destroy_auxILb1EE9__destroyIPiEEvT_S3_, .-_ZNSt12_Destroy_auxILb1EE9__destroyIPiEEvT_S3_
	.section	.text._ZNSt6vectorIS_IiSaIiEESaIS1_EE16_Temporary_value6_M_ptrEv,"axG",@progbits,_ZNSt6vectorIS_IiSaIiEESaIS1_EE16_Temporary_value6_M_ptrEv,comdat
	.align 2
	.weak	_ZNSt6vectorIS_IiSaIiEESaIS1_EE16_Temporary_value6_M_ptrEv
	.type	_ZNSt6vectorIS_IiSaIiEESaIS1_EE16_Temporary_value6_M_ptrEv, @function
_ZNSt6vectorIS_IiSaIiEESaIS1_EE16_Temporary_value6_M_ptrEv:
.LFB11239:
	.cfi_startproc
	endbr64
	push	rbp
	.cfi_def_cfa_offset 16
	.cfi_offset 6, -16
	mov	rbp, rsp
	.cfi_def_cfa_register 6
	mov	QWORD PTR -8[rbp], rdi
	mov	rax, QWORD PTR -8[rbp]
	add	rax, 8
	pop	rbp
	.cfi_def_cfa 7, 8
	ret
	.cfi_endproc
.LFE11239:
	.size	_ZNSt6vectorIS_IiSaIiEESaIS1_EE16_Temporary_value6_M_ptrEv, .-_ZNSt6vectorIS_IiSaIiEESaIS1_EE16_Temporary_value6_M_ptrEv
	.section	.text._ZSt7forwardIRKSt6vectorIiSaIiEEEOT_RNSt16remove_referenceIS5_E4typeE,"axG",@progbits,_ZSt7forwardIRKSt6vectorIiSaIiEEEOT_RNSt16remove_referenceIS5_E4typeE,comdat
	.weak	_ZSt7forwardIRKSt6vectorIiSaIiEEEOT_RNSt16remove_referenceIS5_E4typeE
	.type	_ZSt7forwardIRKSt6vectorIiSaIiEEEOT_RNSt16remove_referenceIS5_E4typeE, @function
_ZSt7forwardIRKSt6vectorIiSaIiEEEOT_RNSt16remove_referenceIS5_E4typeE:
.LFB11240:
	.cfi_startproc
	endbr64
	push	rbp
	.cfi_def_cfa_offset 16
	.cfi_offset 6, -16
	mov	rbp, rsp
	.cfi_def_cfa_register 6
	mov	QWORD PTR -8[rbp], rdi
	mov	rax, QWORD PTR -8[rbp]
	pop	rbp
	.cfi_def_cfa 7, 8
	ret
	.cfi_endproc
.LFE11240:
	.size	_ZSt7forwardIRKSt6vectorIiSaIiEEEOT_RNSt16remove_referenceIS5_E4typeE, .-_ZSt7forwardIRKSt6vectorIiSaIiEEEOT_RNSt16remove_referenceIS5_E4typeE
	.section	.text._ZNSt16allocator_traitsISaISt6vectorIiSaIiEEEE9constructIS2_JRKS2_EEEvRS3_PT_DpOT0_,"axG",@progbits,_ZNSt16allocator_traitsISaISt6vectorIiSaIiEEEE9constructIS2_JRKS2_EEEvRS3_PT_DpOT0_,comdat
	.weak	_ZNSt16allocator_traitsISaISt6vectorIiSaIiEEEE9constructIS2_JRKS2_EEEvRS3_PT_DpOT0_
	.type	_ZNSt16allocator_traitsISaISt6vectorIiSaIiEEEE9constructIS2_JRKS2_EEEvRS3_PT_DpOT0_, @function
_ZNSt16allocator_traitsISaISt6vectorIiSaIiEEEE9constructIS2_JRKS2_EEEvRS3_PT_DpOT0_:
.LFB11241:
	.cfi_startproc
	endbr64
	push	rbp
	.cfi_def_cfa_offset 16
	.cfi_offset 6, -16
	mov	rbp, rsp
	.cfi_def_cfa_register 6
	sub	rsp, 32
	mov	QWORD PTR -8[rbp], rdi
	mov	QWORD PTR -16[rbp], rsi
	mov	QWORD PTR -24[rbp], rdx
	mov	rax, QWORD PTR -24[rbp]
	mov	rdi, rax
	call	_ZSt7forwardIRKSt6vectorIiSaIiEEEOT_RNSt16remove_referenceIS5_E4typeE
	mov	rdx, rax
	mov	rcx, QWORD PTR -16[rbp]
	mov	rax, QWORD PTR -8[rbp]
	mov	rsi, rcx
	mov	rdi, rax
	call	_ZN9__gnu_cxx13new_allocatorISt6vectorIiSaIiEEE9constructIS3_JRKS3_EEEvPT_DpOT0_
	nop
	leave
	.cfi_def_cfa 7, 8
	ret
	.cfi_endproc
.LFE11241:
	.size	_ZNSt16allocator_traitsISaISt6vectorIiSaIiEEEE9constructIS2_JRKS2_EEEvRS3_PT_DpOT0_, .-_ZNSt16allocator_traitsISaISt6vectorIiSaIiEEEE9constructIS2_JRKS2_EEEvRS3_PT_DpOT0_
	.section	.text._ZNSt16allocator_traitsISaISt6vectorIiSaIiEEEE7destroyIS2_EEvRS3_PT_,"axG",@progbits,_ZNSt16allocator_traitsISaISt6vectorIiSaIiEEEE7destroyIS2_EEvRS3_PT_,comdat
	.weak	_ZNSt16allocator_traitsISaISt6vectorIiSaIiEEEE7destroyIS2_EEvRS3_PT_
	.type	_ZNSt16allocator_traitsISaISt6vectorIiSaIiEEEE7destroyIS2_EEvRS3_PT_, @function
_ZNSt16allocator_traitsISaISt6vectorIiSaIiEEEE7destroyIS2_EEvRS3_PT_:
.LFB11242:
	.cfi_startproc
	endbr64
	push	rbp
	.cfi_def_cfa_offset 16
	.cfi_offset 6, -16
	mov	rbp, rsp
	.cfi_def_cfa_register 6
	sub	rsp, 16
	mov	QWORD PTR -8[rbp], rdi
	mov	QWORD PTR -16[rbp], rsi
	mov	rdx, QWORD PTR -16[rbp]
	mov	rax, QWORD PTR -8[rbp]
	mov	rsi, rdx
	mov	rdi, rax
	call	_ZN9__gnu_cxx13new_allocatorISt6vectorIiSaIiEEE7destroyIS3_EEvPT_
	nop
	leave
	.cfi_def_cfa 7, 8
	ret
	.cfi_endproc
.LFE11242:
	.size	_ZNSt16allocator_traitsISaISt6vectorIiSaIiEEEE7destroyIS2_EEvRS3_PT_, .-_ZNSt16allocator_traitsISaISt6vectorIiSaIiEEEE7destroyIS2_EEvRS3_PT_
	.section	.text._ZSt18make_move_iteratorIPSt6vectorIiSaIiEEESt13move_iteratorIT_ES5_,"axG",@progbits,_ZSt18make_move_iteratorIPSt6vectorIiSaIiEEESt13move_iteratorIT_ES5_,comdat
	.weak	_ZSt18make_move_iteratorIPSt6vectorIiSaIiEEESt13move_iteratorIT_ES5_
	.type	_ZSt18make_move_iteratorIPSt6vectorIiSaIiEEESt13move_iteratorIT_ES5_, @function
_ZSt18make_move_iteratorIPSt6vectorIiSaIiEEESt13move_iteratorIT_ES5_:
.LFB11243:
	.cfi_startproc
	endbr64
	push	rbp
	.cfi_def_cfa_offset 16
	.cfi_offset 6, -16
	mov	rbp, rsp
	.cfi_def_cfa_register 6
	sub	rsp, 32
	mov	QWORD PTR -24[rbp], rdi
	mov	rax, QWORD PTR fs:40
	mov	QWORD PTR -8[rbp], rax
	xor	eax, eax
	lea	rax, -24[rbp]
	mov	rdi, rax
	call	_ZSt4moveIRPSt6vectorIiSaIiEEEONSt16remove_referenceIT_E4typeEOS6_
	mov	rdx, QWORD PTR [rax]
	lea	rax, -16[rbp]
	mov	rsi, rdx
	mov	rdi, rax
	call	_ZNSt13move_iteratorIPSt6vectorIiSaIiEEEC1ES3_
	mov	rax, QWORD PTR -16[rbp]
	mov	rdx, QWORD PTR -8[rbp]
	sub	rdx, QWORD PTR fs:40
	je	.L171
	call	__stack_chk_fail@PLT
.L171:
	leave
	.cfi_def_cfa 7, 8
	ret
	.cfi_endproc
.LFE11243:
	.size	_ZSt18make_move_iteratorIPSt6vectorIiSaIiEEESt13move_iteratorIT_ES5_, .-_ZSt18make_move_iteratorIPSt6vectorIiSaIiEEESt13move_iteratorIT_ES5_
	.section	.text._ZSt22__uninitialized_copy_aISt13move_iteratorIPSt6vectorIiSaIiEEES4_S3_ET0_T_S7_S6_RSaIT1_E,"axG",@progbits,_ZSt22__uninitialized_copy_aISt13move_iteratorIPSt6vectorIiSaIiEEES4_S3_ET0_T_S7_S6_RSaIT1_E,comdat
	.weak	_ZSt22__uninitialized_copy_aISt13move_iteratorIPSt6vectorIiSaIiEEES4_S3_ET0_T_S7_S6_RSaIT1_E
	.type	_ZSt22__uninitialized_copy_aISt13move_iteratorIPSt6vectorIiSaIiEEES4_S3_ET0_T_S7_S6_RSaIT1_E, @function
_ZSt22__uninitialized_copy_aISt13move_iteratorIPSt6vectorIiSaIiEEES4_S3_ET0_T_S7_S6_RSaIT1_E:
.LFB11244:
	.cfi_startproc
	endbr64
	push	rbp
	.cfi_def_cfa_offset 16
	.cfi_offset 6, -16
	mov	rbp, rsp
	.cfi_def_cfa_register 6
	sub	rsp, 32
	mov	QWORD PTR -8[rbp], rdi
	mov	QWORD PTR -16[rbp], rsi
	mov	QWORD PTR -24[rbp], rdx
	mov	QWORD PTR -32[rbp], rcx
	mov	rdx, QWORD PTR -24[rbp]
	mov	rcx, QWORD PTR -16[rbp]
	mov	rax, QWORD PTR -8[rbp]
	mov	rsi, rcx
	mov	rdi, rax
	call	_ZSt18uninitialized_copyISt13move_iteratorIPSt6vectorIiSaIiEEES4_ET0_T_S7_S6_
	leave
	.cfi_def_cfa 7, 8
	ret
	.cfi_endproc
.LFE11244:
	.size	_ZSt22__uninitialized_copy_aISt13move_iteratorIPSt6vectorIiSaIiEEES4_S3_ET0_T_S7_S6_RSaIT1_E, .-_ZSt22__uninitialized_copy_aISt13move_iteratorIPSt6vectorIiSaIiEEES4_S3_ET0_T_S7_S6_RSaIT1_E
	.section	.text._ZSt12__miter_baseIPSt6vectorIiSaIiEEET_S4_,"axG",@progbits,_ZSt12__miter_baseIPSt6vectorIiSaIiEEET_S4_,comdat
	.weak	_ZSt12__miter_baseIPSt6vectorIiSaIiEEET_S4_
	.type	_ZSt12__miter_baseIPSt6vectorIiSaIiEEET_S4_, @function
_ZSt12__miter_baseIPSt6vectorIiSaIiEEET_S4_:
.LFB11245:
	.cfi_startproc
	endbr64
	push	rbp
	.cfi_def_cfa_offset 16
	.cfi_offset 6, -16
	mov	rbp, rsp
	.cfi_def_cfa_register 6
	mov	QWORD PTR -8[rbp], rdi
	mov	rax, QWORD PTR -8[rbp]
	pop	rbp
	.cfi_def_cfa 7, 8
	ret
	.cfi_endproc
.LFE11245:
	.size	_ZSt12__miter_baseIPSt6vectorIiSaIiEEET_S4_, .-_ZSt12__miter_baseIPSt6vectorIiSaIiEEET_S4_
	.section	.text._ZSt22__copy_move_backward_aILb1EPSt6vectorIiSaIiEES3_ET1_T0_S5_S4_,"axG",@progbits,_ZSt22__copy_move_backward_aILb1EPSt6vectorIiSaIiEES3_ET1_T0_S5_S4_,comdat
	.weak	_ZSt22__copy_move_backward_aILb1EPSt6vectorIiSaIiEES3_ET1_T0_S5_S4_
	.type	_ZSt22__copy_move_backward_aILb1EPSt6vectorIiSaIiEES3_ET1_T0_S5_S4_, @function
_ZSt22__copy_move_backward_aILb1EPSt6vectorIiSaIiEES3_ET1_T0_S5_S4_:
.LFB11246:
	.cfi_startproc
	endbr64
	push	rbp
	.cfi_def_cfa_offset 16
	.cfi_offset 6, -16
	mov	rbp, rsp
	.cfi_def_cfa_register 6
	push	r12
	push	rbx
	sub	rsp, 32
	.cfi_offset 12, -24
	.cfi_offset 3, -32
	mov	QWORD PTR -24[rbp], rdi
	mov	QWORD PTR -32[rbp], rsi
	mov	QWORD PTR -40[rbp], rdx
	mov	rax, QWORD PTR -40[rbp]
	mov	rdi, rax
	call	_ZSt12__niter_baseIPSt6vectorIiSaIiEEET_S4_
	mov	r12, rax
	mov	rax, QWORD PTR -32[rbp]
	mov	rdi, rax
	call	_ZSt12__niter_baseIPSt6vectorIiSaIiEEET_S4_
	mov	rbx, rax
	mov	rax, QWORD PTR -24[rbp]
	mov	rdi, rax
	call	_ZSt12__niter_baseIPSt6vectorIiSaIiEEET_S4_
	mov	rdx, r12
	mov	rsi, rbx
	mov	rdi, rax
	call	_ZSt23__copy_move_backward_a1ILb1EPSt6vectorIiSaIiEES3_ET1_T0_S5_S4_
	mov	rdx, rax
	lea	rax, -40[rbp]
	mov	rsi, rdx
	mov	rdi, rax
	call	_ZSt12__niter_wrapIPSt6vectorIiSaIiEEET_RKS4_S4_
	add	rsp, 32
	pop	rbx
	pop	r12
	pop	rbp
	.cfi_def_cfa 7, 8
	ret
	.cfi_endproc
.LFE11246:
	.size	_ZSt22__copy_move_backward_aILb1EPSt6vectorIiSaIiEES3_ET1_T0_S5_S4_, .-_ZSt22__copy_move_backward_aILb1EPSt6vectorIiSaIiEES3_ET1_T0_S5_S4_
	.section	.text._ZSt8__fill_aIPSt6vectorIiSaIiEES2_EvT_S4_RKT0_,"axG",@progbits,_ZSt8__fill_aIPSt6vectorIiSaIiEES2_EvT_S4_RKT0_,comdat
	.weak	_ZSt8__fill_aIPSt6vectorIiSaIiEES2_EvT_S4_RKT0_
	.type	_ZSt8__fill_aIPSt6vectorIiSaIiEES2_EvT_S4_RKT0_, @function
_ZSt8__fill_aIPSt6vectorIiSaIiEES2_EvT_S4_RKT0_:
.LFB11248:
	.cfi_startproc
	endbr64
	push	rbp
	.cfi_def_cfa_offset 16
	.cfi_offset 6, -16
	mov	rbp, rsp
	.cfi_def_cfa_register 6
	sub	rsp, 32
	mov	QWORD PTR -8[rbp], rdi
	mov	QWORD PTR -16[rbp], rsi
	mov	QWORD PTR -24[rbp], rdx
	mov	rdx, QWORD PTR -24[rbp]
	mov	rcx, QWORD PTR -16[rbp]
	mov	rax, QWORD PTR -8[rbp]
	mov	rsi, rcx
	mov	rdi, rax
	call	_ZSt9__fill_a1IPSt6vectorIiSaIiEES2_EN9__gnu_cxx11__enable_ifIXntsrSt11__is_scalarIT0_E7__valueEvE6__typeET_SB_RKS7_
	nop
	leave
	.cfi_def_cfa 7, 8
	ret
	.cfi_endproc
.LFE11248:
	.size	_ZSt8__fill_aIPSt6vectorIiSaIiEES2_EvT_S4_RKT0_, .-_ZSt8__fill_aIPSt6vectorIiSaIiEES2_EvT_S4_RKT0_
	.section	.text._ZSt20uninitialized_fill_nIPSt6vectorIiSaIiEEmS2_ET_S4_T0_RKT1_,"axG",@progbits,_ZSt20uninitialized_fill_nIPSt6vectorIiSaIiEEmS2_ET_S4_T0_RKT1_,comdat
	.weak	_ZSt20uninitialized_fill_nIPSt6vectorIiSaIiEEmS2_ET_S4_T0_RKT1_
	.type	_ZSt20uninitialized_fill_nIPSt6vectorIiSaIiEEmS2_ET_S4_T0_RKT1_, @function
_ZSt20uninitialized_fill_nIPSt6vectorIiSaIiEEmS2_ET_S4_T0_RKT1_:
.LFB11249:
	.cfi_startproc
	endbr64
	push	rbp
	.cfi_def_cfa_offset 16
	.cfi_offset 6, -16
	mov	rbp, rsp
	.cfi_def_cfa_register 6
	sub	rsp, 48
	mov	QWORD PTR -24[rbp], rdi
	mov	QWORD PTR -32[rbp], rsi
	mov	QWORD PTR -40[rbp], rdx
	mov	BYTE PTR -1[rbp], 1
	mov	rdx, QWORD PTR -40[rbp]
	mov	rcx, QWORD PTR -32[rbp]
	mov	rax, QWORD PTR -24[rbp]
	mov	rsi, rcx
	mov	rdi, rax
	call	_ZNSt22__uninitialized_fill_nILb0EE15__uninit_fill_nIPSt6vectorIiSaIiEEmS4_EET_S6_T0_RKT1_
	leave
	.cfi_def_cfa 7, 8
	ret
	.cfi_endproc
.LFE11249:
	.size	_ZSt20uninitialized_fill_nIPSt6vectorIiSaIiEEmS2_ET_S4_T0_RKT1_, .-_ZSt20uninitialized_fill_nIPSt6vectorIiSaIiEEmS2_ET_S4_T0_RKT1_
	.section	.text._ZNKSt6vectorIS_IiSaIiEESaIS1_EE8max_sizeEv,"axG",@progbits,_ZNKSt6vectorIS_IiSaIiEESaIS1_EE8max_sizeEv,comdat
	.align 2
	.weak	_ZNKSt6vectorIS_IiSaIiEESaIS1_EE8max_sizeEv
	.type	_ZNKSt6vectorIS_IiSaIiEESaIS1_EE8max_sizeEv, @function
_ZNKSt6vectorIS_IiSaIiEESaIS1_EE8max_sizeEv:
.LFB11250:
	.cfi_startproc
	endbr64
	push	rbp
	.cfi_def_cfa_offset 16
	.cfi_offset 6, -16
	mov	rbp, rsp
	.cfi_def_cfa_register 6
	sub	rsp, 16
	mov	QWORD PTR -8[rbp], rdi
	mov	rax, QWORD PTR -8[rbp]
	mov	rdi, rax
	call	_ZNKSt12_Vector_baseISt6vectorIiSaIiEESaIS2_EE19_M_get_Tp_allocatorEv
	mov	rdi, rax
	call	_ZNSt6vectorIS_IiSaIiEESaIS1_EE11_S_max_sizeERKS2_
	leave
	.cfi_def_cfa 7, 8
	ret
	.cfi_endproc
.LFE11250:
	.size	_ZNKSt6vectorIS_IiSaIiEESaIS1_EE8max_sizeEv, .-_ZNKSt6vectorIS_IiSaIiEESaIS1_EE8max_sizeEv
	.section	.text._ZNSt16allocator_traitsISaISt6vectorIiSaIiEEEE8allocateERS3_m,"axG",@progbits,_ZNSt16allocator_traitsISaISt6vectorIiSaIiEEEE8allocateERS3_m,comdat
	.weak	_ZNSt16allocator_traitsISaISt6vectorIiSaIiEEEE8allocateERS3_m
	.type	_ZNSt16allocator_traitsISaISt6vectorIiSaIiEEEE8allocateERS3_m, @function
_ZNSt16allocator_traitsISaISt6vectorIiSaIiEEEE8allocateERS3_m:
.LFB11251:
	.cfi_startproc
	endbr64
	push	rbp
	.cfi_def_cfa_offset 16
	.cfi_offset 6, -16
	mov	rbp, rsp
	.cfi_def_cfa_register 6
	sub	rsp, 16
	mov	QWORD PTR -8[rbp], rdi
	mov	QWORD PTR -16[rbp], rsi
	mov	rcx, QWORD PTR -16[rbp]
	mov	rax, QWORD PTR -8[rbp]
	mov	edx, 0
	mov	rsi, rcx
	mov	rdi, rax
	call	_ZN9__gnu_cxx13new_allocatorISt6vectorIiSaIiEEE8allocateEmPKv
	leave
	.cfi_def_cfa 7, 8
	ret
	.cfi_endproc
.LFE11251:
	.size	_ZNSt16allocator_traitsISaISt6vectorIiSaIiEEEE8allocateERS3_m, .-_ZNSt16allocator_traitsISaISt6vectorIiSaIiEEEE8allocateERS3_m
	.section	.text._ZSt32__make_move_if_noexcept_iteratorISt6vectorIiSaIiEESt13move_iteratorIPS2_EET0_PT_,"axG",@progbits,_ZSt32__make_move_if_noexcept_iteratorISt6vectorIiSaIiEESt13move_iteratorIPS2_EET0_PT_,comdat
	.weak	_ZSt32__make_move_if_noexcept_iteratorISt6vectorIiSaIiEESt13move_iteratorIPS2_EET0_PT_
	.type	_ZSt32__make_move_if_noexcept_iteratorISt6vectorIiSaIiEESt13move_iteratorIPS2_EET0_PT_, @function
_ZSt32__make_move_if_noexcept_iteratorISt6vectorIiSaIiEESt13move_iteratorIPS2_EET0_PT_:
.LFB11252:
	.cfi_startproc
	endbr64
	push	rbp
	.cfi_def_cfa_offset 16
	.cfi_offset 6, -16
	mov	rbp, rsp
	.cfi_def_cfa_register 6
	sub	rsp, 32
	mov	QWORD PTR -24[rbp], rdi
	mov	rax, QWORD PTR fs:40
	mov	QWORD PTR -8[rbp], rax
	xor	eax, eax
	mov	rdx, QWORD PTR -24[rbp]
	lea	rax, -16[rbp]
	mov	rsi, rdx
	mov	rdi, rax
	call	_ZNSt13move_iteratorIPSt6vectorIiSaIiEEEC1ES3_
	mov	rax, QWORD PTR -16[rbp]
	mov	rdx, QWORD PTR -8[rbp]
	sub	rdx, QWORD PTR fs:40
	je	.L187
	call	__stack_chk_fail@PLT
.L187:
	leave
	.cfi_def_cfa 7, 8
	ret
	.cfi_endproc
.LFE11252:
	.size	_ZSt32__make_move_if_noexcept_iteratorISt6vectorIiSaIiEESt13move_iteratorIPS2_EET0_PT_, .-_ZSt32__make_move_if_noexcept_iteratorISt6vectorIiSaIiEESt13move_iteratorIPS2_EET0_PT_
	.section	.text._ZSt8_DestroyIPSt6vectorIiSaIiEEEvT_S4_,"axG",@progbits,_ZSt8_DestroyIPSt6vectorIiSaIiEEEvT_S4_,comdat
	.weak	_ZSt8_DestroyIPSt6vectorIiSaIiEEEvT_S4_
	.type	_ZSt8_DestroyIPSt6vectorIiSaIiEEEvT_S4_, @function
_ZSt8_DestroyIPSt6vectorIiSaIiEEEvT_S4_:
.LFB11253:
	.cfi_startproc
	endbr64
	push	rbp
	.cfi_def_cfa_offset 16
	.cfi_offset 6, -16
	mov	rbp, rsp
	.cfi_def_cfa_register 6
	sub	rsp, 16
	mov	QWORD PTR -8[rbp], rdi
	mov	QWORD PTR -16[rbp], rsi
	mov	rdx, QWORD PTR -16[rbp]
	mov	rax, QWORD PTR -8[rbp]
	mov	rsi, rdx
	mov	rdi, rax
	call	_ZNSt12_Destroy_auxILb0EE9__destroyIPSt6vectorIiSaIiEEEEvT_S6_
	nop
	leave
	.cfi_def_cfa 7, 8
	ret
	.cfi_endproc
.LFE11253:
	.size	_ZSt8_DestroyIPSt6vectorIiSaIiEEEvT_S4_, .-_ZSt8_DestroyIPSt6vectorIiSaIiEEEvT_S4_
	.section	.text._ZNK9__gnu_cxx13new_allocatorIiE8max_sizeEv,"axG",@progbits,_ZNK9__gnu_cxx13new_allocatorIiE8max_sizeEv,comdat
	.align 2
	.weak	_ZNK9__gnu_cxx13new_allocatorIiE8max_sizeEv
	.type	_ZNK9__gnu_cxx13new_allocatorIiE8max_sizeEv, @function
_ZNK9__gnu_cxx13new_allocatorIiE8max_sizeEv:
.LFB11338:
	.cfi_startproc
	endbr64
	push	rbp
	.cfi_def_cfa_offset 16
	.cfi_offset 6, -16
	mov	rbp, rsp
	.cfi_def_cfa_register 6
	sub	rsp, 16
	mov	QWORD PTR -8[rbp], rdi
	mov	rax, QWORD PTR -8[rbp]
	mov	rdi, rax
	call	_ZNK9__gnu_cxx13new_allocatorIiE11_M_max_sizeEv
	leave
	.cfi_def_cfa 7, 8
	ret
	.cfi_endproc
.LFE11338:
	.size	_ZNK9__gnu_cxx13new_allocatorIiE8max_sizeEv, .-_ZNK9__gnu_cxx13new_allocatorIiE8max_sizeEv
	.section	.text._ZNSt16allocator_traitsISaIiEE8allocateERS0_m,"axG",@progbits,_ZNSt16allocator_traitsISaIiEE8allocateERS0_m,comdat
	.weak	_ZNSt16allocator_traitsISaIiEE8allocateERS0_m
	.type	_ZNSt16allocator_traitsISaIiEE8allocateERS0_m, @function
_ZNSt16allocator_traitsISaIiEE8allocateERS0_m:
.LFB11339:
	.cfi_startproc
	endbr64
	push	rbp
	.cfi_def_cfa_offset 16
	.cfi_offset 6, -16
	mov	rbp, rsp
	.cfi_def_cfa_register 6
	sub	rsp, 16
	mov	QWORD PTR -8[rbp], rdi
	mov	QWORD PTR -16[rbp], rsi
	mov	rcx, QWORD PTR -16[rbp]
	mov	rax, QWORD PTR -8[rbp]
	mov	edx, 0
	mov	rsi, rcx
	mov	rdi, rax
	call	_ZN9__gnu_cxx13new_allocatorIiE8allocateEmPKv
	leave
	.cfi_def_cfa 7, 8
	ret
	.cfi_endproc
.LFE11339:
	.size	_ZNSt16allocator_traitsISaIiEE8allocateERS0_m, .-_ZNSt16allocator_traitsISaIiEE8allocateERS0_m
	.section	.text._ZN9__gnu_cxx13new_allocatorIiE10deallocateEPim,"axG",@progbits,_ZN9__gnu_cxx13new_allocatorIiE10deallocateEPim,comdat
	.align 2
	.weak	_ZN9__gnu_cxx13new_allocatorIiE10deallocateEPim
	.type	_ZN9__gnu_cxx13new_allocatorIiE10deallocateEPim, @function
_ZN9__gnu_cxx13new_allocatorIiE10deallocateEPim:
.LFB11340:
	.cfi_startproc
	endbr64
	push	rbp
	.cfi_def_cfa_offset 16
	.cfi_offset 6, -16
	mov	rbp, rsp
	.cfi_def_cfa_register 6
	sub	rsp, 32
	mov	QWORD PTR -8[rbp], rdi
	mov	QWORD PTR -16[rbp], rsi
	mov	QWORD PTR -24[rbp], rdx
	mov	rax, QWORD PTR -24[rbp]
	lea	rdx, 0[0+rax*4]
	mov	rax, QWORD PTR -16[rbp]
	mov	rsi, rdx
	mov	rdi, rax
	call	_ZdlPvm@PLT
	leave
	.cfi_def_cfa 7, 8
	ret
	.cfi_endproc
.LFE11340:
	.size	_ZN9__gnu_cxx13new_allocatorIiE10deallocateEPim, .-_ZN9__gnu_cxx13new_allocatorIiE10deallocateEPim
	.section	.text._ZSt11__addressofIiEPT_RS0_,"axG",@progbits,_ZSt11__addressofIiEPT_RS0_,comdat
	.weak	_ZSt11__addressofIiEPT_RS0_
	.type	_ZSt11__addressofIiEPT_RS0_, @function
_ZSt11__addressofIiEPT_RS0_:
.LFB11342:
	.cfi_startproc
	endbr64
	push	rbp
	.cfi_def_cfa_offset 16
	.cfi_offset 6, -16
	mov	rbp, rsp
	.cfi_def_cfa_register 6
	mov	QWORD PTR -8[rbp], rdi
	mov	rax, QWORD PTR -8[rbp]
	pop	rbp
	.cfi_def_cfa 7, 8
	ret
	.cfi_endproc
.LFE11342:
	.size	_ZSt11__addressofIiEPT_RS0_, .-_ZSt11__addressofIiEPT_RS0_
	.section	.text._ZNSt27__uninitialized_default_n_1ILb1EE18__uninit_default_nIPimEET_S3_T0_,"axG",@progbits,_ZNSt27__uninitialized_default_n_1ILb1EE18__uninit_default_nIPimEET_S3_T0_,comdat
	.weak	_ZNSt27__uninitialized_default_n_1ILb1EE18__uninit_default_nIPimEET_S3_T0_
	.type	_ZNSt27__uninitialized_default_n_1ILb1EE18__uninit_default_nIPimEET_S3_T0_, @function
_ZNSt27__uninitialized_default_n_1ILb1EE18__uninit_default_nIPimEET_S3_T0_:
.LFB11341:
	.cfi_startproc
	endbr64
	push	rbp
	.cfi_def_cfa_offset 16
	.cfi_offset 6, -16
	mov	rbp, rsp
	.cfi_def_cfa_register 6
	sub	rsp, 32
	mov	QWORD PTR -24[rbp], rdi
	mov	QWORD PTR -32[rbp], rsi
	cmp	QWORD PTR -32[rbp], 0
	je	.L198
	mov	rax, QWORD PTR -24[rbp]
	mov	rdi, rax
	call	_ZSt11__addressofIiEPT_RS0_
	mov	QWORD PTR -8[rbp], rax
	mov	rax, QWORD PTR -8[rbp]
	mov	rdi, rax
	call	_ZSt10_ConstructIiJEEvPT_DpOT0_
	add	QWORD PTR -24[rbp], 4
	mov	rax, QWORD PTR -32[rbp]
	lea	rcx, -1[rax]
	mov	rdx, QWORD PTR -8[rbp]
	mov	rax, QWORD PTR -24[rbp]
	mov	rsi, rcx
	mov	rdi, rax
	call	_ZSt6fill_nIPimiET_S1_T0_RKT1_
	mov	QWORD PTR -24[rbp], rax
.L198:
	mov	rax, QWORD PTR -24[rbp]
	leave
	.cfi_def_cfa 7, 8
	ret
	.cfi_endproc
.LFE11341:
	.size	_ZNSt27__uninitialized_default_n_1ILb1EE18__uninit_default_nIPimEET_S3_T0_, .-_ZNSt27__uninitialized_default_n_1ILb1EE18__uninit_default_nIPimEET_S3_T0_
	.section	.text._ZN9__gnu_cxx13new_allocatorISt6vectorIiSaIiEEE9constructIS3_JRKS3_EEEvPT_DpOT0_,"axG",@progbits,_ZN9__gnu_cxx13new_allocatorISt6vectorIiSaIiEEE9constructIS3_JRKS3_EEEvPT_DpOT0_,comdat
	.align 2
	.weak	_ZN9__gnu_cxx13new_allocatorISt6vectorIiSaIiEEE9constructIS3_JRKS3_EEEvPT_DpOT0_
	.type	_ZN9__gnu_cxx13new_allocatorISt6vectorIiSaIiEEE9constructIS3_JRKS3_EEEvPT_DpOT0_, @function
_ZN9__gnu_cxx13new_allocatorISt6vectorIiSaIiEEE9constructIS3_JRKS3_EEEvPT_DpOT0_:
.LFB11343:
	.cfi_startproc
	.cfi_personality 0x9b,DW.ref.__gxx_personality_v0
	.cfi_lsda 0x1b,.LLSDA11343
	endbr64
	push	rbp
	.cfi_def_cfa_offset 16
	.cfi_offset 6, -16
	mov	rbp, rsp
	.cfi_def_cfa_register 6
	push	r13
	push	r12
	push	rbx
	sub	rsp, 40
	.cfi_offset 13, -24
	.cfi_offset 12, -32
	.cfi_offset 3, -40
	mov	QWORD PTR -40[rbp], rdi
	mov	QWORD PTR -48[rbp], rsi
	mov	QWORD PTR -56[rbp], rdx
	mov	rax, QWORD PTR -56[rbp]
	mov	rdi, rax
	call	_ZSt7forwardIRKSt6vectorIiSaIiEEEOT_RNSt16remove_referenceIS5_E4typeE
	mov	r13, rax
	mov	rbx, QWORD PTR -48[rbp]
	mov	rsi, rbx
	mov	edi, 24
	call	_ZnwmPv
	mov	r12, rax
	mov	rsi, r13
	mov	rdi, r12
.LEHB16:
	call	_ZNSt6vectorIiSaIiEEC1ERKS1_
.LEHE16:
	jmp	.L203
.L202:
	endbr64
	mov	r13, rax
	mov	rsi, rbx
	mov	rdi, r12
	call	_ZdlPvS_
	mov	rax, r13
	mov	rdi, rax
.LEHB17:
	call	_Unwind_Resume@PLT
.LEHE17:
.L203:
	add	rsp, 40
	pop	rbx
	pop	r12
	pop	r13
	pop	rbp
	.cfi_def_cfa 7, 8
	ret
	.cfi_endproc
.LFE11343:
	.section	.gcc_except_table
.LLSDA11343:
	.byte	0xff
	.byte	0xff
	.byte	0x1
	.uleb128 .LLSDACSE11343-.LLSDACSB11343
.LLSDACSB11343:
	.uleb128 .LEHB16-.LFB11343
	.uleb128 .LEHE16-.LEHB16
	.uleb128 .L202-.LFB11343
	.uleb128 0
	.uleb128 .LEHB17-.LFB11343
	.uleb128 .LEHE17-.LEHB17
	.uleb128 0
	.uleb128 0
.LLSDACSE11343:
	.section	.text._ZN9__gnu_cxx13new_allocatorISt6vectorIiSaIiEEE9constructIS3_JRKS3_EEEvPT_DpOT0_,"axG",@progbits,_ZN9__gnu_cxx13new_allocatorISt6vectorIiSaIiEEE9constructIS3_JRKS3_EEEvPT_DpOT0_,comdat
	.size	_ZN9__gnu_cxx13new_allocatorISt6vectorIiSaIiEEE9constructIS3_JRKS3_EEEvPT_DpOT0_, .-_ZN9__gnu_cxx13new_allocatorISt6vectorIiSaIiEEE9constructIS3_JRKS3_EEEvPT_DpOT0_
	.section	.text._ZN9__gnu_cxx13new_allocatorISt6vectorIiSaIiEEE7destroyIS3_EEvPT_,"axG",@progbits,_ZN9__gnu_cxx13new_allocatorISt6vectorIiSaIiEEE7destroyIS3_EEvPT_,comdat
	.align 2
	.weak	_ZN9__gnu_cxx13new_allocatorISt6vectorIiSaIiEEE7destroyIS3_EEvPT_
	.type	_ZN9__gnu_cxx13new_allocatorISt6vectorIiSaIiEEE7destroyIS3_EEvPT_, @function
_ZN9__gnu_cxx13new_allocatorISt6vectorIiSaIiEEE7destroyIS3_EEvPT_:
.LFB11344:
	.cfi_startproc
	endbr64
	push	rbp
	.cfi_def_cfa_offset 16
	.cfi_offset 6, -16
	mov	rbp, rsp
	.cfi_def_cfa_register 6
	sub	rsp, 16
	mov	QWORD PTR -8[rbp], rdi
	mov	QWORD PTR -16[rbp], rsi
	mov	rax, QWORD PTR -16[rbp]
	mov	rdi, rax
	call	_ZNSt6vectorIiSaIiEED1Ev
	nop
	leave
	.cfi_def_cfa 7, 8
	ret
	.cfi_endproc
.LFE11344:
	.size	_ZN9__gnu_cxx13new_allocatorISt6vectorIiSaIiEEE7destroyIS3_EEvPT_, .-_ZN9__gnu_cxx13new_allocatorISt6vectorIiSaIiEEE7destroyIS3_EEvPT_
	.section	.text._ZSt4moveIRPSt6vectorIiSaIiEEEONSt16remove_referenceIT_E4typeEOS6_,"axG",@progbits,_ZSt4moveIRPSt6vectorIiSaIiEEEONSt16remove_referenceIT_E4typeEOS6_,comdat
	.weak	_ZSt4moveIRPSt6vectorIiSaIiEEEONSt16remove_referenceIT_E4typeEOS6_
	.type	_ZSt4moveIRPSt6vectorIiSaIiEEEONSt16remove_referenceIT_E4typeEOS6_, @function
_ZSt4moveIRPSt6vectorIiSaIiEEEONSt16remove_referenceIT_E4typeEOS6_:
.LFB11345:
	.cfi_startproc
	endbr64
	push	rbp
	.cfi_def_cfa_offset 16
	.cfi_offset 6, -16
	mov	rbp, rsp
	.cfi_def_cfa_register 6
	mov	QWORD PTR -8[rbp], rdi
	mov	rax, QWORD PTR -8[rbp]
	pop	rbp
	.cfi_def_cfa 7, 8
	ret
	.cfi_endproc
.LFE11345:
	.size	_ZSt4moveIRPSt6vectorIiSaIiEEEONSt16remove_referenceIT_E4typeEOS6_, .-_ZSt4moveIRPSt6vectorIiSaIiEEEONSt16remove_referenceIT_E4typeEOS6_
	.section	.text._ZNSt13move_iteratorIPSt6vectorIiSaIiEEEC2ES3_,"axG",@progbits,_ZNSt13move_iteratorIPSt6vectorIiSaIiEEEC5ES3_,comdat
	.align 2
	.weak	_ZNSt13move_iteratorIPSt6vectorIiSaIiEEEC2ES3_
	.type	_ZNSt13move_iteratorIPSt6vectorIiSaIiEEEC2ES3_, @function
_ZNSt13move_iteratorIPSt6vectorIiSaIiEEEC2ES3_:
.LFB11347:
	.cfi_startproc
	endbr64
	push	rbp
	.cfi_def_cfa_offset 16
	.cfi_offset 6, -16
	mov	rbp, rsp
	.cfi_def_cfa_register 6
	sub	rsp, 16
	mov	QWORD PTR -8[rbp], rdi
	mov	QWORD PTR -16[rbp], rsi
	lea	rax, -16[rbp]
	mov	rdi, rax
	call	_ZSt4moveIRPSt6vectorIiSaIiEEEONSt16remove_referenceIT_E4typeEOS6_
	mov	rdx, QWORD PTR [rax]
	mov	rax, QWORD PTR -8[rbp]
	mov	QWORD PTR [rax], rdx
	nop
	leave
	.cfi_def_cfa 7, 8
	ret
	.cfi_endproc
.LFE11347:
	.size	_ZNSt13move_iteratorIPSt6vectorIiSaIiEEEC2ES3_, .-_ZNSt13move_iteratorIPSt6vectorIiSaIiEEEC2ES3_
	.weak	_ZNSt13move_iteratorIPSt6vectorIiSaIiEEEC1ES3_
	.set	_ZNSt13move_iteratorIPSt6vectorIiSaIiEEEC1ES3_,_ZNSt13move_iteratorIPSt6vectorIiSaIiEEEC2ES3_
	.section	.text._ZN9__gnu_cxx14__alloc_traitsISaIiEiE15_S_always_equalEv,"axG",@progbits,_ZN9__gnu_cxx14__alloc_traitsISaIiEiE15_S_always_equalEv,comdat
	.weak	_ZN9__gnu_cxx14__alloc_traitsISaIiEiE15_S_always_equalEv
	.type	_ZN9__gnu_cxx14__alloc_traitsISaIiEiE15_S_always_equalEv, @function
_ZN9__gnu_cxx14__alloc_traitsISaIiEiE15_S_always_equalEv:
.LFB11352:
	.cfi_startproc
	endbr64
	push	rbp
	.cfi_def_cfa_offset 16
	.cfi_offset 6, -16
	mov	rbp, rsp
	.cfi_def_cfa_register 6
	mov	eax, 1
	pop	rbp
	.cfi_def_cfa 7, 8
	ret
	.cfi_endproc
.LFE11352:
	.size	_ZN9__gnu_cxx14__alloc_traitsISaIiEiE15_S_always_equalEv, .-_ZN9__gnu_cxx14__alloc_traitsISaIiEiE15_S_always_equalEv
	.section	.text._ZSt18uninitialized_copyISt13move_iteratorIPSt6vectorIiSaIiEEES4_ET0_T_S7_S6_,"axG",@progbits,_ZSt18uninitialized_copyISt13move_iteratorIPSt6vectorIiSaIiEEES4_ET0_T_S7_S6_,comdat
	.weak	_ZSt18uninitialized_copyISt13move_iteratorIPSt6vectorIiSaIiEEES4_ET0_T_S7_S6_
	.type	_ZSt18uninitialized_copyISt13move_iteratorIPSt6vectorIiSaIiEEES4_ET0_T_S7_S6_, @function
_ZSt18uninitialized_copyISt13move_iteratorIPSt6vectorIiSaIiEEES4_ET0_T_S7_S6_:
.LFB11349:
	.cfi_startproc
	endbr64
	push	rbp
	.cfi_def_cfa_offset 16
	.cfi_offset 6, -16
	mov	rbp, rsp
	.cfi_def_cfa_register 6
	sub	rsp, 48
	mov	QWORD PTR -24[rbp], rdi
	mov	QWORD PTR -32[rbp], rsi
	mov	QWORD PTR -40[rbp], rdx
	mov	BYTE PTR -1[rbp], 1
	mov	rdx, QWORD PTR -40[rbp]
	mov	rcx, QWORD PTR -32[rbp]
	mov	rax, QWORD PTR -24[rbp]
	mov	rsi, rcx
	mov	rdi, rax
	call	_ZNSt20__uninitialized_copyILb0EE13__uninit_copyISt13move_iteratorIPSt6vectorIiSaIiEEES6_EET0_T_S9_S8_
	leave
	.cfi_def_cfa 7, 8
	ret
	.cfi_endproc
.LFE11349:
	.size	_ZSt18uninitialized_copyISt13move_iteratorIPSt6vectorIiSaIiEEES4_ET0_T_S7_S6_, .-_ZSt18uninitialized_copyISt13move_iteratorIPSt6vectorIiSaIiEEES4_ET0_T_S7_S6_
	.section	.text._ZSt12__niter_baseIPSt6vectorIiSaIiEEET_S4_,"axG",@progbits,_ZSt12__niter_baseIPSt6vectorIiSaIiEEET_S4_,comdat
	.weak	_ZSt12__niter_baseIPSt6vectorIiSaIiEEET_S4_
	.type	_ZSt12__niter_baseIPSt6vectorIiSaIiEEET_S4_, @function
_ZSt12__niter_baseIPSt6vectorIiSaIiEEET_S4_:
.LFB11354:
	.cfi_startproc
	endbr64
	push	rbp
	.cfi_def_cfa_offset 16
	.cfi_offset 6, -16
	mov	rbp, rsp
	.cfi_def_cfa_register 6
	mov	QWORD PTR -8[rbp], rdi
	mov	rax, QWORD PTR -8[rbp]
	pop	rbp
	.cfi_def_cfa 7, 8
	ret
	.cfi_endproc
.LFE11354:
	.size	_ZSt12__niter_baseIPSt6vectorIiSaIiEEET_S4_, .-_ZSt12__niter_baseIPSt6vectorIiSaIiEEET_S4_
	.section	.text._ZSt23__copy_move_backward_a1ILb1EPSt6vectorIiSaIiEES3_ET1_T0_S5_S4_,"axG",@progbits,_ZSt23__copy_move_backward_a1ILb1EPSt6vectorIiSaIiEES3_ET1_T0_S5_S4_,comdat
	.weak	_ZSt23__copy_move_backward_a1ILb1EPSt6vectorIiSaIiEES3_ET1_T0_S5_S4_
	.type	_ZSt23__copy_move_backward_a1ILb1EPSt6vectorIiSaIiEES3_ET1_T0_S5_S4_, @function
_ZSt23__copy_move_backward_a1ILb1EPSt6vectorIiSaIiEES3_ET1_T0_S5_S4_:
.LFB11355:
	.cfi_startproc
	endbr64
	push	rbp
	.cfi_def_cfa_offset 16
	.cfi_offset 6, -16
	mov	rbp, rsp
	.cfi_def_cfa_register 6
	sub	rsp, 32
	mov	QWORD PTR -8[rbp], rdi
	mov	QWORD PTR -16[rbp], rsi
	mov	QWORD PTR -24[rbp], rdx
	mov	rdx, QWORD PTR -24[rbp]
	mov	rcx, QWORD PTR -16[rbp]
	mov	rax, QWORD PTR -8[rbp]
	mov	rsi, rcx
	mov	rdi, rax
	call	_ZSt23__copy_move_backward_a2ILb1EPSt6vectorIiSaIiEES3_ET1_T0_S5_S4_
	leave
	.cfi_def_cfa 7, 8
	ret
	.cfi_endproc
.LFE11355:
	.size	_ZSt23__copy_move_backward_a1ILb1EPSt6vectorIiSaIiEES3_ET1_T0_S5_S4_, .-_ZSt23__copy_move_backward_a1ILb1EPSt6vectorIiSaIiEES3_ET1_T0_S5_S4_
	.section	.text._ZSt12__niter_wrapIPSt6vectorIiSaIiEEET_RKS4_S4_,"axG",@progbits,_ZSt12__niter_wrapIPSt6vectorIiSaIiEEET_RKS4_S4_,comdat
	.weak	_ZSt12__niter_wrapIPSt6vectorIiSaIiEEET_RKS4_S4_
	.type	_ZSt12__niter_wrapIPSt6vectorIiSaIiEEET_RKS4_S4_, @function
_ZSt12__niter_wrapIPSt6vectorIiSaIiEEET_RKS4_S4_:
.LFB11356:
	.cfi_startproc
	endbr64
	push	rbp
	.cfi_def_cfa_offset 16
	.cfi_offset 6, -16
	mov	rbp, rsp
	.cfi_def_cfa_register 6
	mov	QWORD PTR -8[rbp], rdi
	mov	QWORD PTR -16[rbp], rsi
	mov	rax, QWORD PTR -16[rbp]
	pop	rbp
	.cfi_def_cfa 7, 8
	ret
	.cfi_endproc
.LFE11356:
	.size	_ZSt12__niter_wrapIPSt6vectorIiSaIiEEET_RKS4_S4_, .-_ZSt12__niter_wrapIPSt6vectorIiSaIiEEET_RKS4_S4_
	.section	.text._ZSt9__fill_a1IPSt6vectorIiSaIiEES2_EN9__gnu_cxx11__enable_ifIXntsrSt11__is_scalarIT0_E7__valueEvE6__typeET_SB_RKS7_,"axG",@progbits,_ZSt9__fill_a1IPSt6vectorIiSaIiEES2_EN9__gnu_cxx11__enable_ifIXntsrSt11__is_scalarIT0_E7__valueEvE6__typeET_SB_RKS7_,comdat
	.weak	_ZSt9__fill_a1IPSt6vectorIiSaIiEES2_EN9__gnu_cxx11__enable_ifIXntsrSt11__is_scalarIT0_E7__valueEvE6__typeET_SB_RKS7_
	.type	_ZSt9__fill_a1IPSt6vectorIiSaIiEES2_EN9__gnu_cxx11__enable_ifIXntsrSt11__is_scalarIT0_E7__valueEvE6__typeET_SB_RKS7_, @function
_ZSt9__fill_a1IPSt6vectorIiSaIiEES2_EN9__gnu_cxx11__enable_ifIXntsrSt11__is_scalarIT0_E7__valueEvE6__typeET_SB_RKS7_:
.LFB11357:
	.cfi_startproc
	endbr64
	push	rbp
	.cfi_def_cfa_offset 16
	.cfi_offset 6, -16
	mov	rbp, rsp
	.cfi_def_cfa_register 6
	sub	rsp, 32
	mov	QWORD PTR -8[rbp], rdi
	mov	QWORD PTR -16[rbp], rsi
	mov	QWORD PTR -24[rbp], rdx
	jmp	.L219
.L220:
	mov	rdx, QWORD PTR -24[rbp]
	mov	rax, QWORD PTR -8[rbp]
	mov	rsi, rdx
	mov	rdi, rax
	call	_ZNSt6vectorIiSaIiEEaSERKS1_
	add	QWORD PTR -8[rbp], 24
.L219:
	mov	rax, QWORD PTR -8[rbp]
	cmp	rax, QWORD PTR -16[rbp]
	jne	.L220
	nop
	nop
	leave
	.cfi_def_cfa 7, 8
	ret
	.cfi_endproc
.LFE11357:
	.size	_ZSt9__fill_a1IPSt6vectorIiSaIiEES2_EN9__gnu_cxx11__enable_ifIXntsrSt11__is_scalarIT0_E7__valueEvE6__typeET_SB_RKS7_, .-_ZSt9__fill_a1IPSt6vectorIiSaIiEES2_EN9__gnu_cxx11__enable_ifIXntsrSt11__is_scalarIT0_E7__valueEvE6__typeET_SB_RKS7_
	.section	.text._ZNSt22__uninitialized_fill_nILb0EE15__uninit_fill_nIPSt6vectorIiSaIiEEmS4_EET_S6_T0_RKT1_,"axG",@progbits,_ZNSt22__uninitialized_fill_nILb0EE15__uninit_fill_nIPSt6vectorIiSaIiEEmS4_EET_S6_T0_RKT1_,comdat
	.weak	_ZNSt22__uninitialized_fill_nILb0EE15__uninit_fill_nIPSt6vectorIiSaIiEEmS4_EET_S6_T0_RKT1_
	.type	_ZNSt22__uninitialized_fill_nILb0EE15__uninit_fill_nIPSt6vectorIiSaIiEEmS4_EET_S6_T0_RKT1_, @function
_ZNSt22__uninitialized_fill_nILb0EE15__uninit_fill_nIPSt6vectorIiSaIiEEmS4_EET_S6_T0_RKT1_:
.LFB11358:
	.cfi_startproc
	.cfi_personality 0x9b,DW.ref.__gxx_personality_v0
	.cfi_lsda 0x1b,.LLSDA11358
	endbr64
	push	rbp
	.cfi_def_cfa_offset 16
	.cfi_offset 6, -16
	mov	rbp, rsp
	.cfi_def_cfa_register 6
	push	rbx
	sub	rsp, 56
	.cfi_offset 3, -24
	mov	QWORD PTR -40[rbp], rdi
	mov	QWORD PTR -48[rbp], rsi
	mov	QWORD PTR -56[rbp], rdx
	mov	rax, QWORD PTR -40[rbp]
	mov	QWORD PTR -24[rbp], rax
	jmp	.L222
.L223:
	mov	rax, QWORD PTR -24[rbp]
	mov	rdi, rax
	call	_ZSt11__addressofISt6vectorIiSaIiEEEPT_RS3_
	mov	rdx, rax
	mov	rax, QWORD PTR -56[rbp]
	mov	rsi, rax
	mov	rdi, rdx
.LEHB18:
	call	_ZSt10_ConstructISt6vectorIiSaIiEEJRKS2_EEvPT_DpOT0_
.LEHE18:
	sub	QWORD PTR -48[rbp], 1
	add	QWORD PTR -24[rbp], 24
.L222:
	cmp	QWORD PTR -48[rbp], 0
	jne	.L223
	mov	rax, QWORD PTR -24[rbp]
	jmp	.L229
.L227:
	endbr64
	mov	rdi, rax
	call	__cxa_begin_catch@PLT
	mov	rdx, QWORD PTR -24[rbp]
	mov	rax, QWORD PTR -40[rbp]
	mov	rsi, rdx
	mov	rdi, rax
.LEHB19:
	call	_ZSt8_DestroyIPSt6vectorIiSaIiEEEvT_S4_
	call	__cxa_rethrow@PLT
.LEHE19:
.L228:
	endbr64
	mov	rbx, rax
	call	__cxa_end_catch@PLT
	mov	rax, rbx
	mov	rdi, rax
.LEHB20:
	call	_Unwind_Resume@PLT
.LEHE20:
.L229:
	mov	rbx, QWORD PTR -8[rbp]
	leave
	.cfi_def_cfa 7, 8
	ret
	.cfi_endproc
.LFE11358:
	.section	.gcc_except_table
	.align 4
.LLSDA11358:
	.byte	0xff
	.byte	0x9b
	.uleb128 .LLSDATT11358-.LLSDATTD11358
.LLSDATTD11358:
	.byte	0x1
	.uleb128 .LLSDACSE11358-.LLSDACSB11358
.LLSDACSB11358:
	.uleb128 .LEHB18-.LFB11358
	.uleb128 .LEHE18-.LEHB18
	.uleb128 .L227-.LFB11358
	.uleb128 0x1
	.uleb128 .LEHB19-.LFB11358
	.uleb128 .LEHE19-.LEHB19
	.uleb128 .L228-.LFB11358
	.uleb128 0
	.uleb128 .LEHB20-.LFB11358
	.uleb128 .LEHE20-.LEHB20
	.uleb128 0
	.uleb128 0
.LLSDACSE11358:
	.byte	0x1
	.byte	0
	.align 4
	.long	0

.LLSDATT11358:
	.section	.text._ZNSt22__uninitialized_fill_nILb0EE15__uninit_fill_nIPSt6vectorIiSaIiEEmS4_EET_S6_T0_RKT1_,"axG",@progbits,_ZNSt22__uninitialized_fill_nILb0EE15__uninit_fill_nIPSt6vectorIiSaIiEEmS4_EET_S6_T0_RKT1_,comdat
	.size	_ZNSt22__uninitialized_fill_nILb0EE15__uninit_fill_nIPSt6vectorIiSaIiEEmS4_EET_S6_T0_RKT1_, .-_ZNSt22__uninitialized_fill_nILb0EE15__uninit_fill_nIPSt6vectorIiSaIiEEmS4_EET_S6_T0_RKT1_
	.section	.text._ZNSt6vectorIS_IiSaIiEESaIS1_EE11_S_max_sizeERKS2_,"axG",@progbits,_ZNSt6vectorIS_IiSaIiEESaIS1_EE11_S_max_sizeERKS2_,comdat
	.weak	_ZNSt6vectorIS_IiSaIiEESaIS1_EE11_S_max_sizeERKS2_
	.type	_ZNSt6vectorIS_IiSaIiEESaIS1_EE11_S_max_sizeERKS2_, @function
_ZNSt6vectorIS_IiSaIiEESaIS1_EE11_S_max_sizeERKS2_:
.LFB11359:
	.cfi_startproc
	endbr64
	push	rbp
	.cfi_def_cfa_offset 16
	.cfi_offset 6, -16
	mov	rbp, rsp
	.cfi_def_cfa_register 6
	sub	rsp, 48
	mov	QWORD PTR -40[rbp], rdi
	mov	rax, QWORD PTR fs:40
	mov	QWORD PTR -8[rbp], rax
	xor	eax, eax
	movabs	rax, 384307168202282325
	mov	QWORD PTR -24[rbp], rax
	mov	rax, QWORD PTR -40[rbp]
	mov	rdi, rax
	call	_ZNSt16allocator_traitsISaISt6vectorIiSaIiEEEE8max_sizeERKS3_
	mov	QWORD PTR -16[rbp], rax
	lea	rdx, -16[rbp]
	lea	rax, -24[rbp]
	mov	rsi, rdx
	mov	rdi, rax
	call	_ZSt3minImERKT_S2_S2_
	mov	rax, QWORD PTR [rax]
	mov	rdx, QWORD PTR -8[rbp]
	sub	rdx, QWORD PTR fs:40
	je	.L232
	call	__stack_chk_fail@PLT
.L232:
	leave
	.cfi_def_cfa 7, 8
	ret
	.cfi_endproc
.LFE11359:
	.size	_ZNSt6vectorIS_IiSaIiEESaIS1_EE11_S_max_sizeERKS2_, .-_ZNSt6vectorIS_IiSaIiEESaIS1_EE11_S_max_sizeERKS2_
	.section	.text._ZNKSt12_Vector_baseISt6vectorIiSaIiEESaIS2_EE19_M_get_Tp_allocatorEv,"axG",@progbits,_ZNKSt12_Vector_baseISt6vectorIiSaIiEESaIS2_EE19_M_get_Tp_allocatorEv,comdat
	.align 2
	.weak	_ZNKSt12_Vector_baseISt6vectorIiSaIiEESaIS2_EE19_M_get_Tp_allocatorEv
	.type	_ZNKSt12_Vector_baseISt6vectorIiSaIiEESaIS2_EE19_M_get_Tp_allocatorEv, @function
_ZNKSt12_Vector_baseISt6vectorIiSaIiEESaIS2_EE19_M_get_Tp_allocatorEv:
.LFB11360:
	.cfi_startproc
	endbr64
	push	rbp
	.cfi_def_cfa_offset 16
	.cfi_offset 6, -16
	mov	rbp, rsp
	.cfi_def_cfa_register 6
	mov	QWORD PTR -8[rbp], rdi
	mov	rax, QWORD PTR -8[rbp]
	pop	rbp
	.cfi_def_cfa 7, 8
	ret
	.cfi_endproc
.LFE11360:
	.size	_ZNKSt12_Vector_baseISt6vectorIiSaIiEESaIS2_EE19_M_get_Tp_allocatorEv, .-_ZNKSt12_Vector_baseISt6vectorIiSaIiEESaIS2_EE19_M_get_Tp_allocatorEv
	.section	.text._ZNK9__gnu_cxx13new_allocatorISt6vectorIiSaIiEEE11_M_max_sizeEv,"axG",@progbits,_ZNK9__gnu_cxx13new_allocatorISt6vectorIiSaIiEEE11_M_max_sizeEv,comdat
	.align 2
	.weak	_ZNK9__gnu_cxx13new_allocatorISt6vectorIiSaIiEEE11_M_max_sizeEv
	.type	_ZNK9__gnu_cxx13new_allocatorISt6vectorIiSaIiEEE11_M_max_sizeEv, @function
_ZNK9__gnu_cxx13new_allocatorISt6vectorIiSaIiEEE11_M_max_sizeEv:
.LFB11362:
	.cfi_startproc
	endbr64
	push	rbp
	.cfi_def_cfa_offset 16
	.cfi_offset 6, -16
	mov	rbp, rsp
	.cfi_def_cfa_register 6
	mov	QWORD PTR -8[rbp], rdi
	movabs	rax, 384307168202282325
	pop	rbp
	.cfi_def_cfa 7, 8
	ret
	.cfi_endproc
.LFE11362:
	.size	_ZNK9__gnu_cxx13new_allocatorISt6vectorIiSaIiEEE11_M_max_sizeEv, .-_ZNK9__gnu_cxx13new_allocatorISt6vectorIiSaIiEEE11_M_max_sizeEv
	.section	.text._ZN9__gnu_cxx13new_allocatorISt6vectorIiSaIiEEE8allocateEmPKv,"axG",@progbits,_ZN9__gnu_cxx13new_allocatorISt6vectorIiSaIiEEE8allocateEmPKv,comdat
	.align 2
	.weak	_ZN9__gnu_cxx13new_allocatorISt6vectorIiSaIiEEE8allocateEmPKv
	.type	_ZN9__gnu_cxx13new_allocatorISt6vectorIiSaIiEEE8allocateEmPKv, @function
_ZN9__gnu_cxx13new_allocatorISt6vectorIiSaIiEEE8allocateEmPKv:
.LFB11361:
	.cfi_startproc
	endbr64
	push	rbp
	.cfi_def_cfa_offset 16
	.cfi_offset 6, -16
	mov	rbp, rsp
	.cfi_def_cfa_register 6
	sub	rsp, 32
	mov	QWORD PTR -8[rbp], rdi
	mov	QWORD PTR -16[rbp], rsi
	mov	QWORD PTR -24[rbp], rdx
	mov	rax, QWORD PTR -8[rbp]
	mov	rdi, rax
	call	_ZNK9__gnu_cxx13new_allocatorISt6vectorIiSaIiEEE11_M_max_sizeEv
	cmp	QWORD PTR -16[rbp], rax
	seta	al
	movzx	eax, al
	test	rax, rax
	setne	al
	test	al, al
	je	.L238
	movabs	rax, 768614336404564650
	cmp	QWORD PTR -16[rbp], rax
	jbe	.L239
	call	_ZSt28__throw_bad_array_new_lengthv@PLT
.L239:
	call	_ZSt17__throw_bad_allocv@PLT
.L238:
	mov	rdx, QWORD PTR -16[rbp]
	mov	rax, rdx
	add	rax, rax
	add	rax, rdx
	sal	rax, 3
	mov	rdi, rax
	call	_Znwm@PLT
	nop
	leave
	.cfi_def_cfa 7, 8
	ret
	.cfi_endproc
.LFE11361:
	.size	_ZN9__gnu_cxx13new_allocatorISt6vectorIiSaIiEEE8allocateEmPKv, .-_ZN9__gnu_cxx13new_allocatorISt6vectorIiSaIiEEE8allocateEmPKv
	.section	.text._ZNSt12_Destroy_auxILb0EE9__destroyIPSt6vectorIiSaIiEEEEvT_S6_,"axG",@progbits,_ZNSt12_Destroy_auxILb0EE9__destroyIPSt6vectorIiSaIiEEEEvT_S6_,comdat
	.weak	_ZNSt12_Destroy_auxILb0EE9__destroyIPSt6vectorIiSaIiEEEEvT_S6_
	.type	_ZNSt12_Destroy_auxILb0EE9__destroyIPSt6vectorIiSaIiEEEEvT_S6_, @function
_ZNSt12_Destroy_auxILb0EE9__destroyIPSt6vectorIiSaIiEEEEvT_S6_:
.LFB11363:
	.cfi_startproc
	endbr64
	push	rbp
	.cfi_def_cfa_offset 16
	.cfi_offset 6, -16
	mov	rbp, rsp
	.cfi_def_cfa_register 6
	sub	rsp, 16
	mov	QWORD PTR -8[rbp], rdi
	mov	QWORD PTR -16[rbp], rsi
	jmp	.L242
.L243:
	mov	rax, QWORD PTR -8[rbp]
	mov	rdi, rax
	call	_ZSt11__addressofISt6vectorIiSaIiEEEPT_RS3_
	mov	rdi, rax
	call	_ZSt8_DestroyISt6vectorIiSaIiEEEvPT_
	add	QWORD PTR -8[rbp], 24
.L242:
	mov	rax, QWORD PTR -8[rbp]
	cmp	rax, QWORD PTR -16[rbp]
	jne	.L243
	nop
	nop
	leave
	.cfi_def_cfa 7, 8
	ret
	.cfi_endproc
.LFE11363:
	.size	_ZNSt12_Destroy_auxILb0EE9__destroyIPSt6vectorIiSaIiEEEEvT_S6_, .-_ZNSt12_Destroy_auxILb0EE9__destroyIPSt6vectorIiSaIiEEEEvT_S6_
	.section	.text._ZNK9__gnu_cxx13new_allocatorIiE11_M_max_sizeEv,"axG",@progbits,_ZNK9__gnu_cxx13new_allocatorIiE11_M_max_sizeEv,comdat
	.align 2
	.weak	_ZNK9__gnu_cxx13new_allocatorIiE11_M_max_sizeEv
	.type	_ZNK9__gnu_cxx13new_allocatorIiE11_M_max_sizeEv, @function
_ZNK9__gnu_cxx13new_allocatorIiE11_M_max_sizeEv:
.LFB11469:
	.cfi_startproc
	endbr64
	push	rbp
	.cfi_def_cfa_offset 16
	.cfi_offset 6, -16
	mov	rbp, rsp
	.cfi_def_cfa_register 6
	mov	QWORD PTR -8[rbp], rdi
	movabs	rax, 2305843009213693951
	pop	rbp
	.cfi_def_cfa 7, 8
	ret
	.cfi_endproc
.LFE11469:
	.size	_ZNK9__gnu_cxx13new_allocatorIiE11_M_max_sizeEv, .-_ZNK9__gnu_cxx13new_allocatorIiE11_M_max_sizeEv
	.section	.text._ZN9__gnu_cxx13new_allocatorIiE8allocateEmPKv,"axG",@progbits,_ZN9__gnu_cxx13new_allocatorIiE8allocateEmPKv,comdat
	.align 2
	.weak	_ZN9__gnu_cxx13new_allocatorIiE8allocateEmPKv
	.type	_ZN9__gnu_cxx13new_allocatorIiE8allocateEmPKv, @function
_ZN9__gnu_cxx13new_allocatorIiE8allocateEmPKv:
.LFB11470:
	.cfi_startproc
	endbr64
	push	rbp
	.cfi_def_cfa_offset 16
	.cfi_offset 6, -16
	mov	rbp, rsp
	.cfi_def_cfa_register 6
	sub	rsp, 32
	mov	QWORD PTR -8[rbp], rdi
	mov	QWORD PTR -16[rbp], rsi
	mov	QWORD PTR -24[rbp], rdx
	mov	rax, QWORD PTR -8[rbp]
	mov	rdi, rax
	call	_ZNK9__gnu_cxx13new_allocatorIiE11_M_max_sizeEv
	cmp	QWORD PTR -16[rbp], rax
	seta	al
	movzx	eax, al
	test	rax, rax
	setne	al
	test	al, al
	je	.L247
	movabs	rax, 4611686018427387903
	cmp	QWORD PTR -16[rbp], rax
	jbe	.L248
	call	_ZSt28__throw_bad_array_new_lengthv@PLT
.L248:
	call	_ZSt17__throw_bad_allocv@PLT
.L247:
	mov	rax, QWORD PTR -16[rbp]
	sal	rax, 2
	mov	rdi, rax
	call	_Znwm@PLT
	nop
	leave
	.cfi_def_cfa 7, 8
	ret
	.cfi_endproc
.LFE11470:
	.size	_ZN9__gnu_cxx13new_allocatorIiE8allocateEmPKv, .-_ZN9__gnu_cxx13new_allocatorIiE8allocateEmPKv
	.section	.text._ZSt10_ConstructIiJEEvPT_DpOT0_,"axG",@progbits,_ZSt10_ConstructIiJEEvPT_DpOT0_,comdat
	.weak	_ZSt10_ConstructIiJEEvPT_DpOT0_
	.type	_ZSt10_ConstructIiJEEvPT_DpOT0_, @function
_ZSt10_ConstructIiJEEvPT_DpOT0_:
.LFB11471:
	.cfi_startproc
	endbr64
	push	rbp
	.cfi_def_cfa_offset 16
	.cfi_offset 6, -16
	mov	rbp, rsp
	.cfi_def_cfa_register 6
	sub	rsp, 16
	mov	QWORD PTR -8[rbp], rdi
	mov	rax, QWORD PTR -8[rbp]
	mov	rsi, rax
	mov	edi, 4
	call	_ZnwmPv
	mov	DWORD PTR [rax], 0
	nop
	leave
	.cfi_def_cfa 7, 8
	ret
	.cfi_endproc
.LFE11471:
	.size	_ZSt10_ConstructIiJEEvPT_DpOT0_, .-_ZSt10_ConstructIiJEEvPT_DpOT0_
	.section	.text._ZSt6fill_nIPimiET_S1_T0_RKT1_,"axG",@progbits,_ZSt6fill_nIPimiET_S1_T0_RKT1_,comdat
	.weak	_ZSt6fill_nIPimiET_S1_T0_RKT1_
	.type	_ZSt6fill_nIPimiET_S1_T0_RKT1_, @function
_ZSt6fill_nIPimiET_S1_T0_RKT1_:
.LFB11472:
	.cfi_startproc
	endbr64
	push	rbp
	.cfi_def_cfa_offset 16
	.cfi_offset 6, -16
	mov	rbp, rsp
	.cfi_def_cfa_register 6
	sub	rsp, 32
	mov	QWORD PTR -8[rbp], rdi
	mov	QWORD PTR -16[rbp], rsi
	mov	QWORD PTR -24[rbp], rdx
	lea	rax, -8[rbp]
	mov	rdi, rax
	call	_ZSt19__iterator_categoryIPiENSt15iterator_traitsIT_E17iterator_categoryERKS2_
	mov	rax, QWORD PTR -16[rbp]
	mov	rdi, rax
	call	_ZSt17__size_to_integerm
	mov	rcx, rax
	mov	rax, QWORD PTR -8[rbp]
	mov	rdx, QWORD PTR -24[rbp]
	mov	rsi, rcx
	mov	rdi, rax
	call	_ZSt10__fill_n_aIPimiET_S1_T0_RKT1_St26random_access_iterator_tag
	leave
	.cfi_def_cfa 7, 8
	ret
	.cfi_endproc
.LFE11472:
	.size	_ZSt6fill_nIPimiET_S1_T0_RKT1_, .-_ZSt6fill_nIPimiET_S1_T0_RKT1_
	.section	.text._ZNSt6vectorIiSaIiEEC2ERKS1_,"axG",@progbits,_ZNSt6vectorIiSaIiEEC5ERKS1_,comdat
	.align 2
	.weak	_ZNSt6vectorIiSaIiEEC2ERKS1_
	.type	_ZNSt6vectorIiSaIiEEC2ERKS1_, @function
_ZNSt6vectorIiSaIiEEC2ERKS1_:
.LFB11474:
	.cfi_startproc
	.cfi_personality 0x9b,DW.ref.__gxx_personality_v0
	.cfi_lsda 0x1b,.LLSDA11474
	endbr64
	push	rbp
	.cfi_def_cfa_offset 16
	.cfi_offset 6, -16
	mov	rbp, rsp
	.cfi_def_cfa_register 6
	push	r13
	push	r12
	push	rbx
	sub	rsp, 40
	.cfi_offset 13, -24
	.cfi_offset 12, -32
	.cfi_offset 3, -40
	mov	QWORD PTR -56[rbp], rdi
	mov	QWORD PTR -64[rbp], rsi
	mov	rax, QWORD PTR fs:40
	mov	QWORD PTR -40[rbp], rax
	xor	eax, eax
	mov	rbx, QWORD PTR -56[rbp]
	mov	rax, QWORD PTR -64[rbp]
	mov	rdi, rax
	call	_ZNKSt12_Vector_baseIiSaIiEE19_M_get_Tp_allocatorEv
	mov	rdx, rax
	lea	rax, -41[rbp]
	mov	rsi, rdx
	mov	rdi, rax
.LEHB21:
	call	_ZN9__gnu_cxx14__alloc_traitsISaIiEiE17_S_select_on_copyERKS1_
.LEHE21:
	mov	rax, QWORD PTR -64[rbp]
	mov	rdi, rax
	call	_ZNKSt6vectorIiSaIiEE4sizeEv
	mov	rcx, rax
	lea	rax, -41[rbp]
	mov	rdx, rax
	mov	rsi, rcx
	mov	rdi, rbx
.LEHB22:
	call	_ZNSt12_Vector_baseIiSaIiEEC2EmRKS0_
.LEHE22:
	lea	rax, -41[rbp]
	mov	rdi, rax
	call	_ZNSaIiED1Ev
	mov	rax, QWORD PTR -56[rbp]
	mov	rdi, rax
	call	_ZNSt12_Vector_baseIiSaIiEE19_M_get_Tp_allocatorEv
	mov	r13, rax
	mov	rax, QWORD PTR -56[rbp]
	mov	rbx, QWORD PTR [rax]
	mov	rax, QWORD PTR -64[rbp]
	mov	rdi, rax
	call	_ZNKSt6vectorIiSaIiEE3endEv
	mov	r12, rax
	mov	rax, QWORD PTR -64[rbp]
	mov	rdi, rax
	call	_ZNKSt6vectorIiSaIiEE5beginEv
	mov	rcx, r13
	mov	rdx, rbx
	mov	rsi, r12
	mov	rdi, rax
.LEHB23:
	call	_ZSt22__uninitialized_copy_aIN9__gnu_cxx17__normal_iteratorIPKiSt6vectorIiSaIiEEEEPiiET0_T_SA_S9_RSaIT1_E
.LEHE23:
	mov	rdx, QWORD PTR -56[rbp]
	mov	QWORD PTR 8[rdx], rax
	nop
	mov	rax, QWORD PTR -40[rbp]
	sub	rax, QWORD PTR fs:40
	je	.L256
	jmp	.L259
.L257:
	endbr64
	mov	rbx, rax
	lea	rax, -41[rbp]
	mov	rdi, rax
	call	_ZNSaIiED1Ev
	mov	rax, rbx
	mov	rdi, rax
.LEHB24:
	call	_Unwind_Resume@PLT
.L258:
	endbr64
	mov	rbx, rax
	mov	rax, QWORD PTR -56[rbp]
	mov	rdi, rax
	call	_ZNSt12_Vector_baseIiSaIiEED2Ev
	mov	rax, rbx
	mov	rdi, rax
	call	_Unwind_Resume@PLT
.LEHE24:
.L259:
	call	__stack_chk_fail@PLT
.L256:
	add	rsp, 40
	pop	rbx
	pop	r12
	pop	r13
	pop	rbp
	.cfi_def_cfa 7, 8
	ret
	.cfi_endproc
.LFE11474:
	.section	.gcc_except_table
.LLSDA11474:
	.byte	0xff
	.byte	0xff
	.byte	0x1
	.uleb128 .LLSDACSE11474-.LLSDACSB11474
.LLSDACSB11474:
	.uleb128 .LEHB21-.LFB11474
	.uleb128 .LEHE21-.LEHB21
	.uleb128 0
	.uleb128 0
	.uleb128 .LEHB22-.LFB11474
	.uleb128 .LEHE22-.LEHB22
	.uleb128 .L257-.LFB11474
	.uleb128 0
	.uleb128 .LEHB23-.LFB11474
	.uleb128 .LEHE23-.LEHB23
	.uleb128 .L258-.LFB11474
	.uleb128 0
	.uleb128 .LEHB24-.LFB11474
	.uleb128 .LEHE24-.LEHB24
	.uleb128 0
	.uleb128 0
.LLSDACSE11474:
	.section	.text._ZNSt6vectorIiSaIiEEC2ERKS1_,"axG",@progbits,_ZNSt6vectorIiSaIiEEC5ERKS1_,comdat
	.size	_ZNSt6vectorIiSaIiEEC2ERKS1_, .-_ZNSt6vectorIiSaIiEEC2ERKS1_
	.weak	_ZNSt6vectorIiSaIiEEC1ERKS1_
	.set	_ZNSt6vectorIiSaIiEEC1ERKS1_,_ZNSt6vectorIiSaIiEEC2ERKS1_
	.section	.text._ZNSt13move_iteratorIPSt6vectorIiSaIiEEEppEv,"axG",@progbits,_ZNSt13move_iteratorIPSt6vectorIiSaIiEEEppEv,comdat
	.align 2
	.weak	_ZNSt13move_iteratorIPSt6vectorIiSaIiEEEppEv
	.type	_ZNSt13move_iteratorIPSt6vectorIiSaIiEEEppEv, @function
_ZNSt13move_iteratorIPSt6vectorIiSaIiEEEppEv:
.LFB11477:
	.cfi_startproc
	endbr64
	push	rbp
	.cfi_def_cfa_offset 16
	.cfi_offset 6, -16
	mov	rbp, rsp
	.cfi_def_cfa_register 6
	mov	QWORD PTR -8[rbp], rdi
	mov	rax, QWORD PTR -8[rbp]
	mov	rax, QWORD PTR [rax]
	lea	rdx, 24[rax]
	mov	rax, QWORD PTR -8[rbp]
	mov	QWORD PTR [rax], rdx
	mov	rax, QWORD PTR -8[rbp]
	pop	rbp
	.cfi_def_cfa 7, 8
	ret
	.cfi_endproc
.LFE11477:
	.size	_ZNSt13move_iteratorIPSt6vectorIiSaIiEEEppEv, .-_ZNSt13move_iteratorIPSt6vectorIiSaIiEEEppEv
	.section	.text._ZNSt20__uninitialized_copyILb0EE13__uninit_copyISt13move_iteratorIPSt6vectorIiSaIiEEES6_EET0_T_S9_S8_,"axG",@progbits,_ZNSt20__uninitialized_copyILb0EE13__uninit_copyISt13move_iteratorIPSt6vectorIiSaIiEEES6_EET0_T_S9_S8_,comdat
	.weak	_ZNSt20__uninitialized_copyILb0EE13__uninit_copyISt13move_iteratorIPSt6vectorIiSaIiEEES6_EET0_T_S9_S8_
	.type	_ZNSt20__uninitialized_copyILb0EE13__uninit_copyISt13move_iteratorIPSt6vectorIiSaIiEEES6_EET0_T_S9_S8_, @function
_ZNSt20__uninitialized_copyILb0EE13__uninit_copyISt13move_iteratorIPSt6vectorIiSaIiEEES6_EET0_T_S9_S8_:
.LFB11476:
	.cfi_startproc
	.cfi_personality 0x9b,DW.ref.__gxx_personality_v0
	.cfi_lsda 0x1b,.LLSDA11476
	endbr64
	push	rbp
	.cfi_def_cfa_offset 16
	.cfi_offset 6, -16
	mov	rbp, rsp
	.cfi_def_cfa_register 6
	push	rbx
	sub	rsp, 56
	.cfi_offset 3, -24
	mov	QWORD PTR -40[rbp], rdi
	mov	QWORD PTR -48[rbp], rsi
	mov	QWORD PTR -56[rbp], rdx
	mov	rax, QWORD PTR -56[rbp]
	mov	QWORD PTR -24[rbp], rax
	jmp	.L263
.L264:
	lea	rax, -40[rbp]
	mov	rdi, rax
	call	_ZNKSt13move_iteratorIPSt6vectorIiSaIiEEEdeEv
	mov	rbx, rax
	mov	rax, QWORD PTR -24[rbp]
	mov	rdi, rax
	call	_ZSt11__addressofISt6vectorIiSaIiEEEPT_RS3_
	mov	rsi, rbx
	mov	rdi, rax
	call	_ZSt10_ConstructISt6vectorIiSaIiEEJS2_EEvPT_DpOT0_
	lea	rax, -40[rbp]
	mov	rdi, rax
	call	_ZNSt13move_iteratorIPSt6vectorIiSaIiEEEppEv
	add	QWORD PTR -24[rbp], 24
.L263:
	lea	rdx, -48[rbp]
	lea	rax, -40[rbp]
	mov	rsi, rdx
	mov	rdi, rax
.LEHB25:
	call	_ZStneIPSt6vectorIiSaIiEEEbRKSt13move_iteratorIT_ES8_
.LEHE25:
	test	al, al
	jne	.L264
	mov	rax, QWORD PTR -24[rbp]
	jmp	.L270
.L268:
	endbr64
	mov	rdi, rax
	call	__cxa_begin_catch@PLT
	mov	rdx, QWORD PTR -24[rbp]
	mov	rax, QWORD PTR -56[rbp]
	mov	rsi, rdx
	mov	rdi, rax
.LEHB26:
	call	_ZSt8_DestroyIPSt6vectorIiSaIiEEEvT_S4_
	call	__cxa_rethrow@PLT
.LEHE26:
.L269:
	endbr64
	mov	rbx, rax
	call	__cxa_end_catch@PLT
	mov	rax, rbx
	mov	rdi, rax
.LEHB27:
	call	_Unwind_Resume@PLT
.LEHE27:
.L270:
	mov	rbx, QWORD PTR -8[rbp]
	leave
	.cfi_def_cfa 7, 8
	ret
	.cfi_endproc
.LFE11476:
	.section	.gcc_except_table
	.align 4
.LLSDA11476:
	.byte	0xff
	.byte	0x9b
	.uleb128 .LLSDATT11476-.LLSDATTD11476
.LLSDATTD11476:
	.byte	0x1
	.uleb128 .LLSDACSE11476-.LLSDACSB11476
.LLSDACSB11476:
	.uleb128 .LEHB25-.LFB11476
	.uleb128 .LEHE25-.LEHB25
	.uleb128 .L268-.LFB11476
	.uleb128 0x1
	.uleb128 .LEHB26-.LFB11476
	.uleb128 .LEHE26-.LEHB26
	.uleb128 .L269-.LFB11476
	.uleb128 0
	.uleb128 .LEHB27-.LFB11476
	.uleb128 .LEHE27-.LEHB27
	.uleb128 0
	.uleb128 0
.LLSDACSE11476:
	.byte	0x1
	.byte	0
	.align 4
	.long	0

.LLSDATT11476:
	.section	.text._ZNSt20__uninitialized_copyILb0EE13__uninit_copyISt13move_iteratorIPSt6vectorIiSaIiEEES6_EET0_T_S9_S8_,"axG",@progbits,_ZNSt20__uninitialized_copyILb0EE13__uninit_copyISt13move_iteratorIPSt6vectorIiSaIiEEES6_EET0_T_S9_S8_,comdat
	.size	_ZNSt20__uninitialized_copyILb0EE13__uninit_copyISt13move_iteratorIPSt6vectorIiSaIiEEES6_EET0_T_S9_S8_, .-_ZNSt20__uninitialized_copyILb0EE13__uninit_copyISt13move_iteratorIPSt6vectorIiSaIiEEES6_EET0_T_S9_S8_
	.section	.text._ZSt23__copy_move_backward_a2ILb1EPSt6vectorIiSaIiEES3_ET1_T0_S5_S4_,"axG",@progbits,_ZSt23__copy_move_backward_a2ILb1EPSt6vectorIiSaIiEES3_ET1_T0_S5_S4_,comdat
	.weak	_ZSt23__copy_move_backward_a2ILb1EPSt6vectorIiSaIiEES3_ET1_T0_S5_S4_
	.type	_ZSt23__copy_move_backward_a2ILb1EPSt6vectorIiSaIiEES3_ET1_T0_S5_S4_, @function
_ZSt23__copy_move_backward_a2ILb1EPSt6vectorIiSaIiEES3_ET1_T0_S5_S4_:
.LFB11478:
	.cfi_startproc
	endbr64
	push	rbp
	.cfi_def_cfa_offset 16
	.cfi_offset 6, -16
	mov	rbp, rsp
	.cfi_def_cfa_register 6
	sub	rsp, 32
	mov	QWORD PTR -8[rbp], rdi
	mov	QWORD PTR -16[rbp], rsi
	mov	QWORD PTR -24[rbp], rdx
	mov	rdx, QWORD PTR -24[rbp]
	mov	rcx, QWORD PTR -16[rbp]
	mov	rax, QWORD PTR -8[rbp]
	mov	rsi, rcx
	mov	rdi, rax
	call	_ZNSt20__copy_move_backwardILb1ELb0ESt26random_access_iterator_tagE13__copy_move_bIPSt6vectorIiSaIiEES6_EET0_T_S8_S7_
	leave
	.cfi_def_cfa 7, 8
	ret
	.cfi_endproc
.LFE11478:
	.size	_ZSt23__copy_move_backward_a2ILb1EPSt6vectorIiSaIiEES3_ET1_T0_S5_S4_, .-_ZSt23__copy_move_backward_a2ILb1EPSt6vectorIiSaIiEES3_ET1_T0_S5_S4_
	.section	.text._ZN9__gnu_cxx14__alloc_traitsISaIiEiE27_S_propagate_on_copy_assignEv,"axG",@progbits,_ZN9__gnu_cxx14__alloc_traitsISaIiEiE27_S_propagate_on_copy_assignEv,comdat
	.weak	_ZN9__gnu_cxx14__alloc_traitsISaIiEiE27_S_propagate_on_copy_assignEv
	.type	_ZN9__gnu_cxx14__alloc_traitsISaIiEiE27_S_propagate_on_copy_assignEv, @function
_ZN9__gnu_cxx14__alloc_traitsISaIiEiE27_S_propagate_on_copy_assignEv:
.LFB11480:
	.cfi_startproc
	endbr64
	push	rbp
	.cfi_def_cfa_offset 16
	.cfi_offset 6, -16
	mov	rbp, rsp
	.cfi_def_cfa_register 6
	mov	eax, 0
	pop	rbp
	.cfi_def_cfa 7, 8
	ret
	.cfi_endproc
.LFE11480:
	.size	_ZN9__gnu_cxx14__alloc_traitsISaIiEiE27_S_propagate_on_copy_assignEv, .-_ZN9__gnu_cxx14__alloc_traitsISaIiEiE27_S_propagate_on_copy_assignEv
	.section	.text._ZNSt6vectorIiSaIiEEaSERKS1_,"axG",@progbits,_ZNSt6vectorIiSaIiEEaSERKS1_,comdat
	.align 2
	.weak	_ZNSt6vectorIiSaIiEEaSERKS1_
	.type	_ZNSt6vectorIiSaIiEEaSERKS1_, @function
_ZNSt6vectorIiSaIiEEaSERKS1_:
.LFB11479:
	.cfi_startproc
	endbr64
	push	rbp
	.cfi_def_cfa_offset 16
	.cfi_offset 6, -16
	mov	rbp, rsp
	.cfi_def_cfa_register 6
	push	r14
	push	r13
	push	r12
	push	rbx
	sub	rsp, 32
	.cfi_offset 14, -24
	.cfi_offset 13, -32
	.cfi_offset 12, -40
	.cfi_offset 3, -48
	mov	QWORD PTR -56[rbp], rdi
	mov	QWORD PTR -64[rbp], rsi
	mov	rax, QWORD PTR -64[rbp]
	cmp	rax, QWORD PTR -56[rbp]
	je	.L276
	call	_ZN9__gnu_cxx14__alloc_traitsISaIiEiE27_S_propagate_on_copy_assignEv
	test	al, al
	je	.L277
	call	_ZN9__gnu_cxx14__alloc_traitsISaIiEiE15_S_always_equalEv
	xor	eax, 1
	test	al, al
	je	.L278
	mov	rax, QWORD PTR -64[rbp]
	mov	rdi, rax
	call	_ZNKSt12_Vector_baseIiSaIiEE19_M_get_Tp_allocatorEv
	mov	rbx, rax
	mov	rax, QWORD PTR -56[rbp]
	mov	rdi, rax
	call	_ZNSt12_Vector_baseIiSaIiEE19_M_get_Tp_allocatorEv
	mov	rsi, rbx
	mov	rdi, rax
	call	_ZStneRKSaIiES1_
	test	al, al
	je	.L278
	mov	eax, 1
	jmp	.L279
.L278:
	mov	eax, 0
.L279:
	test	al, al
	je	.L280
	mov	rax, QWORD PTR -56[rbp]
	mov	rdi, rax
	call	_ZNSt6vectorIiSaIiEE5clearEv
	mov	rax, QWORD PTR -56[rbp]
	mov	rdx, QWORD PTR -56[rbp]
	mov	rcx, QWORD PTR 16[rdx]
	mov	rdx, QWORD PTR -56[rbp]
	mov	rsi, QWORD PTR [rdx]
	sub	rcx, rsi
	mov	rdx, rcx
	sar	rdx, 2
	mov	rsi, rdx
	mov	rdx, QWORD PTR -56[rbp]
	mov	rcx, QWORD PTR [rdx]
	mov	rdx, rsi
	mov	rsi, rcx
	mov	rdi, rax
	call	_ZNSt12_Vector_baseIiSaIiEE13_M_deallocateEPim
	mov	rax, QWORD PTR -56[rbp]
	mov	QWORD PTR [rax], 0
	mov	rax, QWORD PTR -56[rbp]
	mov	QWORD PTR 8[rax], 0
	mov	rax, QWORD PTR -56[rbp]
	mov	QWORD PTR 16[rax], 0
.L280:
	mov	rax, QWORD PTR -64[rbp]
	mov	rdi, rax
	call	_ZNKSt12_Vector_baseIiSaIiEE19_M_get_Tp_allocatorEv
	mov	rbx, rax
	mov	rax, QWORD PTR -56[rbp]
	mov	rdi, rax
	call	_ZNSt12_Vector_baseIiSaIiEE19_M_get_Tp_allocatorEv
	mov	rsi, rbx
	mov	rdi, rax
	call	_ZSt15__alloc_on_copyISaIiEEvRT_RKS1_
.L277:
	mov	rax, QWORD PTR -64[rbp]
	mov	rdi, rax
	call	_ZNKSt6vectorIiSaIiEE4sizeEv
	mov	QWORD PTR -48[rbp], rax
	mov	rax, QWORD PTR -56[rbp]
	mov	rdi, rax
	call	_ZNKSt6vectorIiSaIiEE8capacityEv
	cmp	QWORD PTR -48[rbp], rax
	seta	al
	test	al, al
	je	.L281
	mov	rax, QWORD PTR -64[rbp]
	mov	rdi, rax
	call	_ZNKSt6vectorIiSaIiEE3endEv
	mov	rbx, rax
	mov	rax, QWORD PTR -64[rbp]
	mov	rdi, rax
	call	_ZNKSt6vectorIiSaIiEE5beginEv
	mov	rdx, rax
	mov	rsi, QWORD PTR -48[rbp]
	mov	rax, QWORD PTR -56[rbp]
	mov	rcx, rbx
	mov	rdi, rax
	call	_ZNSt6vectorIiSaIiEE20_M_allocate_and_copyIN9__gnu_cxx17__normal_iteratorIPKiS1_EEEEPimT_S9_
	mov	QWORD PTR -40[rbp], rax
	mov	rax, QWORD PTR -56[rbp]
	mov	rdi, rax
	call	_ZNSt12_Vector_baseIiSaIiEE19_M_get_Tp_allocatorEv
	mov	rdx, rax
	mov	rax, QWORD PTR -56[rbp]
	mov	rcx, QWORD PTR 8[rax]
	mov	rax, QWORD PTR -56[rbp]
	mov	rax, QWORD PTR [rax]
	mov	rsi, rcx
	mov	rdi, rax
	call	_ZSt8_DestroyIPiiEvT_S1_RSaIT0_E
	mov	rax, QWORD PTR -56[rbp]
	mov	rdx, QWORD PTR -56[rbp]
	mov	rcx, QWORD PTR 16[rdx]
	mov	rdx, QWORD PTR -56[rbp]
	mov	rsi, QWORD PTR [rdx]
	sub	rcx, rsi
	mov	rdx, rcx
	sar	rdx, 2
	mov	rsi, rdx
	mov	rdx, QWORD PTR -56[rbp]
	mov	rcx, QWORD PTR [rdx]
	mov	rdx, rsi
	mov	rsi, rcx
	mov	rdi, rax
	call	_ZNSt12_Vector_baseIiSaIiEE13_M_deallocateEPim
	mov	rax, QWORD PTR -56[rbp]
	mov	rdx, QWORD PTR -40[rbp]
	mov	QWORD PTR [rax], rdx
	mov	rax, QWORD PTR -56[rbp]
	mov	rdx, QWORD PTR [rax]
	mov	rax, QWORD PTR -48[rbp]
	sal	rax, 2
	add	rdx, rax
	mov	rax, QWORD PTR -56[rbp]
	mov	QWORD PTR 16[rax], rdx
	jmp	.L282
.L281:
	mov	rax, QWORD PTR -56[rbp]
	mov	rdi, rax
	call	_ZNKSt6vectorIiSaIiEE4sizeEv
	cmp	QWORD PTR -48[rbp], rax
	setbe	al
	test	al, al
	je	.L283
	mov	rax, QWORD PTR -56[rbp]
	mov	rdi, rax
	call	_ZNSt12_Vector_baseIiSaIiEE19_M_get_Tp_allocatorEv
	mov	r12, rax
	mov	rax, QWORD PTR -56[rbp]
	mov	rdi, rax
	call	_ZNSt6vectorIiSaIiEE3endEv
	mov	rbx, rax
	mov	rax, QWORD PTR -56[rbp]
	mov	rdi, rax
	call	_ZNSt6vectorIiSaIiEE5beginEv
	mov	r14, rax
	mov	rax, QWORD PTR -64[rbp]
	mov	rdi, rax
	call	_ZNKSt6vectorIiSaIiEE3endEv
	mov	r13, rax
	mov	rax, QWORD PTR -64[rbp]
	mov	rdi, rax
	call	_ZNKSt6vectorIiSaIiEE5beginEv
	mov	rdx, r14
	mov	rsi, r13
	mov	rdi, rax
	call	_ZSt4copyIN9__gnu_cxx17__normal_iteratorIPKiSt6vectorIiSaIiEEEENS1_IPiS6_EEET0_T_SB_SA_
	mov	rdx, r12
	mov	rsi, rbx
	mov	rdi, rax
	call	_ZSt8_DestroyIN9__gnu_cxx17__normal_iteratorIPiSt6vectorIiSaIiEEEEiEvT_S7_RSaIT0_E
	jmp	.L282
.L283:
	mov	rax, QWORD PTR -56[rbp]
	mov	rbx, QWORD PTR [rax]
	mov	rax, QWORD PTR -64[rbp]
	mov	r12, QWORD PTR [rax]
	mov	rax, QWORD PTR -56[rbp]
	mov	rdi, rax
	call	_ZNKSt6vectorIiSaIiEE4sizeEv
	sal	rax, 2
	lea	rcx, [r12+rax]
	mov	rax, QWORD PTR -64[rbp]
	mov	rax, QWORD PTR [rax]
	mov	rdx, rbx
	mov	rsi, rcx
	mov	rdi, rax
	call	_ZSt4copyIPiS0_ET0_T_S2_S1_
	mov	rax, QWORD PTR -56[rbp]
	mov	rdi, rax
	call	_ZNSt12_Vector_baseIiSaIiEE19_M_get_Tp_allocatorEv
	mov	r13, rax
	mov	rax, QWORD PTR -56[rbp]
	mov	r12, QWORD PTR 8[rax]
	mov	rax, QWORD PTR -64[rbp]
	mov	rbx, QWORD PTR 8[rax]
	mov	rax, QWORD PTR -64[rbp]
	mov	r14, QWORD PTR [rax]
	mov	rax, QWORD PTR -56[rbp]
	mov	rdi, rax
	call	_ZNKSt6vectorIiSaIiEE4sizeEv
	sal	rax, 2
	add	rax, r14
	mov	rcx, r13
	mov	rdx, r12
	mov	rsi, rbx
	mov	rdi, rax
	call	_ZSt22__uninitialized_copy_aIPiS0_iET0_T_S2_S1_RSaIT1_E
.L282:
	mov	rax, QWORD PTR -56[rbp]
	mov	rdx, QWORD PTR [rax]
	mov	rax, QWORD PTR -48[rbp]
	sal	rax, 2
	add	rdx, rax
	mov	rax, QWORD PTR -56[rbp]
	mov	QWORD PTR 8[rax], rdx
.L276:
	mov	rax, QWORD PTR -56[rbp]
	add	rsp, 32
	pop	rbx
	pop	r12
	pop	r13
	pop	r14
	pop	rbp
	.cfi_def_cfa 7, 8
	ret
	.cfi_endproc
.LFE11479:
	.size	_ZNSt6vectorIiSaIiEEaSERKS1_, .-_ZNSt6vectorIiSaIiEEaSERKS1_
	.section	.text._ZSt11__addressofISt6vectorIiSaIiEEEPT_RS3_,"axG",@progbits,_ZSt11__addressofISt6vectorIiSaIiEEEPT_RS3_,comdat
	.weak	_ZSt11__addressofISt6vectorIiSaIiEEEPT_RS3_
	.type	_ZSt11__addressofISt6vectorIiSaIiEEEPT_RS3_, @function
_ZSt11__addressofISt6vectorIiSaIiEEEPT_RS3_:
.LFB11481:
	.cfi_startproc
	endbr64
	push	rbp
	.cfi_def_cfa_offset 16
	.cfi_offset 6, -16
	mov	rbp, rsp
	.cfi_def_cfa_register 6
	mov	QWORD PTR -8[rbp], rdi
	mov	rax, QWORD PTR -8[rbp]
	pop	rbp
	.cfi_def_cfa 7, 8
	ret
	.cfi_endproc
.LFE11481:
	.size	_ZSt11__addressofISt6vectorIiSaIiEEEPT_RS3_, .-_ZSt11__addressofISt6vectorIiSaIiEEEPT_RS3_
	.section	.text._ZSt10_ConstructISt6vectorIiSaIiEEJRKS2_EEvPT_DpOT0_,"axG",@progbits,_ZSt10_ConstructISt6vectorIiSaIiEEJRKS2_EEvPT_DpOT0_,comdat
	.weak	_ZSt10_ConstructISt6vectorIiSaIiEEJRKS2_EEvPT_DpOT0_
	.type	_ZSt10_ConstructISt6vectorIiSaIiEEJRKS2_EEvPT_DpOT0_, @function
_ZSt10_ConstructISt6vectorIiSaIiEEJRKS2_EEvPT_DpOT0_:
.LFB11482:
	.cfi_startproc
	.cfi_personality 0x9b,DW.ref.__gxx_personality_v0
	.cfi_lsda 0x1b,.LLSDA11482
	endbr64
	push	rbp
	.cfi_def_cfa_offset 16
	.cfi_offset 6, -16
	mov	rbp, rsp
	.cfi_def_cfa_register 6
	push	r13
	push	r12
	push	rbx
	sub	rsp, 24
	.cfi_offset 13, -24
	.cfi_offset 12, -32
	.cfi_offset 3, -40
	mov	QWORD PTR -40[rbp], rdi
	mov	QWORD PTR -48[rbp], rsi
	mov	rax, QWORD PTR -48[rbp]
	mov	rdi, rax
	call	_ZSt7forwardIRKSt6vectorIiSaIiEEEOT_RNSt16remove_referenceIS5_E4typeE
	mov	r13, rax
	mov	rbx, QWORD PTR -40[rbp]
	mov	rsi, rbx
	mov	edi, 24
	call	_ZnwmPv
	mov	r12, rax
	mov	rsi, r13
	mov	rdi, r12
.LEHB28:
	call	_ZNSt6vectorIiSaIiEEC1ERKS1_
.LEHE28:
	jmp	.L290
.L289:
	endbr64
	mov	r13, rax
	mov	rsi, rbx
	mov	rdi, r12
	call	_ZdlPvS_
	mov	rax, r13
	mov	rdi, rax
.LEHB29:
	call	_Unwind_Resume@PLT
.LEHE29:
.L290:
	add	rsp, 24
	pop	rbx
	pop	r12
	pop	r13
	pop	rbp
	.cfi_def_cfa 7, 8
	ret
	.cfi_endproc
.LFE11482:
	.section	.gcc_except_table
.LLSDA11482:
	.byte	0xff
	.byte	0xff
	.byte	0x1
	.uleb128 .LLSDACSE11482-.LLSDACSB11482
.LLSDACSB11482:
	.uleb128 .LEHB28-.LFB11482
	.uleb128 .LEHE28-.LEHB28
	.uleb128 .L289-.LFB11482
	.uleb128 0
	.uleb128 .LEHB29-.LFB11482
	.uleb128 .LEHE29-.LEHB29
	.uleb128 0
	.uleb128 0
.LLSDACSE11482:
	.section	.text._ZSt10_ConstructISt6vectorIiSaIiEEJRKS2_EEvPT_DpOT0_,"axG",@progbits,_ZSt10_ConstructISt6vectorIiSaIiEEJRKS2_EEvPT_DpOT0_,comdat
	.size	_ZSt10_ConstructISt6vectorIiSaIiEEJRKS2_EEvPT_DpOT0_, .-_ZSt10_ConstructISt6vectorIiSaIiEEJRKS2_EEvPT_DpOT0_
	.section	.text._ZNSt16allocator_traitsISaISt6vectorIiSaIiEEEE8max_sizeERKS3_,"axG",@progbits,_ZNSt16allocator_traitsISaISt6vectorIiSaIiEEEE8max_sizeERKS3_,comdat
	.weak	_ZNSt16allocator_traitsISaISt6vectorIiSaIiEEEE8max_sizeERKS3_
	.type	_ZNSt16allocator_traitsISaISt6vectorIiSaIiEEEE8max_sizeERKS3_, @function
_ZNSt16allocator_traitsISaISt6vectorIiSaIiEEEE8max_sizeERKS3_:
.LFB11483:
	.cfi_startproc
	endbr64
	push	rbp
	.cfi_def_cfa_offset 16
	.cfi_offset 6, -16
	mov	rbp, rsp
	.cfi_def_cfa_register 6
	sub	rsp, 16
	mov	QWORD PTR -8[rbp], rdi
	mov	rax, QWORD PTR -8[rbp]
	mov	rdi, rax
	call	_ZNK9__gnu_cxx13new_allocatorISt6vectorIiSaIiEEE8max_sizeEv
	leave
	.cfi_def_cfa 7, 8
	ret
	.cfi_endproc
.LFE11483:
	.size	_ZNSt16allocator_traitsISaISt6vectorIiSaIiEEEE8max_sizeERKS3_, .-_ZNSt16allocator_traitsISaISt6vectorIiSaIiEEEE8max_sizeERKS3_
	.section	.text._ZSt8_DestroyISt6vectorIiSaIiEEEvPT_,"axG",@progbits,_ZSt8_DestroyISt6vectorIiSaIiEEEvPT_,comdat
	.weak	_ZSt8_DestroyISt6vectorIiSaIiEEEvPT_
	.type	_ZSt8_DestroyISt6vectorIiSaIiEEEvPT_, @function
_ZSt8_DestroyISt6vectorIiSaIiEEEvPT_:
.LFB11484:
	.cfi_startproc
	endbr64
	push	rbp
	.cfi_def_cfa_offset 16
	.cfi_offset 6, -16
	mov	rbp, rsp
	.cfi_def_cfa_register 6
	sub	rsp, 16
	mov	QWORD PTR -8[rbp], rdi
	mov	rax, QWORD PTR -8[rbp]
	mov	rdi, rax
	call	_ZNSt6vectorIiSaIiEED1Ev
	nop
	leave
	.cfi_def_cfa 7, 8
	ret
	.cfi_endproc
.LFE11484:
	.size	_ZSt8_DestroyISt6vectorIiSaIiEEEvPT_, .-_ZSt8_DestroyISt6vectorIiSaIiEEEvPT_
	.section	.text._ZSt19__iterator_categoryIPiENSt15iterator_traitsIT_E17iterator_categoryERKS2_,"axG",@progbits,_ZSt19__iterator_categoryIPiENSt15iterator_traitsIT_E17iterator_categoryERKS2_,comdat
	.weak	_ZSt19__iterator_categoryIPiENSt15iterator_traitsIT_E17iterator_categoryERKS2_
	.type	_ZSt19__iterator_categoryIPiENSt15iterator_traitsIT_E17iterator_categoryERKS2_, @function
_ZSt19__iterator_categoryIPiENSt15iterator_traitsIT_E17iterator_categoryERKS2_:
.LFB11552:
	.cfi_startproc
	endbr64
	push	rbp
	.cfi_def_cfa_offset 16
	.cfi_offset 6, -16
	mov	rbp, rsp
	.cfi_def_cfa_register 6
	mov	QWORD PTR -8[rbp], rdi
	pop	rbp
	.cfi_def_cfa 7, 8
	ret
	.cfi_endproc
.LFE11552:
	.size	_ZSt19__iterator_categoryIPiENSt15iterator_traitsIT_E17iterator_categoryERKS2_, .-_ZSt19__iterator_categoryIPiENSt15iterator_traitsIT_E17iterator_categoryERKS2_
	.section	.text._ZSt10__fill_n_aIPimiET_S1_T0_RKT1_St26random_access_iterator_tag,"axG",@progbits,_ZSt10__fill_n_aIPimiET_S1_T0_RKT1_St26random_access_iterator_tag,comdat
	.weak	_ZSt10__fill_n_aIPimiET_S1_T0_RKT1_St26random_access_iterator_tag
	.type	_ZSt10__fill_n_aIPimiET_S1_T0_RKT1_St26random_access_iterator_tag, @function
_ZSt10__fill_n_aIPimiET_S1_T0_RKT1_St26random_access_iterator_tag:
.LFB11553:
	.cfi_startproc
	endbr64
	push	rbp
	.cfi_def_cfa_offset 16
	.cfi_offset 6, -16
	mov	rbp, rsp
	.cfi_def_cfa_register 6
	sub	rsp, 32
	mov	QWORD PTR -8[rbp], rdi
	mov	QWORD PTR -16[rbp], rsi
	mov	QWORD PTR -24[rbp], rdx
	cmp	QWORD PTR -16[rbp], 0
	jne	.L297
	mov	rax, QWORD PTR -8[rbp]
	jmp	.L298
.L297:
	mov	rax, QWORD PTR -16[rbp]
	lea	rdx, 0[0+rax*4]
	mov	rax, QWORD PTR -8[rbp]
	lea	rcx, [rdx+rax]
	mov	rdx, QWORD PTR -24[rbp]
	mov	rax, QWORD PTR -8[rbp]
	mov	rsi, rcx
	mov	rdi, rax
	call	_ZSt8__fill_aIPiiEvT_S1_RKT0_
	mov	rax, QWORD PTR -16[rbp]
	lea	rdx, 0[0+rax*4]
	mov	rax, QWORD PTR -8[rbp]
	add	rax, rdx
.L298:
	leave
	.cfi_def_cfa 7, 8
	ret
	.cfi_endproc
.LFE11553:
	.size	_ZSt10__fill_n_aIPimiET_S1_T0_RKT1_St26random_access_iterator_tag, .-_ZSt10__fill_n_aIPimiET_S1_T0_RKT1_St26random_access_iterator_tag
	.section	.text._ZNKSt6vectorIiSaIiEE4sizeEv,"axG",@progbits,_ZNKSt6vectorIiSaIiEE4sizeEv,comdat
	.align 2
	.weak	_ZNKSt6vectorIiSaIiEE4sizeEv
	.type	_ZNKSt6vectorIiSaIiEE4sizeEv, @function
_ZNKSt6vectorIiSaIiEE4sizeEv:
.LFB11554:
	.cfi_startproc
	endbr64
	push	rbp
	.cfi_def_cfa_offset 16
	.cfi_offset 6, -16
	mov	rbp, rsp
	.cfi_def_cfa_register 6
	mov	QWORD PTR -8[rbp], rdi
	mov	rax, QWORD PTR -8[rbp]
	mov	rdx, QWORD PTR 8[rax]
	mov	rax, QWORD PTR -8[rbp]
	mov	rcx, QWORD PTR [rax]
	mov	rax, rdx
	sub	rax, rcx
	sar	rax, 2
	pop	rbp
	.cfi_def_cfa 7, 8
	ret
	.cfi_endproc
.LFE11554:
	.size	_ZNKSt6vectorIiSaIiEE4sizeEv, .-_ZNKSt6vectorIiSaIiEE4sizeEv
	.section	.text._ZN9__gnu_cxx14__alloc_traitsISaIiEiE17_S_select_on_copyERKS1_,"axG",@progbits,_ZN9__gnu_cxx14__alloc_traitsISaIiEiE17_S_select_on_copyERKS1_,comdat
	.weak	_ZN9__gnu_cxx14__alloc_traitsISaIiEiE17_S_select_on_copyERKS1_
	.type	_ZN9__gnu_cxx14__alloc_traitsISaIiEiE17_S_select_on_copyERKS1_, @function
_ZN9__gnu_cxx14__alloc_traitsISaIiEiE17_S_select_on_copyERKS1_:
.LFB11555:
	.cfi_startproc
	endbr64
	push	rbp
	.cfi_def_cfa_offset 16
	.cfi_offset 6, -16
	mov	rbp, rsp
	.cfi_def_cfa_register 6
	sub	rsp, 32
	mov	QWORD PTR -24[rbp], rdi
	mov	QWORD PTR -32[rbp], rsi
	mov	rax, QWORD PTR fs:40
	mov	QWORD PTR -8[rbp], rax
	xor	eax, eax
	mov	rax, QWORD PTR -24[rbp]
	mov	rdx, QWORD PTR -32[rbp]
	mov	rsi, rdx
	mov	rdi, rax
	call	_ZNSt16allocator_traitsISaIiEE37select_on_container_copy_constructionERKS0_
	mov	rax, QWORD PTR -8[rbp]
	sub	rax, QWORD PTR fs:40
	je	.L303
	call	__stack_chk_fail@PLT
.L303:
	mov	rax, QWORD PTR -24[rbp]
	leave
	.cfi_def_cfa 7, 8
	ret
	.cfi_endproc
.LFE11555:
	.size	_ZN9__gnu_cxx14__alloc_traitsISaIiEiE17_S_select_on_copyERKS1_, .-_ZN9__gnu_cxx14__alloc_traitsISaIiEiE17_S_select_on_copyERKS1_
	.section	.text._ZNKSt12_Vector_baseIiSaIiEE19_M_get_Tp_allocatorEv,"axG",@progbits,_ZNKSt12_Vector_baseIiSaIiEE19_M_get_Tp_allocatorEv,comdat
	.align 2
	.weak	_ZNKSt12_Vector_baseIiSaIiEE19_M_get_Tp_allocatorEv
	.type	_ZNKSt12_Vector_baseIiSaIiEE19_M_get_Tp_allocatorEv, @function
_ZNKSt12_Vector_baseIiSaIiEE19_M_get_Tp_allocatorEv:
.LFB11556:
	.cfi_startproc
	endbr64
	push	rbp
	.cfi_def_cfa_offset 16
	.cfi_offset 6, -16
	mov	rbp, rsp
	.cfi_def_cfa_register 6
	mov	QWORD PTR -8[rbp], rdi
	mov	rax, QWORD PTR -8[rbp]
	pop	rbp
	.cfi_def_cfa 7, 8
	ret
	.cfi_endproc
.LFE11556:
	.size	_ZNKSt12_Vector_baseIiSaIiEE19_M_get_Tp_allocatorEv, .-_ZNKSt12_Vector_baseIiSaIiEE19_M_get_Tp_allocatorEv
	.section	.text._ZNKSt6vectorIiSaIiEE5beginEv,"axG",@progbits,_ZNKSt6vectorIiSaIiEE5beginEv,comdat
	.align 2
	.weak	_ZNKSt6vectorIiSaIiEE5beginEv
	.type	_ZNKSt6vectorIiSaIiEE5beginEv, @function
_ZNKSt6vectorIiSaIiEE5beginEv:
.LFB11557:
	.cfi_startproc
	endbr64
	push	rbp
	.cfi_def_cfa_offset 16
	.cfi_offset 6, -16
	mov	rbp, rsp
	.cfi_def_cfa_register 6
	sub	rsp, 32
	mov	QWORD PTR -24[rbp], rdi
	mov	rax, QWORD PTR fs:40
	mov	QWORD PTR -8[rbp], rax
	xor	eax, eax
	mov	rdx, QWORD PTR -24[rbp]
	lea	rax, -16[rbp]
	mov	rsi, rdx
	mov	rdi, rax
	call	_ZN9__gnu_cxx17__normal_iteratorIPKiSt6vectorIiSaIiEEEC1ERKS2_
	mov	rax, QWORD PTR -16[rbp]
	mov	rdx, QWORD PTR -8[rbp]
	sub	rdx, QWORD PTR fs:40
	je	.L308
	call	__stack_chk_fail@PLT
.L308:
	leave
	.cfi_def_cfa 7, 8
	ret
	.cfi_endproc
.LFE11557:
	.size	_ZNKSt6vectorIiSaIiEE5beginEv, .-_ZNKSt6vectorIiSaIiEE5beginEv
	.section	.text._ZNKSt6vectorIiSaIiEE3endEv,"axG",@progbits,_ZNKSt6vectorIiSaIiEE3endEv,comdat
	.align 2
	.weak	_ZNKSt6vectorIiSaIiEE3endEv
	.type	_ZNKSt6vectorIiSaIiEE3endEv, @function
_ZNKSt6vectorIiSaIiEE3endEv:
.LFB11558:
	.cfi_startproc
	endbr64
	push	rbp
	.cfi_def_cfa_offset 16
	.cfi_offset 6, -16
	mov	rbp, rsp
	.cfi_def_cfa_register 6
	sub	rsp, 32
	mov	QWORD PTR -24[rbp], rdi
	mov	rax, QWORD PTR fs:40
	mov	QWORD PTR -8[rbp], rax
	xor	eax, eax
	mov	rax, QWORD PTR -24[rbp]
	lea	rdx, 8[rax]
	lea	rax, -16[rbp]
	mov	rsi, rdx
	mov	rdi, rax
	call	_ZN9__gnu_cxx17__normal_iteratorIPKiSt6vectorIiSaIiEEEC1ERKS2_
	mov	rax, QWORD PTR -16[rbp]
	mov	rdx, QWORD PTR -8[rbp]
	sub	rdx, QWORD PTR fs:40
	je	.L311
	call	__stack_chk_fail@PLT
.L311:
	leave
	.cfi_def_cfa 7, 8
	ret
	.cfi_endproc
.LFE11558:
	.size	_ZNKSt6vectorIiSaIiEE3endEv, .-_ZNKSt6vectorIiSaIiEE3endEv
	.section	.text._ZSt22__uninitialized_copy_aIN9__gnu_cxx17__normal_iteratorIPKiSt6vectorIiSaIiEEEEPiiET0_T_SA_S9_RSaIT1_E,"axG",@progbits,_ZSt22__uninitialized_copy_aIN9__gnu_cxx17__normal_iteratorIPKiSt6vectorIiSaIiEEEEPiiET0_T_SA_S9_RSaIT1_E,comdat
	.weak	_ZSt22__uninitialized_copy_aIN9__gnu_cxx17__normal_iteratorIPKiSt6vectorIiSaIiEEEEPiiET0_T_SA_S9_RSaIT1_E
	.type	_ZSt22__uninitialized_copy_aIN9__gnu_cxx17__normal_iteratorIPKiSt6vectorIiSaIiEEEEPiiET0_T_SA_S9_RSaIT1_E, @function
_ZSt22__uninitialized_copy_aIN9__gnu_cxx17__normal_iteratorIPKiSt6vectorIiSaIiEEEEPiiET0_T_SA_S9_RSaIT1_E:
.LFB11559:
	.cfi_startproc
	endbr64
	push	rbp
	.cfi_def_cfa_offset 16
	.cfi_offset 6, -16
	mov	rbp, rsp
	.cfi_def_cfa_register 6
	sub	rsp, 32
	mov	QWORD PTR -8[rbp], rdi
	mov	QWORD PTR -16[rbp], rsi
	mov	QWORD PTR -24[rbp], rdx
	mov	QWORD PTR -32[rbp], rcx
	mov	rdx, QWORD PTR -24[rbp]
	mov	rcx, QWORD PTR -16[rbp]
	mov	rax, QWORD PTR -8[rbp]
	mov	rsi, rcx
	mov	rdi, rax
	call	_ZSt18uninitialized_copyIN9__gnu_cxx17__normal_iteratorIPKiSt6vectorIiSaIiEEEEPiET0_T_SA_S9_
	leave
	.cfi_def_cfa 7, 8
	ret
	.cfi_endproc
.LFE11559:
	.size	_ZSt22__uninitialized_copy_aIN9__gnu_cxx17__normal_iteratorIPKiSt6vectorIiSaIiEEEEPiiET0_T_SA_S9_RSaIT1_E, .-_ZSt22__uninitialized_copy_aIN9__gnu_cxx17__normal_iteratorIPKiSt6vectorIiSaIiEEEEPiiET0_T_SA_S9_RSaIT1_E
	.section	.text._ZStneIPSt6vectorIiSaIiEEEbRKSt13move_iteratorIT_ES8_,"axG",@progbits,_ZStneIPSt6vectorIiSaIiEEEbRKSt13move_iteratorIT_ES8_,comdat
	.weak	_ZStneIPSt6vectorIiSaIiEEEbRKSt13move_iteratorIT_ES8_
	.type	_ZStneIPSt6vectorIiSaIiEEEbRKSt13move_iteratorIT_ES8_, @function
_ZStneIPSt6vectorIiSaIiEEEbRKSt13move_iteratorIT_ES8_:
.LFB11560:
	.cfi_startproc
	endbr64
	push	rbp
	.cfi_def_cfa_offset 16
	.cfi_offset 6, -16
	mov	rbp, rsp
	.cfi_def_cfa_register 6
	sub	rsp, 16
	mov	QWORD PTR -8[rbp], rdi
	mov	QWORD PTR -16[rbp], rsi
	mov	rdx, QWORD PTR -16[rbp]
	mov	rax, QWORD PTR -8[rbp]
	mov	rsi, rdx
	mov	rdi, rax
	call	_ZSteqIPSt6vectorIiSaIiEEEbRKSt13move_iteratorIT_ES8_
	xor	eax, 1
	leave
	.cfi_def_cfa 7, 8
	ret
	.cfi_endproc
.LFE11560:
	.size	_ZStneIPSt6vectorIiSaIiEEEbRKSt13move_iteratorIT_ES8_, .-_ZStneIPSt6vectorIiSaIiEEEbRKSt13move_iteratorIT_ES8_
	.section	.text._ZNKSt13move_iteratorIPSt6vectorIiSaIiEEEdeEv,"axG",@progbits,_ZNKSt13move_iteratorIPSt6vectorIiSaIiEEEdeEv,comdat
	.align 2
	.weak	_ZNKSt13move_iteratorIPSt6vectorIiSaIiEEEdeEv
	.type	_ZNKSt13move_iteratorIPSt6vectorIiSaIiEEEdeEv, @function
_ZNKSt13move_iteratorIPSt6vectorIiSaIiEEEdeEv:
.LFB11561:
	.cfi_startproc
	endbr64
	push	rbp
	.cfi_def_cfa_offset 16
	.cfi_offset 6, -16
	mov	rbp, rsp
	.cfi_def_cfa_register 6
	mov	QWORD PTR -8[rbp], rdi
	mov	rax, QWORD PTR -8[rbp]
	mov	rax, QWORD PTR [rax]
	pop	rbp
	.cfi_def_cfa 7, 8
	ret
	.cfi_endproc
.LFE11561:
	.size	_ZNKSt13move_iteratorIPSt6vectorIiSaIiEEEdeEv, .-_ZNKSt13move_iteratorIPSt6vectorIiSaIiEEEdeEv
	.section	.text._ZNSt12_Vector_baseIiSaIiEEC2EOS1_,"axG",@progbits,_ZNSt12_Vector_baseIiSaIiEEC5EOS1_,comdat
	.align 2
	.weak	_ZNSt12_Vector_baseIiSaIiEEC2EOS1_
	.type	_ZNSt12_Vector_baseIiSaIiEEC2EOS1_, @function
_ZNSt12_Vector_baseIiSaIiEEC2EOS1_:
.LFB11565:
	.cfi_startproc
	endbr64
	push	rbp
	.cfi_def_cfa_offset 16
	.cfi_offset 6, -16
	mov	rbp, rsp
	.cfi_def_cfa_register 6
	sub	rsp, 16
	mov	QWORD PTR -8[rbp], rdi
	mov	QWORD PTR -16[rbp], rsi
	mov	rax, QWORD PTR -8[rbp]
	mov	rdx, QWORD PTR -16[rbp]
	mov	rsi, rdx
	mov	rdi, rax
	call	_ZNSt12_Vector_baseIiSaIiEE12_Vector_implC1EOS2_
	nop
	leave
	.cfi_def_cfa 7, 8
	ret
	.cfi_endproc
.LFE11565:
	.size	_ZNSt12_Vector_baseIiSaIiEEC2EOS1_, .-_ZNSt12_Vector_baseIiSaIiEEC2EOS1_
	.weak	_ZNSt12_Vector_baseIiSaIiEEC1EOS1_
	.set	_ZNSt12_Vector_baseIiSaIiEEC1EOS1_,_ZNSt12_Vector_baseIiSaIiEEC2EOS1_
	.section	.text._ZNSt6vectorIiSaIiEEC2EOS1_,"axG",@progbits,_ZNSt6vectorIiSaIiEEC5EOS1_,comdat
	.align 2
	.weak	_ZNSt6vectorIiSaIiEEC2EOS1_
	.type	_ZNSt6vectorIiSaIiEEC2EOS1_, @function
_ZNSt6vectorIiSaIiEEC2EOS1_:
.LFB11567:
	.cfi_startproc
	endbr64
	push	rbp
	.cfi_def_cfa_offset 16
	.cfi_offset 6, -16
	mov	rbp, rsp
	.cfi_def_cfa_register 6
	sub	rsp, 16
	mov	QWORD PTR -8[rbp], rdi
	mov	QWORD PTR -16[rbp], rsi
	mov	rax, QWORD PTR -8[rbp]
	mov	rdx, QWORD PTR -16[rbp]
	mov	rsi, rdx
	mov	rdi, rax
	call	_ZNSt12_Vector_baseIiSaIiEEC2EOS1_
	nop
	leave
	.cfi_def_cfa 7, 8
	ret
	.cfi_endproc
.LFE11567:
	.size	_ZNSt6vectorIiSaIiEEC2EOS1_, .-_ZNSt6vectorIiSaIiEEC2EOS1_
	.weak	_ZNSt6vectorIiSaIiEEC1EOS1_
	.set	_ZNSt6vectorIiSaIiEEC1EOS1_,_ZNSt6vectorIiSaIiEEC2EOS1_
	.section	.text._ZSt10_ConstructISt6vectorIiSaIiEEJS2_EEvPT_DpOT0_,"axG",@progbits,_ZSt10_ConstructISt6vectorIiSaIiEEJS2_EEvPT_DpOT0_,comdat
	.weak	_ZSt10_ConstructISt6vectorIiSaIiEEJS2_EEvPT_DpOT0_
	.type	_ZSt10_ConstructISt6vectorIiSaIiEEJS2_EEvPT_DpOT0_, @function
_ZSt10_ConstructISt6vectorIiSaIiEEJS2_EEvPT_DpOT0_:
.LFB11562:
	.cfi_startproc
	endbr64
	push	rbp
	.cfi_def_cfa_offset 16
	.cfi_offset 6, -16
	mov	rbp, rsp
	.cfi_def_cfa_register 6
	push	rbx
	sub	rsp, 24
	.cfi_offset 3, -24
	mov	QWORD PTR -24[rbp], rdi
	mov	QWORD PTR -32[rbp], rsi
	mov	rax, QWORD PTR -32[rbp]
	mov	rdi, rax
	call	_ZSt7forwardISt6vectorIiSaIiEEEOT_RNSt16remove_referenceIS3_E4typeE
	mov	rbx, rax
	mov	rax, QWORD PTR -24[rbp]
	mov	rsi, rax
	mov	edi, 24
	call	_ZnwmPv
	mov	rsi, rbx
	mov	rdi, rax
	call	_ZNSt6vectorIiSaIiEEC1EOS1_
	nop
	mov	rbx, QWORD PTR -8[rbp]
	leave
	.cfi_def_cfa 7, 8
	ret
	.cfi_endproc
.LFE11562:
	.size	_ZSt10_ConstructISt6vectorIiSaIiEEJS2_EEvPT_DpOT0_, .-_ZSt10_ConstructISt6vectorIiSaIiEEJS2_EEvPT_DpOT0_
	.section	.text._ZNSt20__copy_move_backwardILb1ELb0ESt26random_access_iterator_tagE13__copy_move_bIPSt6vectorIiSaIiEES6_EET0_T_S8_S7_,"axG",@progbits,_ZNSt20__copy_move_backwardILb1ELb0ESt26random_access_iterator_tagE13__copy_move_bIPSt6vectorIiSaIiEES6_EET0_T_S8_S7_,comdat
	.weak	_ZNSt20__copy_move_backwardILb1ELb0ESt26random_access_iterator_tagE13__copy_move_bIPSt6vectorIiSaIiEES6_EET0_T_S8_S7_
	.type	_ZNSt20__copy_move_backwardILb1ELb0ESt26random_access_iterator_tagE13__copy_move_bIPSt6vectorIiSaIiEES6_EET0_T_S8_S7_, @function
_ZNSt20__copy_move_backwardILb1ELb0ESt26random_access_iterator_tagE13__copy_move_bIPSt6vectorIiSaIiEES6_EET0_T_S8_S7_:
.LFB11569:
	.cfi_startproc
	endbr64
	push	rbp
	.cfi_def_cfa_offset 16
	.cfi_offset 6, -16
	mov	rbp, rsp
	.cfi_def_cfa_register 6
	sub	rsp, 48
	mov	QWORD PTR -24[rbp], rdi
	mov	QWORD PTR -32[rbp], rsi
	mov	QWORD PTR -40[rbp], rdx
	mov	rax, QWORD PTR -32[rbp]
	sub	rax, QWORD PTR -24[rbp]
	sar	rax, 3
	mov	rdx, rax
	movabs	rax, -6148914691236517205
	imul	rax, rdx
	mov	QWORD PTR -8[rbp], rax
	jmp	.L322
.L323:
	sub	QWORD PTR -32[rbp], 24
	mov	rax, QWORD PTR -32[rbp]
	mov	rdi, rax
	call	_ZSt4moveIRSt6vectorIiSaIiEEEONSt16remove_referenceIT_E4typeEOS5_
	mov	rdx, rax
	sub	QWORD PTR -40[rbp], 24
	mov	rax, QWORD PTR -40[rbp]
	mov	rsi, rdx
	mov	rdi, rax
	call	_ZNSt6vectorIiSaIiEEaSEOS1_
	sub	QWORD PTR -8[rbp], 1
.L322:
	cmp	QWORD PTR -8[rbp], 0
	jg	.L323
	mov	rax, QWORD PTR -40[rbp]
	leave
	.cfi_def_cfa 7, 8
	ret
	.cfi_endproc
.LFE11569:
	.size	_ZNSt20__copy_move_backwardILb1ELb0ESt26random_access_iterator_tagE13__copy_move_bIPSt6vectorIiSaIiEES6_EET0_T_S8_S7_, .-_ZNSt20__copy_move_backwardILb1ELb0ESt26random_access_iterator_tagE13__copy_move_bIPSt6vectorIiSaIiEES6_EET0_T_S8_S7_
	.section	.text._ZStneRKSaIiES1_,"axG",@progbits,_ZStneRKSaIiES1_,comdat
	.weak	_ZStneRKSaIiES1_
	.type	_ZStneRKSaIiES1_, @function
_ZStneRKSaIiES1_:
.LFB11570:
	.cfi_startproc
	endbr64
	push	rbp
	.cfi_def_cfa_offset 16
	.cfi_offset 6, -16
	mov	rbp, rsp
	.cfi_def_cfa_register 6
	mov	QWORD PTR -8[rbp], rdi
	mov	QWORD PTR -16[rbp], rsi
	mov	eax, 0
	pop	rbp
	.cfi_def_cfa 7, 8
	ret
	.cfi_endproc
.LFE11570:
	.size	_ZStneRKSaIiES1_, .-_ZStneRKSaIiES1_
	.section	.text._ZNSt6vectorIiSaIiEE5clearEv,"axG",@progbits,_ZNSt6vectorIiSaIiEE5clearEv,comdat
	.align 2
	.weak	_ZNSt6vectorIiSaIiEE5clearEv
	.type	_ZNSt6vectorIiSaIiEE5clearEv, @function
_ZNSt6vectorIiSaIiEE5clearEv:
.LFB11571:
	.cfi_startproc
	endbr64
	push	rbp
	.cfi_def_cfa_offset 16
	.cfi_offset 6, -16
	mov	rbp, rsp
	.cfi_def_cfa_register 6
	sub	rsp, 16
	mov	QWORD PTR -8[rbp], rdi
	mov	rax, QWORD PTR -8[rbp]
	mov	rdx, QWORD PTR [rax]
	mov	rax, QWORD PTR -8[rbp]
	mov	rsi, rdx
	mov	rdi, rax
	call	_ZNSt6vectorIiSaIiEE15_M_erase_at_endEPi
	nop
	leave
	.cfi_def_cfa 7, 8
	ret
	.cfi_endproc
.LFE11571:
	.size	_ZNSt6vectorIiSaIiEE5clearEv, .-_ZNSt6vectorIiSaIiEE5clearEv
	.section	.text._ZSt15__alloc_on_copyISaIiEEvRT_RKS1_,"axG",@progbits,_ZSt15__alloc_on_copyISaIiEEvRT_RKS1_,comdat
	.weak	_ZSt15__alloc_on_copyISaIiEEvRT_RKS1_
	.type	_ZSt15__alloc_on_copyISaIiEEvRT_RKS1_, @function
_ZSt15__alloc_on_copyISaIiEEvRT_RKS1_:
.LFB11572:
	.cfi_startproc
	endbr64
	push	rbp
	.cfi_def_cfa_offset 16
	.cfi_offset 6, -16
	mov	rbp, rsp
	.cfi_def_cfa_register 6
	mov	QWORD PTR -8[rbp], rdi
	mov	QWORD PTR -16[rbp], rsi
	nop
	pop	rbp
	.cfi_def_cfa 7, 8
	ret
	.cfi_endproc
.LFE11572:
	.size	_ZSt15__alloc_on_copyISaIiEEvRT_RKS1_, .-_ZSt15__alloc_on_copyISaIiEEvRT_RKS1_
	.section	.text._ZNKSt6vectorIiSaIiEE8capacityEv,"axG",@progbits,_ZNKSt6vectorIiSaIiEE8capacityEv,comdat
	.align 2
	.weak	_ZNKSt6vectorIiSaIiEE8capacityEv
	.type	_ZNKSt6vectorIiSaIiEE8capacityEv, @function
_ZNKSt6vectorIiSaIiEE8capacityEv:
.LFB11573:
	.cfi_startproc
	endbr64
	push	rbp
	.cfi_def_cfa_offset 16
	.cfi_offset 6, -16
	mov	rbp, rsp
	.cfi_def_cfa_register 6
	mov	QWORD PTR -8[rbp], rdi
	mov	rax, QWORD PTR -8[rbp]
	mov	rdx, QWORD PTR 16[rax]
	mov	rax, QWORD PTR -8[rbp]
	mov	rcx, QWORD PTR [rax]
	mov	rax, rdx
	sub	rax, rcx
	sar	rax, 2
	pop	rbp
	.cfi_def_cfa 7, 8
	ret
	.cfi_endproc
.LFE11573:
	.size	_ZNKSt6vectorIiSaIiEE8capacityEv, .-_ZNKSt6vectorIiSaIiEE8capacityEv
	.section	.text._ZNSt6vectorIiSaIiEE20_M_allocate_and_copyIN9__gnu_cxx17__normal_iteratorIPKiS1_EEEEPimT_S9_,"axG",@progbits,_ZNSt6vectorIiSaIiEE20_M_allocate_and_copyIN9__gnu_cxx17__normal_iteratorIPKiS1_EEEEPimT_S9_,comdat
	.align 2
	.weak	_ZNSt6vectorIiSaIiEE20_M_allocate_and_copyIN9__gnu_cxx17__normal_iteratorIPKiS1_EEEEPimT_S9_
	.type	_ZNSt6vectorIiSaIiEE20_M_allocate_and_copyIN9__gnu_cxx17__normal_iteratorIPKiS1_EEEEPimT_S9_, @function
_ZNSt6vectorIiSaIiEE20_M_allocate_and_copyIN9__gnu_cxx17__normal_iteratorIPKiS1_EEEEPimT_S9_:
.LFB11574:
	.cfi_startproc
	.cfi_personality 0x9b,DW.ref.__gxx_personality_v0
	.cfi_lsda 0x1b,.LLSDA11574
	endbr64
	push	rbp
	.cfi_def_cfa_offset 16
	.cfi_offset 6, -16
	mov	rbp, rsp
	.cfi_def_cfa_register 6
	push	rbx
	sub	rsp, 56
	.cfi_offset 3, -24
	mov	QWORD PTR -40[rbp], rdi
	mov	QWORD PTR -48[rbp], rsi
	mov	QWORD PTR -56[rbp], rdx
	mov	QWORD PTR -64[rbp], rcx
	mov	rax, QWORD PTR -40[rbp]
	mov	rdx, QWORD PTR -48[rbp]
	mov	rsi, rdx
	mov	rdi, rax
.LEHB30:
	call	_ZNSt12_Vector_baseIiSaIiEE11_M_allocateEm
.LEHE30:
	mov	QWORD PTR -24[rbp], rax
	mov	rax, QWORD PTR -40[rbp]
	mov	rdi, rax
	call	_ZNSt12_Vector_baseIiSaIiEE19_M_get_Tp_allocatorEv
	mov	rcx, rax
	mov	rdx, QWORD PTR -24[rbp]
	mov	rsi, QWORD PTR -64[rbp]
	mov	rax, QWORD PTR -56[rbp]
	mov	rdi, rax
.LEHB31:
	call	_ZSt22__uninitialized_copy_aIN9__gnu_cxx17__normal_iteratorIPKiSt6vectorIiSaIiEEEEPiiET0_T_SA_S9_RSaIT1_E
.LEHE31:
	mov	rax, QWORD PTR -24[rbp]
	jmp	.L337
.L335:
	endbr64
	mov	rdi, rax
	call	__cxa_begin_catch@PLT
	mov	rax, QWORD PTR -40[rbp]
	mov	rdx, QWORD PTR -48[rbp]
	mov	rcx, QWORD PTR -24[rbp]
	mov	rsi, rcx
	mov	rdi, rax
.LEHB32:
	call	_ZNSt12_Vector_baseIiSaIiEE13_M_deallocateEPim
	call	__cxa_rethrow@PLT
.LEHE32:
.L336:
	endbr64
	mov	rbx, rax
	call	__cxa_end_catch@PLT
	mov	rax, rbx
	mov	rdi, rax
.LEHB33:
	call	_Unwind_Resume@PLT
.LEHE33:
.L337:
	mov	rbx, QWORD PTR -8[rbp]
	leave
	.cfi_def_cfa 7, 8
	ret
	.cfi_endproc
.LFE11574:
	.section	.gcc_except_table
	.align 4
.LLSDA11574:
	.byte	0xff
	.byte	0x9b
	.uleb128 .LLSDATT11574-.LLSDATTD11574
.LLSDATTD11574:
	.byte	0x1
	.uleb128 .LLSDACSE11574-.LLSDACSB11574
.LLSDACSB11574:
	.uleb128 .LEHB30-.LFB11574
	.uleb128 .LEHE30-.LEHB30
	.uleb128 0
	.uleb128 0
	.uleb128 .LEHB31-.LFB11574
	.uleb128 .LEHE31-.LEHB31
	.uleb128 .L335-.LFB11574
	.uleb128 0x1
	.uleb128 .LEHB32-.LFB11574
	.uleb128 .LEHE32-.LEHB32
	.uleb128 .L336-.LFB11574
	.uleb128 0
	.uleb128 .LEHB33-.LFB11574
	.uleb128 .LEHE33-.LEHB33
	.uleb128 0
	.uleb128 0
.LLSDACSE11574:
	.byte	0x1
	.byte	0
	.align 4
	.long	0

.LLSDATT11574:
	.section	.text._ZNSt6vectorIiSaIiEE20_M_allocate_and_copyIN9__gnu_cxx17__normal_iteratorIPKiS1_EEEEPimT_S9_,"axG",@progbits,_ZNSt6vectorIiSaIiEE20_M_allocate_and_copyIN9__gnu_cxx17__normal_iteratorIPKiS1_EEEEPimT_S9_,comdat
	.size	_ZNSt6vectorIiSaIiEE20_M_allocate_and_copyIN9__gnu_cxx17__normal_iteratorIPKiS1_EEEEPimT_S9_, .-_ZNSt6vectorIiSaIiEE20_M_allocate_and_copyIN9__gnu_cxx17__normal_iteratorIPKiS1_EEEEPimT_S9_
	.section	.text._ZNSt6vectorIiSaIiEE5beginEv,"axG",@progbits,_ZNSt6vectorIiSaIiEE5beginEv,comdat
	.align 2
	.weak	_ZNSt6vectorIiSaIiEE5beginEv
	.type	_ZNSt6vectorIiSaIiEE5beginEv, @function
_ZNSt6vectorIiSaIiEE5beginEv:
.LFB11575:
	.cfi_startproc
	endbr64
	push	rbp
	.cfi_def_cfa_offset 16
	.cfi_offset 6, -16
	mov	rbp, rsp
	.cfi_def_cfa_register 6
	sub	rsp, 32
	mov	QWORD PTR -24[rbp], rdi
	mov	rax, QWORD PTR fs:40
	mov	QWORD PTR -8[rbp], rax
	xor	eax, eax
	mov	rdx, QWORD PTR -24[rbp]
	lea	rax, -16[rbp]
	mov	rsi, rdx
	mov	rdi, rax
	call	_ZN9__gnu_cxx17__normal_iteratorIPiSt6vectorIiSaIiEEEC1ERKS1_
	mov	rax, QWORD PTR -16[rbp]
	mov	rdx, QWORD PTR -8[rbp]
	sub	rdx, QWORD PTR fs:40
	je	.L340
	call	__stack_chk_fail@PLT
.L340:
	leave
	.cfi_def_cfa 7, 8
	ret
	.cfi_endproc
.LFE11575:
	.size	_ZNSt6vectorIiSaIiEE5beginEv, .-_ZNSt6vectorIiSaIiEE5beginEv
	.section	.text._ZSt4copyIN9__gnu_cxx17__normal_iteratorIPKiSt6vectorIiSaIiEEEENS1_IPiS6_EEET0_T_SB_SA_,"axG",@progbits,_ZSt4copyIN9__gnu_cxx17__normal_iteratorIPKiSt6vectorIiSaIiEEEENS1_IPiS6_EEET0_T_SB_SA_,comdat
	.weak	_ZSt4copyIN9__gnu_cxx17__normal_iteratorIPKiSt6vectorIiSaIiEEEENS1_IPiS6_EEET0_T_SB_SA_
	.type	_ZSt4copyIN9__gnu_cxx17__normal_iteratorIPKiSt6vectorIiSaIiEEEENS1_IPiS6_EEET0_T_SB_SA_, @function
_ZSt4copyIN9__gnu_cxx17__normal_iteratorIPKiSt6vectorIiSaIiEEEENS1_IPiS6_EEET0_T_SB_SA_:
.LFB11576:
	.cfi_startproc
	endbr64
	push	rbp
	.cfi_def_cfa_offset 16
	.cfi_offset 6, -16
	mov	rbp, rsp
	.cfi_def_cfa_register 6
	push	rbx
	sub	rsp, 40
	.cfi_offset 3, -24
	mov	QWORD PTR -24[rbp], rdi
	mov	QWORD PTR -32[rbp], rsi
	mov	QWORD PTR -40[rbp], rdx
	mov	rax, QWORD PTR -32[rbp]
	mov	rdi, rax
	call	_ZSt12__miter_baseIN9__gnu_cxx17__normal_iteratorIPKiSt6vectorIiSaIiEEEEET_S8_
	mov	rbx, rax
	mov	rax, QWORD PTR -24[rbp]
	mov	rdi, rax
	call	_ZSt12__miter_baseIN9__gnu_cxx17__normal_iteratorIPKiSt6vectorIiSaIiEEEEET_S8_
	mov	rcx, rax
	mov	rax, QWORD PTR -40[rbp]
	mov	rdx, rax
	mov	rsi, rbx
	mov	rdi, rcx
	call	_ZSt13__copy_move_aILb0EN9__gnu_cxx17__normal_iteratorIPKiSt6vectorIiSaIiEEEENS1_IPiS6_EEET1_T0_SB_SA_
	mov	rbx, QWORD PTR -8[rbp]
	leave
	.cfi_def_cfa 7, 8
	ret
	.cfi_endproc
.LFE11576:
	.size	_ZSt4copyIN9__gnu_cxx17__normal_iteratorIPKiSt6vectorIiSaIiEEEENS1_IPiS6_EEET0_T_SB_SA_, .-_ZSt4copyIN9__gnu_cxx17__normal_iteratorIPKiSt6vectorIiSaIiEEEENS1_IPiS6_EEET0_T_SB_SA_
	.section	.text._ZNSt6vectorIiSaIiEE3endEv,"axG",@progbits,_ZNSt6vectorIiSaIiEE3endEv,comdat
	.align 2
	.weak	_ZNSt6vectorIiSaIiEE3endEv
	.type	_ZNSt6vectorIiSaIiEE3endEv, @function
_ZNSt6vectorIiSaIiEE3endEv:
.LFB11577:
	.cfi_startproc
	endbr64
	push	rbp
	.cfi_def_cfa_offset 16
	.cfi_offset 6, -16
	mov	rbp, rsp
	.cfi_def_cfa_register 6
	sub	rsp, 32
	mov	QWORD PTR -24[rbp], rdi
	mov	rax, QWORD PTR fs:40
	mov	QWORD PTR -8[rbp], rax
	xor	eax, eax
	mov	rax, QWORD PTR -24[rbp]
	lea	rdx, 8[rax]
	lea	rax, -16[rbp]
	mov	rsi, rdx
	mov	rdi, rax
	call	_ZN9__gnu_cxx17__normal_iteratorIPiSt6vectorIiSaIiEEEC1ERKS1_
	mov	rax, QWORD PTR -16[rbp]
	mov	rdx, QWORD PTR -8[rbp]
	sub	rdx, QWORD PTR fs:40
	je	.L345
	call	__stack_chk_fail@PLT
.L345:
	leave
	.cfi_def_cfa 7, 8
	ret
	.cfi_endproc
.LFE11577:
	.size	_ZNSt6vectorIiSaIiEE3endEv, .-_ZNSt6vectorIiSaIiEE3endEv
	.section	.text._ZSt8_DestroyIN9__gnu_cxx17__normal_iteratorIPiSt6vectorIiSaIiEEEEiEvT_S7_RSaIT0_E,"axG",@progbits,_ZSt8_DestroyIN9__gnu_cxx17__normal_iteratorIPiSt6vectorIiSaIiEEEEiEvT_S7_RSaIT0_E,comdat
	.weak	_ZSt8_DestroyIN9__gnu_cxx17__normal_iteratorIPiSt6vectorIiSaIiEEEEiEvT_S7_RSaIT0_E
	.type	_ZSt8_DestroyIN9__gnu_cxx17__normal_iteratorIPiSt6vectorIiSaIiEEEEiEvT_S7_RSaIT0_E, @function
_ZSt8_DestroyIN9__gnu_cxx17__normal_iteratorIPiSt6vectorIiSaIiEEEEiEvT_S7_RSaIT0_E:
.LFB11578:
	.cfi_startproc
	endbr64
	push	rbp
	.cfi_def_cfa_offset 16
	.cfi_offset 6, -16
	mov	rbp, rsp
	.cfi_def_cfa_register 6
	sub	rsp, 32
	mov	QWORD PTR -8[rbp], rdi
	mov	QWORD PTR -16[rbp], rsi
	mov	QWORD PTR -24[rbp], rdx
	mov	rdx, QWORD PTR -16[rbp]
	mov	rax, QWORD PTR -8[rbp]
	mov	rsi, rdx
	mov	rdi, rax
	call	_ZSt8_DestroyIN9__gnu_cxx17__normal_iteratorIPiSt6vectorIiSaIiEEEEEvT_S7_
	nop
	leave
	.cfi_def_cfa 7, 8
	ret
	.cfi_endproc
.LFE11578:
	.size	_ZSt8_DestroyIN9__gnu_cxx17__normal_iteratorIPiSt6vectorIiSaIiEEEEiEvT_S7_RSaIT0_E, .-_ZSt8_DestroyIN9__gnu_cxx17__normal_iteratorIPiSt6vectorIiSaIiEEEEiEvT_S7_RSaIT0_E
	.section	.text._ZSt4copyIPiS0_ET0_T_S2_S1_,"axG",@progbits,_ZSt4copyIPiS0_ET0_T_S2_S1_,comdat
	.weak	_ZSt4copyIPiS0_ET0_T_S2_S1_
	.type	_ZSt4copyIPiS0_ET0_T_S2_S1_, @function
_ZSt4copyIPiS0_ET0_T_S2_S1_:
.LFB11579:
	.cfi_startproc
	endbr64
	push	rbp
	.cfi_def_cfa_offset 16
	.cfi_offset 6, -16
	mov	rbp, rsp
	.cfi_def_cfa_register 6
	push	rbx
	sub	rsp, 40
	.cfi_offset 3, -24
	mov	QWORD PTR -24[rbp], rdi
	mov	QWORD PTR -32[rbp], rsi
	mov	QWORD PTR -40[rbp], rdx
	mov	rax, QWORD PTR -32[rbp]
	mov	rdi, rax
	call	_ZSt12__miter_baseIPiET_S1_
	mov	rbx, rax
	mov	rax, QWORD PTR -24[rbp]
	mov	rdi, rax
	call	_ZSt12__miter_baseIPiET_S1_
	mov	rcx, rax
	mov	rax, QWORD PTR -40[rbp]
	mov	rdx, rax
	mov	rsi, rbx
	mov	rdi, rcx
	call	_ZSt13__copy_move_aILb0EPiS0_ET1_T0_S2_S1_
	mov	rbx, QWORD PTR -8[rbp]
	leave
	.cfi_def_cfa 7, 8
	ret
	.cfi_endproc
.LFE11579:
	.size	_ZSt4copyIPiS0_ET0_T_S2_S1_, .-_ZSt4copyIPiS0_ET0_T_S2_S1_
	.section	.text._ZSt22__uninitialized_copy_aIPiS0_iET0_T_S2_S1_RSaIT1_E,"axG",@progbits,_ZSt22__uninitialized_copy_aIPiS0_iET0_T_S2_S1_RSaIT1_E,comdat
	.weak	_ZSt22__uninitialized_copy_aIPiS0_iET0_T_S2_S1_RSaIT1_E
	.type	_ZSt22__uninitialized_copy_aIPiS0_iET0_T_S2_S1_RSaIT1_E, @function
_ZSt22__uninitialized_copy_aIPiS0_iET0_T_S2_S1_RSaIT1_E:
.LFB11580:
	.cfi_startproc
	endbr64
	push	rbp
	.cfi_def_cfa_offset 16
	.cfi_offset 6, -16
	mov	rbp, rsp
	.cfi_def_cfa_register 6
	sub	rsp, 32
	mov	QWORD PTR -8[rbp], rdi
	mov	QWORD PTR -16[rbp], rsi
	mov	QWORD PTR -24[rbp], rdx
	mov	QWORD PTR -32[rbp], rcx
	mov	rdx, QWORD PTR -24[rbp]
	mov	rcx, QWORD PTR -16[rbp]
	mov	rax, QWORD PTR -8[rbp]
	mov	rsi, rcx
	mov	rdi, rax
	call	_ZSt18uninitialized_copyIPiS0_ET0_T_S2_S1_
	leave
	.cfi_def_cfa 7, 8
	ret
	.cfi_endproc
.LFE11580:
	.size	_ZSt22__uninitialized_copy_aIPiS0_iET0_T_S2_S1_RSaIT1_E, .-_ZSt22__uninitialized_copy_aIPiS0_iET0_T_S2_S1_RSaIT1_E
	.section	.text._ZNK9__gnu_cxx13new_allocatorISt6vectorIiSaIiEEE8max_sizeEv,"axG",@progbits,_ZNK9__gnu_cxx13new_allocatorISt6vectorIiSaIiEEE8max_sizeEv,comdat
	.align 2
	.weak	_ZNK9__gnu_cxx13new_allocatorISt6vectorIiSaIiEEE8max_sizeEv
	.type	_ZNK9__gnu_cxx13new_allocatorISt6vectorIiSaIiEEE8max_sizeEv, @function
_ZNK9__gnu_cxx13new_allocatorISt6vectorIiSaIiEEE8max_sizeEv:
.LFB11581:
	.cfi_startproc
	endbr64
	push	rbp
	.cfi_def_cfa_offset 16
	.cfi_offset 6, -16
	mov	rbp, rsp
	.cfi_def_cfa_register 6
	sub	rsp, 16
	mov	QWORD PTR -8[rbp], rdi
	mov	rax, QWORD PTR -8[rbp]
	mov	rdi, rax
	call	_ZNK9__gnu_cxx13new_allocatorISt6vectorIiSaIiEEE11_M_max_sizeEv
	leave
	.cfi_def_cfa 7, 8
	ret
	.cfi_endproc
.LFE11581:
	.size	_ZNK9__gnu_cxx13new_allocatorISt6vectorIiSaIiEEE8max_sizeEv, .-_ZNK9__gnu_cxx13new_allocatorISt6vectorIiSaIiEEE8max_sizeEv
	.section	.text._ZSt8__fill_aIPiiEvT_S1_RKT0_,"axG",@progbits,_ZSt8__fill_aIPiiEvT_S1_RKT0_,comdat
	.weak	_ZSt8__fill_aIPiiEvT_S1_RKT0_
	.type	_ZSt8__fill_aIPiiEvT_S1_RKT0_, @function
_ZSt8__fill_aIPiiEvT_S1_RKT0_:
.LFB11611:
	.cfi_startproc
	endbr64
	push	rbp
	.cfi_def_cfa_offset 16
	.cfi_offset 6, -16
	mov	rbp, rsp
	.cfi_def_cfa_register 6
	sub	rsp, 32
	mov	QWORD PTR -8[rbp], rdi
	mov	QWORD PTR -16[rbp], rsi
	mov	QWORD PTR -24[rbp], rdx
	mov	rdx, QWORD PTR -24[rbp]
	mov	rcx, QWORD PTR -16[rbp]
	mov	rax, QWORD PTR -8[rbp]
	mov	rsi, rcx
	mov	rdi, rax
	call	_ZSt9__fill_a1IPiiEN9__gnu_cxx11__enable_ifIXsrSt11__is_scalarIT0_E7__valueEvE6__typeET_S8_RKS4_
	nop
	leave
	.cfi_def_cfa 7, 8
	ret
	.cfi_endproc
.LFE11611:
	.size	_ZSt8__fill_aIPiiEvT_S1_RKT0_, .-_ZSt8__fill_aIPiiEvT_S1_RKT0_
	.section	.text._ZNSt16allocator_traitsISaIiEE37select_on_container_copy_constructionERKS0_,"axG",@progbits,_ZNSt16allocator_traitsISaIiEE37select_on_container_copy_constructionERKS0_,comdat
	.weak	_ZNSt16allocator_traitsISaIiEE37select_on_container_copy_constructionERKS0_
	.type	_ZNSt16allocator_traitsISaIiEE37select_on_container_copy_constructionERKS0_, @function
_ZNSt16allocator_traitsISaIiEE37select_on_container_copy_constructionERKS0_:
.LFB11612:
	.cfi_startproc
	endbr64
	push	rbp
	.cfi_def_cfa_offset 16
	.cfi_offset 6, -16
	mov	rbp, rsp
	.cfi_def_cfa_register 6
	sub	rsp, 16
	mov	QWORD PTR -8[rbp], rdi
	mov	QWORD PTR -16[rbp], rsi
	mov	rdx, QWORD PTR -16[rbp]
	mov	rax, QWORD PTR -8[rbp]
	mov	rsi, rdx
	mov	rdi, rax
	call	_ZNSaIiEC1ERKS_
	mov	rax, QWORD PTR -8[rbp]
	leave
	.cfi_def_cfa 7, 8
	ret
	.cfi_endproc
.LFE11612:
	.size	_ZNSt16allocator_traitsISaIiEE37select_on_container_copy_constructionERKS0_, .-_ZNSt16allocator_traitsISaIiEE37select_on_container_copy_constructionERKS0_
	.section	.text._ZN9__gnu_cxx17__normal_iteratorIPKiSt6vectorIiSaIiEEEC2ERKS2_,"axG",@progbits,_ZN9__gnu_cxx17__normal_iteratorIPKiSt6vectorIiSaIiEEEC5ERKS2_,comdat
	.align 2
	.weak	_ZN9__gnu_cxx17__normal_iteratorIPKiSt6vectorIiSaIiEEEC2ERKS2_
	.type	_ZN9__gnu_cxx17__normal_iteratorIPKiSt6vectorIiSaIiEEEC2ERKS2_, @function
_ZN9__gnu_cxx17__normal_iteratorIPKiSt6vectorIiSaIiEEEC2ERKS2_:
.LFB11614:
	.cfi_startproc
	endbr64
	push	rbp
	.cfi_def_cfa_offset 16
	.cfi_offset 6, -16
	mov	rbp, rsp
	.cfi_def_cfa_register 6
	mov	QWORD PTR -8[rbp], rdi
	mov	QWORD PTR -16[rbp], rsi
	mov	rax, QWORD PTR -16[rbp]
	mov	rdx, QWORD PTR [rax]
	mov	rax, QWORD PTR -8[rbp]
	mov	QWORD PTR [rax], rdx
	nop
	pop	rbp
	.cfi_def_cfa 7, 8
	ret
	.cfi_endproc
.LFE11614:
	.size	_ZN9__gnu_cxx17__normal_iteratorIPKiSt6vectorIiSaIiEEEC2ERKS2_, .-_ZN9__gnu_cxx17__normal_iteratorIPKiSt6vectorIiSaIiEEEC2ERKS2_
	.weak	_ZN9__gnu_cxx17__normal_iteratorIPKiSt6vectorIiSaIiEEEC1ERKS2_
	.set	_ZN9__gnu_cxx17__normal_iteratorIPKiSt6vectorIiSaIiEEEC1ERKS2_,_ZN9__gnu_cxx17__normal_iteratorIPKiSt6vectorIiSaIiEEEC2ERKS2_
	.section	.text._ZSt18uninitialized_copyIN9__gnu_cxx17__normal_iteratorIPKiSt6vectorIiSaIiEEEEPiET0_T_SA_S9_,"axG",@progbits,_ZSt18uninitialized_copyIN9__gnu_cxx17__normal_iteratorIPKiSt6vectorIiSaIiEEEEPiET0_T_SA_S9_,comdat
	.weak	_ZSt18uninitialized_copyIN9__gnu_cxx17__normal_iteratorIPKiSt6vectorIiSaIiEEEEPiET0_T_SA_S9_
	.type	_ZSt18uninitialized_copyIN9__gnu_cxx17__normal_iteratorIPKiSt6vectorIiSaIiEEEEPiET0_T_SA_S9_, @function
_ZSt18uninitialized_copyIN9__gnu_cxx17__normal_iteratorIPKiSt6vectorIiSaIiEEEEPiET0_T_SA_S9_:
.LFB11616:
	.cfi_startproc
	endbr64
	push	rbp
	.cfi_def_cfa_offset 16
	.cfi_offset 6, -16
	mov	rbp, rsp
	.cfi_def_cfa_register 6
	sub	rsp, 48
	mov	QWORD PTR -24[rbp], rdi
	mov	QWORD PTR -32[rbp], rsi
	mov	QWORD PTR -40[rbp], rdx
	mov	BYTE PTR -1[rbp], 1
	mov	rdx, QWORD PTR -40[rbp]
	mov	rcx, QWORD PTR -32[rbp]
	mov	rax, QWORD PTR -24[rbp]
	mov	rsi, rcx
	mov	rdi, rax
	call	_ZNSt20__uninitialized_copyILb1EE13__uninit_copyIN9__gnu_cxx17__normal_iteratorIPKiSt6vectorIiSaIiEEEEPiEET0_T_SC_SB_
	leave
	.cfi_def_cfa 7, 8
	ret
	.cfi_endproc
.LFE11616:
	.size	_ZSt18uninitialized_copyIN9__gnu_cxx17__normal_iteratorIPKiSt6vectorIiSaIiEEEEPiET0_T_SA_S9_, .-_ZSt18uninitialized_copyIN9__gnu_cxx17__normal_iteratorIPKiSt6vectorIiSaIiEEEEPiET0_T_SA_S9_
	.section	.text._ZNKSt13move_iteratorIPSt6vectorIiSaIiEEE4baseEv,"axG",@progbits,_ZNKSt13move_iteratorIPSt6vectorIiSaIiEEE4baseEv,comdat
	.align 2
	.weak	_ZNKSt13move_iteratorIPSt6vectorIiSaIiEEE4baseEv
	.type	_ZNKSt13move_iteratorIPSt6vectorIiSaIiEEE4baseEv, @function
_ZNKSt13move_iteratorIPSt6vectorIiSaIiEEE4baseEv:
.LFB11619:
	.cfi_startproc
	endbr64
	push	rbp
	.cfi_def_cfa_offset 16
	.cfi_offset 6, -16
	mov	rbp, rsp
	.cfi_def_cfa_register 6
	mov	QWORD PTR -8[rbp], rdi
	mov	rax, QWORD PTR -8[rbp]
	mov	rax, QWORD PTR [rax]
	pop	rbp
	.cfi_def_cfa 7, 8
	ret
	.cfi_endproc
.LFE11619:
	.size	_ZNKSt13move_iteratorIPSt6vectorIiSaIiEEE4baseEv, .-_ZNKSt13move_iteratorIPSt6vectorIiSaIiEEE4baseEv
	.section	.text._ZSteqIPSt6vectorIiSaIiEEEbRKSt13move_iteratorIT_ES8_,"axG",@progbits,_ZSteqIPSt6vectorIiSaIiEEEbRKSt13move_iteratorIT_ES8_,comdat
	.weak	_ZSteqIPSt6vectorIiSaIiEEEbRKSt13move_iteratorIT_ES8_
	.type	_ZSteqIPSt6vectorIiSaIiEEEbRKSt13move_iteratorIT_ES8_, @function
_ZSteqIPSt6vectorIiSaIiEEEbRKSt13move_iteratorIT_ES8_:
.LFB11618:
	.cfi_startproc
	endbr64
	push	rbp
	.cfi_def_cfa_offset 16
	.cfi_offset 6, -16
	mov	rbp, rsp
	.cfi_def_cfa_register 6
	push	rbx
	sub	rsp, 24
	.cfi_offset 3, -24
	mov	QWORD PTR -24[rbp], rdi
	mov	QWORD PTR -32[rbp], rsi
	mov	rax, QWORD PTR -24[rbp]
	mov	rdi, rax
	call	_ZNKSt13move_iteratorIPSt6vectorIiSaIiEEE4baseEv
	mov	rbx, rax
	mov	rax, QWORD PTR -32[rbp]
	mov	rdi, rax
	call	_ZNKSt13move_iteratorIPSt6vectorIiSaIiEEE4baseEv
	cmp	rbx, rax
	sete	al
	mov	rbx, QWORD PTR -8[rbp]
	leave
	.cfi_def_cfa 7, 8
	ret
	.cfi_endproc
.LFE11618:
	.size	_ZSteqIPSt6vectorIiSaIiEEEbRKSt13move_iteratorIT_ES8_, .-_ZSteqIPSt6vectorIiSaIiEEEbRKSt13move_iteratorIT_ES8_
	.section	.text._ZSt7forwardISt6vectorIiSaIiEEEOT_RNSt16remove_referenceIS3_E4typeE,"axG",@progbits,_ZSt7forwardISt6vectorIiSaIiEEEOT_RNSt16remove_referenceIS3_E4typeE,comdat
	.weak	_ZSt7forwardISt6vectorIiSaIiEEEOT_RNSt16remove_referenceIS3_E4typeE
	.type	_ZSt7forwardISt6vectorIiSaIiEEEOT_RNSt16remove_referenceIS3_E4typeE, @function
_ZSt7forwardISt6vectorIiSaIiEEEOT_RNSt16remove_referenceIS3_E4typeE:
.LFB11620:
	.cfi_startproc
	endbr64
	push	rbp
	.cfi_def_cfa_offset 16
	.cfi_offset 6, -16
	mov	rbp, rsp
	.cfi_def_cfa_register 6
	mov	QWORD PTR -8[rbp], rdi
	mov	rax, QWORD PTR -8[rbp]
	pop	rbp
	.cfi_def_cfa 7, 8
	ret
	.cfi_endproc
.LFE11620:
	.size	_ZSt7forwardISt6vectorIiSaIiEEEOT_RNSt16remove_referenceIS3_E4typeE, .-_ZSt7forwardISt6vectorIiSaIiEEEOT_RNSt16remove_referenceIS3_E4typeE
	.section	.text._ZNSt12_Vector_baseIiSaIiEE12_Vector_implC2EOS2_,"axG",@progbits,_ZNSt12_Vector_baseIiSaIiEE12_Vector_implC5EOS2_,comdat
	.align 2
	.weak	_ZNSt12_Vector_baseIiSaIiEE12_Vector_implC2EOS2_
	.type	_ZNSt12_Vector_baseIiSaIiEE12_Vector_implC2EOS2_, @function
_ZNSt12_Vector_baseIiSaIiEE12_Vector_implC2EOS2_:
.LFB11622:
	.cfi_startproc
	endbr64
	push	rbp
	.cfi_def_cfa_offset 16
	.cfi_offset 6, -16
	mov	rbp, rsp
	.cfi_def_cfa_register 6
	push	rbx
	sub	rsp, 24
	.cfi_offset 3, -24
	mov	QWORD PTR -24[rbp], rdi
	mov	QWORD PTR -32[rbp], rsi
	mov	rax, QWORD PTR -32[rbp]
	mov	rdi, rax
	call	_ZSt4moveIRNSt12_Vector_baseIiSaIiEE12_Vector_implEEONSt16remove_referenceIT_E4typeEOS6_
	mov	rdx, rax
	mov	rax, QWORD PTR -24[rbp]
	mov	rsi, rdx
	mov	rdi, rax
	call	_ZNSaIiEC2ERKS_
	mov	rbx, QWORD PTR -24[rbp]
	mov	rax, QWORD PTR -32[rbp]
	mov	rdi, rax
	call	_ZSt4moveIRNSt12_Vector_baseIiSaIiEE12_Vector_implEEONSt16remove_referenceIT_E4typeEOS6_
	mov	rsi, rax
	mov	rdi, rbx
	call	_ZNSt12_Vector_baseIiSaIiEE17_Vector_impl_dataC2EOS2_
	nop
	mov	rbx, QWORD PTR -8[rbp]
	leave
	.cfi_def_cfa 7, 8
	ret
	.cfi_endproc
.LFE11622:
	.size	_ZNSt12_Vector_baseIiSaIiEE12_Vector_implC2EOS2_, .-_ZNSt12_Vector_baseIiSaIiEE12_Vector_implC2EOS2_
	.weak	_ZNSt12_Vector_baseIiSaIiEE12_Vector_implC1EOS2_
	.set	_ZNSt12_Vector_baseIiSaIiEE12_Vector_implC1EOS2_,_ZNSt12_Vector_baseIiSaIiEE12_Vector_implC2EOS2_
	.section	.text._ZSt4moveIRSt6vectorIiSaIiEEEONSt16remove_referenceIT_E4typeEOS5_,"axG",@progbits,_ZSt4moveIRSt6vectorIiSaIiEEEONSt16remove_referenceIT_E4typeEOS5_,comdat
	.weak	_ZSt4moveIRSt6vectorIiSaIiEEEONSt16remove_referenceIT_E4typeEOS5_
	.type	_ZSt4moveIRSt6vectorIiSaIiEEEONSt16remove_referenceIT_E4typeEOS5_, @function
_ZSt4moveIRSt6vectorIiSaIiEEEONSt16remove_referenceIT_E4typeEOS5_:
.LFB11624:
	.cfi_startproc
	endbr64
	push	rbp
	.cfi_def_cfa_offset 16
	.cfi_offset 6, -16
	mov	rbp, rsp
	.cfi_def_cfa_register 6
	mov	QWORD PTR -8[rbp], rdi
	mov	rax, QWORD PTR -8[rbp]
	pop	rbp
	.cfi_def_cfa 7, 8
	ret
	.cfi_endproc
.LFE11624:
	.size	_ZSt4moveIRSt6vectorIiSaIiEEEONSt16remove_referenceIT_E4typeEOS5_, .-_ZSt4moveIRSt6vectorIiSaIiEEEONSt16remove_referenceIT_E4typeEOS5_
	.section	.text._ZNSt6vectorIiSaIiEEaSEOS1_,"axG",@progbits,_ZNSt6vectorIiSaIiEEaSEOS1_,comdat
	.align 2
	.weak	_ZNSt6vectorIiSaIiEEaSEOS1_
	.type	_ZNSt6vectorIiSaIiEEaSEOS1_, @function
_ZNSt6vectorIiSaIiEEaSEOS1_:
.LFB11625:
	.cfi_startproc
	endbr64
	push	rbp
	.cfi_def_cfa_offset 16
	.cfi_offset 6, -16
	mov	rbp, rsp
	.cfi_def_cfa_register 6
	sub	rsp, 32
	mov	QWORD PTR -24[rbp], rdi
	mov	QWORD PTR -32[rbp], rsi
	mov	BYTE PTR -1[rbp], 1
	mov	rax, QWORD PTR -32[rbp]
	mov	rdi, rax
	call	_ZSt4moveIRSt6vectorIiSaIiEEEONSt16remove_referenceIT_E4typeEOS5_
	mov	rdx, rax
	mov	rax, QWORD PTR -24[rbp]
	mov	rsi, rdx
	mov	rdi, rax
	call	_ZNSt6vectorIiSaIiEE14_M_move_assignEOS1_St17integral_constantIbLb1EE
	mov	rax, QWORD PTR -24[rbp]
	leave
	.cfi_def_cfa 7, 8
	ret
	.cfi_endproc
.LFE11625:
	.size	_ZNSt6vectorIiSaIiEEaSEOS1_, .-_ZNSt6vectorIiSaIiEEaSEOS1_
	.section	.text._ZNSt6vectorIiSaIiEE15_M_erase_at_endEPi,"axG",@progbits,_ZNSt6vectorIiSaIiEE15_M_erase_at_endEPi,comdat
	.align 2
	.weak	_ZNSt6vectorIiSaIiEE15_M_erase_at_endEPi
	.type	_ZNSt6vectorIiSaIiEE15_M_erase_at_endEPi, @function
_ZNSt6vectorIiSaIiEE15_M_erase_at_endEPi:
.LFB11626:
	.cfi_startproc
	.cfi_personality 0x9b,DW.ref.__gxx_personality_v0
	.cfi_lsda 0x1b,.LLSDA11626
	endbr64
	push	rbp
	.cfi_def_cfa_offset 16
	.cfi_offset 6, -16
	mov	rbp, rsp
	.cfi_def_cfa_register 6
	sub	rsp, 32
	mov	QWORD PTR -24[rbp], rdi
	mov	QWORD PTR -32[rbp], rsi
	mov	rax, QWORD PTR -24[rbp]
	mov	rax, QWORD PTR 8[rax]
	sub	rax, QWORD PTR -32[rbp]
	sar	rax, 2
	mov	QWORD PTR -8[rbp], rax
	cmp	QWORD PTR -8[rbp], 0
	je	.L372
	mov	rax, QWORD PTR -24[rbp]
	mov	rdi, rax
	call	_ZNSt12_Vector_baseIiSaIiEE19_M_get_Tp_allocatorEv
	mov	rdx, rax
	mov	rax, QWORD PTR -24[rbp]
	mov	rcx, QWORD PTR 8[rax]
	mov	rax, QWORD PTR -32[rbp]
	mov	rsi, rcx
	mov	rdi, rax
	call	_ZSt8_DestroyIPiiEvT_S1_RSaIT0_E
	mov	rax, QWORD PTR -24[rbp]
	mov	rdx, QWORD PTR -32[rbp]
	mov	QWORD PTR 8[rax], rdx
.L372:
	nop
	leave
	.cfi_def_cfa 7, 8
	ret
	.cfi_endproc
.LFE11626:
	.section	.gcc_except_table
.LLSDA11626:
	.byte	0xff
	.byte	0xff
	.byte	0x1
	.uleb128 .LLSDACSE11626-.LLSDACSB11626
.LLSDACSB11626:
.LLSDACSE11626:
	.section	.text._ZNSt6vectorIiSaIiEE15_M_erase_at_endEPi,"axG",@progbits,_ZNSt6vectorIiSaIiEE15_M_erase_at_endEPi,comdat
	.size	_ZNSt6vectorIiSaIiEE15_M_erase_at_endEPi, .-_ZNSt6vectorIiSaIiEE15_M_erase_at_endEPi
	.section	.text._ZN9__gnu_cxx17__normal_iteratorIPiSt6vectorIiSaIiEEEC2ERKS1_,"axG",@progbits,_ZN9__gnu_cxx17__normal_iteratorIPiSt6vectorIiSaIiEEEC5ERKS1_,comdat
	.align 2
	.weak	_ZN9__gnu_cxx17__normal_iteratorIPiSt6vectorIiSaIiEEEC2ERKS1_
	.type	_ZN9__gnu_cxx17__normal_iteratorIPiSt6vectorIiSaIiEEEC2ERKS1_, @function
_ZN9__gnu_cxx17__normal_iteratorIPiSt6vectorIiSaIiEEEC2ERKS1_:
.LFB11628:
	.cfi_startproc
	endbr64
	push	rbp
	.cfi_def_cfa_offset 16
	.cfi_offset 6, -16
	mov	rbp, rsp
	.cfi_def_cfa_register 6
	mov	QWORD PTR -8[rbp], rdi
	mov	QWORD PTR -16[rbp], rsi
	mov	rax, QWORD PTR -16[rbp]
	mov	rdx, QWORD PTR [rax]
	mov	rax, QWORD PTR -8[rbp]
	mov	QWORD PTR [rax], rdx
	nop
	pop	rbp
	.cfi_def_cfa 7, 8
	ret
	.cfi_endproc
.LFE11628:
	.size	_ZN9__gnu_cxx17__normal_iteratorIPiSt6vectorIiSaIiEEEC2ERKS1_, .-_ZN9__gnu_cxx17__normal_iteratorIPiSt6vectorIiSaIiEEEC2ERKS1_
	.weak	_ZN9__gnu_cxx17__normal_iteratorIPiSt6vectorIiSaIiEEEC1ERKS1_
	.set	_ZN9__gnu_cxx17__normal_iteratorIPiSt6vectorIiSaIiEEEC1ERKS1_,_ZN9__gnu_cxx17__normal_iteratorIPiSt6vectorIiSaIiEEEC2ERKS1_
	.section	.text._ZSt12__miter_baseIN9__gnu_cxx17__normal_iteratorIPKiSt6vectorIiSaIiEEEEET_S8_,"axG",@progbits,_ZSt12__miter_baseIN9__gnu_cxx17__normal_iteratorIPKiSt6vectorIiSaIiEEEEET_S8_,comdat
	.weak	_ZSt12__miter_baseIN9__gnu_cxx17__normal_iteratorIPKiSt6vectorIiSaIiEEEEET_S8_
	.type	_ZSt12__miter_baseIN9__gnu_cxx17__normal_iteratorIPKiSt6vectorIiSaIiEEEEET_S8_, @function
_ZSt12__miter_baseIN9__gnu_cxx17__normal_iteratorIPKiSt6vectorIiSaIiEEEEET_S8_:
.LFB11630:
	.cfi_startproc
	endbr64
	push	rbp
	.cfi_def_cfa_offset 16
	.cfi_offset 6, -16
	mov	rbp, rsp
	.cfi_def_cfa_register 6
	mov	QWORD PTR -8[rbp], rdi
	mov	rax, QWORD PTR -8[rbp]
	pop	rbp
	.cfi_def_cfa 7, 8
	ret
	.cfi_endproc
.LFE11630:
	.size	_ZSt12__miter_baseIN9__gnu_cxx17__normal_iteratorIPKiSt6vectorIiSaIiEEEEET_S8_, .-_ZSt12__miter_baseIN9__gnu_cxx17__normal_iteratorIPKiSt6vectorIiSaIiEEEEET_S8_
	.section	.text._ZSt13__copy_move_aILb0EN9__gnu_cxx17__normal_iteratorIPKiSt6vectorIiSaIiEEEENS1_IPiS6_EEET1_T0_SB_SA_,"axG",@progbits,_ZSt13__copy_move_aILb0EN9__gnu_cxx17__normal_iteratorIPKiSt6vectorIiSaIiEEEENS1_IPiS6_EEET1_T0_SB_SA_,comdat
	.weak	_ZSt13__copy_move_aILb0EN9__gnu_cxx17__normal_iteratorIPKiSt6vectorIiSaIiEEEENS1_IPiS6_EEET1_T0_SB_SA_
	.type	_ZSt13__copy_move_aILb0EN9__gnu_cxx17__normal_iteratorIPKiSt6vectorIiSaIiEEEENS1_IPiS6_EEET1_T0_SB_SA_, @function
_ZSt13__copy_move_aILb0EN9__gnu_cxx17__normal_iteratorIPKiSt6vectorIiSaIiEEEENS1_IPiS6_EEET1_T0_SB_SA_:
.LFB11631:
	.cfi_startproc
	endbr64
	push	rbp
	.cfi_def_cfa_offset 16
	.cfi_offset 6, -16
	mov	rbp, rsp
	.cfi_def_cfa_register 6
	push	r12
	push	rbx
	sub	rsp, 32
	.cfi_offset 12, -24
	.cfi_offset 3, -32
	mov	QWORD PTR -24[rbp], rdi
	mov	QWORD PTR -32[rbp], rsi
	mov	QWORD PTR -40[rbp], rdx
	mov	rax, QWORD PTR -40[rbp]
	mov	rdi, rax
	call	_ZSt12__niter_baseIPiSt6vectorIiSaIiEEET_N9__gnu_cxx17__normal_iteratorIS4_T0_EE
	mov	r12, rax
	mov	rax, QWORD PTR -32[rbp]
	mov	rdi, rax
	call	_ZSt12__niter_baseIPKiSt6vectorIiSaIiEEET_N9__gnu_cxx17__normal_iteratorIS5_T0_EE
	mov	rbx, rax
	mov	rax, QWORD PTR -24[rbp]
	mov	rdi, rax
	call	_ZSt12__niter_baseIPKiSt6vectorIiSaIiEEET_N9__gnu_cxx17__normal_iteratorIS5_T0_EE
	mov	rdx, r12
	mov	rsi, rbx
	mov	rdi, rax
	call	_ZSt14__copy_move_a1ILb0EPKiPiET1_T0_S4_S3_
	mov	rdx, rax
	mov	rax, QWORD PTR -40[rbp]
	mov	rsi, rdx
	mov	rdi, rax
	call	_ZSt12__niter_wrapIN9__gnu_cxx17__normal_iteratorIPiSt6vectorIiSaIiEEEES2_ET_S7_T0_
	add	rsp, 32
	pop	rbx
	pop	r12
	pop	rbp
	.cfi_def_cfa 7, 8
	ret
	.cfi_endproc
.LFE11631:
	.size	_ZSt13__copy_move_aILb0EN9__gnu_cxx17__normal_iteratorIPKiSt6vectorIiSaIiEEEENS1_IPiS6_EEET1_T0_SB_SA_, .-_ZSt13__copy_move_aILb0EN9__gnu_cxx17__normal_iteratorIPKiSt6vectorIiSaIiEEEENS1_IPiS6_EEET1_T0_SB_SA_
	.section	.text._ZSt8_DestroyIN9__gnu_cxx17__normal_iteratorIPiSt6vectorIiSaIiEEEEEvT_S7_,"axG",@progbits,_ZSt8_DestroyIN9__gnu_cxx17__normal_iteratorIPiSt6vectorIiSaIiEEEEEvT_S7_,comdat
	.weak	_ZSt8_DestroyIN9__gnu_cxx17__normal_iteratorIPiSt6vectorIiSaIiEEEEEvT_S7_
	.type	_ZSt8_DestroyIN9__gnu_cxx17__normal_iteratorIPiSt6vectorIiSaIiEEEEEvT_S7_, @function
_ZSt8_DestroyIN9__gnu_cxx17__normal_iteratorIPiSt6vectorIiSaIiEEEEEvT_S7_:
.LFB11634:
	.cfi_startproc
	endbr64
	push	rbp
	.cfi_def_cfa_offset 16
	.cfi_offset 6, -16
	mov	rbp, rsp
	.cfi_def_cfa_register 6
	sub	rsp, 16
	mov	QWORD PTR -8[rbp], rdi
	mov	QWORD PTR -16[rbp], rsi
	mov	rdx, QWORD PTR -16[rbp]
	mov	rax, QWORD PTR -8[rbp]
	mov	rsi, rdx
	mov	rdi, rax
	call	_ZNSt12_Destroy_auxILb1EE9__destroyIN9__gnu_cxx17__normal_iteratorIPiSt6vectorIiSaIiEEEEEEvT_S9_
	nop
	leave
	.cfi_def_cfa 7, 8
	ret
	.cfi_endproc
.LFE11634:
	.size	_ZSt8_DestroyIN9__gnu_cxx17__normal_iteratorIPiSt6vectorIiSaIiEEEEEvT_S7_, .-_ZSt8_DestroyIN9__gnu_cxx17__normal_iteratorIPiSt6vectorIiSaIiEEEEEvT_S7_
	.section	.text._ZSt12__miter_baseIPiET_S1_,"axG",@progbits,_ZSt12__miter_baseIPiET_S1_,comdat
	.weak	_ZSt12__miter_baseIPiET_S1_
	.type	_ZSt12__miter_baseIPiET_S1_, @function
_ZSt12__miter_baseIPiET_S1_:
.LFB11635:
	.cfi_startproc
	endbr64
	push	rbp
	.cfi_def_cfa_offset 16
	.cfi_offset 6, -16
	mov	rbp, rsp
	.cfi_def_cfa_register 6
	mov	QWORD PTR -8[rbp], rdi
	mov	rax, QWORD PTR -8[rbp]
	pop	rbp
	.cfi_def_cfa 7, 8
	ret
	.cfi_endproc
.LFE11635:
	.size	_ZSt12__miter_baseIPiET_S1_, .-_ZSt12__miter_baseIPiET_S1_
	.section	.text._ZSt13__copy_move_aILb0EPiS0_ET1_T0_S2_S1_,"axG",@progbits,_ZSt13__copy_move_aILb0EPiS0_ET1_T0_S2_S1_,comdat
	.weak	_ZSt13__copy_move_aILb0EPiS0_ET1_T0_S2_S1_
	.type	_ZSt13__copy_move_aILb0EPiS0_ET1_T0_S2_S1_, @function
_ZSt13__copy_move_aILb0EPiS0_ET1_T0_S2_S1_:
.LFB11636:
	.cfi_startproc
	endbr64
	push	rbp
	.cfi_def_cfa_offset 16
	.cfi_offset 6, -16
	mov	rbp, rsp
	.cfi_def_cfa_register 6
	push	r12
	push	rbx
	sub	rsp, 32
	.cfi_offset 12, -24
	.cfi_offset 3, -32
	mov	QWORD PTR -24[rbp], rdi
	mov	QWORD PTR -32[rbp], rsi
	mov	QWORD PTR -40[rbp], rdx
	mov	rax, QWORD PTR -40[rbp]
	mov	rdi, rax
	call	_ZSt12__niter_baseIPiET_S1_
	mov	r12, rax
	mov	rax, QWORD PTR -32[rbp]
	mov	rdi, rax
	call	_ZSt12__niter_baseIPiET_S1_
	mov	rbx, rax
	mov	rax, QWORD PTR -24[rbp]
	mov	rdi, rax
	call	_ZSt12__niter_baseIPiET_S1_
	mov	rdx, r12
	mov	rsi, rbx
	mov	rdi, rax
	call	_ZSt14__copy_move_a1ILb0EPiS0_ET1_T0_S2_S1_
	mov	rdx, rax
	lea	rax, -40[rbp]
	mov	rsi, rdx
	mov	rdi, rax
	call	_ZSt12__niter_wrapIPiET_RKS1_S1_
	add	rsp, 32
	pop	rbx
	pop	r12
	pop	rbp
	.cfi_def_cfa 7, 8
	ret
	.cfi_endproc
.LFE11636:
	.size	_ZSt13__copy_move_aILb0EPiS0_ET1_T0_S2_S1_, .-_ZSt13__copy_move_aILb0EPiS0_ET1_T0_S2_S1_
	.section	.text._ZSt18uninitialized_copyIPiS0_ET0_T_S2_S1_,"axG",@progbits,_ZSt18uninitialized_copyIPiS0_ET0_T_S2_S1_,comdat
	.weak	_ZSt18uninitialized_copyIPiS0_ET0_T_S2_S1_
	.type	_ZSt18uninitialized_copyIPiS0_ET0_T_S2_S1_, @function
_ZSt18uninitialized_copyIPiS0_ET0_T_S2_S1_:
.LFB11637:
	.cfi_startproc
	endbr64
	push	rbp
	.cfi_def_cfa_offset 16
	.cfi_offset 6, -16
	mov	rbp, rsp
	.cfi_def_cfa_register 6
	sub	rsp, 48
	mov	QWORD PTR -24[rbp], rdi
	mov	QWORD PTR -32[rbp], rsi
	mov	QWORD PTR -40[rbp], rdx
	mov	BYTE PTR -1[rbp], 1
	mov	rdx, QWORD PTR -40[rbp]
	mov	rcx, QWORD PTR -32[rbp]
	mov	rax, QWORD PTR -24[rbp]
	mov	rsi, rcx
	mov	rdi, rax
	call	_ZNSt20__uninitialized_copyILb1EE13__uninit_copyIPiS2_EET0_T_S4_S3_
	leave
	.cfi_def_cfa 7, 8
	ret
	.cfi_endproc
.LFE11637:
	.size	_ZSt18uninitialized_copyIPiS0_ET0_T_S2_S1_, .-_ZSt18uninitialized_copyIPiS0_ET0_T_S2_S1_
	.section	.text._ZSt9__fill_a1IPiiEN9__gnu_cxx11__enable_ifIXsrSt11__is_scalarIT0_E7__valueEvE6__typeET_S8_RKS4_,"axG",@progbits,_ZSt9__fill_a1IPiiEN9__gnu_cxx11__enable_ifIXsrSt11__is_scalarIT0_E7__valueEvE6__typeET_S8_RKS4_,comdat
	.weak	_ZSt9__fill_a1IPiiEN9__gnu_cxx11__enable_ifIXsrSt11__is_scalarIT0_E7__valueEvE6__typeET_S8_RKS4_
	.type	_ZSt9__fill_a1IPiiEN9__gnu_cxx11__enable_ifIXsrSt11__is_scalarIT0_E7__valueEvE6__typeET_S8_RKS4_, @function
_ZSt9__fill_a1IPiiEN9__gnu_cxx11__enable_ifIXsrSt11__is_scalarIT0_E7__valueEvE6__typeET_S8_RKS4_:
.LFB11641:
	.cfi_startproc
	endbr64
	push	rbp
	.cfi_def_cfa_offset 16
	.cfi_offset 6, -16
	mov	rbp, rsp
	.cfi_def_cfa_register 6
	mov	QWORD PTR -24[rbp], rdi
	mov	QWORD PTR -32[rbp], rsi
	mov	QWORD PTR -40[rbp], rdx
	mov	rax, QWORD PTR -40[rbp]
	mov	eax, DWORD PTR [rax]
	mov	DWORD PTR -4[rbp], eax
	jmp	.L386
.L387:
	mov	rax, QWORD PTR -24[rbp]
	mov	edx, DWORD PTR -4[rbp]
	mov	DWORD PTR [rax], edx
	add	QWORD PTR -24[rbp], 4
.L386:
	mov	rax, QWORD PTR -24[rbp]
	cmp	rax, QWORD PTR -32[rbp]
	jne	.L387
	nop
	nop
	pop	rbp
	.cfi_def_cfa 7, 8
	ret
	.cfi_endproc
.LFE11641:
	.size	_ZSt9__fill_a1IPiiEN9__gnu_cxx11__enable_ifIXsrSt11__is_scalarIT0_E7__valueEvE6__typeET_S8_RKS4_, .-_ZSt9__fill_a1IPiiEN9__gnu_cxx11__enable_ifIXsrSt11__is_scalarIT0_E7__valueEvE6__typeET_S8_RKS4_
	.section	.text._ZNSt20__uninitialized_copyILb1EE13__uninit_copyIN9__gnu_cxx17__normal_iteratorIPKiSt6vectorIiSaIiEEEEPiEET0_T_SC_SB_,"axG",@progbits,_ZNSt20__uninitialized_copyILb1EE13__uninit_copyIN9__gnu_cxx17__normal_iteratorIPKiSt6vectorIiSaIiEEEEPiEET0_T_SC_SB_,comdat
	.weak	_ZNSt20__uninitialized_copyILb1EE13__uninit_copyIN9__gnu_cxx17__normal_iteratorIPKiSt6vectorIiSaIiEEEEPiEET0_T_SC_SB_
	.type	_ZNSt20__uninitialized_copyILb1EE13__uninit_copyIN9__gnu_cxx17__normal_iteratorIPKiSt6vectorIiSaIiEEEEPiEET0_T_SC_SB_, @function
_ZNSt20__uninitialized_copyILb1EE13__uninit_copyIN9__gnu_cxx17__normal_iteratorIPKiSt6vectorIiSaIiEEEEPiEET0_T_SC_SB_:
.LFB11642:
	.cfi_startproc
	endbr64
	push	rbp
	.cfi_def_cfa_offset 16
	.cfi_offset 6, -16
	mov	rbp, rsp
	.cfi_def_cfa_register 6
	sub	rsp, 32
	mov	QWORD PTR -8[rbp], rdi
	mov	QWORD PTR -16[rbp], rsi
	mov	QWORD PTR -24[rbp], rdx
	mov	rdx, QWORD PTR -24[rbp]
	mov	rcx, QWORD PTR -16[rbp]
	mov	rax, QWORD PTR -8[rbp]
	mov	rsi, rcx
	mov	rdi, rax
	call	_ZSt4copyIN9__gnu_cxx17__normal_iteratorIPKiSt6vectorIiSaIiEEEEPiET0_T_SA_S9_
	leave
	.cfi_def_cfa 7, 8
	ret
	.cfi_endproc
.LFE11642:
	.size	_ZNSt20__uninitialized_copyILb1EE13__uninit_copyIN9__gnu_cxx17__normal_iteratorIPKiSt6vectorIiSaIiEEEEPiEET0_T_SC_SB_, .-_ZNSt20__uninitialized_copyILb1EE13__uninit_copyIN9__gnu_cxx17__normal_iteratorIPKiSt6vectorIiSaIiEEEEPiEET0_T_SC_SB_
	.section	.text._ZSt4moveIRNSt12_Vector_baseIiSaIiEE12_Vector_implEEONSt16remove_referenceIT_E4typeEOS6_,"axG",@progbits,_ZSt4moveIRNSt12_Vector_baseIiSaIiEE12_Vector_implEEONSt16remove_referenceIT_E4typeEOS6_,comdat
	.weak	_ZSt4moveIRNSt12_Vector_baseIiSaIiEE12_Vector_implEEONSt16remove_referenceIT_E4typeEOS6_
	.type	_ZSt4moveIRNSt12_Vector_baseIiSaIiEE12_Vector_implEEONSt16remove_referenceIT_E4typeEOS6_, @function
_ZSt4moveIRNSt12_Vector_baseIiSaIiEE12_Vector_implEEONSt16remove_referenceIT_E4typeEOS6_:
.LFB11643:
	.cfi_startproc
	endbr64
	push	rbp
	.cfi_def_cfa_offset 16
	.cfi_offset 6, -16
	mov	rbp, rsp
	.cfi_def_cfa_register 6
	mov	QWORD PTR -8[rbp], rdi
	mov	rax, QWORD PTR -8[rbp]
	pop	rbp
	.cfi_def_cfa 7, 8
	ret
	.cfi_endproc
.LFE11643:
	.size	_ZSt4moveIRNSt12_Vector_baseIiSaIiEE12_Vector_implEEONSt16remove_referenceIT_E4typeEOS6_, .-_ZSt4moveIRNSt12_Vector_baseIiSaIiEE12_Vector_implEEONSt16remove_referenceIT_E4typeEOS6_
	.section	.text._ZNSt12_Vector_baseIiSaIiEE17_Vector_impl_dataC2EOS2_,"axG",@progbits,_ZNSt12_Vector_baseIiSaIiEE17_Vector_impl_dataC5EOS2_,comdat
	.align 2
	.weak	_ZNSt12_Vector_baseIiSaIiEE17_Vector_impl_dataC2EOS2_
	.type	_ZNSt12_Vector_baseIiSaIiEE17_Vector_impl_dataC2EOS2_, @function
_ZNSt12_Vector_baseIiSaIiEE17_Vector_impl_dataC2EOS2_:
.LFB11645:
	.cfi_startproc
	endbr64
	push	rbp
	.cfi_def_cfa_offset 16
	.cfi_offset 6, -16
	mov	rbp, rsp
	.cfi_def_cfa_register 6
	mov	QWORD PTR -8[rbp], rdi
	mov	QWORD PTR -16[rbp], rsi
	mov	rax, QWORD PTR -16[rbp]
	mov	rdx, QWORD PTR [rax]
	mov	rax, QWORD PTR -8[rbp]
	mov	QWORD PTR [rax], rdx
	mov	rax, QWORD PTR -16[rbp]
	mov	rdx, QWORD PTR 8[rax]
	mov	rax, QWORD PTR -8[rbp]
	mov	QWORD PTR 8[rax], rdx
	mov	rax, QWORD PTR -16[rbp]
	mov	rdx, QWORD PTR 16[rax]
	mov	rax, QWORD PTR -8[rbp]
	mov	QWORD PTR 16[rax], rdx
	mov	rax, QWORD PTR -16[rbp]
	mov	QWORD PTR 16[rax], 0
	mov	rax, QWORD PTR -16[rbp]
	mov	rdx, QWORD PTR 16[rax]
	mov	rax, QWORD PTR -16[rbp]
	mov	QWORD PTR 8[rax], rdx
	mov	rax, QWORD PTR -16[rbp]
	mov	rdx, QWORD PTR 8[rax]
	mov	rax, QWORD PTR -16[rbp]
	mov	QWORD PTR [rax], rdx
	nop
	pop	rbp
	.cfi_def_cfa 7, 8
	ret
	.cfi_endproc
.LFE11645:
	.size	_ZNSt12_Vector_baseIiSaIiEE17_Vector_impl_dataC2EOS2_, .-_ZNSt12_Vector_baseIiSaIiEE17_Vector_impl_dataC2EOS2_
	.weak	_ZNSt12_Vector_baseIiSaIiEE17_Vector_impl_dataC1EOS2_
	.set	_ZNSt12_Vector_baseIiSaIiEE17_Vector_impl_dataC1EOS2_,_ZNSt12_Vector_baseIiSaIiEE17_Vector_impl_dataC2EOS2_
	.section	.text._ZNSt6vectorIiSaIiEE14_M_move_assignEOS1_St17integral_constantIbLb1EE,"axG",@progbits,_ZNSt6vectorIiSaIiEE14_M_move_assignEOS1_St17integral_constantIbLb1EE,comdat
	.align 2
	.weak	_ZNSt6vectorIiSaIiEE14_M_move_assignEOS1_St17integral_constantIbLb1EE
	.type	_ZNSt6vectorIiSaIiEE14_M_move_assignEOS1_St17integral_constantIbLb1EE, @function
_ZNSt6vectorIiSaIiEE14_M_move_assignEOS1_St17integral_constantIbLb1EE:
.LFB11647:
	.cfi_startproc
	endbr64
	push	rbp
	.cfi_def_cfa_offset 16
	.cfi_offset 6, -16
	mov	rbp, rsp
	.cfi_def_cfa_register 6
	push	rbx
	sub	rsp, 72
	.cfi_offset 3, -24
	mov	QWORD PTR -72[rbp], rdi
	mov	QWORD PTR -80[rbp], rsi
	mov	rax, QWORD PTR fs:40
	mov	QWORD PTR -24[rbp], rax
	xor	eax, eax
	mov	rdx, QWORD PTR -72[rbp]
	lea	rax, -49[rbp]
	mov	rsi, rdx
	mov	rdi, rax
	call	_ZNKSt12_Vector_baseIiSaIiEE13get_allocatorEv
	lea	rdx, -49[rbp]
	lea	rax, -48[rbp]
	mov	rsi, rdx
	mov	rdi, rax
	call	_ZNSt6vectorIiSaIiEEC1ERKS0_
	lea	rax, -49[rbp]
	mov	rdi, rax
	call	_ZNSaIiED1Ev
	mov	rax, QWORD PTR -72[rbp]
	mov	rdx, QWORD PTR -80[rbp]
	mov	rsi, rdx
	mov	rdi, rax
	call	_ZNSt12_Vector_baseIiSaIiEE17_Vector_impl_data12_M_swap_dataERS2_
	mov	rdx, QWORD PTR -80[rbp]
	lea	rax, -48[rbp]
	mov	rsi, rdx
	mov	rdi, rax
	call	_ZNSt12_Vector_baseIiSaIiEE17_Vector_impl_data12_M_swap_dataERS2_
	mov	rax, QWORD PTR -80[rbp]
	mov	rdi, rax
	call	_ZNSt12_Vector_baseIiSaIiEE19_M_get_Tp_allocatorEv
	mov	rbx, rax
	mov	rax, QWORD PTR -72[rbp]
	mov	rdi, rax
	call	_ZNSt12_Vector_baseIiSaIiEE19_M_get_Tp_allocatorEv
	mov	rsi, rbx
	mov	rdi, rax
	call	_ZSt15__alloc_on_moveISaIiEEvRT_S2_
	lea	rax, -48[rbp]
	mov	rdi, rax
	call	_ZNSt6vectorIiSaIiEED1Ev
	mov	rax, QWORD PTR -24[rbp]
	sub	rax, QWORD PTR fs:40
	je	.L394
	call	__stack_chk_fail@PLT
.L394:
	mov	rbx, QWORD PTR -8[rbp]
	leave
	.cfi_def_cfa 7, 8
	ret
	.cfi_endproc
.LFE11647:
	.size	_ZNSt6vectorIiSaIiEE14_M_move_assignEOS1_St17integral_constantIbLb1EE, .-_ZNSt6vectorIiSaIiEE14_M_move_assignEOS1_St17integral_constantIbLb1EE
	.section	.text._ZSt12__niter_baseIPKiSt6vectorIiSaIiEEET_N9__gnu_cxx17__normal_iteratorIS5_T0_EE,"axG",@progbits,_ZSt12__niter_baseIPKiSt6vectorIiSaIiEEET_N9__gnu_cxx17__normal_iteratorIS5_T0_EE,comdat
	.weak	_ZSt12__niter_baseIPKiSt6vectorIiSaIiEEET_N9__gnu_cxx17__normal_iteratorIS5_T0_EE
	.type	_ZSt12__niter_baseIPKiSt6vectorIiSaIiEEET_N9__gnu_cxx17__normal_iteratorIS5_T0_EE, @function
_ZSt12__niter_baseIPKiSt6vectorIiSaIiEEET_N9__gnu_cxx17__normal_iteratorIS5_T0_EE:
.LFB11648:
	.cfi_startproc
	endbr64
	push	rbp
	.cfi_def_cfa_offset 16
	.cfi_offset 6, -16
	mov	rbp, rsp
	.cfi_def_cfa_register 6
	sub	rsp, 16
	mov	QWORD PTR -8[rbp], rdi
	lea	rax, -8[rbp]
	mov	rdi, rax
	call	_ZNK9__gnu_cxx17__normal_iteratorIPKiSt6vectorIiSaIiEEE4baseEv
	mov	rax, QWORD PTR [rax]
	leave
	.cfi_def_cfa 7, 8
	ret
	.cfi_endproc
.LFE11648:
	.size	_ZSt12__niter_baseIPKiSt6vectorIiSaIiEEET_N9__gnu_cxx17__normal_iteratorIS5_T0_EE, .-_ZSt12__niter_baseIPKiSt6vectorIiSaIiEEET_N9__gnu_cxx17__normal_iteratorIS5_T0_EE
	.section	.text._ZSt12__niter_baseIPiSt6vectorIiSaIiEEET_N9__gnu_cxx17__normal_iteratorIS4_T0_EE,"axG",@progbits,_ZSt12__niter_baseIPiSt6vectorIiSaIiEEET_N9__gnu_cxx17__normal_iteratorIS4_T0_EE,comdat
	.weak	_ZSt12__niter_baseIPiSt6vectorIiSaIiEEET_N9__gnu_cxx17__normal_iteratorIS4_T0_EE
	.type	_ZSt12__niter_baseIPiSt6vectorIiSaIiEEET_N9__gnu_cxx17__normal_iteratorIS4_T0_EE, @function
_ZSt12__niter_baseIPiSt6vectorIiSaIiEEET_N9__gnu_cxx17__normal_iteratorIS4_T0_EE:
.LFB11649:
	.cfi_startproc
	endbr64
	push	rbp
	.cfi_def_cfa_offset 16
	.cfi_offset 6, -16
	mov	rbp, rsp
	.cfi_def_cfa_register 6
	sub	rsp, 16
	mov	QWORD PTR -8[rbp], rdi
	lea	rax, -8[rbp]
	mov	rdi, rax
	call	_ZNK9__gnu_cxx17__normal_iteratorIPiSt6vectorIiSaIiEEE4baseEv
	mov	rax, QWORD PTR [rax]
	leave
	.cfi_def_cfa 7, 8
	ret
	.cfi_endproc
.LFE11649:
	.size	_ZSt12__niter_baseIPiSt6vectorIiSaIiEEET_N9__gnu_cxx17__normal_iteratorIS4_T0_EE, .-_ZSt12__niter_baseIPiSt6vectorIiSaIiEEET_N9__gnu_cxx17__normal_iteratorIS4_T0_EE
	.section	.text._ZSt14__copy_move_a1ILb0EPKiPiET1_T0_S4_S3_,"axG",@progbits,_ZSt14__copy_move_a1ILb0EPKiPiET1_T0_S4_S3_,comdat
	.weak	_ZSt14__copy_move_a1ILb0EPKiPiET1_T0_S4_S3_
	.type	_ZSt14__copy_move_a1ILb0EPKiPiET1_T0_S4_S3_, @function
_ZSt14__copy_move_a1ILb0EPKiPiET1_T0_S4_S3_:
.LFB11650:
	.cfi_startproc
	endbr64
	push	rbp
	.cfi_def_cfa_offset 16
	.cfi_offset 6, -16
	mov	rbp, rsp
	.cfi_def_cfa_register 6
	sub	rsp, 32
	mov	QWORD PTR -8[rbp], rdi
	mov	QWORD PTR -16[rbp], rsi
	mov	QWORD PTR -24[rbp], rdx
	mov	rdx, QWORD PTR -24[rbp]
	mov	rcx, QWORD PTR -16[rbp]
	mov	rax, QWORD PTR -8[rbp]
	mov	rsi, rcx
	mov	rdi, rax
	call	_ZSt14__copy_move_a2ILb0EPKiPiET1_T0_S4_S3_
	leave
	.cfi_def_cfa 7, 8
	ret
	.cfi_endproc
.LFE11650:
	.size	_ZSt14__copy_move_a1ILb0EPKiPiET1_T0_S4_S3_, .-_ZSt14__copy_move_a1ILb0EPKiPiET1_T0_S4_S3_
	.section	.text._ZSt12__niter_wrapIN9__gnu_cxx17__normal_iteratorIPiSt6vectorIiSaIiEEEES2_ET_S7_T0_,"axG",@progbits,_ZSt12__niter_wrapIN9__gnu_cxx17__normal_iteratorIPiSt6vectorIiSaIiEEEES2_ET_S7_T0_,comdat
	.weak	_ZSt12__niter_wrapIN9__gnu_cxx17__normal_iteratorIPiSt6vectorIiSaIiEEEES2_ET_S7_T0_
	.type	_ZSt12__niter_wrapIN9__gnu_cxx17__normal_iteratorIPiSt6vectorIiSaIiEEEES2_ET_S7_T0_, @function
_ZSt12__niter_wrapIN9__gnu_cxx17__normal_iteratorIPiSt6vectorIiSaIiEEEES2_ET_S7_T0_:
.LFB11651:
	.cfi_startproc
	endbr64
	push	rbp
	.cfi_def_cfa_offset 16
	.cfi_offset 6, -16
	mov	rbp, rsp
	.cfi_def_cfa_register 6
	sub	rsp, 16
	mov	QWORD PTR -8[rbp], rdi
	mov	QWORD PTR -16[rbp], rsi
	mov	rax, QWORD PTR -8[rbp]
	mov	rdi, rax
	call	_ZSt12__niter_baseIPiSt6vectorIiSaIiEEET_N9__gnu_cxx17__normal_iteratorIS4_T0_EE
	mov	rdx, rax
	mov	rax, QWORD PTR -16[rbp]
	sub	rax, rdx
	sar	rax, 2
	mov	rdx, rax
	lea	rax, -8[rbp]
	mov	rsi, rdx
	mov	rdi, rax
	call	_ZNK9__gnu_cxx17__normal_iteratorIPiSt6vectorIiSaIiEEEplEl
	leave
	.cfi_def_cfa 7, 8
	ret
	.cfi_endproc
.LFE11651:
	.size	_ZSt12__niter_wrapIN9__gnu_cxx17__normal_iteratorIPiSt6vectorIiSaIiEEEES2_ET_S7_T0_, .-_ZSt12__niter_wrapIN9__gnu_cxx17__normal_iteratorIPiSt6vectorIiSaIiEEEES2_ET_S7_T0_
	.section	.text._ZNSt12_Destroy_auxILb1EE9__destroyIN9__gnu_cxx17__normal_iteratorIPiSt6vectorIiSaIiEEEEEEvT_S9_,"axG",@progbits,_ZNSt12_Destroy_auxILb1EE9__destroyIN9__gnu_cxx17__normal_iteratorIPiSt6vectorIiSaIiEEEEEEvT_S9_,comdat
	.weak	_ZNSt12_Destroy_auxILb1EE9__destroyIN9__gnu_cxx17__normal_iteratorIPiSt6vectorIiSaIiEEEEEEvT_S9_
	.type	_ZNSt12_Destroy_auxILb1EE9__destroyIN9__gnu_cxx17__normal_iteratorIPiSt6vectorIiSaIiEEEEEEvT_S9_, @function
_ZNSt12_Destroy_auxILb1EE9__destroyIN9__gnu_cxx17__normal_iteratorIPiSt6vectorIiSaIiEEEEEEvT_S9_:
.LFB11652:
	.cfi_startproc
	endbr64
	push	rbp
	.cfi_def_cfa_offset 16
	.cfi_offset 6, -16
	mov	rbp, rsp
	.cfi_def_cfa_register 6
	mov	QWORD PTR -8[rbp], rdi
	mov	QWORD PTR -16[rbp], rsi
	nop
	pop	rbp
	.cfi_def_cfa 7, 8
	ret
	.cfi_endproc
.LFE11652:
	.size	_ZNSt12_Destroy_auxILb1EE9__destroyIN9__gnu_cxx17__normal_iteratorIPiSt6vectorIiSaIiEEEEEEvT_S9_, .-_ZNSt12_Destroy_auxILb1EE9__destroyIN9__gnu_cxx17__normal_iteratorIPiSt6vectorIiSaIiEEEEEEvT_S9_
	.section	.text._ZSt12__niter_baseIPiET_S1_,"axG",@progbits,_ZSt12__niter_baseIPiET_S1_,comdat
	.weak	_ZSt12__niter_baseIPiET_S1_
	.type	_ZSt12__niter_baseIPiET_S1_, @function
_ZSt12__niter_baseIPiET_S1_:
.LFB11653:
	.cfi_startproc
	endbr64
	push	rbp
	.cfi_def_cfa_offset 16
	.cfi_offset 6, -16
	mov	rbp, rsp
	.cfi_def_cfa_register 6
	mov	QWORD PTR -8[rbp], rdi
	mov	rax, QWORD PTR -8[rbp]
	pop	rbp
	.cfi_def_cfa 7, 8
	ret
	.cfi_endproc
.LFE11653:
	.size	_ZSt12__niter_baseIPiET_S1_, .-_ZSt12__niter_baseIPiET_S1_
	.section	.text._ZSt14__copy_move_a1ILb0EPiS0_ET1_T0_S2_S1_,"axG",@progbits,_ZSt14__copy_move_a1ILb0EPiS0_ET1_T0_S2_S1_,comdat
	.weak	_ZSt14__copy_move_a1ILb0EPiS0_ET1_T0_S2_S1_
	.type	_ZSt14__copy_move_a1ILb0EPiS0_ET1_T0_S2_S1_, @function
_ZSt14__copy_move_a1ILb0EPiS0_ET1_T0_S2_S1_:
.LFB11654:
	.cfi_startproc
	endbr64
	push	rbp
	.cfi_def_cfa_offset 16
	.cfi_offset 6, -16
	mov	rbp, rsp
	.cfi_def_cfa_register 6
	sub	rsp, 32
	mov	QWORD PTR -8[rbp], rdi
	mov	QWORD PTR -16[rbp], rsi
	mov	QWORD PTR -24[rbp], rdx
	mov	rdx, QWORD PTR -24[rbp]
	mov	rcx, QWORD PTR -16[rbp]
	mov	rax, QWORD PTR -8[rbp]
	mov	rsi, rcx
	mov	rdi, rax
	call	_ZSt14__copy_move_a2ILb0EPiS0_ET1_T0_S2_S1_
	leave
	.cfi_def_cfa 7, 8
	ret
	.cfi_endproc
.LFE11654:
	.size	_ZSt14__copy_move_a1ILb0EPiS0_ET1_T0_S2_S1_, .-_ZSt14__copy_move_a1ILb0EPiS0_ET1_T0_S2_S1_
	.section	.text._ZSt12__niter_wrapIPiET_RKS1_S1_,"axG",@progbits,_ZSt12__niter_wrapIPiET_RKS1_S1_,comdat
	.weak	_ZSt12__niter_wrapIPiET_RKS1_S1_
	.type	_ZSt12__niter_wrapIPiET_RKS1_S1_, @function
_ZSt12__niter_wrapIPiET_RKS1_S1_:
.LFB11655:
	.cfi_startproc
	endbr64
	push	rbp
	.cfi_def_cfa_offset 16
	.cfi_offset 6, -16
	mov	rbp, rsp
	.cfi_def_cfa_register 6
	mov	QWORD PTR -8[rbp], rdi
	mov	QWORD PTR -16[rbp], rsi
	mov	rax, QWORD PTR -16[rbp]
	pop	rbp
	.cfi_def_cfa 7, 8
	ret
	.cfi_endproc
.LFE11655:
	.size	_ZSt12__niter_wrapIPiET_RKS1_S1_, .-_ZSt12__niter_wrapIPiET_RKS1_S1_
	.section	.text._ZNSt20__uninitialized_copyILb1EE13__uninit_copyIPiS2_EET0_T_S4_S3_,"axG",@progbits,_ZNSt20__uninitialized_copyILb1EE13__uninit_copyIPiS2_EET0_T_S4_S3_,comdat
	.weak	_ZNSt20__uninitialized_copyILb1EE13__uninit_copyIPiS2_EET0_T_S4_S3_
	.type	_ZNSt20__uninitialized_copyILb1EE13__uninit_copyIPiS2_EET0_T_S4_S3_, @function
_ZNSt20__uninitialized_copyILb1EE13__uninit_copyIPiS2_EET0_T_S4_S3_:
.LFB11656:
	.cfi_startproc
	endbr64
	push	rbp
	.cfi_def_cfa_offset 16
	.cfi_offset 6, -16
	mov	rbp, rsp
	.cfi_def_cfa_register 6
	sub	rsp, 32
	mov	QWORD PTR -8[rbp], rdi
	mov	QWORD PTR -16[rbp], rsi
	mov	QWORD PTR -24[rbp], rdx
	mov	rdx, QWORD PTR -24[rbp]
	mov	rcx, QWORD PTR -16[rbp]
	mov	rax, QWORD PTR -8[rbp]
	mov	rsi, rcx
	mov	rdi, rax
	call	_ZSt4copyIPiS0_ET0_T_S2_S1_
	leave
	.cfi_def_cfa 7, 8
	ret
	.cfi_endproc
.LFE11656:
	.size	_ZNSt20__uninitialized_copyILb1EE13__uninit_copyIPiS2_EET0_T_S4_S3_, .-_ZNSt20__uninitialized_copyILb1EE13__uninit_copyIPiS2_EET0_T_S4_S3_
	.section	.text._ZSt4copyIN9__gnu_cxx17__normal_iteratorIPKiSt6vectorIiSaIiEEEEPiET0_T_SA_S9_,"axG",@progbits,_ZSt4copyIN9__gnu_cxx17__normal_iteratorIPKiSt6vectorIiSaIiEEEEPiET0_T_SA_S9_,comdat
	.weak	_ZSt4copyIN9__gnu_cxx17__normal_iteratorIPKiSt6vectorIiSaIiEEEEPiET0_T_SA_S9_
	.type	_ZSt4copyIN9__gnu_cxx17__normal_iteratorIPKiSt6vectorIiSaIiEEEEPiET0_T_SA_S9_, @function
_ZSt4copyIN9__gnu_cxx17__normal_iteratorIPKiSt6vectorIiSaIiEEEEPiET0_T_SA_S9_:
.LFB11668:
	.cfi_startproc
	endbr64
	push	rbp
	.cfi_def_cfa_offset 16
	.cfi_offset 6, -16
	mov	rbp, rsp
	.cfi_def_cfa_register 6
	push	rbx
	sub	rsp, 40
	.cfi_offset 3, -24
	mov	QWORD PTR -24[rbp], rdi
	mov	QWORD PTR -32[rbp], rsi
	mov	QWORD PTR -40[rbp], rdx
	mov	rax, QWORD PTR -32[rbp]
	mov	rdi, rax
	call	_ZSt12__miter_baseIN9__gnu_cxx17__normal_iteratorIPKiSt6vectorIiSaIiEEEEET_S8_
	mov	rbx, rax
	mov	rax, QWORD PTR -24[rbp]
	mov	rdi, rax
	call	_ZSt12__miter_baseIN9__gnu_cxx17__normal_iteratorIPKiSt6vectorIiSaIiEEEEET_S8_
	mov	rcx, rax
	mov	rax, QWORD PTR -40[rbp]
	mov	rdx, rax
	mov	rsi, rbx
	mov	rdi, rcx
	call	_ZSt13__copy_move_aILb0EN9__gnu_cxx17__normal_iteratorIPKiSt6vectorIiSaIiEEEEPiET1_T0_SA_S9_
	mov	rbx, QWORD PTR -8[rbp]
	leave
	.cfi_def_cfa 7, 8
	ret
	.cfi_endproc
.LFE11668:
	.size	_ZSt4copyIN9__gnu_cxx17__normal_iteratorIPKiSt6vectorIiSaIiEEEEPiET0_T_SA_S9_, .-_ZSt4copyIN9__gnu_cxx17__normal_iteratorIPKiSt6vectorIiSaIiEEEEPiET0_T_SA_S9_
	.section	.text._ZNKSt12_Vector_baseIiSaIiEE13get_allocatorEv,"axG",@progbits,_ZNKSt12_Vector_baseIiSaIiEE13get_allocatorEv,comdat
	.align 2
	.weak	_ZNKSt12_Vector_baseIiSaIiEE13get_allocatorEv
	.type	_ZNKSt12_Vector_baseIiSaIiEE13get_allocatorEv, @function
_ZNKSt12_Vector_baseIiSaIiEE13get_allocatorEv:
.LFB11669:
	.cfi_startproc
	endbr64
	push	rbp
	.cfi_def_cfa_offset 16
	.cfi_offset 6, -16
	mov	rbp, rsp
	.cfi_def_cfa_register 6
	sub	rsp, 16
	mov	QWORD PTR -8[rbp], rdi
	mov	QWORD PTR -16[rbp], rsi
	mov	rax, QWORD PTR -16[rbp]
	mov	rdi, rax
	call	_ZNKSt12_Vector_baseIiSaIiEE19_M_get_Tp_allocatorEv
	mov	rdx, rax
	mov	rax, QWORD PTR -8[rbp]
	mov	rsi, rdx
	mov	rdi, rax
	call	_ZNSaIiEC1ERKS_
	mov	rax, QWORD PTR -8[rbp]
	leave
	.cfi_def_cfa 7, 8
	ret
	.cfi_endproc
.LFE11669:
	.size	_ZNKSt12_Vector_baseIiSaIiEE13get_allocatorEv, .-_ZNKSt12_Vector_baseIiSaIiEE13get_allocatorEv
	.section	.text._ZNSt6vectorIiSaIiEEC2ERKS0_,"axG",@progbits,_ZNSt6vectorIiSaIiEEC5ERKS0_,comdat
	.align 2
	.weak	_ZNSt6vectorIiSaIiEEC2ERKS0_
	.type	_ZNSt6vectorIiSaIiEEC2ERKS0_, @function
_ZNSt6vectorIiSaIiEEC2ERKS0_:
.LFB11671:
	.cfi_startproc
	endbr64
	push	rbp
	.cfi_def_cfa_offset 16
	.cfi_offset 6, -16
	mov	rbp, rsp
	.cfi_def_cfa_register 6
	sub	rsp, 16
	mov	QWORD PTR -8[rbp], rdi
	mov	QWORD PTR -16[rbp], rsi
	mov	rax, QWORD PTR -8[rbp]
	mov	rdx, QWORD PTR -16[rbp]
	mov	rsi, rdx
	mov	rdi, rax
	call	_ZNSt12_Vector_baseIiSaIiEEC2ERKS0_
	nop
	leave
	.cfi_def_cfa 7, 8
	ret
	.cfi_endproc
.LFE11671:
	.size	_ZNSt6vectorIiSaIiEEC2ERKS0_, .-_ZNSt6vectorIiSaIiEEC2ERKS0_
	.weak	_ZNSt6vectorIiSaIiEEC1ERKS0_
	.set	_ZNSt6vectorIiSaIiEEC1ERKS0_,_ZNSt6vectorIiSaIiEEC2ERKS0_
	.section	.text._ZNSt12_Vector_baseIiSaIiEE17_Vector_impl_data12_M_swap_dataERS2_,"axG",@progbits,_ZNSt12_Vector_baseIiSaIiEE17_Vector_impl_data12_M_swap_dataERS2_,comdat
	.align 2
	.weak	_ZNSt12_Vector_baseIiSaIiEE17_Vector_impl_data12_M_swap_dataERS2_
	.type	_ZNSt12_Vector_baseIiSaIiEE17_Vector_impl_data12_M_swap_dataERS2_, @function
_ZNSt12_Vector_baseIiSaIiEE17_Vector_impl_data12_M_swap_dataERS2_:
.LFB11673:
	.cfi_startproc
	endbr64
	push	rbp
	.cfi_def_cfa_offset 16
	.cfi_offset 6, -16
	mov	rbp, rsp
	.cfi_def_cfa_register 6
	sub	rsp, 48
	mov	QWORD PTR -40[rbp], rdi
	mov	QWORD PTR -48[rbp], rsi
	mov	rax, QWORD PTR fs:40
	mov	QWORD PTR -8[rbp], rax
	xor	eax, eax
	lea	rax, -32[rbp]
	mov	rdi, rax
	call	_ZNSt12_Vector_baseIiSaIiEE17_Vector_impl_dataC1Ev
	mov	rdx, QWORD PTR -40[rbp]
	lea	rax, -32[rbp]
	mov	rsi, rdx
	mov	rdi, rax
	call	_ZNSt12_Vector_baseIiSaIiEE17_Vector_impl_data12_M_copy_dataERKS2_
	mov	rdx, QWORD PTR -48[rbp]
	mov	rax, QWORD PTR -40[rbp]
	mov	rsi, rdx
	mov	rdi, rax
	call	_ZNSt12_Vector_baseIiSaIiEE17_Vector_impl_data12_M_copy_dataERKS2_
	lea	rdx, -32[rbp]
	mov	rax, QWORD PTR -48[rbp]
	mov	rsi, rdx
	mov	rdi, rax
	call	_ZNSt12_Vector_baseIiSaIiEE17_Vector_impl_data12_M_copy_dataERKS2_
	nop
	mov	rax, QWORD PTR -8[rbp]
	sub	rax, QWORD PTR fs:40
	je	.L418
	call	__stack_chk_fail@PLT
.L418:
	leave
	.cfi_def_cfa 7, 8
	ret
	.cfi_endproc
.LFE11673:
	.size	_ZNSt12_Vector_baseIiSaIiEE17_Vector_impl_data12_M_swap_dataERS2_, .-_ZNSt12_Vector_baseIiSaIiEE17_Vector_impl_data12_M_swap_dataERS2_
	.section	.text._ZSt15__alloc_on_moveISaIiEEvRT_S2_,"axG",@progbits,_ZSt15__alloc_on_moveISaIiEEvRT_S2_,comdat
	.weak	_ZSt15__alloc_on_moveISaIiEEvRT_S2_
	.type	_ZSt15__alloc_on_moveISaIiEEvRT_S2_, @function
_ZSt15__alloc_on_moveISaIiEEvRT_S2_:
.LFB11674:
	.cfi_startproc
	endbr64
	push	rbp
	.cfi_def_cfa_offset 16
	.cfi_offset 6, -16
	mov	rbp, rsp
	.cfi_def_cfa_register 6
	sub	rsp, 16
	mov	QWORD PTR -8[rbp], rdi
	mov	QWORD PTR -16[rbp], rsi
	mov	rax, QWORD PTR -16[rbp]
	mov	rdi, rax
	call	_ZSt4moveIRSaIiEEONSt16remove_referenceIT_E4typeEOS3_
	nop
	leave
	.cfi_def_cfa 7, 8
	ret
	.cfi_endproc
.LFE11674:
	.size	_ZSt15__alloc_on_moveISaIiEEvRT_S2_, .-_ZSt15__alloc_on_moveISaIiEEvRT_S2_
	.section	.text._ZNK9__gnu_cxx17__normal_iteratorIPKiSt6vectorIiSaIiEEE4baseEv,"axG",@progbits,_ZNK9__gnu_cxx17__normal_iteratorIPKiSt6vectorIiSaIiEEE4baseEv,comdat
	.align 2
	.weak	_ZNK9__gnu_cxx17__normal_iteratorIPKiSt6vectorIiSaIiEEE4baseEv
	.type	_ZNK9__gnu_cxx17__normal_iteratorIPKiSt6vectorIiSaIiEEE4baseEv, @function
_ZNK9__gnu_cxx17__normal_iteratorIPKiSt6vectorIiSaIiEEE4baseEv:
.LFB11675:
	.cfi_startproc
	endbr64
	push	rbp
	.cfi_def_cfa_offset 16
	.cfi_offset 6, -16
	mov	rbp, rsp
	.cfi_def_cfa_register 6
	mov	QWORD PTR -8[rbp], rdi
	mov	rax, QWORD PTR -8[rbp]
	pop	rbp
	.cfi_def_cfa 7, 8
	ret
	.cfi_endproc
.LFE11675:
	.size	_ZNK9__gnu_cxx17__normal_iteratorIPKiSt6vectorIiSaIiEEE4baseEv, .-_ZNK9__gnu_cxx17__normal_iteratorIPKiSt6vectorIiSaIiEEE4baseEv
	.section	.text._ZNK9__gnu_cxx17__normal_iteratorIPiSt6vectorIiSaIiEEE4baseEv,"axG",@progbits,_ZNK9__gnu_cxx17__normal_iteratorIPiSt6vectorIiSaIiEEE4baseEv,comdat
	.align 2
	.weak	_ZNK9__gnu_cxx17__normal_iteratorIPiSt6vectorIiSaIiEEE4baseEv
	.type	_ZNK9__gnu_cxx17__normal_iteratorIPiSt6vectorIiSaIiEEE4baseEv, @function
_ZNK9__gnu_cxx17__normal_iteratorIPiSt6vectorIiSaIiEEE4baseEv:
.LFB11676:
	.cfi_startproc
	endbr64
	push	rbp
	.cfi_def_cfa_offset 16
	.cfi_offset 6, -16
	mov	rbp, rsp
	.cfi_def_cfa_register 6
	mov	QWORD PTR -8[rbp], rdi
	mov	rax, QWORD PTR -8[rbp]
	pop	rbp
	.cfi_def_cfa 7, 8
	ret
	.cfi_endproc
.LFE11676:
	.size	_ZNK9__gnu_cxx17__normal_iteratorIPiSt6vectorIiSaIiEEE4baseEv, .-_ZNK9__gnu_cxx17__normal_iteratorIPiSt6vectorIiSaIiEEE4baseEv
	.section	.text._ZSt14__copy_move_a2ILb0EPKiPiET1_T0_S4_S3_,"axG",@progbits,_ZSt14__copy_move_a2ILb0EPKiPiET1_T0_S4_S3_,comdat
	.weak	_ZSt14__copy_move_a2ILb0EPKiPiET1_T0_S4_S3_
	.type	_ZSt14__copy_move_a2ILb0EPKiPiET1_T0_S4_S3_, @function
_ZSt14__copy_move_a2ILb0EPKiPiET1_T0_S4_S3_:
.LFB11677:
	.cfi_startproc
	endbr64
	push	rbp
	.cfi_def_cfa_offset 16
	.cfi_offset 6, -16
	mov	rbp, rsp
	.cfi_def_cfa_register 6
	sub	rsp, 32
	mov	QWORD PTR -8[rbp], rdi
	mov	QWORD PTR -16[rbp], rsi
	mov	QWORD PTR -24[rbp], rdx
	mov	rdx, QWORD PTR -24[rbp]
	mov	rcx, QWORD PTR -16[rbp]
	mov	rax, QWORD PTR -8[rbp]
	mov	rsi, rcx
	mov	rdi, rax
	call	_ZNSt11__copy_moveILb0ELb1ESt26random_access_iterator_tagE8__copy_mIiEEPT_PKS3_S6_S4_
	leave
	.cfi_def_cfa 7, 8
	ret
	.cfi_endproc
.LFE11677:
	.size	_ZSt14__copy_move_a2ILb0EPKiPiET1_T0_S4_S3_, .-_ZSt14__copy_move_a2ILb0EPKiPiET1_T0_S4_S3_
	.section	.text._ZNK9__gnu_cxx17__normal_iteratorIPiSt6vectorIiSaIiEEEplEl,"axG",@progbits,_ZNK9__gnu_cxx17__normal_iteratorIPiSt6vectorIiSaIiEEEplEl,comdat
	.align 2
	.weak	_ZNK9__gnu_cxx17__normal_iteratorIPiSt6vectorIiSaIiEEEplEl
	.type	_ZNK9__gnu_cxx17__normal_iteratorIPiSt6vectorIiSaIiEEEplEl, @function
_ZNK9__gnu_cxx17__normal_iteratorIPiSt6vectorIiSaIiEEEplEl:
.LFB11678:
	.cfi_startproc
	endbr64
	push	rbp
	.cfi_def_cfa_offset 16
	.cfi_offset 6, -16
	mov	rbp, rsp
	.cfi_def_cfa_register 6
	sub	rsp, 48
	mov	QWORD PTR -40[rbp], rdi
	mov	QWORD PTR -48[rbp], rsi
	mov	rax, QWORD PTR fs:40
	mov	QWORD PTR -8[rbp], rax
	xor	eax, eax
	mov	rax, QWORD PTR -40[rbp]
	mov	rdx, QWORD PTR [rax]
	mov	rax, QWORD PTR -48[rbp]
	sal	rax, 2
	add	rax, rdx
	mov	QWORD PTR -24[rbp], rax
	lea	rdx, -24[rbp]
	lea	rax, -16[rbp]
	mov	rsi, rdx
	mov	rdi, rax
	call	_ZN9__gnu_cxx17__normal_iteratorIPiSt6vectorIiSaIiEEEC1ERKS1_
	mov	rax, QWORD PTR -16[rbp]
	mov	rdx, QWORD PTR -8[rbp]
	sub	rdx, QWORD PTR fs:40
	je	.L428
	call	__stack_chk_fail@PLT
.L428:
	leave
	.cfi_def_cfa 7, 8
	ret
	.cfi_endproc
.LFE11678:
	.size	_ZNK9__gnu_cxx17__normal_iteratorIPiSt6vectorIiSaIiEEEplEl, .-_ZNK9__gnu_cxx17__normal_iteratorIPiSt6vectorIiSaIiEEEplEl
	.section	.text._ZSt14__copy_move_a2ILb0EPiS0_ET1_T0_S2_S1_,"axG",@progbits,_ZSt14__copy_move_a2ILb0EPiS0_ET1_T0_S2_S1_,comdat
	.weak	_ZSt14__copy_move_a2ILb0EPiS0_ET1_T0_S2_S1_
	.type	_ZSt14__copy_move_a2ILb0EPiS0_ET1_T0_S2_S1_, @function
_ZSt14__copy_move_a2ILb0EPiS0_ET1_T0_S2_S1_:
.LFB11679:
	.cfi_startproc
	endbr64
	push	rbp
	.cfi_def_cfa_offset 16
	.cfi_offset 6, -16
	mov	rbp, rsp
	.cfi_def_cfa_register 6
	sub	rsp, 32
	mov	QWORD PTR -8[rbp], rdi
	mov	QWORD PTR -16[rbp], rsi
	mov	QWORD PTR -24[rbp], rdx
	mov	rdx, QWORD PTR -24[rbp]
	mov	rcx, QWORD PTR -16[rbp]
	mov	rax, QWORD PTR -8[rbp]
	mov	rsi, rcx
	mov	rdi, rax
	call	_ZNSt11__copy_moveILb0ELb1ESt26random_access_iterator_tagE8__copy_mIiEEPT_PKS3_S6_S4_
	leave
	.cfi_def_cfa 7, 8
	ret
	.cfi_endproc
.LFE11679:
	.size	_ZSt14__copy_move_a2ILb0EPiS0_ET1_T0_S2_S1_, .-_ZSt14__copy_move_a2ILb0EPiS0_ET1_T0_S2_S1_
	.section	.text._ZSt13__copy_move_aILb0EN9__gnu_cxx17__normal_iteratorIPKiSt6vectorIiSaIiEEEEPiET1_T0_SA_S9_,"axG",@progbits,_ZSt13__copy_move_aILb0EN9__gnu_cxx17__normal_iteratorIPKiSt6vectorIiSaIiEEEEPiET1_T0_SA_S9_,comdat
	.weak	_ZSt13__copy_move_aILb0EN9__gnu_cxx17__normal_iteratorIPKiSt6vectorIiSaIiEEEEPiET1_T0_SA_S9_
	.type	_ZSt13__copy_move_aILb0EN9__gnu_cxx17__normal_iteratorIPKiSt6vectorIiSaIiEEEEPiET1_T0_SA_S9_, @function
_ZSt13__copy_move_aILb0EN9__gnu_cxx17__normal_iteratorIPKiSt6vectorIiSaIiEEEEPiET1_T0_SA_S9_:
.LFB11681:
	.cfi_startproc
	endbr64
	push	rbp
	.cfi_def_cfa_offset 16
	.cfi_offset 6, -16
	mov	rbp, rsp
	.cfi_def_cfa_register 6
	push	r12
	push	rbx
	sub	rsp, 32
	.cfi_offset 12, -24
	.cfi_offset 3, -32
	mov	QWORD PTR -24[rbp], rdi
	mov	QWORD PTR -32[rbp], rsi
	mov	QWORD PTR -40[rbp], rdx
	mov	rax, QWORD PTR -40[rbp]
	mov	rdi, rax
	call	_ZSt12__niter_baseIPiET_S1_
	mov	r12, rax
	mov	rax, QWORD PTR -32[rbp]
	mov	rdi, rax
	call	_ZSt12__niter_baseIPKiSt6vectorIiSaIiEEET_N9__gnu_cxx17__normal_iteratorIS5_T0_EE
	mov	rbx, rax
	mov	rax, QWORD PTR -24[rbp]
	mov	rdi, rax
	call	_ZSt12__niter_baseIPKiSt6vectorIiSaIiEEET_N9__gnu_cxx17__normal_iteratorIS5_T0_EE
	mov	rdx, r12
	mov	rsi, rbx
	mov	rdi, rax
	call	_ZSt14__copy_move_a1ILb0EPKiPiET1_T0_S4_S3_
	mov	rdx, rax
	lea	rax, -40[rbp]
	mov	rsi, rdx
	mov	rdi, rax
	call	_ZSt12__niter_wrapIPiET_RKS1_S1_
	add	rsp, 32
	pop	rbx
	pop	r12
	pop	rbp
	.cfi_def_cfa 7, 8
	ret
	.cfi_endproc
.LFE11681:
	.size	_ZSt13__copy_move_aILb0EN9__gnu_cxx17__normal_iteratorIPKiSt6vectorIiSaIiEEEEPiET1_T0_SA_S9_, .-_ZSt13__copy_move_aILb0EN9__gnu_cxx17__normal_iteratorIPKiSt6vectorIiSaIiEEEEPiET1_T0_SA_S9_
	.section	.text._ZNSt12_Vector_baseIiSaIiEEC2ERKS0_,"axG",@progbits,_ZNSt12_Vector_baseIiSaIiEEC5ERKS0_,comdat
	.align 2
	.weak	_ZNSt12_Vector_baseIiSaIiEEC2ERKS0_
	.type	_ZNSt12_Vector_baseIiSaIiEEC2ERKS0_, @function
_ZNSt12_Vector_baseIiSaIiEEC2ERKS0_:
.LFB11683:
	.cfi_startproc
	endbr64
	push	rbp
	.cfi_def_cfa_offset 16
	.cfi_offset 6, -16
	mov	rbp, rsp
	.cfi_def_cfa_register 6
	sub	rsp, 16
	mov	QWORD PTR -8[rbp], rdi
	mov	QWORD PTR -16[rbp], rsi
	mov	rax, QWORD PTR -8[rbp]
	mov	rdx, QWORD PTR -16[rbp]
	mov	rsi, rdx
	mov	rdi, rax
	call	_ZNSt12_Vector_baseIiSaIiEE12_Vector_implC1ERKS0_
	nop
	leave
	.cfi_def_cfa 7, 8
	ret
	.cfi_endproc
.LFE11683:
	.size	_ZNSt12_Vector_baseIiSaIiEEC2ERKS0_, .-_ZNSt12_Vector_baseIiSaIiEEC2ERKS0_
	.weak	_ZNSt12_Vector_baseIiSaIiEEC1ERKS0_
	.set	_ZNSt12_Vector_baseIiSaIiEEC1ERKS0_,_ZNSt12_Vector_baseIiSaIiEEC2ERKS0_
	.section	.text._ZNSt12_Vector_baseIiSaIiEE17_Vector_impl_data12_M_copy_dataERKS2_,"axG",@progbits,_ZNSt12_Vector_baseIiSaIiEE17_Vector_impl_data12_M_copy_dataERKS2_,comdat
	.align 2
	.weak	_ZNSt12_Vector_baseIiSaIiEE17_Vector_impl_data12_M_copy_dataERKS2_
	.type	_ZNSt12_Vector_baseIiSaIiEE17_Vector_impl_data12_M_copy_dataERKS2_, @function
_ZNSt12_Vector_baseIiSaIiEE17_Vector_impl_data12_M_copy_dataERKS2_:
.LFB11685:
	.cfi_startproc
	endbr64
	push	rbp
	.cfi_def_cfa_offset 16
	.cfi_offset 6, -16
	mov	rbp, rsp
	.cfi_def_cfa_register 6
	mov	QWORD PTR -8[rbp], rdi
	mov	QWORD PTR -16[rbp], rsi
	mov	rax, QWORD PTR -16[rbp]
	mov	rdx, QWORD PTR [rax]
	mov	rax, QWORD PTR -8[rbp]
	mov	QWORD PTR [rax], rdx
	mov	rax, QWORD PTR -16[rbp]
	mov	rdx, QWORD PTR 8[rax]
	mov	rax, QWORD PTR -8[rbp]
	mov	QWORD PTR 8[rax], rdx
	mov	rax, QWORD PTR -16[rbp]
	mov	rdx, QWORD PTR 16[rax]
	mov	rax, QWORD PTR -8[rbp]
	mov	QWORD PTR 16[rax], rdx
	nop
	pop	rbp
	.cfi_def_cfa 7, 8
	ret
	.cfi_endproc
.LFE11685:
	.size	_ZNSt12_Vector_baseIiSaIiEE17_Vector_impl_data12_M_copy_dataERKS2_, .-_ZNSt12_Vector_baseIiSaIiEE17_Vector_impl_data12_M_copy_dataERKS2_
	.section	.text._ZSt4moveIRSaIiEEONSt16remove_referenceIT_E4typeEOS3_,"axG",@progbits,_ZSt4moveIRSaIiEEONSt16remove_referenceIT_E4typeEOS3_,comdat
	.weak	_ZSt4moveIRSaIiEEONSt16remove_referenceIT_E4typeEOS3_
	.type	_ZSt4moveIRSaIiEEONSt16remove_referenceIT_E4typeEOS3_, @function
_ZSt4moveIRSaIiEEONSt16remove_referenceIT_E4typeEOS3_:
.LFB11686:
	.cfi_startproc
	endbr64
	push	rbp
	.cfi_def_cfa_offset 16
	.cfi_offset 6, -16
	mov	rbp, rsp
	.cfi_def_cfa_register 6
	mov	QWORD PTR -8[rbp], rdi
	mov	rax, QWORD PTR -8[rbp]
	pop	rbp
	.cfi_def_cfa 7, 8
	ret
	.cfi_endproc
.LFE11686:
	.size	_ZSt4moveIRSaIiEEONSt16remove_referenceIT_E4typeEOS3_, .-_ZSt4moveIRSaIiEEONSt16remove_referenceIT_E4typeEOS3_
	.section	.text._ZNSt11__copy_moveILb0ELb1ESt26random_access_iterator_tagE8__copy_mIiEEPT_PKS3_S6_S4_,"axG",@progbits,_ZNSt11__copy_moveILb0ELb1ESt26random_access_iterator_tagE8__copy_mIiEEPT_PKS3_S6_S4_,comdat
	.weak	_ZNSt11__copy_moveILb0ELb1ESt26random_access_iterator_tagE8__copy_mIiEEPT_PKS3_S6_S4_
	.type	_ZNSt11__copy_moveILb0ELb1ESt26random_access_iterator_tagE8__copy_mIiEEPT_PKS3_S6_S4_, @function
_ZNSt11__copy_moveILb0ELb1ESt26random_access_iterator_tagE8__copy_mIiEEPT_PKS3_S6_S4_:
.LFB11687:
	.cfi_startproc
	endbr64
	push	rbp
	.cfi_def_cfa_offset 16
	.cfi_offset 6, -16
	mov	rbp, rsp
	.cfi_def_cfa_register 6
	sub	rsp, 48
	mov	QWORD PTR -24[rbp], rdi
	mov	QWORD PTR -32[rbp], rsi
	mov	QWORD PTR -40[rbp], rdx
	mov	rax, QWORD PTR -32[rbp]
	sub	rax, QWORD PTR -24[rbp]
	sar	rax, 2
	mov	QWORD PTR -8[rbp], rax
	cmp	QWORD PTR -8[rbp], 0
	je	.L438
	mov	rax, QWORD PTR -8[rbp]
	lea	rdx, 0[0+rax*4]
	mov	rcx, QWORD PTR -24[rbp]
	mov	rax, QWORD PTR -40[rbp]
	mov	rsi, rcx
	mov	rdi, rax
	call	memmove@PLT
.L438:
	mov	rax, QWORD PTR -8[rbp]
	lea	rdx, 0[0+rax*4]
	mov	rax, QWORD PTR -40[rbp]
	add	rax, rdx
	leave
	.cfi_def_cfa 7, 8
	ret
	.cfi_endproc
.LFE11687:
	.size	_ZNSt11__copy_moveILb0ELb1ESt26random_access_iterator_tagE8__copy_mIiEEPT_PKS3_S6_S4_, .-_ZNSt11__copy_moveILb0ELb1ESt26random_access_iterator_tagE8__copy_mIiEEPT_PKS3_S6_S4_
	.text
	.type	_Z41__static_initialization_and_destruction_0ii, @function
_Z41__static_initialization_and_destruction_0ii:
.LFB11725:
	.cfi_startproc
	endbr64
	push	rbp
	.cfi_def_cfa_offset 16
	.cfi_offset 6, -16
	mov	rbp, rsp
	.cfi_def_cfa_register 6
	sub	rsp, 16
	mov	DWORD PTR -4[rbp], edi
	mov	DWORD PTR -8[rbp], esi
	cmp	DWORD PTR -4[rbp], 1
	jne	.L442
	cmp	DWORD PTR -8[rbp], 65535
	jne	.L442
	lea	rax, _ZStL8__ioinit[rip]
	mov	rdi, rax
	call	_ZNSt8ios_base4InitC1Ev@PLT
	lea	rax, __dso_handle[rip]
	mov	rdx, rax
	lea	rax, _ZStL8__ioinit[rip]
	mov	rsi, rax
	mov	rax, QWORD PTR _ZNSt8ios_base4InitD1Ev@GOTPCREL[rip]
	mov	rdi, rax
	call	__cxa_atexit@PLT
	lea	rax, arr[rip]
	mov	rdi, rax
	call	_ZNSt6vectorIS_IiSaIiEESaIS1_EEC1Ev
	lea	rax, __dso_handle[rip]
	mov	rdx, rax
	lea	rax, arr[rip]
	mov	rsi, rax
	lea	rax, _ZNSt6vectorIS_IiSaIiEESaIS1_EED1Ev[rip]
	mov	rdi, rax
	call	__cxa_atexit@PLT
.L442:
	nop
	leave
	.cfi_def_cfa 7, 8
	ret
	.cfi_endproc
.LFE11725:
	.size	_Z41__static_initialization_and_destruction_0ii, .-_Z41__static_initialization_and_destruction_0ii
	.section	.text._ZNSt6vectorIS_IiSaIiEESaIS1_EED2Ev,"axG",@progbits,_ZNSt6vectorIS_IiSaIiEESaIS1_EED5Ev,comdat
	.align 2
	.weak	_ZNSt6vectorIS_IiSaIiEESaIS1_EED2Ev
	.type	_ZNSt6vectorIS_IiSaIiEESaIS1_EED2Ev, @function
_ZNSt6vectorIS_IiSaIiEESaIS1_EED2Ev:
.LFB11741:
	.cfi_startproc
	.cfi_personality 0x9b,DW.ref.__gxx_personality_v0
	.cfi_lsda 0x1b,.LLSDA11741
	endbr64
	push	rbp
	.cfi_def_cfa_offset 16
	.cfi_offset 6, -16
	mov	rbp, rsp
	.cfi_def_cfa_register 6
	sub	rsp, 16
	mov	QWORD PTR -8[rbp], rdi
	mov	rax, QWORD PTR -8[rbp]
	mov	rdi, rax
	call	_ZNSt12_Vector_baseISt6vectorIiSaIiEESaIS2_EE19_M_get_Tp_allocatorEv
	mov	rdx, rax
	mov	rax, QWORD PTR -8[rbp]
	mov	rcx, QWORD PTR 8[rax]
	mov	rax, QWORD PTR -8[rbp]
	mov	rax, QWORD PTR [rax]
	mov	rsi, rcx
	mov	rdi, rax
	call	_ZSt8_DestroyIPSt6vectorIiSaIiEES2_EvT_S4_RSaIT0_E
	mov	rax, QWORD PTR -8[rbp]
	mov	rdi, rax
	call	_ZNSt12_Vector_baseISt6vectorIiSaIiEESaIS2_EED2Ev
	nop
	leave
	.cfi_def_cfa 7, 8
	ret
	.cfi_endproc
.LFE11741:
	.section	.gcc_except_table
.LLSDA11741:
	.byte	0xff
	.byte	0xff
	.byte	0x1
	.uleb128 .LLSDACSE11741-.LLSDACSB11741
.LLSDACSB11741:
.LLSDACSE11741:
	.section	.text._ZNSt6vectorIS_IiSaIiEESaIS1_EED2Ev,"axG",@progbits,_ZNSt6vectorIS_IiSaIiEESaIS1_EED5Ev,comdat
	.size	_ZNSt6vectorIS_IiSaIiEESaIS1_EED2Ev, .-_ZNSt6vectorIS_IiSaIiEESaIS1_EED2Ev
	.weak	_ZNSt6vectorIS_IiSaIiEESaIS1_EED1Ev
	.set	_ZNSt6vectorIS_IiSaIiEESaIS1_EED1Ev,_ZNSt6vectorIS_IiSaIiEESaIS1_EED2Ev
	.text
	.type	_GLOBAL__sub_I__Z5setupv, @function
_GLOBAL__sub_I__Z5setupv:
.LFB11751:
	.cfi_startproc
	endbr64
	push	rbp
	.cfi_def_cfa_offset 16
	.cfi_offset 6, -16
	mov	rbp, rsp
	.cfi_def_cfa_register 6
	mov	esi, 65535
	mov	edi, 1
	call	_Z41__static_initialization_and_destruction_0ii
	pop	rbp
	.cfi_def_cfa 7, 8
	ret
	.cfi_endproc
.LFE11751:
	.size	_GLOBAL__sub_I__Z5setupv, .-_GLOBAL__sub_I__Z5setupv
	.section	.init_array,"aw"
	.align 8
	.quad	_GLOBAL__sub_I__Z5setupv
	.hidden	DW.ref.__gxx_personality_v0
	.weak	DW.ref.__gxx_personality_v0
	.section	.data.rel.local.DW.ref.__gxx_personality_v0,"awG",@progbits,DW.ref.__gxx_personality_v0,comdat
	.align 8
	.type	DW.ref.__gxx_personality_v0, @object
	.size	DW.ref.__gxx_personality_v0, 8
DW.ref.__gxx_personality_v0:
	.quad	__gxx_personality_v0
	.hidden	__dso_handle
	.ident	"GCC: (Ubuntu 11.4.0-1ubuntu1~22.04.2) 11.4.0"
	.section	.note.GNU-stack,"",@progbits
	.section	.note.gnu.property,"a"
	.align 8
	.long	1f - 0f
	.long	4f - 1f
	.long	5
0:
	.string	"GNU"
1:
	.align 8
	.long	0xc0000002
	.long	3f - 2f
2:
	.long	0x3
3:
	.align 8
4:
